ARM GAS  /tmp/ccYkUHZt.s 			page 1


   1              		.cpu arm1176jz-s
   2              		.eabi_attribute 20, 1
   3              		.eabi_attribute 21, 1
   4              		.eabi_attribute 23, 3
   5              		.eabi_attribute 24, 1
   6              		.eabi_attribute 25, 1
   7              		.eabi_attribute 26, 1
   8              		.eabi_attribute 30, 2
   9              		.eabi_attribute 34, 1
  10              		.eabi_attribute 18, 4
  11              		.file	"bcm2835.c"
  12              		.text
  13              	.Ltext0:
  14              		.cfi_sections	.debug_frame
  15              		.section	.text.bcm2835_gpio_fnsel,"ax",%progbits
  16              		.align	2
  17              		.global	bcm2835_gpio_fnsel
  18              		.arch armv6kz
  19              		.syntax unified
  20              		.arm
  21              		.fpu softvfp
  22              		.type	bcm2835_gpio_fnsel, %function
  23              	bcm2835_gpio_fnsel:
  24              	.LVL0:
  25              	.LFB0:
  26              		.file 1 "../os/hal/platforms/BCM2835/bcm2835.c"
  27              		.loc 1 12 1 view -0
  28              		.cfi_startproc
  29              		@ args = 0, pretend = 0, frame = 0
  30              		@ frame_needed = 0, uses_anonymous_args = 0
  31              		.loc 1 13 3 view .LVU1
  32              		.loc 1 14 3 view .LVU2
  33              		.loc 1 12 1 is_stmt 0 view .LVU3
  34 0000 04E02DE5 		str	lr, [sp, #-4]!
  35              		.cfi_def_cfa_offset 4
  36              		.cfi_offset 14, -4
  37              		.loc 1 16 22 view .LVU4
  38 0004 07E0A0E3 		mov	lr, #7
  39              		.loc 1 14 12 view .LVU5
  40 0008 38309FE5 		ldr	r3, .L4
  41 000c 932083E0 		umull	r2, r3, r3, r0
  42 0010 A331A0E1 		lsr	r3, r3, #3
  43 0014 0321A0E1 		lsl	r2, r3, #2
  44              		.loc 1 15 22 view .LVU6
  45 0018 022282E2 		add	r2, r2, #536870912
  46 001c 022682E2 		add	r2, r2, #2097152
  47              		.loc 1 14 12 view .LVU7
  48 0020 033183E0 		add	r3, r3, r3, lsl #2
  49              		.loc 1 16 12 view .LVU8
  50 0024 00C092E5 		ldr	ip, [r2]
  51              		.loc 1 14 12 view .LVU9
  52 0028 830040E0 		sub	r0, r0, r3, lsl #1
  53              	.LVL1:
  54              		.loc 1 14 12 view .LVU10
  55 002c 800080E0 		add	r0, r0, r0, lsl #1
  56              	.LVL2:
  57              		.loc 1 15 3 is_stmt 1 view .LVU11
ARM GAS  /tmp/ccYkUHZt.s 			page 2


  58              		.loc 1 16 3 view .LVU12
  59              		.loc 1 16 12 is_stmt 0 view .LVU13
  60 0030 1EC0CCE1 		bic	ip, ip, lr, lsl r0
  61 0034 00C082E5 		str	ip, [r2]
  62              		.loc 1 17 3 is_stmt 1 view .LVU14
  63              		.loc 1 17 12 is_stmt 0 view .LVU15
  64 0038 003092E5 		ldr	r3, [r2]
  65 003c 110083E1 		orr	r0, r3, r1, lsl r0
  66              	.LVL3:
  67              		.loc 1 17 12 view .LVU16
  68 0040 000082E5 		str	r0, [r2]
  69              		.loc 1 18 1 view .LVU17
  70 0044 04F09DE4 		ldr	pc, [sp], #4
  71              	.L5:
  72              		.align	2
  73              	.L4:
  74 0048 CDCCCCCC 		.word	-858993459
  75              		.cfi_endproc
  76              	.LFE0:
  77              		.size	bcm2835_gpio_fnsel, .-bcm2835_gpio_fnsel
  78              		.section	.text.bcm2835_delay,"ax",%progbits
  79              		.align	2
  80              		.global	bcm2835_delay
  81              		.syntax unified
  82              		.arm
  83              		.fpu softvfp
  84              		.type	bcm2835_delay, %function
  85              	bcm2835_delay:
  86              	.LVL4:
  87              	.LFB1:
  88              		.loc 1 21 1 is_stmt 1 view -0
  89              		.cfi_startproc
  90              		@ args = 0, pretend = 0, frame = 8
  91              		@ frame_needed = 0, uses_anonymous_args = 0
  92              		@ link register save eliminated.
  93              		.loc 1 22 3 view .LVU19
  94              		.loc 1 22 21 is_stmt 0 view .LVU20
  95 0000 0030A0E3 		mov	r3, #0
  96              		.loc 1 21 1 view .LVU21
  97 0004 08D04DE2 		sub	sp, sp, #8
  98              		.cfi_def_cfa_offset 8
  99              		.loc 1 22 21 view .LVU22
 100 0008 04308DE5 		str	r3, [sp, #4]
 101              		.loc 1 23 3 is_stmt 1 view .LVU23
 102              		.loc 1 23 9 is_stmt 0 view .LVU24
 103 000c 04308DE5 		str	r3, [sp, #4]
 104              		.loc 1 23 14 is_stmt 1 view .LVU25
 105              		.loc 1 23 16 is_stmt 0 view .LVU26
 106 0010 04309DE5 		ldr	r3, [sp, #4]
 107              		.loc 1 23 3 view .LVU27
 108 0014 030050E1 		cmp	r0, r3
 109 0018 0500009A 		bls	.L6
 110              	.L8:
 111              		.loc 1 23 25 is_stmt 1 discriminator 3 view .LVU28
 112              		.loc 1 23 21 discriminator 3 view .LVU29
 113              		.loc 1 23 22 is_stmt 0 discriminator 3 view .LVU30
 114 001c 04309DE5 		ldr	r3, [sp, #4]
ARM GAS  /tmp/ccYkUHZt.s 			page 3


 115 0020 013083E2 		add	r3, r3, #1
 116 0024 04308DE5 		str	r3, [sp, #4]
 117              		.loc 1 23 14 is_stmt 1 discriminator 3 view .LVU31
 118              		.loc 1 23 16 is_stmt 0 discriminator 3 view .LVU32
 119 0028 04309DE5 		ldr	r3, [sp, #4]
 120              		.loc 1 23 3 discriminator 3 view .LVU33
 121 002c 000053E1 		cmp	r3, r0
 122 0030 F9FFFF3A 		bcc	.L8
 123              	.L6:
 124              		.loc 1 24 1 view .LVU34
 125 0034 08D08DE2 		add	sp, sp, #8
 126              		.cfi_def_cfa_offset 0
 127              		@ sp needed
 128 0038 1EFF2FE1 		bx	lr
 129              		.cfi_endproc
 130              	.LFE1:
 131              		.size	bcm2835_delay, .-bcm2835_delay
 132              		.text
 133              	.Letext0:
 134              		.file 2 "/usr/lib/gcc/arm-none-eabi/9.2.1/include/stdint.h"
 135              		.section	.debug_info,"",%progbits
 136              	.Ldebug_info0:
 137 0000 24010000 		.4byte	0x124
 138 0004 0400     		.2byte	0x4
 139 0006 00000000 		.4byte	.Ldebug_abbrev0
 140 000a 04       		.byte	0x4
 141 000b 01       		.uleb128 0x1
 142 000c D9000000 		.4byte	.LASF15
 143 0010 0C       		.byte	0xc
 144 0011 7D000000 		.4byte	.LASF16
 145 0015 13000000 		.4byte	.LASF17
 146 0019 00000000 		.4byte	.Ldebug_ranges0+0
 147 001d 00000000 		.4byte	0
 148 0021 00000000 		.4byte	.Ldebug_line0
 149 0025 02       		.uleb128 0x2
 150 0026 04       		.byte	0x4
 151 0027 07       		.byte	0x7
 152 0028 AD010000 		.4byte	.LASF0
 153 002c 02       		.uleb128 0x2
 154 002d 08       		.byte	0x8
 155 002e 07       		.byte	0x7
 156 002f BA010000 		.4byte	.LASF1
 157 0033 03       		.uleb128 0x3
 158 0034 04       		.byte	0x4
 159 0035 05       		.byte	0x5
 160 0036 696E7400 		.ascii	"int\000"
 161 003a 02       		.uleb128 0x2
 162 003b 01       		.byte	0x1
 163 003c 06       		.byte	0x6
 164 003d 18020000 		.4byte	.LASF2
 165 0041 02       		.uleb128 0x2
 166 0042 02       		.byte	0x2
 167 0043 05       		.byte	0x5
 168 0044 F4010000 		.4byte	.LASF3
 169 0048 02       		.uleb128 0x2
 170 0049 04       		.byte	0x4
 171 004a 05       		.byte	0x5
ARM GAS  /tmp/ccYkUHZt.s 			page 4


 172 004b 0F020000 		.4byte	.LASF4
 173 004f 02       		.uleb128 0x2
 174 0050 08       		.byte	0x8
 175 0051 05       		.byte	0x5
 176 0052 DF010000 		.4byte	.LASF5
 177 0056 02       		.uleb128 0x2
 178 0057 01       		.byte	0x1
 179 0058 08       		.byte	0x8
 180 0059 6F000000 		.4byte	.LASF6
 181 005d 02       		.uleb128 0x2
 182 005e 02       		.byte	0x2
 183 005f 07       		.byte	0x7
 184 0060 B5000000 		.4byte	.LASF7
 185 0064 04       		.uleb128 0x4
 186 0065 06020000 		.4byte	.LASF18
 187 0069 02       		.byte	0x2
 188 006a 34       		.byte	0x34
 189 006b 19       		.byte	0x19
 190 006c 75000000 		.4byte	0x75
 191 0070 05       		.uleb128 0x5
 192 0071 64000000 		.4byte	0x64
 193 0075 02       		.uleb128 0x2
 194 0076 04       		.byte	0x4
 195 0077 07       		.byte	0x7
 196 0078 A3000000 		.4byte	.LASF8
 197 007c 06       		.uleb128 0x6
 198 007d D1010000 		.4byte	.LASF9
 199 0081 01       		.byte	0x1
 200 0082 14       		.byte	0x14
 201 0083 06       		.byte	0x6
 202 0084 00000000 		.4byte	.LFB1
 203 0088 3C000000 		.4byte	.LFE1-.LFB1
 204 008c 01       		.uleb128 0x1
 205 008d 9C       		.byte	0x9c
 206 008e AC000000 		.4byte	0xac
 207 0092 07       		.uleb128 0x7
 208 0093 6E00     		.ascii	"n\000"
 209 0095 01       		.byte	0x1
 210 0096 14       		.byte	0x14
 211 0097 1D       		.byte	0x1d
 212 0098 64000000 		.4byte	0x64
 213 009c 01       		.uleb128 0x1
 214 009d 50       		.byte	0x50
 215 009e 08       		.uleb128 0x8
 216 009f 6900     		.ascii	"i\000"
 217 00a1 01       		.byte	0x1
 218 00a2 16       		.byte	0x16
 219 00a3 15       		.byte	0x15
 220 00a4 70000000 		.4byte	0x70
 221 00a8 02       		.uleb128 0x2
 222 00a9 91       		.byte	0x91
 223 00aa 7C       		.sleb128 -4
 224 00ab 00       		.byte	0
 225 00ac 06       		.uleb128 0x6
 226 00ad 00000000 		.4byte	.LASF10
 227 00b1 01       		.byte	0x1
 228 00b2 0B       		.byte	0xb
ARM GAS  /tmp/ccYkUHZt.s 			page 5


 229 00b3 06       		.byte	0x6
 230 00b4 00000000 		.4byte	.LFB0
 231 00b8 4C000000 		.4byte	.LFE0-.LFB0
 232 00bc 01       		.uleb128 0x1
 233 00bd 9C       		.byte	0x9c
 234 00be 21010000 		.4byte	0x121
 235 00c2 09       		.uleb128 0x9
 236 00c3 D0000000 		.4byte	.LASF19
 237 00c7 01       		.byte	0x1
 238 00c8 0B       		.byte	0xb
 239 00c9 22       		.byte	0x22
 240 00ca 64000000 		.4byte	0x64
 241 00ce 04000000 		.4byte	.LLST0
 242 00d2 00000000 		.4byte	.LVUS0
 243 00d6 0A       		.uleb128 0xa
 244 00d7 C8000000 		.4byte	.LASF11
 245 00db 01       		.byte	0x1
 246 00dc 0B       		.byte	0xb
 247 00dd 35       		.byte	0x35
 248 00de 64000000 		.4byte	0x64
 249 00e2 01       		.uleb128 0x1
 250 00e3 51       		.byte	0x51
 251 00e4 0B       		.uleb128 0xb
 252 00e5 66000000 		.4byte	.LASF12
 253 00e9 01       		.byte	0x1
 254 00ea 0D       		.byte	0xd
 255 00eb 0C       		.byte	0xc
 256 00ec 64000000 		.4byte	0x64
 257 00f0 29000000 		.4byte	.LLST1
 258 00f4 25000000 		.4byte	.LVUS1
 259 00f8 0B       		.uleb128 0xb
 260 00f9 ED010000 		.4byte	.LASF13
 261 00fd 01       		.byte	0x1
 262 00fe 0E       		.byte	0xe
 263 00ff 0C       		.byte	0xc
 264 0100 64000000 		.4byte	0x64
 265 0104 60000000 		.4byte	.LLST2
 266 0108 5C000000 		.4byte	.LVUS2
 267 010c 0B       		.uleb128 0xb
 268 010d FE010000 		.4byte	.LASF14
 269 0111 01       		.byte	0x1
 270 0112 0F       		.byte	0xf
 271 0113 16       		.byte	0x16
 272 0114 21010000 		.4byte	0x121
 273 0118 A8000000 		.4byte	.LLST3
 274 011c A6000000 		.4byte	.LVUS3
 275 0120 00       		.byte	0
 276 0121 0C       		.uleb128 0xc
 277 0122 04       		.byte	0x4
 278 0123 70000000 		.4byte	0x70
 279 0127 00       		.byte	0
 280              		.section	.debug_abbrev,"",%progbits
 281              	.Ldebug_abbrev0:
 282 0000 01       		.uleb128 0x1
 283 0001 11       		.uleb128 0x11
 284 0002 01       		.byte	0x1
 285 0003 25       		.uleb128 0x25
ARM GAS  /tmp/ccYkUHZt.s 			page 6


 286 0004 0E       		.uleb128 0xe
 287 0005 13       		.uleb128 0x13
 288 0006 0B       		.uleb128 0xb
 289 0007 03       		.uleb128 0x3
 290 0008 0E       		.uleb128 0xe
 291 0009 1B       		.uleb128 0x1b
 292 000a 0E       		.uleb128 0xe
 293 000b 55       		.uleb128 0x55
 294 000c 17       		.uleb128 0x17
 295 000d 11       		.uleb128 0x11
 296 000e 01       		.uleb128 0x1
 297 000f 10       		.uleb128 0x10
 298 0010 17       		.uleb128 0x17
 299 0011 00       		.byte	0
 300 0012 00       		.byte	0
 301 0013 02       		.uleb128 0x2
 302 0014 24       		.uleb128 0x24
 303 0015 00       		.byte	0
 304 0016 0B       		.uleb128 0xb
 305 0017 0B       		.uleb128 0xb
 306 0018 3E       		.uleb128 0x3e
 307 0019 0B       		.uleb128 0xb
 308 001a 03       		.uleb128 0x3
 309 001b 0E       		.uleb128 0xe
 310 001c 00       		.byte	0
 311 001d 00       		.byte	0
 312 001e 03       		.uleb128 0x3
 313 001f 24       		.uleb128 0x24
 314 0020 00       		.byte	0
 315 0021 0B       		.uleb128 0xb
 316 0022 0B       		.uleb128 0xb
 317 0023 3E       		.uleb128 0x3e
 318 0024 0B       		.uleb128 0xb
 319 0025 03       		.uleb128 0x3
 320 0026 08       		.uleb128 0x8
 321 0027 00       		.byte	0
 322 0028 00       		.byte	0
 323 0029 04       		.uleb128 0x4
 324 002a 16       		.uleb128 0x16
 325 002b 00       		.byte	0
 326 002c 03       		.uleb128 0x3
 327 002d 0E       		.uleb128 0xe
 328 002e 3A       		.uleb128 0x3a
 329 002f 0B       		.uleb128 0xb
 330 0030 3B       		.uleb128 0x3b
 331 0031 0B       		.uleb128 0xb
 332 0032 39       		.uleb128 0x39
 333 0033 0B       		.uleb128 0xb
 334 0034 49       		.uleb128 0x49
 335 0035 13       		.uleb128 0x13
 336 0036 00       		.byte	0
 337 0037 00       		.byte	0
 338 0038 05       		.uleb128 0x5
 339 0039 35       		.uleb128 0x35
 340 003a 00       		.byte	0
 341 003b 49       		.uleb128 0x49
 342 003c 13       		.uleb128 0x13
ARM GAS  /tmp/ccYkUHZt.s 			page 7


 343 003d 00       		.byte	0
 344 003e 00       		.byte	0
 345 003f 06       		.uleb128 0x6
 346 0040 2E       		.uleb128 0x2e
 347 0041 01       		.byte	0x1
 348 0042 3F       		.uleb128 0x3f
 349 0043 19       		.uleb128 0x19
 350 0044 03       		.uleb128 0x3
 351 0045 0E       		.uleb128 0xe
 352 0046 3A       		.uleb128 0x3a
 353 0047 0B       		.uleb128 0xb
 354 0048 3B       		.uleb128 0x3b
 355 0049 0B       		.uleb128 0xb
 356 004a 39       		.uleb128 0x39
 357 004b 0B       		.uleb128 0xb
 358 004c 27       		.uleb128 0x27
 359 004d 19       		.uleb128 0x19
 360 004e 11       		.uleb128 0x11
 361 004f 01       		.uleb128 0x1
 362 0050 12       		.uleb128 0x12
 363 0051 06       		.uleb128 0x6
 364 0052 40       		.uleb128 0x40
 365 0053 18       		.uleb128 0x18
 366 0054 9742     		.uleb128 0x2117
 367 0056 19       		.uleb128 0x19
 368 0057 01       		.uleb128 0x1
 369 0058 13       		.uleb128 0x13
 370 0059 00       		.byte	0
 371 005a 00       		.byte	0
 372 005b 07       		.uleb128 0x7
 373 005c 05       		.uleb128 0x5
 374 005d 00       		.byte	0
 375 005e 03       		.uleb128 0x3
 376 005f 08       		.uleb128 0x8
 377 0060 3A       		.uleb128 0x3a
 378 0061 0B       		.uleb128 0xb
 379 0062 3B       		.uleb128 0x3b
 380 0063 0B       		.uleb128 0xb
 381 0064 39       		.uleb128 0x39
 382 0065 0B       		.uleb128 0xb
 383 0066 49       		.uleb128 0x49
 384 0067 13       		.uleb128 0x13
 385 0068 02       		.uleb128 0x2
 386 0069 18       		.uleb128 0x18
 387 006a 00       		.byte	0
 388 006b 00       		.byte	0
 389 006c 08       		.uleb128 0x8
 390 006d 34       		.uleb128 0x34
 391 006e 00       		.byte	0
 392 006f 03       		.uleb128 0x3
 393 0070 08       		.uleb128 0x8
 394 0071 3A       		.uleb128 0x3a
 395 0072 0B       		.uleb128 0xb
 396 0073 3B       		.uleb128 0x3b
 397 0074 0B       		.uleb128 0xb
 398 0075 39       		.uleb128 0x39
 399 0076 0B       		.uleb128 0xb
ARM GAS  /tmp/ccYkUHZt.s 			page 8


 400 0077 49       		.uleb128 0x49
 401 0078 13       		.uleb128 0x13
 402 0079 02       		.uleb128 0x2
 403 007a 18       		.uleb128 0x18
 404 007b 00       		.byte	0
 405 007c 00       		.byte	0
 406 007d 09       		.uleb128 0x9
 407 007e 05       		.uleb128 0x5
 408 007f 00       		.byte	0
 409 0080 03       		.uleb128 0x3
 410 0081 0E       		.uleb128 0xe
 411 0082 3A       		.uleb128 0x3a
 412 0083 0B       		.uleb128 0xb
 413 0084 3B       		.uleb128 0x3b
 414 0085 0B       		.uleb128 0xb
 415 0086 39       		.uleb128 0x39
 416 0087 0B       		.uleb128 0xb
 417 0088 49       		.uleb128 0x49
 418 0089 13       		.uleb128 0x13
 419 008a 02       		.uleb128 0x2
 420 008b 17       		.uleb128 0x17
 421 008c B742     		.uleb128 0x2137
 422 008e 17       		.uleb128 0x17
 423 008f 00       		.byte	0
 424 0090 00       		.byte	0
 425 0091 0A       		.uleb128 0xa
 426 0092 05       		.uleb128 0x5
 427 0093 00       		.byte	0
 428 0094 03       		.uleb128 0x3
 429 0095 0E       		.uleb128 0xe
 430 0096 3A       		.uleb128 0x3a
 431 0097 0B       		.uleb128 0xb
 432 0098 3B       		.uleb128 0x3b
 433 0099 0B       		.uleb128 0xb
 434 009a 39       		.uleb128 0x39
 435 009b 0B       		.uleb128 0xb
 436 009c 49       		.uleb128 0x49
 437 009d 13       		.uleb128 0x13
 438 009e 02       		.uleb128 0x2
 439 009f 18       		.uleb128 0x18
 440 00a0 00       		.byte	0
 441 00a1 00       		.byte	0
 442 00a2 0B       		.uleb128 0xb
 443 00a3 34       		.uleb128 0x34
 444 00a4 00       		.byte	0
 445 00a5 03       		.uleb128 0x3
 446 00a6 0E       		.uleb128 0xe
 447 00a7 3A       		.uleb128 0x3a
 448 00a8 0B       		.uleb128 0xb
 449 00a9 3B       		.uleb128 0x3b
 450 00aa 0B       		.uleb128 0xb
 451 00ab 39       		.uleb128 0x39
 452 00ac 0B       		.uleb128 0xb
 453 00ad 49       		.uleb128 0x49
 454 00ae 13       		.uleb128 0x13
 455 00af 02       		.uleb128 0x2
 456 00b0 17       		.uleb128 0x17
ARM GAS  /tmp/ccYkUHZt.s 			page 9


 457 00b1 B742     		.uleb128 0x2137
 458 00b3 17       		.uleb128 0x17
 459 00b4 00       		.byte	0
 460 00b5 00       		.byte	0
 461 00b6 0C       		.uleb128 0xc
 462 00b7 0F       		.uleb128 0xf
 463 00b8 00       		.byte	0
 464 00b9 0B       		.uleb128 0xb
 465 00ba 0B       		.uleb128 0xb
 466 00bb 49       		.uleb128 0x49
 467 00bc 13       		.uleb128 0x13
 468 00bd 00       		.byte	0
 469 00be 00       		.byte	0
 470 00bf 00       		.byte	0
 471              		.section	.debug_loc,"",%progbits
 472              	.Ldebug_loc0:
 473              	.LVUS0:
 474 0000 00       		.uleb128 0
 475 0001 00       		.uleb128 .LVU10
 476 0002 00       		.uleb128 .LVU10
 477 0003 00       		.uleb128 0
 478              	.LLST0:
 479 0004 00000000 		.4byte	.LVL0
 480 0008 2C000000 		.4byte	.LVL1
 481 000c 0100     		.2byte	0x1
 482 000e 50       		.byte	0x50
 483 000f 2C000000 		.4byte	.LVL1
 484 0013 4C000000 		.4byte	.LFE0
 485 0017 0400     		.2byte	0x4
 486 0019 F3       		.byte	0xf3
 487 001a 01       		.uleb128 0x1
 488 001b 50       		.byte	0x50
 489 001c 9F       		.byte	0x9f
 490 001d 00000000 		.4byte	0
 491 0021 00000000 		.4byte	0
 492              	.LVUS1:
 493 0025 02       		.uleb128 .LVU2
 494 0026 00       		.uleb128 .LVU10
 495 0027 00       		.uleb128 .LVU10
 496 0028 00       		.uleb128 0
 497              	.LLST1:
 498 0029 00000000 		.4byte	.LVL0
 499 002d 2C000000 		.4byte	.LVL1
 500 0031 0B00     		.2byte	0xb
 501 0033 70       		.byte	0x70
 502 0034 00       		.sleb128 0
 503 0035 F7       		.byte	0xf7
 504 0036 25       		.uleb128 0x25
 505 0037 3A       		.byte	0x3a
 506 0038 F7       		.byte	0xf7
 507 0039 25       		.uleb128 0x25
 508 003a 1B       		.byte	0x1b
 509 003b F7       		.byte	0xf7
 510 003c 00       		.uleb128 0
 511 003d 9F       		.byte	0x9f
 512 003e 2C000000 		.4byte	.LVL1
 513 0042 4C000000 		.4byte	.LFE0
ARM GAS  /tmp/ccYkUHZt.s 			page 10


 514 0046 0C00     		.2byte	0xc
 515 0048 F3       		.byte	0xf3
 516 0049 01       		.uleb128 0x1
 517 004a 50       		.byte	0x50
 518 004b F7       		.byte	0xf7
 519 004c 25       		.uleb128 0x25
 520 004d 3A       		.byte	0x3a
 521 004e F7       		.byte	0xf7
 522 004f 25       		.uleb128 0x25
 523 0050 1B       		.byte	0x1b
 524 0051 F7       		.byte	0xf7
 525 0052 00       		.uleb128 0
 526 0053 9F       		.byte	0x9f
 527 0054 00000000 		.4byte	0
 528 0058 00000000 		.4byte	0
 529              	.LVUS2:
 530 005c 00       		.uleb128 .LVU11
 531 005d 00       		.uleb128 .LVU16
 532 005e 00       		.uleb128 .LVU16
 533 005f 00       		.uleb128 0
 534              	.LLST2:
 535 0060 30000000 		.4byte	.LVL2
 536 0064 40000000 		.4byte	.LVL3
 537 0068 0100     		.2byte	0x1
 538 006a 50       		.byte	0x50
 539 006b 40000000 		.4byte	.LVL3
 540 006f 4C000000 		.4byte	.LFE0
 541 0073 2900     		.2byte	0x29
 542 0075 F3       		.byte	0xf3
 543 0076 01       		.uleb128 0x1
 544 0077 50       		.byte	0x50
 545 0078 F3       		.byte	0xf3
 546 0079 01       		.uleb128 0x1
 547 007a 50       		.byte	0x50
 548 007b F7       		.byte	0xf7
 549 007c 25       		.uleb128 0x25
 550 007d F7       		.byte	0xf7
 551 007e 2C       		.uleb128 0x2c
 552 007f F4       		.byte	0xf4
 553 0080 2C       		.uleb128 0x2c
 554 0081 08       		.byte	0x8
 555 0082 CDCCCCCC 		.8byte	0xcccccccd
 555      00000000 
 556 008a 1E       		.byte	0x1e
 557 008b 08       		.byte	0x8
 558 008c 20       		.byte	0x20
 559 008d F7       		.byte	0xf7
 560 008e 2C       		.uleb128 0x2c
 561 008f 25       		.byte	0x25
 562 0090 F7       		.byte	0xf7
 563 0091 25       		.uleb128 0x25
 564 0092 F7       		.byte	0xf7
 565 0093 00       		.uleb128 0
 566 0094 33       		.byte	0x33
 567 0095 25       		.byte	0x25
 568 0096 35       		.byte	0x35
 569 0097 1E       		.byte	0x1e
ARM GAS  /tmp/ccYkUHZt.s 			page 11


 570 0098 31       		.byte	0x31
 571 0099 24       		.byte	0x24
 572 009a 1C       		.byte	0x1c
 573 009b 33       		.byte	0x33
 574 009c 1E       		.byte	0x1e
 575 009d 9F       		.byte	0x9f
 576 009e 00000000 		.4byte	0
 577 00a2 00000000 		.4byte	0
 578              	.LVUS3:
 579 00a6 01       		.uleb128 .LVU12
 580 00a7 00       		.uleb128 0
 581              	.LLST3:
 582 00a8 30000000 		.4byte	.LVL2
 583 00ac 4C000000 		.4byte	.LFE0
 584 00b0 0100     		.2byte	0x1
 585 00b2 52       		.byte	0x52
 586 00b3 00000000 		.4byte	0
 587 00b7 00000000 		.4byte	0
 588              		.section	.debug_aranges,"",%progbits
 589 0000 24000000 		.4byte	0x24
 590 0004 0200     		.2byte	0x2
 591 0006 00000000 		.4byte	.Ldebug_info0
 592 000a 04       		.byte	0x4
 593 000b 00       		.byte	0
 594 000c 0000     		.2byte	0
 595 000e 0000     		.2byte	0
 596 0010 00000000 		.4byte	.LFB0
 597 0014 4C000000 		.4byte	.LFE0-.LFB0
 598 0018 00000000 		.4byte	.LFB1
 599 001c 3C000000 		.4byte	.LFE1-.LFB1
 600 0020 00000000 		.4byte	0
 601 0024 00000000 		.4byte	0
 602              		.section	.debug_ranges,"",%progbits
 603              	.Ldebug_ranges0:
 604 0000 00000000 		.4byte	.LFB0
 605 0004 4C000000 		.4byte	.LFE0
 606 0008 00000000 		.4byte	.LFB1
 607 000c 3C000000 		.4byte	.LFE1
 608 0010 00000000 		.4byte	0
 609 0014 00000000 		.4byte	0
 610              		.section	.debug_line,"",%progbits
 611              	.Ldebug_line0:
 612 0000 16010000 		.section	.debug_str,"MS",%progbits,1
 612      03007100 
 612      00000201 
 612      FB0E0D00 
 612      01010101 
 613              	.LASF10:
 614 0000 62636D32 		.ascii	"bcm2835_gpio_fnsel\000"
 614      3833355F 
 614      6770696F 
 614      5F666E73 
 614      656C00
 615              	.LASF17:
 616 0013 2F686F6D 		.ascii	"/home/taskman/arduino/embedded-wind-turbine/Data_Co"
 616      652F7461 
 616      736B6D61 
ARM GAS  /tmp/ccYkUHZt.s 			page 12


 616      6E2F6172 
 616      6475696E 
 617 0046 6C6C6563 		.ascii	"llector/raspberry/compiler/boot\000"
 617      746F722F 
 617      72617370 
 617      62657272 
 617      792F636F 
 618              	.LASF12:
 619 0066 6770666E 		.ascii	"gpfnbank\000"
 619      62616E6B 
 619      00
 620              	.LASF6:
 621 006f 756E7369 		.ascii	"unsigned char\000"
 621      676E6564 
 621      20636861 
 621      7200
 622              	.LASF16:
 623 007d 2E2E2F6F 		.ascii	"../os/hal/platforms/BCM2835/bcm2835.c\000"
 623      732F6861 
 623      6C2F706C 
 623      6174666F 
 623      726D732F 
 624              	.LASF8:
 625 00a3 6C6F6E67 		.ascii	"long unsigned int\000"
 625      20756E73 
 625      69676E65 
 625      6420696E 
 625      7400
 626              	.LASF7:
 627 00b5 73686F72 		.ascii	"short unsigned int\000"
 627      7420756E 
 627      7369676E 
 627      65642069 
 627      6E7400
 628              	.LASF11:
 629 00c8 6770696F 		.ascii	"gpio_fn\000"
 629      5F666E00 
 630              	.LASF19:
 631 00d0 6770696F 		.ascii	"gpio_pin\000"
 631      5F70696E 
 631      00
 632              	.LASF15:
 633 00d9 474E5520 		.ascii	"GNU C17 9.2.1 20191025 (release) [ARM/arm-9-branch "
 633      43313720 
 633      392E322E 
 633      31203230 
 633      31393130 
 634 010c 72657669 		.ascii	"revision 277599] -mcpu=arm1176jz-s -mno-thumb-inter"
 634      73696F6E 
 634      20323737 
 634      3539395D 
 634      202D6D63 
 635 013f 776F726B 		.ascii	"work -mfloat-abi=soft -marm -march=armv6kz -ggdb -O"
 635      202D6D66 
 635      6C6F6174 
 635      2D616269 
 635      3D736F66 
ARM GAS  /tmp/ccYkUHZt.s 			page 13


 636 0172 32202D66 		.ascii	"2 -fomit-frame-pointer -ffunction-sections -fdata-s"
 636      6F6D6974 
 636      2D667261 
 636      6D652D70 
 636      6F696E74 
 637 01a5 65637469 		.ascii	"ections\000"
 637      6F6E7300 
 638              	.LASF0:
 639 01ad 756E7369 		.ascii	"unsigned int\000"
 639      676E6564 
 639      20696E74 
 639      00
 640              	.LASF1:
 641 01ba 6C6F6E67 		.ascii	"long long unsigned int\000"
 641      206C6F6E 
 641      6720756E 
 641      7369676E 
 641      65642069 
 642              	.LASF9:
 643 01d1 62636D32 		.ascii	"bcm2835_delay\000"
 643      3833355F 
 643      64656C61 
 643      7900
 644              	.LASF5:
 645 01df 6C6F6E67 		.ascii	"long long int\000"
 645      206C6F6E 
 645      6720696E 
 645      7400
 646              	.LASF13:
 647 01ed 6F666673 		.ascii	"offset\000"
 647      657400
 648              	.LASF3:
 649 01f4 73686F72 		.ascii	"short int\000"
 649      7420696E 
 649      7400
 650              	.LASF14:
 651 01fe 6770666E 		.ascii	"gpfnsel\000"
 651      73656C00 
 652              	.LASF18:
 653 0206 75696E74 		.ascii	"uint32_t\000"
 653      33325F74 
 653      00
 654              	.LASF4:
 655 020f 6C6F6E67 		.ascii	"long int\000"
 655      20696E74 
 655      00
 656              	.LASF2:
 657 0218 7369676E 		.ascii	"signed char\000"
 657      65642063 
 657      68617200 
 658              		.ident	"GCC: (15:9-2019-q4-0ubuntu1) 9.2.1 20191025 (release) [ARM/arm-9-branch revision 277599]"
ARM GAS  /tmp/ccYkUHZt.s 			page 14


DEFINED SYMBOLS
                            *ABS*:0000000000000000 bcm2835.c
     /tmp/ccYkUHZt.s:16     .text.bcm2835_gpio_fnsel:0000000000000000 $a
     /tmp/ccYkUHZt.s:23     .text.bcm2835_gpio_fnsel:0000000000000000 bcm2835_gpio_fnsel
     /tmp/ccYkUHZt.s:74     .text.bcm2835_gpio_fnsel:0000000000000048 $d
     /tmp/ccYkUHZt.s:79     .text.bcm2835_delay:0000000000000000 $a
     /tmp/ccYkUHZt.s:85     .text.bcm2835_delay:0000000000000000 bcm2835_delay

NO UNDEFINED SYMBOLS
