ARM GAS  /tmp/ccTOBiaP.s 			page 1


   1              		.cpu arm1176jz-s
   2              		.eabi_attribute 20, 1
   3              		.eabi_attribute 21, 1
   4              		.eabi_attribute 23, 3
   5              		.eabi_attribute 24, 1
   6              		.eabi_attribute 25, 1
   7              		.eabi_attribute 26, 1
   8              		.eabi_attribute 30, 2
   9              		.eabi_attribute 34, 1
  10              		.eabi_attribute 18, 4
  11              		.file	"chcond.c"
  12              		.text
  13              	.Ltext0:
  14              		.cfi_sections	.debug_frame
  15              		.section	.text.chCondInit,"ax",%progbits
  16              		.align	2
  17              		.global	chCondInit
  18              		.arch armv6kz
  19              		.syntax unified
  20              		.arm
  21              		.fpu softvfp
  22              		.type	chCondInit, %function
  23              	chCondInit:
  24              	.LVL0:
  25              	.LFB7:
  26              		.file 1 "../os/kernel/src/chcond.c"
  27              		.loc 1 52 30 view -0
  28              		.cfi_startproc
  29              		@ args = 0, pretend = 0, frame = 0
  30              		@ frame_needed = 0, uses_anonymous_args = 0
  31              		@ link register save eliminated.
  32              		.loc 1 54 3 view .LVU1
  33              		.loc 1 54 39 view .LVU2
  34              		.loc 1 56 3 view .LVU3
  35 0000 040080E5 		str	r0, [r0, #4]
  36 0004 000080E5 		str	r0, [r0]
  37              		.loc 1 56 27 view .LVU4
  38              		.loc 1 57 1 is_stmt 0 view .LVU5
  39 0008 1EFF2FE1 		bx	lr
  40              		.cfi_endproc
  41              	.LFE7:
  42              		.size	chCondInit, .-chCondInit
  43              		.section	.text.chCondSignal,"ax",%progbits
  44              		.align	2
  45              		.global	chCondSignal
  46              		.syntax unified
  47              		.arm
  48              		.fpu softvfp
  49              		.type	chCondSignal, %function
  50              	chCondSignal:
  51              	.LVL1:
  52              	.LFB8:
  53              		.loc 1 66 32 is_stmt 1 view -0
  54              		.cfi_startproc
  55              		@ args = 0, pretend = 0, frame = 0
  56              		@ frame_needed = 0, uses_anonymous_args = 0
  57              		.loc 1 68 3 view .LVU7
ARM GAS  /tmp/ccTOBiaP.s 			page 2


  58              		.loc 1 68 41 view .LVU8
  59              		.loc 1 70 3 view .LVU9
  60              		.loc 1 66 32 is_stmt 0 view .LVU10
  61 0000 0030A0E1 		mov	r3, r0
  62              		.loc 1 70 3 view .LVU11
  63              		.syntax divided
  64              	@ 70 "../os/kernel/src/chcond.c" 1
  65 0004 9FF021E3 		msr     CPSR_c, #0x9F
  66              	@ 0 "" 2
  67              		.loc 1 70 3 is_stmt 1 view .LVU12
  68              		.loc 1 70 14 view .LVU13
  69              		.loc 1 71 3 view .LVU14
  70              		.loc 1 71 7 is_stmt 0 view .LVU15
  71              		.arm
  72              		.syntax unified
  73 0008 000090E5 		ldr	r0, [r0]
  74              	.LVL2:
  75              		.loc 1 71 6 view .LVU16
  76 000c 030050E1 		cmp	r0, r3
  77 0010 0700000A 		beq	.L6
  78              		.loc 1 72 5 is_stmt 1 view .LVU17
  79              	.LVL3:
  80              	.LBB16:
  81              	.LBI16:
  82              		.file 2 "../os/kernel/include/chinline.h"
  83              		.loc 2 52 23 view .LVU18
  84              	.LBB17:
  85              		.loc 2 53 3 view .LVU19
  86              		.loc 2 55 3 view .LVU20
  87              		.loc 2 55 20 is_stmt 0 view .LVU21
  88 0014 002090E5 		ldr	r2, [r0]
  89              	.LBE17:
  90              	.LBE16:
  91              		.loc 1 66 32 view .LVU22
  92 0018 10402DE9 		push	{r4, lr}
  93              		.cfi_def_cfa_offset 8
  94              		.cfi_offset 4, -8
  95              		.cfi_offset 14, -4
  96              		.loc 1 72 5 view .LVU23
  97 001c 0010A0E3 		mov	r1, #0
  98              	.LBB19:
  99              	.LBB18:
 100              		.loc 2 55 16 view .LVU24
 101 0020 002083E5 		str	r2, [r3]
 102              		.loc 2 55 38 view .LVU25
 103 0024 043082E5 		str	r3, [r2, #4]
 104              		.loc 2 56 3 is_stmt 1 view .LVU26
 105              	.LVL4:
 106              		.loc 2 56 3 is_stmt 0 view .LVU27
 107              	.LBE18:
 108              	.LBE19:
 109              		.loc 1 72 5 view .LVU28
 110 0028 FEFFFFEB 		bl	chSchWakeupS
 111              	.LVL5:
 112              		.loc 1 73 3 is_stmt 1 view .LVU29
 113              		.loc 1 73 3 view .LVU30
 114              		.syntax divided
ARM GAS  /tmp/ccTOBiaP.s 			page 3


 115              	@ 73 "../os/kernel/src/chcond.c" 1
 116 002c 1FF021E3 		msr     CPSR_c, #0x1F
 117              	@ 0 "" 2
 118              		.loc 1 73 16 view .LVU31
 119              		.loc 1 74 1 is_stmt 0 view .LVU32
 120              		.arm
 121              		.syntax unified
 122 0030 1080BDE8 		pop	{r4, pc}
 123              	.LVL6:
 124              	.L6:
 125              		.cfi_def_cfa_offset 0
 126              		.cfi_restore 4
 127              		.cfi_restore 14
 128              		.loc 1 73 3 is_stmt 1 view .LVU33
 129              		.loc 1 73 3 view .LVU34
 130              		.syntax divided
 131              	@ 73 "../os/kernel/src/chcond.c" 1
 132 0034 1FF021E3 		msr     CPSR_c, #0x1F
 133              	@ 0 "" 2
 134              		.loc 1 73 16 view .LVU35
 135              		.loc 1 73 3 is_stmt 0 view .LVU36
 136              		.arm
 137              		.syntax unified
 138 0038 1EFF2FE1 		bx	lr
 139              		.cfi_endproc
 140              	.LFE8:
 141              		.size	chCondSignal, .-chCondSignal
 142              		.section	.text.chCondSignalI,"ax",%progbits
 143              		.align	2
 144              		.global	chCondSignalI
 145              		.syntax unified
 146              		.arm
 147              		.fpu softvfp
 148              		.type	chCondSignalI, %function
 149              	chCondSignalI:
 150              	.LVL7:
 151              	.LFB9:
 152              		.loc 1 87 33 is_stmt 1 view -0
 153              		.cfi_startproc
 154              		@ args = 0, pretend = 0, frame = 0
 155              		@ frame_needed = 0, uses_anonymous_args = 0
 156              		.loc 1 89 3 view .LVU38
 157              		.loc 1 89 21 view .LVU39
 158              		.loc 1 90 3 view .LVU40
 159              		.loc 1 90 42 view .LVU41
 160              		.loc 1 92 3 view .LVU42
 161              		.loc 1 87 33 is_stmt 0 view .LVU43
 162 0000 0030A0E1 		mov	r3, r0
 163              		.loc 1 92 7 view .LVU44
 164 0004 000090E5 		ldr	r0, [r0]
 165              	.LVL8:
 166              		.loc 1 92 6 view .LVU45
 167 0008 030050E1 		cmp	r0, r3
 168 000c 1EFF2F01 		bxeq	lr
 169              		.loc 1 93 5 is_stmt 1 view .LVU46
 170              	.LVL9:
 171              	.LBB20:
ARM GAS  /tmp/ccTOBiaP.s 			page 4


 172              	.LBI20:
 173              		.loc 2 52 23 view .LVU47
 174              	.LBB21:
 175              		.loc 2 53 3 view .LVU48
 176              		.loc 2 55 3 view .LVU49
 177              		.loc 2 55 20 is_stmt 0 view .LVU50
 178 0010 002090E5 		ldr	r2, [r0]
 179              	.LBE21:
 180              	.LBE20:
 181              		.loc 1 87 33 view .LVU51
 182 0014 10402DE9 		push	{r4, lr}
 183              		.cfi_def_cfa_offset 8
 184              		.cfi_offset 4, -8
 185              		.cfi_offset 14, -4
 186              	.LBB23:
 187              	.LBB22:
 188              		.loc 2 55 16 view .LVU52
 189 0018 002083E5 		str	r2, [r3]
 190              		.loc 2 55 38 view .LVU53
 191 001c 043082E5 		str	r3, [r2, #4]
 192              		.loc 2 56 3 is_stmt 1 view .LVU54
 193              	.LVL10:
 194              		.loc 2 56 3 is_stmt 0 view .LVU55
 195              	.LBE22:
 196              	.LBE23:
 197              		.loc 1 93 5 view .LVU56
 198 0020 FEFFFFEB 		bl	chSchReadyI
 199              	.LVL11:
 200              		.loc 1 93 56 view .LVU57
 201 0024 0030A0E3 		mov	r3, #0
 202 0028 243080E5 		str	r3, [r0, #36]
 203              		.loc 1 94 1 view .LVU58
 204 002c 1080BDE8 		pop	{r4, pc}
 205              		.cfi_endproc
 206              	.LFE9:
 207              		.size	chCondSignalI, .-chCondSignalI
 208              		.section	.text.chCondBroadcast,"ax",%progbits
 209              		.align	2
 210              		.global	chCondBroadcast
 211              		.syntax unified
 212              		.arm
 213              		.fpu softvfp
 214              		.type	chCondBroadcast, %function
 215              	chCondBroadcast:
 216              	.LVL12:
 217              	.LFB10:
 218              		.loc 1 103 35 is_stmt 1 view -0
 219              		.cfi_startproc
 220              		@ args = 0, pretend = 0, frame = 0
 221              		@ frame_needed = 0, uses_anonymous_args = 0
 222              		.loc 1 105 3 view .LVU60
 223              		.loc 1 103 35 is_stmt 0 view .LVU61
 224 0000 70402DE9 		push	{r4, r5, r6, lr}
 225              		.cfi_def_cfa_offset 16
 226              		.cfi_offset 4, -16
 227              		.cfi_offset 5, -12
 228              		.cfi_offset 6, -8
ARM GAS  /tmp/ccTOBiaP.s 			page 5


 229              		.cfi_offset 14, -4
 230              		.loc 1 105 3 view .LVU62
 231              		.syntax divided
 232              	@ 105 "../os/kernel/src/chcond.c" 1
 233 0004 9FF021E3 		msr     CPSR_c, #0x9F
 234              	@ 0 "" 2
 235              		.loc 1 105 3 is_stmt 1 view .LVU63
 236              		.loc 1 105 14 view .LVU64
 237              		.loc 1 106 3 view .LVU65
 238              	.LVL13:
 239              		.arm
 240              		.syntax unified
 241              	.LBB24:
 242              	.LBI24:
 243              		.loc 1 122 6 view .LVU66
 244              	.LBB25:
 245              		.loc 1 124 3 view .LVU67
 246              		.loc 1 124 21 view .LVU68
 247              		.loc 1 125 3 view .LVU69
 248              		.loc 1 125 45 view .LVU70
 249              		.loc 1 130 3 view .LVU71
 250              		.loc 1 130 9 view .LVU72
 251              		.loc 1 130 21 is_stmt 0 view .LVU73
 252 0008 003090E5 		ldr	r3, [r0]
 253              		.loc 1 130 9 view .LVU74
 254 000c 000053E1 		cmp	r3, r0
 255 0010 0A00000A 		beq	.L16
 256 0014 0040A0E1 		mov	r4, r0
 257              		.loc 1 131 56 view .LVU75
 258 0018 0150E0E3 		mvn	r5, #1
 259              	.LVL14:
 260              	.L17:
 261              		.loc 1 131 5 is_stmt 1 view .LVU76
 262              	.LBB26:
 263              	.LBI26:
 264              		.loc 2 52 23 view .LVU77
 265              	.LBB27:
 266              		.loc 2 53 3 view .LVU78
 267              		.loc 2 55 3 view .LVU79
 268              		.loc 2 55 20 is_stmt 0 view .LVU80
 269 001c 002093E5 		ldr	r2, [r3]
 270              	.LBE27:
 271              	.LBE26:
 272              		.loc 1 131 5 view .LVU81
 273 0020 0300A0E1 		mov	r0, r3
 274              	.LBB29:
 275              	.LBB28:
 276              		.loc 2 55 16 view .LVU82
 277 0024 002084E5 		str	r2, [r4]
 278              		.loc 2 55 38 view .LVU83
 279 0028 044082E5 		str	r4, [r2, #4]
 280              		.loc 2 56 3 is_stmt 1 view .LVU84
 281              	.LVL15:
 282              		.loc 2 56 3 is_stmt 0 view .LVU85
 283              	.LBE28:
 284              	.LBE29:
 285              		.loc 1 131 5 view .LVU86
ARM GAS  /tmp/ccTOBiaP.s 			page 6


 286 002c FEFFFFEB 		bl	chSchReadyI
 287              	.LVL16:
 288              		.loc 1 130 21 view .LVU87
 289 0030 003094E5 		ldr	r3, [r4]
 290              		.loc 1 131 56 view .LVU88
 291 0034 245080E5 		str	r5, [r0, #36]
 292              		.loc 1 130 9 is_stmt 1 view .LVU89
 293 0038 040053E1 		cmp	r3, r4
 294 003c F6FFFF1A 		bne	.L17
 295              	.LVL17:
 296              	.L16:
 297              		.loc 1 130 9 is_stmt 0 view .LVU90
 298              	.LBE25:
 299              	.LBE24:
 300              		.loc 1 107 3 is_stmt 1 view .LVU91
 301 0040 FEFFFFEB 		bl	chSchRescheduleS
 302              	.LVL18:
 303              		.loc 1 108 3 view .LVU92
 304              		.loc 1 108 3 view .LVU93
 305              		.syntax divided
 306              	@ 108 "../os/kernel/src/chcond.c" 1
 307 0044 1FF021E3 		msr     CPSR_c, #0x1F
 308              	@ 0 "" 2
 309              		.loc 1 108 16 view .LVU94
 310              		.loc 1 109 1 is_stmt 0 view .LVU95
 311              		.arm
 312              		.syntax unified
 313 0048 7080BDE8 		pop	{r4, r5, r6, pc}
 314              		.cfi_endproc
 315              	.LFE10:
 316              		.size	chCondBroadcast, .-chCondBroadcast
 317              		.section	.text.chCondBroadcastI,"ax",%progbits
 318              		.align	2
 319              		.global	chCondBroadcastI
 320              		.syntax unified
 321              		.arm
 322              		.fpu softvfp
 323              		.type	chCondBroadcastI, %function
 324              	chCondBroadcastI:
 325              	.LVL19:
 326              	.LFB11:
 327              		.loc 1 122 36 is_stmt 1 view -0
 328              		.cfi_startproc
 329              		@ args = 0, pretend = 0, frame = 0
 330              		@ frame_needed = 0, uses_anonymous_args = 0
 331              		.loc 1 124 3 view .LVU97
 332              		.loc 1 124 21 view .LVU98
 333              		.loc 1 125 3 view .LVU99
 334              		.loc 1 125 45 view .LVU100
 335              		.loc 1 130 3 view .LVU101
 336              		.loc 1 130 9 view .LVU102
 337              		.loc 1 130 21 is_stmt 0 view .LVU103
 338 0000 003090E5 		ldr	r3, [r0]
 339              		.loc 1 130 9 view .LVU104
 340 0004 000053E1 		cmp	r3, r0
 341 0008 1EFF2F01 		bxeq	lr
 342              		.loc 1 122 36 view .LVU105
ARM GAS  /tmp/ccTOBiaP.s 			page 7


 343 000c 70402DE9 		push	{r4, r5, r6, lr}
 344              		.cfi_def_cfa_offset 16
 345              		.cfi_offset 4, -16
 346              		.cfi_offset 5, -12
 347              		.cfi_offset 6, -8
 348              		.cfi_offset 14, -4
 349 0010 0040A0E1 		mov	r4, r0
 350              		.loc 1 131 56 view .LVU106
 351 0014 0150E0E3 		mvn	r5, #1
 352              	.LVL20:
 353              	.L22:
 354              		.loc 1 131 5 is_stmt 1 view .LVU107
 355              	.LBB30:
 356              	.LBI30:
 357              		.loc 2 52 23 view .LVU108
 358              	.LBB31:
 359              		.loc 2 53 3 view .LVU109
 360              		.loc 2 55 3 view .LVU110
 361              		.loc 2 55 20 is_stmt 0 view .LVU111
 362 0018 002093E5 		ldr	r2, [r3]
 363              	.LBE31:
 364              	.LBE30:
 365              		.loc 1 131 5 view .LVU112
 366 001c 0300A0E1 		mov	r0, r3
 367              	.LBB33:
 368              	.LBB32:
 369              		.loc 2 55 16 view .LVU113
 370 0020 002084E5 		str	r2, [r4]
 371              		.loc 2 55 38 view .LVU114
 372 0024 044082E5 		str	r4, [r2, #4]
 373              		.loc 2 56 3 is_stmt 1 view .LVU115
 374              	.LVL21:
 375              		.loc 2 56 3 is_stmt 0 view .LVU116
 376              	.LBE32:
 377              	.LBE33:
 378              		.loc 1 131 5 view .LVU117
 379 0028 FEFFFFEB 		bl	chSchReadyI
 380              	.LVL22:
 381              		.loc 1 130 21 view .LVU118
 382 002c 003094E5 		ldr	r3, [r4]
 383              		.loc 1 131 56 view .LVU119
 384 0030 245080E5 		str	r5, [r0, #36]
 385              		.loc 1 130 9 is_stmt 1 view .LVU120
 386 0034 040053E1 		cmp	r3, r4
 387 0038 F6FFFF1A 		bne	.L22
 388 003c 7080BDE8 		pop	{r4, r5, r6, pc}
 389              		.cfi_endproc
 390              	.LFE11:
 391              		.size	chCondBroadcastI, .-chCondBroadcastI
 392              		.section	.text.chCondWaitS,"ax",%progbits
 393              		.align	2
 394              		.global	chCondWaitS
 395              		.syntax unified
 396              		.arm
 397              		.fpu softvfp
 398              		.type	chCondWaitS, %function
 399              	chCondWaitS:
ARM GAS  /tmp/ccTOBiaP.s 			page 8


 400              	.LVL23:
 401              	.LFB13:
 402              		.loc 1 177 32 view -0
 403              		.cfi_startproc
 404              		@ args = 0, pretend = 0, frame = 0
 405              		@ frame_needed = 0, uses_anonymous_args = 0
 406              		.loc 1 178 3 view .LVU122
 407              		.loc 1 178 11 is_stmt 0 view .LVU123
 408 0000 6C309FE5 		ldr	r3, .L34
 409              		.loc 1 177 32 view .LVU124
 410 0004 70402DE9 		push	{r4, r5, r6, lr}
 411              		.cfi_def_cfa_offset 16
 412              		.cfi_offset 4, -16
 413              		.cfi_offset 5, -12
 414              		.cfi_offset 6, -8
 415              		.cfi_offset 14, -4
 416              		.loc 1 177 32 view .LVU125
 417 0008 0050A0E1 		mov	r5, r0
 418              		.loc 1 178 11 view .LVU126
 419 000c 184093E5 		ldr	r4, [r3, #24]
 420              	.LVL24:
 421              		.loc 1 179 3 is_stmt 1 view .LVU127
 422              		.loc 1 180 3 view .LVU128
 423              		.loc 1 182 3 view .LVU129
 424              		.loc 1 182 21 view .LVU130
 425              		.loc 1 183 3 view .LVU131
 426              		.loc 1 183 40 view .LVU132
 427              		.loc 1 184 3 view .LVU133
 428              		.loc 1 186 36 view .LVU134
 429              		.loc 1 188 3 view .LVU135
 430              		.loc 1 188 8 is_stmt 0 view .LVU136
 431 0010 FEFFFFEB 		bl	chMtxUnlockS
 432              	.LVL25:
 433              	.LBB34:
 434              	.LBB35:
 435              		.loc 2 36 11 view .LVU137
 436 0014 0530A0E1 		mov	r3, r5
 437              	.LBE35:
 438              	.LBE34:
 439              		.loc 1 188 8 view .LVU138
 440 0018 0060A0E1 		mov	r6, r0
 441              	.LVL26:
 442              		.loc 1 189 3 is_stmt 1 view .LVU139
 443              		.loc 1 189 19 is_stmt 0 view .LVU140
 444 001c 245084E5 		str	r5, [r4, #36]
 445              		.loc 1 190 3 is_stmt 1 view .LVU141
 446              	.LVL27:
 447              	.LBB38:
 448              	.LBI34:
 449              		.loc 2 34 20 view .LVU142
 450              	.LBB36:
 451              		.loc 2 36 3 view .LVU143
 452              		.loc 2 36 3 is_stmt 0 view .LVU144
 453 0020 030000EA 		b	.L30
 454              	.LVL28:
 455              	.L33:
 456              		.loc 2 39 34 view .LVU145
ARM GAS  /tmp/ccTOBiaP.s 			page 9


 457 0024 081093E5 		ldr	r1, [r3, #8]
 458 0028 082094E5 		ldr	r2, [r4, #8]
 459 002c 020051E1 		cmp	r1, r2
 460 0030 0200003A 		bcc	.L29
 461              	.L30:
 462              		.loc 2 37 3 is_stmt 1 view .LVU146
 463              		.loc 2 38 5 view .LVU147
 464              		.loc 2 38 8 is_stmt 0 view .LVU148
 465 0034 003093E5 		ldr	r3, [r3]
 466              	.LVL29:
 467              		.loc 2 39 11 is_stmt 1 view .LVU149
 468              		.loc 2 39 3 is_stmt 0 view .LVU150
 469 0038 030055E1 		cmp	r5, r3
 470 003c F8FFFF1A 		bne	.L33
 471              	.L29:
 472              		.loc 2 40 3 is_stmt 1 view .LVU151
 473              		.loc 2 41 18 is_stmt 0 view .LVU152
 474 0040 042093E5 		ldr	r2, [r3, #4]
 475              		.loc 2 40 14 view .LVU153
 476 0044 003084E5 		str	r3, [r4]
 477              		.loc 2 41 3 is_stmt 1 view .LVU154
 478              		.loc 2 41 14 is_stmt 0 view .LVU155
 479 0048 042084E5 		str	r2, [r4, #4]
 480              		.loc 2 42 3 is_stmt 1 view .LVU156
 481              		.loc 2 42 35 is_stmt 0 view .LVU157
 482 004c 044083E5 		str	r4, [r3, #4]
 483              		.loc 2 42 22 view .LVU158
 484 0050 043094E5 		ldr	r3, [r4, #4]
 485              	.LVL30:
 486              		.loc 2 42 22 view .LVU159
 487              	.LBE36:
 488              	.LBE38:
 489              		.loc 1 191 3 view .LVU160
 490 0054 0500A0E3 		mov	r0, #5
 491              	.LVL31:
 492              	.LBB39:
 493              	.LBB37:
 494              		.loc 2 42 22 view .LVU161
 495 0058 004083E5 		str	r4, [r3]
 496              	.LVL32:
 497              		.loc 2 42 22 view .LVU162
 498              	.LBE37:
 499              	.LBE39:
 500              		.loc 1 191 3 is_stmt 1 view .LVU163
 501 005c FEFFFFEB 		bl	chSchGoSleepS
 502              	.LVL33:
 503              		.loc 1 192 3 view .LVU164
 504              		.loc 1 192 7 is_stmt 0 view .LVU165
 505 0060 244094E5 		ldr	r4, [r4, #36]
 506              	.LVL34:
 507              		.loc 1 193 3 is_stmt 1 view .LVU166
 508 0064 0600A0E1 		mov	r0, r6
 509 0068 FEFFFFEB 		bl	chMtxLockS
 510              	.LVL35:
 511              		.loc 1 194 3 view .LVU167
 512              		.loc 1 195 1 is_stmt 0 view .LVU168
 513 006c 0400A0E1 		mov	r0, r4
ARM GAS  /tmp/ccTOBiaP.s 			page 10


 514 0070 7080BDE8 		pop	{r4, r5, r6, pc}
 515              	.L35:
 516              		.align	2
 517              	.L34:
 518 0074 00000000 		.word	rlist
 519              		.cfi_endproc
 520              	.LFE13:
 521              		.size	chCondWaitS, .-chCondWaitS
 522              		.section	.text.chCondWait,"ax",%progbits
 523              		.align	2
 524              		.global	chCondWait
 525              		.syntax unified
 526              		.arm
 527              		.fpu softvfp
 528              		.type	chCondWait, %function
 529              	chCondWait:
 530              	.LVL36:
 531              	.LFB12:
 532              		.loc 1 151 31 is_stmt 1 view -0
 533              		.cfi_startproc
 534              		@ args = 0, pretend = 0, frame = 0
 535              		@ frame_needed = 0, uses_anonymous_args = 0
 536              		.loc 1 152 3 view .LVU170
 537              		.loc 1 154 3 view .LVU171
 538              		.loc 1 151 31 is_stmt 0 view .LVU172
 539 0000 10402DE9 		push	{r4, lr}
 540              		.cfi_def_cfa_offset 8
 541              		.cfi_offset 4, -8
 542              		.cfi_offset 14, -4
 543              		.loc 1 154 3 view .LVU173
 544              		.syntax divided
 545              	@ 154 "../os/kernel/src/chcond.c" 1
 546 0004 9FF021E3 		msr     CPSR_c, #0x9F
 547              	@ 0 "" 2
 548              		.loc 1 154 3 is_stmt 1 view .LVU174
 549              		.loc 1 154 14 view .LVU175
 550              		.loc 1 155 3 view .LVU176
 551              		.loc 1 155 9 is_stmt 0 view .LVU177
 552              		.arm
 553              		.syntax unified
 554 0008 FEFFFFEB 		bl	chCondWaitS
 555              	.LVL37:
 556              		.loc 1 156 3 is_stmt 1 view .LVU178
 557              		.loc 1 156 3 view .LVU179
 558              		.syntax divided
 559              	@ 156 "../os/kernel/src/chcond.c" 1
 560 000c 1FF021E3 		msr     CPSR_c, #0x1F
 561              	@ 0 "" 2
 562              		.loc 1 156 16 view .LVU180
 563              		.loc 1 157 3 view .LVU181
 564              		.loc 1 158 1 is_stmt 0 view .LVU182
 565              		.arm
 566              		.syntax unified
 567 0010 1080BDE8 		pop	{r4, pc}
 568              		.cfi_endproc
 569              	.LFE12:
 570              		.size	chCondWait, .-chCondWait
ARM GAS  /tmp/ccTOBiaP.s 			page 11


 571              		.section	.text.chCondWaitTimeoutS,"ax",%progbits
 572              		.align	2
 573              		.global	chCondWaitTimeoutS
 574              		.syntax unified
 575              		.arm
 576              		.fpu softvfp
 577              		.type	chCondWaitTimeoutS, %function
 578              	chCondWaitTimeoutS:
 579              	.LVL38:
 580              	.LFB15:
 581              		.loc 1 263 55 is_stmt 1 view -0
 582              		.cfi_startproc
 583              		@ args = 0, pretend = 0, frame = 0
 584              		@ frame_needed = 0, uses_anonymous_args = 0
 585              		.loc 1 264 3 view .LVU184
 586              		.loc 1 265 3 view .LVU185
 587              		.loc 1 267 3 view .LVU186
 588              		.loc 1 267 21 view .LVU187
 589              		.loc 1 268 3 view .LVU188
 590              		.loc 1 268 77 view .LVU189
 591              		.loc 1 269 3 view .LVU190
 592              		.loc 1 271 36 view .LVU191
 593              		.loc 1 273 3 view .LVU192
 594              		.loc 1 263 55 is_stmt 0 view .LVU193
 595 0000 70402DE9 		push	{r4, r5, r6, lr}
 596              		.cfi_def_cfa_offset 16
 597              		.cfi_offset 4, -16
 598              		.cfi_offset 5, -12
 599              		.cfi_offset 6, -8
 600              		.cfi_offset 14, -4
 601              		.loc 1 263 55 view .LVU194
 602 0004 0040A0E1 		mov	r4, r0
 603 0008 0160A0E1 		mov	r6, r1
 604              		.loc 1 273 8 view .LVU195
 605 000c FEFFFFEB 		bl	chMtxUnlockS
 606              	.LVL39:
 607              		.loc 1 274 3 view .LVU196
 608 0010 6C209FE5 		ldr	r2, .L48
 609              	.LBB40:
 610              	.LBB41:
 611              		.loc 2 36 11 view .LVU197
 612 0014 0430A0E1 		mov	r3, r4
 613              	.LBE41:
 614              	.LBE40:
 615              		.loc 1 274 3 view .LVU198
 616 0018 18E092E5 		ldr	lr, [r2, #24]
 617              		.loc 1 273 8 view .LVU199
 618 001c 0050A0E1 		mov	r5, r0
 619              	.LVL40:
 620              		.loc 1 274 3 is_stmt 1 view .LVU200
 621              		.loc 1 274 21 is_stmt 0 view .LVU201
 622 0020 24408EE5 		str	r4, [lr, #36]
 623              		.loc 1 275 3 is_stmt 1 view .LVU202
 624              	.LVL41:
 625              	.LBB44:
 626              	.LBI40:
 627              		.loc 2 34 20 view .LVU203
ARM GAS  /tmp/ccTOBiaP.s 			page 12


 628              	.LBB42:
 629              		.loc 2 36 3 view .LVU204
 630              		.loc 2 36 3 is_stmt 0 view .LVU205
 631 0024 030000EA 		b	.L40
 632              	.LVL42:
 633              	.L47:
 634              		.loc 2 39 34 view .LVU206
 635 0028 08C093E5 		ldr	ip, [r3, #8]
 636 002c 08209EE5 		ldr	r2, [lr, #8]
 637 0030 02005CE1 		cmp	ip, r2
 638 0034 0200003A 		bcc	.L39
 639              	.L40:
 640              		.loc 2 37 3 is_stmt 1 view .LVU207
 641              		.loc 2 38 5 view .LVU208
 642              		.loc 2 38 8 is_stmt 0 view .LVU209
 643 0038 003093E5 		ldr	r3, [r3]
 644              	.LVL43:
 645              		.loc 2 39 11 is_stmt 1 view .LVU210
 646              		.loc 2 39 3 is_stmt 0 view .LVU211
 647 003c 030054E1 		cmp	r4, r3
 648 0040 F8FFFF1A 		bne	.L47
 649              	.L39:
 650              		.loc 2 40 3 is_stmt 1 view .LVU212
 651              		.loc 2 41 18 is_stmt 0 view .LVU213
 652 0044 042093E5 		ldr	r2, [r3, #4]
 653              		.loc 2 40 14 view .LVU214
 654 0048 00308EE5 		str	r3, [lr]
 655              		.loc 2 41 3 is_stmt 1 view .LVU215
 656              		.loc 2 41 14 is_stmt 0 view .LVU216
 657 004c 04208EE5 		str	r2, [lr, #4]
 658              		.loc 2 42 3 is_stmt 1 view .LVU217
 659              		.loc 2 42 35 is_stmt 0 view .LVU218
 660 0050 04E083E5 		str	lr, [r3, #4]
 661              		.loc 2 42 22 view .LVU219
 662 0054 04309EE5 		ldr	r3, [lr, #4]
 663              	.LVL44:
 664              		.loc 2 42 22 view .LVU220
 665              	.LBE42:
 666              	.LBE44:
 667              		.loc 1 276 9 view .LVU221
 668 0058 0610A0E1 		mov	r1, r6
 669 005c 0500A0E3 		mov	r0, #5
 670              	.LVL45:
 671              	.LBB45:
 672              	.LBB43:
 673              		.loc 2 42 22 view .LVU222
 674 0060 00E083E5 		str	lr, [r3]
 675              	.LVL46:
 676              		.loc 2 42 22 view .LVU223
 677              	.LBE43:
 678              	.LBE45:
 679              		.loc 1 276 3 is_stmt 1 view .LVU224
 680              		.loc 1 276 9 is_stmt 0 view .LVU225
 681 0064 FEFFFFEB 		bl	chSchGoSleepTimeoutS
 682              	.LVL47:
 683              		.loc 1 277 6 view .LVU226
 684 0068 010070E3 		cmn	r0, #1
ARM GAS  /tmp/ccTOBiaP.s 			page 13


 685              		.loc 1 276 9 view .LVU227
 686 006c 0040A0E1 		mov	r4, r0
 687              	.LVL48:
 688              		.loc 1 277 3 is_stmt 1 view .LVU228
 689              		.loc 1 277 6 is_stmt 0 view .LVU229
 690 0070 0100000A 		beq	.L38
 691              		.loc 1 278 5 is_stmt 1 view .LVU230
 692 0074 0500A0E1 		mov	r0, r5
 693              	.LVL49:
 694              		.loc 1 278 5 is_stmt 0 view .LVU231
 695 0078 FEFFFFEB 		bl	chMtxLockS
 696              	.LVL50:
 697              		.loc 1 279 3 is_stmt 1 view .LVU232
 698              	.L38:
 699              		.loc 1 280 1 is_stmt 0 view .LVU233
 700 007c 0400A0E1 		mov	r0, r4
 701 0080 7080BDE8 		pop	{r4, r5, r6, pc}
 702              	.L49:
 703              		.align	2
 704              	.L48:
 705 0084 00000000 		.word	rlist
 706              		.cfi_endproc
 707              	.LFE15:
 708              		.size	chCondWaitTimeoutS, .-chCondWaitTimeoutS
 709              		.section	.text.chCondWaitTimeout,"ax",%progbits
 710              		.align	2
 711              		.global	chCondWaitTimeout
 712              		.syntax unified
 713              		.arm
 714              		.fpu softvfp
 715              		.type	chCondWaitTimeout, %function
 716              	chCondWaitTimeout:
 717              	.LVL51:
 718              	.LFB14:
 719              		.loc 1 226 54 is_stmt 1 view -0
 720              		.cfi_startproc
 721              		@ args = 0, pretend = 0, frame = 0
 722              		@ frame_needed = 0, uses_anonymous_args = 0
 723              		.loc 1 227 3 view .LVU235
 724              		.loc 1 229 3 view .LVU236
 725              		.loc 1 226 54 is_stmt 0 view .LVU237
 726 0000 10402DE9 		push	{r4, lr}
 727              		.cfi_def_cfa_offset 8
 728              		.cfi_offset 4, -8
 729              		.cfi_offset 14, -4
 730              		.loc 1 229 3 view .LVU238
 731              		.syntax divided
 732              	@ 229 "../os/kernel/src/chcond.c" 1
 733 0004 9FF021E3 		msr     CPSR_c, #0x9F
 734              	@ 0 "" 2
 735              		.loc 1 229 3 is_stmt 1 view .LVU239
 736              		.loc 1 229 14 view .LVU240
 737              		.loc 1 230 3 view .LVU241
 738              		.loc 1 230 9 is_stmt 0 view .LVU242
 739              		.arm
 740              		.syntax unified
 741 0008 FEFFFFEB 		bl	chCondWaitTimeoutS
ARM GAS  /tmp/ccTOBiaP.s 			page 14


 742              	.LVL52:
 743              		.loc 1 231 3 is_stmt 1 view .LVU243
 744              		.loc 1 231 3 view .LVU244
 745              		.syntax divided
 746              	@ 231 "../os/kernel/src/chcond.c" 1
 747 000c 1FF021E3 		msr     CPSR_c, #0x1F
 748              	@ 0 "" 2
 749              		.loc 1 231 16 view .LVU245
 750              		.loc 1 232 3 view .LVU246
 751              		.loc 1 233 1 is_stmt 0 view .LVU247
 752              		.arm
 753              		.syntax unified
 754 0010 1080BDE8 		pop	{r4, pc}
 755              		.cfi_endproc
 756              	.LFE14:
 757              		.size	chCondWaitTimeout, .-chCondWaitTimeout
 758              		.text
 759              	.Letext0:
 760              		.file 3 "/usr/lib/gcc/arm-none-eabi/9.2.1/include/stdint.h"
 761              		.file 4 "../os/ports/GCC/ARM/chtypes.h"
 762              		.file 5 "../os/kernel/include/chlists.h"
 763              		.file 6 "../os/kernel/include/chthreads.h"
 764              		.file 7 "../os/ports/GCC/ARM/chcore.h"
 765              		.file 8 "../os/kernel/include/chvt.h"
 766              		.file 9 "../os/kernel/include/chschd.h"
 767              		.file 10 "../os/kernel/include/chmtx.h"
 768              		.file 11 "../os/kernel/include/chcond.h"
 769              		.file 12 "../os/kernel/include/chregistry.h"
 770              		.file 13 "../os/kernel/include/ch.h"