ARM GAS  /tmp/ccTOBiaP.s 			page 1


   1              		.cpu arm1176jz-s
   2              		.eabi_attribute 20, 1
   3              		.eabi_attribute 21, 1
   4              		.eabi_attribute 23, 3
   5              		.eabi_attribute 24, 1
   6              		.eabi_attribute 25, 1
   7              		.eabi_attribute 26, 1
   8              		.eabi_attribute 30, 2
   9              		.eabi_attribute 34, 1
  10              		.eabi_attribute 18, 4
  11              		.file	"chcond.c"
  12              		.text
  13              	.Ltext0:
  14              		.cfi_sections	.debug_frame
  15              		.section	.text.chCondInit,"ax",%progbits
  16              		.align	2
  17              		.global	chCondInit
  18              		.arch armv6kz
  19              		.syntax unified
  20              		.arm
  21              		.fpu softvfp
  22              		.type	chCondInit, %function
  23              	chCondInit:
  24              	.LVL0:
  25              	.LFB7:
  26              		.file 1 "../os/kernel/src/chcond.c"
  27              		.loc 1 52 30 view -0
  28              		.cfi_startproc
  29              		@ args = 0, pretend = 0, frame = 0
  30              		@ frame_needed = 0, uses_anonymous_args = 0
  31              		@ link register save eliminated.
  32              		.loc 1 54 3 view .LVU1
  33              		.loc 1 54 39 view .LVU2
  34              		.loc 1 56 3 view .LVU3
  35 0000 040080E5 		str	r0, [r0, #4]
  36 0004 000080E5 		str	r0, [r0]
  37              		.loc 1 56 27 view .LVU4
  38              		.loc 1 57 1 is_stmt 0 view .LVU5
  39 0008 1EFF2FE1 		bx	lr
  40              		.cfi_endproc
  41              	.LFE7:
  42              		.size	chCondInit, .-chCondInit
  43              		.section	.text.chCondSignal,"ax",%progbits
  44              		.align	2
  45              		.global	chCondSignal
  46              		.syntax unified
  47              		.arm
  48              		.fpu softvfp
  49              		.type	chCondSignal, %function
  50              	chCondSignal:
  51              	.LVL1:
  52              	.LFB8:
  53              		.loc 1 66 32 is_stmt 1 view -0
  54              		.cfi_startproc
  55              		@ args = 0, pretend = 0, frame = 0
  56              		@ frame_needed = 0, uses_anonymous_args = 0
  57              		.loc 1 68 3 view .LVU7
ARM GAS  /tmp/ccTOBiaP.s 			page 2


  58              		.loc 1 68 41 view .LVU8
  59              		.loc 1 70 3 view .LVU9
  60              		.loc 1 66 32 is_stmt 0 view .LVU10
  61 0000 0030A0E1 		mov	r3, r0
  62              		.loc 1 70 3 view .LVU11
  63              		.syntax divided
  64              	@ 70 "../os/kernel/src/chcond.c" 1
  65 0004 9FF021E3 		msr     CPSR_c, #0x9F
  66              	@ 0 "" 2
  67              		.loc 1 70 3 is_stmt 1 view .LVU12
  68              		.loc 1 70 14 view .LVU13
  69              		.loc 1 71 3 view .LVU14
  70              		.loc 1 71 7 is_stmt 0 view .LVU15
  71              		.arm
  72              		.syntax unified
  73 0008 000090E5 		ldr	r0, [r0]
  74              	.LVL2:
  75              		.loc 1 71 6 view .LVU16
  76 000c 030050E1 		cmp	r0, r3
  77 0010 0700000A 		beq	.L6
  78              		.loc 1 72 5 is_stmt 1 view .LVU17
  79              	.LVL3:
  80              	.LBB16:
  81              	.LBI16:
  82              		.file 2 "../os/kernel/include/chinline.h"
  83              		.loc 2 52 23 view .LVU18
  84              	.LBB17:
  85              		.loc 2 53 3 view .LVU19
  86              		.loc 2 55 3 view .LVU20
  87              		.loc 2 55 20 is_stmt 0 view .LVU21
  88 0014 002090E5 		ldr	r2, [r0]
  89              	.LBE17:
  90              	.LBE16:
  91              		.loc 1 66 32 view .LVU22
  92 0018 10402DE9 		push	{r4, lr}
  93              		.cfi_def_cfa_offset 8
  94              		.cfi_offset 4, -8
  95              		.cfi_offset 14, -4
  96              		.loc 1 72 5 view .LVU23
  97 001c 0010A0E3 		mov	r1, #0
  98              	.LBB19:
  99              	.LBB18:
 100              		.loc 2 55 16 view .LVU24
 101 0020 002083E5 		str	r2, [r3]
 102              		.loc 2 55 38 view .LVU25
 103 0024 043082E5 		str	r3, [r2, #4]
 104              		.loc 2 56 3 is_stmt 1 view .LVU26
 105              	.LVL4:
 106              		.loc 2 56 3 is_stmt 0 view .LVU27
 107              	.LBE18:
 108              	.LBE19:
 109              		.loc 1 72 5 view .LVU28
 110 0028 FEFFFFEB 		bl	chSchWakeupS
 111              	.LVL5:
 112              		.loc 1 73 3 is_stmt 1 view .LVU29
 113              		.loc 1 73 3 view .LVU30
 114              		.syntax divided
ARM GAS  /tmp/ccTOBiaP.s 			page 3


 115              	@ 73 "../os/kernel/src/chcond.c" 1
 116 002c 1FF021E3 		msr     CPSR_c, #0x1F
 117              	@ 0 "" 2
 118              		.loc 1 73 16 view .LVU31
 119              		.loc 1 74 1 is_stmt 0 view .LVU32
 120              		.arm
 121              		.syntax unified
 122 0030 1080BDE8 		pop	{r4, pc}
 123              	.LVL6:
 124              	.L6:
 125              		.cfi_def_cfa_offset 0
 126              		.cfi_restore 4
 127              		.cfi_restore 14
 128              		.loc 1 73 3 is_stmt 1 view .LVU33
 129              		.loc 1 73 3 view .LVU34
 130              		.syntax divided
 131              	@ 73 "../os/kernel/src/chcond.c" 1
 132 0034 1FF021E3 		msr     CPSR_c, #0x1F
 133              	@ 0 "" 2
 134              		.loc 1 73 16 view .LVU35
 135              		.loc 1 73 3 is_stmt 0 view .LVU36
 136              		.arm
 137              		.syntax unified
 138 0038 1EFF2FE1 		bx	lr
 139              		.cfi_endproc
 140              	.LFE8:
 141              		.size	chCondSignal, .-chCondSignal
 142              		.section	.text.chCondSignalI,"ax",%progbits
 143              		.align	2
 144              		.global	chCondSignalI
 145              		.syntax unified
 146              		.arm
 147              		.fpu softvfp
 148              		.type	chCondSignalI, %function
 149              	chCondSignalI:
 150              	.LVL7:
 151              	.LFB9:
 152              		.loc 1 87 33 is_stmt 1 view -0
 153              		.cfi_startproc
 154              		@ args = 0, pretend = 0, frame = 0
 155              		@ frame_needed = 0, uses_anonymous_args = 0
 156              		.loc 1 89 3 view .LVU38
 157              		.loc 1 89 21 view .LVU39
 158              		.loc 1 90 3 view .LVU40
 159              		.loc 1 90 42 view .LVU41
 160              		.loc 1 92 3 view .LVU42
 161              		.loc 1 87 33 is_stmt 0 view .LVU43
 162 0000 0030A0E1 		mov	r3, r0
 163              		.loc 1 92 7 view .LVU44
 164 0004 000090E5 		ldr	r0, [r0]
 165              	.LVL8:
 166              		.loc 1 92 6 view .LVU45
 167 0008 030050E1 		cmp	r0, r3
 168 000c 1EFF2F01 		bxeq	lr
 169              		.loc 1 93 5 is_stmt 1 view .LVU46
 170              	.LVL9:
 171              	.LBB20:
ARM GAS  /tmp/ccTOBiaP.s 			page 4


 172              	.LBI20:
 173              		.loc 2 52 23 view .LVU47
 174              	.LBB21:
 175              		.loc 2 53 3 view .LVU48
 176              		.loc 2 55 3 view .LVU49
 177              		.loc 2 55 20 is_stmt 0 view .LVU50
 178 0010 002090E5 		ldr	r2, [r0]
 179              	.LBE21:
 180              	.LBE20:
 181              		.loc 1 87 33 view .LVU51
 182 0014 10402DE9 		push	{r4, lr}
 183              		.cfi_def_cfa_offset 8
 184              		.cfi_offset 4, -8
 185              		.cfi_offset 14, -4
 186              	.LBB23:
 187              	.LBB22:
 188              		.loc 2 55 16 view .LVU52
 189 0018 002083E5 		str	r2, [r3]
 190              		.loc 2 55 38 view .LVU53
 191 001c 043082E5 		str	r3, [r2, #4]
 192              		.loc 2 56 3 is_stmt 1 view .LVU54
 193              	.LVL10:
 194              		.loc 2 56 3 is_stmt 0 view .LVU55
 195              	.LBE22:
 196              	.LBE23:
 197              		.loc 1 93 5 view .LVU56
 198 0020 FEFFFFEB 		bl	chSchReadyI
 199              	.LVL11:
 200              		.loc 1 93 56 view .LVU57
 201 0024 0030A0E3 		mov	r3, #0
 202 0028 243080E5 		str	r3, [r0, #36]
 203              		.loc 1 94 1 view .LVU58
 204 002c 1080BDE8 		pop	{r4, pc}
 205              		.cfi_endproc
 206              	.LFE9:
 207              		.size	chCondSignalI, .-chCondSignalI
 208              		.section	.text.chCondBroadcast,"ax",%progbits
 209              		.align	2
 210              		.global	chCondBroadcast
 211              		.syntax unified
 212              		.arm
 213              		.fpu softvfp
 214              		.type	chCondBroadcast, %function
 215              	chCondBroadcast:
 216              	.LVL12:
 217              	.LFB10:
 218              		.loc 1 103 35 is_stmt 1 view -0
 219              		.cfi_startproc
 220              		@ args = 0, pretend = 0, frame = 0
 221              		@ frame_needed = 0, uses_anonymous_args = 0
 222              		.loc 1 105 3 view .LVU60
 223              		.loc 1 103 35 is_stmt 0 view .LVU61
 224 0000 70402DE9 		push	{r4, r5, r6, lr}
 225              		.cfi_def_cfa_offset 16
 226              		.cfi_offset 4, -16
 227              		.cfi_offset 5, -12
 228              		.cfi_offset 6, -8
ARM GAS  /tmp/ccTOBiaP.s 			page 5


 229              		.cfi_offset 14, -4
 230              		.loc 1 105 3 view .LVU62
 231              		.syntax divided
 232              	@ 105 "../os/kernel/src/chcond.c" 1
 233 0004 9FF021E3 		msr     CPSR_c, #0x9F
 234              	@ 0 "" 2
 235              		.loc 1 105 3 is_stmt 1 view .LVU63
 236              		.loc 1 105 14 view .LVU64
 237              		.loc 1 106 3 view .LVU65
 238              	.LVL13:
 239              		.arm
 240              		.syntax unified
 241              	.LBB24:
 242              	.LBI24:
 243              		.loc 1 122 6 view .LVU66
 244              	.LBB25:
 245              		.loc 1 124 3 view .LVU67
 246              		.loc 1 124 21 view .LVU68
 247              		.loc 1 125 3 view .LVU69
 248              		.loc 1 125 45 view .LVU70
 249              		.loc 1 130 3 view .LVU71
 250              		.loc 1 130 9 view .LVU72
 251              		.loc 1 130 21 is_stmt 0 view .LVU73
 252 0008 003090E5 		ldr	r3, [r0]
 253              		.loc 1 130 9 view .LVU74
 254 000c 000053E1 		cmp	r3, r0
 255 0010 0A00000A 		beq	.L16
 256 0014 0040A0E1 		mov	r4, r0
 257              		.loc 1 131 56 view .LVU75
 258 0018 0150E0E3 		mvn	r5, #1
 259              	.LVL14:
 260              	.L17:
 261              		.loc 1 131 5 is_stmt 1 view .LVU76
 262              	.LBB26:
 263              	.LBI26:
 264              		.loc 2 52 23 view .LVU77
 265              	.LBB27:
 266              		.loc 2 53 3 view .LVU78
 267              		.loc 2 55 3 view .LVU79
 268              		.loc 2 55 20 is_stmt 0 view .LVU80
 269 001c 002093E5 		ldr	r2, [r3]
 270              	.LBE27:
 271              	.LBE26:
 272              		.loc 1 131 5 view .LVU81
 273 0020 0300A0E1 		mov	r0, r3
 274              	.LBB29:
 275              	.LBB28:
 276              		.loc 2 55 16 view .LVU82
 277 0024 002084E5 		str	r2, [r4]
 278              		.loc 2 55 38 view .LVU83
 279 0028 044082E5 		str	r4, [r2, #4]
 280              		.loc 2 56 3 is_stmt 1 view .LVU84
 281              	.LVL15:
 282              		.loc 2 56 3 is_stmt 0 view .LVU85
 283              	.LBE28:
 284              	.LBE29:
 285              		.loc 1 131 5 view .LVU86
ARM GAS  /tmp/ccTOBiaP.s 			page 6


 286 002c FEFFFFEB 		bl	chSchReadyI
 287              	.LVL16:
 288              		.loc 1 130 21 view .LVU87
 289 0030 003094E5 		ldr	r3, [r4]
 290              		.loc 1 131 56 view .LVU88
 291 0034 245080E5 		str	r5, [r0, #36]
 292              		.loc 1 130 9 is_stmt 1 view .LVU89
 293 0038 040053E1 		cmp	r3, r4
 294 003c F6FFFF1A 		bne	.L17
 295              	.LVL17:
 296              	.L16:
 297              		.loc 1 130 9 is_stmt 0 view .LVU90
 298              	.LBE25:
 299              	.LBE24:
 300              		.loc 1 107 3 is_stmt 1 view .LVU91
 301 0040 FEFFFFEB 		bl	chSchRescheduleS
 302              	.LVL18:
 303              		.loc 1 108 3 view .LVU92
 304              		.loc 1 108 3 view .LVU93
 305              		.syntax divided
 306              	@ 108 "../os/kernel/src/chcond.c" 1
 307 0044 1FF021E3 		msr     CPSR_c, #0x1F
 308              	@ 0 "" 2
 309              		.loc 1 108 16 view .LVU94
 310              		.loc 1 109 1 is_stmt 0 view .LVU95
 311              		.arm
 312              		.syntax unified
 313 0048 7080BDE8 		pop	{r4, r5, r6, pc}
 314              		.cfi_endproc
 315              	.LFE10:
 316              		.size	chCondBroadcast, .-chCondBroadcast
 317              		.section	.text.chCondBroadcastI,"ax",%progbits
 318              		.align	2
 319              		.global	chCondBroadcastI
 320              		.syntax unified
 321              		.arm
 322              		.fpu softvfp
 323              		.type	chCondBroadcastI, %function
 324              	chCondBroadcastI:
 325              	.LVL19:
 326              	.LFB11:
 327              		.loc 1 122 36 is_stmt 1 view -0
 328              		.cfi_startproc
 329              		@ args = 0, pretend = 0, frame = 0
 330              		@ frame_needed = 0, uses_anonymous_args = 0
 331              		.loc 1 124 3 view .LVU97
 332              		.loc 1 124 21 view .LVU98
 333              		.loc 1 125 3 view .LVU99
 334              		.loc 1 125 45 view .LVU100
 335              		.loc 1 130 3 view .LVU101
 336              		.loc 1 130 9 view .LVU102
 337              		.loc 1 130 21 is_stmt 0 view .LVU103
 338 0000 003090E5 		ldr	r3, [r0]
 339              		.loc 1 130 9 view .LVU104
 340 0004 000053E1 		cmp	r3, r0
 341 0008 1EFF2F01 		bxeq	lr
 342              		.loc 1 122 36 view .LVU105
ARM GAS  /tmp/ccTOBiaP.s 			page 7


 343 000c 70402DE9 		push	{r4, r5, r6, lr}
 344              		.cfi_def_cfa_offset 16
 345              		.cfi_offset 4, -16
 346              		.cfi_offset 5, -12
 347              		.cfi_offset 6, -8
 348              		.cfi_offset 14, -4
 349 0010 0040A0E1 		mov	r4, r0
 350              		.loc 1 131 56 view .LVU106
 351 0014 0150E0E3 		mvn	r5, #1
 352              	.LVL20:
 353              	.L22:
 354              		.loc 1 131 5 is_stmt 1 view .LVU107
 355              	.LBB30:
 356              	.LBI30:
 357              		.loc 2 52 23 view .LVU108
 358              	.LBB31:
 359              		.loc 2 53 3 view .LVU109
 360              		.loc 2 55 3 view .LVU110
 361              		.loc 2 55 20 is_stmt 0 view .LVU111
 362 0018 002093E5 		ldr	r2, [r3]
 363              	.LBE31:
 364              	.LBE30:
 365              		.loc 1 131 5 view .LVU112
 366 001c 0300A0E1 		mov	r0, r3
 367              	.LBB33:
 368              	.LBB32:
 369              		.loc 2 55 16 view .LVU113
 370 0020 002084E5 		str	r2, [r4]
 371              		.loc 2 55 38 view .LVU114
 372 0024 044082E5 		str	r4, [r2, #4]
 373              		.loc 2 56 3 is_stmt 1 view .LVU115
 374              	.LVL21:
 375              		.loc 2 56 3 is_stmt 0 view .LVU116
 376              	.LBE32:
 377              	.LBE33:
 378              		.loc 1 131 5 view .LVU117
 379 0028 FEFFFFEB 		bl	chSchReadyI
 380              	.LVL22:
 381              		.loc 1 130 21 view .LVU118
 382 002c 003094E5 		ldr	r3, [r4]
 383              		.loc 1 131 56 view .LVU119
 384 0030 245080E5 		str	r5, [r0, #36]
 385              		.loc 1 130 9 is_stmt 1 view .LVU120
 386 0034 040053E1 		cmp	r3, r4
 387 0038 F6FFFF1A 		bne	.L22
 388 003c 7080BDE8 		pop	{r4, r5, r6, pc}
 389              		.cfi_endproc
 390              	.LFE11:
 391              		.size	chCondBroadcastI, .-chCondBroadcastI
 392              		.section	.text.chCondWaitS,"ax",%progbits
 393              		.align	2
 394              		.global	chCondWaitS
 395              		.syntax unified
 396              		.arm
 397              		.fpu softvfp
 398              		.type	chCondWaitS, %function
 399              	chCondWaitS:
ARM GAS  /tmp/ccTOBiaP.s 			page 8


 400              	.LVL23:
 401              	.LFB13:
 402              		.loc 1 177 32 view -0
 403              		.cfi_startproc
 404              		@ args = 0, pretend = 0, frame = 0
 405              		@ frame_needed = 0, uses_anonymous_args = 0
 406              		.loc 1 178 3 view .LVU122
 407              		.loc 1 178 11 is_stmt 0 view .LVU123
 408 0000 6C309FE5 		ldr	r3, .L34
 409              		.loc 1 177 32 view .LVU124
 410 0004 70402DE9 		push	{r4, r5, r6, lr}
 411              		.cfi_def_cfa_offset 16
 412              		.cfi_offset 4, -16
 413              		.cfi_offset 5, -12
 414              		.cfi_offset 6, -8
 415              		.cfi_offset 14, -4
 416              		.loc 1 177 32 view .LVU125
 417 0008 0050A0E1 		mov	r5, r0
 418              		.loc 1 178 11 view .LVU126
 419 000c 184093E5 		ldr	r4, [r3, #24]
 420              	.LVL24:
 421              		.loc 1 179 3 is_stmt 1 view .LVU127
 422              		.loc 1 180 3 view .LVU128
 423              		.loc 1 182 3 view .LVU129
 424              		.loc 1 182 21 view .LVU130
 425              		.loc 1 183 3 view .LVU131
 426              		.loc 1 183 40 view .LVU132
 427              		.loc 1 184 3 view .LVU133
 428              		.loc 1 186 36 view .LVU134
 429              		.loc 1 188 3 view .LVU135
 430              		.loc 1 188 8 is_stmt 0 view .LVU136
 431 0010 FEFFFFEB 		bl	chMtxUnlockS
 432              	.LVL25:
 433              	.LBB34:
 434              	.LBB35:
 435              		.loc 2 36 11 view .LVU137
 436 0014 0530A0E1 		mov	r3, r5
 437              	.LBE35:
 438              	.LBE34:
 439              		.loc 1 188 8 view .LVU138
 440 0018 0060A0E1 		mov	r6, r0
 441              	.LVL26:
 442              		.loc 1 189 3 is_stmt 1 view .LVU139
 443              		.loc 1 189 19 is_stmt 0 view .LVU140
 444 001c 245084E5 		str	r5, [r4, #36]
 445              		.loc 1 190 3 is_stmt 1 view .LVU141
 446              	.LVL27:
 447              	.LBB38:
 448              	.LBI34:
 449              		.loc 2 34 20 view .LVU142
 450              	.LBB36:
 451              		.loc 2 36 3 view .LVU143
 452              		.loc 2 36 3 is_stmt 0 view .LVU144
 453 0020 030000EA 		b	.L30
 454              	.LVL28:
 455              	.L33:
 456              		.loc 2 39 34 view .LVU145
ARM GAS  /tmp/ccTOBiaP.s 			page 9


 457 0024 081093E5 		ldr	r1, [r3, #8]
 458 0028 082094E5 		ldr	r2, [r4, #8]
 459 002c 020051E1 		cmp	r1, r2
 460 0030 0200003A 		bcc	.L29
 461              	.L30:
 462              		.loc 2 37 3 is_stmt 1 view .LVU146
 463              		.loc 2 38 5 view .LVU147
 464              		.loc 2 38 8 is_stmt 0 view .LVU148
 465 0034 003093E5 		ldr	r3, [r3]
 466              	.LVL29:
 467              		.loc 2 39 11 is_stmt 1 view .LVU149
 468              		.loc 2 39 3 is_stmt 0 view .LVU150
 469 0038 030055E1 		cmp	r5, r3
 470 003c F8FFFF1A 		bne	.L33
 471              	.L29:
 472              		.loc 2 40 3 is_stmt 1 view .LVU151
 473              		.loc 2 41 18 is_stmt 0 view .LVU152
 474 0040 042093E5 		ldr	r2, [r3, #4]
 475              		.loc 2 40 14 view .LVU153
 476 0044 003084E5 		str	r3, [r4]
 477              		.loc 2 41 3 is_stmt 1 view .LVU154
 478              		.loc 2 41 14 is_stmt 0 view .LVU155
 479 0048 042084E5 		str	r2, [r4, #4]
 480              		.loc 2 42 3 is_stmt 1 view .LVU156
 481              		.loc 2 42 35 is_stmt 0 view .LVU157
 482 004c 044083E5 		str	r4, [r3, #4]
 483              		.loc 2 42 22 view .LVU158
 484 0050 043094E5 		ldr	r3, [r4, #4]
 485              	.LVL30:
 486              		.loc 2 42 22 view .LVU159
 487              	.LBE36:
 488              	.LBE38:
 489              		.loc 1 191 3 view .LVU160
 490 0054 0500A0E3 		mov	r0, #5
 491              	.LVL31:
 492              	.LBB39:
 493              	.LBB37:
 494              		.loc 2 42 22 view .LVU161
 495 0058 004083E5 		str	r4, [r3]
 496              	.LVL32:
 497              		.loc 2 42 22 view .LVU162
 498              	.LBE37:
 499              	.LBE39:
 500              		.loc 1 191 3 is_stmt 1 view .LVU163
 501 005c FEFFFFEB 		bl	chSchGoSleepS
 502              	.LVL33:
 503              		.loc 1 192 3 view .LVU164
 504              		.loc 1 192 7 is_stmt 0 view .LVU165
 505 0060 244094E5 		ldr	r4, [r4, #36]
 506              	.LVL34:
 507              		.loc 1 193 3 is_stmt 1 view .LVU166
 508 0064 0600A0E1 		mov	r0, r6
 509 0068 FEFFFFEB 		bl	chMtxLockS
 510              	.LVL35:
 511              		.loc 1 194 3 view .LVU167
 512              		.loc 1 195 1 is_stmt 0 view .LVU168
 513 006c 0400A0E1 		mov	r0, r4
ARM GAS  /tmp/ccTOBiaP.s 			page 10


 514 0070 7080BDE8 		pop	{r4, r5, r6, pc}
 515              	.L35:
 516              		.align	2
 517              	.L34:
 518 0074 00000000 		.word	rlist
 519              		.cfi_endproc
 520              	.LFE13:
 521              		.size	chCondWaitS, .-chCondWaitS
 522              		.section	.text.chCondWait,"ax",%progbits
 523              		.align	2
 524              		.global	chCondWait
 525              		.syntax unified
 526              		.arm
 527              		.fpu softvfp
 528              		.type	chCondWait, %function
 529              	chCondWait:
 530              	.LVL36:
 531              	.LFB12:
 532              		.loc 1 151 31 is_stmt 1 view -0
 533              		.cfi_startproc
 534              		@ args = 0, pretend = 0, frame = 0
 535              		@ frame_needed = 0, uses_anonymous_args = 0
 536              		.loc 1 152 3 view .LVU170
 537              		.loc 1 154 3 view .LVU171
 538              		.loc 1 151 31 is_stmt 0 view .LVU172
 539 0000 10402DE9 		push	{r4, lr}
 540              		.cfi_def_cfa_offset 8
 541              		.cfi_offset 4, -8
 542              		.cfi_offset 14, -4
 543              		.loc 1 154 3 view .LVU173
 544              		.syntax divided
 545              	@ 154 "../os/kernel/src/chcond.c" 1
 546 0004 9FF021E3 		msr     CPSR_c, #0x9F
 547              	@ 0 "" 2
 548              		.loc 1 154 3 is_stmt 1 view .LVU174
 549              		.loc 1 154 14 view .LVU175
 550              		.loc 1 155 3 view .LVU176
 551              		.loc 1 155 9 is_stmt 0 view .LVU177
 552              		.arm
 553              		.syntax unified
 554 0008 FEFFFFEB 		bl	chCondWaitS
 555              	.LVL37:
 556              		.loc 1 156 3 is_stmt 1 view .LVU178
 557              		.loc 1 156 3 view .LVU179
 558              		.syntax divided
 559              	@ 156 "../os/kernel/src/chcond.c" 1
 560 000c 1FF021E3 		msr     CPSR_c, #0x1F
 561              	@ 0 "" 2
 562              		.loc 1 156 16 view .LVU180
 563              		.loc 1 157 3 view .LVU181
 564              		.loc 1 158 1 is_stmt 0 view .LVU182
 565              		.arm
 566              		.syntax unified
 567 0010 1080BDE8 		pop	{r4, pc}
 568              		.cfi_endproc
 569              	.LFE12:
 570              		.size	chCondWait, .-chCondWait
ARM GAS  /tmp/ccTOBiaP.s 			page 11


 571              		.section	.text.chCondWaitTimeoutS,"ax",%progbits
 572              		.align	2
 573              		.global	chCondWaitTimeoutS
 574              		.syntax unified
 575              		.arm
 576              		.fpu softvfp
 577              		.type	chCondWaitTimeoutS, %function
 578              	chCondWaitTimeoutS:
 579              	.LVL38:
 580              	.LFB15:
 581              		.loc 1 263 55 is_stmt 1 view -0
 582              		.cfi_startproc
 583              		@ args = 0, pretend = 0, frame = 0
 584              		@ frame_needed = 0, uses_anonymous_args = 0
 585              		.loc 1 264 3 view .LVU184
 586              		.loc 1 265 3 view .LVU185
 587              		.loc 1 267 3 view .LVU186
 588              		.loc 1 267 21 view .LVU187
 589              		.loc 1 268 3 view .LVU188
 590              		.loc 1 268 77 view .LVU189
 591              		.loc 1 269 3 view .LVU190
 592              		.loc 1 271 36 view .LVU191
 593              		.loc 1 273 3 view .LVU192
 594              		.loc 1 263 55 is_stmt 0 view .LVU193
 595 0000 70402DE9 		push	{r4, r5, r6, lr}
 596              		.cfi_def_cfa_offset 16
 597              		.cfi_offset 4, -16
 598              		.cfi_offset 5, -12
 599              		.cfi_offset 6, -8
 600              		.cfi_offset 14, -4
 601              		.loc 1 263 55 view .LVU194
 602 0004 0040A0E1 		mov	r4, r0
 603 0008 0160A0E1 		mov	r6, r1
 604              		.loc 1 273 8 view .LVU195
 605 000c FEFFFFEB 		bl	chMtxUnlockS
 606              	.LVL39:
 607              		.loc 1 274 3 view .LVU196
 608 0010 6C209FE5 		ldr	r2, .L48
 609              	.LBB40:
 610              	.LBB41:
 611              		.loc 2 36 11 view .LVU197
 612 0014 0430A0E1 		mov	r3, r4
 613              	.LBE41:
 614              	.LBE40:
 615              		.loc 1 274 3 view .LVU198
 616 0018 18E092E5 		ldr	lr, [r2, #24]
 617              		.loc 1 273 8 view .LVU199
 618 001c 0050A0E1 		mov	r5, r0
 619              	.LVL40:
 620              		.loc 1 274 3 is_stmt 1 view .LVU200
 621              		.loc 1 274 21 is_stmt 0 view .LVU201
 622 0020 24408EE5 		str	r4, [lr, #36]
 623              		.loc 1 275 3 is_stmt 1 view .LVU202
 624              	.LVL41:
 625              	.LBB44:
 626              	.LBI40:
 627              		.loc 2 34 20 view .LVU203
ARM GAS  /tmp/ccTOBiaP.s 			page 12


 628              	.LBB42:
 629              		.loc 2 36 3 view .LVU204
 630              		.loc 2 36 3 is_stmt 0 view .LVU205
 631 0024 030000EA 		b	.L40
 632              	.LVL42:
 633              	.L47:
 634              		.loc 2 39 34 view .LVU206
 635 0028 08C093E5 		ldr	ip, [r3, #8]
 636 002c 08209EE5 		ldr	r2, [lr, #8]
 637 0030 02005CE1 		cmp	ip, r2
 638 0034 0200003A 		bcc	.L39
 639              	.L40:
 640              		.loc 2 37 3 is_stmt 1 view .LVU207
 641              		.loc 2 38 5 view .LVU208
 642              		.loc 2 38 8 is_stmt 0 view .LVU209
 643 0038 003093E5 		ldr	r3, [r3]
 644              	.LVL43:
 645              		.loc 2 39 11 is_stmt 1 view .LVU210
 646              		.loc 2 39 3 is_stmt 0 view .LVU211
 647 003c 030054E1 		cmp	r4, r3
 648 0040 F8FFFF1A 		bne	.L47
 649              	.L39:
 650              		.loc 2 40 3 is_stmt 1 view .LVU212
 651              		.loc 2 41 18 is_stmt 0 view .LVU213
 652 0044 042093E5 		ldr	r2, [r3, #4]
 653              		.loc 2 40 14 view .LVU214
 654 0048 00308EE5 		str	r3, [lr]
 655              		.loc 2 41 3 is_stmt 1 view .LVU215
 656              		.loc 2 41 14 is_stmt 0 view .LVU216
 657 004c 04208EE5 		str	r2, [lr, #4]
 658              		.loc 2 42 3 is_stmt 1 view .LVU217
 659              		.loc 2 42 35 is_stmt 0 view .LVU218
 660 0050 04E083E5 		str	lr, [r3, #4]
 661              		.loc 2 42 22 view .LVU219
 662 0054 04309EE5 		ldr	r3, [lr, #4]
 663              	.LVL44:
 664              		.loc 2 42 22 view .LVU220
 665              	.LBE42:
 666              	.LBE44:
 667              		.loc 1 276 9 view .LVU221
 668 0058 0610A0E1 		mov	r1, r6
 669 005c 0500A0E3 		mov	r0, #5
 670              	.LVL45:
 671              	.LBB45:
 672              	.LBB43:
 673              		.loc 2 42 22 view .LVU222
 674 0060 00E083E5 		str	lr, [r3]
 675              	.LVL46:
 676              		.loc 2 42 22 view .LVU223
 677              	.LBE43:
 678              	.LBE45:
 679              		.loc 1 276 3 is_stmt 1 view .LVU224
 680              		.loc 1 276 9 is_stmt 0 view .LVU225
 681 0064 FEFFFFEB 		bl	chSchGoSleepTimeoutS
 682              	.LVL47:
 683              		.loc 1 277 6 view .LVU226
 684 0068 010070E3 		cmn	r0, #1
ARM GAS  /tmp/ccTOBiaP.s 			page 13


 685              		.loc 1 276 9 view .LVU227
 686 006c 0040A0E1 		mov	r4, r0
 687              	.LVL48:
 688              		.loc 1 277 3 is_stmt 1 view .LVU228
 689              		.loc 1 277 6 is_stmt 0 view .LVU229
 690 0070 0100000A 		beq	.L38
 691              		.loc 1 278 5 is_stmt 1 view .LVU230
 692 0074 0500A0E1 		mov	r0, r5
 693              	.LVL49:
 694              		.loc 1 278 5 is_stmt 0 view .LVU231
 695 0078 FEFFFFEB 		bl	chMtxLockS
 696              	.LVL50:
 697              		.loc 1 279 3 is_stmt 1 view .LVU232
 698              	.L38:
 699              		.loc 1 280 1 is_stmt 0 view .LVU233
 700 007c 0400A0E1 		mov	r0, r4
 701 0080 7080BDE8 		pop	{r4, r5, r6, pc}
 702              	.L49:
 703              		.align	2
 704              	.L48:
 705 0084 00000000 		.word	rlist
 706              		.cfi_endproc
 707              	.LFE15:
 708              		.size	chCondWaitTimeoutS, .-chCondWaitTimeoutS
 709              		.section	.text.chCondWaitTimeout,"ax",%progbits
 710              		.align	2
 711              		.global	chCondWaitTimeout
 712              		.syntax unified
 713              		.arm
 714              		.fpu softvfp
 715              		.type	chCondWaitTimeout, %function
 716              	chCondWaitTimeout:
 717              	.LVL51:
 718              	.LFB14:
 719              		.loc 1 226 54 is_stmt 1 view -0
 720              		.cfi_startproc
 721              		@ args = 0, pretend = 0, frame = 0
 722              		@ frame_needed = 0, uses_anonymous_args = 0
 723              		.loc 1 227 3 view .LVU235
 724              		.loc 1 229 3 view .LVU236
 725              		.loc 1 226 54 is_stmt 0 view .LVU237
 726 0000 10402DE9 		push	{r4, lr}
 727              		.cfi_def_cfa_offset 8
 728              		.cfi_offset 4, -8
 729              		.cfi_offset 14, -4
 730              		.loc 1 229 3 view .LVU238
 731              		.syntax divided
 732              	@ 229 "../os/kernel/src/chcond.c" 1
 733 0004 9FF021E3 		msr     CPSR_c, #0x9F
 734              	@ 0 "" 2
 735              		.loc 1 229 3 is_stmt 1 view .LVU239
 736              		.loc 1 229 14 view .LVU240
 737              		.loc 1 230 3 view .LVU241
 738              		.loc 1 230 9 is_stmt 0 view .LVU242
 739              		.arm
 740              		.syntax unified
 741 0008 FEFFFFEB 		bl	chCondWaitTimeoutS
ARM GAS  /tmp/ccTOBiaP.s 			page 14


 742              	.LVL52:
 743              		.loc 1 231 3 is_stmt 1 view .LVU243
 744              		.loc 1 231 3 view .LVU244
 745              		.syntax divided
 746              	@ 231 "../os/kernel/src/chcond.c" 1
 747 000c 1FF021E3 		msr     CPSR_c, #0x1F
 748              	@ 0 "" 2
 749              		.loc 1 231 16 view .LVU245
 750              		.loc 1 232 3 view .LVU246
 751              		.loc 1 233 1 is_stmt 0 view .LVU247
 752              		.arm
 753              		.syntax unified
 754 0010 1080BDE8 		pop	{r4, pc}
 755              		.cfi_endproc
 756              	.LFE14:
 757              		.size	chCondWaitTimeout, .-chCondWaitTimeout
 758              		.text
 759              	.Letext0:
 760              		.file 3 "/usr/lib/gcc/arm-none-eabi/9.2.1/include/stdint.h"
 761              		.file 4 "../os/ports/GCC/ARM/chtypes.h"
 762              		.file 5 "../os/kernel/include/chlists.h"
 763              		.file 6 "../os/kernel/include/chthreads.h"
 764              		.file 7 "../os/ports/GCC/ARM/chcore.h"
 765              		.file 8 "../os/kernel/include/chvt.h"
 766              		.file 9 "../os/kernel/include/chschd.h"
 767              		.file 10 "../os/kernel/include/chmtx.h"
 768              		.file 11 "../os/kernel/include/chcond.h"
 769              		.file 12 "../os/kernel/include/chregistry.h"
 770              		.file 13 "../os/kernel/include/ch.h"
 771              		.section	.debug_info,"",%progbits
 772              	.Ldebug_info0:
 773 0000 A30B0000 		.4byte	0xba3
 774 0004 0400     		.2byte	0x4
 775 0006 00000000 		.4byte	.Ldebug_abbrev0
 776 000a 04       		.byte	0x4
 777 000b 01       		.uleb128 0x1
 778 000c 13000000 		.4byte	.LASF112
 779 0010 0C       		.byte	0xc
 780 0011 53010000 		.4byte	.LASF113
 781 0015 82040000 		.4byte	.LASF114
 782 0019 A0000000 		.4byte	.Ldebug_ranges0+0xa0
 783 001d 00000000 		.4byte	0
 784 0021 00000000 		.4byte	.Ldebug_line0
 785 0025 02       		.uleb128 0x2
 786 0026 04       		.byte	0x4
 787 0027 05       		.byte	0x5
 788 0028 696E7400 		.ascii	"int\000"
 789 002c 03       		.uleb128 0x3
 790 002d 04       		.byte	0x4
 791 002e 07       		.byte	0x7
 792 002f 4A020000 		.4byte	.LASF0
 793 0033 03       		.uleb128 0x3
 794 0034 01       		.byte	0x1
 795 0035 06       		.byte	0x6
 796 0036 7B010000 		.4byte	.LASF1
 797 003a 03       		.uleb128 0x3
 798 003b 02       		.byte	0x2
ARM GAS  /tmp/ccTOBiaP.s 			page 15


 799 003c 05       		.byte	0x5
 800 003d DC030000 		.4byte	.LASF2
 801 0041 04       		.uleb128 0x4
 802 0042 BC030000 		.4byte	.LASF5
 803 0046 03       		.byte	0x3
 804 0047 28       		.byte	0x28
 805 0048 18       		.byte	0x18
 806 0049 4D000000 		.4byte	0x4d
 807 004d 03       		.uleb128 0x3
 808 004e 04       		.byte	0x4
 809 004f 05       		.byte	0x5
 810 0050 BE010000 		.4byte	.LASF3
 811 0054 03       		.uleb128 0x3
 812 0055 08       		.byte	0x8
 813 0056 05       		.byte	0x5
 814 0057 6D010000 		.4byte	.LASF4
 815 005b 04       		.uleb128 0x4
 816 005c 7B050000 		.4byte	.LASF6
 817 0060 03       		.byte	0x3
 818 0061 2E       		.byte	0x2e
 819 0062 18       		.byte	0x18
 820 0063 67000000 		.4byte	0x67
 821 0067 03       		.uleb128 0x3
 822 0068 01       		.byte	0x1
 823 0069 08       		.byte	0x8
 824 006a C4030000 		.4byte	.LASF7
 825 006e 04       		.uleb128 0x4
 826 006f DB010000 		.4byte	.LASF8
 827 0073 03       		.byte	0x3
 828 0074 31       		.byte	0x31
 829 0075 19       		.byte	0x19
 830 0076 7A000000 		.4byte	0x7a
 831 007a 03       		.uleb128 0x3
 832 007b 02       		.byte	0x2
 833 007c 07       		.byte	0x7
 834 007d 90020000 		.4byte	.LASF9
 835 0081 04       		.uleb128 0x4
 836 0082 58040000 		.4byte	.LASF10
 837 0086 03       		.byte	0x3
 838 0087 34       		.byte	0x34
 839 0088 19       		.byte	0x19
 840 0089 8D000000 		.4byte	0x8d
 841 008d 03       		.uleb128 0x3
 842 008e 04       		.byte	0x4
 843 008f 07       		.byte	0x7
 844 0090 5F020000 		.4byte	.LASF11
 845 0094 03       		.uleb128 0x3
 846 0095 08       		.byte	0x8
 847 0096 07       		.byte	0x7
 848 0097 00010000 		.4byte	.LASF12
 849 009b 04       		.uleb128 0x4
 850 009c C2020000 		.4byte	.LASF13
 851 00a0 04       		.byte	0x4
 852 00a1 2A       		.byte	0x2a
 853 00a2 19       		.byte	0x19
 854 00a3 5B000000 		.4byte	0x5b
 855 00a7 04       		.uleb128 0x4
ARM GAS  /tmp/ccTOBiaP.s 			page 16


 856 00a8 C7010000 		.4byte	.LASF14
 857 00ac 04       		.byte	0x4
 858 00ad 2B       		.byte	0x2b
 859 00ae 19       		.byte	0x19
 860 00af 5B000000 		.4byte	0x5b
 861 00b3 04       		.uleb128 0x4
 862 00b4 8C030000 		.4byte	.LASF15
 863 00b8 04       		.byte	0x4
 864 00b9 2C       		.byte	0x2c
 865 00ba 19       		.byte	0x19
 866 00bb 5B000000 		.4byte	0x5b
 867 00bf 04       		.uleb128 0x4
 868 00c0 AC010000 		.4byte	.LASF16
 869 00c4 04       		.byte	0x4
 870 00c5 2D       		.byte	0x2d
 871 00c6 19       		.byte	0x19
 872 00c7 5B000000 		.4byte	0x5b
 873 00cb 04       		.uleb128 0x4
 874 00cc A6030000 		.4byte	.LASF17
 875 00d0 04       		.byte	0x4
 876 00d1 2E       		.byte	0x2e
 877 00d2 19       		.byte	0x19
 878 00d3 81000000 		.4byte	0x81
 879 00d7 04       		.uleb128 0x4
 880 00d8 B0020000 		.4byte	.LASF18
 881 00dc 04       		.byte	0x4
 882 00dd 2F       		.byte	0x2f
 883 00de 19       		.byte	0x19
 884 00df 41000000 		.4byte	0x41
 885 00e3 04       		.uleb128 0x4
 886 00e4 D6020000 		.4byte	.LASF19
 887 00e8 04       		.byte	0x4
 888 00e9 31       		.byte	0x31
 889 00ea 19       		.byte	0x19
 890 00eb 81000000 		.4byte	0x81
 891 00ef 04       		.uleb128 0x4
 892 00f0 10050000 		.4byte	.LASF20
 893 00f4 04       		.byte	0x4
 894 00f5 33       		.byte	0x33
 895 00f6 19       		.byte	0x19
 896 00f7 81000000 		.4byte	0x81
 897 00fb 05       		.uleb128 0x5
 898 00fc EF000000 		.4byte	0xef
 899 0100 04       		.uleb128 0x4
 900 0101 30040000 		.4byte	.LASF21
 901 0105 05       		.byte	0x5
 902 0106 23       		.byte	0x23
 903 0107 17       		.byte	0x17
 904 0108 0C010000 		.4byte	0x10c
 905 010c 06       		.uleb128 0x6
 906 010d 30040000 		.4byte	.LASF21
 907 0111 44       		.byte	0x44
 908 0112 06       		.byte	0x6
 909 0113 57       		.byte	0x57
 910 0114 08       		.byte	0x8
 911 0115 11020000 		.4byte	0x211
 912 0119 07       		.uleb128 0x7
ARM GAS  /tmp/ccTOBiaP.s 			page 17


 913 011a 12040000 		.4byte	.LASF22
 914 011e 06       		.byte	0x6
 915 011f 58       		.byte	0x58
 916 0120 1A       		.byte	0x1a
 917 0121 35020000 		.4byte	0x235
 918 0125 00       		.byte	0
 919 0126 07       		.uleb128 0x7
 920 0127 9F030000 		.4byte	.LASF23
 921 012b 06       		.byte	0x6
 922 012c 5A       		.byte	0x5a
 923 012d 1A       		.byte	0x1a
 924 012e 35020000 		.4byte	0x235
 925 0132 04       		.byte	0x4
 926 0133 07       		.uleb128 0x7
 927 0134 3F010000 		.4byte	.LASF24
 928 0138 06       		.byte	0x6
 929 0139 5C       		.byte	0x5c
 930 013a 19       		.byte	0x19
 931 013b CB000000 		.4byte	0xcb
 932 013f 08       		.byte	0x8
 933 0140 07       		.uleb128 0x7
 934 0141 EA050000 		.4byte	.LASF25
 935 0145 06       		.byte	0x6
 936 0146 5D       		.byte	0x5d
 937 0147 19       		.byte	0x19
 938 0148 00030000 		.4byte	0x300
 939 014c 0C       		.byte	0xc
 940 014d 07       		.uleb128 0x7
 941 014e EE010000 		.4byte	.LASF26
 942 0152 06       		.byte	0x6
 943 0153 5F       		.byte	0x5f
 944 0154 1A       		.byte	0x1a
 945 0155 35020000 		.4byte	0x235
 946 0159 10       		.byte	0x10
 947 015a 07       		.uleb128 0x7
 948 015b 42030000 		.4byte	.LASF27
 949 015f 06       		.byte	0x6
 950 0160 60       		.byte	0x60
 951 0161 1A       		.byte	0x1a
 952 0162 35020000 		.4byte	0x235
 953 0166 14       		.byte	0x14
 954 0167 07       		.uleb128 0x7
 955 0168 97050000 		.4byte	.LASF28
 956 016c 06       		.byte	0x6
 957 016d 67       		.byte	0x67
 958 016e 1A       		.byte	0x1a
 959 016f 0D050000 		.4byte	0x50d
 960 0173 18       		.byte	0x18
 961 0174 07       		.uleb128 0x7
 962 0175 E6030000 		.4byte	.LASF29
 963 0179 06       		.byte	0x6
 964 017a 72       		.byte	0x72
 965 017b 19       		.byte	0x19
 966 017c A7000000 		.4byte	0xa7
 967 0180 1C       		.byte	0x1c
 968 0181 07       		.uleb128 0x7
 969 0182 28040000 		.4byte	.LASF30
ARM GAS  /tmp/ccTOBiaP.s 			page 18


 970 0186 06       		.byte	0x6
 971 0187 76       		.byte	0x76
 972 0188 19       		.byte	0x19
 973 0189 9B000000 		.4byte	0x9b
 974 018d 1D       		.byte	0x1d
 975 018e 07       		.uleb128 0x7
 976 018f 64050000 		.4byte	.LASF31
 977 0193 06       		.byte	0x6
 978 0194 7B       		.byte	0x7b
 979 0195 19       		.byte	0x19
 980 0196 B3000000 		.4byte	0xb3
 981 019a 1E       		.byte	0x1e
 982 019b 07       		.uleb128 0x7
 983 019c EE030000 		.4byte	.LASF32
 984 01a0 06       		.byte	0x6
 985 01a1 81       		.byte	0x81
 986 01a2 19       		.byte	0x19
 987 01a3 BF000000 		.4byte	0xbf
 988 01a7 1F       		.byte	0x1f
 989 01a8 07       		.uleb128 0x7
 990 01a9 39050000 		.4byte	.LASF33
 991 01ad 06       		.byte	0x6
 992 01ae 88       		.byte	0x88
 993 01af 19       		.byte	0x19
 994 01b0 FB000000 		.4byte	0xfb
 995 01b4 20       		.byte	0x20
 996 01b5 08       		.uleb128 0x8
 997 01b6 705F7500 		.ascii	"p_u\000"
 998 01ba 06       		.byte	0x6
 999 01bb AD       		.byte	0xad
 1000 01bc 19       		.byte	0x19
 1001 01bd D3040000 		.4byte	0x4d3
 1002 01c1 24       		.byte	0x24
 1003 01c2 07       		.uleb128 0x7
 1004 01c3 F0050000 		.4byte	.LASF34
 1005 01c7 06       		.byte	0x6
 1006 01c8 B2       		.byte	0xb2
 1007 01c9 19       		.byte	0x19
 1008 01ca 5E020000 		.4byte	0x25e
 1009 01ce 28       		.byte	0x28
 1010 01cf 07       		.uleb128 0x7
 1011 01d0 47050000 		.4byte	.LASF35
 1012 01d4 06       		.byte	0x6
 1013 01d5 B8       		.byte	0xb8
 1014 01d6 19       		.byte	0x19
 1015 01d7 3B020000 		.4byte	0x23b
 1016 01db 2C       		.byte	0x2c
 1017 01dc 07       		.uleb128 0x7
 1018 01dd 0D000000 		.4byte	.LASF36
 1019 01e1 06       		.byte	0x6
 1020 01e2 BC       		.byte	0xbc
 1021 01e3 19       		.byte	0x19
 1022 01e4 D7000000 		.4byte	0xd7
 1023 01e8 34       		.byte	0x34
 1024 01e9 07       		.uleb128 0x7
 1025 01ea 4D040000 		.4byte	.LASF37
 1026 01ee 06       		.byte	0x6
ARM GAS  /tmp/ccTOBiaP.s 			page 19


 1027 01ef C2       		.byte	0xc2
 1028 01f0 19       		.byte	0x19
 1029 01f1 E3000000 		.4byte	0xe3
 1030 01f5 38       		.byte	0x38
 1031 01f6 07       		.uleb128 0x7
 1032 01f7 D2030000 		.4byte	.LASF38
 1033 01fb 06       		.byte	0x6
 1034 01fc C9       		.byte	0xc9
 1035 01fd 1A       		.byte	0x1a
 1036 01fe 1F050000 		.4byte	0x51f
 1037 0202 3C       		.byte	0x3c
 1038 0203 07       		.uleb128 0x7
 1039 0204 1A050000 		.4byte	.LASF39
 1040 0208 06       		.byte	0x6
 1041 0209 CD       		.byte	0xcd
 1042 020a 19       		.byte	0x19
 1043 020b CB000000 		.4byte	0xcb
 1044 020f 40       		.byte	0x40
 1045 0210 00       		.byte	0
 1046 0211 09       		.uleb128 0x9
 1047 0212 08       		.byte	0x8
 1048 0213 05       		.byte	0x5
 1049 0214 5A       		.byte	0x5a
 1050 0215 09       		.byte	0x9
 1051 0216 35020000 		.4byte	0x235
 1052 021a 07       		.uleb128 0x7
 1053 021b 12040000 		.4byte	.LASF22
 1054 021f 05       		.byte	0x5
 1055 0220 5B       		.byte	0x5b
 1056 0221 1A       		.byte	0x1a
 1057 0222 35020000 		.4byte	0x235
 1058 0226 00       		.byte	0
 1059 0227 07       		.uleb128 0x7
 1060 0228 9F030000 		.4byte	.LASF23
 1061 022c 05       		.byte	0x5
 1062 022d 5D       		.byte	0x5d
 1063 022e 1A       		.byte	0x1a
 1064 022f 35020000 		.4byte	0x235
 1065 0233 04       		.byte	0x4
 1066 0234 00       		.byte	0
 1067 0235 0A       		.uleb128 0xa
 1068 0236 04       		.byte	0x4
 1069 0237 00010000 		.4byte	0x100
 1070 023b 04       		.uleb128 0x4
 1071 023c 50030000 		.4byte	.LASF40
 1072 0240 05       		.byte	0x5
 1073 0241 5F       		.byte	0x5f
 1074 0242 03       		.byte	0x3
 1075 0243 11020000 		.4byte	0x211
 1076 0247 09       		.uleb128 0x9
 1077 0248 04       		.byte	0x4
 1078 0249 05       		.byte	0x5
 1079 024a 64       		.byte	0x64
 1080 024b 09       		.byte	0x9
 1081 024c 5E020000 		.4byte	0x25e
 1082 0250 07       		.uleb128 0x7
 1083 0251 12040000 		.4byte	.LASF22
ARM GAS  /tmp/ccTOBiaP.s 			page 20


 1084 0255 05       		.byte	0x5
 1085 0256 66       		.byte	0x66
 1086 0257 16       		.byte	0x16
 1087 0258 35020000 		.4byte	0x235
 1088 025c 00       		.byte	0
 1089 025d 00       		.byte	0
 1090 025e 04       		.uleb128 0x4
 1091 025f CA020000 		.4byte	.LASF41
 1092 0263 05       		.byte	0x5
 1093 0264 69       		.byte	0x69
 1094 0265 03       		.byte	0x3
 1095 0266 47020000 		.4byte	0x247
 1096 026a 04       		.uleb128 0x4
 1097 026b E8020000 		.4byte	.LASF42
 1098 026f 07       		.byte	0x7
 1099 0270 9D       		.byte	0x9d
 1100 0271 12       		.byte	0x12
 1101 0272 81000000 		.4byte	0x81
 1102 0276 04       		.uleb128 0x4
 1103 0277 1F020000 		.4byte	.LASF43
 1104 027b 07       		.byte	0x7
 1105 027c A2       		.byte	0xa2
 1106 027d 0F       		.byte	0xf
 1107 027e 82020000 		.4byte	0x282
 1108 0282 0B       		.uleb128 0xb
 1109 0283 04       		.byte	0x4
 1110 0284 06       		.uleb128 0x6
 1111 0285 40050000 		.4byte	.LASF44
 1112 0289 24       		.byte	0x24
 1113 028a 07       		.byte	0x7
 1114 028b B9       		.byte	0xb9
 1115 028c 08       		.byte	0x8
 1116 028d 00030000 		.4byte	0x300
 1117 0291 08       		.uleb128 0x8
 1118 0292 723400   		.ascii	"r4\000"
 1119 0295 07       		.byte	0x7
 1120 0296 BA       		.byte	0xba
 1121 0297 11       		.byte	0x11
 1122 0298 76020000 		.4byte	0x276
 1123 029c 00       		.byte	0
 1124 029d 08       		.uleb128 0x8
 1125 029e 723500   		.ascii	"r5\000"
 1126 02a1 07       		.byte	0x7
 1127 02a2 BB       		.byte	0xbb
 1128 02a3 11       		.byte	0x11
 1129 02a4 76020000 		.4byte	0x276
 1130 02a8 04       		.byte	0x4
 1131 02a9 08       		.uleb128 0x8
 1132 02aa 723600   		.ascii	"r6\000"
 1133 02ad 07       		.byte	0x7
 1134 02ae BC       		.byte	0xbc
 1135 02af 11       		.byte	0x11
 1136 02b0 76020000 		.4byte	0x276
 1137 02b4 08       		.byte	0x8
 1138 02b5 08       		.uleb128 0x8
 1139 02b6 723700   		.ascii	"r7\000"
 1140 02b9 07       		.byte	0x7
ARM GAS  /tmp/ccTOBiaP.s 			page 21


 1141 02ba BD       		.byte	0xbd
 1142 02bb 11       		.byte	0x11
 1143 02bc 76020000 		.4byte	0x276
 1144 02c0 0C       		.byte	0xc
 1145 02c1 08       		.uleb128 0x8
 1146 02c2 723800   		.ascii	"r8\000"
 1147 02c5 07       		.byte	0x7
 1148 02c6 BE       		.byte	0xbe
 1149 02c7 11       		.byte	0x11
 1150 02c8 76020000 		.4byte	0x276
 1151 02cc 10       		.byte	0x10
 1152 02cd 08       		.uleb128 0x8
 1153 02ce 723900   		.ascii	"r9\000"
 1154 02d1 07       		.byte	0x7
 1155 02d2 BF       		.byte	0xbf
 1156 02d3 11       		.byte	0x11
 1157 02d4 76020000 		.4byte	0x276
 1158 02d8 14       		.byte	0x14
 1159 02d9 08       		.uleb128 0x8
 1160 02da 72313000 		.ascii	"r10\000"
 1161 02de 07       		.byte	0x7
 1162 02df C0       		.byte	0xc0
 1163 02e0 11       		.byte	0x11
 1164 02e1 76020000 		.4byte	0x276
 1165 02e5 18       		.byte	0x18
 1166 02e6 08       		.uleb128 0x8
 1167 02e7 72313100 		.ascii	"r11\000"
 1168 02eb 07       		.byte	0x7
 1169 02ec C1       		.byte	0xc1
 1170 02ed 11       		.byte	0x11
 1171 02ee 76020000 		.4byte	0x276
 1172 02f2 1C       		.byte	0x1c
 1173 02f3 08       		.uleb128 0x8
 1174 02f4 6C7200   		.ascii	"lr\000"
 1175 02f7 07       		.byte	0x7
 1176 02f8 C2       		.byte	0xc2
 1177 02f9 11       		.byte	0x11
 1178 02fa 76020000 		.4byte	0x276
 1179 02fe 20       		.byte	0x20
 1180 02ff 00       		.byte	0
 1181 0300 06       		.uleb128 0x6
 1182 0301 88020000 		.4byte	.LASF45
 1183 0305 04       		.byte	0x4
 1184 0306 07       		.byte	0x7
 1185 0307 CA       		.byte	0xca
 1186 0308 08       		.byte	0x8
 1187 0309 1B030000 		.4byte	0x31b
 1188 030d 08       		.uleb128 0x8
 1189 030e 72313300 		.ascii	"r13\000"
 1190 0312 07       		.byte	0x7
 1191 0313 CB       		.byte	0xcb
 1192 0314 12       		.byte	0x12
 1193 0315 1B030000 		.4byte	0x31b
 1194 0319 00       		.byte	0
 1195 031a 00       		.byte	0
 1196 031b 0A       		.uleb128 0xa
 1197 031c 04       		.byte	0x4
ARM GAS  /tmp/ccTOBiaP.s 			page 22


 1198 031d 84020000 		.4byte	0x284
 1199 0321 04       		.uleb128 0x4
 1200 0322 25050000 		.4byte	.LASF46
 1201 0326 08       		.byte	0x8
 1202 0327 4E       		.byte	0x4e
 1203 0328 10       		.byte	0x10
 1204 0329 2D030000 		.4byte	0x32d
 1205 032d 0A       		.uleb128 0xa
 1206 032e 04       		.byte	0x4
 1207 032f 33030000 		.4byte	0x333
 1208 0333 0C       		.uleb128 0xc
 1209 0334 3E030000 		.4byte	0x33e
 1210 0338 0D       		.uleb128 0xd
 1211 0339 82020000 		.4byte	0x282
 1212 033d 00       		.byte	0
 1213 033e 04       		.uleb128 0x4
 1214 033f 75040000 		.4byte	.LASF47
 1215 0343 08       		.byte	0x8
 1216 0344 53       		.byte	0x53
 1217 0345 1D       		.byte	0x1d
 1218 0346 4A030000 		.4byte	0x34a
 1219 034a 06       		.uleb128 0x6
 1220 034b 75040000 		.4byte	.LASF47
 1221 034f 14       		.byte	0x14
 1222 0350 08       		.byte	0x8
 1223 0351 5A       		.byte	0x5a
 1224 0352 08       		.byte	0x8
 1225 0353 99030000 		.4byte	0x399
 1226 0357 07       		.uleb128 0x7
 1227 0358 57020000 		.4byte	.LASF48
 1228 035c 08       		.byte	0x8
 1229 035d 5B       		.byte	0x5b
 1230 035e 1A       		.byte	0x1a
 1231 035f 99030000 		.4byte	0x399
 1232 0363 00       		.byte	0
 1233 0364 07       		.uleb128 0x7
 1234 0365 28020000 		.4byte	.LASF49
 1235 0369 08       		.byte	0x8
 1236 036a 5D       		.byte	0x5d
 1237 036b 1A       		.byte	0x1a
 1238 036c 99030000 		.4byte	0x399
 1239 0370 04       		.byte	0x4
 1240 0371 07       		.uleb128 0x7
 1241 0372 07030000 		.4byte	.LASF50
 1242 0376 08       		.byte	0x8
 1243 0377 5F       		.byte	0x5f
 1244 0378 19       		.byte	0x19
 1245 0379 EF000000 		.4byte	0xef
 1246 037d 08       		.byte	0x8
 1247 037e 07       		.uleb128 0x7
 1248 037f 0F030000 		.4byte	.LASF51
 1249 0383 08       		.byte	0x8
 1250 0384 60       		.byte	0x60
 1251 0385 19       		.byte	0x19
 1252 0386 21030000 		.4byte	0x321
 1253 038a 0C       		.byte	0xc
 1254 038b 07       		.uleb128 0x7
ARM GAS  /tmp/ccTOBiaP.s 			page 23


 1255 038c 52050000 		.4byte	.LASF52
 1256 0390 08       		.byte	0x8
 1257 0391 62       		.byte	0x62
 1258 0392 1A       		.byte	0x1a
 1259 0393 82020000 		.4byte	0x282
 1260 0397 10       		.byte	0x10
 1261 0398 00       		.byte	0
 1262 0399 0A       		.uleb128 0xa
 1263 039a 04       		.byte	0x4
 1264 039b 3E030000 		.4byte	0x33e
 1265 039f 09       		.uleb128 0x9
 1266 03a0 10       		.byte	0x10
 1267 03a1 08       		.byte	0x8
 1268 03a2 6C       		.byte	0x6c
 1269 03a3 09       		.byte	0x9
 1270 03a4 DD030000 		.4byte	0x3dd
 1271 03a8 07       		.uleb128 0x7
 1272 03a9 57020000 		.4byte	.LASF48
 1273 03ad 08       		.byte	0x8
 1274 03ae 6D       		.byte	0x6d
 1275 03af 1A       		.byte	0x1a
 1276 03b0 99030000 		.4byte	0x399
 1277 03b4 00       		.byte	0
 1278 03b5 07       		.uleb128 0x7
 1279 03b6 28020000 		.4byte	.LASF49
 1280 03ba 08       		.byte	0x8
 1281 03bb 6F       		.byte	0x6f
 1282 03bc 1A       		.byte	0x1a
 1283 03bd 99030000 		.4byte	0x399
 1284 03c1 04       		.byte	0x4
 1285 03c2 07       		.uleb128 0x7
 1286 03c3 07030000 		.4byte	.LASF50
 1287 03c7 08       		.byte	0x8
 1288 03c8 71       		.byte	0x71
 1289 03c9 19       		.byte	0x19
 1290 03ca EF000000 		.4byte	0xef
 1291 03ce 08       		.byte	0x8
 1292 03cf 07       		.uleb128 0x7
 1293 03d0 B0050000 		.4byte	.LASF53
 1294 03d4 08       		.byte	0x8
 1295 03d5 72       		.byte	0x72
 1296 03d6 19       		.byte	0x19
 1297 03d7 FB000000 		.4byte	0xfb
 1298 03db 0C       		.byte	0xc
 1299 03dc 00       		.byte	0
 1300 03dd 04       		.uleb128 0x4
 1301 03de DB050000 		.4byte	.LASF54
 1302 03e2 08       		.byte	0x8
 1303 03e3 73       		.byte	0x73
 1304 03e4 03       		.byte	0x3
 1305 03e5 9F030000 		.4byte	0x39f
 1306 03e9 0E       		.uleb128 0xe
 1307 03ea F9000000 		.4byte	.LASF62
 1308 03ee 08       		.byte	0x8
 1309 03ef D1       		.byte	0xd1
 1310 03f0 0F       		.byte	0xf
 1311 03f1 DD030000 		.4byte	0x3dd
ARM GAS  /tmp/ccTOBiaP.s 			page 24


 1312 03f5 09       		.uleb128 0x9
 1313 03f6 1C       		.byte	0x1c
 1314 03f7 09       		.byte	0x9
 1315 03f8 57       		.byte	0x57
 1316 03f9 09       		.byte	0x9
 1317 03fa 4D040000 		.4byte	0x44d
 1318 03fe 07       		.uleb128 0x7
 1319 03ff 6D040000 		.4byte	.LASF55
 1320 0403 09       		.byte	0x9
 1321 0404 58       		.byte	0x58
 1322 0405 19       		.byte	0x19
 1323 0406 3B020000 		.4byte	0x23b
 1324 040a 00       		.byte	0
 1325 040b 07       		.uleb128 0x7
 1326 040c 04040000 		.4byte	.LASF56
 1327 0410 09       		.byte	0x9
 1328 0411 59       		.byte	0x59
 1329 0412 19       		.byte	0x19
 1330 0413 CB000000 		.4byte	0xcb
 1331 0417 08       		.byte	0x8
 1332 0418 07       		.uleb128 0x7
 1333 0419 4A030000 		.4byte	.LASF57
 1334 041d 09       		.byte	0x9
 1335 041e 5B       		.byte	0x5b
 1336 041f 19       		.byte	0x19
 1337 0420 00030000 		.4byte	0x300
 1338 0424 0C       		.byte	0xc
 1339 0425 07       		.uleb128 0x7
 1340 0426 17020000 		.4byte	.LASF58
 1341 042a 09       		.byte	0x9
 1342 042b 5E       		.byte	0x5e
 1343 042c 1A       		.byte	0x1a
 1344 042d 35020000 		.4byte	0x235
 1345 0431 10       		.byte	0x10
 1346 0432 07       		.uleb128 0x7
 1347 0433 74030000 		.4byte	.LASF59
 1348 0437 09       		.byte	0x9
 1349 0438 5F       		.byte	0x5f
 1350 0439 1A       		.byte	0x1a
 1351 043a 35020000 		.4byte	0x235
 1352 043e 14       		.byte	0x14
 1353 043f 07       		.uleb128 0x7
 1354 0440 6A030000 		.4byte	.LASF60
 1355 0444 09       		.byte	0x9
 1356 0445 62       		.byte	0x62
 1357 0446 1A       		.byte	0x1a
 1358 0447 35020000 		.4byte	0x235
 1359 044b 18       		.byte	0x18
 1360 044c 00       		.byte	0
 1361 044d 04       		.uleb128 0x4
 1362 044e 6B050000 		.4byte	.LASF61
 1363 0452 09       		.byte	0x9
 1364 0453 64       		.byte	0x64
 1365 0454 03       		.byte	0x3
 1366 0455 F5030000 		.4byte	0x3f5
 1367 0459 0E       		.uleb128 0xe
 1368 045a 75050000 		.4byte	.LASF63
ARM GAS  /tmp/ccTOBiaP.s 			page 25


 1369 045e 09       		.byte	0x9
 1370 045f 68       		.byte	0x68
 1371 0460 12       		.byte	0x12
 1372 0461 4D040000 		.4byte	0x44d
 1373 0465 06       		.uleb128 0x6
 1374 0466 E2020000 		.4byte	.LASF64
 1375 046a 10       		.byte	0x10
 1376 046b 0A       		.byte	0xa
 1377 046c 25       		.byte	0x25
 1378 046d 10       		.byte	0x10
 1379 046e 9A040000 		.4byte	0x49a
 1380 0472 07       		.uleb128 0x7
 1381 0473 A4010000 		.4byte	.LASF65
 1382 0477 0A       		.byte	0xa
 1383 0478 26       		.byte	0x26
 1384 0479 19       		.byte	0x19
 1385 047a 3B020000 		.4byte	0x23b
 1386 047e 00       		.byte	0
 1387 047f 07       		.uleb128 0x7
 1388 0480 E2050000 		.4byte	.LASF66
 1389 0484 0A       		.byte	0xa
 1390 0485 28       		.byte	0x28
 1391 0486 1A       		.byte	0x1a
 1392 0487 35020000 		.4byte	0x235
 1393 048b 08       		.byte	0x8
 1394 048c 07       		.uleb128 0x7
 1395 048d 09050000 		.4byte	.LASF67
 1396 0491 0A       		.byte	0xa
 1397 0492 2A       		.byte	0x2a
 1398 0493 1A       		.byte	0x1a
 1399 0494 9A040000 		.4byte	0x49a
 1400 0498 0C       		.byte	0xc
 1401 0499 00       		.byte	0
 1402 049a 0A       		.uleb128 0xa
 1403 049b 04       		.byte	0x4
 1404 049c 65040000 		.4byte	0x465
 1405 04a0 04       		.uleb128 0x4
 1406 04a1 E2020000 		.4byte	.LASF64
 1407 04a5 0A       		.byte	0xa
 1408 04a6 2C       		.byte	0x2c
 1409 04a7 03       		.byte	0x3
 1410 04a8 65040000 		.4byte	0x465
 1411 04ac 06       		.uleb128 0x6
 1412 04ad B6010000 		.4byte	.LASF68
 1413 04b1 08       		.byte	0x8
 1414 04b2 0B       		.byte	0xb
 1415 04b3 2F       		.byte	0x2f
 1416 04b4 10       		.byte	0x10
 1417 04b5 C7040000 		.4byte	0x4c7
 1418 04b9 07       		.uleb128 0x7
 1419 04ba 37040000 		.4byte	.LASF69
 1420 04be 0B       		.byte	0xb
 1421 04bf 30       		.byte	0x30
 1422 04c0 19       		.byte	0x19
 1423 04c1 3B020000 		.4byte	0x23b
 1424 04c5 00       		.byte	0
 1425 04c6 00       		.byte	0
ARM GAS  /tmp/ccTOBiaP.s 			page 26


 1426 04c7 04       		.uleb128 0x4
 1427 04c8 B6010000 		.4byte	.LASF68
 1428 04cc 0B       		.byte	0xb
 1429 04cd 31       		.byte	0x31
 1430 04ce 03       		.byte	0x3
 1431 04cf AC040000 		.4byte	0x4ac
 1432 04d3 0F       		.uleb128 0xf
 1433 04d4 04       		.byte	0x4
 1434 04d5 06       		.byte	0x6
 1435 04d6 8F       		.byte	0x8f
 1436 04d7 03       		.byte	0x3
 1437 04d8 0D050000 		.4byte	0x50d
 1438 04dc 10       		.uleb128 0x10
 1439 04dd F2000000 		.4byte	.LASF70
 1440 04e1 06       		.byte	0x6
 1441 04e2 96       		.byte	0x96
 1442 04e3 19       		.byte	0x19
 1443 04e4 D7000000 		.4byte	0xd7
 1444 04e8 10       		.uleb128 0x10
 1445 04e9 25010000 		.4byte	.LASF71
 1446 04ed 06       		.byte	0x6
 1447 04ee 9D       		.byte	0x9d
 1448 04ef 19       		.byte	0x19
 1449 04f0 D7000000 		.4byte	0xd7
 1450 04f4 10       		.uleb128 0x10
 1451 04f5 83050000 		.4byte	.LASF72
 1452 04f9 06       		.byte	0x6
 1453 04fa A4       		.byte	0xa4
 1454 04fb 1A       		.byte	0x1a
 1455 04fc 82020000 		.4byte	0x282
 1456 0500 10       		.uleb128 0x10
 1457 0501 0B040000 		.4byte	.LASF73
 1458 0505 06       		.byte	0x6
 1459 0506 AB       		.byte	0xab
 1460 0507 19       		.byte	0x19
 1461 0508 E3000000 		.4byte	0xe3
 1462 050c 00       		.byte	0
 1463 050d 0A       		.uleb128 0xa
 1464 050e 04       		.byte	0x4
 1465 050f 1A050000 		.4byte	0x51a
 1466 0513 03       		.uleb128 0x3
 1467 0514 01       		.byte	0x1
 1468 0515 08       		.byte	0x8
 1469 0516 E0040000 		.4byte	.LASF74
 1470 051a 11       		.uleb128 0x11
 1471 051b 13050000 		.4byte	0x513
 1472 051f 0A       		.uleb128 0xa
 1473 0520 04       		.byte	0x4
 1474 0521 A0040000 		.4byte	0x4a0
 1475 0525 09       		.uleb128 0x9
 1476 0526 16       		.byte	0x16
 1477 0527 0C       		.byte	0xc
 1478 0528 25       		.byte	0x25
 1479 0529 09       		.byte	0x9
 1480 052a 19060000 		.4byte	0x619
 1481 052e 07       		.uleb128 0x7
 1482 052f 7A020000 		.4byte	.LASF75
ARM GAS  /tmp/ccTOBiaP.s 			page 27


 1483 0533 0C       		.byte	0xc
 1484 0534 26       		.byte	0x26
 1485 0535 0D       		.byte	0xd
 1486 0536 19060000 		.4byte	0x619
 1487 053a 00       		.byte	0
 1488 053b 07       		.uleb128 0x7
 1489 053c F3020000 		.4byte	.LASF76
 1490 0540 0C       		.byte	0xc
 1491 0541 27       		.byte	0x27
 1492 0542 0D       		.byte	0xd
 1493 0543 5B000000 		.4byte	0x5b
 1494 0547 04       		.byte	0x4
 1495 0548 07       		.uleb128 0x7
 1496 0549 5D030000 		.4byte	.LASF77
 1497 054d 0C       		.byte	0xc
 1498 054e 28       		.byte	0x28
 1499 054f 0D       		.byte	0xd
 1500 0550 5B000000 		.4byte	0x5b
 1501 0554 05       		.byte	0x5
 1502 0555 07       		.uleb128 0x7
 1503 0556 D0050000 		.4byte	.LASF78
 1504 055a 0C       		.byte	0xc
 1505 055b 29       		.byte	0x29
 1506 055c 0D       		.byte	0xd
 1507 055d 6E000000 		.4byte	0x6e
 1508 0561 06       		.byte	0x6
 1509 0562 07       		.uleb128 0x7
 1510 0563 94030000 		.4byte	.LASF79
 1511 0567 0C       		.byte	0xc
 1512 0568 2A       		.byte	0x2a
 1513 0569 0D       		.byte	0xd
 1514 056a 5B000000 		.4byte	0x5b
 1515 056e 08       		.byte	0x8
 1516 056f 07       		.uleb128 0x7
 1517 0570 2A030000 		.4byte	.LASF80
 1518 0574 0C       		.byte	0xc
 1519 0575 2B       		.byte	0x2b
 1520 0576 0D       		.byte	0xd
 1521 0577 5B000000 		.4byte	0x5b
 1522 057b 09       		.byte	0x9
 1523 057c 07       		.uleb128 0x7
 1524 057d 17010000 		.4byte	.LASF81
 1525 0581 0C       		.byte	0xc
 1526 0582 2C       		.byte	0x2c
 1527 0583 0D       		.byte	0xd
 1528 0584 5B000000 		.4byte	0x5b
 1529 0588 0A       		.byte	0xa
 1530 0589 07       		.uleb128 0x7
 1531 058a 61040000 		.4byte	.LASF82
 1532 058e 0C       		.byte	0xc
 1533 058f 2D       		.byte	0x2d
 1534 0590 0D       		.byte	0xd
 1535 0591 5B000000 		.4byte	0x5b
 1536 0595 0B       		.byte	0xb
 1537 0596 07       		.uleb128 0x7
 1538 0597 59050000 		.4byte	.LASF83
 1539 059b 0C       		.byte	0xc
ARM GAS  /tmp/ccTOBiaP.s 			page 28


 1540 059c 2E       		.byte	0x2e
 1541 059d 0D       		.byte	0xd
 1542 059e 5B000000 		.4byte	0x5b
 1543 05a2 0C       		.byte	0xc
 1544 05a3 07       		.uleb128 0x7
 1545 05a4 8A050000 		.4byte	.LASF84
 1546 05a8 0C       		.byte	0xc
 1547 05a9 2F       		.byte	0x2f
 1548 05aa 0D       		.byte	0xd
 1549 05ab 5B000000 		.4byte	0x5b
 1550 05af 0D       		.byte	0xd
 1551 05b0 07       		.uleb128 0x7
 1552 05b1 00000000 		.4byte	.LASF85
 1553 05b5 0C       		.byte	0xc
 1554 05b6 30       		.byte	0x30
 1555 05b7 0D       		.byte	0xd
 1556 05b8 5B000000 		.4byte	0x5b
 1557 05bc 0E       		.byte	0xe
 1558 05bd 07       		.uleb128 0x7
 1559 05be 36030000 		.4byte	.LASF86
 1560 05c2 0C       		.byte	0xc
 1561 05c3 31       		.byte	0x31
 1562 05c4 0D       		.byte	0xd
 1563 05c5 5B000000 		.4byte	0x5b
 1564 05c9 0F       		.byte	0xf
 1565 05ca 07       		.uleb128 0x7
 1566 05cb 87010000 		.4byte	.LASF87
 1567 05cf 0C       		.byte	0xc
 1568 05d0 32       		.byte	0x32
 1569 05d1 0D       		.byte	0xd
 1570 05d2 5B000000 		.4byte	0x5b
 1571 05d6 10       		.byte	0x10
 1572 05d7 07       		.uleb128 0x7
 1573 05d8 46010000 		.4byte	.LASF88
 1574 05dc 0C       		.byte	0xc
 1575 05dd 34       		.byte	0x34
 1576 05de 0D       		.byte	0xd
 1577 05df 5B000000 		.4byte	0x5b
 1578 05e3 11       		.byte	0x11
 1579 05e4 07       		.uleb128 0x7
 1580 05e5 97010000 		.4byte	.LASF89
 1581 05e9 0C       		.byte	0xc
 1582 05ea 35       		.byte	0x35
 1583 05eb 0D       		.byte	0xd
 1584 05ec 5B000000 		.4byte	0x5b
 1585 05f0 12       		.byte	0x12
 1586 05f1 07       		.uleb128 0x7
 1587 05f2 FB020000 		.4byte	.LASF90
 1588 05f6 0C       		.byte	0xc
 1589 05f7 36       		.byte	0x36
 1590 05f8 0D       		.byte	0xd
 1591 05f9 5B000000 		.4byte	0x5b
 1592 05fd 13       		.byte	0x13
 1593 05fe 07       		.uleb128 0x7
 1594 05ff 19040000 		.4byte	.LASF91
 1595 0603 0C       		.byte	0xc
 1596 0604 37       		.byte	0x37
ARM GAS  /tmp/ccTOBiaP.s 			page 29


 1597 0605 0D       		.byte	0xd
 1598 0606 5B000000 		.4byte	0x5b
 1599 060a 14       		.byte	0x14
 1600 060b 07       		.uleb128 0x7
 1601 060c F8030000 		.4byte	.LASF92
 1602 0610 0C       		.byte	0xc
 1603 0611 39       		.byte	0x39
 1604 0612 0D       		.byte	0xd
 1605 0613 5B000000 		.4byte	0x5b
 1606 0617 15       		.byte	0x15
 1607 0618 00       		.byte	0
 1608 0619 12       		.uleb128 0x12
 1609 061a 13050000 		.4byte	0x513
 1610 061e 29060000 		.4byte	0x629
 1611 0622 13       		.uleb128 0x13
 1612 0623 2C000000 		.4byte	0x2c
 1613 0627 03       		.byte	0x3
 1614 0628 00       		.byte	0
 1615 0629 04       		.uleb128 0x4
 1616 062a E4010000 		.4byte	.LASF93
 1617 062e 0C       		.byte	0xc
 1618 062f 3A       		.byte	0x3a
 1619 0630 03       		.byte	0x3
 1620 0631 25050000 		.4byte	0x525
 1621 0635 11       		.uleb128 0x11
 1622 0636 29060000 		.4byte	0x629
 1623 063a 0E       		.uleb128 0xe
 1624 063b 71020000 		.4byte	.LASF94
 1625 063f 0C       		.byte	0xc
 1626 0640 77       		.byte	0x77
 1627 0641 1D       		.byte	0x1d
 1628 0642 35060000 		.4byte	0x635
 1629 0646 12       		.uleb128 0x12
 1630 0647 6A020000 		.4byte	0x26a
 1631 064b 56060000 		.4byte	0x656
 1632 064f 13       		.uleb128 0x13
 1633 0650 2C000000 		.4byte	0x2c
 1634 0654 26       		.byte	0x26
 1635 0655 00       		.byte	0
 1636 0656 0E       		.uleb128 0xe
 1637 0657 F6010000 		.4byte	.LASF95
 1638 065b 0D       		.byte	0xd
 1639 065c 82       		.byte	0x82
 1640 065d 08       		.byte	0x8
 1641 065e 46060000 		.4byte	0x646
 1642 0662 14       		.uleb128 0x14
 1643 0663 17030000 		.4byte	.LASF97
 1644 0667 01       		.byte	0x1
 1645 0668 0701     		.2byte	0x107
 1646 066a 07       		.byte	0x7
 1647 066b D7000000 		.4byte	0xd7
 1648 066f 00000000 		.4byte	.LFB15
 1649 0673 88000000 		.4byte	.LFE15-.LFB15
 1650 0677 01       		.uleb128 0x1
 1651 0678 9C       		.byte	0x9c
 1652 0679 46070000 		.4byte	0x746
 1653 067d 15       		.uleb128 0x15
ARM GAS  /tmp/ccTOBiaP.s 			page 30


 1654 067e 637000   		.ascii	"cp\000"
 1655 0681 01       		.byte	0x1
 1656 0682 0701     		.2byte	0x107
 1657 0684 23       		.byte	0x23
 1658 0685 46070000 		.4byte	0x746
 1659 0689 06000000 		.4byte	.LLST22
 1660 068d 00000000 		.4byte	.LVUS22
 1661 0691 16       		.uleb128 0x16
 1662 0692 65030000 		.4byte	.LASF96
 1663 0696 01       		.byte	0x1
 1664 0697 0701     		.2byte	0x107
 1665 0699 31       		.byte	0x31
 1666 069a EF000000 		.4byte	0xef
 1667 069e 36000000 		.4byte	.LLST23
 1668 06a2 32000000 		.4byte	.LVUS23
 1669 06a6 17       		.uleb128 0x17
 1670 06a7 6D7000   		.ascii	"mp\000"
 1671 06aa 01       		.byte	0x1
 1672 06ab 0801     		.2byte	0x108
 1673 06ad 0A       		.byte	0xa
 1674 06ae 1F050000 		.4byte	0x51f
 1675 06b2 58000000 		.4byte	.LLST24
 1676 06b6 54000000 		.4byte	.LVUS24
 1677 06ba 17       		.uleb128 0x17
 1678 06bb 6D736700 		.ascii	"msg\000"
 1679 06bf 01       		.byte	0x1
 1680 06c0 0901     		.2byte	0x109
 1681 06c2 09       		.byte	0x9
 1682 06c3 D7000000 		.4byte	0xd7
 1683 06c7 7A000000 		.4byte	.LLST25
 1684 06cb 76000000 		.4byte	.LVUS25
 1685 06cf 18       		.uleb128 0x18
 1686 06d0 C20A0000 		.4byte	0xac2
 1687 06d4 24000000 		.4byte	.LBI40
 1688 06d8 01       		.byte	.LVU203
 1689 06d9 80000000 		.4byte	.Ldebug_ranges0+0x80
 1690 06dd 01       		.byte	0x1
 1691 06de 1301     		.2byte	0x113
 1692 06e0 03       		.byte	0x3
 1693 06e1 13070000 		.4byte	0x713
 1694 06e5 19       		.uleb128 0x19
 1695 06e6 DA0A0000 		.4byte	0xada
 1696 06ea 9A000000 		.4byte	.LLST26
 1697 06ee 98000000 		.4byte	.LVUS26
 1698 06f2 19       		.uleb128 0x19
 1699 06f3 CF0A0000 		.4byte	0xacf
 1700 06f7 AF000000 		.4byte	.LLST27
 1701 06fb AD000000 		.4byte	.LVUS27
 1702 06ff 1A       		.uleb128 0x1a
 1703 0700 80000000 		.4byte	.Ldebug_ranges0+0x80
 1704 0704 1B       		.uleb128 0x1b
 1705 0705 E60A0000 		.4byte	0xae6
 1706 0709 C8000000 		.4byte	.LLST28
 1707 070d C2000000 		.4byte	.LVUS28
 1708 0711 00       		.byte	0
 1709 0712 00       		.byte	0
 1710 0713 1C       		.uleb128 0x1c
ARM GAS  /tmp/ccTOBiaP.s 			page 31


 1711 0714 10000000 		.4byte	.LVL39
 1712 0718 520B0000 		.4byte	0xb52
 1713 071c 1D       		.uleb128 0x1d
 1714 071d 68000000 		.4byte	.LVL47
 1715 0721 5E0B0000 		.4byte	0xb5e
 1716 0725 35070000 		.4byte	0x735
 1717 0729 1E       		.uleb128 0x1e
 1718 072a 01       		.uleb128 0x1
 1719 072b 50       		.byte	0x50
 1720 072c 01       		.uleb128 0x1
 1721 072d 35       		.byte	0x35
 1722 072e 1E       		.uleb128 0x1e
 1723 072f 01       		.uleb128 0x1
 1724 0730 51       		.byte	0x51
 1725 0731 02       		.uleb128 0x2
 1726 0732 76       		.byte	0x76
 1727 0733 00       		.sleb128 0
 1728 0734 00       		.byte	0
 1729 0735 1F       		.uleb128 0x1f
 1730 0736 7C000000 		.4byte	.LVL50
 1731 073a 6A0B0000 		.4byte	0xb6a
 1732 073e 1E       		.uleb128 0x1e
 1733 073f 01       		.uleb128 0x1
 1734 0740 50       		.byte	0x50
 1735 0741 02       		.uleb128 0x2
 1736 0742 75       		.byte	0x75
 1737 0743 00       		.sleb128 0
 1738 0744 00       		.byte	0
 1739 0745 00       		.byte	0
 1740 0746 0A       		.uleb128 0xa
 1741 0747 04       		.byte	0x4
 1742 0748 C7040000 		.4byte	0x4c7
 1743 074c 20       		.uleb128 0x20
 1744 074d 9E050000 		.4byte	.LASF98
 1745 0751 01       		.byte	0x1
 1746 0752 E2       		.byte	0xe2
 1747 0753 07       		.byte	0x7
 1748 0754 D7000000 		.4byte	0xd7
 1749 0758 00000000 		.4byte	.LFB14
 1750 075c 14000000 		.4byte	.LFE14-.LFB14
 1751 0760 01       		.uleb128 0x1
 1752 0761 9C       		.byte	0x9c
 1753 0762 BA070000 		.4byte	0x7ba
 1754 0766 21       		.uleb128 0x21
 1755 0767 637000   		.ascii	"cp\000"
 1756 076a 01       		.byte	0x1
 1757 076b E2       		.byte	0xe2
 1758 076c 22       		.byte	0x22
 1759 076d 46070000 		.4byte	0x746
 1760 0771 F6000000 		.4byte	.LLST29
 1761 0775 F2000000 		.4byte	.LVUS29
 1762 0779 22       		.uleb128 0x22
 1763 077a 65030000 		.4byte	.LASF96
 1764 077e 01       		.byte	0x1
 1765 077f E2       		.byte	0xe2
 1766 0780 30       		.byte	0x30
 1767 0781 EF000000 		.4byte	0xef
ARM GAS  /tmp/ccTOBiaP.s 			page 32


 1768 0785 1B010000 		.4byte	.LLST30
 1769 0789 17010000 		.4byte	.LVUS30
 1770 078d 23       		.uleb128 0x23
 1771 078e 6D736700 		.ascii	"msg\000"
 1772 0792 01       		.byte	0x1
 1773 0793 E3       		.byte	0xe3
 1774 0794 09       		.byte	0x9
 1775 0795 D7000000 		.4byte	0xd7
 1776 0799 3E010000 		.4byte	.LLST31
 1777 079d 3C010000 		.4byte	.LVUS31
 1778 07a1 1F       		.uleb128 0x1f
 1779 07a2 0C000000 		.4byte	.LVL52
 1780 07a6 62060000 		.4byte	0x662
 1781 07aa 1E       		.uleb128 0x1e
 1782 07ab 01       		.uleb128 0x1
 1783 07ac 50       		.byte	0x50
 1784 07ad 03       		.uleb128 0x3
 1785 07ae F3       		.byte	0xf3
 1786 07af 01       		.uleb128 0x1
 1787 07b0 50       		.byte	0x50
 1788 07b1 1E       		.uleb128 0x1e
 1789 07b2 01       		.uleb128 0x1
 1790 07b3 51       		.byte	0x51
 1791 07b4 03       		.uleb128 0x3
 1792 07b5 F3       		.byte	0xf3
 1793 07b6 01       		.uleb128 0x1
 1794 07b7 51       		.byte	0x51
 1795 07b8 00       		.byte	0
 1796 07b9 00       		.byte	0
 1797 07ba 20       		.uleb128 0x20
 1798 07bb F1040000 		.4byte	.LASF99
 1799 07bf 01       		.byte	0x1
 1800 07c0 B1       		.byte	0xb1
 1801 07c1 07       		.byte	0x7
 1802 07c2 D7000000 		.4byte	0xd7
 1803 07c6 00000000 		.4byte	.LFB13
 1804 07ca 78000000 		.4byte	.LFE13-.LFB13
 1805 07ce 01       		.uleb128 0x1
 1806 07cf 9C       		.byte	0x9c
 1807 07d0 92080000 		.4byte	0x892
 1808 07d4 21       		.uleb128 0x21
 1809 07d5 637000   		.ascii	"cp\000"
 1810 07d8 01       		.byte	0x1
 1811 07d9 B1       		.byte	0xb1
 1812 07da 1C       		.byte	0x1c
 1813 07db 46070000 		.4byte	0x746
 1814 07df 55010000 		.4byte	.LLST13
 1815 07e3 51010000 		.4byte	.LVUS13
 1816 07e7 23       		.uleb128 0x23
 1817 07e8 63747000 		.ascii	"ctp\000"
 1818 07ec 01       		.byte	0x1
 1819 07ed B2       		.byte	0xb2
 1820 07ee 0B       		.byte	0xb
 1821 07ef 35020000 		.4byte	0x235
 1822 07f3 75010000 		.4byte	.LLST14
 1823 07f7 73010000 		.4byte	.LVUS14
 1824 07fb 23       		.uleb128 0x23
ARM GAS  /tmp/ccTOBiaP.s 			page 33


 1825 07fc 6D7000   		.ascii	"mp\000"
 1826 07ff 01       		.byte	0x1
 1827 0800 B3       		.byte	0xb3
 1828 0801 0A       		.byte	0xa
 1829 0802 1F050000 		.4byte	0x51f
 1830 0806 8C010000 		.4byte	.LLST15
 1831 080a 88010000 		.4byte	.LVUS15
 1832 080e 23       		.uleb128 0x23
 1833 080f 6D736700 		.ascii	"msg\000"
 1834 0813 01       		.byte	0x1
 1835 0814 B4       		.byte	0xb4
 1836 0815 09       		.byte	0x9
 1837 0816 D7000000 		.4byte	0xd7
 1838 081a AC010000 		.4byte	.LLST16
 1839 081e AA010000 		.4byte	.LVUS16
 1840 0822 24       		.uleb128 0x24
 1841 0823 C20A0000 		.4byte	0xac2
 1842 0827 20000000 		.4byte	.LBI34
 1843 082b 01       		.byte	.LVU142
 1844 082c 60000000 		.4byte	.Ldebug_ranges0+0x60
 1845 0830 01       		.byte	0x1
 1846 0831 BE       		.byte	0xbe
 1847 0832 03       		.byte	0x3
 1848 0833 65080000 		.4byte	0x865
 1849 0837 19       		.uleb128 0x19
 1850 0838 DA0A0000 		.4byte	0xada
 1851 083c C1010000 		.4byte	.LLST17
 1852 0840 BF010000 		.4byte	.LVUS17
 1853 0844 19       		.uleb128 0x19
 1854 0845 CF0A0000 		.4byte	0xacf
 1855 0849 D6010000 		.4byte	.LLST18
 1856 084d D4010000 		.4byte	.LVUS18
 1857 0851 1A       		.uleb128 0x1a
 1858 0852 60000000 		.4byte	.Ldebug_ranges0+0x60
 1859 0856 1B       		.uleb128 0x1b
 1860 0857 E60A0000 		.4byte	0xae6
 1861 085b EF010000 		.4byte	.LLST19
 1862 085f E9010000 		.4byte	.LVUS19
 1863 0863 00       		.byte	0
 1864 0864 00       		.byte	0
 1865 0865 1C       		.uleb128 0x1c
 1866 0866 14000000 		.4byte	.LVL25
 1867 086a 520B0000 		.4byte	0xb52
 1868 086e 1D       		.uleb128 0x1d
 1869 086f 60000000 		.4byte	.LVL33
 1870 0873 760B0000 		.4byte	0xb76
 1871 0877 81080000 		.4byte	0x881
 1872 087b 1E       		.uleb128 0x1e
 1873 087c 01       		.uleb128 0x1
 1874 087d 50       		.byte	0x50
 1875 087e 01       		.uleb128 0x1
 1876 087f 35       		.byte	0x35
 1877 0880 00       		.byte	0
 1878 0881 1F       		.uleb128 0x1f
 1879 0882 6C000000 		.4byte	.LVL35
 1880 0886 6A0B0000 		.4byte	0xb6a
 1881 088a 1E       		.uleb128 0x1e
ARM GAS  /tmp/ccTOBiaP.s 			page 34


 1882 088b 01       		.uleb128 0x1
 1883 088c 50       		.byte	0x50
 1884 088d 02       		.uleb128 0x2
 1885 088e 76       		.byte	0x76
 1886 088f 00       		.sleb128 0
 1887 0890 00       		.byte	0
 1888 0891 00       		.byte	0
 1889 0892 20       		.uleb128 0x20
 1890 0893 2E050000 		.4byte	.LASF100
 1891 0897 01       		.byte	0x1
 1892 0898 97       		.byte	0x97
 1893 0899 07       		.byte	0x7
 1894 089a D7000000 		.4byte	0xd7
 1895 089e 00000000 		.4byte	.LFB12
 1896 08a2 14000000 		.4byte	.LFE12-.LFB12
 1897 08a6 01       		.uleb128 0x1
 1898 08a7 9C       		.byte	0x9c
 1899 08a8 E5080000 		.4byte	0x8e5
 1900 08ac 21       		.uleb128 0x21
 1901 08ad 637000   		.ascii	"cp\000"
 1902 08b0 01       		.byte	0x1
 1903 08b1 97       		.byte	0x97
 1904 08b2 1B       		.byte	0x1b
 1905 08b3 46070000 		.4byte	0x746
 1906 08b7 1D020000 		.4byte	.LLST20
 1907 08bb 19020000 		.4byte	.LVUS20
 1908 08bf 23       		.uleb128 0x23
 1909 08c0 6D736700 		.ascii	"msg\000"
 1910 08c4 01       		.byte	0x1
 1911 08c5 98       		.byte	0x98
 1912 08c6 09       		.byte	0x9
 1913 08c7 D7000000 		.4byte	0xd7
 1914 08cb 40020000 		.4byte	.LLST21
 1915 08cf 3E020000 		.4byte	.LVUS21
 1916 08d3 1F       		.uleb128 0x1f
 1917 08d4 0C000000 		.4byte	.LVL37
 1918 08d8 BA070000 		.4byte	0x7ba
 1919 08dc 1E       		.uleb128 0x1e
 1920 08dd 01       		.uleb128 0x1
 1921 08de 50       		.byte	0x50
 1922 08df 03       		.uleb128 0x3
 1923 08e0 F3       		.byte	0xf3
 1924 08e1 01       		.uleb128 0x1
 1925 08e2 50       		.byte	0x50
 1926 08e3 00       		.byte	0
 1927 08e4 00       		.byte	0
 1928 08e5 25       		.uleb128 0x25
 1929 08e6 2E010000 		.4byte	.LASF115
 1930 08ea 01       		.byte	0x1
 1931 08eb 7A       		.byte	0x7a
 1932 08ec 06       		.byte	0x6
 1933 08ed 01       		.byte	0x1
 1934 08ee FE080000 		.4byte	0x8fe
 1935 08f2 26       		.uleb128 0x26
 1936 08f3 637000   		.ascii	"cp\000"
 1937 08f6 01       		.byte	0x1
 1938 08f7 7A       		.byte	0x7a
ARM GAS  /tmp/ccTOBiaP.s 			page 35


 1939 08f8 20       		.byte	0x20
 1940 08f9 46070000 		.4byte	0x746
 1941 08fd 00       		.byte	0
 1942 08fe 27       		.uleb128 0x27
 1943 08ff 7C030000 		.4byte	.LASF101
 1944 0903 01       		.byte	0x1
 1945 0904 67       		.byte	0x67
 1946 0905 06       		.byte	0x6
 1947 0906 00000000 		.4byte	.LFB10
 1948 090a 4C000000 		.4byte	.LFE10-.LFB10
 1949 090e 01       		.uleb128 0x1
 1950 090f 9C       		.byte	0x9c
 1951 0910 97090000 		.4byte	0x997
 1952 0914 21       		.uleb128 0x21
 1953 0915 637000   		.ascii	"cp\000"
 1954 0918 01       		.byte	0x1
 1955 0919 67       		.byte	0x67
 1956 091a 1F       		.byte	0x1f
 1957 091b 46070000 		.4byte	0x746
 1958 091f 59020000 		.4byte	.LLST6
 1959 0923 53020000 		.4byte	.LVUS6
 1960 0927 28       		.uleb128 0x28
 1961 0928 E5080000 		.4byte	0x8e5
 1962 092c 08000000 		.4byte	.LBI24
 1963 0930 03       		.byte	.LVU66
 1964 0931 08000000 		.4byte	.LBB24
 1965 0935 38000000 		.4byte	.LBE24-.LBB24
 1966 0939 01       		.byte	0x1
 1967 093a 6A       		.byte	0x6a
 1968 093b 03       		.byte	0x3
 1969 093c 8D090000 		.4byte	0x98d
 1970 0940 19       		.uleb128 0x19
 1971 0941 F2080000 		.4byte	0x8f2
 1972 0945 89020000 		.4byte	.LLST7
 1973 0949 85020000 		.4byte	.LVUS7
 1974 094d 24       		.uleb128 0x24
 1975 094e 930A0000 		.4byte	0xa93
 1976 0952 1C000000 		.4byte	.LBI26
 1977 0956 01       		.byte	.LVU77
 1978 0957 30000000 		.4byte	.Ldebug_ranges0+0x30
 1979 095b 01       		.byte	0x1
 1980 095c 83       		.byte	0x83
 1981 095d 05       		.byte	0x5
 1982 095e 83090000 		.4byte	0x983
 1983 0962 19       		.uleb128 0x19
 1984 0963 A40A0000 		.4byte	0xaa4
 1985 0967 A9020000 		.4byte	.LLST8
 1986 096b A7020000 		.4byte	.LVUS8
 1987 096f 1A       		.uleb128 0x1a
 1988 0970 30000000 		.4byte	.Ldebug_ranges0+0x30
 1989 0974 1B       		.uleb128 0x1b
 1990 0975 B00A0000 		.4byte	0xab0
 1991 0979 BE020000 		.4byte	.LLST9
 1992 097d BC020000 		.4byte	.LVUS9
 1993 0981 00       		.byte	0
 1994 0982 00       		.byte	0
 1995 0983 1C       		.uleb128 0x1c
ARM GAS  /tmp/ccTOBiaP.s 			page 36


 1996 0984 30000000 		.4byte	.LVL16
 1997 0988 820B0000 		.4byte	0xb82
 1998 098c 00       		.byte	0
 1999 098d 1C       		.uleb128 0x1c
 2000 098e 44000000 		.4byte	.LVL18
 2001 0992 8E0B0000 		.4byte	0xb8e
 2002 0996 00       		.byte	0
 2003 0997 27       		.uleb128 0x27
 2004 0998 AE030000 		.4byte	.LASF102
 2005 099c 01       		.byte	0x1
 2006 099d 57       		.byte	0x57
 2007 099e 06       		.byte	0x6
 2008 099f 00000000 		.4byte	.LFB9
 2009 09a3 30000000 		.4byte	.LFE9-.LFB9
 2010 09a7 01       		.uleb128 0x1
 2011 09a8 9C       		.byte	0x9c
 2012 09a9 000A0000 		.4byte	0xa00
 2013 09ad 21       		.uleb128 0x21
 2014 09ae 637000   		.ascii	"cp\000"
 2015 09b1 01       		.byte	0x1
 2016 09b2 57       		.byte	0x57
 2017 09b3 1D       		.byte	0x1d
 2018 09b4 46070000 		.4byte	0x746
 2019 09b8 D7020000 		.4byte	.LLST3
 2020 09bc D1020000 		.4byte	.LVUS3
 2021 09c0 24       		.uleb128 0x24
 2022 09c1 930A0000 		.4byte	0xa93
 2023 09c5 10000000 		.4byte	.LBI20
 2024 09c9 01       		.byte	.LVU47
 2025 09ca 18000000 		.4byte	.Ldebug_ranges0+0x18
 2026 09ce 01       		.byte	0x1
 2027 09cf 5D       		.byte	0x5d
 2028 09d0 05       		.byte	0x5
 2029 09d1 F6090000 		.4byte	0x9f6
 2030 09d5 19       		.uleb128 0x19
 2031 09d6 A40A0000 		.4byte	0xaa4
 2032 09da 05030000 		.4byte	.LLST4
 2033 09de 03030000 		.4byte	.LVUS4
 2034 09e2 1A       		.uleb128 0x1a
 2035 09e3 18000000 		.4byte	.Ldebug_ranges0+0x18
 2036 09e7 1B       		.uleb128 0x1b
 2037 09e8 B00A0000 		.4byte	0xab0
 2038 09ec 1A030000 		.4byte	.LLST5
 2039 09f0 18030000 		.4byte	.LVUS5
 2040 09f4 00       		.byte	0
 2041 09f5 00       		.byte	0
 2042 09f6 1C       		.uleb128 0x1c
 2043 09f7 24000000 		.4byte	.LVL11
 2044 09fb 820B0000 		.4byte	0xb82
 2045 09ff 00       		.byte	0
 2046 0a00 27       		.uleb128 0x27
 2047 0a01 30020000 		.4byte	.LASF103
 2048 0a05 01       		.byte	0x1
 2049 0a06 42       		.byte	0x42
 2050 0a07 06       		.byte	0x6
 2051 0a08 00000000 		.4byte	.LFB8
 2052 0a0c 3C000000 		.4byte	.LFE8-.LFB8
ARM GAS  /tmp/ccTOBiaP.s 			page 37


 2053 0a10 01       		.uleb128 0x1
 2054 0a11 9C       		.byte	0x9c
 2055 0a12 6F0A0000 		.4byte	0xa6f
 2056 0a16 21       		.uleb128 0x21
 2057 0a17 637000   		.ascii	"cp\000"
 2058 0a1a 01       		.byte	0x1
 2059 0a1b 42       		.byte	0x42
 2060 0a1c 1C       		.byte	0x1c
 2061 0a1d 46070000 		.4byte	0x746
 2062 0a21 35030000 		.4byte	.LLST0
 2063 0a25 2D030000 		.4byte	.LVUS0
 2064 0a29 24       		.uleb128 0x24
 2065 0a2a 930A0000 		.4byte	0xa93
 2066 0a2e 14000000 		.4byte	.LBI16
 2067 0a32 01       		.byte	.LVU18
 2068 0a33 00000000 		.4byte	.Ldebug_ranges0+0
 2069 0a37 01       		.byte	0x1
 2070 0a38 48       		.byte	0x48
 2071 0a39 05       		.byte	0x5
 2072 0a3a 5F0A0000 		.4byte	0xa5f
 2073 0a3e 19       		.uleb128 0x19
 2074 0a3f A40A0000 		.4byte	0xaa4
 2075 0a43 6E030000 		.4byte	.LLST1
 2076 0a47 6C030000 		.4byte	.LVUS1
 2077 0a4b 1A       		.uleb128 0x1a
 2078 0a4c 00000000 		.4byte	.Ldebug_ranges0+0
 2079 0a50 1B       		.uleb128 0x1b
 2080 0a51 B00A0000 		.4byte	0xab0
 2081 0a55 83030000 		.4byte	.LLST2
 2082 0a59 81030000 		.4byte	.LVUS2
 2083 0a5d 00       		.byte	0
 2084 0a5e 00       		.byte	0
 2085 0a5f 1F       		.uleb128 0x1f
 2086 0a60 2C000000 		.4byte	.LVL5
 2087 0a64 9A0B0000 		.4byte	0xb9a
 2088 0a68 1E       		.uleb128 0x1e
 2089 0a69 01       		.uleb128 0x1
 2090 0a6a 51       		.byte	0x51
 2091 0a6b 01       		.uleb128 0x1
 2092 0a6c 30       		.byte	0x30
 2093 0a6d 00       		.byte	0
 2094 0a6e 00       		.byte	0
 2095 0a6f 27       		.uleb128 0x27
 2096 0a70 E7000000 		.4byte	.LASF104
 2097 0a74 01       		.byte	0x1
 2098 0a75 34       		.byte	0x34
 2099 0a76 06       		.byte	0x6
 2100 0a77 00000000 		.4byte	.LFB7
 2101 0a7b 0C000000 		.4byte	.LFE7-.LFB7
 2102 0a7f 01       		.uleb128 0x1
 2103 0a80 9C       		.byte	0x9c
 2104 0a81 930A0000 		.4byte	0xa93
 2105 0a85 29       		.uleb128 0x29
 2106 0a86 637000   		.ascii	"cp\000"
 2107 0a89 01       		.byte	0x1
 2108 0a8a 34       		.byte	0x34
 2109 0a8b 1A       		.byte	0x1a
ARM GAS  /tmp/ccTOBiaP.s 			page 38


 2110 0a8c 46070000 		.4byte	0x746
 2111 0a90 01       		.uleb128 0x1
 2112 0a91 50       		.byte	0x50
 2113 0a92 00       		.byte	0
 2114 0a93 2A       		.uleb128 0x2a
 2115 0a94 E5040000 		.4byte	.LASF116
 2116 0a98 02       		.byte	0x2
 2117 0a99 34       		.byte	0x34
 2118 0a9a 17       		.byte	0x17
 2119 0a9b 35020000 		.4byte	0x235
 2120 0a9f 03       		.byte	0x3
 2121 0aa0 BC0A0000 		.4byte	0xabc
 2122 0aa4 26       		.uleb128 0x26
 2123 0aa5 74717000 		.ascii	"tqp\000"
 2124 0aa9 02       		.byte	0x2
 2125 0aaa 34       		.byte	0x34
 2126 0aab 31       		.byte	0x31
 2127 0aac BC0A0000 		.4byte	0xabc
 2128 0ab0 2B       		.uleb128 0x2b
 2129 0ab1 747000   		.ascii	"tp\000"
 2130 0ab4 02       		.byte	0x2
 2131 0ab5 35       		.byte	0x35
 2132 0ab6 0B       		.byte	0xb
 2133 0ab7 35020000 		.4byte	0x235
 2134 0abb 00       		.byte	0
 2135 0abc 0A       		.uleb128 0xa
 2136 0abd 04       		.byte	0x4
 2137 0abe 3B020000 		.4byte	0x23b
 2138 0ac2 2C       		.uleb128 0x2c
 2139 0ac3 B6020000 		.4byte	.LASF117
 2140 0ac7 02       		.byte	0x2
 2141 0ac8 22       		.byte	0x22
 2142 0ac9 14       		.byte	0x14
 2143 0aca 03       		.byte	0x3
 2144 0acb F20A0000 		.4byte	0xaf2
 2145 0acf 26       		.uleb128 0x26
 2146 0ad0 747000   		.ascii	"tp\000"
 2147 0ad3 02       		.byte	0x2
 2148 0ad4 22       		.byte	0x22
 2149 0ad5 28       		.byte	0x28
 2150 0ad6 35020000 		.4byte	0x235
 2151 0ada 26       		.uleb128 0x26
 2152 0adb 74717000 		.ascii	"tqp\000"
 2153 0adf 02       		.byte	0x2
 2154 0ae0 22       		.byte	0x22
 2155 0ae1 3A       		.byte	0x3a
 2156 0ae2 BC0A0000 		.4byte	0xabc
 2157 0ae6 2B       		.uleb128 0x2b
 2158 0ae7 637000   		.ascii	"cp\000"
 2159 0aea 02       		.byte	0x2
 2160 0aeb 24       		.byte	0x24
 2161 0aec 0B       		.byte	0xb
 2162 0aed 35020000 		.4byte	0x235
 2163 0af1 00       		.byte	0
 2164 0af2 2D       		.uleb128 0x2d
 2165 0af3 E5080000 		.4byte	0x8e5
 2166 0af7 00000000 		.4byte	.LFB11
ARM GAS  /tmp/ccTOBiaP.s 			page 39


 2167 0afb 40000000 		.4byte	.LFE11-.LFB11
 2168 0aff 01       		.uleb128 0x1
 2169 0b00 9C       		.byte	0x9c
 2170 0b01 520B0000 		.4byte	0xb52
 2171 0b05 19       		.uleb128 0x19
 2172 0b06 F2080000 		.4byte	0x8f2
 2173 0b0a 9A030000 		.4byte	.LLST10
 2174 0b0e 96030000 		.4byte	.LVUS10
 2175 0b12 24       		.uleb128 0x24
 2176 0b13 930A0000 		.4byte	0xa93
 2177 0b17 18000000 		.4byte	.LBI30
 2178 0b1b 01       		.byte	.LVU108
 2179 0b1c 48000000 		.4byte	.Ldebug_ranges0+0x48
 2180 0b20 01       		.byte	0x1
 2181 0b21 83       		.byte	0x83
 2182 0b22 05       		.byte	0x5
 2183 0b23 480B0000 		.4byte	0xb48
 2184 0b27 19       		.uleb128 0x19
 2185 0b28 A40A0000 		.4byte	0xaa4
 2186 0b2c BA030000 		.4byte	.LLST11
 2187 0b30 B8030000 		.4byte	.LVUS11
 2188 0b34 1A       		.uleb128 0x1a
 2189 0b35 48000000 		.4byte	.Ldebug_ranges0+0x48
 2190 0b39 1B       		.uleb128 0x1b
 2191 0b3a B00A0000 		.4byte	0xab0
 2192 0b3e CF030000 		.4byte	.LLST12
 2193 0b42 CD030000 		.4byte	.LVUS12
 2194 0b46 00       		.byte	0
 2195 0b47 00       		.byte	0
 2196 0b48 1C       		.uleb128 0x1c
 2197 0b49 2C000000 		.4byte	.LVL22
 2198 0b4d 820B0000 		.4byte	0xb82
 2199 0b51 00       		.byte	0
 2200 0b52 2E       		.uleb128 0x2e
 2201 0b53 3D020000 		.4byte	.LASF105
 2202 0b57 3D020000 		.4byte	.LASF105
 2203 0b5b 0A       		.byte	0xa
 2204 0b5c 37       		.byte	0x37
 2205 0b5d 0A       		.byte	0xa
 2206 0b5e 2E       		.uleb128 0x2e
 2207 0b5f BB050000 		.4byte	.LASF106
 2208 0b63 BB050000 		.4byte	.LASF106
 2209 0b67 09       		.byte	0x9
 2210 0b68 8F       		.byte	0x8f
 2211 0b69 09       		.byte	0x9
 2212 0b6a 2E       		.uleb128 0x2e
 2213 0b6b D0010000 		.4byte	.LASF107
 2214 0b6f D0010000 		.4byte	.LASF107
 2215 0b73 0A       		.byte	0xa
 2216 0b74 33       		.byte	0x33
 2217 0b75 08       		.byte	0x8
 2218 0b76 2E       		.uleb128 0x2e
 2219 0b77 3F040000 		.4byte	.LASF108
 2220 0b7b 3F040000 		.4byte	.LASF108
 2221 0b7f 09       		.byte	0x9
 2222 0b80 8C       		.byte	0x8c
 2223 0b81 08       		.byte	0x8
ARM GAS  /tmp/ccTOBiaP.s 			page 40


 2224 0b82 2E       		.uleb128 0x2e
 2225 0b83 FD040000 		.4byte	.LASF109
 2226 0b87 FD040000 		.4byte	.LASF109
 2227 0b8b 09       		.byte	0x9
 2228 0b8c 89       		.byte	0x89
 2229 0b8d 0B       		.byte	0xb
 2230 0b8e 2E       		.uleb128 0x2e
 2231 0b8f 06020000 		.4byte	.LASF110
 2232 0b93 06020000 		.4byte	.LASF110
 2233 0b97 09       		.byte	0x9
 2234 0b98 95       		.byte	0x95
 2235 0b99 08       		.byte	0x8
 2236 0b9a 2E       		.uleb128 0x2e
 2237 0b9b A3020000 		.4byte	.LASF111
 2238 0b9f A3020000 		.4byte	.LASF111
 2239 0ba3 09       		.byte	0x9
 2240 0ba4 92       		.byte	0x92
 2241 0ba5 08       		.byte	0x8
 2242 0ba6 00       		.byte	0
 2243              		.section	.debug_abbrev,"",%progbits
 2244              	.Ldebug_abbrev0:
 2245 0000 01       		.uleb128 0x1
 2246 0001 11       		.uleb128 0x11
 2247 0002 01       		.byte	0x1
 2248 0003 25       		.uleb128 0x25
 2249 0004 0E       		.uleb128 0xe
 2250 0005 13       		.uleb128 0x13
 2251 0006 0B       		.uleb128 0xb
 2252 0007 03       		.uleb128 0x3
 2253 0008 0E       		.uleb128 0xe
 2254 0009 1B       		.uleb128 0x1b
 2255 000a 0E       		.uleb128 0xe
 2256 000b 55       		.uleb128 0x55
 2257 000c 17       		.uleb128 0x17
 2258 000d 11       		.uleb128 0x11
 2259 000e 01       		.uleb128 0x1
 2260 000f 10       		.uleb128 0x10
 2261 0010 17       		.uleb128 0x17
 2262 0011 00       		.byte	0
 2263 0012 00       		.byte	0
 2264 0013 02       		.uleb128 0x2
 2265 0014 24       		.uleb128 0x24
 2266 0015 00       		.byte	0
 2267 0016 0B       		.uleb128 0xb
 2268 0017 0B       		.uleb128 0xb
 2269 0018 3E       		.uleb128 0x3e
 2270 0019 0B       		.uleb128 0xb
 2271 001a 03       		.uleb128 0x3
 2272 001b 08       		.uleb128 0x8
 2273 001c 00       		.byte	0
 2274 001d 00       		.byte	0
 2275 001e 03       		.uleb128 0x3
 2276 001f 24       		.uleb128 0x24
 2277 0020 00       		.byte	0
 2278 0021 0B       		.uleb128 0xb
 2279 0022 0B       		.uleb128 0xb
 2280 0023 3E       		.uleb128 0x3e
ARM GAS  /tmp/ccTOBiaP.s 			page 41


 2281 0024 0B       		.uleb128 0xb
 2282 0025 03       		.uleb128 0x3
 2283 0026 0E       		.uleb128 0xe
 2284 0027 00       		.byte	0
 2285 0028 00       		.byte	0
 2286 0029 04       		.uleb128 0x4
 2287 002a 16       		.uleb128 0x16
 2288 002b 00       		.byte	0
 2289 002c 03       		.uleb128 0x3
 2290 002d 0E       		.uleb128 0xe
 2291 002e 3A       		.uleb128 0x3a
 2292 002f 0B       		.uleb128 0xb
 2293 0030 3B       		.uleb128 0x3b
 2294 0031 0B       		.uleb128 0xb
 2295 0032 39       		.uleb128 0x39
 2296 0033 0B       		.uleb128 0xb
 2297 0034 49       		.uleb128 0x49
 2298 0035 13       		.uleb128 0x13
 2299 0036 00       		.byte	0
 2300 0037 00       		.byte	0
 2301 0038 05       		.uleb128 0x5
 2302 0039 35       		.uleb128 0x35
 2303 003a 00       		.byte	0
 2304 003b 49       		.uleb128 0x49
 2305 003c 13       		.uleb128 0x13
 2306 003d 00       		.byte	0
 2307 003e 00       		.byte	0
 2308 003f 06       		.uleb128 0x6
 2309 0040 13       		.uleb128 0x13
 2310 0041 01       		.byte	0x1
 2311 0042 03       		.uleb128 0x3
 2312 0043 0E       		.uleb128 0xe
 2313 0044 0B       		.uleb128 0xb
 2314 0045 0B       		.uleb128 0xb
 2315 0046 3A       		.uleb128 0x3a
 2316 0047 0B       		.uleb128 0xb
 2317 0048 3B       		.uleb128 0x3b
 2318 0049 0B       		.uleb128 0xb
 2319 004a 39       		.uleb128 0x39
 2320 004b 0B       		.uleb128 0xb
 2321 004c 01       		.uleb128 0x1
 2322 004d 13       		.uleb128 0x13
 2323 004e 00       		.byte	0
 2324 004f 00       		.byte	0
 2325 0050 07       		.uleb128 0x7
 2326 0051 0D       		.uleb128 0xd
 2327 0052 00       		.byte	0
 2328 0053 03       		.uleb128 0x3
 2329 0054 0E       		.uleb128 0xe
 2330 0055 3A       		.uleb128 0x3a
 2331 0056 0B       		.uleb128 0xb
 2332 0057 3B       		.uleb128 0x3b
 2333 0058 0B       		.uleb128 0xb
 2334 0059 39       		.uleb128 0x39
 2335 005a 0B       		.uleb128 0xb
 2336 005b 49       		.uleb128 0x49
 2337 005c 13       		.uleb128 0x13
ARM GAS  /tmp/ccTOBiaP.s 			page 42


 2338 005d 38       		.uleb128 0x38
 2339 005e 0B       		.uleb128 0xb
 2340 005f 00       		.byte	0
 2341 0060 00       		.byte	0
 2342 0061 08       		.uleb128 0x8
 2343 0062 0D       		.uleb128 0xd
 2344 0063 00       		.byte	0
 2345 0064 03       		.uleb128 0x3
 2346 0065 08       		.uleb128 0x8
 2347 0066 3A       		.uleb128 0x3a
 2348 0067 0B       		.uleb128 0xb
 2349 0068 3B       		.uleb128 0x3b
 2350 0069 0B       		.uleb128 0xb
 2351 006a 39       		.uleb128 0x39
 2352 006b 0B       		.uleb128 0xb
 2353 006c 49       		.uleb128 0x49
 2354 006d 13       		.uleb128 0x13
 2355 006e 38       		.uleb128 0x38
 2356 006f 0B       		.uleb128 0xb
 2357 0070 00       		.byte	0
 2358 0071 00       		.byte	0
 2359 0072 09       		.uleb128 0x9
 2360 0073 13       		.uleb128 0x13
 2361 0074 01       		.byte	0x1
 2362 0075 0B       		.uleb128 0xb
 2363 0076 0B       		.uleb128 0xb
 2364 0077 3A       		.uleb128 0x3a
 2365 0078 0B       		.uleb128 0xb
 2366 0079 3B       		.uleb128 0x3b
 2367 007a 0B       		.uleb128 0xb
 2368 007b 39       		.uleb128 0x39
 2369 007c 0B       		.uleb128 0xb
 2370 007d 01       		.uleb128 0x1
 2371 007e 13       		.uleb128 0x13
 2372 007f 00       		.byte	0
 2373 0080 00       		.byte	0
 2374 0081 0A       		.uleb128 0xa
 2375 0082 0F       		.uleb128 0xf
 2376 0083 00       		.byte	0
 2377 0084 0B       		.uleb128 0xb
 2378 0085 0B       		.uleb128 0xb
 2379 0086 49       		.uleb128 0x49
 2380 0087 13       		.uleb128 0x13
 2381 0088 00       		.byte	0
 2382 0089 00       		.byte	0
 2383 008a 0B       		.uleb128 0xb
 2384 008b 0F       		.uleb128 0xf
 2385 008c 00       		.byte	0
 2386 008d 0B       		.uleb128 0xb
 2387 008e 0B       		.uleb128 0xb
 2388 008f 00       		.byte	0
 2389 0090 00       		.byte	0
 2390 0091 0C       		.uleb128 0xc
 2391 0092 15       		.uleb128 0x15
 2392 0093 01       		.byte	0x1
 2393 0094 27       		.uleb128 0x27
 2394 0095 19       		.uleb128 0x19
ARM GAS  /tmp/ccTOBiaP.s 			page 43


 2395 0096 01       		.uleb128 0x1
 2396 0097 13       		.uleb128 0x13
 2397 0098 00       		.byte	0
 2398 0099 00       		.byte	0
 2399 009a 0D       		.uleb128 0xd
 2400 009b 05       		.uleb128 0x5
 2401 009c 00       		.byte	0
 2402 009d 49       		.uleb128 0x49
 2403 009e 13       		.uleb128 0x13
 2404 009f 00       		.byte	0
 2405 00a0 00       		.byte	0
 2406 00a1 0E       		.uleb128 0xe
 2407 00a2 34       		.uleb128 0x34
 2408 00a3 00       		.byte	0
 2409 00a4 03       		.uleb128 0x3
 2410 00a5 0E       		.uleb128 0xe
 2411 00a6 3A       		.uleb128 0x3a
 2412 00a7 0B       		.uleb128 0xb
 2413 00a8 3B       		.uleb128 0x3b
 2414 00a9 0B       		.uleb128 0xb
 2415 00aa 39       		.uleb128 0x39
 2416 00ab 0B       		.uleb128 0xb
 2417 00ac 49       		.uleb128 0x49
 2418 00ad 13       		.uleb128 0x13
 2419 00ae 3F       		.uleb128 0x3f
 2420 00af 19       		.uleb128 0x19
 2421 00b0 3C       		.uleb128 0x3c
 2422 00b1 19       		.uleb128 0x19
 2423 00b2 00       		.byte	0
 2424 00b3 00       		.byte	0
 2425 00b4 0F       		.uleb128 0xf
 2426 00b5 17       		.uleb128 0x17
 2427 00b6 01       		.byte	0x1
 2428 00b7 0B       		.uleb128 0xb
 2429 00b8 0B       		.uleb128 0xb
 2430 00b9 3A       		.uleb128 0x3a
 2431 00ba 0B       		.uleb128 0xb
 2432 00bb 3B       		.uleb128 0x3b
 2433 00bc 0B       		.uleb128 0xb
 2434 00bd 39       		.uleb128 0x39
 2435 00be 0B       		.uleb128 0xb
 2436 00bf 01       		.uleb128 0x1
 2437 00c0 13       		.uleb128 0x13
 2438 00c1 00       		.byte	0
 2439 00c2 00       		.byte	0
 2440 00c3 10       		.uleb128 0x10
 2441 00c4 0D       		.uleb128 0xd
 2442 00c5 00       		.byte	0
 2443 00c6 03       		.uleb128 0x3
 2444 00c7 0E       		.uleb128 0xe
 2445 00c8 3A       		.uleb128 0x3a
 2446 00c9 0B       		.uleb128 0xb
 2447 00ca 3B       		.uleb128 0x3b
 2448 00cb 0B       		.uleb128 0xb
 2449 00cc 39       		.uleb128 0x39
 2450 00cd 0B       		.uleb128 0xb
 2451 00ce 49       		.uleb128 0x49
ARM GAS  /tmp/ccTOBiaP.s 			page 44


 2452 00cf 13       		.uleb128 0x13
 2453 00d0 00       		.byte	0
 2454 00d1 00       		.byte	0
 2455 00d2 11       		.uleb128 0x11
 2456 00d3 26       		.uleb128 0x26
 2457 00d4 00       		.byte	0
 2458 00d5 49       		.uleb128 0x49
 2459 00d6 13       		.uleb128 0x13
 2460 00d7 00       		.byte	0
 2461 00d8 00       		.byte	0
 2462 00d9 12       		.uleb128 0x12
 2463 00da 01       		.uleb128 0x1
 2464 00db 01       		.byte	0x1
 2465 00dc 49       		.uleb128 0x49
 2466 00dd 13       		.uleb128 0x13
 2467 00de 01       		.uleb128 0x1
 2468 00df 13       		.uleb128 0x13
 2469 00e0 00       		.byte	0
 2470 00e1 00       		.byte	0
 2471 00e2 13       		.uleb128 0x13
 2472 00e3 21       		.uleb128 0x21
 2473 00e4 00       		.byte	0
 2474 00e5 49       		.uleb128 0x49
 2475 00e6 13       		.uleb128 0x13
 2476 00e7 2F       		.uleb128 0x2f
 2477 00e8 0B       		.uleb128 0xb
 2478 00e9 00       		.byte	0
 2479 00ea 00       		.byte	0
 2480 00eb 14       		.uleb128 0x14
 2481 00ec 2E       		.uleb128 0x2e
 2482 00ed 01       		.byte	0x1
 2483 00ee 3F       		.uleb128 0x3f
 2484 00ef 19       		.uleb128 0x19
 2485 00f0 03       		.uleb128 0x3
 2486 00f1 0E       		.uleb128 0xe
 2487 00f2 3A       		.uleb128 0x3a
 2488 00f3 0B       		.uleb128 0xb
 2489 00f4 3B       		.uleb128 0x3b
 2490 00f5 05       		.uleb128 0x5
 2491 00f6 39       		.uleb128 0x39
 2492 00f7 0B       		.uleb128 0xb
 2493 00f8 27       		.uleb128 0x27
 2494 00f9 19       		.uleb128 0x19
 2495 00fa 49       		.uleb128 0x49
 2496 00fb 13       		.uleb128 0x13
 2497 00fc 11       		.uleb128 0x11
 2498 00fd 01       		.uleb128 0x1
 2499 00fe 12       		.uleb128 0x12
 2500 00ff 06       		.uleb128 0x6
 2501 0100 40       		.uleb128 0x40
 2502 0101 18       		.uleb128 0x18
 2503 0102 9742     		.uleb128 0x2117
 2504 0104 19       		.uleb128 0x19
 2505 0105 01       		.uleb128 0x1
 2506 0106 13       		.uleb128 0x13
 2507 0107 00       		.byte	0
 2508 0108 00       		.byte	0
ARM GAS  /tmp/ccTOBiaP.s 			page 45


 2509 0109 15       		.uleb128 0x15
 2510 010a 05       		.uleb128 0x5
 2511 010b 00       		.byte	0
 2512 010c 03       		.uleb128 0x3
 2513 010d 08       		.uleb128 0x8
 2514 010e 3A       		.uleb128 0x3a
 2515 010f 0B       		.uleb128 0xb
 2516 0110 3B       		.uleb128 0x3b
 2517 0111 05       		.uleb128 0x5
 2518 0112 39       		.uleb128 0x39
 2519 0113 0B       		.uleb128 0xb
 2520 0114 49       		.uleb128 0x49
 2521 0115 13       		.uleb128 0x13
 2522 0116 02       		.uleb128 0x2
 2523 0117 17       		.uleb128 0x17
 2524 0118 B742     		.uleb128 0x2137
 2525 011a 17       		.uleb128 0x17
 2526 011b 00       		.byte	0
 2527 011c 00       		.byte	0
 2528 011d 16       		.uleb128 0x16
 2529 011e 05       		.uleb128 0x5
 2530 011f 00       		.byte	0
 2531 0120 03       		.uleb128 0x3
 2532 0121 0E       		.uleb128 0xe
 2533 0122 3A       		.uleb128 0x3a
 2534 0123 0B       		.uleb128 0xb
 2535 0124 3B       		.uleb128 0x3b
 2536 0125 05       		.uleb128 0x5
 2537 0126 39       		.uleb128 0x39
 2538 0127 0B       		.uleb128 0xb
 2539 0128 49       		.uleb128 0x49
 2540 0129 13       		.uleb128 0x13
 2541 012a 02       		.uleb128 0x2
 2542 012b 17       		.uleb128 0x17
 2543 012c B742     		.uleb128 0x2137
 2544 012e 17       		.uleb128 0x17
 2545 012f 00       		.byte	0
 2546 0130 00       		.byte	0
 2547 0131 17       		.uleb128 0x17
 2548 0132 34       		.uleb128 0x34
 2549 0133 00       		.byte	0
 2550 0134 03       		.uleb128 0x3
 2551 0135 08       		.uleb128 0x8
 2552 0136 3A       		.uleb128 0x3a
 2553 0137 0B       		.uleb128 0xb
 2554 0138 3B       		.uleb128 0x3b
 2555 0139 05       		.uleb128 0x5
 2556 013a 39       		.uleb128 0x39
 2557 013b 0B       		.uleb128 0xb
 2558 013c 49       		.uleb128 0x49
 2559 013d 13       		.uleb128 0x13
 2560 013e 02       		.uleb128 0x2
 2561 013f 17       		.uleb128 0x17
 2562 0140 B742     		.uleb128 0x2137
 2563 0142 17       		.uleb128 0x17
 2564 0143 00       		.byte	0
 2565 0144 00       		.byte	0
ARM GAS  /tmp/ccTOBiaP.s 			page 46


 2566 0145 18       		.uleb128 0x18
 2567 0146 1D       		.uleb128 0x1d
 2568 0147 01       		.byte	0x1
 2569 0148 31       		.uleb128 0x31
 2570 0149 13       		.uleb128 0x13
 2571 014a 52       		.uleb128 0x52
 2572 014b 01       		.uleb128 0x1
 2573 014c B842     		.uleb128 0x2138
 2574 014e 0B       		.uleb128 0xb
 2575 014f 55       		.uleb128 0x55
 2576 0150 17       		.uleb128 0x17
 2577 0151 58       		.uleb128 0x58
 2578 0152 0B       		.uleb128 0xb
 2579 0153 59       		.uleb128 0x59
 2580 0154 05       		.uleb128 0x5
 2581 0155 57       		.uleb128 0x57
 2582 0156 0B       		.uleb128 0xb
 2583 0157 01       		.uleb128 0x1
 2584 0158 13       		.uleb128 0x13
 2585 0159 00       		.byte	0
 2586 015a 00       		.byte	0
 2587 015b 19       		.uleb128 0x19
 2588 015c 05       		.uleb128 0x5
 2589 015d 00       		.byte	0
 2590 015e 31       		.uleb128 0x31
 2591 015f 13       		.uleb128 0x13
 2592 0160 02       		.uleb128 0x2
 2593 0161 17       		.uleb128 0x17
 2594 0162 B742     		.uleb128 0x2137
 2595 0164 17       		.uleb128 0x17
 2596 0165 00       		.byte	0
 2597 0166 00       		.byte	0
 2598 0167 1A       		.uleb128 0x1a
 2599 0168 0B       		.uleb128 0xb
 2600 0169 01       		.byte	0x1
 2601 016a 55       		.uleb128 0x55
 2602 016b 17       		.uleb128 0x17
 2603 016c 00       		.byte	0
 2604 016d 00       		.byte	0
 2605 016e 1B       		.uleb128 0x1b
 2606 016f 34       		.uleb128 0x34
 2607 0170 00       		.byte	0
 2608 0171 31       		.uleb128 0x31
 2609 0172 13       		.uleb128 0x13
 2610 0173 02       		.uleb128 0x2
 2611 0174 17       		.uleb128 0x17
 2612 0175 B742     		.uleb128 0x2137
 2613 0177 17       		.uleb128 0x17
 2614 0178 00       		.byte	0
 2615 0179 00       		.byte	0
 2616 017a 1C       		.uleb128 0x1c
 2617 017b 898201   		.uleb128 0x4109
 2618 017e 00       		.byte	0
 2619 017f 11       		.uleb128 0x11
 2620 0180 01       		.uleb128 0x1
 2621 0181 31       		.uleb128 0x31
 2622 0182 13       		.uleb128 0x13
ARM GAS  /tmp/ccTOBiaP.s 			page 47


 2623 0183 00       		.byte	0
 2624 0184 00       		.byte	0
 2625 0185 1D       		.uleb128 0x1d
 2626 0186 898201   		.uleb128 0x4109
 2627 0189 01       		.byte	0x1
 2628 018a 11       		.uleb128 0x11
 2629 018b 01       		.uleb128 0x1
 2630 018c 31       		.uleb128 0x31
 2631 018d 13       		.uleb128 0x13
 2632 018e 01       		.uleb128 0x1
 2633 018f 13       		.uleb128 0x13
 2634 0190 00       		.byte	0
 2635 0191 00       		.byte	0
 2636 0192 1E       		.uleb128 0x1e
 2637 0193 8A8201   		.uleb128 0x410a
 2638 0196 00       		.byte	0
 2639 0197 02       		.uleb128 0x2
 2640 0198 18       		.uleb128 0x18
 2641 0199 9142     		.uleb128 0x2111
 2642 019b 18       		.uleb128 0x18
 2643 019c 00       		.byte	0
 2644 019d 00       		.byte	0
 2645 019e 1F       		.uleb128 0x1f
 2646 019f 898201   		.uleb128 0x4109
 2647 01a2 01       		.byte	0x1
 2648 01a3 11       		.uleb128 0x11
 2649 01a4 01       		.uleb128 0x1
 2650 01a5 31       		.uleb128 0x31
 2651 01a6 13       		.uleb128 0x13
 2652 01a7 00       		.byte	0
 2653 01a8 00       		.byte	0
 2654 01a9 20       		.uleb128 0x20
 2655 01aa 2E       		.uleb128 0x2e
 2656 01ab 01       		.byte	0x1
 2657 01ac 3F       		.uleb128 0x3f
 2658 01ad 19       		.uleb128 0x19
 2659 01ae 03       		.uleb128 0x3
 2660 01af 0E       		.uleb128 0xe
 2661 01b0 3A       		.uleb128 0x3a
 2662 01b1 0B       		.uleb128 0xb
 2663 01b2 3B       		.uleb128 0x3b
 2664 01b3 0B       		.uleb128 0xb
 2665 01b4 39       		.uleb128 0x39
 2666 01b5 0B       		.uleb128 0xb
 2667 01b6 27       		.uleb128 0x27
 2668 01b7 19       		.uleb128 0x19
 2669 01b8 49       		.uleb128 0x49
 2670 01b9 13       		.uleb128 0x13
 2671 01ba 11       		.uleb128 0x11
 2672 01bb 01       		.uleb128 0x1
 2673 01bc 12       		.uleb128 0x12
 2674 01bd 06       		.uleb128 0x6
 2675 01be 40       		.uleb128 0x40
 2676 01bf 18       		.uleb128 0x18
 2677 01c0 9742     		.uleb128 0x2117
 2678 01c2 19       		.uleb128 0x19
 2679 01c3 01       		.uleb128 0x1
ARM GAS  /tmp/ccTOBiaP.s 			page 48


 2680 01c4 13       		.uleb128 0x13
 2681 01c5 00       		.byte	0
 2682 01c6 00       		.byte	0
 2683 01c7 21       		.uleb128 0x21
 2684 01c8 05       		.uleb128 0x5
 2685 01c9 00       		.byte	0
 2686 01ca 03       		.uleb128 0x3
 2687 01cb 08       		.uleb128 0x8
 2688 01cc 3A       		.uleb128 0x3a
 2689 01cd 0B       		.uleb128 0xb
 2690 01ce 3B       		.uleb128 0x3b
 2691 01cf 0B       		.uleb128 0xb
 2692 01d0 39       		.uleb128 0x39
 2693 01d1 0B       		.uleb128 0xb
 2694 01d2 49       		.uleb128 0x49
 2695 01d3 13       		.uleb128 0x13
 2696 01d4 02       		.uleb128 0x2
 2697 01d5 17       		.uleb128 0x17
 2698 01d6 B742     		.uleb128 0x2137
 2699 01d8 17       		.uleb128 0x17
 2700 01d9 00       		.byte	0
 2701 01da 00       		.byte	0
 2702 01db 22       		.uleb128 0x22
 2703 01dc 05       		.uleb128 0x5
 2704 01dd 00       		.byte	0
 2705 01de 03       		.uleb128 0x3
 2706 01df 0E       		.uleb128 0xe
 2707 01e0 3A       		.uleb128 0x3a
 2708 01e1 0B       		.uleb128 0xb
 2709 01e2 3B       		.uleb128 0x3b
 2710 01e3 0B       		.uleb128 0xb
 2711 01e4 39       		.uleb128 0x39
 2712 01e5 0B       		.uleb128 0xb
 2713 01e6 49       		.uleb128 0x49
 2714 01e7 13       		.uleb128 0x13
 2715 01e8 02       		.uleb128 0x2
 2716 01e9 17       		.uleb128 0x17
 2717 01ea B742     		.uleb128 0x2137
 2718 01ec 17       		.uleb128 0x17
 2719 01ed 00       		.byte	0
 2720 01ee 00       		.byte	0
 2721 01ef 23       		.uleb128 0x23
 2722 01f0 34       		.uleb128 0x34
 2723 01f1 00       		.byte	0
 2724 01f2 03       		.uleb128 0x3
 2725 01f3 08       		.uleb128 0x8
 2726 01f4 3A       		.uleb128 0x3a
 2727 01f5 0B       		.uleb128 0xb
 2728 01f6 3B       		.uleb128 0x3b
 2729 01f7 0B       		.uleb128 0xb
 2730 01f8 39       		.uleb128 0x39
 2731 01f9 0B       		.uleb128 0xb
 2732 01fa 49       		.uleb128 0x49
 2733 01fb 13       		.uleb128 0x13
 2734 01fc 02       		.uleb128 0x2
 2735 01fd 17       		.uleb128 0x17
 2736 01fe B742     		.uleb128 0x2137
ARM GAS  /tmp/ccTOBiaP.s 			page 49


 2737 0200 17       		.uleb128 0x17
 2738 0201 00       		.byte	0
 2739 0202 00       		.byte	0
 2740 0203 24       		.uleb128 0x24
 2741 0204 1D       		.uleb128 0x1d
 2742 0205 01       		.byte	0x1
 2743 0206 31       		.uleb128 0x31
 2744 0207 13       		.uleb128 0x13
 2745 0208 52       		.uleb128 0x52
 2746 0209 01       		.uleb128 0x1
 2747 020a B842     		.uleb128 0x2138
 2748 020c 0B       		.uleb128 0xb
 2749 020d 55       		.uleb128 0x55
 2750 020e 17       		.uleb128 0x17
 2751 020f 58       		.uleb128 0x58
 2752 0210 0B       		.uleb128 0xb
 2753 0211 59       		.uleb128 0x59
 2754 0212 0B       		.uleb128 0xb
 2755 0213 57       		.uleb128 0x57
 2756 0214 0B       		.uleb128 0xb
 2757 0215 01       		.uleb128 0x1
 2758 0216 13       		.uleb128 0x13
 2759 0217 00       		.byte	0
 2760 0218 00       		.byte	0
 2761 0219 25       		.uleb128 0x25
 2762 021a 2E       		.uleb128 0x2e
 2763 021b 01       		.byte	0x1
 2764 021c 3F       		.uleb128 0x3f
 2765 021d 19       		.uleb128 0x19
 2766 021e 03       		.uleb128 0x3
 2767 021f 0E       		.uleb128 0xe
 2768 0220 3A       		.uleb128 0x3a
 2769 0221 0B       		.uleb128 0xb
 2770 0222 3B       		.uleb128 0x3b
 2771 0223 0B       		.uleb128 0xb
 2772 0224 39       		.uleb128 0x39
 2773 0225 0B       		.uleb128 0xb
 2774 0226 27       		.uleb128 0x27
 2775 0227 19       		.uleb128 0x19
 2776 0228 20       		.uleb128 0x20
 2777 0229 0B       		.uleb128 0xb
 2778 022a 01       		.uleb128 0x1
 2779 022b 13       		.uleb128 0x13
 2780 022c 00       		.byte	0
 2781 022d 00       		.byte	0
 2782 022e 26       		.uleb128 0x26
 2783 022f 05       		.uleb128 0x5
 2784 0230 00       		.byte	0
 2785 0231 03       		.uleb128 0x3
 2786 0232 08       		.uleb128 0x8
 2787 0233 3A       		.uleb128 0x3a
 2788 0234 0B       		.uleb128 0xb
 2789 0235 3B       		.uleb128 0x3b
 2790 0236 0B       		.uleb128 0xb
 2791 0237 39       		.uleb128 0x39
 2792 0238 0B       		.uleb128 0xb
 2793 0239 49       		.uleb128 0x49
ARM GAS  /tmp/ccTOBiaP.s 			page 50


 2794 023a 13       		.uleb128 0x13
 2795 023b 00       		.byte	0
 2796 023c 00       		.byte	0
 2797 023d 27       		.uleb128 0x27
 2798 023e 2E       		.uleb128 0x2e
 2799 023f 01       		.byte	0x1
 2800 0240 3F       		.uleb128 0x3f
 2801 0241 19       		.uleb128 0x19
 2802 0242 03       		.uleb128 0x3
 2803 0243 0E       		.uleb128 0xe
 2804 0244 3A       		.uleb128 0x3a
 2805 0245 0B       		.uleb128 0xb
 2806 0246 3B       		.uleb128 0x3b
 2807 0247 0B       		.uleb128 0xb
 2808 0248 39       		.uleb128 0x39
 2809 0249 0B       		.uleb128 0xb
 2810 024a 27       		.uleb128 0x27
 2811 024b 19       		.uleb128 0x19
 2812 024c 11       		.uleb128 0x11
 2813 024d 01       		.uleb128 0x1
 2814 024e 12       		.uleb128 0x12
 2815 024f 06       		.uleb128 0x6
 2816 0250 40       		.uleb128 0x40
 2817 0251 18       		.uleb128 0x18
 2818 0252 9742     		.uleb128 0x2117
 2819 0254 19       		.uleb128 0x19
 2820 0255 01       		.uleb128 0x1
 2821 0256 13       		.uleb128 0x13
 2822 0257 00       		.byte	0
 2823 0258 00       		.byte	0
 2824 0259 28       		.uleb128 0x28
 2825 025a 1D       		.uleb128 0x1d
 2826 025b 01       		.byte	0x1
 2827 025c 31       		.uleb128 0x31
 2828 025d 13       		.uleb128 0x13
 2829 025e 52       		.uleb128 0x52
 2830 025f 01       		.uleb128 0x1
 2831 0260 B842     		.uleb128 0x2138
 2832 0262 0B       		.uleb128 0xb
 2833 0263 11       		.uleb128 0x11
 2834 0264 01       		.uleb128 0x1
 2835 0265 12       		.uleb128 0x12
 2836 0266 06       		.uleb128 0x6
 2837 0267 58       		.uleb128 0x58
 2838 0268 0B       		.uleb128 0xb
 2839 0269 59       		.uleb128 0x59
 2840 026a 0B       		.uleb128 0xb
 2841 026b 57       		.uleb128 0x57
 2842 026c 0B       		.uleb128 0xb
 2843 026d 01       		.uleb128 0x1
 2844 026e 13       		.uleb128 0x13
 2845 026f 00       		.byte	0
 2846 0270 00       		.byte	0
 2847 0271 29       		.uleb128 0x29
 2848 0272 05       		.uleb128 0x5
 2849 0273 00       		.byte	0
 2850 0274 03       		.uleb128 0x3
ARM GAS  /tmp/ccTOBiaP.s 			page 51


 2851 0275 08       		.uleb128 0x8
 2852 0276 3A       		.uleb128 0x3a
 2853 0277 0B       		.uleb128 0xb
 2854 0278 3B       		.uleb128 0x3b
 2855 0279 0B       		.uleb128 0xb
 2856 027a 39       		.uleb128 0x39
 2857 027b 0B       		.uleb128 0xb
 2858 027c 49       		.uleb128 0x49
 2859 027d 13       		.uleb128 0x13
 2860 027e 02       		.uleb128 0x2
 2861 027f 18       		.uleb128 0x18
 2862 0280 00       		.byte	0
 2863 0281 00       		.byte	0
 2864 0282 2A       		.uleb128 0x2a
 2865 0283 2E       		.uleb128 0x2e
 2866 0284 01       		.byte	0x1
 2867 0285 03       		.uleb128 0x3
 2868 0286 0E       		.uleb128 0xe
 2869 0287 3A       		.uleb128 0x3a
 2870 0288 0B       		.uleb128 0xb
 2871 0289 3B       		.uleb128 0x3b
 2872 028a 0B       		.uleb128 0xb
 2873 028b 39       		.uleb128 0x39
 2874 028c 0B       		.uleb128 0xb
 2875 028d 27       		.uleb128 0x27
 2876 028e 19       		.uleb128 0x19
 2877 028f 49       		.uleb128 0x49
 2878 0290 13       		.uleb128 0x13
 2879 0291 20       		.uleb128 0x20
 2880 0292 0B       		.uleb128 0xb
 2881 0293 01       		.uleb128 0x1
 2882 0294 13       		.uleb128 0x13
 2883 0295 00       		.byte	0
 2884 0296 00       		.byte	0
 2885 0297 2B       		.uleb128 0x2b
 2886 0298 34       		.uleb128 0x34
 2887 0299 00       		.byte	0
 2888 029a 03       		.uleb128 0x3
 2889 029b 08       		.uleb128 0x8
 2890 029c 3A       		.uleb128 0x3a
 2891 029d 0B       		.uleb128 0xb
 2892 029e 3B       		.uleb128 0x3b
 2893 029f 0B       		.uleb128 0xb
 2894 02a0 39       		.uleb128 0x39
 2895 02a1 0B       		.uleb128 0xb
 2896 02a2 49       		.uleb128 0x49
 2897 02a3 13       		.uleb128 0x13
 2898 02a4 00       		.byte	0
 2899 02a5 00       		.byte	0
 2900 02a6 2C       		.uleb128 0x2c
 2901 02a7 2E       		.uleb128 0x2e
 2902 02a8 01       		.byte	0x1
 2903 02a9 03       		.uleb128 0x3
 2904 02aa 0E       		.uleb128 0xe
 2905 02ab 3A       		.uleb128 0x3a
 2906 02ac 0B       		.uleb128 0xb
 2907 02ad 3B       		.uleb128 0x3b
ARM GAS  /tmp/ccTOBiaP.s 			page 52


 2908 02ae 0B       		.uleb128 0xb
 2909 02af 39       		.uleb128 0x39
 2910 02b0 0B       		.uleb128 0xb
 2911 02b1 27       		.uleb128 0x27
 2912 02b2 19       		.uleb128 0x19
 2913 02b3 20       		.uleb128 0x20
 2914 02b4 0B       		.uleb128 0xb
 2915 02b5 01       		.uleb128 0x1
 2916 02b6 13       		.uleb128 0x13
 2917 02b7 00       		.byte	0
 2918 02b8 00       		.byte	0
 2919 02b9 2D       		.uleb128 0x2d
 2920 02ba 2E       		.uleb128 0x2e
 2921 02bb 01       		.byte	0x1
 2922 02bc 31       		.uleb128 0x31
 2923 02bd 13       		.uleb128 0x13
 2924 02be 11       		.uleb128 0x11
 2925 02bf 01       		.uleb128 0x1
 2926 02c0 12       		.uleb128 0x12
 2927 02c1 06       		.uleb128 0x6
 2928 02c2 40       		.uleb128 0x40
 2929 02c3 18       		.uleb128 0x18
 2930 02c4 9742     		.uleb128 0x2117
 2931 02c6 19       		.uleb128 0x19
 2932 02c7 01       		.uleb128 0x1
 2933 02c8 13       		.uleb128 0x13
 2934 02c9 00       		.byte	0
 2935 02ca 00       		.byte	0
 2936 02cb 2E       		.uleb128 0x2e
 2937 02cc 2E       		.uleb128 0x2e
 2938 02cd 00       		.byte	0
 2939 02ce 3F       		.uleb128 0x3f
 2940 02cf 19       		.uleb128 0x19
 2941 02d0 3C       		.uleb128 0x3c
 2942 02d1 19       		.uleb128 0x19
 2943 02d2 6E       		.uleb128 0x6e
 2944 02d3 0E       		.uleb128 0xe
 2945 02d4 03       		.uleb128 0x3
 2946 02d5 0E       		.uleb128 0xe
 2947 02d6 3A       		.uleb128 0x3a
 2948 02d7 0B       		.uleb128 0xb
 2949 02d8 3B       		.uleb128 0x3b
 2950 02d9 0B       		.uleb128 0xb
 2951 02da 39       		.uleb128 0x39
 2952 02db 0B       		.uleb128 0xb
 2953 02dc 00       		.byte	0
 2954 02dd 00       		.byte	0
 2955 02de 00       		.byte	0
 2956              		.section	.debug_loc,"",%progbits
 2957              	.Ldebug_loc0:
 2958              	.LVUS22:
 2959 0000 00       		.uleb128 0
 2960 0001 00       		.uleb128 .LVU196
 2961 0002 00       		.uleb128 .LVU196
 2962 0003 00       		.uleb128 .LVU228
 2963 0004 00       		.uleb128 .LVU228
 2964 0005 00       		.uleb128 0
ARM GAS  /tmp/ccTOBiaP.s 			page 53


 2965              	.LLST22:
 2966 0006 00000000 		.4byte	.LVL38
 2967 000a 0F000000 		.4byte	.LVL39-1
 2968 000e 0100     		.2byte	0x1
 2969 0010 50       		.byte	0x50
 2970 0011 0F000000 		.4byte	.LVL39-1
 2971 0015 70000000 		.4byte	.LVL48
 2972 0019 0100     		.2byte	0x1
 2973 001b 54       		.byte	0x54
 2974 001c 70000000 		.4byte	.LVL48
 2975 0020 88000000 		.4byte	.LFE15
 2976 0024 0400     		.2byte	0x4
 2977 0026 F3       		.byte	0xf3
 2978 0027 01       		.uleb128 0x1
 2979 0028 50       		.byte	0x50
 2980 0029 9F       		.byte	0x9f
 2981 002a 00000000 		.4byte	0
 2982 002e 00000000 		.4byte	0
 2983              	.LVUS23:
 2984 0032 00       		.uleb128 0
 2985 0033 00       		.uleb128 .LVU196
 2986 0034 00       		.uleb128 .LVU196
 2987 0035 00       		.uleb128 0
 2988              	.LLST23:
 2989 0036 00000000 		.4byte	.LVL38
 2990 003a 0F000000 		.4byte	.LVL39-1
 2991 003e 0100     		.2byte	0x1
 2992 0040 51       		.byte	0x51
 2993 0041 0F000000 		.4byte	.LVL39-1
 2994 0045 88000000 		.4byte	.LFE15
 2995 0049 0100     		.2byte	0x1
 2996 004b 56       		.byte	0x56
 2997 004c 00000000 		.4byte	0
 2998 0050 00000000 		.4byte	0
 2999              	.LVUS24:
 3000 0054 00       		.uleb128 .LVU200
 3001 0055 00       		.uleb128 .LVU222
 3002 0056 00       		.uleb128 .LVU222
 3003 0057 00       		.uleb128 0
 3004              	.LLST24:
 3005 0058 20000000 		.4byte	.LVL40
 3006 005c 60000000 		.4byte	.LVL45
 3007 0060 0100     		.2byte	0x1
 3008 0062 50       		.byte	0x50
 3009 0063 60000000 		.4byte	.LVL45
 3010 0067 88000000 		.4byte	.LFE15
 3011 006b 0100     		.2byte	0x1
 3012 006d 55       		.byte	0x55
 3013 006e 00000000 		.4byte	0
 3014 0072 00000000 		.4byte	0
 3015              	.LVUS25:
 3016 0076 00       		.uleb128 .LVU228
 3017 0077 00       		.uleb128 .LVU231
 3018 0078 00       		.uleb128 .LVU231
 3019 0079 00       		.uleb128 0
 3020              	.LLST25:
 3021 007a 70000000 		.4byte	.LVL48
ARM GAS  /tmp/ccTOBiaP.s 			page 54


 3022 007e 78000000 		.4byte	.LVL49
 3023 0082 0100     		.2byte	0x1
 3024 0084 50       		.byte	0x50
 3025 0085 78000000 		.4byte	.LVL49
 3026 0089 88000000 		.4byte	.LFE15
 3027 008d 0100     		.2byte	0x1
 3028 008f 54       		.byte	0x54
 3029 0090 00000000 		.4byte	0
 3030 0094 00000000 		.4byte	0
 3031              	.LVUS26:
 3032 0098 01       		.uleb128 .LVU203
 3033 0099 00       		.uleb128 .LVU223
 3034              	.LLST26:
 3035 009a 24000000 		.4byte	.LVL41
 3036 009e 64000000 		.4byte	.LVL46
 3037 00a2 0100     		.2byte	0x1
 3038 00a4 54       		.byte	0x54
 3039 00a5 00000000 		.4byte	0
 3040 00a9 00000000 		.4byte	0
 3041              	.LVUS27:
 3042 00ad 01       		.uleb128 .LVU203
 3043 00ae 00       		.uleb128 .LVU223
 3044              	.LLST27:
 3045 00af 24000000 		.4byte	.LVL41
 3046 00b3 64000000 		.4byte	.LVL46
 3047 00b7 0100     		.2byte	0x1
 3048 00b9 5E       		.byte	0x5e
 3049 00ba 00000000 		.4byte	0
 3050 00be 00000000 		.4byte	0
 3051              	.LVUS28:
 3052 00c2 03       		.uleb128 .LVU205
 3053 00c3 00       		.uleb128 .LVU206
 3054 00c4 00       		.uleb128 .LVU206
 3055 00c5 00       		.uleb128 .LVU220
 3056 00c6 00       		.uleb128 .LVU220
 3057 00c7 00       		.uleb128 .LVU223
 3058              	.LLST28:
 3059 00c8 24000000 		.4byte	.LVL41
 3060 00cc 28000000 		.4byte	.LVL42
 3061 00d0 0100     		.2byte	0x1
 3062 00d2 54       		.byte	0x54
 3063 00d3 28000000 		.4byte	.LVL42
 3064 00d7 58000000 		.4byte	.LVL44
 3065 00db 0100     		.2byte	0x1
 3066 00dd 53       		.byte	0x53
 3067 00de 58000000 		.4byte	.LVL44
 3068 00e2 64000000 		.4byte	.LVL46
 3069 00e6 0200     		.2byte	0x2
 3070 00e8 7E       		.byte	0x7e
 3071 00e9 00       		.sleb128 0
 3072 00ea 00000000 		.4byte	0
 3073 00ee 00000000 		.4byte	0
 3074              	.LVUS29:
 3075 00f2 00       		.uleb128 0
 3076 00f3 00       		.uleb128 .LVU243
 3077 00f4 00       		.uleb128 .LVU243
 3078 00f5 00       		.uleb128 0
ARM GAS  /tmp/ccTOBiaP.s 			page 55


 3079              	.LLST29:
 3080 00f6 00000000 		.4byte	.LVL51
 3081 00fa 0B000000 		.4byte	.LVL52-1
 3082 00fe 0100     		.2byte	0x1
 3083 0100 50       		.byte	0x50
 3084 0101 0B000000 		.4byte	.LVL52-1
 3085 0105 14000000 		.4byte	.LFE14
 3086 0109 0400     		.2byte	0x4
 3087 010b F3       		.byte	0xf3
 3088 010c 01       		.uleb128 0x1
 3089 010d 50       		.byte	0x50
 3090 010e 9F       		.byte	0x9f
 3091 010f 00000000 		.4byte	0
 3092 0113 00000000 		.4byte	0
 3093              	.LVUS30:
 3094 0117 00       		.uleb128 0
 3095 0118 00       		.uleb128 .LVU243
 3096 0119 00       		.uleb128 .LVU243
 3097 011a 00       		.uleb128 0
 3098              	.LLST30:
 3099 011b 00000000 		.4byte	.LVL51
 3100 011f 0B000000 		.4byte	.LVL52-1
 3101 0123 0100     		.2byte	0x1
 3102 0125 51       		.byte	0x51
 3103 0126 0B000000 		.4byte	.LVL52-1
 3104 012a 14000000 		.4byte	.LFE14
 3105 012e 0400     		.2byte	0x4
 3106 0130 F3       		.byte	0xf3
 3107 0131 01       		.uleb128 0x1
 3108 0132 51       		.byte	0x51
 3109 0133 9F       		.byte	0x9f
 3110 0134 00000000 		.4byte	0
 3111 0138 00000000 		.4byte	0
 3112              	.LVUS31:
 3113 013c 00       		.uleb128 .LVU243
 3114 013d 00       		.uleb128 0
 3115              	.LLST31:
 3116 013e 0C000000 		.4byte	.LVL52
 3117 0142 14000000 		.4byte	.LFE14
 3118 0146 0100     		.2byte	0x1
 3119 0148 50       		.byte	0x50
 3120 0149 00000000 		.4byte	0
 3121 014d 00000000 		.4byte	0
 3122              	.LVUS13:
 3123 0151 00       		.uleb128 0
 3124 0152 00       		.uleb128 .LVU137
 3125 0153 00       		.uleb128 .LVU137
 3126 0154 00       		.uleb128 0
 3127              	.LLST13:
 3128 0155 00000000 		.4byte	.LVL23
 3129 0159 13000000 		.4byte	.LVL25-1
 3130 015d 0100     		.2byte	0x1
 3131 015f 50       		.byte	0x50
 3132 0160 13000000 		.4byte	.LVL25-1
 3133 0164 78000000 		.4byte	.LFE13
 3134 0168 0100     		.2byte	0x1
 3135 016a 55       		.byte	0x55
ARM GAS  /tmp/ccTOBiaP.s 			page 56


 3136 016b 00000000 		.4byte	0
 3137 016f 00000000 		.4byte	0
 3138              	.LVUS14:
 3139 0173 00       		.uleb128 .LVU127
 3140 0174 00       		.uleb128 .LVU166
 3141              	.LLST14:
 3142 0175 10000000 		.4byte	.LVL24
 3143 0179 64000000 		.4byte	.LVL34
 3144 017d 0100     		.2byte	0x1
 3145 017f 54       		.byte	0x54
 3146 0180 00000000 		.4byte	0
 3147 0184 00000000 		.4byte	0
 3148              	.LVUS15:
 3149 0188 00       		.uleb128 .LVU139
 3150 0189 00       		.uleb128 .LVU161
 3151 018a 00       		.uleb128 .LVU161
 3152 018b 00       		.uleb128 0
 3153              	.LLST15:
 3154 018c 1C000000 		.4byte	.LVL26
 3155 0190 58000000 		.4byte	.LVL31
 3156 0194 0100     		.2byte	0x1
 3157 0196 50       		.byte	0x50
 3158 0197 58000000 		.4byte	.LVL31
 3159 019b 78000000 		.4byte	.LFE13
 3160 019f 0100     		.2byte	0x1
 3161 01a1 56       		.byte	0x56
 3162 01a2 00000000 		.4byte	0
 3163 01a6 00000000 		.4byte	0
 3164              	.LVUS16:
 3165 01aa 00       		.uleb128 .LVU166
 3166 01ab 00       		.uleb128 0
 3167              	.LLST16:
 3168 01ac 64000000 		.4byte	.LVL34
 3169 01b0 78000000 		.4byte	.LFE13
 3170 01b4 0100     		.2byte	0x1
 3171 01b6 54       		.byte	0x54
 3172 01b7 00000000 		.4byte	0
 3173 01bb 00000000 		.4byte	0
 3174              	.LVUS17:
 3175 01bf 01       		.uleb128 .LVU142
 3176 01c0 00       		.uleb128 .LVU162
 3177              	.LLST17:
 3178 01c1 20000000 		.4byte	.LVL27
 3179 01c5 5C000000 		.4byte	.LVL32
 3180 01c9 0100     		.2byte	0x1
 3181 01cb 55       		.byte	0x55
 3182 01cc 00000000 		.4byte	0
 3183 01d0 00000000 		.4byte	0
 3184              	.LVUS18:
 3185 01d4 01       		.uleb128 .LVU142
 3186 01d5 00       		.uleb128 .LVU162
 3187              	.LLST18:
 3188 01d6 20000000 		.4byte	.LVL27
 3189 01da 5C000000 		.4byte	.LVL32
 3190 01de 0100     		.2byte	0x1
 3191 01e0 54       		.byte	0x54
 3192 01e1 00000000 		.4byte	0
ARM GAS  /tmp/ccTOBiaP.s 			page 57


 3193 01e5 00000000 		.4byte	0
 3194              	.LVUS19:
 3195 01e9 03       		.uleb128 .LVU144
 3196 01ea 00       		.uleb128 .LVU145
 3197 01eb 00       		.uleb128 .LVU145
 3198 01ec 00       		.uleb128 .LVU159
 3199 01ed 00       		.uleb128 .LVU159
 3200 01ee 00       		.uleb128 .LVU162
 3201              	.LLST19:
 3202 01ef 20000000 		.4byte	.LVL27
 3203 01f3 24000000 		.4byte	.LVL28
 3204 01f7 0100     		.2byte	0x1
 3205 01f9 55       		.byte	0x55
 3206 01fa 24000000 		.4byte	.LVL28
 3207 01fe 54000000 		.4byte	.LVL30
 3208 0202 0100     		.2byte	0x1
 3209 0204 53       		.byte	0x53
 3210 0205 54000000 		.4byte	.LVL30
 3211 0209 5C000000 		.4byte	.LVL32
 3212 020d 0200     		.2byte	0x2
 3213 020f 74       		.byte	0x74
 3214 0210 00       		.sleb128 0
 3215 0211 00000000 		.4byte	0
 3216 0215 00000000 		.4byte	0
 3217              	.LVUS20:
 3218 0219 00       		.uleb128 0
 3219 021a 00       		.uleb128 .LVU178
 3220 021b 00       		.uleb128 .LVU178
 3221 021c 00       		.uleb128 0
 3222              	.LLST20:
 3223 021d 00000000 		.4byte	.LVL36
 3224 0221 0B000000 		.4byte	.LVL37-1
 3225 0225 0100     		.2byte	0x1
 3226 0227 50       		.byte	0x50
 3227 0228 0B000000 		.4byte	.LVL37-1
 3228 022c 14000000 		.4byte	.LFE12
 3229 0230 0400     		.2byte	0x4
 3230 0232 F3       		.byte	0xf3
 3231 0233 01       		.uleb128 0x1
 3232 0234 50       		.byte	0x50
 3233 0235 9F       		.byte	0x9f
 3234 0236 00000000 		.4byte	0
 3235 023a 00000000 		.4byte	0
 3236              	.LVUS21:
 3237 023e 00       		.uleb128 .LVU178
 3238 023f 00       		.uleb128 0
 3239              	.LLST21:
 3240 0240 0C000000 		.4byte	.LVL37
 3241 0244 14000000 		.4byte	.LFE12
 3242 0248 0100     		.2byte	0x1
 3243 024a 50       		.byte	0x50
 3244 024b 00000000 		.4byte	0
 3245 024f 00000000 		.4byte	0
 3246              	.LVUS6:
 3247 0253 00       		.uleb128 0
 3248 0254 00       		.uleb128 .LVU76
 3249 0255 00       		.uleb128 .LVU76
ARM GAS  /tmp/ccTOBiaP.s 			page 58


 3250 0256 00       		.uleb128 .LVU90
 3251 0257 00       		.uleb128 .LVU90
 3252 0258 00       		.uleb128 0
 3253              	.LLST6:
 3254 0259 00000000 		.4byte	.LVL12
 3255 025d 1C000000 		.4byte	.LVL14
 3256 0261 0100     		.2byte	0x1
 3257 0263 50       		.byte	0x50
 3258 0264 1C000000 		.4byte	.LVL14
 3259 0268 40000000 		.4byte	.LVL17
 3260 026c 0100     		.2byte	0x1
 3261 026e 54       		.byte	0x54
 3262 026f 40000000 		.4byte	.LVL17
 3263 0273 4C000000 		.4byte	.LFE10
 3264 0277 0400     		.2byte	0x4
 3265 0279 F3       		.byte	0xf3
 3266 027a 01       		.uleb128 0x1
 3267 027b 50       		.byte	0x50
 3268 027c 9F       		.byte	0x9f
 3269 027d 00000000 		.4byte	0
 3270 0281 00000000 		.4byte	0
 3271              	.LVUS7:
 3272 0285 03       		.uleb128 .LVU66
 3273 0286 00       		.uleb128 .LVU76
 3274 0287 00       		.uleb128 .LVU76
 3275 0288 00       		.uleb128 .LVU90
 3276              	.LLST7:
 3277 0289 08000000 		.4byte	.LVL13
 3278 028d 1C000000 		.4byte	.LVL14
 3279 0291 0100     		.2byte	0x1
 3280 0293 50       		.byte	0x50
 3281 0294 1C000000 		.4byte	.LVL14
 3282 0298 40000000 		.4byte	.LVL17
 3283 029c 0100     		.2byte	0x1
 3284 029e 54       		.byte	0x54
 3285 029f 00000000 		.4byte	0
 3286 02a3 00000000 		.4byte	0
 3287              	.LVUS8:
 3288 02a7 01       		.uleb128 .LVU77
 3289 02a8 01       		.uleb128 .LVU85
 3290              	.LLST8:
 3291 02a9 1C000000 		.4byte	.LVL14
 3292 02ad 2C000000 		.4byte	.LVL15
 3293 02b1 0100     		.2byte	0x1
 3294 02b3 54       		.byte	0x54
 3295 02b4 00000000 		.4byte	0
 3296 02b8 00000000 		.4byte	0
 3297              	.LVUS9:
 3298 02bc 03       		.uleb128 .LVU79
 3299 02bd 01       		.uleb128 .LVU85
 3300              	.LLST9:
 3301 02be 1C000000 		.4byte	.LVL14
 3302 02c2 2C000000 		.4byte	.LVL15
 3303 02c6 0100     		.2byte	0x1
 3304 02c8 53       		.byte	0x53
 3305 02c9 00000000 		.4byte	0
 3306 02cd 00000000 		.4byte	0
ARM GAS  /tmp/ccTOBiaP.s 			page 59


 3307              	.LVUS3:
 3308 02d1 00       		.uleb128 0
 3309 02d2 00       		.uleb128 .LVU45
 3310 02d3 00       		.uleb128 .LVU45
 3311 02d4 00       		.uleb128 .LVU57
 3312 02d5 00       		.uleb128 .LVU57
 3313 02d6 00       		.uleb128 0
 3314              	.LLST3:
 3315 02d7 00000000 		.4byte	.LVL7
 3316 02db 08000000 		.4byte	.LVL8
 3317 02df 0100     		.2byte	0x1
 3318 02e1 50       		.byte	0x50
 3319 02e2 08000000 		.4byte	.LVL8
 3320 02e6 23000000 		.4byte	.LVL11-1
 3321 02ea 0100     		.2byte	0x1
 3322 02ec 53       		.byte	0x53
 3323 02ed 23000000 		.4byte	.LVL11-1
 3324 02f1 30000000 		.4byte	.LFE9
 3325 02f5 0400     		.2byte	0x4
 3326 02f7 F3       		.byte	0xf3
 3327 02f8 01       		.uleb128 0x1
 3328 02f9 50       		.byte	0x50
 3329 02fa 9F       		.byte	0x9f
 3330 02fb 00000000 		.4byte	0
 3331 02ff 00000000 		.4byte	0
 3332              	.LVUS4:
 3333 0303 01       		.uleb128 .LVU47
 3334 0304 01       		.uleb128 .LVU55
 3335              	.LLST4:
 3336 0305 10000000 		.4byte	.LVL9
 3337 0309 20000000 		.4byte	.LVL10
 3338 030d 0100     		.2byte	0x1
 3339 030f 53       		.byte	0x53
 3340 0310 00000000 		.4byte	0
 3341 0314 00000000 		.4byte	0
 3342              	.LVUS5:
 3343 0318 03       		.uleb128 .LVU49
 3344 0319 01       		.uleb128 .LVU55
 3345              	.LLST5:
 3346 031a 10000000 		.4byte	.LVL9
 3347 031e 20000000 		.4byte	.LVL10
 3348 0322 0100     		.2byte	0x1
 3349 0324 50       		.byte	0x50
 3350 0325 00000000 		.4byte	0
 3351 0329 00000000 		.4byte	0
 3352              	.LVUS0:
 3353 032d 00       		.uleb128 0
 3354 032e 00       		.uleb128 .LVU16
 3355 032f 00       		.uleb128 .LVU16
 3356 0330 00       		.uleb128 .LVU29
 3357 0331 00       		.uleb128 .LVU29
 3358 0332 00       		.uleb128 .LVU33
 3359 0333 00       		.uleb128 .LVU33
 3360 0334 00       		.uleb128 0
 3361              	.LLST0:
 3362 0335 00000000 		.4byte	.LVL1
 3363 0339 0C000000 		.4byte	.LVL2
ARM GAS  /tmp/ccTOBiaP.s 			page 60


 3364 033d 0100     		.2byte	0x1
 3365 033f 50       		.byte	0x50
 3366 0340 0C000000 		.4byte	.LVL2
 3367 0344 2B000000 		.4byte	.LVL5-1
 3368 0348 0100     		.2byte	0x1
 3369 034a 53       		.byte	0x53
 3370 034b 2B000000 		.4byte	.LVL5-1
 3371 034f 34000000 		.4byte	.LVL6
 3372 0353 0400     		.2byte	0x4
 3373 0355 F3       		.byte	0xf3
 3374 0356 01       		.uleb128 0x1
 3375 0357 50       		.byte	0x50
 3376 0358 9F       		.byte	0x9f
 3377 0359 34000000 		.4byte	.LVL6
 3378 035d 3C000000 		.4byte	.LFE8
 3379 0361 0100     		.2byte	0x1
 3380 0363 53       		.byte	0x53
 3381 0364 00000000 		.4byte	0
 3382 0368 00000000 		.4byte	0
 3383              	.LVUS1:
 3384 036c 01       		.uleb128 .LVU18
 3385 036d 01       		.uleb128 .LVU27
 3386              	.LLST1:
 3387 036e 14000000 		.4byte	.LVL3
 3388 0372 28000000 		.4byte	.LVL4
 3389 0376 0100     		.2byte	0x1
 3390 0378 53       		.byte	0x53
 3391 0379 00000000 		.4byte	0
 3392 037d 00000000 		.4byte	0
 3393              	.LVUS2:
 3394 0381 03       		.uleb128 .LVU20
 3395 0382 01       		.uleb128 .LVU27
 3396              	.LLST2:
 3397 0383 14000000 		.4byte	.LVL3
 3398 0387 28000000 		.4byte	.LVL4
 3399 038b 0100     		.2byte	0x1
 3400 038d 50       		.byte	0x50
 3401 038e 00000000 		.4byte	0
 3402 0392 00000000 		.4byte	0
 3403              	.LVUS10:
 3404 0396 00       		.uleb128 0
 3405 0397 00       		.uleb128 .LVU107
 3406 0398 00       		.uleb128 .LVU107
 3407 0399 00       		.uleb128 0
 3408              	.LLST10:
 3409 039a 00000000 		.4byte	.LVL19
 3410 039e 18000000 		.4byte	.LVL20
 3411 03a2 0100     		.2byte	0x1
 3412 03a4 50       		.byte	0x50
 3413 03a5 18000000 		.4byte	.LVL20
 3414 03a9 40000000 		.4byte	.LFE11
 3415 03ad 0100     		.2byte	0x1
 3416 03af 54       		.byte	0x54
 3417 03b0 00000000 		.4byte	0
 3418 03b4 00000000 		.4byte	0
 3419              	.LVUS11:
 3420 03b8 01       		.uleb128 .LVU108
ARM GAS  /tmp/ccTOBiaP.s 			page 61


 3421 03b9 01       		.uleb128 .LVU116
 3422              	.LLST11:
 3423 03ba 18000000 		.4byte	.LVL20
 3424 03be 28000000 		.4byte	.LVL21
 3425 03c2 0100     		.2byte	0x1
 3426 03c4 54       		.byte	0x54
 3427 03c5 00000000 		.4byte	0
 3428 03c9 00000000 		.4byte	0
 3429              	.LVUS12:
 3430 03cd 03       		.uleb128 .LVU110
 3431 03ce 01       		.uleb128 .LVU116
 3432              	.LLST12:
 3433 03cf 18000000 		.4byte	.LVL20
 3434 03d3 28000000 		.4byte	.LVL21
 3435 03d7 0100     		.2byte	0x1
 3436 03d9 53       		.byte	0x53
 3437 03da 00000000 		.4byte	0
 3438 03de 00000000 		.4byte	0
 3439              		.section	.debug_aranges,"",%progbits
 3440 0000 5C000000 		.4byte	0x5c
 3441 0004 0200     		.2byte	0x2
 3442 0006 00000000 		.4byte	.Ldebug_info0
 3443 000a 04       		.byte	0x4
 3444 000b 00       		.byte	0
 3445 000c 0000     		.2byte	0
 3446 000e 0000     		.2byte	0
 3447 0010 00000000 		.4byte	.LFB7
 3448 0014 0C000000 		.4byte	.LFE7-.LFB7
 3449 0018 00000000 		.4byte	.LFB8
 3450 001c 3C000000 		.4byte	.LFE8-.LFB8
 3451 0020 00000000 		.4byte	.LFB9
 3452 0024 30000000 		.4byte	.LFE9-.LFB9
 3453 0028 00000000 		.4byte	.LFB10
 3454 002c 4C000000 		.4byte	.LFE10-.LFB10
 3455 0030 00000000 		.4byte	.LFB11
 3456 0034 40000000 		.4byte	.LFE11-.LFB11
 3457 0038 00000000 		.4byte	.LFB13
 3458 003c 78000000 		.4byte	.LFE13-.LFB13
 3459 0040 00000000 		.4byte	.LFB12
 3460 0044 14000000 		.4byte	.LFE12-.LFB12
 3461 0048 00000000 		.4byte	.LFB15
 3462 004c 88000000 		.4byte	.LFE15-.LFB15
 3463 0050 00000000 		.4byte	.LFB14
 3464 0054 14000000 		.4byte	.LFE14-.LFB14
 3465 0058 00000000 		.4byte	0
 3466 005c 00000000 		.4byte	0
 3467              		.section	.debug_ranges,"",%progbits
 3468              	.Ldebug_ranges0:
 3469 0000 14000000 		.4byte	.LBB16
 3470 0004 18000000 		.4byte	.LBE16
 3471 0008 20000000 		.4byte	.LBB19
 3472 000c 28000000 		.4byte	.LBE19
 3473 0010 00000000 		.4byte	0
 3474 0014 00000000 		.4byte	0
 3475 0018 10000000 		.4byte	.LBB20
 3476 001c 14000000 		.4byte	.LBE20
 3477 0020 18000000 		.4byte	.LBB23
ARM GAS  /tmp/ccTOBiaP.s 			page 62


 3478 0024 20000000 		.4byte	.LBE23
 3479 0028 00000000 		.4byte	0
 3480 002c 00000000 		.4byte	0
 3481 0030 1C000000 		.4byte	.LBB26
 3482 0034 20000000 		.4byte	.LBE26
 3483 0038 24000000 		.4byte	.LBB29
 3484 003c 2C000000 		.4byte	.LBE29
 3485 0040 00000000 		.4byte	0
 3486 0044 00000000 		.4byte	0
 3487 0048 18000000 		.4byte	.LBB30
 3488 004c 1C000000 		.4byte	.LBE30
 3489 0050 20000000 		.4byte	.LBB33
 3490 0054 28000000 		.4byte	.LBE33
 3491 0058 00000000 		.4byte	0
 3492 005c 00000000 		.4byte	0
 3493 0060 14000000 		.4byte	.LBB34
 3494 0064 18000000 		.4byte	.LBE34
 3495 0068 20000000 		.4byte	.LBB38
 3496 006c 54000000 		.4byte	.LBE38
 3497 0070 58000000 		.4byte	.LBB39
 3498 0074 5C000000 		.4byte	.LBE39
 3499 0078 00000000 		.4byte	0
 3500 007c 00000000 		.4byte	0
 3501 0080 14000000 		.4byte	.LBB40
 3502 0084 18000000 		.4byte	.LBE40
 3503 0088 24000000 		.4byte	.LBB44
 3504 008c 58000000 		.4byte	.LBE44
 3505 0090 60000000 		.4byte	.LBB45
 3506 0094 64000000 		.4byte	.LBE45
 3507 0098 00000000 		.4byte	0
 3508 009c 00000000 		.4byte	0
 3509 00a0 00000000 		.4byte	.LFB7
 3510 00a4 0C000000 		.4byte	.LFE7
 3511 00a8 00000000 		.4byte	.LFB8
 3512 00ac 3C000000 		.4byte	.LFE8
 3513 00b0 00000000 		.4byte	.LFB9
 3514 00b4 30000000 		.4byte	.LFE9
 3515 00b8 00000000 		.4byte	.LFB10
 3516 00bc 4C000000 		.4byte	.LFE10
 3517 00c0 00000000 		.4byte	.LFB11
 3518 00c4 40000000 		.4byte	.LFE11
 3519 00c8 00000000 		.4byte	.LFB13
 3520 00cc 78000000 		.4byte	.LFE13
 3521 00d0 00000000 		.4byte	.LFB12
 3522 00d4 14000000 		.4byte	.LFE12
 3523 00d8 00000000 		.4byte	.LFB15
 3524 00dc 88000000 		.4byte	.LFE15
 3525 00e0 00000000 		.4byte	.LFB14
 3526 00e4 14000000 		.4byte	.LFE14
 3527 00e8 00000000 		.4byte	0
 3528 00ec 00000000 		.4byte	0
 3529              		.section	.debug_line,"",%progbits
 3530              	.Ldebug_line0:
 3531 0000 26050000 		.section	.debug_str,"MS",%progbits,1
 3531      03001601 
 3531      00000201 
 3531      FB0E0D00 
ARM GAS  /tmp/ccTOBiaP.s 			page 63


 3531      01010101 
 3532              	.LASF85:
 3533 0000 63665F6F 		.ascii	"cf_off_older\000"
 3533      66665F6F 
 3533      6C646572 
 3533      00
 3534              	.LASF36:
 3535 000d 705F6D73 		.ascii	"p_msg\000"
 3535      6700
 3536              	.LASF112:
 3537 0013 474E5520 		.ascii	"GNU C17 9.2.1 20191025 (release) [ARM/arm-9-branch "
 3537      43313720 
 3537      392E322E 
 3537      31203230 
 3537      31393130 
 3538 0046 72657669 		.ascii	"revision 277599] -mcpu=arm1176jz-s -mno-thumb-inter"
 3538      73696F6E 
 3538      20323737 
 3538      3539395D 
 3538      202D6D63 
 3539 0079 776F726B 		.ascii	"work -mfloat-abi=soft -marm -march=armv6kz -ggdb -O"
 3539      202D6D66 
 3539      6C6F6174 
 3539      2D616269 
 3539      3D736F66 
 3540 00ac 32202D66 		.ascii	"2 -fomit-frame-pointer -ffunction-sections -fdata-s"
 3540      6F6D6974 
 3540      2D667261 
 3540      6D652D70 
 3540      6F696E74 
 3541 00df 65637469 		.ascii	"ections\000"
 3541      6F6E7300 
 3542              	.LASF104:
 3543 00e7 6368436F 		.ascii	"chCondInit\000"
 3543      6E64496E 
 3543      697400
 3544              	.LASF70:
 3545 00f2 7264796D 		.ascii	"rdymsg\000"
 3545      736700
 3546              	.LASF62:
 3547 00f9 76746C69 		.ascii	"vtlist\000"
 3547      737400
 3548              	.LASF12:
 3549 0100 6C6F6E67 		.ascii	"long long unsigned int\000"
 3549      206C6F6E 
 3549      6720756E 
 3549      7369676E 
 3549      65642069 
 3550              	.LASF81:
 3551 0117 63685F74 		.ascii	"ch_threadsize\000"
 3551      68726561 
 3551      6473697A 
 3551      6500
 3552              	.LASF71:
 3553 0125 65786974 		.ascii	"exitcode\000"
 3553      636F6465 
 3553      00
ARM GAS  /tmp/ccTOBiaP.s 			page 64


 3554              	.LASF115:
 3555 012e 6368436F 		.ascii	"chCondBroadcastI\000"
 3555      6E644272 
 3555      6F616463 
 3555      61737449 
 3555      00
 3556              	.LASF24:
 3557 013f 705F7072 		.ascii	"p_prio\000"
 3557      696F00
 3558              	.LASF88:
 3559 0146 63665F6F 		.ascii	"cf_off_state\000"
 3559      66665F73 
 3559      74617465 
 3559      00
 3560              	.LASF113:
 3561 0153 2E2E2F6F 		.ascii	"../os/kernel/src/chcond.c\000"
 3561      732F6B65 
 3561      726E656C 
 3561      2F737263 
 3561      2F636863 
 3562              	.LASF4:
 3563 016d 6C6F6E67 		.ascii	"long long int\000"
 3563      206C6F6E 
 3563      6720696E 
 3563      7400
 3564              	.LASF1:
 3565 017b 7369676E 		.ascii	"signed char\000"
 3565      65642063 
 3565      68617200 
 3566              	.LASF87:
 3567 0187 63665F6F 		.ascii	"cf_off_stklimit\000"
 3567      66665F73 
 3567      746B6C69 
 3567      6D697400 
 3568              	.LASF89:
 3569 0197 63665F6F 		.ascii	"cf_off_flags\000"
 3569      66665F66 
 3569      6C616773 
 3569      00
 3570              	.LASF65:
 3571 01a4 6D5F7175 		.ascii	"m_queue\000"
 3571      65756500 
 3572              	.LASF16:
 3573 01ac 74736C69 		.ascii	"tslices_t\000"
 3573      6365735F 
 3573      7400
 3574              	.LASF68:
 3575 01b6 436F6E64 		.ascii	"CondVar\000"
 3575      56617200 
 3576              	.LASF3:
 3577 01be 6C6F6E67 		.ascii	"long int\000"
 3577      20696E74 
 3577      00
 3578              	.LASF14:
 3579 01c7 74737461 		.ascii	"tstate_t\000"
 3579      74655F74 
 3579      00
ARM GAS  /tmp/ccTOBiaP.s 			page 65


 3580              	.LASF107:
 3581 01d0 63684D74 		.ascii	"chMtxLockS\000"
 3581      784C6F63 
 3581      6B5300
 3582              	.LASF8:
 3583 01db 75696E74 		.ascii	"uint16_t\000"
 3583      31365F74 
 3583      00
 3584              	.LASF93:
 3585 01e4 63686465 		.ascii	"chdebug_t\000"
 3585      6275675F 
 3585      7400
 3586              	.LASF26:
 3587 01ee 705F6E65 		.ascii	"p_newer\000"
 3587      77657200 
 3588              	.LASF95:
 3589 01f6 5F69646C 		.ascii	"_idle_thread_wa\000"
 3589      655F7468 
 3589      72656164 
 3589      5F776100 
 3590              	.LASF110:
 3591 0206 63685363 		.ascii	"chSchRescheduleS\000"
 3591      68526573 
 3591      63686564 
 3591      756C6553 
 3591      00
 3592              	.LASF58:
 3593 0217 725F6E65 		.ascii	"r_newer\000"
 3593      77657200 
 3594              	.LASF43:
 3595 021f 72656761 		.ascii	"regarm_t\000"
 3595      726D5F74 
 3595      00
 3596              	.LASF49:
 3597 0228 76745F70 		.ascii	"vt_prev\000"
 3597      72657600 
 3598              	.LASF103:
 3599 0230 6368436F 		.ascii	"chCondSignal\000"
 3599      6E645369 
 3599      676E616C 
 3599      00
 3600              	.LASF105:
 3601 023d 63684D74 		.ascii	"chMtxUnlockS\000"
 3601      78556E6C 
 3601      6F636B53 
 3601      00
 3602              	.LASF0:
 3603 024a 756E7369 		.ascii	"unsigned int\000"
 3603      676E6564 
 3603      20696E74 
 3603      00
 3604              	.LASF48:
 3605 0257 76745F6E 		.ascii	"vt_next\000"
 3605      65787400 
 3606              	.LASF11:
 3607 025f 6C6F6E67 		.ascii	"long unsigned int\000"
 3607      20756E73 
ARM GAS  /tmp/ccTOBiaP.s 			page 66


 3607      69676E65 
 3607      6420696E 
 3607      7400
 3608              	.LASF94:
 3609 0271 63685F64 		.ascii	"ch_debug\000"
 3609      65627567 
 3609      00
 3610              	.LASF75:
 3611 027a 63685F69 		.ascii	"ch_identifier\000"
 3611      64656E74 
 3611      69666965 
 3611      7200
 3612              	.LASF45:
 3613 0288 636F6E74 		.ascii	"context\000"
 3613      65787400 
 3614              	.LASF9:
 3615 0290 73686F72 		.ascii	"short unsigned int\000"
 3615      7420756E 
 3615      7369676E 
 3615      65642069 
 3615      6E7400
 3616              	.LASF111:
 3617 02a3 63685363 		.ascii	"chSchWakeupS\000"
 3617      6857616B 
 3617      65757053 
 3617      00
 3618              	.LASF18:
 3619 02b0 6D73675F 		.ascii	"msg_t\000"
 3619      7400
 3620              	.LASF117:
 3621 02b6 7072696F 		.ascii	"prio_insert\000"
 3621      5F696E73 
 3621      65727400 
 3622              	.LASF13:
 3623 02c2 746D6F64 		.ascii	"tmode_t\000"
 3623      655F7400 
 3624              	.LASF41:
 3625 02ca 54687265 		.ascii	"ThreadsList\000"
 3625      6164734C 
 3625      69737400 
 3626              	.LASF19:
 3627 02d6 6576656E 		.ascii	"eventmask_t\000"
 3627      746D6173 
 3627      6B5F7400 
 3628              	.LASF64:
 3629 02e2 4D757465 		.ascii	"Mutex\000"
 3629      7800
 3630              	.LASF42:
 3631 02e8 73746B61 		.ascii	"stkalign_t\000"
 3631      6C69676E 
 3631      5F7400
 3632              	.LASF76:
 3633 02f3 63685F7A 		.ascii	"ch_zero\000"
 3633      65726F00 
 3634              	.LASF90:
 3635 02fb 63665F6F 		.ascii	"cf_off_refs\000"
 3635      66665F72 
ARM GAS  /tmp/ccTOBiaP.s 			page 67


 3635      65667300 
 3636              	.LASF50:
 3637 0307 76745F74 		.ascii	"vt_time\000"
 3637      696D6500 
 3638              	.LASF51:
 3639 030f 76745F66 		.ascii	"vt_func\000"
 3639      756E6300 
 3640              	.LASF97:
 3641 0317 6368436F 		.ascii	"chCondWaitTimeoutS\000"
 3641      6E645761 
 3641      69745469 
 3641      6D656F75 
 3641      745300
 3642              	.LASF80:
 3643 032a 63685F74 		.ascii	"ch_timesize\000"
 3643      696D6573 
 3643      697A6500 
 3644              	.LASF86:
 3645 0336 63665F6F 		.ascii	"cf_off_name\000"
 3645      66665F6E 
 3645      616D6500 
 3646              	.LASF27:
 3647 0342 705F6F6C 		.ascii	"p_older\000"
 3647      64657200 
 3648              	.LASF57:
 3649 034a 725F6374 		.ascii	"r_ctx\000"
 3649      7800
 3650              	.LASF40:
 3651 0350 54687265 		.ascii	"ThreadsQueue\000"
 3651      61647351 
 3651      75657565 
 3651      00
 3652              	.LASF77:
 3653 035d 63685F73 		.ascii	"ch_size\000"
 3653      697A6500 
 3654              	.LASF96:
 3655 0365 74696D65 		.ascii	"time\000"
 3655      00
 3656              	.LASF60:
 3657 036a 725F6375 		.ascii	"r_current\000"
 3657      7272656E 
 3657      7400
 3658              	.LASF59:
 3659 0374 725F6F6C 		.ascii	"r_older\000"
 3659      64657200 
 3660              	.LASF101:
 3661 037c 6368436F 		.ascii	"chCondBroadcast\000"
 3661      6E644272 
 3661      6F616463 
 3661      61737400 
 3662              	.LASF15:
 3663 038c 74726566 		.ascii	"trefs_t\000"
 3663      735F7400 
 3664              	.LASF79:
 3665 0394 63685F70 		.ascii	"ch_ptrsize\000"
 3665      74727369 
 3665      7A6500
ARM GAS  /tmp/ccTOBiaP.s 			page 68


 3666              	.LASF23:
 3667 039f 705F7072 		.ascii	"p_prev\000"
 3667      657600
 3668              	.LASF17:
 3669 03a6 74707269 		.ascii	"tprio_t\000"
 3669      6F5F7400 
 3670              	.LASF102:
 3671 03ae 6368436F 		.ascii	"chCondSignalI\000"
 3671      6E645369 
 3671      676E616C 
 3671      4900
 3672              	.LASF5:
 3673 03bc 696E7433 		.ascii	"int32_t\000"
 3673      325F7400 
 3674              	.LASF7:
 3675 03c4 756E7369 		.ascii	"unsigned char\000"
 3675      676E6564 
 3675      20636861 
 3675      7200
 3676              	.LASF38:
 3677 03d2 705F6D74 		.ascii	"p_mtxlist\000"
 3677      786C6973 
 3677      7400
 3678              	.LASF2:
 3679 03dc 73686F72 		.ascii	"short int\000"
 3679      7420696E 
 3679      7400
 3680              	.LASF29:
 3681 03e6 705F7374 		.ascii	"p_state\000"
 3681      61746500 
 3682              	.LASF32:
 3683 03ee 705F7072 		.ascii	"p_preempt\000"
 3683      65656D70 
 3683      7400
 3684              	.LASF92:
 3685 03f8 63665F6F 		.ascii	"cf_off_time\000"
 3685      66665F74 
 3685      696D6500 
 3686              	.LASF56:
 3687 0404 725F7072 		.ascii	"r_prio\000"
 3687      696F00
 3688              	.LASF73:
 3689 040b 65776D61 		.ascii	"ewmask\000"
 3689      736B00
 3690              	.LASF22:
 3691 0412 705F6E65 		.ascii	"p_next\000"
 3691      787400
 3692              	.LASF91:
 3693 0419 63665F6F 		.ascii	"cf_off_preempt\000"
 3693      66665F70 
 3693      7265656D 
 3693      707400
 3694              	.LASF30:
 3695 0428 705F666C 		.ascii	"p_flags\000"
 3695      61677300 
 3696              	.LASF21:
 3697 0430 54687265 		.ascii	"Thread\000"
ARM GAS  /tmp/ccTOBiaP.s 			page 69


 3697      616400
 3698              	.LASF69:
 3699 0437 635F7175 		.ascii	"c_queue\000"
 3699      65756500 
 3700              	.LASF108:
 3701 043f 63685363 		.ascii	"chSchGoSleepS\000"
 3701      68476F53 
 3701      6C656570 
 3701      5300
 3702              	.LASF37:
 3703 044d 705F6570 		.ascii	"p_epending\000"
 3703      656E6469 
 3703      6E6700
 3704              	.LASF10:
 3705 0458 75696E74 		.ascii	"uint32_t\000"
 3705      33325F74 
 3705      00
 3706              	.LASF82:
 3707 0461 63665F6F 		.ascii	"cf_off_prio\000"
 3707      66665F70 
 3707      72696F00 
 3708              	.LASF55:
 3709 046d 725F7175 		.ascii	"r_queue\000"
 3709      65756500 
 3710              	.LASF47:
 3711 0475 56697274 		.ascii	"VirtualTimer\000"
 3711      75616C54 
 3711      696D6572 
 3711      00
 3712              	.LASF114:
 3713 0482 2F686F6D 		.ascii	"/home/taskman/arduino/embedded-wind-turbine/Data_Co"
 3713      652F7461 
 3713      736B6D61 
 3713      6E2F6172 
 3713      6475696E 
 3714 04b5 6C6C6563 		.ascii	"llector/raspberry/compiler/ChibiOS-RPi/led\000"
 3714      746F722F 
 3714      72617370 
 3714      62657272 
 3714      792F636F 
 3715              	.LASF74:
 3716 04e0 63686172 		.ascii	"char\000"
 3716      00
 3717              	.LASF116:
 3718 04e5 6669666F 		.ascii	"fifo_remove\000"
 3718      5F72656D 
 3718      6F766500 
 3719              	.LASF99:
 3720 04f1 6368436F 		.ascii	"chCondWaitS\000"
 3720      6E645761 
 3720      69745300 
 3721              	.LASF109:
 3722 04fd 63685363 		.ascii	"chSchReadyI\000"
 3722      68526561 
 3722      64794900 
 3723              	.LASF67:
 3724 0509 6D5F6E65 		.ascii	"m_next\000"
ARM GAS  /tmp/ccTOBiaP.s 			page 70


 3724      787400
 3725              	.LASF20:
 3726 0510 73797374 		.ascii	"systime_t\000"
 3726      696D655F 
 3726      7400
 3727              	.LASF39:
 3728 051a 705F7265 		.ascii	"p_realprio\000"
 3728      616C7072 
 3728      696F00
 3729              	.LASF46:
 3730 0525 76746675 		.ascii	"vtfunc_t\000"
 3730      6E635F74 
 3730      00
 3731              	.LASF100:
 3732 052e 6368436F 		.ascii	"chCondWait\000"
 3732      6E645761 
 3732      697400
 3733              	.LASF33:
 3734 0539 705F7469 		.ascii	"p_time\000"
 3734      6D6500
 3735              	.LASF44:
 3736 0540 696E7463 		.ascii	"intctx\000"
 3736      747800
 3737              	.LASF35:
 3738 0547 705F6D73 		.ascii	"p_msgqueue\000"
 3738      67717565 
 3738      756500
 3739              	.LASF52:
 3740 0552 76745F70 		.ascii	"vt_par\000"
 3740      617200
 3741              	.LASF83:
 3742 0559 63665F6F 		.ascii	"cf_off_ctx\000"
 3742      66665F63 
 3742      747800
 3743              	.LASF31:
 3744 0564 705F7265 		.ascii	"p_refs\000"
 3744      667300
 3745              	.LASF61:
 3746 056b 52656164 		.ascii	"ReadyList\000"
 3746      794C6973 
 3746      7400
 3747              	.LASF63:
 3748 0575 726C6973 		.ascii	"rlist\000"
 3748      7400
 3749              	.LASF6:
 3750 057b 75696E74 		.ascii	"uint8_t\000"
 3750      385F7400 
 3751              	.LASF72:
 3752 0583 77746F62 		.ascii	"wtobjp\000"
 3752      6A7000
 3753              	.LASF84:
 3754 058a 63665F6F 		.ascii	"cf_off_newer\000"
 3754      66665F6E 
 3754      65776572 
 3754      00
 3755              	.LASF28:
 3756 0597 705F6E61 		.ascii	"p_name\000"
ARM GAS  /tmp/ccTOBiaP.s 			page 71


 3756      6D6500
 3757              	.LASF98:
 3758 059e 6368436F 		.ascii	"chCondWaitTimeout\000"
 3758      6E645761 
 3758      69745469 
 3758      6D656F75 
 3758      7400
 3759              	.LASF53:
 3760 05b0 76745F73 		.ascii	"vt_systime\000"
 3760      79737469 
 3760      6D6500
 3761              	.LASF106:
 3762 05bb 63685363 		.ascii	"chSchGoSleepTimeoutS\000"
 3762      68476F53 
 3762      6C656570 
 3762      54696D65 
 3762      6F757453 
 3763              	.LASF78:
 3764 05d0 63685F76 		.ascii	"ch_version\000"
 3764      65727369 
 3764      6F6E00
 3765              	.LASF54:
 3766 05db 56544C69 		.ascii	"VTList\000"
 3766      737400
 3767              	.LASF66:
 3768 05e2 6D5F6F77 		.ascii	"m_owner\000"
 3768      6E657200 
 3769              	.LASF25:
 3770 05ea 705F6374 		.ascii	"p_ctx\000"
 3770      7800
 3771              	.LASF34:
 3772 05f0 705F7761 		.ascii	"p_waiting\000"
 3772      6974696E 
 3772      6700
 3773              		.ident	"GCC: (15:9-2019-q4-0ubuntu1) 9.2.1 20191025 (release) [ARM/arm-9-branch revision 277599]"
ARM GAS  /tmp/ccTOBiaP.s 			page 72


DEFINED SYMBOLS
                            *ABS*:0000000000000000 chcond.c
     /tmp/ccTOBiaP.s:16     .text.chCondInit:0000000000000000 $a
     /tmp/ccTOBiaP.s:23     .text.chCondInit:0000000000000000 chCondInit
     /tmp/ccTOBiaP.s:44     .text.chCondSignal:0000000000000000 $a
     /tmp/ccTOBiaP.s:50     .text.chCondSignal:0000000000000000 chCondSignal
     /tmp/ccTOBiaP.s:143    .text.chCondSignalI:0000000000000000 $a
     /tmp/ccTOBiaP.s:149    .text.chCondSignalI:0000000000000000 chCondSignalI
     /tmp/ccTOBiaP.s:209    .text.chCondBroadcast:0000000000000000 $a
     /tmp/ccTOBiaP.s:215    .text.chCondBroadcast:0000000000000000 chCondBroadcast
     /tmp/ccTOBiaP.s:318    .text.chCondBroadcastI:0000000000000000 $a
     /tmp/ccTOBiaP.s:324    .text.chCondBroadcastI:0000000000000000 chCondBroadcastI
     /tmp/ccTOBiaP.s:393    .text.chCondWaitS:0000000000000000 $a
     /tmp/ccTOBiaP.s:399    .text.chCondWaitS:0000000000000000 chCondWaitS
     /tmp/ccTOBiaP.s:518    .text.chCondWaitS:0000000000000074 $d
     /tmp/ccTOBiaP.s:523    .text.chCondWait:0000000000000000 $a
     /tmp/ccTOBiaP.s:529    .text.chCondWait:0000000000000000 chCondWait
     /tmp/ccTOBiaP.s:572    .text.chCondWaitTimeoutS:0000000000000000 $a
     /tmp/ccTOBiaP.s:578    .text.chCondWaitTimeoutS:0000000000000000 chCondWaitTimeoutS
     /tmp/ccTOBiaP.s:705    .text.chCondWaitTimeoutS:0000000000000084 $d
     /tmp/ccTOBiaP.s:710    .text.chCondWaitTimeout:0000000000000000 $a
     /tmp/ccTOBiaP.s:716    .text.chCondWaitTimeout:0000000000000000 chCondWaitTimeout

UNDEFINED SYMBOLS
chSchWakeupS
chSchReadyI
chSchRescheduleS
chMtxUnlockS
chSchGoSleepS
chMtxLockS
rlist
chSchGoSleepTimeoutS
