ARM GAS  /tmp/ccoP3ArB.s 			page 1


   1              		.cpu arm1176jz-s
   2              		.eabi_attribute 20, 1
   3              		.eabi_attribute 21, 1
   4              		.eabi_attribute 23, 3
   5              		.eabi_attribute 24, 1
   6              		.eabi_attribute 25, 1
   7              		.eabi_attribute 26, 1
   8              		.eabi_attribute 30, 2
   9              		.eabi_attribute 34, 1
  10              		.eabi_attribute 18, 4
  11              		.file	"chdynamic.c"
  12              		.text
  13              	.Ltext0:
  14              		.cfi_sections	.debug_frame
  15              		.section	.text.chThdAddRef,"ax",%progbits
  16              		.align	2
  17              		.global	chThdAddRef
  18              		.arch armv6kz
  19              		.syntax unified
  20              		.arm
  21              		.fpu softvfp
  22              		.type	chThdAddRef, %function
  23              	chThdAddRef:
  24              	.LVL0:
  25              	.LFB7:
  26              		.file 1 "../os/kernel/src/chdynamic.c"
  27              		.loc 1 45 33 view -0
  28              		.cfi_startproc
  29              		@ args = 0, pretend = 0, frame = 0
  30              		@ frame_needed = 0, uses_anonymous_args = 0
  31              		@ link register save eliminated.
  32              		.loc 1 47 3 view .LVU1
  33              		.syntax divided
  34              	@ 47 "../os/kernel/src/chdynamic.c" 1
  35 0000 9FF021E3 		msr     CPSR_c, #0x9F
  36              	@ 0 "" 2
  37              		.loc 1 47 3 view .LVU2
  38              		.loc 1 47 14 view .LVU3
  39              		.loc 1 48 3 view .LVU4
  40              		.loc 1 48 76 view .LVU5
  41              		.loc 1 49 3 view .LVU6
  42              		.loc 1 49 13 is_stmt 0 view .LVU7
  43              		.arm
  44              		.syntax unified
  45 0004 1E20D0E5 		ldrb	r2, [r0, #30]	@ zero_extendqisi2
  46 0008 012082E2 		add	r2, r2, #1
  47 000c 1E20C0E5 		strb	r2, [r0, #30]
  48              		.loc 1 50 3 is_stmt 1 view .LVU8
  49              		.loc 1 50 3 view .LVU9
  50              		.syntax divided
  51              	@ 50 "../os/kernel/src/chdynamic.c" 1
  52 0010 1FF021E3 		msr     CPSR_c, #0x1F
  53              	@ 0 "" 2
  54              		.loc 1 50 16 view .LVU10
  55              		.loc 1 51 3 view .LVU11
  56              		.loc 1 52 1 is_stmt 0 view .LVU12
  57              		.arm
ARM GAS  /tmp/ccoP3ArB.s 			page 2


  58              		.syntax unified
  59 0014 1EFF2FE1 		bx	lr
  60              		.cfi_endproc
  61              	.LFE7:
  62              		.size	chThdAddRef, .-chThdAddRef
  63              		.section	.text.chThdRelease,"ax",%progbits
  64              		.align	2
  65              		.global	chThdRelease
  66              		.syntax unified
  67              		.arm
  68              		.fpu softvfp
  69              		.type	chThdRelease, %function
  70              	chThdRelease:
  71              	.LVL1:
  72              	.LFB8:
  73              		.loc 1 67 31 is_stmt 1 view -0
  74              		.cfi_startproc
  75              		@ args = 0, pretend = 0, frame = 0
  76              		@ frame_needed = 0, uses_anonymous_args = 0
  77              		@ link register save eliminated.
  78              		.loc 1 68 3 view .LVU14
  79              		.loc 1 70 3 view .LVU15
  80              		.syntax divided
  81              	@ 70 "../os/kernel/src/chdynamic.c" 1
  82 0000 9FF021E3 		msr     CPSR_c, #0x9F
  83              	@ 0 "" 2
  84              		.loc 1 70 3 view .LVU16
  85              		.loc 1 70 14 view .LVU17
  86              		.loc 1 71 3 view .LVU18
  87              		.loc 1 71 70 view .LVU19
  88              		.loc 1 72 3 view .LVU20
  89              		.loc 1 72 10 is_stmt 0 view .LVU21
  90              		.arm
  91              		.syntax unified
  92 0004 1E30D0E5 		ldrb	r3, [r0, #30]	@ zero_extendqisi2
  93 0008 013043E2 		sub	r3, r3, #1
  94 000c 7330EFE6 		uxtb	r3, r3
  95              		.loc 1 72 8 view .LVU22
  96 0010 1E30C0E5 		strb	r3, [r0, #30]
  97              	.LVL2:
  98              		.loc 1 73 3 is_stmt 1 view .LVU23
  99              		.loc 1 73 3 view .LVU24
 100              		.syntax divided
 101              	@ 73 "../os/kernel/src/chdynamic.c" 1
 102 0014 1FF021E3 		msr     CPSR_c, #0x1F
 103              	@ 0 "" 2
 104              		.loc 1 73 16 view .LVU25
 105              		.loc 1 78 3 view .LVU26
 106              		.loc 1 78 6 is_stmt 0 view .LVU27
 107              		.arm
 108              		.syntax unified
 109 0018 000053E3 		cmp	r3, #0
 110 001c 1EFF2F11 		bxne	lr
 111              		.loc 1 78 19 discriminator 1 view .LVU28
 112 0020 1C30D0E5 		ldrb	r3, [r0, #28]	@ zero_extendqisi2
 113              	.LVL3:
 114              		.loc 1 78 19 discriminator 1 view .LVU29
ARM GAS  /tmp/ccoP3ArB.s 			page 3


 115 0024 0E0053E3 		cmp	r3, #14
 116 0028 1EFF2F11 		bxne	lr
 117              		.loc 1 79 5 is_stmt 1 view .LVU30
 118 002c 1D30D0E5 		ldrb	r3, [r0, #29]	@ zero_extendqisi2
 119 0030 033003E2 		and	r3, r3, #3
 120 0034 010053E3 		cmp	r3, #1
 121 0038 1EFF2F11 		bxne	lr
 122              		.loc 1 83 7 view .LVU31
 123 003c 141090E5 		ldr	r1, [r0, #20]
 124 0040 103090E5 		ldr	r3, [r0, #16]
 125 0044 103081E5 		str	r3, [r1, #16]
 126              	.LVL4:
 127              		.loc 1 83 7 view .LVU32
 128 0048 141083E5 		str	r1, [r3, #20]
 129              		.loc 1 83 21 view .LVU33
 130              		.loc 1 85 7 view .LVU34
 131 004c FEFFFFEA 		b	chHeapFree
 132              	.LVL5:
 133              		.loc 1 85 7 is_stmt 0 view .LVU35
 134              		.cfi_endproc
 135              	.LFE8:
 136              		.size	chThdRelease, .-chThdRelease
 137              		.section	.text.chThdCreateFromHeap,"ax",%progbits
 138              		.align	2
 139              		.global	chThdCreateFromHeap
 140              		.syntax unified
 141              		.arm
 142              		.fpu softvfp
 143              		.type	chThdCreateFromHeap, %function
 144              	chThdCreateFromHeap:
 145              	.LVL6:
 146              	.LFB9:
 147              		.loc 1 124 66 is_stmt 1 view -0
 148              		.cfi_startproc
 149              		@ args = 4, pretend = 0, frame = 0
 150              		@ frame_needed = 0, uses_anonymous_args = 0
 151              		.loc 1 125 3 view .LVU37
 152              		.loc 1 126 3 view .LVU38
 153              		.loc 1 128 3 view .LVU39
 154              		.loc 1 124 66 is_stmt 0 view .LVU40
 155 0000 F0402DE9 		push	{r4, r5, r6, r7, lr}
 156              		.cfi_def_cfa_offset 20
 157              		.cfi_offset 4, -20
 158              		.cfi_offset 5, -16
 159              		.cfi_offset 6, -12
 160              		.cfi_offset 7, -8
 161              		.cfi_offset 14, -4
 162 0004 0CD04DE2 		sub	sp, sp, #12
 163              		.cfi_def_cfa_offset 32
 164              		.loc 1 124 66 view .LVU41
 165 0008 0260A0E1 		mov	r6, r2
 166 000c 0370A0E1 		mov	r7, r3
 167 0010 0150A0E1 		mov	r5, r1
 168              		.loc 1 128 9 view .LVU42
 169 0014 FEFFFFEB 		bl	chHeapAlloc
 170              	.LVL7:
 171              		.loc 1 129 3 is_stmt 1 view .LVU43
ARM GAS  /tmp/ccoP3ArB.s 			page 4


 172              		.loc 1 129 6 is_stmt 0 view .LVU44
 173 0018 004050E2 		subs	r4, r0, #0
 174 001c 0C00000A 		beq	.L5
 175              		.loc 1 141 3 is_stmt 1 view .LVU45
 176              		.syntax divided
 177              	@ 141 "../os/kernel/src/chdynamic.c" 1
 178 0020 9FF021E3 		msr     CPSR_c, #0x9F
 179              	@ 0 "" 2
 180              		.loc 1 141 3 view .LVU46
 181              		.loc 1 141 14 view .LVU47
 182              		.loc 1 142 3 view .LVU48
 183              		.loc 1 142 8 is_stmt 0 view .LVU49
 184              		.arm
 185              		.syntax unified
 186 0024 20309DE5 		ldr	r3, [sp, #32]
 187 0028 0620A0E1 		mov	r2, r6
 188 002c 0510A0E1 		mov	r1, r5
 189 0030 00308DE5 		str	r3, [sp]
 190 0034 0730A0E1 		mov	r3, r7
 191 0038 FEFFFFEB 		bl	chThdCreateI
 192              	.LVL8:
 193              		.loc 1 143 15 view .LVU50
 194 003c 0130A0E3 		mov	r3, #1
 195              		.loc 1 144 3 view .LVU51
 196 0040 0010A0E3 		mov	r1, #0
 197              		.loc 1 143 15 view .LVU52
 198 0044 1D30C0E5 		strb	r3, [r0, #29]
 199              		.loc 1 142 8 view .LVU53
 200 0048 0040A0E1 		mov	r4, r0
 201              	.LVL9:
 202              		.loc 1 143 3 is_stmt 1 view .LVU54
 203              		.loc 1 144 3 view .LVU55
 204 004c FEFFFFEB 		bl	chSchWakeupS
 205              	.LVL10:
 206              		.loc 1 145 3 view .LVU56
 207              		.loc 1 145 3 view .LVU57
 208              		.syntax divided
 209              	@ 145 "../os/kernel/src/chdynamic.c" 1
 210 0050 1FF021E3 		msr     CPSR_c, #0x1F
 211              	@ 0 "" 2
 212              		.loc 1 145 16 view .LVU58
 213              		.loc 1 146 3 view .LVU59
 214              	.LVL11:
 215              		.arm
 216              		.syntax unified
 217              	.L5:
 218              		.loc 1 147 1 is_stmt 0 view .LVU60
 219 0054 0400A0E1 		mov	r0, r4
 220 0058 0CD08DE2 		add	sp, sp, #12
 221              		.cfi_def_cfa_offset 20
 222              		@ sp needed
 223 005c F080BDE8 		pop	{r4, r5, r6, r7, pc}
 224              		.loc 1 147 1 view .LVU61
 225              		.cfi_endproc
 226              	.LFE9:
 227              		.size	chThdCreateFromHeap, .-chThdCreateFromHeap
 228              		.text
ARM GAS  /tmp/ccoP3ArB.s 			page 5


 229              	.Letext0:
 230              		.file 2 "/usr/lib/gcc/arm-none-eabi/9.2.1/include/stddef.h"
 231              		.file 3 "/usr/lib/gcc/arm-none-eabi/9.2.1/include/stdint.h"
 232              		.file 4 "../os/ports/GCC/ARM/chtypes.h"
 233              		.file 5 "../os/kernel/include/chlists.h"
 234              		.file 6 "../os/kernel/include/chthreads.h"
 235              		.file 7 "../os/ports/GCC/ARM/chcore.h"
 236              		.file 8 "../os/kernel/include/chvt.h"
 237              		.file 9 "../os/kernel/include/chschd.h"
 238              		.file 10 "../os/kernel/include/chmtx.h"
 239              		.file 11 "../os/kernel/include/chmemcore.h"
 240              		.file 12 "../os/kernel/include/chheap.h"
 241              		.file 13 "../os/kernel/include/chregistry.h"
 242              		.file 14 "../os/kernel/include/ch.h"
 243              		.section	.debug_info,"",%progbits
 244              	.Ldebug_info0:
 245 0000 E1080000 		.4byte	0x8e1
 246 0004 0400     		.2byte	0x4
 247 0006 00000000 		.4byte	.Ldebug_abbrev0
 248 000a 04       		.byte	0x4
 249 000b 01       		.uleb128 0x1
 250 000c 0E000000 		.4byte	.LASF115
 251 0010 0C       		.byte	0xc
 252 0011 55040000 		.4byte	.LASF116
 253 0015 9C040000 		.4byte	.LASF117
 254 0019 00000000 		.4byte	.Ldebug_ranges0+0
 255 001d 00000000 		.4byte	0
 256 0021 00000000 		.4byte	.Ldebug_line0
 257 0025 02       		.uleb128 0x2
 258 0026 04       		.byte	0x4
 259 0027 05       		.byte	0x5
 260 0028 696E7400 		.ascii	"int\000"
 261 002c 03       		.uleb128 0x3
 262 002d 27020000 		.4byte	.LASF3
 263 0031 02       		.byte	0x2
 264 0032 D1       		.byte	0xd1
 265 0033 17       		.byte	0x17
 266 0034 38000000 		.4byte	0x38
 267 0038 04       		.uleb128 0x4
 268 0039 04       		.byte	0x4
 269 003a 07       		.byte	0x7
 270 003b 34020000 		.4byte	.LASF0
 271 003f 04       		.uleb128 0x4
 272 0040 01       		.byte	0x1
 273 0041 06       		.byte	0x6
 274 0042 64010000 		.4byte	.LASF1
 275 0046 04       		.uleb128 0x4
 276 0047 02       		.byte	0x2
 277 0048 05       		.byte	0x5
 278 0049 BD030000 		.4byte	.LASF2
 279 004d 03       		.uleb128 0x3
 280 004e 92030000 		.4byte	.LASF4
 281 0052 03       		.byte	0x3
 282 0053 28       		.byte	0x28
 283 0054 18       		.byte	0x18
 284 0055 59000000 		.4byte	0x59
 285 0059 04       		.uleb128 0x4
ARM GAS  /tmp/ccoP3ArB.s 			page 6


 286 005a 04       		.byte	0x4
 287 005b 05       		.byte	0x5
 288 005c BD010000 		.4byte	.LASF5
 289 0060 04       		.uleb128 0x4
 290 0061 08       		.byte	0x8
 291 0062 05       		.byte	0x5
 292 0063 56010000 		.4byte	.LASF6
 293 0067 03       		.uleb128 0x3
 294 0068 6B050000 		.4byte	.LASF7
 295 006c 03       		.byte	0x3
 296 006d 2E       		.byte	0x2e
 297 006e 18       		.byte	0x18
 298 006f 73000000 		.4byte	0x73
 299 0073 04       		.uleb128 0x4
 300 0074 01       		.byte	0x1
 301 0075 08       		.byte	0x8
 302 0076 9A030000 		.4byte	.LASF8
 303 007a 03       		.uleb128 0x3
 304 007b E3010000 		.4byte	.LASF9
 305 007f 03       		.byte	0x3
 306 0080 31       		.byte	0x31
 307 0081 19       		.byte	0x19
 308 0082 86000000 		.4byte	0x86
 309 0086 04       		.uleb128 0x4
 310 0087 02       		.byte	0x2
 311 0088 07       		.byte	0x7
 312 0089 8C020000 		.4byte	.LASF10
 313 008d 03       		.uleb128 0x3
 314 008e 72040000 		.4byte	.LASF11
 315 0092 03       		.byte	0x3
 316 0093 34       		.byte	0x34
 317 0094 19       		.byte	0x19
 318 0095 99000000 		.4byte	0x99
 319 0099 04       		.uleb128 0x4
 320 009a 04       		.byte	0x4
 321 009b 07       		.byte	0x7
 322 009c 56020000 		.4byte	.LASF12
 323 00a0 04       		.uleb128 0x4
 324 00a1 08       		.byte	0x8
 325 00a2 07       		.byte	0x7
 326 00a3 02010000 		.4byte	.LASF13
 327 00a7 03       		.uleb128 0x3
 328 00a8 B2020000 		.4byte	.LASF14
 329 00ac 04       		.byte	0x4
 330 00ad 2A       		.byte	0x2a
 331 00ae 19       		.byte	0x19
 332 00af 67000000 		.4byte	0x67
 333 00b3 03       		.uleb128 0x3
 334 00b4 DA010000 		.4byte	.LASF15
 335 00b8 04       		.byte	0x4
 336 00b9 2B       		.byte	0x2b
 337 00ba 19       		.byte	0x19
 338 00bb 67000000 		.4byte	0x67
 339 00bf 03       		.uleb128 0x3
 340 00c0 6B030000 		.4byte	.LASF16
 341 00c4 04       		.byte	0x4
 342 00c5 2C       		.byte	0x2c
ARM GAS  /tmp/ccoP3ArB.s 			page 7


 343 00c6 19       		.byte	0x19
 344 00c7 67000000 		.4byte	0x67
 345 00cb 03       		.uleb128 0x3
 346 00cc A6010000 		.4byte	.LASF17
 347 00d0 04       		.byte	0x4
 348 00d1 2D       		.byte	0x2d
 349 00d2 19       		.byte	0x19
 350 00d3 67000000 		.4byte	0x67
 351 00d7 03       		.uleb128 0x3
 352 00d8 8A030000 		.4byte	.LASF18
 353 00dc 04       		.byte	0x4
 354 00dd 2E       		.byte	0x2e
 355 00de 19       		.byte	0x19
 356 00df 8D000000 		.4byte	0x8d
 357 00e3 03       		.uleb128 0x3
 358 00e4 AC020000 		.4byte	.LASF19
 359 00e8 04       		.byte	0x4
 360 00e9 2F       		.byte	0x2f
 361 00ea 19       		.byte	0x19
 362 00eb 4D000000 		.4byte	0x4d
 363 00ef 03       		.uleb128 0x3
 364 00f0 C6020000 		.4byte	.LASF20
 365 00f4 04       		.byte	0x4
 366 00f5 31       		.byte	0x31
 367 00f6 19       		.byte	0x19
 368 00f7 8D000000 		.4byte	0x8d
 369 00fb 03       		.uleb128 0x3
 370 00fc 0B050000 		.4byte	.LASF21
 371 0100 04       		.byte	0x4
 372 0101 33       		.byte	0x33
 373 0102 19       		.byte	0x19
 374 0103 8D000000 		.4byte	0x8d
 375 0107 05       		.uleb128 0x5
 376 0108 FB000000 		.4byte	0xfb
 377 010c 03       		.uleb128 0x3
 378 010d 2A040000 		.4byte	.LASF22
 379 0111 05       		.byte	0x5
 380 0112 23       		.byte	0x23
 381 0113 17       		.byte	0x17
 382 0114 18010000 		.4byte	0x118
 383 0118 06       		.uleb128 0x6
 384 0119 2A040000 		.4byte	.LASF22
 385 011d 44       		.byte	0x44
 386 011e 06       		.byte	0x6
 387 011f 57       		.byte	0x57
 388 0120 08       		.byte	0x8
 389 0121 1D020000 		.4byte	0x21d
 390 0125 07       		.uleb128 0x7
 391 0126 FF030000 		.4byte	.LASF23
 392 012a 06       		.byte	0x6
 393 012b 58       		.byte	0x58
 394 012c 1A       		.byte	0x1a
 395 012d 41020000 		.4byte	0x241
 396 0131 00       		.byte	0
 397 0132 07       		.uleb128 0x7
 398 0133 83030000 		.4byte	.LASF24
 399 0137 06       		.byte	0x6
ARM GAS  /tmp/ccoP3ArB.s 			page 8


 400 0138 5A       		.byte	0x5a
 401 0139 1A       		.byte	0x1a
 402 013a 41020000 		.4byte	0x241
 403 013e 04       		.byte	0x4
 404 013f 07       		.uleb128 0x7
 405 0140 42010000 		.4byte	.LASF25
 406 0144 06       		.byte	0x6
 407 0145 5C       		.byte	0x5c
 408 0146 19       		.byte	0x19
 409 0147 D7000000 		.4byte	0xd7
 410 014b 08       		.byte	0x8
 411 014c 07       		.uleb128 0x7
 412 014d A6050000 		.4byte	.LASF26
 413 0151 06       		.byte	0x6
 414 0152 5D       		.byte	0x5d
 415 0153 19       		.byte	0x19
 416 0154 0C030000 		.4byte	0x30c
 417 0158 0C       		.byte	0xc
 418 0159 07       		.uleb128 0x7
 419 015a F6010000 		.4byte	.LASF27
 420 015e 06       		.byte	0x6
 421 015f 5F       		.byte	0x5f
 422 0160 1A       		.byte	0x1a
 423 0161 41020000 		.4byte	0x241
 424 0165 10       		.byte	0x10
 425 0166 07       		.uleb128 0x7
 426 0167 2B030000 		.4byte	.LASF28
 427 016b 06       		.byte	0x6
 428 016c 60       		.byte	0x60
 429 016d 1A       		.byte	0x1a
 430 016e 41020000 		.4byte	0x241
 431 0172 14       		.byte	0x14
 432 0173 07       		.uleb128 0x7
 433 0174 7A050000 		.4byte	.LASF29
 434 0178 06       		.byte	0x6
 435 0179 67       		.byte	0x67
 436 017a 1A       		.byte	0x1a
 437 017b C8050000 		.4byte	0x5c8
 438 017f 18       		.byte	0x18
 439 0180 07       		.uleb128 0x7
 440 0181 C7030000 		.4byte	.LASF30
 441 0185 06       		.byte	0x6
 442 0186 72       		.byte	0x72
 443 0187 19       		.byte	0x19
 444 0188 B3000000 		.4byte	0xb3
 445 018c 1C       		.byte	0x1c
 446 018d 07       		.uleb128 0x7
 447 018e 15040000 		.4byte	.LASF31
 448 0192 06       		.byte	0x6
 449 0193 76       		.byte	0x76
 450 0194 19       		.byte	0x19
 451 0195 A7000000 		.4byte	0xa7
 452 0199 1D       		.byte	0x1d
 453 019a 07       		.uleb128 0x7
 454 019b 54050000 		.4byte	.LASF32
 455 019f 06       		.byte	0x6
 456 01a0 7B       		.byte	0x7b
ARM GAS  /tmp/ccoP3ArB.s 			page 9


 457 01a1 19       		.byte	0x19
 458 01a2 BF000000 		.4byte	0xbf
 459 01a6 1E       		.byte	0x1e
 460 01a7 07       		.uleb128 0x7
 461 01a8 CF030000 		.4byte	.LASF33
 462 01ac 06       		.byte	0x6
 463 01ad 81       		.byte	0x81
 464 01ae 19       		.byte	0x19
 465 01af CB000000 		.4byte	0xcb
 466 01b3 1F       		.byte	0x1f
 467 01b4 07       		.uleb128 0x7
 468 01b5 29050000 		.4byte	.LASF34
 469 01b9 06       		.byte	0x6
 470 01ba 88       		.byte	0x88
 471 01bb 19       		.byte	0x19
 472 01bc 07010000 		.4byte	0x107
 473 01c0 20       		.byte	0x20
 474 01c1 08       		.uleb128 0x8
 475 01c2 705F7500 		.ascii	"p_u\000"
 476 01c6 06       		.byte	0x6
 477 01c7 AD       		.byte	0xad
 478 01c8 19       		.byte	0x19
 479 01c9 8E050000 		.4byte	0x58e
 480 01cd 24       		.byte	0x24
 481 01ce 07       		.uleb128 0x7
 482 01cf AC050000 		.4byte	.LASF35
 483 01d3 06       		.byte	0x6
 484 01d4 B2       		.byte	0xb2
 485 01d5 19       		.byte	0x19
 486 01d6 6A020000 		.4byte	0x26a
 487 01da 28       		.byte	0x28
 488 01db 07       		.uleb128 0x7
 489 01dc 37050000 		.4byte	.LASF36
 490 01e0 06       		.byte	0x6
 491 01e1 B8       		.byte	0xb8
 492 01e2 19       		.byte	0x19
 493 01e3 47020000 		.4byte	0x247
 494 01e7 2C       		.byte	0x2c
 495 01e8 07       		.uleb128 0x7
 496 01e9 08000000 		.4byte	.LASF37
 497 01ed 06       		.byte	0x6
 498 01ee BC       		.byte	0xbc
 499 01ef 19       		.byte	0x19
 500 01f0 E3000000 		.4byte	0xe3
 501 01f4 34       		.byte	0x34
 502 01f5 07       		.uleb128 0x7
 503 01f6 4A040000 		.4byte	.LASF38
 504 01fa 06       		.byte	0x6
 505 01fb C2       		.byte	0xc2
 506 01fc 19       		.byte	0x19
 507 01fd EF000000 		.4byte	0xef
 508 0201 38       		.byte	0x38
 509 0202 07       		.uleb128 0x7
 510 0203 B3030000 		.4byte	.LASF39
 511 0207 06       		.byte	0x6
 512 0208 C9       		.byte	0xc9
 513 0209 1A       		.byte	0x1a
ARM GAS  /tmp/ccoP3ArB.s 			page 10


 514 020a DA050000 		.4byte	0x5da
 515 020e 3C       		.byte	0x3c
 516 020f 07       		.uleb128 0x7
 517 0210 15050000 		.4byte	.LASF40
 518 0214 06       		.byte	0x6
 519 0215 CD       		.byte	0xcd
 520 0216 19       		.byte	0x19
 521 0217 D7000000 		.4byte	0xd7
 522 021b 40       		.byte	0x40
 523 021c 00       		.byte	0
 524 021d 09       		.uleb128 0x9
 525 021e 08       		.byte	0x8
 526 021f 05       		.byte	0x5
 527 0220 5A       		.byte	0x5a
 528 0221 09       		.byte	0x9
 529 0222 41020000 		.4byte	0x241
 530 0226 07       		.uleb128 0x7
 531 0227 FF030000 		.4byte	.LASF23
 532 022b 05       		.byte	0x5
 533 022c 5B       		.byte	0x5b
 534 022d 1A       		.byte	0x1a
 535 022e 41020000 		.4byte	0x241
 536 0232 00       		.byte	0
 537 0233 07       		.uleb128 0x7
 538 0234 83030000 		.4byte	.LASF24
 539 0238 05       		.byte	0x5
 540 0239 5D       		.byte	0x5d
 541 023a 1A       		.byte	0x1a
 542 023b 41020000 		.4byte	0x241
 543 023f 04       		.byte	0x4
 544 0240 00       		.byte	0
 545 0241 0A       		.uleb128 0xa
 546 0242 04       		.byte	0x4
 547 0243 0C010000 		.4byte	0x10c
 548 0247 03       		.uleb128 0x3
 549 0248 39030000 		.4byte	.LASF41
 550 024c 05       		.byte	0x5
 551 024d 5F       		.byte	0x5f
 552 024e 03       		.byte	0x3
 553 024f 1D020000 		.4byte	0x21d
 554 0253 09       		.uleb128 0x9
 555 0254 04       		.byte	0x4
 556 0255 05       		.byte	0x5
 557 0256 64       		.byte	0x64
 558 0257 09       		.byte	0x9
 559 0258 6A020000 		.4byte	0x26a
 560 025c 07       		.uleb128 0x7
 561 025d FF030000 		.4byte	.LASF23
 562 0261 05       		.byte	0x5
 563 0262 66       		.byte	0x66
 564 0263 16       		.byte	0x16
 565 0264 41020000 		.4byte	0x241
 566 0268 00       		.byte	0
 567 0269 00       		.byte	0
 568 026a 03       		.uleb128 0x3
 569 026b BA020000 		.4byte	.LASF42
 570 026f 05       		.byte	0x5
ARM GAS  /tmp/ccoP3ArB.s 			page 11


 571 0270 69       		.byte	0x69
 572 0271 03       		.byte	0x3
 573 0272 53020000 		.4byte	0x253
 574 0276 03       		.uleb128 0x3
 575 0277 E4020000 		.4byte	.LASF43
 576 027b 07       		.byte	0x7
 577 027c 9D       		.byte	0x9d
 578 027d 12       		.byte	0x12
 579 027e 8D000000 		.4byte	0x8d
 580 0282 03       		.uleb128 0x3
 581 0283 16020000 		.4byte	.LASF44
 582 0287 07       		.byte	0x7
 583 0288 A2       		.byte	0xa2
 584 0289 0F       		.byte	0xf
 585 028a 8E020000 		.4byte	0x28e
 586 028e 0B       		.uleb128 0xb
 587 028f 04       		.byte	0x4
 588 0290 06       		.uleb128 0x6
 589 0291 30050000 		.4byte	.LASF45
 590 0295 24       		.byte	0x24
 591 0296 07       		.byte	0x7
 592 0297 B9       		.byte	0xb9
 593 0298 08       		.byte	0x8
 594 0299 0C030000 		.4byte	0x30c
 595 029d 08       		.uleb128 0x8
 596 029e 723400   		.ascii	"r4\000"
 597 02a1 07       		.byte	0x7
 598 02a2 BA       		.byte	0xba
 599 02a3 11       		.byte	0x11
 600 02a4 82020000 		.4byte	0x282
 601 02a8 00       		.byte	0
 602 02a9 08       		.uleb128 0x8
 603 02aa 723500   		.ascii	"r5\000"
 604 02ad 07       		.byte	0x7
 605 02ae BB       		.byte	0xbb
 606 02af 11       		.byte	0x11
 607 02b0 82020000 		.4byte	0x282
 608 02b4 04       		.byte	0x4
 609 02b5 08       		.uleb128 0x8
 610 02b6 723600   		.ascii	"r6\000"
 611 02b9 07       		.byte	0x7
 612 02ba BC       		.byte	0xbc
 613 02bb 11       		.byte	0x11
 614 02bc 82020000 		.4byte	0x282
 615 02c0 08       		.byte	0x8
 616 02c1 08       		.uleb128 0x8
 617 02c2 723700   		.ascii	"r7\000"
 618 02c5 07       		.byte	0x7
 619 02c6 BD       		.byte	0xbd
 620 02c7 11       		.byte	0x11
 621 02c8 82020000 		.4byte	0x282
 622 02cc 0C       		.byte	0xc
 623 02cd 08       		.uleb128 0x8
 624 02ce 723800   		.ascii	"r8\000"
 625 02d1 07       		.byte	0x7
 626 02d2 BE       		.byte	0xbe
 627 02d3 11       		.byte	0x11
ARM GAS  /tmp/ccoP3ArB.s 			page 12


 628 02d4 82020000 		.4byte	0x282
 629 02d8 10       		.byte	0x10
 630 02d9 08       		.uleb128 0x8
 631 02da 723900   		.ascii	"r9\000"
 632 02dd 07       		.byte	0x7
 633 02de BF       		.byte	0xbf
 634 02df 11       		.byte	0x11
 635 02e0 82020000 		.4byte	0x282
 636 02e4 14       		.byte	0x14
 637 02e5 08       		.uleb128 0x8
 638 02e6 72313000 		.ascii	"r10\000"
 639 02ea 07       		.byte	0x7
 640 02eb C0       		.byte	0xc0
 641 02ec 11       		.byte	0x11
 642 02ed 82020000 		.4byte	0x282
 643 02f1 18       		.byte	0x18
 644 02f2 08       		.uleb128 0x8
 645 02f3 72313100 		.ascii	"r11\000"
 646 02f7 07       		.byte	0x7
 647 02f8 C1       		.byte	0xc1
 648 02f9 11       		.byte	0x11
 649 02fa 82020000 		.4byte	0x282
 650 02fe 1C       		.byte	0x1c
 651 02ff 08       		.uleb128 0x8
 652 0300 6C7200   		.ascii	"lr\000"
 653 0303 07       		.byte	0x7
 654 0304 C2       		.byte	0xc2
 655 0305 11       		.byte	0x11
 656 0306 82020000 		.4byte	0x282
 657 030a 20       		.byte	0x20
 658 030b 00       		.byte	0
 659 030c 06       		.uleb128 0x6
 660 030d 7F020000 		.4byte	.LASF46
 661 0311 04       		.byte	0x4
 662 0312 07       		.byte	0x7
 663 0313 CA       		.byte	0xca
 664 0314 08       		.byte	0x8
 665 0315 27030000 		.4byte	0x327
 666 0319 08       		.uleb128 0x8
 667 031a 72313300 		.ascii	"r13\000"
 668 031e 07       		.byte	0x7
 669 031f CB       		.byte	0xcb
 670 0320 12       		.byte	0x12
 671 0321 27030000 		.4byte	0x327
 672 0325 00       		.byte	0
 673 0326 00       		.byte	0
 674 0327 0A       		.uleb128 0xa
 675 0328 04       		.byte	0x4
 676 0329 90020000 		.4byte	0x290
 677 032d 03       		.uleb128 0x3
 678 032e 20050000 		.4byte	.LASF47
 679 0332 08       		.byte	0x8
 680 0333 4E       		.byte	0x4e
 681 0334 10       		.byte	0x10
 682 0335 39030000 		.4byte	0x339
 683 0339 0A       		.uleb128 0xa
 684 033a 04       		.byte	0x4
ARM GAS  /tmp/ccoP3ArB.s 			page 13


 685 033b 3F030000 		.4byte	0x33f
 686 033f 0C       		.uleb128 0xc
 687 0340 4A030000 		.4byte	0x34a
 688 0344 0D       		.uleb128 0xd
 689 0345 8E020000 		.4byte	0x28e
 690 0349 00       		.byte	0
 691 034a 03       		.uleb128 0x3
 692 034b 8F040000 		.4byte	.LASF48
 693 034f 08       		.byte	0x8
 694 0350 53       		.byte	0x53
 695 0351 1D       		.byte	0x1d
 696 0352 56030000 		.4byte	0x356
 697 0356 06       		.uleb128 0x6
 698 0357 8F040000 		.4byte	.LASF48
 699 035b 14       		.byte	0x14
 700 035c 08       		.byte	0x8
 701 035d 5A       		.byte	0x5a
 702 035e 08       		.byte	0x8
 703 035f A5030000 		.4byte	0x3a5
 704 0363 07       		.uleb128 0x7
 705 0364 41020000 		.4byte	.LASF49
 706 0368 08       		.byte	0x8
 707 0369 5B       		.byte	0x5b
 708 036a 1A       		.byte	0x1a
 709 036b A5030000 		.4byte	0x3a5
 710 036f 00       		.byte	0
 711 0370 07       		.uleb128 0x7
 712 0371 1F020000 		.4byte	.LASF50
 713 0375 08       		.byte	0x8
 714 0376 5D       		.byte	0x5d
 715 0377 1A       		.byte	0x1a
 716 0378 A5030000 		.4byte	0x3a5
 717 037c 04       		.byte	0x4
 718 037d 07       		.uleb128 0x7
 719 037e 03030000 		.4byte	.LASF51
 720 0382 08       		.byte	0x8
 721 0383 5F       		.byte	0x5f
 722 0384 19       		.byte	0x19
 723 0385 FB000000 		.4byte	0xfb
 724 0389 08       		.byte	0x8
 725 038a 07       		.uleb128 0x7
 726 038b 0B030000 		.4byte	.LASF52
 727 038f 08       		.byte	0x8
 728 0390 60       		.byte	0x60
 729 0391 19       		.byte	0x19
 730 0392 2D030000 		.4byte	0x32d
 731 0396 0C       		.byte	0xc
 732 0397 07       		.uleb128 0x7
 733 0398 42050000 		.4byte	.LASF53
 734 039c 08       		.byte	0x8
 735 039d 62       		.byte	0x62
 736 039e 1A       		.byte	0x1a
 737 039f 8E020000 		.4byte	0x28e
 738 03a3 10       		.byte	0x10
 739 03a4 00       		.byte	0
 740 03a5 0A       		.uleb128 0xa
 741 03a6 04       		.byte	0x4
ARM GAS  /tmp/ccoP3ArB.s 			page 14


 742 03a7 4A030000 		.4byte	0x34a
 743 03ab 09       		.uleb128 0x9
 744 03ac 10       		.byte	0x10
 745 03ad 08       		.byte	0x8
 746 03ae 6C       		.byte	0x6c
 747 03af 09       		.byte	0x9
 748 03b0 E9030000 		.4byte	0x3e9
 749 03b4 07       		.uleb128 0x7
 750 03b5 41020000 		.4byte	.LASF49
 751 03b9 08       		.byte	0x8
 752 03ba 6D       		.byte	0x6d
 753 03bb 1A       		.byte	0x1a
 754 03bc A5030000 		.4byte	0x3a5
 755 03c0 00       		.byte	0
 756 03c1 07       		.uleb128 0x7
 757 03c2 1F020000 		.4byte	.LASF50
 758 03c6 08       		.byte	0x8
 759 03c7 6F       		.byte	0x6f
 760 03c8 1A       		.byte	0x1a
 761 03c9 A5030000 		.4byte	0x3a5
 762 03cd 04       		.byte	0x4
 763 03ce 07       		.uleb128 0x7
 764 03cf 03030000 		.4byte	.LASF51
 765 03d3 08       		.byte	0x8
 766 03d4 71       		.byte	0x71
 767 03d5 19       		.byte	0x19
 768 03d6 FB000000 		.4byte	0xfb
 769 03da 08       		.byte	0x8
 770 03db 07       		.uleb128 0x7
 771 03dc 81050000 		.4byte	.LASF54
 772 03e0 08       		.byte	0x8
 773 03e1 72       		.byte	0x72
 774 03e2 19       		.byte	0x19
 775 03e3 07010000 		.4byte	0x107
 776 03e7 0C       		.byte	0xc
 777 03e8 00       		.byte	0
 778 03e9 03       		.uleb128 0x3
 779 03ea 97050000 		.4byte	.LASF55
 780 03ee 08       		.byte	0x8
 781 03ef 73       		.byte	0x73
 782 03f0 03       		.byte	0x3
 783 03f1 AB030000 		.4byte	0x3ab
 784 03f5 0E       		.uleb128 0xe
 785 03f6 EE000000 		.4byte	.LASF63
 786 03fa 08       		.byte	0x8
 787 03fb D1       		.byte	0xd1
 788 03fc 0F       		.byte	0xf
 789 03fd E9030000 		.4byte	0x3e9
 790 0401 09       		.uleb128 0x9
 791 0402 1C       		.byte	0x1c
 792 0403 09       		.byte	0x9
 793 0404 57       		.byte	0x57
 794 0405 09       		.byte	0x9
 795 0406 59040000 		.4byte	0x459
 796 040a 07       		.uleb128 0x7
 797 040b 87040000 		.4byte	.LASF56
 798 040f 09       		.byte	0x9
ARM GAS  /tmp/ccoP3ArB.s 			page 15


 799 0410 58       		.byte	0x58
 800 0411 19       		.byte	0x19
 801 0412 47020000 		.4byte	0x247
 802 0416 00       		.byte	0
 803 0417 07       		.uleb128 0x7
 804 0418 E5030000 		.4byte	.LASF57
 805 041c 09       		.byte	0x9
 806 041d 59       		.byte	0x59
 807 041e 19       		.byte	0x19
 808 041f D7000000 		.4byte	0xd7
 809 0423 08       		.byte	0x8
 810 0424 07       		.uleb128 0x7
 811 0425 33030000 		.4byte	.LASF58
 812 0429 09       		.byte	0x9
 813 042a 5B       		.byte	0x5b
 814 042b 19       		.byte	0x19
 815 042c 0C030000 		.4byte	0x30c
 816 0430 0C       		.byte	0xc
 817 0431 07       		.uleb128 0x7
 818 0432 0E020000 		.4byte	.LASF59
 819 0436 09       		.byte	0x9
 820 0437 5E       		.byte	0x5e
 821 0438 1A       		.byte	0x1a
 822 0439 41020000 		.4byte	0x241
 823 043d 10       		.byte	0x10
 824 043e 07       		.uleb128 0x7
 825 043f 58030000 		.4byte	.LASF60
 826 0443 09       		.byte	0x9
 827 0444 5F       		.byte	0x5f
 828 0445 1A       		.byte	0x1a
 829 0446 41020000 		.4byte	0x241
 830 044a 14       		.byte	0x14
 831 044b 07       		.uleb128 0x7
 832 044c 4E030000 		.4byte	.LASF61
 833 0450 09       		.byte	0x9
 834 0451 62       		.byte	0x62
 835 0452 1A       		.byte	0x1a
 836 0453 41020000 		.4byte	0x241
 837 0457 18       		.byte	0x18
 838 0458 00       		.byte	0
 839 0459 03       		.uleb128 0x3
 840 045a 5B050000 		.4byte	.LASF62
 841 045e 09       		.byte	0x9
 842 045f 64       		.byte	0x64
 843 0460 03       		.byte	0x3
 844 0461 01040000 		.4byte	0x401
 845 0465 0E       		.uleb128 0xe
 846 0466 65050000 		.4byte	.LASF64
 847 046a 09       		.byte	0x9
 848 046b 68       		.byte	0x68
 849 046c 12       		.byte	0x12
 850 046d 59040000 		.4byte	0x459
 851 0471 06       		.uleb128 0x6
 852 0472 D2020000 		.4byte	.LASF65
 853 0476 10       		.byte	0x10
 854 0477 0A       		.byte	0xa
 855 0478 25       		.byte	0x25
ARM GAS  /tmp/ccoP3ArB.s 			page 16


 856 0479 10       		.byte	0x10
 857 047a A6040000 		.4byte	0x4a6
 858 047e 07       		.uleb128 0x7
 859 047f 93010000 		.4byte	.LASF66
 860 0483 0A       		.byte	0xa
 861 0484 26       		.byte	0x26
 862 0485 19       		.byte	0x19
 863 0486 47020000 		.4byte	0x247
 864 048a 00       		.byte	0
 865 048b 07       		.uleb128 0x7
 866 048c 9E050000 		.4byte	.LASF67
 867 0490 0A       		.byte	0xa
 868 0491 28       		.byte	0x28
 869 0492 1A       		.byte	0x1a
 870 0493 41020000 		.4byte	0x241
 871 0497 08       		.byte	0x8
 872 0498 07       		.uleb128 0x7
 873 0499 04050000 		.4byte	.LASF68
 874 049d 0A       		.byte	0xa
 875 049e 2A       		.byte	0x2a
 876 049f 1A       		.byte	0x1a
 877 04a0 A6040000 		.4byte	0x4a6
 878 04a4 0C       		.byte	0xc
 879 04a5 00       		.byte	0
 880 04a6 0A       		.uleb128 0xa
 881 04a7 04       		.byte	0x4
 882 04a8 71040000 		.4byte	0x471
 883 04ac 03       		.uleb128 0x3
 884 04ad D2020000 		.4byte	.LASF65
 885 04b1 0A       		.byte	0xa
 886 04b2 2C       		.byte	0x2c
 887 04b3 03       		.byte	0x3
 888 04b4 71040000 		.4byte	0x471
 889 04b8 03       		.uleb128 0x3
 890 04b9 F5000000 		.4byte	.LASF69
 891 04bd 0B       		.byte	0xb
 892 04be 25       		.byte	0x25
 893 04bf 11       		.byte	0x11
 894 04c0 C4040000 		.4byte	0x4c4
 895 04c4 0A       		.uleb128 0xa
 896 04c5 04       		.byte	0x4
 897 04c6 CA040000 		.4byte	0x4ca
 898 04ca 0F       		.uleb128 0xf
 899 04cb 8E020000 		.4byte	0x28e
 900 04cf D9040000 		.4byte	0x4d9
 901 04d3 0D       		.uleb128 0xd
 902 04d4 2C000000 		.4byte	0x2c
 903 04d8 00       		.byte	0
 904 04d9 03       		.uleb128 0x3
 905 04da 60030000 		.4byte	.LASF70
 906 04de 0C       		.byte	0xc
 907 04df 2D       		.byte	0x2d
 908 04e0 1C       		.byte	0x1c
 909 04e1 E5040000 		.4byte	0x4e5
 910 04e5 06       		.uleb128 0x6
 911 04e6 B6050000 		.4byte	.LASF71
 912 04ea 1C       		.byte	0x1c
ARM GAS  /tmp/ccoP3ArB.s 			page 17


 913 04eb 0C       		.byte	0xc
 914 04ec 40       		.byte	0x40
 915 04ed 08       		.byte	0x8
 916 04ee 1A050000 		.4byte	0x51a
 917 04f2 07       		.uleb128 0x7
 918 04f3 A8030000 		.4byte	.LASF72
 919 04f7 0C       		.byte	0xc
 920 04f8 41       		.byte	0x41
 921 04f9 19       		.byte	0x19
 922 04fa B8040000 		.4byte	0x4b8
 923 04fe 00       		.byte	0
 924 04ff 07       		.uleb128 0x7
 925 0500 30010000 		.4byte	.LASF73
 926 0504 0C       		.byte	0xc
 927 0505 43       		.byte	0x43
 928 0506 19       		.byte	0x19
 929 0507 3C050000 		.4byte	0x53c
 930 050b 04       		.byte	0x4
 931 050c 07       		.uleb128 0x7
 932 050d 70010000 		.4byte	.LASF74
 933 0511 0C       		.byte	0xc
 934 0512 45       		.byte	0x45
 935 0513 19       		.byte	0x19
 936 0514 AC040000 		.4byte	0x4ac
 937 0518 0C       		.byte	0xc
 938 0519 00       		.byte	0
 939 051a 10       		.uleb128 0x10
 940 051b 04       		.byte	0x4
 941 051c 0C       		.byte	0xc
 942 051d 35       		.byte	0x35
 943 051e 05       		.byte	0x5
 944 051f 3C050000 		.4byte	0x53c
 945 0523 11       		.uleb128 0x11
 946 0524 3D010000 		.4byte	.LASF75
 947 0528 0C       		.byte	0xc
 948 0529 36       		.byte	0x36
 949 052a 1A       		.byte	0x1a
 950 052b 60050000 		.4byte	0x560
 951 052f 11       		.uleb128 0x11
 952 0530 FA040000 		.4byte	.LASF76
 953 0534 0C       		.byte	0xc
 954 0535 37       		.byte	0x37
 955 0536 1A       		.byte	0x1a
 956 0537 66050000 		.4byte	0x566
 957 053b 00       		.byte	0
 958 053c 12       		.uleb128 0x12
 959 053d EC030000 		.4byte	.LASF118
 960 0541 08       		.byte	0x8
 961 0542 0C       		.byte	0xc
 962 0543 32       		.byte	0x32
 963 0544 07       		.byte	0x7
 964 0545 60050000 		.4byte	0x560
 965 0549 11       		.uleb128 0x11
 966 054a 2E020000 		.4byte	.LASF77
 967 054e 0C       		.byte	0xc
 968 054f 33       		.byte	0x33
 969 0550 0E       		.byte	0xe
ARM GAS  /tmp/ccoP3ArB.s 			page 18


 970 0551 76020000 		.4byte	0x276
 971 0555 13       		.uleb128 0x13
 972 0556 6800     		.ascii	"h\000"
 973 0558 0C       		.byte	0xc
 974 0559 3A       		.byte	0x3a
 975 055a 05       		.byte	0x5
 976 055b 6C050000 		.4byte	0x56c
 977 055f 00       		.byte	0
 978 0560 0A       		.uleb128 0xa
 979 0561 04       		.byte	0x4
 980 0562 3C050000 		.4byte	0x53c
 981 0566 0A       		.uleb128 0xa
 982 0567 04       		.byte	0x4
 983 0568 D9040000 		.4byte	0x4d9
 984 056c 09       		.uleb128 0x9
 985 056d 08       		.byte	0x8
 986 056e 0C       		.byte	0xc
 987 056f 34       		.byte	0x34
 988 0570 03       		.byte	0x3
 989 0571 8E050000 		.4byte	0x58e
 990 0575 08       		.uleb128 0x8
 991 0576 7500     		.ascii	"u\000"
 992 0578 0C       		.byte	0xc
 993 0579 38       		.byte	0x38
 994 057a 07       		.byte	0x7
 995 057b 1A050000 		.4byte	0x51a
 996 057f 00       		.byte	0
 997 0580 07       		.uleb128 0x7
 998 0581 87020000 		.4byte	.LASF78
 999 0585 0C       		.byte	0xc
 1000 0586 39       		.byte	0x39
 1001 0587 19       		.byte	0x19
 1002 0588 2C000000 		.4byte	0x2c
 1003 058c 04       		.byte	0x4
 1004 058d 00       		.byte	0
 1005 058e 10       		.uleb128 0x10
 1006 058f 04       		.byte	0x4
 1007 0590 06       		.byte	0x6
 1008 0591 8F       		.byte	0x8f
 1009 0592 03       		.byte	0x3
 1010 0593 C8050000 		.4byte	0x5c8
 1011 0597 11       		.uleb128 0x11
 1012 0598 E7000000 		.4byte	.LASF79
 1013 059c 06       		.byte	0x6
 1014 059d 96       		.byte	0x96
 1015 059e 19       		.byte	0x19
 1016 059f E3000000 		.4byte	0xe3
 1017 05a3 11       		.uleb128 0x11
 1018 05a4 27010000 		.4byte	.LASF80
 1019 05a8 06       		.byte	0x6
 1020 05a9 9D       		.byte	0x9d
 1021 05aa 19       		.byte	0x19
 1022 05ab E3000000 		.4byte	0xe3
 1023 05af 11       		.uleb128 0x11
 1024 05b0 73050000 		.4byte	.LASF81
 1025 05b4 06       		.byte	0x6
 1026 05b5 A4       		.byte	0xa4
ARM GAS  /tmp/ccoP3ArB.s 			page 19


 1027 05b6 1A       		.byte	0x1a
 1028 05b7 8E020000 		.4byte	0x28e
 1029 05bb 11       		.uleb128 0x11
 1030 05bc F8030000 		.4byte	.LASF82
 1031 05c0 06       		.byte	0x6
 1032 05c1 AB       		.byte	0xab
 1033 05c2 19       		.byte	0x19
 1034 05c3 EF000000 		.4byte	0xef
 1035 05c7 00       		.byte	0
 1036 05c8 0A       		.uleb128 0xa
 1037 05c9 04       		.byte	0x4
 1038 05ca D5050000 		.4byte	0x5d5
 1039 05ce 04       		.uleb128 0x4
 1040 05cf 01       		.byte	0x1
 1041 05d0 08       		.byte	0x8
 1042 05d1 FF040000 		.4byte	.LASF83
 1043 05d5 14       		.uleb128 0x14
 1044 05d6 CE050000 		.4byte	0x5ce
 1045 05da 0A       		.uleb128 0xa
 1046 05db 04       		.byte	0x4
 1047 05dc AC040000 		.4byte	0x4ac
 1048 05e0 03       		.uleb128 0x3
 1049 05e1 00000000 		.4byte	.LASF84
 1050 05e5 06       		.byte	0x6
 1051 05e6 DE       		.byte	0xde
 1052 05e7 11       		.byte	0x11
 1053 05e8 EC050000 		.4byte	0x5ec
 1054 05ec 0A       		.uleb128 0xa
 1055 05ed 04       		.byte	0x4
 1056 05ee F2050000 		.4byte	0x5f2
 1057 05f2 0F       		.uleb128 0xf
 1058 05f3 E3000000 		.4byte	0xe3
 1059 05f7 01060000 		.4byte	0x601
 1060 05fb 0D       		.uleb128 0xd
 1061 05fc 8E020000 		.4byte	0x28e
 1062 0600 00       		.byte	0
 1063 0601 09       		.uleb128 0x9
 1064 0602 16       		.byte	0x16
 1065 0603 0D       		.byte	0xd
 1066 0604 25       		.byte	0x25
 1067 0605 09       		.byte	0x9
 1068 0606 F5060000 		.4byte	0x6f5
 1069 060a 07       		.uleb128 0x7
 1070 060b 71020000 		.4byte	.LASF85
 1071 060f 0D       		.byte	0xd
 1072 0610 26       		.byte	0x26
 1073 0611 0D       		.byte	0xd
 1074 0612 F5060000 		.4byte	0x6f5
 1075 0616 00       		.byte	0
 1076 0617 07       		.uleb128 0x7
 1077 0618 EF020000 		.4byte	.LASF86
 1078 061c 0D       		.byte	0xd
 1079 061d 27       		.byte	0x27
 1080 061e 0D       		.byte	0xd
 1081 061f 67000000 		.4byte	0x67
 1082 0623 04       		.byte	0x4
 1083 0624 07       		.uleb128 0x7
ARM GAS  /tmp/ccoP3ArB.s 			page 20


 1084 0625 46030000 		.4byte	.LASF87
 1085 0629 0D       		.byte	0xd
 1086 062a 28       		.byte	0x28
 1087 062b 0D       		.byte	0xd
 1088 062c 67000000 		.4byte	0x67
 1089 0630 05       		.byte	0x5
 1090 0631 07       		.uleb128 0x7
 1091 0632 8C050000 		.4byte	.LASF88
 1092 0636 0D       		.byte	0xd
 1093 0637 29       		.byte	0x29
 1094 0638 0D       		.byte	0xd
 1095 0639 7A000000 		.4byte	0x7a
 1096 063d 06       		.byte	0x6
 1097 063e 07       		.uleb128 0x7
 1098 063f 73030000 		.4byte	.LASF89
 1099 0643 0D       		.byte	0xd
 1100 0644 2A       		.byte	0x2a
 1101 0645 0D       		.byte	0xd
 1102 0646 67000000 		.4byte	0x67
 1103 064a 08       		.byte	0x8
 1104 064b 07       		.uleb128 0x7
 1105 064c 13030000 		.4byte	.LASF90
 1106 0650 0D       		.byte	0xd
 1107 0651 2B       		.byte	0x2b
 1108 0652 0D       		.byte	0xd
 1109 0653 67000000 		.4byte	0x67
 1110 0657 09       		.byte	0x9
 1111 0658 07       		.uleb128 0x7
 1112 0659 19010000 		.4byte	.LASF91
 1113 065d 0D       		.byte	0xd
 1114 065e 2C       		.byte	0x2c
 1115 065f 0D       		.byte	0xd
 1116 0660 67000000 		.4byte	0x67
 1117 0664 0A       		.byte	0xa
 1118 0665 07       		.uleb128 0x7
 1119 0666 7B040000 		.4byte	.LASF92
 1120 066a 0D       		.byte	0xd
 1121 066b 2D       		.byte	0x2d
 1122 066c 0D       		.byte	0xd
 1123 066d 67000000 		.4byte	0x67
 1124 0671 0B       		.byte	0xb
 1125 0672 07       		.uleb128 0x7
 1126 0673 49050000 		.4byte	.LASF93
 1127 0677 0D       		.byte	0xd
 1128 0678 2E       		.byte	0x2e
 1129 0679 0D       		.byte	0xd
 1130 067a 67000000 		.4byte	0x67
 1131 067e 0C       		.byte	0xc
 1132 067f 07       		.uleb128 0x7
 1133 0680 3D040000 		.4byte	.LASF94
 1134 0684 0D       		.byte	0xd
 1135 0685 2F       		.byte	0x2f
 1136 0686 0D       		.byte	0xd
 1137 0687 67000000 		.4byte	0x67
 1138 068b 0D       		.byte	0xd
 1139 068c 07       		.uleb128 0x7
 1140 068d 49020000 		.4byte	.LASF95
ARM GAS  /tmp/ccoP3ArB.s 			page 21


 1141 0691 0D       		.byte	0xd
 1142 0692 30       		.byte	0x30
 1143 0693 0D       		.byte	0xd
 1144 0694 67000000 		.4byte	0x67
 1145 0698 0E       		.byte	0xe
 1146 0699 07       		.uleb128 0x7
 1147 069a 1F030000 		.4byte	.LASF96
 1148 069e 0D       		.byte	0xd
 1149 069f 31       		.byte	0x31
 1150 06a0 0D       		.byte	0xd
 1151 06a1 67000000 		.4byte	0x67
 1152 06a5 0F       		.byte	0xf
 1153 06a6 07       		.uleb128 0x7
 1154 06a7 76010000 		.4byte	.LASF97
 1155 06ab 0D       		.byte	0xd
 1156 06ac 32       		.byte	0x32
 1157 06ad 0D       		.byte	0xd
 1158 06ae 67000000 		.4byte	0x67
 1159 06b2 10       		.byte	0x10
 1160 06b3 07       		.uleb128 0x7
 1161 06b4 49010000 		.4byte	.LASF98
 1162 06b8 0D       		.byte	0xd
 1163 06b9 34       		.byte	0x34
 1164 06ba 0D       		.byte	0xd
 1165 06bb 67000000 		.4byte	0x67
 1166 06bf 11       		.byte	0x11
 1167 06c0 07       		.uleb128 0x7
 1168 06c1 86010000 		.4byte	.LASF99
 1169 06c5 0D       		.byte	0xd
 1170 06c6 35       		.byte	0x35
 1171 06c7 0D       		.byte	0xd
 1172 06c8 67000000 		.4byte	0x67
 1173 06cc 12       		.byte	0x12
 1174 06cd 07       		.uleb128 0x7
 1175 06ce F7020000 		.4byte	.LASF100
 1176 06d2 0D       		.byte	0xd
 1177 06d3 36       		.byte	0x36
 1178 06d4 0D       		.byte	0xd
 1179 06d5 67000000 		.4byte	0x67
 1180 06d9 13       		.byte	0x13
 1181 06da 07       		.uleb128 0x7
 1182 06db 06040000 		.4byte	.LASF101
 1183 06df 0D       		.byte	0xd
 1184 06e0 37       		.byte	0x37
 1185 06e1 0D       		.byte	0xd
 1186 06e2 67000000 		.4byte	0x67
 1187 06e6 14       		.byte	0x14
 1188 06e7 07       		.uleb128 0x7
 1189 06e8 D9030000 		.4byte	.LASF102
 1190 06ec 0D       		.byte	0xd
 1191 06ed 39       		.byte	0x39
 1192 06ee 0D       		.byte	0xd
 1193 06ef 67000000 		.4byte	0x67
 1194 06f3 15       		.byte	0x15
 1195 06f4 00       		.byte	0
 1196 06f5 15       		.uleb128 0x15
 1197 06f6 CE050000 		.4byte	0x5ce
ARM GAS  /tmp/ccoP3ArB.s 			page 22


 1198 06fa 05070000 		.4byte	0x705
 1199 06fe 16       		.uleb128 0x16
 1200 06ff 38000000 		.4byte	0x38
 1201 0703 03       		.byte	0x3
 1202 0704 00       		.byte	0
 1203 0705 03       		.uleb128 0x3
 1204 0706 EC010000 		.4byte	.LASF103
 1205 070a 0D       		.byte	0xd
 1206 070b 3A       		.byte	0x3a
 1207 070c 03       		.byte	0x3
 1208 070d 01060000 		.4byte	0x601
 1209 0711 14       		.uleb128 0x14
 1210 0712 05070000 		.4byte	0x705
 1211 0716 0E       		.uleb128 0xe
 1212 0717 68020000 		.4byte	.LASF104
 1213 071b 0D       		.byte	0xd
 1214 071c 77       		.byte	0x77
 1215 071d 1D       		.byte	0x1d
 1216 071e 11070000 		.4byte	0x711
 1217 0722 15       		.uleb128 0x15
 1218 0723 76020000 		.4byte	0x276
 1219 0727 32070000 		.4byte	0x732
 1220 072b 16       		.uleb128 0x16
 1221 072c 38000000 		.4byte	0x38
 1222 0730 26       		.byte	0x26
 1223 0731 00       		.byte	0
 1224 0732 0E       		.uleb128 0xe
 1225 0733 FE010000 		.4byte	.LASF105
 1226 0737 0E       		.byte	0xe
 1227 0738 82       		.byte	0x82
 1228 0739 08       		.byte	0x8
 1229 073a 22070000 		.4byte	0x722
 1230 073e 17       		.uleb128 0x17
 1231 073f C6010000 		.4byte	.LASF109
 1232 0743 01       		.byte	0x1
 1233 0744 7B       		.byte	0x7b
 1234 0745 09       		.byte	0x9
 1235 0746 41020000 		.4byte	0x241
 1236 074a 00000000 		.4byte	.LFB9
 1237 074e 60000000 		.4byte	.LFE9-.LFB9
 1238 0752 01       		.uleb128 0x1
 1239 0753 9C       		.byte	0x9c
 1240 0754 3C080000 		.4byte	0x83c
 1241 0758 18       		.uleb128 0x18
 1242 0759 37010000 		.4byte	.LASF106
 1243 075d 01       		.byte	0x1
 1244 075e 7B       		.byte	0x7b
 1245 075f 29       		.byte	0x29
 1246 0760 66050000 		.4byte	0x566
 1247 0764 04000000 		.4byte	.LLST2
 1248 0768 00000000 		.4byte	.LVUS2
 1249 076c 18       		.uleb128 0x18
 1250 076d 87020000 		.4byte	.LASF78
 1251 0771 01       		.byte	0x1
 1252 0772 7B       		.byte	0x7b
 1253 0773 37       		.byte	0x37
 1254 0774 2C000000 		.4byte	0x2c
ARM GAS  /tmp/ccoP3ArB.s 			page 23


 1255 0778 29000000 		.4byte	.LLST3
 1256 077c 25000000 		.4byte	.LVUS3
 1257 0780 18       		.uleb128 0x18
 1258 0781 E2000000 		.4byte	.LASF107
 1259 0785 01       		.byte	0x1
 1260 0786 7C       		.byte	0x7c
 1261 0787 25       		.byte	0x25
 1262 0788 D7000000 		.4byte	0xd7
 1263 078c 4B000000 		.4byte	.LLST4
 1264 0790 47000000 		.4byte	.LVUS4
 1265 0794 19       		.uleb128 0x19
 1266 0795 706600   		.ascii	"pf\000"
 1267 0798 01       		.byte	0x1
 1268 0799 7C       		.byte	0x7c
 1269 079a 33       		.byte	0x33
 1270 079b E0050000 		.4byte	0x5e0
 1271 079f 6D000000 		.4byte	.LLST5
 1272 07a3 69000000 		.4byte	.LVUS5
 1273 07a7 1A       		.uleb128 0x1a
 1274 07a8 61726700 		.ascii	"arg\000"
 1275 07ac 01       		.byte	0x1
 1276 07ad 7C       		.byte	0x7c
 1277 07ae 3D       		.byte	0x3d
 1278 07af 8E020000 		.4byte	0x28e
 1279 07b3 02       		.uleb128 0x2
 1280 07b4 91       		.byte	0x91
 1281 07b5 00       		.sleb128 0
 1282 07b6 1B       		.uleb128 0x1b
 1283 07b7 77737000 		.ascii	"wsp\000"
 1284 07bb 01       		.byte	0x1
 1285 07bc 7D       		.byte	0x7d
 1286 07bd 09       		.byte	0x9
 1287 07be 8E020000 		.4byte	0x28e
 1288 07c2 8F000000 		.4byte	.LLST6
 1289 07c6 8B000000 		.4byte	.LVUS6
 1290 07ca 1B       		.uleb128 0x1b
 1291 07cb 747000   		.ascii	"tp\000"
 1292 07ce 01       		.byte	0x1
 1293 07cf 7E       		.byte	0x7e
 1294 07d0 0B       		.byte	0xb
 1295 07d1 41020000 		.4byte	0x241
 1296 07d5 B1000000 		.4byte	.LLST7
 1297 07d9 AD000000 		.4byte	.LVUS7
 1298 07dd 1C       		.uleb128 0x1c
 1299 07de 18000000 		.4byte	.LVL7
 1300 07e2 B3080000 		.4byte	0x8b3
 1301 07e6 F8070000 		.4byte	0x7f8
 1302 07ea 1D       		.uleb128 0x1d
 1303 07eb 01       		.uleb128 0x1
 1304 07ec 50       		.byte	0x50
 1305 07ed 03       		.uleb128 0x3
 1306 07ee F3       		.byte	0xf3
 1307 07ef 01       		.uleb128 0x1
 1308 07f0 50       		.byte	0x50
 1309 07f1 1D       		.uleb128 0x1d
 1310 07f2 01       		.uleb128 0x1
 1311 07f3 51       		.byte	0x51
ARM GAS  /tmp/ccoP3ArB.s 			page 24


 1312 07f4 02       		.uleb128 0x2
 1313 07f5 75       		.byte	0x75
 1314 07f6 00       		.sleb128 0
 1315 07f7 00       		.byte	0
 1316 07f8 1C       		.uleb128 0x1c
 1317 07f9 3C000000 		.4byte	.LVL8
 1318 07fd BF080000 		.4byte	0x8bf
 1319 0801 26080000 		.4byte	0x826
 1320 0805 1D       		.uleb128 0x1d
 1321 0806 01       		.uleb128 0x1
 1322 0807 50       		.byte	0x50
 1323 0808 02       		.uleb128 0x2
 1324 0809 74       		.byte	0x74
 1325 080a 00       		.sleb128 0
 1326 080b 1D       		.uleb128 0x1d
 1327 080c 01       		.uleb128 0x1
 1328 080d 51       		.byte	0x51
 1329 080e 02       		.uleb128 0x2
 1330 080f 75       		.byte	0x75
 1331 0810 00       		.sleb128 0
 1332 0811 1D       		.uleb128 0x1d
 1333 0812 01       		.uleb128 0x1
 1334 0813 52       		.byte	0x52
 1335 0814 02       		.uleb128 0x2
 1336 0815 76       		.byte	0x76
 1337 0816 00       		.sleb128 0
 1338 0817 1D       		.uleb128 0x1d
 1339 0818 01       		.uleb128 0x1
 1340 0819 53       		.byte	0x53
 1341 081a 02       		.uleb128 0x2
 1342 081b 77       		.byte	0x77
 1343 081c 00       		.sleb128 0
 1344 081d 1D       		.uleb128 0x1d
 1345 081e 02       		.uleb128 0x2
 1346 081f 7D       		.byte	0x7d
 1347 0820 00       		.sleb128 0
 1348 0821 03       		.uleb128 0x3
 1349 0822 91       		.byte	0x91
 1350 0823 78       		.sleb128 -8
 1351 0824 06       		.byte	0x6
 1352 0825 00       		.byte	0
 1353 0826 1E       		.uleb128 0x1e
 1354 0827 50000000 		.4byte	.LVL10
 1355 082b CC080000 		.4byte	0x8cc
 1356 082f 1D       		.uleb128 0x1d
 1357 0830 01       		.uleb128 0x1
 1358 0831 50       		.byte	0x50
 1359 0832 02       		.uleb128 0x2
 1360 0833 74       		.byte	0x74
 1361 0834 00       		.sleb128 0
 1362 0835 1D       		.uleb128 0x1d
 1363 0836 01       		.uleb128 0x1
 1364 0837 51       		.byte	0x51
 1365 0838 01       		.uleb128 0x1
 1366 0839 30       		.byte	0x30
 1367 083a 00       		.byte	0
 1368 083b 00       		.byte	0
ARM GAS  /tmp/ccoP3ArB.s 			page 25


 1369 083c 1F       		.uleb128 0x1f
 1370 083d 1D040000 		.4byte	.LASF119
 1371 0841 01       		.byte	0x1
 1372 0842 43       		.byte	0x43
 1373 0843 06       		.byte	0x6
 1374 0844 00000000 		.4byte	.LFB8
 1375 0848 50000000 		.4byte	.LFE8-.LFB8
 1376 084c 01       		.uleb128 0x1
 1377 084d 9C       		.byte	0x9c
 1378 084e 8B080000 		.4byte	0x88b
 1379 0852 19       		.uleb128 0x19
 1380 0853 747000   		.ascii	"tp\000"
 1381 0856 01       		.byte	0x1
 1382 0857 43       		.byte	0x43
 1383 0858 1B       		.byte	0x1b
 1384 0859 41020000 		.4byte	0x241
 1385 085d D3000000 		.4byte	.LLST0
 1386 0861 CF000000 		.4byte	.LVUS0
 1387 0865 20       		.uleb128 0x20
 1388 0866 7E030000 		.4byte	.LASF108
 1389 086a 01       		.byte	0x1
 1390 086b 44       		.byte	0x44
 1391 086c 0B       		.byte	0xb
 1392 086d BF000000 		.4byte	0xbf
 1393 0871 F8000000 		.4byte	.LLST1
 1394 0875 F4000000 		.4byte	.LVUS1
 1395 0879 21       		.uleb128 0x21
 1396 087a 50000000 		.4byte	.LVL5
 1397 087e D8080000 		.4byte	0x8d8
 1398 0882 1D       		.uleb128 0x1d
 1399 0883 01       		.uleb128 0x1
 1400 0884 50       		.byte	0x50
 1401 0885 03       		.uleb128 0x3
 1402 0886 F3       		.byte	0xf3
 1403 0887 01       		.uleb128 0x1
 1404 0888 50       		.byte	0x50
 1405 0889 00       		.byte	0
 1406 088a 00       		.byte	0
 1407 088b 17       		.uleb128 0x17
 1408 088c D8020000 		.4byte	.LASF110
 1409 0890 01       		.byte	0x1
 1410 0891 2D       		.byte	0x2d
 1411 0892 09       		.byte	0x9
 1412 0893 41020000 		.4byte	0x241
 1413 0897 00000000 		.4byte	.LFB7
 1414 089b 18000000 		.4byte	.LFE7-.LFB7
 1415 089f 01       		.uleb128 0x1
 1416 08a0 9C       		.byte	0x9c
 1417 08a1 B3080000 		.4byte	0x8b3
 1418 08a5 1A       		.uleb128 0x1a
 1419 08a6 747000   		.ascii	"tp\000"
 1420 08a9 01       		.byte	0x1
 1421 08aa 2D       		.byte	0x2d
 1422 08ab 1D       		.byte	0x1d
 1423 08ac 41020000 		.4byte	0x241
 1424 08b0 01       		.uleb128 0x1
 1425 08b1 50       		.byte	0x50
ARM GAS  /tmp/ccoP3ArB.s 			page 26


 1426 08b2 00       		.byte	0
 1427 08b3 22       		.uleb128 0x22
 1428 08b4 31040000 		.4byte	.LASF111
 1429 08b8 31040000 		.4byte	.LASF111
 1430 08bc 0C       		.byte	0xc
 1431 08bd 52       		.byte	0x52
 1432 08be 09       		.byte	0x9
 1433 08bf 23       		.uleb128 0x23
 1434 08c0 B0010000 		.4byte	.LASF112
 1435 08c4 B0010000 		.4byte	.LASF112
 1436 08c8 06       		.byte	0x6
 1437 08c9 6201     		.2byte	0x162
 1438 08cb 0B       		.byte	0xb
 1439 08cc 22       		.uleb128 0x22
 1440 08cd 9F020000 		.4byte	.LASF113
 1441 08d1 9F020000 		.4byte	.LASF113
 1442 08d5 09       		.byte	0x9
 1443 08d6 92       		.byte	0x92
 1444 08d7 08       		.byte	0x8
 1445 08d8 22       		.uleb128 0x22
 1446 08d9 9B010000 		.4byte	.LASF114
 1447 08dd 9B010000 		.4byte	.LASF114
 1448 08e1 0C       		.byte	0xc
 1449 08e2 53       		.byte	0x53
 1450 08e3 08       		.byte	0x8
 1451 08e4 00       		.byte	0
 1452              		.section	.debug_abbrev,"",%progbits
 1453              	.Ldebug_abbrev0:
 1454 0000 01       		.uleb128 0x1
 1455 0001 11       		.uleb128 0x11
 1456 0002 01       		.byte	0x1
 1457 0003 25       		.uleb128 0x25
 1458 0004 0E       		.uleb128 0xe
 1459 0005 13       		.uleb128 0x13
 1460 0006 0B       		.uleb128 0xb
 1461 0007 03       		.uleb128 0x3
 1462 0008 0E       		.uleb128 0xe
 1463 0009 1B       		.uleb128 0x1b
 1464 000a 0E       		.uleb128 0xe
 1465 000b 55       		.uleb128 0x55
 1466 000c 17       		.uleb128 0x17
 1467 000d 11       		.uleb128 0x11
 1468 000e 01       		.uleb128 0x1
 1469 000f 10       		.uleb128 0x10
 1470 0010 17       		.uleb128 0x17
 1471 0011 00       		.byte	0
 1472 0012 00       		.byte	0
 1473 0013 02       		.uleb128 0x2
 1474 0014 24       		.uleb128 0x24
 1475 0015 00       		.byte	0
 1476 0016 0B       		.uleb128 0xb
 1477 0017 0B       		.uleb128 0xb
 1478 0018 3E       		.uleb128 0x3e
 1479 0019 0B       		.uleb128 0xb
 1480 001a 03       		.uleb128 0x3
 1481 001b 08       		.uleb128 0x8
 1482 001c 00       		.byte	0
ARM GAS  /tmp/ccoP3ArB.s 			page 27


 1483 001d 00       		.byte	0
 1484 001e 03       		.uleb128 0x3
 1485 001f 16       		.uleb128 0x16
 1486 0020 00       		.byte	0
 1487 0021 03       		.uleb128 0x3
 1488 0022 0E       		.uleb128 0xe
 1489 0023 3A       		.uleb128 0x3a
 1490 0024 0B       		.uleb128 0xb
 1491 0025 3B       		.uleb128 0x3b
 1492 0026 0B       		.uleb128 0xb
 1493 0027 39       		.uleb128 0x39
 1494 0028 0B       		.uleb128 0xb
 1495 0029 49       		.uleb128 0x49
 1496 002a 13       		.uleb128 0x13
 1497 002b 00       		.byte	0
 1498 002c 00       		.byte	0
 1499 002d 04       		.uleb128 0x4
 1500 002e 24       		.uleb128 0x24
 1501 002f 00       		.byte	0
 1502 0030 0B       		.uleb128 0xb
 1503 0031 0B       		.uleb128 0xb
 1504 0032 3E       		.uleb128 0x3e
 1505 0033 0B       		.uleb128 0xb
 1506 0034 03       		.uleb128 0x3
 1507 0035 0E       		.uleb128 0xe
 1508 0036 00       		.byte	0
 1509 0037 00       		.byte	0
 1510 0038 05       		.uleb128 0x5
 1511 0039 35       		.uleb128 0x35
 1512 003a 00       		.byte	0
 1513 003b 49       		.uleb128 0x49
 1514 003c 13       		.uleb128 0x13
 1515 003d 00       		.byte	0
 1516 003e 00       		.byte	0
 1517 003f 06       		.uleb128 0x6
 1518 0040 13       		.uleb128 0x13
 1519 0041 01       		.byte	0x1
 1520 0042 03       		.uleb128 0x3
 1521 0043 0E       		.uleb128 0xe
 1522 0044 0B       		.uleb128 0xb
 1523 0045 0B       		.uleb128 0xb
 1524 0046 3A       		.uleb128 0x3a
 1525 0047 0B       		.uleb128 0xb
 1526 0048 3B       		.uleb128 0x3b
 1527 0049 0B       		.uleb128 0xb
 1528 004a 39       		.uleb128 0x39
 1529 004b 0B       		.uleb128 0xb
 1530 004c 01       		.uleb128 0x1
 1531 004d 13       		.uleb128 0x13
 1532 004e 00       		.byte	0
 1533 004f 00       		.byte	0
 1534 0050 07       		.uleb128 0x7
 1535 0051 0D       		.uleb128 0xd
 1536 0052 00       		.byte	0
 1537 0053 03       		.uleb128 0x3
 1538 0054 0E       		.uleb128 0xe
 1539 0055 3A       		.uleb128 0x3a
ARM GAS  /tmp/ccoP3ArB.s 			page 28


 1540 0056 0B       		.uleb128 0xb
 1541 0057 3B       		.uleb128 0x3b
 1542 0058 0B       		.uleb128 0xb
 1543 0059 39       		.uleb128 0x39
 1544 005a 0B       		.uleb128 0xb
 1545 005b 49       		.uleb128 0x49
 1546 005c 13       		.uleb128 0x13
 1547 005d 38       		.uleb128 0x38
 1548 005e 0B       		.uleb128 0xb
 1549 005f 00       		.byte	0
 1550 0060 00       		.byte	0
 1551 0061 08       		.uleb128 0x8
 1552 0062 0D       		.uleb128 0xd
 1553 0063 00       		.byte	0
 1554 0064 03       		.uleb128 0x3
 1555 0065 08       		.uleb128 0x8
 1556 0066 3A       		.uleb128 0x3a
 1557 0067 0B       		.uleb128 0xb
 1558 0068 3B       		.uleb128 0x3b
 1559 0069 0B       		.uleb128 0xb
 1560 006a 39       		.uleb128 0x39
 1561 006b 0B       		.uleb128 0xb
 1562 006c 49       		.uleb128 0x49
 1563 006d 13       		.uleb128 0x13
 1564 006e 38       		.uleb128 0x38
 1565 006f 0B       		.uleb128 0xb
 1566 0070 00       		.byte	0
 1567 0071 00       		.byte	0
 1568 0072 09       		.uleb128 0x9
 1569 0073 13       		.uleb128 0x13
 1570 0074 01       		.byte	0x1
 1571 0075 0B       		.uleb128 0xb
 1572 0076 0B       		.uleb128 0xb
 1573 0077 3A       		.uleb128 0x3a
 1574 0078 0B       		.uleb128 0xb
 1575 0079 3B       		.uleb128 0x3b
 1576 007a 0B       		.uleb128 0xb
 1577 007b 39       		.uleb128 0x39
 1578 007c 0B       		.uleb128 0xb
 1579 007d 01       		.uleb128 0x1
 1580 007e 13       		.uleb128 0x13
 1581 007f 00       		.byte	0
 1582 0080 00       		.byte	0
 1583 0081 0A       		.uleb128 0xa
 1584 0082 0F       		.uleb128 0xf
 1585 0083 00       		.byte	0
 1586 0084 0B       		.uleb128 0xb
 1587 0085 0B       		.uleb128 0xb
 1588 0086 49       		.uleb128 0x49
 1589 0087 13       		.uleb128 0x13
 1590 0088 00       		.byte	0
 1591 0089 00       		.byte	0
 1592 008a 0B       		.uleb128 0xb
 1593 008b 0F       		.uleb128 0xf
 1594 008c 00       		.byte	0
 1595 008d 0B       		.uleb128 0xb
 1596 008e 0B       		.uleb128 0xb
ARM GAS  /tmp/ccoP3ArB.s 			page 29


 1597 008f 00       		.byte	0
 1598 0090 00       		.byte	0
 1599 0091 0C       		.uleb128 0xc
 1600 0092 15       		.uleb128 0x15
 1601 0093 01       		.byte	0x1
 1602 0094 27       		.uleb128 0x27
 1603 0095 19       		.uleb128 0x19
 1604 0096 01       		.uleb128 0x1
 1605 0097 13       		.uleb128 0x13
 1606 0098 00       		.byte	0
 1607 0099 00       		.byte	0
 1608 009a 0D       		.uleb128 0xd
 1609 009b 05       		.uleb128 0x5
 1610 009c 00       		.byte	0
 1611 009d 49       		.uleb128 0x49
 1612 009e 13       		.uleb128 0x13
 1613 009f 00       		.byte	0
 1614 00a0 00       		.byte	0
 1615 00a1 0E       		.uleb128 0xe
 1616 00a2 34       		.uleb128 0x34
 1617 00a3 00       		.byte	0
 1618 00a4 03       		.uleb128 0x3
 1619 00a5 0E       		.uleb128 0xe
 1620 00a6 3A       		.uleb128 0x3a
 1621 00a7 0B       		.uleb128 0xb
 1622 00a8 3B       		.uleb128 0x3b
 1623 00a9 0B       		.uleb128 0xb
 1624 00aa 39       		.uleb128 0x39
 1625 00ab 0B       		.uleb128 0xb
 1626 00ac 49       		.uleb128 0x49
 1627 00ad 13       		.uleb128 0x13
 1628 00ae 3F       		.uleb128 0x3f
 1629 00af 19       		.uleb128 0x19
 1630 00b0 3C       		.uleb128 0x3c
 1631 00b1 19       		.uleb128 0x19
 1632 00b2 00       		.byte	0
 1633 00b3 00       		.byte	0
 1634 00b4 0F       		.uleb128 0xf
 1635 00b5 15       		.uleb128 0x15
 1636 00b6 01       		.byte	0x1
 1637 00b7 27       		.uleb128 0x27
 1638 00b8 19       		.uleb128 0x19
 1639 00b9 49       		.uleb128 0x49
 1640 00ba 13       		.uleb128 0x13
 1641 00bb 01       		.uleb128 0x1
 1642 00bc 13       		.uleb128 0x13
 1643 00bd 00       		.byte	0
 1644 00be 00       		.byte	0
 1645 00bf 10       		.uleb128 0x10
 1646 00c0 17       		.uleb128 0x17
 1647 00c1 01       		.byte	0x1
 1648 00c2 0B       		.uleb128 0xb
 1649 00c3 0B       		.uleb128 0xb
 1650 00c4 3A       		.uleb128 0x3a
 1651 00c5 0B       		.uleb128 0xb
 1652 00c6 3B       		.uleb128 0x3b
 1653 00c7 0B       		.uleb128 0xb
ARM GAS  /tmp/ccoP3ArB.s 			page 30


 1654 00c8 39       		.uleb128 0x39
 1655 00c9 0B       		.uleb128 0xb
 1656 00ca 01       		.uleb128 0x1
 1657 00cb 13       		.uleb128 0x13
 1658 00cc 00       		.byte	0
 1659 00cd 00       		.byte	0
 1660 00ce 11       		.uleb128 0x11
 1661 00cf 0D       		.uleb128 0xd
 1662 00d0 00       		.byte	0
 1663 00d1 03       		.uleb128 0x3
 1664 00d2 0E       		.uleb128 0xe
 1665 00d3 3A       		.uleb128 0x3a
 1666 00d4 0B       		.uleb128 0xb
 1667 00d5 3B       		.uleb128 0x3b
 1668 00d6 0B       		.uleb128 0xb
 1669 00d7 39       		.uleb128 0x39
 1670 00d8 0B       		.uleb128 0xb
 1671 00d9 49       		.uleb128 0x49
 1672 00da 13       		.uleb128 0x13
 1673 00db 00       		.byte	0
 1674 00dc 00       		.byte	0
 1675 00dd 12       		.uleb128 0x12
 1676 00de 17       		.uleb128 0x17
 1677 00df 01       		.byte	0x1
 1678 00e0 03       		.uleb128 0x3
 1679 00e1 0E       		.uleb128 0xe
 1680 00e2 0B       		.uleb128 0xb
 1681 00e3 0B       		.uleb128 0xb
 1682 00e4 3A       		.uleb128 0x3a
 1683 00e5 0B       		.uleb128 0xb
 1684 00e6 3B       		.uleb128 0x3b
 1685 00e7 0B       		.uleb128 0xb
 1686 00e8 39       		.uleb128 0x39
 1687 00e9 0B       		.uleb128 0xb
 1688 00ea 01       		.uleb128 0x1
 1689 00eb 13       		.uleb128 0x13
 1690 00ec 00       		.byte	0
 1691 00ed 00       		.byte	0
 1692 00ee 13       		.uleb128 0x13
 1693 00ef 0D       		.uleb128 0xd
 1694 00f0 00       		.byte	0
 1695 00f1 03       		.uleb128 0x3
 1696 00f2 08       		.uleb128 0x8
 1697 00f3 3A       		.uleb128 0x3a
 1698 00f4 0B       		.uleb128 0xb
 1699 00f5 3B       		.uleb128 0x3b
 1700 00f6 0B       		.uleb128 0xb
 1701 00f7 39       		.uleb128 0x39
 1702 00f8 0B       		.uleb128 0xb
 1703 00f9 49       		.uleb128 0x49
 1704 00fa 13       		.uleb128 0x13
 1705 00fb 00       		.byte	0
 1706 00fc 00       		.byte	0
 1707 00fd 14       		.uleb128 0x14
 1708 00fe 26       		.uleb128 0x26
 1709 00ff 00       		.byte	0
 1710 0100 49       		.uleb128 0x49
ARM GAS  /tmp/ccoP3ArB.s 			page 31


 1711 0101 13       		.uleb128 0x13
 1712 0102 00       		.byte	0
 1713 0103 00       		.byte	0
 1714 0104 15       		.uleb128 0x15
 1715 0105 01       		.uleb128 0x1
 1716 0106 01       		.byte	0x1
 1717 0107 49       		.uleb128 0x49
 1718 0108 13       		.uleb128 0x13
 1719 0109 01       		.uleb128 0x1
 1720 010a 13       		.uleb128 0x13
 1721 010b 00       		.byte	0
 1722 010c 00       		.byte	0
 1723 010d 16       		.uleb128 0x16
 1724 010e 21       		.uleb128 0x21
 1725 010f 00       		.byte	0
 1726 0110 49       		.uleb128 0x49
 1727 0111 13       		.uleb128 0x13
 1728 0112 2F       		.uleb128 0x2f
 1729 0113 0B       		.uleb128 0xb
 1730 0114 00       		.byte	0
 1731 0115 00       		.byte	0
 1732 0116 17       		.uleb128 0x17
 1733 0117 2E       		.uleb128 0x2e
 1734 0118 01       		.byte	0x1
 1735 0119 3F       		.uleb128 0x3f
 1736 011a 19       		.uleb128 0x19
 1737 011b 03       		.uleb128 0x3
 1738 011c 0E       		.uleb128 0xe
 1739 011d 3A       		.uleb128 0x3a
 1740 011e 0B       		.uleb128 0xb
 1741 011f 3B       		.uleb128 0x3b
 1742 0120 0B       		.uleb128 0xb
 1743 0121 39       		.uleb128 0x39
 1744 0122 0B       		.uleb128 0xb
 1745 0123 27       		.uleb128 0x27
 1746 0124 19       		.uleb128 0x19
 1747 0125 49       		.uleb128 0x49
 1748 0126 13       		.uleb128 0x13
 1749 0127 11       		.uleb128 0x11
 1750 0128 01       		.uleb128 0x1
 1751 0129 12       		.uleb128 0x12
 1752 012a 06       		.uleb128 0x6
 1753 012b 40       		.uleb128 0x40
 1754 012c 18       		.uleb128 0x18
 1755 012d 9742     		.uleb128 0x2117
 1756 012f 19       		.uleb128 0x19
 1757 0130 01       		.uleb128 0x1
 1758 0131 13       		.uleb128 0x13
 1759 0132 00       		.byte	0
 1760 0133 00       		.byte	0
 1761 0134 18       		.uleb128 0x18
 1762 0135 05       		.uleb128 0x5
 1763 0136 00       		.byte	0
 1764 0137 03       		.uleb128 0x3
 1765 0138 0E       		.uleb128 0xe
 1766 0139 3A       		.uleb128 0x3a
 1767 013a 0B       		.uleb128 0xb
ARM GAS  /tmp/ccoP3ArB.s 			page 32


 1768 013b 3B       		.uleb128 0x3b
 1769 013c 0B       		.uleb128 0xb
 1770 013d 39       		.uleb128 0x39
 1771 013e 0B       		.uleb128 0xb
 1772 013f 49       		.uleb128 0x49
 1773 0140 13       		.uleb128 0x13
 1774 0141 02       		.uleb128 0x2
 1775 0142 17       		.uleb128 0x17
 1776 0143 B742     		.uleb128 0x2137
 1777 0145 17       		.uleb128 0x17
 1778 0146 00       		.byte	0
 1779 0147 00       		.byte	0
 1780 0148 19       		.uleb128 0x19
 1781 0149 05       		.uleb128 0x5
 1782 014a 00       		.byte	0
 1783 014b 03       		.uleb128 0x3
 1784 014c 08       		.uleb128 0x8
 1785 014d 3A       		.uleb128 0x3a
 1786 014e 0B       		.uleb128 0xb
 1787 014f 3B       		.uleb128 0x3b
 1788 0150 0B       		.uleb128 0xb
 1789 0151 39       		.uleb128 0x39
 1790 0152 0B       		.uleb128 0xb
 1791 0153 49       		.uleb128 0x49
 1792 0154 13       		.uleb128 0x13
 1793 0155 02       		.uleb128 0x2
 1794 0156 17       		.uleb128 0x17
 1795 0157 B742     		.uleb128 0x2137
 1796 0159 17       		.uleb128 0x17
 1797 015a 00       		.byte	0
 1798 015b 00       		.byte	0
 1799 015c 1A       		.uleb128 0x1a
 1800 015d 05       		.uleb128 0x5
 1801 015e 00       		.byte	0
 1802 015f 03       		.uleb128 0x3
 1803 0160 08       		.uleb128 0x8
 1804 0161 3A       		.uleb128 0x3a
 1805 0162 0B       		.uleb128 0xb
 1806 0163 3B       		.uleb128 0x3b
 1807 0164 0B       		.uleb128 0xb
 1808 0165 39       		.uleb128 0x39
 1809 0166 0B       		.uleb128 0xb
 1810 0167 49       		.uleb128 0x49
 1811 0168 13       		.uleb128 0x13
 1812 0169 02       		.uleb128 0x2
 1813 016a 18       		.uleb128 0x18
 1814 016b 00       		.byte	0
 1815 016c 00       		.byte	0
 1816 016d 1B       		.uleb128 0x1b
 1817 016e 34       		.uleb128 0x34
 1818 016f 00       		.byte	0
 1819 0170 03       		.uleb128 0x3
 1820 0171 08       		.uleb128 0x8
 1821 0172 3A       		.uleb128 0x3a
 1822 0173 0B       		.uleb128 0xb
 1823 0174 3B       		.uleb128 0x3b
 1824 0175 0B       		.uleb128 0xb
ARM GAS  /tmp/ccoP3ArB.s 			page 33


 1825 0176 39       		.uleb128 0x39
 1826 0177 0B       		.uleb128 0xb
 1827 0178 49       		.uleb128 0x49
 1828 0179 13       		.uleb128 0x13
 1829 017a 02       		.uleb128 0x2
 1830 017b 17       		.uleb128 0x17
 1831 017c B742     		.uleb128 0x2137
 1832 017e 17       		.uleb128 0x17
 1833 017f 00       		.byte	0
 1834 0180 00       		.byte	0
 1835 0181 1C       		.uleb128 0x1c
 1836 0182 898201   		.uleb128 0x4109
 1837 0185 01       		.byte	0x1
 1838 0186 11       		.uleb128 0x11
 1839 0187 01       		.uleb128 0x1
 1840 0188 31       		.uleb128 0x31
 1841 0189 13       		.uleb128 0x13
 1842 018a 01       		.uleb128 0x1
 1843 018b 13       		.uleb128 0x13
 1844 018c 00       		.byte	0
 1845 018d 00       		.byte	0
 1846 018e 1D       		.uleb128 0x1d
 1847 018f 8A8201   		.uleb128 0x410a
 1848 0192 00       		.byte	0
 1849 0193 02       		.uleb128 0x2
 1850 0194 18       		.uleb128 0x18
 1851 0195 9142     		.uleb128 0x2111
 1852 0197 18       		.uleb128 0x18
 1853 0198 00       		.byte	0
 1854 0199 00       		.byte	0
 1855 019a 1E       		.uleb128 0x1e
 1856 019b 898201   		.uleb128 0x4109
 1857 019e 01       		.byte	0x1
 1858 019f 11       		.uleb128 0x11
 1859 01a0 01       		.uleb128 0x1
 1860 01a1 31       		.uleb128 0x31
 1861 01a2 13       		.uleb128 0x13
 1862 01a3 00       		.byte	0
 1863 01a4 00       		.byte	0
 1864 01a5 1F       		.uleb128 0x1f
 1865 01a6 2E       		.uleb128 0x2e
 1866 01a7 01       		.byte	0x1
 1867 01a8 3F       		.uleb128 0x3f
 1868 01a9 19       		.uleb128 0x19
 1869 01aa 03       		.uleb128 0x3
 1870 01ab 0E       		.uleb128 0xe
 1871 01ac 3A       		.uleb128 0x3a
 1872 01ad 0B       		.uleb128 0xb
 1873 01ae 3B       		.uleb128 0x3b
 1874 01af 0B       		.uleb128 0xb
 1875 01b0 39       		.uleb128 0x39
 1876 01b1 0B       		.uleb128 0xb
 1877 01b2 27       		.uleb128 0x27
 1878 01b3 19       		.uleb128 0x19
 1879 01b4 11       		.uleb128 0x11
 1880 01b5 01       		.uleb128 0x1
 1881 01b6 12       		.uleb128 0x12
ARM GAS  /tmp/ccoP3ArB.s 			page 34


 1882 01b7 06       		.uleb128 0x6
 1883 01b8 40       		.uleb128 0x40
 1884 01b9 18       		.uleb128 0x18
 1885 01ba 9742     		.uleb128 0x2117
 1886 01bc 19       		.uleb128 0x19
 1887 01bd 01       		.uleb128 0x1
 1888 01be 13       		.uleb128 0x13
 1889 01bf 00       		.byte	0
 1890 01c0 00       		.byte	0
 1891 01c1 20       		.uleb128 0x20
 1892 01c2 34       		.uleb128 0x34
 1893 01c3 00       		.byte	0
 1894 01c4 03       		.uleb128 0x3
 1895 01c5 0E       		.uleb128 0xe
 1896 01c6 3A       		.uleb128 0x3a
 1897 01c7 0B       		.uleb128 0xb
 1898 01c8 3B       		.uleb128 0x3b
 1899 01c9 0B       		.uleb128 0xb
 1900 01ca 39       		.uleb128 0x39
 1901 01cb 0B       		.uleb128 0xb
 1902 01cc 49       		.uleb128 0x49
 1903 01cd 13       		.uleb128 0x13
 1904 01ce 02       		.uleb128 0x2
 1905 01cf 17       		.uleb128 0x17
 1906 01d0 B742     		.uleb128 0x2137
 1907 01d2 17       		.uleb128 0x17
 1908 01d3 00       		.byte	0
 1909 01d4 00       		.byte	0
 1910 01d5 21       		.uleb128 0x21
 1911 01d6 898201   		.uleb128 0x4109
 1912 01d9 01       		.byte	0x1
 1913 01da 11       		.uleb128 0x11
 1914 01db 01       		.uleb128 0x1
 1915 01dc 9542     		.uleb128 0x2115
 1916 01de 19       		.uleb128 0x19
 1917 01df 31       		.uleb128 0x31
 1918 01e0 13       		.uleb128 0x13
 1919 01e1 00       		.byte	0
 1920 01e2 00       		.byte	0
 1921 01e3 22       		.uleb128 0x22
 1922 01e4 2E       		.uleb128 0x2e
 1923 01e5 00       		.byte	0
 1924 01e6 3F       		.uleb128 0x3f
 1925 01e7 19       		.uleb128 0x19
 1926 01e8 3C       		.uleb128 0x3c
 1927 01e9 19       		.uleb128 0x19
 1928 01ea 6E       		.uleb128 0x6e
 1929 01eb 0E       		.uleb128 0xe
 1930 01ec 03       		.uleb128 0x3
 1931 01ed 0E       		.uleb128 0xe
 1932 01ee 3A       		.uleb128 0x3a
 1933 01ef 0B       		.uleb128 0xb
 1934 01f0 3B       		.uleb128 0x3b
 1935 01f1 0B       		.uleb128 0xb
 1936 01f2 39       		.uleb128 0x39
 1937 01f3 0B       		.uleb128 0xb
 1938 01f4 00       		.byte	0
ARM GAS  /tmp/ccoP3ArB.s 			page 35


 1939 01f5 00       		.byte	0
 1940 01f6 23       		.uleb128 0x23
 1941 01f7 2E       		.uleb128 0x2e
 1942 01f8 00       		.byte	0
 1943 01f9 3F       		.uleb128 0x3f
 1944 01fa 19       		.uleb128 0x19
 1945 01fb 3C       		.uleb128 0x3c
 1946 01fc 19       		.uleb128 0x19
 1947 01fd 6E       		.uleb128 0x6e
 1948 01fe 0E       		.uleb128 0xe
 1949 01ff 03       		.uleb128 0x3
 1950 0200 0E       		.uleb128 0xe
 1951 0201 3A       		.uleb128 0x3a
 1952 0202 0B       		.uleb128 0xb
 1953 0203 3B       		.uleb128 0x3b
 1954 0204 05       		.uleb128 0x5
 1955 0205 39       		.uleb128 0x39
 1956 0206 0B       		.uleb128 0xb
 1957 0207 00       		.byte	0
 1958 0208 00       		.byte	0
 1959 0209 00       		.byte	0
 1960              		.section	.debug_loc,"",%progbits
 1961              	.Ldebug_loc0:
 1962              	.LVUS2:
 1963 0000 00       		.uleb128 0
 1964 0001 00       		.uleb128 .LVU43
 1965 0002 00       		.uleb128 .LVU43
 1966 0003 00       		.uleb128 0
 1967              	.LLST2:
 1968 0004 00000000 		.4byte	.LVL6
 1969 0008 17000000 		.4byte	.LVL7-1
 1970 000c 0100     		.2byte	0x1
 1971 000e 50       		.byte	0x50
 1972 000f 17000000 		.4byte	.LVL7-1
 1973 0013 60000000 		.4byte	.LFE9
 1974 0017 0400     		.2byte	0x4
 1975 0019 F3       		.byte	0xf3
 1976 001a 01       		.uleb128 0x1
 1977 001b 50       		.byte	0x50
 1978 001c 9F       		.byte	0x9f
 1979 001d 00000000 		.4byte	0
 1980 0021 00000000 		.4byte	0
 1981              	.LVUS3:
 1982 0025 00       		.uleb128 0
 1983 0026 00       		.uleb128 .LVU43
 1984 0027 00       		.uleb128 .LVU43
 1985 0028 00       		.uleb128 0
 1986              	.LLST3:
 1987 0029 00000000 		.4byte	.LVL6
 1988 002d 17000000 		.4byte	.LVL7-1
 1989 0031 0100     		.2byte	0x1
 1990 0033 51       		.byte	0x51
 1991 0034 17000000 		.4byte	.LVL7-1
 1992 0038 60000000 		.4byte	.LFE9
 1993 003c 0100     		.2byte	0x1
 1994 003e 55       		.byte	0x55
 1995 003f 00000000 		.4byte	0
ARM GAS  /tmp/ccoP3ArB.s 			page 36


 1996 0043 00000000 		.4byte	0
 1997              	.LVUS4:
 1998 0047 00       		.uleb128 0
 1999 0048 00       		.uleb128 .LVU43
 2000 0049 00       		.uleb128 .LVU43
 2001 004a 00       		.uleb128 0
 2002              	.LLST4:
 2003 004b 00000000 		.4byte	.LVL6
 2004 004f 17000000 		.4byte	.LVL7-1
 2005 0053 0100     		.2byte	0x1
 2006 0055 52       		.byte	0x52
 2007 0056 17000000 		.4byte	.LVL7-1
 2008 005a 60000000 		.4byte	.LFE9
 2009 005e 0100     		.2byte	0x1
 2010 0060 56       		.byte	0x56
 2011 0061 00000000 		.4byte	0
 2012 0065 00000000 		.4byte	0
 2013              	.LVUS5:
 2014 0069 00       		.uleb128 0
 2015 006a 00       		.uleb128 .LVU43
 2016 006b 00       		.uleb128 .LVU43
 2017 006c 00       		.uleb128 0
 2018              	.LLST5:
 2019 006d 00000000 		.4byte	.LVL6
 2020 0071 17000000 		.4byte	.LVL7-1
 2021 0075 0100     		.2byte	0x1
 2022 0077 53       		.byte	0x53
 2023 0078 17000000 		.4byte	.LVL7-1
 2024 007c 60000000 		.4byte	.LFE9
 2025 0080 0100     		.2byte	0x1
 2026 0082 57       		.byte	0x57
 2027 0083 00000000 		.4byte	0
 2028 0087 00000000 		.4byte	0
 2029              	.LVUS6:
 2030 008b 00       		.uleb128 .LVU43
 2031 008c 00       		.uleb128 .LVU50
 2032 008d 00       		.uleb128 .LVU50
 2033 008e 00       		.uleb128 .LVU54
 2034              	.LLST6:
 2035 008f 18000000 		.4byte	.LVL7
 2036 0093 3B000000 		.4byte	.LVL8-1
 2037 0097 0100     		.2byte	0x1
 2038 0099 50       		.byte	0x50
 2039 009a 3B000000 		.4byte	.LVL8-1
 2040 009e 4C000000 		.4byte	.LVL9
 2041 00a2 0100     		.2byte	0x1
 2042 00a4 54       		.byte	0x54
 2043 00a5 00000000 		.4byte	0
 2044 00a9 00000000 		.4byte	0
 2045              	.LVUS7:
 2046 00ad 00       		.uleb128 .LVU54
 2047 00ae 00       		.uleb128 .LVU56
 2048 00af 00       		.uleb128 .LVU56
 2049 00b0 02       		.uleb128 .LVU60
 2050              	.LLST7:
 2051 00b1 4C000000 		.4byte	.LVL9
 2052 00b5 4F000000 		.4byte	.LVL10-1
ARM GAS  /tmp/ccoP3ArB.s 			page 37


 2053 00b9 0100     		.2byte	0x1
 2054 00bb 50       		.byte	0x50
 2055 00bc 4F000000 		.4byte	.LVL10-1
 2056 00c0 54000000 		.4byte	.LVL11
 2057 00c4 0100     		.2byte	0x1
 2058 00c6 54       		.byte	0x54
 2059 00c7 00000000 		.4byte	0
 2060 00cb 00000000 		.4byte	0
 2061              	.LVUS0:
 2062 00cf 00       		.uleb128 0
 2063 00d0 00       		.uleb128 .LVU35
 2064 00d1 00       		.uleb128 .LVU35
 2065 00d2 00       		.uleb128 0
 2066              	.LLST0:
 2067 00d3 00000000 		.4byte	.LVL1
 2068 00d7 4F000000 		.4byte	.LVL5-1
 2069 00db 0100     		.2byte	0x1
 2070 00dd 50       		.byte	0x50
 2071 00de 4F000000 		.4byte	.LVL5-1
 2072 00e2 50000000 		.4byte	.LFE8
 2073 00e6 0400     		.2byte	0x4
 2074 00e8 F3       		.byte	0xf3
 2075 00e9 01       		.uleb128 0x1
 2076 00ea 50       		.byte	0x50
 2077 00eb 9F       		.byte	0x9f
 2078 00ec 00000000 		.4byte	0
 2079 00f0 00000000 		.4byte	0
 2080              	.LVUS1:
 2081 00f4 00       		.uleb128 .LVU23
 2082 00f5 00       		.uleb128 .LVU29
 2083 00f6 00       		.uleb128 .LVU29
 2084 00f7 00       		.uleb128 .LVU32
 2085              	.LLST1:
 2086 00f8 14000000 		.4byte	.LVL2
 2087 00fc 24000000 		.4byte	.LVL3
 2088 0100 0100     		.2byte	0x1
 2089 0102 53       		.byte	0x53
 2090 0103 24000000 		.4byte	.LVL3
 2091 0107 48000000 		.4byte	.LVL4
 2092 010b 0200     		.2byte	0x2
 2093 010d 70       		.byte	0x70
 2094 010e 1E       		.sleb128 30
 2095 010f 00000000 		.4byte	0
 2096 0113 00000000 		.4byte	0
 2097              		.section	.debug_aranges,"",%progbits
 2098 0000 2C000000 		.4byte	0x2c
 2099 0004 0200     		.2byte	0x2
 2100 0006 00000000 		.4byte	.Ldebug_info0
 2101 000a 04       		.byte	0x4
 2102 000b 00       		.byte	0
 2103 000c 0000     		.2byte	0
 2104 000e 0000     		.2byte	0
 2105 0010 00000000 		.4byte	.LFB7
 2106 0014 18000000 		.4byte	.LFE7-.LFB7
 2107 0018 00000000 		.4byte	.LFB8
 2108 001c 50000000 		.4byte	.LFE8-.LFB8
 2109 0020 00000000 		.4byte	.LFB9
ARM GAS  /tmp/ccoP3ArB.s 			page 38


 2110 0024 60000000 		.4byte	.LFE9-.LFB9
 2111 0028 00000000 		.4byte	0
 2112 002c 00000000 		.4byte	0
 2113              		.section	.debug_ranges,"",%progbits
 2114              	.Ldebug_ranges0:
 2115 0000 00000000 		.4byte	.LFB7
 2116 0004 18000000 		.4byte	.LFE7
 2117 0008 00000000 		.4byte	.LFB8
 2118 000c 50000000 		.4byte	.LFE8
 2119 0010 00000000 		.4byte	.LFB9
 2120 0014 60000000 		.4byte	.LFE9
 2121 0018 00000000 		.4byte	0
 2122 001c 00000000 		.4byte	0
 2123              		.section	.debug_line,"",%progbits
 2124              	.Ldebug_line0:
 2125 0000 07020000 		.section	.debug_str,"MS",%progbits,1
 2125      03002601 
 2125      00000201 
 2125      FB0E0D00 
 2125      01010101 
 2126              	.LASF84:
 2127 0000 7466756E 		.ascii	"tfunc_t\000"
 2127      635F7400 
 2128              	.LASF37:
 2129 0008 705F6D73 		.ascii	"p_msg\000"
 2129      6700
 2130              	.LASF115:
 2131 000e 474E5520 		.ascii	"GNU C17 9.2.1 20191025 (release) [ARM/arm-9-branch "
 2131      43313720 
 2131      392E322E 
 2131      31203230 
 2131      31393130 
 2132 0041 72657669 		.ascii	"revision 277599] -mcpu=arm1176jz-s -mno-thumb-inter"
 2132      73696F6E 
 2132      20323737 
 2132      3539395D 
 2132      202D6D63 
 2133 0074 776F726B 		.ascii	"work -mfloat-abi=soft -marm -march=armv6kz -ggdb -O"
 2133      202D6D66 
 2133      6C6F6174 
 2133      2D616269 
 2133      3D736F66 
 2134 00a7 32202D66 		.ascii	"2 -fomit-frame-pointer -ffunction-sections -fdata-s"
 2134      6F6D6974 
 2134      2D667261 
 2134      6D652D70 
 2134      6F696E74 
 2135 00da 65637469 		.ascii	"ections\000"
 2135      6F6E7300 
 2136              	.LASF107:
 2137 00e2 7072696F 		.ascii	"prio\000"
 2137      00
 2138              	.LASF79:
 2139 00e7 7264796D 		.ascii	"rdymsg\000"
 2139      736700
 2140              	.LASF63:
 2141 00ee 76746C69 		.ascii	"vtlist\000"
ARM GAS  /tmp/ccoP3ArB.s 			page 39


 2141      737400
 2142              	.LASF69:
 2143 00f5 6D656D67 		.ascii	"memgetfunc_t\000"
 2143      65746675 
 2143      6E635F74 
 2143      00
 2144              	.LASF13:
 2145 0102 6C6F6E67 		.ascii	"long long unsigned int\000"
 2145      206C6F6E 
 2145      6720756E 
 2145      7369676E 
 2145      65642069 
 2146              	.LASF91:
 2147 0119 63685F74 		.ascii	"ch_threadsize\000"
 2147      68726561 
 2147      6473697A 
 2147      6500
 2148              	.LASF80:
 2149 0127 65786974 		.ascii	"exitcode\000"
 2149      636F6465 
 2149      00
 2150              	.LASF73:
 2151 0130 685F6672 		.ascii	"h_free\000"
 2151      656500
 2152              	.LASF106:
 2153 0137 68656170 		.ascii	"heapp\000"
 2153      7000
 2154              	.LASF75:
 2155 013d 6E657874 		.ascii	"next\000"
 2155      00
 2156              	.LASF25:
 2157 0142 705F7072 		.ascii	"p_prio\000"
 2157      696F00
 2158              	.LASF98:
 2159 0149 63665F6F 		.ascii	"cf_off_state\000"
 2159      66665F73 
 2159      74617465 
 2159      00
 2160              	.LASF6:
 2161 0156 6C6F6E67 		.ascii	"long long int\000"
 2161      206C6F6E 
 2161      6720696E 
 2161      7400
 2162              	.LASF1:
 2163 0164 7369676E 		.ascii	"signed char\000"
 2163      65642063 
 2163      68617200 
 2164              	.LASF74:
 2165 0170 685F6D74 		.ascii	"h_mtx\000"
 2165      7800
 2166              	.LASF97:
 2167 0176 63665F6F 		.ascii	"cf_off_stklimit\000"
 2167      66665F73 
 2167      746B6C69 
 2167      6D697400 
 2168              	.LASF99:
 2169 0186 63665F6F 		.ascii	"cf_off_flags\000"
ARM GAS  /tmp/ccoP3ArB.s 			page 40


 2169      66665F66 
 2169      6C616773 
 2169      00
 2170              	.LASF66:
 2171 0193 6D5F7175 		.ascii	"m_queue\000"
 2171      65756500 
 2172              	.LASF114:
 2173 019b 63684865 		.ascii	"chHeapFree\000"
 2173      61704672 
 2173      656500
 2174              	.LASF17:
 2175 01a6 74736C69 		.ascii	"tslices_t\000"
 2175      6365735F 
 2175      7400
 2176              	.LASF112:
 2177 01b0 63685468 		.ascii	"chThdCreateI\000"
 2177      64437265 
 2177      61746549 
 2177      00
 2178              	.LASF5:
 2179 01bd 6C6F6E67 		.ascii	"long int\000"
 2179      20696E74 
 2179      00
 2180              	.LASF109:
 2181 01c6 63685468 		.ascii	"chThdCreateFromHeap\000"
 2181      64437265 
 2181      61746546 
 2181      726F6D48 
 2181      65617000 
 2182              	.LASF15:
 2183 01da 74737461 		.ascii	"tstate_t\000"
 2183      74655F74 
 2183      00
 2184              	.LASF9:
 2185 01e3 75696E74 		.ascii	"uint16_t\000"
 2185      31365F74 
 2185      00
 2186              	.LASF103:
 2187 01ec 63686465 		.ascii	"chdebug_t\000"
 2187      6275675F 
 2187      7400
 2188              	.LASF27:
 2189 01f6 705F6E65 		.ascii	"p_newer\000"
 2189      77657200 
 2190              	.LASF105:
 2191 01fe 5F69646C 		.ascii	"_idle_thread_wa\000"
 2191      655F7468 
 2191      72656164 
 2191      5F776100 
 2192              	.LASF59:
 2193 020e 725F6E65 		.ascii	"r_newer\000"
 2193      77657200 
 2194              	.LASF44:
 2195 0216 72656761 		.ascii	"regarm_t\000"
 2195      726D5F74 
 2195      00
 2196              	.LASF50:
ARM GAS  /tmp/ccoP3ArB.s 			page 41


 2197 021f 76745F70 		.ascii	"vt_prev\000"
 2197      72657600 
 2198              	.LASF3:
 2199 0227 73697A65 		.ascii	"size_t\000"
 2199      5F7400
 2200              	.LASF77:
 2201 022e 616C6967 		.ascii	"align\000"
 2201      6E00
 2202              	.LASF0:
 2203 0234 756E7369 		.ascii	"unsigned int\000"
 2203      676E6564 
 2203      20696E74 
 2203      00
 2204              	.LASF49:
 2205 0241 76745F6E 		.ascii	"vt_next\000"
 2205      65787400 
 2206              	.LASF95:
 2207 0249 63665F6F 		.ascii	"cf_off_older\000"
 2207      66665F6F 
 2207      6C646572 
 2207      00
 2208              	.LASF12:
 2209 0256 6C6F6E67 		.ascii	"long unsigned int\000"
 2209      20756E73 
 2209      69676E65 
 2209      6420696E 
 2209      7400
 2210              	.LASF104:
 2211 0268 63685F64 		.ascii	"ch_debug\000"
 2211      65627567 
 2211      00
 2212              	.LASF85:
 2213 0271 63685F69 		.ascii	"ch_identifier\000"
 2213      64656E74 
 2213      69666965 
 2213      7200
 2214              	.LASF46:
 2215 027f 636F6E74 		.ascii	"context\000"
 2215      65787400 
 2216              	.LASF78:
 2217 0287 73697A65 		.ascii	"size\000"
 2217      00
 2218              	.LASF10:
 2219 028c 73686F72 		.ascii	"short unsigned int\000"
 2219      7420756E 
 2219      7369676E 
 2219      65642069 
 2219      6E7400
 2220              	.LASF113:
 2221 029f 63685363 		.ascii	"chSchWakeupS\000"
 2221      6857616B 
 2221      65757053 
 2221      00
 2222              	.LASF19:
 2223 02ac 6D73675F 		.ascii	"msg_t\000"
 2223      7400
 2224              	.LASF14:
ARM GAS  /tmp/ccoP3ArB.s 			page 42


 2225 02b2 746D6F64 		.ascii	"tmode_t\000"
 2225      655F7400 
 2226              	.LASF42:
 2227 02ba 54687265 		.ascii	"ThreadsList\000"
 2227      6164734C 
 2227      69737400 
 2228              	.LASF20:
 2229 02c6 6576656E 		.ascii	"eventmask_t\000"
 2229      746D6173 
 2229      6B5F7400 
 2230              	.LASF65:
 2231 02d2 4D757465 		.ascii	"Mutex\000"
 2231      7800
 2232              	.LASF110:
 2233 02d8 63685468 		.ascii	"chThdAddRef\000"
 2233      64416464 
 2233      52656600 
 2234              	.LASF43:
 2235 02e4 73746B61 		.ascii	"stkalign_t\000"
 2235      6C69676E 
 2235      5F7400
 2236              	.LASF86:
 2237 02ef 63685F7A 		.ascii	"ch_zero\000"
 2237      65726F00 
 2238              	.LASF100:
 2239 02f7 63665F6F 		.ascii	"cf_off_refs\000"
 2239      66665F72 
 2239      65667300 
 2240              	.LASF51:
 2241 0303 76745F74 		.ascii	"vt_time\000"
 2241      696D6500 
 2242              	.LASF52:
 2243 030b 76745F66 		.ascii	"vt_func\000"
 2243      756E6300 
 2244              	.LASF90:
 2245 0313 63685F74 		.ascii	"ch_timesize\000"
 2245      696D6573 
 2245      697A6500 
 2246              	.LASF96:
 2247 031f 63665F6F 		.ascii	"cf_off_name\000"
 2247      66665F6E 
 2247      616D6500 
 2248              	.LASF28:
 2249 032b 705F6F6C 		.ascii	"p_older\000"
 2249      64657200 
 2250              	.LASF58:
 2251 0333 725F6374 		.ascii	"r_ctx\000"
 2251      7800
 2252              	.LASF41:
 2253 0339 54687265 		.ascii	"ThreadsQueue\000"
 2253      61647351 
 2253      75657565 
 2253      00
 2254              	.LASF87:
 2255 0346 63685F73 		.ascii	"ch_size\000"
 2255      697A6500 
 2256              	.LASF61:
ARM GAS  /tmp/ccoP3ArB.s 			page 43


 2257 034e 725F6375 		.ascii	"r_current\000"
 2257      7272656E 
 2257      7400
 2258              	.LASF60:
 2259 0358 725F6F6C 		.ascii	"r_older\000"
 2259      64657200 
 2260              	.LASF70:
 2261 0360 4D656D6F 		.ascii	"MemoryHeap\000"
 2261      72794865 
 2261      617000
 2262              	.LASF16:
 2263 036b 74726566 		.ascii	"trefs_t\000"
 2263      735F7400 
 2264              	.LASF89:
 2265 0373 63685F70 		.ascii	"ch_ptrsize\000"
 2265      74727369 
 2265      7A6500
 2266              	.LASF108:
 2267 037e 72656673 		.ascii	"refs\000"
 2267      00
 2268              	.LASF24:
 2269 0383 705F7072 		.ascii	"p_prev\000"
 2269      657600
 2270              	.LASF18:
 2271 038a 74707269 		.ascii	"tprio_t\000"
 2271      6F5F7400 
 2272              	.LASF4:
 2273 0392 696E7433 		.ascii	"int32_t\000"
 2273      325F7400 
 2274              	.LASF8:
 2275 039a 756E7369 		.ascii	"unsigned char\000"
 2275      676E6564 
 2275      20636861 
 2275      7200
 2276              	.LASF72:
 2277 03a8 685F7072 		.ascii	"h_provider\000"
 2277      6F766964 
 2277      657200
 2278              	.LASF39:
 2279 03b3 705F6D74 		.ascii	"p_mtxlist\000"
 2279      786C6973 
 2279      7400
 2280              	.LASF2:
 2281 03bd 73686F72 		.ascii	"short int\000"
 2281      7420696E 
 2281      7400
 2282              	.LASF30:
 2283 03c7 705F7374 		.ascii	"p_state\000"
 2283      61746500 
 2284              	.LASF33:
 2285 03cf 705F7072 		.ascii	"p_preempt\000"
 2285      65656D70 
 2285      7400
 2286              	.LASF102:
 2287 03d9 63665F6F 		.ascii	"cf_off_time\000"
 2287      66665F74 
 2287      696D6500 
ARM GAS  /tmp/ccoP3ArB.s 			page 44


 2288              	.LASF57:
 2289 03e5 725F7072 		.ascii	"r_prio\000"
 2289      696F00
 2290              	.LASF118:
 2291 03ec 68656170 		.ascii	"heap_header\000"
 2291      5F686561 
 2291      64657200 
 2292              	.LASF82:
 2293 03f8 65776D61 		.ascii	"ewmask\000"
 2293      736B00
 2294              	.LASF23:
 2295 03ff 705F6E65 		.ascii	"p_next\000"
 2295      787400
 2296              	.LASF101:
 2297 0406 63665F6F 		.ascii	"cf_off_preempt\000"
 2297      66665F70 
 2297      7265656D 
 2297      707400
 2298              	.LASF31:
 2299 0415 705F666C 		.ascii	"p_flags\000"
 2299      61677300 
 2300              	.LASF119:
 2301 041d 63685468 		.ascii	"chThdRelease\000"
 2301      6452656C 
 2301      65617365 
 2301      00
 2302              	.LASF22:
 2303 042a 54687265 		.ascii	"Thread\000"
 2303      616400
 2304              	.LASF111:
 2305 0431 63684865 		.ascii	"chHeapAlloc\000"
 2305      6170416C 
 2305      6C6F6300 
 2306              	.LASF94:
 2307 043d 63665F6F 		.ascii	"cf_off_newer\000"
 2307      66665F6E 
 2307      65776572 
 2307      00
 2308              	.LASF38:
 2309 044a 705F6570 		.ascii	"p_epending\000"
 2309      656E6469 
 2309      6E6700
 2310              	.LASF116:
 2311 0455 2E2E2F6F 		.ascii	"../os/kernel/src/chdynamic.c\000"
 2311      732F6B65 
 2311      726E656C 
 2311      2F737263 
 2311      2F636864 
 2312              	.LASF11:
 2313 0472 75696E74 		.ascii	"uint32_t\000"
 2313      33325F74 
 2313      00
 2314              	.LASF92:
 2315 047b 63665F6F 		.ascii	"cf_off_prio\000"
 2315      66665F70 
 2315      72696F00 
 2316              	.LASF56:
ARM GAS  /tmp/ccoP3ArB.s 			page 45


 2317 0487 725F7175 		.ascii	"r_queue\000"
 2317      65756500 
 2318              	.LASF48:
 2319 048f 56697274 		.ascii	"VirtualTimer\000"
 2319      75616C54 
 2319      696D6572 
 2319      00
 2320              	.LASF117:
 2321 049c 2F686F6D 		.ascii	"/home/taskman/arduino/embedded-wind-turbine/Data_Co"
 2321      652F7461 
 2321      736B6D61 
 2321      6E2F6172 
 2321      6475696E 
 2322 04cf 6C6C6563 		.ascii	"llector/raspberry/compiler/ChibiOS-RPi/led\000"
 2322      746F722F 
 2322      72617370 
 2322      62657272 
 2322      792F636F 
 2323              	.LASF76:
 2324 04fa 68656170 		.ascii	"heap\000"
 2324      00
 2325              	.LASF83:
 2326 04ff 63686172 		.ascii	"char\000"
 2326      00
 2327              	.LASF68:
 2328 0504 6D5F6E65 		.ascii	"m_next\000"
 2328      787400
 2329              	.LASF21:
 2330 050b 73797374 		.ascii	"systime_t\000"
 2330      696D655F 
 2330      7400
 2331              	.LASF40:
 2332 0515 705F7265 		.ascii	"p_realprio\000"
 2332      616C7072 
 2332      696F00
 2333              	.LASF47:
 2334 0520 76746675 		.ascii	"vtfunc_t\000"
 2334      6E635F74 
 2334      00
 2335              	.LASF34:
 2336 0529 705F7469 		.ascii	"p_time\000"
 2336      6D6500
 2337              	.LASF45:
 2338 0530 696E7463 		.ascii	"intctx\000"
 2338      747800
 2339              	.LASF36:
 2340 0537 705F6D73 		.ascii	"p_msgqueue\000"
 2340      67717565 
 2340      756500
 2341              	.LASF53:
 2342 0542 76745F70 		.ascii	"vt_par\000"
 2342      617200
 2343              	.LASF93:
 2344 0549 63665F6F 		.ascii	"cf_off_ctx\000"
 2344      66665F63 
 2344      747800
 2345              	.LASF32:
ARM GAS  /tmp/ccoP3ArB.s 			page 46


 2346 0554 705F7265 		.ascii	"p_refs\000"
 2346      667300
 2347              	.LASF62:
 2348 055b 52656164 		.ascii	"ReadyList\000"
 2348      794C6973 
 2348      7400
 2349              	.LASF64:
 2350 0565 726C6973 		.ascii	"rlist\000"
 2350      7400
 2351              	.LASF7:
 2352 056b 75696E74 		.ascii	"uint8_t\000"
 2352      385F7400 
 2353              	.LASF81:
 2354 0573 77746F62 		.ascii	"wtobjp\000"
 2354      6A7000
 2355              	.LASF29:
 2356 057a 705F6E61 		.ascii	"p_name\000"
 2356      6D6500
 2357              	.LASF54:
 2358 0581 76745F73 		.ascii	"vt_systime\000"
 2358      79737469 
 2358      6D6500
 2359              	.LASF88:
 2360 058c 63685F76 		.ascii	"ch_version\000"
 2360      65727369 
 2360      6F6E00
 2361              	.LASF55:
 2362 0597 56544C69 		.ascii	"VTList\000"
 2362      737400
 2363              	.LASF67:
 2364 059e 6D5F6F77 		.ascii	"m_owner\000"
 2364      6E657200 
 2365              	.LASF26:
 2366 05a6 705F6374 		.ascii	"p_ctx\000"
 2366      7800
 2367              	.LASF35:
 2368 05ac 705F7761 		.ascii	"p_waiting\000"
 2368      6974696E 
 2368      6700
 2369              	.LASF71:
 2370 05b6 6D656D6F 		.ascii	"memory_heap\000"
 2370      72795F68 
 2370      65617000 
 2371              		.ident	"GCC: (15:9-2019-q4-0ubuntu1) 9.2.1 20191025 (release) [ARM/arm-9-branch revision 277599]"
ARM GAS  /tmp/ccoP3ArB.s 			page 47


DEFINED SYMBOLS
                            *ABS*:0000000000000000 chdynamic.c
     /tmp/ccoP3ArB.s:16     .text.chThdAddRef:0000000000000000 $a
     /tmp/ccoP3ArB.s:23     .text.chThdAddRef:0000000000000000 chThdAddRef
     /tmp/ccoP3ArB.s:64     .text.chThdRelease:0000000000000000 $a
     /tmp/ccoP3ArB.s:70     .text.chThdRelease:0000000000000000 chThdRelease
     /tmp/ccoP3ArB.s:138    .text.chThdCreateFromHeap:0000000000000000 $a
     /tmp/ccoP3ArB.s:144    .text.chThdCreateFromHeap:0000000000000000 chThdCreateFromHeap

UNDEFINED SYMBOLS
chHeapFree
chHeapAlloc
chThdCreateI
chSchWakeupS
