ARM GAS  /tmp/cc9XfRU8.s 			page 1


   1              		.cpu arm1176jz-s
   2              		.eabi_attribute 20, 1
   3              		.eabi_attribute 21, 1
   4              		.eabi_attribute 23, 3
   5              		.eabi_attribute 24, 1
   6              		.eabi_attribute 25, 1
   7              		.eabi_attribute 26, 1
   8              		.eabi_attribute 30, 2
   9              		.eabi_attribute 34, 1
  10              		.eabi_attribute 18, 4
  11              		.file	"chevents.c"
  12              		.text
  13              	.Ltext0:
  14              		.cfi_sections	.debug_frame
  15              		.section	.text.chEvtRegisterMask,"ax",%progbits
  16              		.align	2
  17              		.global	chEvtRegisterMask
  18              		.arch armv6kz
  19              		.syntax unified
  20              		.arm
  21              		.fpu softvfp
  22              		.type	chEvtRegisterMask, %function
  23              	chEvtRegisterMask:
  24              	.LVL0:
  25              	.LFB7:
  26              		.file 1 "../os/kernel/src/chevents.c"
  27              		.loc 1 78 80 view -0
  28              		.cfi_startproc
  29              		@ args = 0, pretend = 0, frame = 0
  30              		@ frame_needed = 0, uses_anonymous_args = 0
  31              		.loc 1 80 3 view .LVU1
  32              		.loc 1 80 66 view .LVU2
  33              		.loc 1 82 3 view .LVU3
  34              		.loc 1 78 80 is_stmt 0 view .LVU4
  35 0000 04E02DE5 		str	lr, [sp, #-4]!
  36              		.cfi_def_cfa_offset 4
  37              		.cfi_offset 14, -4
  38              		.loc 1 82 3 view .LVU5
  39              		.syntax divided
  40              	@ 82 "../os/kernel/src/chevents.c" 1
  41 0004 9FF021E3 		msr     CPSR_c, #0x9F
  42              	@ 0 "" 2
  43              		.loc 1 82 3 is_stmt 1 view .LVU6
  44              		.loc 1 82 14 view .LVU7
  45              		.loc 1 83 3 view .LVU8
  46              		.loc 1 87 20 is_stmt 0 view .LVU9
  47              		.arm
  48              		.syntax unified
  49 0008 0030A0E3 		mov	r3, #0
  50              		.loc 1 85 22 view .LVU10
  51 000c 1CC09FE5 		ldr	ip, .L4
  52              		.loc 1 83 20 view .LVU11
  53 0010 00E090E5 		ldr	lr, [r0]
  54              		.loc 1 85 20 view .LVU12
  55 0014 18C09CE5 		ldr	ip, [ip, #24]
  56              		.loc 1 83 20 view .LVU13
  57 0018 00E081E5 		str	lr, [r1]
ARM GAS  /tmp/cc9XfRU8.s 			page 2


  58              		.loc 1 84 3 is_stmt 1 view .LVU14
  59              		.loc 1 84 20 is_stmt 0 view .LVU15
  60 001c 001080E5 		str	r1, [r0]
  61              		.loc 1 85 3 is_stmt 1 view .LVU16
  62              		.loc 1 87 20 is_stmt 0 view .LVU17
  63 0020 F820C1E1 		strd	r2, [r1, #8]
  64              		.loc 1 85 20 view .LVU18
  65 0024 04C081E5 		str	ip, [r1, #4]
  66              		.loc 1 86 3 is_stmt 1 view .LVU19
  67              		.loc 1 88 3 view .LVU20
  68              		.loc 1 88 3 view .LVU21
  69              		.syntax divided
  70              	@ 88 "../os/kernel/src/chevents.c" 1
  71 0028 1FF021E3 		msr     CPSR_c, #0x1F
  72              	@ 0 "" 2
  73              		.loc 1 88 16 view .LVU22
  74              		.loc 1 89 1 is_stmt 0 view .LVU23
  75              		.arm
  76              		.syntax unified
  77 002c 04F09DE4 		ldr	pc, [sp], #4
  78              	.L5:
  79              		.align	2
  80              	.L4:
  81 0030 00000000 		.word	rlist
  82              		.cfi_endproc
  83              	.LFE7:
  84              		.size	chEvtRegisterMask, .-chEvtRegisterMask
  85              		.section	.text.chEvtUnregister,"ax",%progbits
  86              		.align	2
  87              		.global	chEvtUnregister
  88              		.syntax unified
  89              		.arm
  90              		.fpu softvfp
  91              		.type	chEvtUnregister, %function
  92              	chEvtUnregister:
  93              	.LVL1:
  94              	.LFB8:
  95              		.loc 1 104 60 is_stmt 1 view -0
  96              		.cfi_startproc
  97              		@ args = 0, pretend = 0, frame = 0
  98              		@ frame_needed = 0, uses_anonymous_args = 0
  99              		@ link register save eliminated.
 100              		.loc 1 105 3 view .LVU25
 101              		.loc 1 107 3 view .LVU26
 102              		.loc 1 107 64 view .LVU27
 103              		.loc 1 109 3 view .LVU28
 104              		.loc 1 110 3 view .LVU29
 105              		.syntax divided
 106              	@ 110 "../os/kernel/src/chevents.c" 1
 107 0000 9FF021E3 		msr     CPSR_c, #0x9F
 108              	@ 0 "" 2
 109              		.loc 1 110 3 view .LVU30
 110              		.loc 1 110 14 view .LVU31
 111              		.loc 1 111 3 view .LVU32
 112              		.loc 1 109 5 is_stmt 0 view .LVU33
 113              		.arm
 114              		.syntax unified
ARM GAS  /tmp/cc9XfRU8.s 			page 3


 115 0004 0030A0E1 		mov	r3, r0
 116              		.loc 1 111 9 view .LVU34
 117 0008 010000EA 		b	.L7
 118              	.LVL2:
 119              	.L9:
 120              		.loc 1 112 8 view .LVU35
 121 000c 010053E1 		cmp	r3, r1
 122 0010 0500000A 		beq	.L11
 123              	.LVL3:
 124              	.L7:
 125              		.loc 1 112 5 is_stmt 1 view .LVU36
 126              		.loc 1 111 9 view .LVU37
 127 0014 0320A0E1 		mov	r2, r3
 128              		.loc 1 111 11 is_stmt 0 view .LVU38
 129 0018 003093E5 		ldr	r3, [r3]
 130              	.LVL4:
 131              		.loc 1 111 9 view .LVU39
 132 001c 000053E1 		cmp	r3, r0
 133 0020 F9FFFF1A 		bne	.L9
 134              		.loc 1 118 3 is_stmt 1 view .LVU40
 135              		.loc 1 118 3 view .LVU41
 136              		.syntax divided
 137              	@ 118 "../os/kernel/src/chevents.c" 1
 138 0024 1FF021E3 		msr     CPSR_c, #0x1F
 139              	@ 0 "" 2
 140              		.loc 1 118 16 view .LVU42
 141              		.loc 1 119 1 is_stmt 0 view .LVU43
 142              		.arm
 143              		.syntax unified
 144 0028 1EFF2FE1 		bx	lr
 145              	.L11:
 146              		.loc 1 113 7 is_stmt 1 view .LVU44
 147              		.loc 1 113 23 is_stmt 0 view .LVU45
 148 002c 003093E5 		ldr	r3, [r3]
 149              		.loc 1 113 18 view .LVU46
 150 0030 003082E5 		str	r3, [r2]
 151              		.loc 1 114 7 is_stmt 1 view .LVU47
 152              		.loc 1 118 3 view .LVU48
 153              		.loc 1 118 3 view .LVU49
 154              		.syntax divided
 155              	@ 118 "../os/kernel/src/chevents.c" 1
 156 0034 1FF021E3 		msr     CPSR_c, #0x1F
 157              	@ 0 "" 2
 158              		.loc 1 118 16 view .LVU50
 159              		.loc 1 119 1 is_stmt 0 view .LVU51
 160              		.arm
 161              		.syntax unified
 162 0038 1EFF2FE1 		bx	lr
 163              		.cfi_endproc
 164              	.LFE8:
 165              		.size	chEvtUnregister, .-chEvtUnregister
 166              		.section	.text.chEvtGetAndClearEvents,"ax",%progbits
 167              		.align	2
 168              		.global	chEvtGetAndClearEvents
 169              		.syntax unified
 170              		.arm
 171              		.fpu softvfp
ARM GAS  /tmp/cc9XfRU8.s 			page 4


 172              		.type	chEvtGetAndClearEvents, %function
 173              	chEvtGetAndClearEvents:
 174              	.LVL5:
 175              	.LFB9:
 176              		.loc 1 129 54 is_stmt 1 view -0
 177              		.cfi_startproc
 178              		@ args = 0, pretend = 0, frame = 0
 179              		@ frame_needed = 0, uses_anonymous_args = 0
 180              		@ link register save eliminated.
 181              		.loc 1 130 3 view .LVU53
 182              		.loc 1 132 3 view .LVU54
 183              		.syntax divided
 184              	@ 132 "../os/kernel/src/chevents.c" 1
 185 0000 9FF021E3 		msr     CPSR_c, #0x9F
 186              	@ 0 "" 2
 187              		.loc 1 132 3 view .LVU55
 188              		.loc 1 132 14 view .LVU56
 189              		.loc 1 134 3 view .LVU57
 190              		.loc 1 134 7 is_stmt 0 view .LVU58
 191              		.arm
 192              		.syntax unified
 193 0004 18309FE5 		ldr	r3, .L13
 194 0008 182093E5 		ldr	r2, [r3, #24]
 195              		.loc 1 134 12 view .LVU59
 196 000c 383092E5 		ldr	r3, [r2, #56]
 197              	.LVL6:
 198              		.loc 1 135 3 is_stmt 1 view .LVU60
 199              		.loc 1 135 21 is_stmt 0 view .LVU61
 200 0010 0010C3E1 		bic	r1, r3, r0
 201 0014 381082E5 		str	r1, [r2, #56]
 202              		.loc 1 137 3 is_stmt 1 view .LVU62
 203              		.loc 1 137 3 view .LVU63
 204              		.syntax divided
 205              	@ 137 "../os/kernel/src/chevents.c" 1
 206 0018 1FF021E3 		msr     CPSR_c, #0x1F
 207              	@ 0 "" 2
 208              		.loc 1 137 16 view .LVU64
 209              		.loc 1 138 3 view .LVU65
 210              		.loc 1 139 1 is_stmt 0 view .LVU66
 211              		.arm
 212              		.syntax unified
 213 001c 030000E0 		and	r0, r0, r3
 214              	.LVL7:
 215              		.loc 1 139 1 view .LVU67
 216 0020 1EFF2FE1 		bx	lr
 217              	.L14:
 218              		.align	2
 219              	.L13:
 220 0024 00000000 		.word	rlist
 221              		.cfi_endproc
 222              	.LFE9:
 223              		.size	chEvtGetAndClearEvents, .-chEvtGetAndClearEvents
 224              		.section	.text.chEvtAddEvents,"ax",%progbits
 225              		.align	2
 226              		.global	chEvtAddEvents
 227              		.syntax unified
 228              		.arm
ARM GAS  /tmp/cc9XfRU8.s 			page 5


 229              		.fpu softvfp
 230              		.type	chEvtAddEvents, %function
 231              	chEvtAddEvents:
 232              	.LVL8:
 233              	.LFB10:
 234              		.loc 1 150 46 is_stmt 1 view -0
 235              		.cfi_startproc
 236              		@ args = 0, pretend = 0, frame = 0
 237              		@ frame_needed = 0, uses_anonymous_args = 0
 238              		@ link register save eliminated.
 239              		.loc 1 152 3 view .LVU69
 240              		.syntax divided
 241              	@ 152 "../os/kernel/src/chevents.c" 1
 242 0000 9FF021E3 		msr     CPSR_c, #0x9F
 243              	@ 0 "" 2
 244              		.loc 1 152 3 view .LVU70
 245              		.loc 1 152 14 view .LVU71
 246              		.loc 1 154 3 view .LVU72
 247              		.loc 1 154 11 is_stmt 0 view .LVU73
 248              		.arm
 249              		.syntax unified
 250 0004 14309FE5 		ldr	r3, .L16
 251 0008 183093E5 		ldr	r3, [r3, #24]
 252              		.loc 1 154 29 view .LVU74
 253 000c 382093E5 		ldr	r2, [r3, #56]
 254 0010 020080E1 		orr	r0, r0, r2
 255              	.LVL9:
 256              		.loc 1 154 29 view .LVU75
 257 0014 380083E5 		str	r0, [r3, #56]
 258              	.LVL10:
 259              		.loc 1 156 3 is_stmt 1 view .LVU76
 260              		.loc 1 156 3 view .LVU77
 261              		.syntax divided
 262              	@ 156 "../os/kernel/src/chevents.c" 1
 263 0018 1FF021E3 		msr     CPSR_c, #0x1F
 264              	@ 0 "" 2
 265              		.loc 1 156 16 view .LVU78
 266              		.loc 1 157 3 view .LVU79
 267              		.loc 1 158 1 is_stmt 0 view .LVU80
 268              		.arm
 269              		.syntax unified
 270 001c 1EFF2FE1 		bx	lr
 271              	.L17:
 272              		.align	2
 273              	.L16:
 274 0020 00000000 		.word	rlist
 275              		.cfi_endproc
 276              	.LFE10:
 277              		.size	chEvtAddEvents, .-chEvtAddEvents
 278              		.section	.text.chEvtGetAndClearFlags,"ax",%progbits
 279              		.align	2
 280              		.global	chEvtGetAndClearFlags
 281              		.syntax unified
 282              		.arm
 283              		.fpu softvfp
 284              		.type	chEvtGetAndClearFlags, %function
 285              	chEvtGetAndClearFlags:
ARM GAS  /tmp/cc9XfRU8.s 			page 6


 286              	.LVL11:
 287              	.LFB12:
 288              		.loc 1 202 55 is_stmt 1 view -0
 289              		.cfi_startproc
 290              		@ args = 0, pretend = 0, frame = 0
 291              		@ frame_needed = 0, uses_anonymous_args = 0
 292              		@ link register save eliminated.
 293              		.loc 1 203 3 view .LVU82
 294              		.loc 1 205 3 view .LVU83
 295              		.loc 1 202 55 is_stmt 0 view .LVU84
 296 0000 0030A0E1 		mov	r3, r0
 297              		.loc 1 205 3 view .LVU85
 298              		.syntax divided
 299              	@ 205 "../os/kernel/src/chevents.c" 1
 300 0004 9FF021E3 		msr     CPSR_c, #0x9F
 301              	@ 0 "" 2
 302              		.loc 1 205 3 is_stmt 1 view .LVU86
 303              		.loc 1 205 14 view .LVU87
 304              		.loc 1 207 3 view .LVU88
 305              		.loc 1 208 17 is_stmt 0 view .LVU89
 306              		.arm
 307              		.syntax unified
 308 0008 0020A0E3 		mov	r2, #0
 309              		.loc 1 207 9 view .LVU90
 310 000c 0C0090E5 		ldr	r0, [r0, #12]
 311              	.LVL12:
 312              		.loc 1 208 3 is_stmt 1 view .LVU91
 313              		.loc 1 208 17 is_stmt 0 view .LVU92
 314 0010 0C2083E5 		str	r2, [r3, #12]
 315              		.loc 1 210 3 is_stmt 1 view .LVU93
 316              		.loc 1 210 3 view .LVU94
 317              		.syntax divided
 318              	@ 210 "../os/kernel/src/chevents.c" 1
 319 0014 1FF021E3 		msr     CPSR_c, #0x1F
 320              	@ 0 "" 2
 321              		.loc 1 210 16 view .LVU95
 322              		.loc 1 211 3 view .LVU96
 323              		.loc 1 212 1 is_stmt 0 view .LVU97
 324              		.arm
 325              		.syntax unified
 326 0018 1EFF2FE1 		bx	lr
 327              		.cfi_endproc
 328              	.LFE12:
 329              		.size	chEvtGetAndClearFlags, .-chEvtGetAndClearFlags
 330              		.section	.text.chEvtSignalI,"ax",%progbits
 331              		.align	2
 332              		.global	chEvtSignalI
 333              		.syntax unified
 334              		.arm
 335              		.fpu softvfp
 336              		.type	chEvtSignalI, %function
 337              	chEvtSignalI:
 338              	.LVL13:
 339              	.LFB14:
 340              		.loc 1 244 49 is_stmt 1 view -0
 341              		.cfi_startproc
 342              		@ args = 0, pretend = 0, frame = 0
ARM GAS  /tmp/cc9XfRU8.s 			page 7


 343              		@ frame_needed = 0, uses_anonymous_args = 0
 344              		.loc 1 246 3 view .LVU99
 345              		.loc 1 246 21 view .LVU100
 346              		.loc 1 247 3 view .LVU101
 347              		.loc 1 247 41 view .LVU102
 348              		.loc 1 249 3 view .LVU103
 349              		.loc 1 249 18 is_stmt 0 view .LVU104
 350 0000 382090E5 		ldr	r2, [r0, #56]
 351              		.loc 1 251 11 view .LVU105
 352 0004 1C30D0E5 		ldrb	r3, [r0, #28]	@ zero_extendqisi2
 353              		.loc 1 249 18 view .LVU106
 354 0008 021081E1 		orr	r1, r1, r2
 355              	.LVL14:
 356              		.loc 1 251 6 view .LVU107
 357 000c 080053E3 		cmp	r3, #8
 358              		.loc 1 249 18 view .LVU108
 359 0010 381080E5 		str	r1, [r0, #56]
 360              		.loc 1 251 3 is_stmt 1 view .LVU109
 361              		.loc 1 251 6 is_stmt 0 view .LVU110
 362 0014 0900000A 		beq	.L27
 363              		.loc 1 252 50 view .LVU111
 364 0018 090053E3 		cmp	r3, #9
 365 001c 1EFF2F11 		bxne	lr
 366              		.loc 1 254 34 view .LVU112
 367 0020 243090E5 		ldr	r3, [r0, #36]
 368              		.loc 1 253 44 view .LVU113
 369 0024 0130D3E1 		bics	r3, r3, r1
 370 0028 1EFF2F11 		bxne	lr
 371              	.L21:
 372              	.LVL15:
 373              	.LBB4:
 374              	.LBI4:
 375              		.loc 1 244 6 is_stmt 1 view .LVU114
 376              	.LBB5:
 377              		.loc 1 255 5 view .LVU115
 378              	.LBE5:
 379              	.LBE4:
 380              		.loc 1 244 49 is_stmt 0 view .LVU116
 381 002c 10402DE9 		push	{r4, lr}
 382              		.cfi_def_cfa_offset 8
 383              		.cfi_offset 4, -8
 384              		.cfi_offset 14, -4
 385              	.LBB7:
 386              	.LBB6:
 387              		.loc 1 255 5 view .LVU117
 388 0030 FEFFFFEB 		bl	chSchReadyI
 389              	.LVL16:
 390              		.loc 1 255 33 view .LVU118
 391 0034 0030A0E3 		mov	r3, #0
 392 0038 243080E5 		str	r3, [r0, #36]
 393              	.LVL17:
 394              		.loc 1 255 33 view .LVU119
 395              	.LBE6:
 396              	.LBE7:
 397              		.loc 1 256 1 view .LVU120
 398 003c 1080BDE8 		pop	{r4, pc}
 399              	.LVL18:
ARM GAS  /tmp/cc9XfRU8.s 			page 8


 400              	.L27:
 401              		.cfi_def_cfa_offset 0
 402              		.cfi_restore 4
 403              		.cfi_restore 14
 404              		.loc 1 252 25 discriminator 1 view .LVU121
 405 0040 243090E5 		ldr	r3, [r0, #36]
 406              		.loc 1 251 43 discriminator 1 view .LVU122
 407 0044 030011E1 		tst	r1, r3
 408 0048 1EFF2F01 		bxeq	lr
 409 004c F6FFFFEA 		b	.L21
 410              		.cfi_endproc
 411              	.LFE14:
 412              		.size	chEvtSignalI, .-chEvtSignalI
 413              		.section	.text.chEvtBroadcastFlagsI,"ax",%progbits
 414              		.align	2
 415              		.global	chEvtBroadcastFlagsI
 416              		.syntax unified
 417              		.arm
 418              		.fpu softvfp
 419              		.type	chEvtBroadcastFlagsI, %function
 420              	chEvtBroadcastFlagsI:
 421              	.LVL19:
 422              	.LFB11:
 423              		.loc 1 177 64 is_stmt 1 view -0
 424              		.cfi_startproc
 425              		@ args = 0, pretend = 0, frame = 0
 426              		@ frame_needed = 0, uses_anonymous_args = 0
 427              		.loc 1 178 3 view .LVU124
 428              		.loc 1 180 3 view .LVU125
 429              		.loc 1 180 21 view .LVU126
 430              		.loc 1 181 3 view .LVU127
 431              		.loc 1 181 49 view .LVU128
 432              		.loc 1 183 3 view .LVU129
 433              		.loc 1 177 64 is_stmt 0 view .LVU130
 434 0000 70402DE9 		push	{r4, r5, r6, lr}
 435              		.cfi_def_cfa_offset 16
 436              		.cfi_offset 4, -16
 437              		.cfi_offset 5, -12
 438              		.cfi_offset 6, -8
 439              		.cfi_offset 14, -4
 440              		.loc 1 183 7 view .LVU131
 441 0004 004090E5 		ldr	r4, [r0]
 442              	.LVL20:
 443              		.loc 1 184 3 is_stmt 1 view .LVU132
 444              		.loc 1 184 9 view .LVU133
 445 0008 040050E1 		cmp	r0, r4
 446 000c 7080BD08 		popeq	{r4, r5, r6, pc}
 447 0010 0050A0E1 		mov	r5, r0
 448 0014 0160A0E1 		mov	r6, r1
 449              	.LVL21:
 450              	.L30:
 451              		.loc 1 185 5 view .LVU134
 452              		.loc 1 185 19 is_stmt 0 view .LVU135
 453 0018 0C3094E5 		ldr	r3, [r4, #12]
 454              		.loc 1 186 5 view .LVU136
 455 001c 081094E5 		ldr	r1, [r4, #8]
 456              		.loc 1 185 19 view .LVU137
ARM GAS  /tmp/cc9XfRU8.s 			page 9


 457 0020 063083E1 		orr	r3, r3, r6
 458              		.loc 1 186 5 view .LVU138
 459 0024 040094E5 		ldr	r0, [r4, #4]
 460              		.loc 1 185 19 view .LVU139
 461 0028 0C3084E5 		str	r3, [r4, #12]
 462              		.loc 1 186 5 is_stmt 1 view .LVU140
 463 002c FEFFFFEB 		bl	chEvtSignalI
 464              	.LVL22:
 465              		.loc 1 187 5 view .LVU141
 466              		.loc 1 187 9 is_stmt 0 view .LVU142
 467 0030 004094E5 		ldr	r4, [r4]
 468              	.LVL23:
 469              		.loc 1 184 9 is_stmt 1 view .LVU143
 470 0034 040055E1 		cmp	r5, r4
 471 0038 F6FFFF1A 		bne	.L30
 472 003c 7080BDE8 		pop	{r4, r5, r6, pc}
 473              		.cfi_endproc
 474              	.LFE11:
 475              		.size	chEvtBroadcastFlagsI, .-chEvtBroadcastFlagsI
 476              		.section	.text.chEvtSignal,"ax",%progbits
 477              		.align	2
 478              		.global	chEvtSignal
 479              		.syntax unified
 480              		.arm
 481              		.fpu softvfp
 482              		.type	chEvtSignal, %function
 483              	chEvtSignal:
 484              	.LVL24:
 485              	.LFB13:
 486              		.loc 1 222 48 view -0
 487              		.cfi_startproc
 488              		@ args = 0, pretend = 0, frame = 0
 489              		@ frame_needed = 0, uses_anonymous_args = 0
 490              		.loc 1 224 3 view .LVU145
 491              		.loc 1 224 40 view .LVU146
 492              		.loc 1 226 3 view .LVU147
 493              		.loc 1 222 48 is_stmt 0 view .LVU148
 494 0000 10402DE9 		push	{r4, lr}
 495              		.cfi_def_cfa_offset 8
 496              		.cfi_offset 4, -8
 497              		.cfi_offset 14, -4
 498              		.loc 1 226 3 view .LVU149
 499              		.syntax divided
 500              	@ 226 "../os/kernel/src/chevents.c" 1
 501 0004 9FF021E3 		msr     CPSR_c, #0x9F
 502              	@ 0 "" 2
 503              		.loc 1 226 3 is_stmt 1 view .LVU150
 504              		.loc 1 226 14 view .LVU151
 505              		.loc 1 227 3 view .LVU152
 506              		.arm
 507              		.syntax unified
 508 0008 FEFFFFEB 		bl	chEvtSignalI
 509              	.LVL25:
 510              		.loc 1 228 3 view .LVU153
 511 000c FEFFFFEB 		bl	chSchRescheduleS
 512              	.LVL26:
 513              		.loc 1 229 3 view .LVU154
ARM GAS  /tmp/cc9XfRU8.s 			page 10


 514              		.loc 1 229 3 view .LVU155
 515              		.syntax divided
 516              	@ 229 "../os/kernel/src/chevents.c" 1
 517 0010 1FF021E3 		msr     CPSR_c, #0x1F
 518              	@ 0 "" 2
 519              		.loc 1 229 16 view .LVU156
 520              		.loc 1 230 1 is_stmt 0 view .LVU157
 521              		.arm
 522              		.syntax unified
 523 0014 1080BDE8 		pop	{r4, pc}
 524              		.cfi_endproc
 525              	.LFE13:
 526              		.size	chEvtSignal, .-chEvtSignal
 527              		.section	.text.chEvtBroadcastFlags,"ax",%progbits
 528              		.align	2
 529              		.global	chEvtBroadcastFlags
 530              		.syntax unified
 531              		.arm
 532              		.fpu softvfp
 533              		.type	chEvtBroadcastFlags, %function
 534              	chEvtBroadcastFlags:
 535              	.LVL27:
 536              	.LFB15:
 537              		.loc 1 271 63 is_stmt 1 view -0
 538              		.cfi_startproc
 539              		@ args = 0, pretend = 0, frame = 0
 540              		@ frame_needed = 0, uses_anonymous_args = 0
 541              		.loc 1 273 3 view .LVU159
 542              		.loc 1 271 63 is_stmt 0 view .LVU160
 543 0000 10402DE9 		push	{r4, lr}
 544              		.cfi_def_cfa_offset 8
 545              		.cfi_offset 4, -8
 546              		.cfi_offset 14, -4
 547              		.loc 1 273 3 view .LVU161
 548              		.syntax divided
 549              	@ 273 "../os/kernel/src/chevents.c" 1
 550 0004 9FF021E3 		msr     CPSR_c, #0x9F
 551              	@ 0 "" 2
 552              		.loc 1 273 3 is_stmt 1 view .LVU162
 553              		.loc 1 273 14 view .LVU163
 554              		.loc 1 274 3 view .LVU164
 555              		.arm
 556              		.syntax unified
 557 0008 FEFFFFEB 		bl	chEvtBroadcastFlagsI
 558              	.LVL28:
 559              		.loc 1 275 3 view .LVU165
 560 000c FEFFFFEB 		bl	chSchRescheduleS
 561              	.LVL29:
 562              		.loc 1 276 3 view .LVU166
 563              		.loc 1 276 3 view .LVU167
 564              		.syntax divided
 565              	@ 276 "../os/kernel/src/chevents.c" 1
 566 0010 1FF021E3 		msr     CPSR_c, #0x1F
 567              	@ 0 "" 2
 568              		.loc 1 276 16 view .LVU168
 569              		.loc 1 277 1 is_stmt 0 view .LVU169
 570              		.arm
ARM GAS  /tmp/cc9XfRU8.s 			page 11


 571              		.syntax unified
 572 0014 1080BDE8 		pop	{r4, pc}
 573              		.cfi_endproc
 574              	.LFE15:
 575              		.size	chEvtBroadcastFlags, .-chEvtBroadcastFlags
 576              		.section	.text.chEvtGetAndClearFlagsI,"ax",%progbits
 577              		.align	2
 578              		.global	chEvtGetAndClearFlagsI
 579              		.syntax unified
 580              		.arm
 581              		.fpu softvfp
 582              		.type	chEvtGetAndClearFlagsI, %function
 583              	chEvtGetAndClearFlagsI:
 584              	.LVL30:
 585              	.LFB16:
 586              		.loc 1 290 56 is_stmt 1 view -0
 587              		.cfi_startproc
 588              		@ args = 0, pretend = 0, frame = 0
 589              		@ frame_needed = 0, uses_anonymous_args = 0
 590              		@ link register save eliminated.
 591              		.loc 1 291 3 view .LVU171
 592              		.loc 1 293 3 view .LVU172
 593              		.loc 1 290 56 is_stmt 0 view .LVU173
 594 0000 0030A0E1 		mov	r3, r0
 595              		.loc 1 294 17 view .LVU174
 596 0004 0020A0E3 		mov	r2, #0
 597              		.loc 1 293 9 view .LVU175
 598 0008 0C0090E5 		ldr	r0, [r0, #12]
 599              	.LVL31:
 600              		.loc 1 294 3 is_stmt 1 view .LVU176
 601              		.loc 1 294 17 is_stmt 0 view .LVU177
 602 000c 0C2083E5 		str	r2, [r3, #12]
 603              		.loc 1 296 3 is_stmt 1 view .LVU178
 604              		.loc 1 297 1 is_stmt 0 view .LVU179
 605 0010 1EFF2FE1 		bx	lr
 606              		.cfi_endproc
 607              	.LFE16:
 608              		.size	chEvtGetAndClearFlagsI, .-chEvtGetAndClearFlagsI
 609              		.section	.text.chEvtDispatch,"ax",%progbits
 610              		.align	2
 611              		.global	chEvtDispatch
 612              		.syntax unified
 613              		.arm
 614              		.fpu softvfp
 615              		.type	chEvtDispatch, %function
 616              	chEvtDispatch:
 617              	.LVL32:
 618              	.LFB17:
 619              		.loc 1 308 67 is_stmt 1 view -0
 620              		.cfi_startproc
 621              		@ args = 0, pretend = 0, frame = 0
 622              		@ frame_needed = 0, uses_anonymous_args = 0
 623              		.loc 1 309 3 view .LVU181
 624              		.loc 1 311 3 view .LVU182
 625              		.loc 1 311 48 view .LVU183
 626              		.loc 1 313 3 view .LVU184
 627              		.loc 1 314 3 view .LVU185
ARM GAS  /tmp/cc9XfRU8.s 			page 12


 628              		.loc 1 314 9 view .LVU186
 629              		.loc 1 308 67 is_stmt 0 view .LVU187
 630 0000 F0412DE9 		push	{r4, r5, r6, r7, r8, lr}
 631              		.cfi_def_cfa_offset 24
 632              		.cfi_offset 4, -24
 633              		.cfi_offset 5, -20
 634              		.cfi_offset 6, -16
 635              		.cfi_offset 7, -12
 636              		.cfi_offset 8, -8
 637              		.cfi_offset 14, -4
 638              		.loc 1 314 9 view .LVU188
 639 0004 005051E2 		subs	r5, r1, #0
 640 0008 F081BD08 		popeq	{r4, r5, r6, r7, r8, pc}
 641 000c 0070A0E1 		mov	r7, r0
 642              		.loc 1 313 7 view .LVU189
 643 0010 0040A0E3 		mov	r4, #0
 644              		.loc 1 315 16 view .LVU190
 645 0014 0160A0E3 		mov	r6, #1
 646              	.LVL33:
 647              	.L41:
 648              		.loc 1 315 5 is_stmt 1 view .LVU191
 649              		.loc 1 316 7 view .LVU192
 650              		.loc 1 318 34 view .LVU193
 651              		.loc 1 319 7 view .LVU194
 652              		.loc 1 322 5 view .LVU195
 653              		.loc 1 315 16 is_stmt 0 view .LVU196
 654 0018 1634A0E1 		lsl	r3, r6, r4
 655              		.loc 1 315 8 view .LVU197
 656 001c 050013E1 		tst	r3, r5
 657 0020 0900000A 		beq	.L40
 658              	.L51:
 659              		.loc 1 320 7 view .LVU198
 660 0024 0400A0E1 		mov	r0, r4
 661              		.loc 1 319 12 view .LVU199
 662 0028 0350C5E1 		bic	r5, r5, r3
 663              	.LVL34:
 664              		.loc 1 320 7 is_stmt 1 view .LVU200
 665 002c 043197E7 		ldr	r3, [r7, r4, lsl #2]
 666 0030 33FF2FE1 		blx	r3
 667              	.LVL35:
 668              		.loc 1 322 5 view .LVU201
 669              		.loc 1 314 9 is_stmt 0 view .LVU202
 670 0034 000055E3 		cmp	r5, #0
 671              		.loc 1 322 8 view .LVU203
 672 0038 014084E2 		add	r4, r4, #1
 673              	.LVL36:
 674              		.loc 1 314 9 is_stmt 1 view .LVU204
 675 003c F081BD08 		popeq	{r4, r5, r6, r7, r8, pc}
 676              		.loc 1 315 5 view .LVU205
 677              		.loc 1 316 7 view .LVU206
 678              		.loc 1 318 34 view .LVU207
 679              		.loc 1 319 7 view .LVU208
 680              		.loc 1 322 5 view .LVU209
 681              		.loc 1 315 16 is_stmt 0 view .LVU210
 682 0040 1634A0E1 		lsl	r3, r6, r4
 683              		.loc 1 315 8 view .LVU211
 684 0044 050013E1 		tst	r3, r5
ARM GAS  /tmp/cc9XfRU8.s 			page 13


 685 0048 F5FFFF1A 		bne	.L51
 686              	.L40:
 687              		.loc 1 322 8 view .LVU212
 688 004c 014084E2 		add	r4, r4, #1
 689              	.LVL37:
 690              		.loc 1 314 9 is_stmt 1 view .LVU213
 691              		.loc 1 314 9 is_stmt 0 view .LVU214
 692 0050 F0FFFFEA 		b	.L41
 693              		.cfi_endproc
 694              	.LFE17:
 695              		.size	chEvtDispatch, .-chEvtDispatch
 696              		.section	.text.chEvtWaitOne,"ax",%progbits
 697              		.align	2
 698              		.global	chEvtWaitOne
 699              		.syntax unified
 700              		.arm
 701              		.fpu softvfp
 702              		.type	chEvtWaitOne, %function
 703              	chEvtWaitOne:
 704              	.LVL38:
 705              	.LFB18:
 706              		.loc 1 343 44 is_stmt 1 view -0
 707              		.cfi_startproc
 708              		@ args = 0, pretend = 0, frame = 0
 709              		@ frame_needed = 0, uses_anonymous_args = 0
 710              		.loc 1 344 3 view .LVU216
 711              		.loc 1 344 11 is_stmt 0 view .LVU217
 712 0000 48309FE5 		ldr	r3, .L56
 713              		.loc 1 343 44 view .LVU218
 714 0004 70402DE9 		push	{r4, r5, r6, lr}
 715              		.cfi_def_cfa_offset 16
 716              		.cfi_offset 4, -16
 717              		.cfi_offset 5, -12
 718              		.cfi_offset 6, -8
 719              		.cfi_offset 14, -4
 720              		.loc 1 344 11 view .LVU219
 721 0008 185093E5 		ldr	r5, [r3, #24]
 722              	.LVL39:
 723              		.loc 1 345 3 is_stmt 1 view .LVU220
 724              		.loc 1 347 3 view .LVU221
 725              		.syntax divided
 726              	@ 347 "../os/kernel/src/chevents.c" 1
 727 000c 9FF021E3 		msr     CPSR_c, #0x9F
 728              	@ 0 "" 2
 729              		.loc 1 347 3 view .LVU222
 730              		.loc 1 347 14 view .LVU223
 731              		.loc 1 349 3 view .LVU224
 732              		.loc 1 349 16 is_stmt 0 view .LVU225
 733              		.arm
 734              		.syntax unified
 735 0010 383095E5 		ldr	r3, [r5, #56]
 736              	.LVL40:
 737              		.loc 1 349 6 view .LVU226
 738 0014 002013E0 		ands	r2, r3, r0
 739 0018 0500000A 		beq	.L55
 740              	.LVL41:
 741              	.L53:
ARM GAS  /tmp/cc9XfRU8.s 			page 14


 742              		.loc 1 354 3 is_stmt 1 view .LVU227
 743              		.loc 1 354 8 is_stmt 0 view .LVU228
 744 001c 000062E2 		rsb	r0, r2, #0
 745              		.loc 1 354 5 view .LVU229
 746 0020 020000E0 		and	r0, r0, r2
 747              	.LVL42:
 748              		.loc 1 355 3 is_stmt 1 view .LVU230
 749              		.loc 1 355 19 is_stmt 0 view .LVU231
 750 0024 0030C3E1 		bic	r3, r3, r0
 751 0028 383085E5 		str	r3, [r5, #56]
 752              		.loc 1 357 3 is_stmt 1 view .LVU232
 753              		.loc 1 357 3 view .LVU233
 754              		.syntax divided
 755              	@ 357 "../os/kernel/src/chevents.c" 1
 756 002c 1FF021E3 		msr     CPSR_c, #0x1F
 757              	@ 0 "" 2
 758              		.loc 1 357 16 view .LVU234
 759              		.loc 1 358 3 view .LVU235
 760              		.loc 1 359 1 is_stmt 0 view .LVU236
 761              		.arm
 762              		.syntax unified
 763 0030 7080BDE8 		pop	{r4, r5, r6, pc}
 764              	.LVL43:
 765              	.L55:
 766              		.loc 1 359 1 view .LVU237
 767 0034 0040A0E1 		mov	r4, r0
 768              		.loc 1 350 5 is_stmt 1 view .LVU238
 769              		.loc 1 350 21 is_stmt 0 view .LVU239
 770 0038 240085E5 		str	r0, [r5, #36]
 771              		.loc 1 351 5 is_stmt 1 view .LVU240
 772 003c 0800A0E3 		mov	r0, #8
 773              	.LVL44:
 774              		.loc 1 351 5 is_stmt 0 view .LVU241
 775 0040 FEFFFFEB 		bl	chSchGoSleepS
 776              	.LVL45:
 777              		.loc 1 352 5 is_stmt 1 view .LVU242
 778              		.loc 1 352 12 is_stmt 0 view .LVU243
 779 0044 383095E5 		ldr	r3, [r5, #56]
 780              		.loc 1 352 7 view .LVU244
 781 0048 042003E0 		and	r2, r3, r4
 782              	.LVL46:
 783              		.loc 1 352 7 view .LVU245
 784 004c F2FFFFEA 		b	.L53
 785              	.L57:
 786              		.align	2
 787              	.L56:
 788 0050 00000000 		.word	rlist
 789              		.cfi_endproc
 790              	.LFE18:
 791              		.size	chEvtWaitOne, .-chEvtWaitOne
 792              		.section	.text.chEvtWaitAny,"ax",%progbits
 793              		.align	2
 794              		.global	chEvtWaitAny
 795              		.syntax unified
 796              		.arm
 797              		.fpu softvfp
 798              		.type	chEvtWaitAny, %function
ARM GAS  /tmp/cc9XfRU8.s 			page 15


 799              	chEvtWaitAny:
 800              	.LVL47:
 801              	.LFB19:
 802              		.loc 1 372 44 is_stmt 1 view -0
 803              		.cfi_startproc
 804              		@ args = 0, pretend = 0, frame = 0
 805              		@ frame_needed = 0, uses_anonymous_args = 0
 806              		.loc 1 373 3 view .LVU247
 807              		.loc 1 373 11 is_stmt 0 view .LVU248
 808 0000 40309FE5 		ldr	r3, .L62
 809              		.loc 1 372 44 view .LVU249
 810 0004 70402DE9 		push	{r4, r5, r6, lr}
 811              		.cfi_def_cfa_offset 16
 812              		.cfi_offset 4, -16
 813              		.cfi_offset 5, -12
 814              		.cfi_offset 6, -8
 815              		.cfi_offset 14, -4
 816              		.loc 1 372 44 view .LVU250
 817 0008 0040A0E1 		mov	r4, r0
 818              		.loc 1 373 11 view .LVU251
 819 000c 185093E5 		ldr	r5, [r3, #24]
 820              	.LVL48:
 821              		.loc 1 374 3 is_stmt 1 view .LVU252
 822              		.loc 1 376 3 view .LVU253
 823              		.syntax divided
 824              	@ 376 "../os/kernel/src/chevents.c" 1
 825 0010 9FF021E3 		msr     CPSR_c, #0x9F
 826              	@ 0 "" 2
 827              		.loc 1 376 3 view .LVU254
 828              		.loc 1 376 14 view .LVU255
 829              		.loc 1 378 3 view .LVU256
 830              		.loc 1 378 16 is_stmt 0 view .LVU257
 831              		.arm
 832              		.syntax unified
 833 0014 383095E5 		ldr	r3, [r5, #56]
 834              	.LVL49:
 835              		.loc 1 378 6 view .LVU258
 836 0018 000013E0 		ands	r0, r3, r0
 837              	.LVL50:
 838              		.loc 1 378 6 view .LVU259
 839 001c 0300000A 		beq	.L61
 840              	.LVL51:
 841              	.L59:
 842              		.loc 1 383 3 is_stmt 1 view .LVU260
 843              		.loc 1 383 19 is_stmt 0 view .LVU261
 844 0020 0030C3E1 		bic	r3, r3, r0
 845 0024 383085E5 		str	r3, [r5, #56]
 846              		.loc 1 385 3 is_stmt 1 view .LVU262
 847              		.loc 1 385 3 view .LVU263
 848              		.syntax divided
 849              	@ 385 "../os/kernel/src/chevents.c" 1
 850 0028 1FF021E3 		msr     CPSR_c, #0x1F
 851              	@ 0 "" 2
 852              		.loc 1 385 16 view .LVU264
 853              		.loc 1 386 3 view .LVU265
 854              		.loc 1 387 1 is_stmt 0 view .LVU266
 855              		.arm
ARM GAS  /tmp/cc9XfRU8.s 			page 16


 856              		.syntax unified
 857 002c 7080BDE8 		pop	{r4, r5, r6, pc}
 858              	.L61:
 859              		.loc 1 379 5 is_stmt 1 view .LVU267
 860              		.loc 1 380 5 is_stmt 0 view .LVU268
 861 0030 0800A0E3 		mov	r0, #8
 862              	.LVL52:
 863              		.loc 1 379 21 view .LVU269
 864 0034 244085E5 		str	r4, [r5, #36]
 865              		.loc 1 380 5 is_stmt 1 view .LVU270
 866 0038 FEFFFFEB 		bl	chSchGoSleepS
 867              	.LVL53:
 868              		.loc 1 381 5 view .LVU271
 869              		.loc 1 381 12 is_stmt 0 view .LVU272
 870 003c 383095E5 		ldr	r3, [r5, #56]
 871              		.loc 1 381 7 view .LVU273
 872 0040 040003E0 		and	r0, r3, r4
 873              	.LVL54:
 874              		.loc 1 381 7 view .LVU274
 875 0044 F5FFFFEA 		b	.L59
 876              	.L63:
 877              		.align	2
 878              	.L62:
 879 0048 00000000 		.word	rlist
 880              		.cfi_endproc
 881              	.LFE19:
 882              		.size	chEvtWaitAny, .-chEvtWaitAny
 883              		.section	.text.chEvtWaitAll,"ax",%progbits
 884              		.align	2
 885              		.global	chEvtWaitAll
 886              		.syntax unified
 887              		.arm
 888              		.fpu softvfp
 889              		.type	chEvtWaitAll, %function
 890              	chEvtWaitAll:
 891              	.LVL55:
 892              	.LFB20:
 893              		.loc 1 400 44 is_stmt 1 view -0
 894              		.cfi_startproc
 895              		@ args = 0, pretend = 0, frame = 0
 896              		@ frame_needed = 0, uses_anonymous_args = 0
 897              		.loc 1 401 3 view .LVU276
 898              		.loc 1 401 11 is_stmt 0 view .LVU277
 899 0000 3C309FE5 		ldr	r3, .L67
 900              		.loc 1 400 44 view .LVU278
 901 0004 70402DE9 		push	{r4, r5, r6, lr}
 902              		.cfi_def_cfa_offset 16
 903              		.cfi_offset 4, -16
 904              		.cfi_offset 5, -12
 905              		.cfi_offset 6, -8
 906              		.cfi_offset 14, -4
 907              		.loc 1 400 44 view .LVU279
 908 0008 0040A0E1 		mov	r4, r0
 909              		.loc 1 401 11 view .LVU280
 910 000c 185093E5 		ldr	r5, [r3, #24]
 911              	.LVL56:
 912              		.loc 1 403 3 is_stmt 1 view .LVU281
ARM GAS  /tmp/cc9XfRU8.s 			page 17


 913              		.syntax divided
 914              	@ 403 "../os/kernel/src/chevents.c" 1
 915 0010 9FF021E3 		msr     CPSR_c, #0x9F
 916              	@ 0 "" 2
 917              		.loc 1 403 3 view .LVU282
 918              		.loc 1 403 14 view .LVU283
 919              		.loc 1 405 3 view .LVU284
 920              		.loc 1 405 11 is_stmt 0 view .LVU285
 921              		.arm
 922              		.syntax unified
 923 0014 383095E5 		ldr	r3, [r5, #56]
 924              		.loc 1 405 6 view .LVU286
 925 0018 0320D0E1 		bics	r2, r0, r3
 926 001c 0300000A 		beq	.L65
 927              		.loc 1 406 5 is_stmt 1 view .LVU287
 928              		.loc 1 406 21 is_stmt 0 view .LVU288
 929 0020 240085E5 		str	r0, [r5, #36]
 930              		.loc 1 407 5 is_stmt 1 view .LVU289
 931 0024 0900A0E3 		mov	r0, #9
 932              	.LVL57:
 933              		.loc 1 407 5 is_stmt 0 view .LVU290
 934 0028 FEFFFFEB 		bl	chSchGoSleepS
 935              	.LVL58:
 936 002c 383095E5 		ldr	r3, [r5, #56]
 937              	.L65:
 938              		.loc 1 409 3 is_stmt 1 view .LVU291
 939              		.loc 1 409 19 is_stmt 0 view .LVU292
 940 0030 0430C3E1 		bic	r3, r3, r4
 941 0034 383085E5 		str	r3, [r5, #56]
 942              		.loc 1 411 3 is_stmt 1 view .LVU293
 943              		.loc 1 411 3 view .LVU294
 944              		.syntax divided
 945              	@ 411 "../os/kernel/src/chevents.c" 1
 946 0038 1FF021E3 		msr     CPSR_c, #0x1F
 947              	@ 0 "" 2
 948              		.loc 1 411 16 view .LVU295
 949              		.loc 1 412 3 view .LVU296
 950              		.loc 1 413 1 is_stmt 0 view .LVU297
 951              		.arm
 952              		.syntax unified
 953 003c 0400A0E1 		mov	r0, r4
 954 0040 7080BDE8 		pop	{r4, r5, r6, pc}
 955              	.L68:
 956              		.align	2
 957              	.L67:
 958 0044 00000000 		.word	rlist
 959              		.cfi_endproc
 960              	.LFE20:
 961              		.size	chEvtWaitAll, .-chEvtWaitAll
 962              		.section	.text.chEvtWaitOneTimeout,"ax",%progbits
 963              		.align	2
 964              		.global	chEvtWaitOneTimeout
 965              		.syntax unified
 966              		.arm
 967              		.fpu softvfp
 968              		.type	chEvtWaitOneTimeout, %function
 969              	chEvtWaitOneTimeout:
ARM GAS  /tmp/cc9XfRU8.s 			page 18


 970              	.LVL59:
 971              	.LFB21:
 972              		.loc 1 439 67 is_stmt 1 view -0
 973              		.cfi_startproc
 974              		@ args = 0, pretend = 0, frame = 0
 975              		@ frame_needed = 0, uses_anonymous_args = 0
 976              		.loc 1 440 3 view .LVU299
 977              		.loc 1 440 11 is_stmt 0 view .LVU300
 978 0000 5C309FE5 		ldr	r3, .L76
 979              		.loc 1 439 67 view .LVU301
 980 0004 70402DE9 		push	{r4, r5, r6, lr}
 981              		.cfi_def_cfa_offset 16
 982              		.cfi_offset 4, -16
 983              		.cfi_offset 5, -12
 984              		.cfi_offset 6, -8
 985              		.cfi_offset 14, -4
 986              		.loc 1 440 11 view .LVU302
 987 0008 186093E5 		ldr	r6, [r3, #24]
 988              	.LVL60:
 989              		.loc 1 441 3 is_stmt 1 view .LVU303
 990              		.loc 1 443 3 view .LVU304
 991              		.syntax divided
 992              	@ 443 "../os/kernel/src/chevents.c" 1
 993 000c 9FF021E3 		msr     CPSR_c, #0x9F
 994              	@ 0 "" 2
 995              		.loc 1 443 3 view .LVU305
 996              		.loc 1 443 14 view .LVU306
 997              		.loc 1 445 3 view .LVU307
 998              		.loc 1 445 16 is_stmt 0 view .LVU308
 999              		.arm
 1000              		.syntax unified
 1001 0010 383096E5 		ldr	r3, [r6, #56]
 1002              	.LVL61:
 1003              		.loc 1 445 6 view .LVU309
 1004 0014 005013E0 		ands	r5, r3, r0
 1005 0018 0C00001A 		bne	.L70
 1006              		.loc 1 446 5 is_stmt 1 view .LVU310
 1007              		.loc 1 446 8 is_stmt 0 view .LVU311
 1008 001c 000051E3 		cmp	r1, #0
 1009 0020 0200001A 		bne	.L71
 1010              	.LVL62:
 1011              	.L75:
 1012              		.loc 1 460 3 is_stmt 1 view .LVU312
 1013              		.loc 1 460 3 view .LVU313
 1014              		.syntax divided
 1015              	@ 460 "../os/kernel/src/chevents.c" 1
 1016 0024 1FF021E3 		msr     CPSR_c, #0x1F
 1017              	@ 0 "" 2
 1018              		.loc 1 460 16 view .LVU314
 1019              		.loc 1 461 3 view .LVU315
 1020              		.loc 1 462 1 is_stmt 0 view .LVU316
 1021              		.arm
 1022              		.syntax unified
 1023 0028 0500A0E1 		mov	r0, r5
 1024 002c 7080BDE8 		pop	{r4, r5, r6, pc}
 1025              	.LVL63:
 1026              	.L71:
ARM GAS  /tmp/cc9XfRU8.s 			page 19


 1027              		.loc 1 450 5 is_stmt 1 view .LVU317
 1028              		.loc 1 450 21 is_stmt 0 view .LVU318
 1029 0030 240086E5 		str	r0, [r6, #36]
 1030              		.loc 1 451 5 is_stmt 1 view .LVU319
 1031 0034 0040A0E1 		mov	r4, r0
 1032              		.loc 1 451 9 is_stmt 0 view .LVU320
 1033 0038 0800A0E3 		mov	r0, #8
 1034              	.LVL64:
 1035              		.loc 1 451 9 view .LVU321
 1036 003c FEFFFFEB 		bl	chSchGoSleepTimeoutS
 1037              	.LVL65:
 1038              		.loc 1 451 8 view .LVU322
 1039 0040 000050E3 		cmp	r0, #0
 1040 0044 F6FFFFBA 		blt	.L75
 1041              		.loc 1 455 5 is_stmt 1 view .LVU323
 1042              		.loc 1 455 12 is_stmt 0 view .LVU324
 1043 0048 383096E5 		ldr	r3, [r6, #56]
 1044              		.loc 1 455 7 view .LVU325
 1045 004c 045003E0 		and	r5, r3, r4
 1046              	.LVL66:
 1047              	.L70:
 1048              		.loc 1 457 3 is_stmt 1 view .LVU326
 1049              		.loc 1 457 8 is_stmt 0 view .LVU327
 1050 0050 002065E2 		rsb	r2, r5, #0
 1051              		.loc 1 457 5 view .LVU328
 1052 0054 025005E0 		and	r5, r5, r2
 1053              	.LVL67:
 1054              		.loc 1 458 3 is_stmt 1 view .LVU329
 1055              		.loc 1 458 19 is_stmt 0 view .LVU330
 1056 0058 0530C3E1 		bic	r3, r3, r5
 1057 005c 383086E5 		str	r3, [r6, #56]
 1058 0060 EFFFFFEA 		b	.L75
 1059              	.L77:
 1060              		.align	2
 1061              	.L76:
 1062 0064 00000000 		.word	rlist
 1063              		.cfi_endproc
 1064              	.LFE21:
 1065              		.size	chEvtWaitOneTimeout, .-chEvtWaitOneTimeout
 1066              		.section	.text.chEvtWaitAnyTimeout,"ax",%progbits
 1067              		.align	2
 1068              		.global	chEvtWaitAnyTimeout
 1069              		.syntax unified
 1070              		.arm
 1071              		.fpu softvfp
 1072              		.type	chEvtWaitAnyTimeout, %function
 1073              	chEvtWaitAnyTimeout:
 1074              	.LVL68:
 1075              	.LFB22:
 1076              		.loc 1 482 67 is_stmt 1 view -0
 1077              		.cfi_startproc
 1078              		@ args = 0, pretend = 0, frame = 0
 1079              		@ frame_needed = 0, uses_anonymous_args = 0
 1080              		.loc 1 483 3 view .LVU332
 1081              		.loc 1 483 11 is_stmt 0 view .LVU333
 1082 0000 54309FE5 		ldr	r3, .L85
 1083              		.loc 1 482 67 view .LVU334
ARM GAS  /tmp/cc9XfRU8.s 			page 20


 1084 0004 70402DE9 		push	{r4, r5, r6, lr}
 1085              		.cfi_def_cfa_offset 16
 1086              		.cfi_offset 4, -16
 1087              		.cfi_offset 5, -12
 1088              		.cfi_offset 6, -8
 1089              		.cfi_offset 14, -4
 1090              		.loc 1 483 11 view .LVU335
 1091 0008 185093E5 		ldr	r5, [r3, #24]
 1092              	.LVL69:
 1093              		.loc 1 484 3 is_stmt 1 view .LVU336
 1094              		.loc 1 486 3 view .LVU337
 1095              		.syntax divided
 1096              	@ 486 "../os/kernel/src/chevents.c" 1
 1097 000c 9FF021E3 		msr     CPSR_c, #0x9F
 1098              	@ 0 "" 2
 1099              		.loc 1 486 3 view .LVU338
 1100              		.loc 1 486 14 view .LVU339
 1101              		.loc 1 488 3 view .LVU340
 1102              		.loc 1 488 16 is_stmt 0 view .LVU341
 1103              		.arm
 1104              		.syntax unified
 1105 0010 383095E5 		ldr	r3, [r5, #56]
 1106              	.LVL70:
 1107              		.loc 1 488 6 view .LVU342
 1108 0014 006013E0 		ands	r6, r3, r0
 1109 0018 0C00001A 		bne	.L79
 1110              		.loc 1 489 5 is_stmt 1 view .LVU343
 1111              		.loc 1 489 8 is_stmt 0 view .LVU344
 1112 001c 000051E3 		cmp	r1, #0
 1113 0020 0200001A 		bne	.L80
 1114              	.LVL71:
 1115              	.L84:
 1116              		.loc 1 502 3 is_stmt 1 view .LVU345
 1117              		.loc 1 502 3 view .LVU346
 1118              		.syntax divided
 1119              	@ 502 "../os/kernel/src/chevents.c" 1
 1120 0024 1FF021E3 		msr     CPSR_c, #0x1F
 1121              	@ 0 "" 2
 1122              		.loc 1 502 16 view .LVU347
 1123              		.loc 1 503 3 view .LVU348
 1124              		.loc 1 504 1 is_stmt 0 view .LVU349
 1125              		.arm
 1126              		.syntax unified
 1127 0028 0600A0E1 		mov	r0, r6
 1128 002c 7080BDE8 		pop	{r4, r5, r6, pc}
 1129              	.LVL72:
 1130              	.L80:
 1131              		.loc 1 493 5 is_stmt 1 view .LVU350
 1132              		.loc 1 493 21 is_stmt 0 view .LVU351
 1133 0030 240085E5 		str	r0, [r5, #36]
 1134              		.loc 1 494 5 is_stmt 1 view .LVU352
 1135 0034 0040A0E1 		mov	r4, r0
 1136              		.loc 1 494 9 is_stmt 0 view .LVU353
 1137 0038 0800A0E3 		mov	r0, #8
 1138              	.LVL73:
 1139              		.loc 1 494 9 view .LVU354
 1140 003c FEFFFFEB 		bl	chSchGoSleepTimeoutS
ARM GAS  /tmp/cc9XfRU8.s 			page 21


 1141              	.LVL74:
 1142              		.loc 1 494 8 view .LVU355
 1143 0040 000050E3 		cmp	r0, #0
 1144 0044 F6FFFFBA 		blt	.L84
 1145              		.loc 1 498 5 is_stmt 1 view .LVU356
 1146              		.loc 1 498 12 is_stmt 0 view .LVU357
 1147 0048 383095E5 		ldr	r3, [r5, #56]
 1148              		.loc 1 498 7 view .LVU358
 1149 004c 046003E0 		and	r6, r3, r4
 1150              	.LVL75:
 1151              	.L79:
 1152              		.loc 1 500 3 is_stmt 1 view .LVU359
 1153              		.loc 1 500 19 is_stmt 0 view .LVU360
 1154 0050 0630C3E1 		bic	r3, r3, r6
 1155 0054 383085E5 		str	r3, [r5, #56]
 1156 0058 F1FFFFEA 		b	.L84
 1157              	.L86:
 1158              		.align	2
 1159              	.L85:
 1160 005c 00000000 		.word	rlist
 1161              		.cfi_endproc
 1162              	.LFE22:
 1163              		.size	chEvtWaitAnyTimeout, .-chEvtWaitAnyTimeout
 1164              		.section	.text.chEvtWaitAllTimeout,"ax",%progbits
 1165              		.align	2
 1166              		.global	chEvtWaitAllTimeout
 1167              		.syntax unified
 1168              		.arm
 1169              		.fpu softvfp
 1170              		.type	chEvtWaitAllTimeout, %function
 1171              	chEvtWaitAllTimeout:
 1172              	.LVL76:
 1173              	.LFB23:
 1174              		.loc 1 523 67 is_stmt 1 view -0
 1175              		.cfi_startproc
 1176              		@ args = 0, pretend = 0, frame = 0
 1177              		@ frame_needed = 0, uses_anonymous_args = 0
 1178              		.loc 1 524 3 view .LVU362
 1179              		.loc 1 524 11 is_stmt 0 view .LVU363
 1180 0000 64309FE5 		ldr	r3, .L93
 1181              		.loc 1 523 67 view .LVU364
 1182 0004 70402DE9 		push	{r4, r5, r6, lr}
 1183              		.cfi_def_cfa_offset 16
 1184              		.cfi_offset 4, -16
 1185              		.cfi_offset 5, -12
 1186              		.cfi_offset 6, -8
 1187              		.cfi_offset 14, -4
 1188              		.loc 1 523 67 view .LVU365
 1189 0008 0040A0E1 		mov	r4, r0
 1190              		.loc 1 524 11 view .LVU366
 1191 000c 185093E5 		ldr	r5, [r3, #24]
 1192              	.LVL77:
 1193              		.loc 1 526 3 is_stmt 1 view .LVU367
 1194              		.syntax divided
 1195              	@ 526 "../os/kernel/src/chevents.c" 1
 1196 0010 9FF021E3 		msr     CPSR_c, #0x9F
 1197              	@ 0 "" 2
ARM GAS  /tmp/cc9XfRU8.s 			page 22


 1198              		.loc 1 526 3 view .LVU368
 1199              		.loc 1 526 14 view .LVU369
 1200              		.loc 1 528 3 view .LVU370
 1201              		.loc 1 528 11 is_stmt 0 view .LVU371
 1202              		.arm
 1203              		.syntax unified
 1204 0014 383095E5 		ldr	r3, [r5, #56]
 1205              		.loc 1 528 6 view .LVU372
 1206 0018 0320D0E1 		bics	r2, r0, r3
 1207 001c 0A00000A 		beq	.L88
 1208              		.loc 1 529 8 view .LVU373
 1209 0020 000051E3 		cmp	r1, #0
 1210 0024 0100A0E1 		mov	r0, r1
 1211              	.LVL78:
 1212              		.loc 1 529 5 is_stmt 1 view .LVU374
 1213              		.loc 1 529 8 is_stmt 0 view .LVU375
 1214 0028 0100001A 		bne	.L89
 1215              		.loc 1 530 7 is_stmt 1 view .LVU376
 1216              		.loc 1 530 7 view .LVU377
 1217              		.syntax divided
 1218              	@ 530 "../os/kernel/src/chevents.c" 1
 1219 002c 1FF021E3 		msr     CPSR_c, #0x1F
 1220              	@ 0 "" 2
 1221              		.loc 1 530 20 view .LVU378
 1222              		.loc 1 531 7 view .LVU379
 1223              		.loc 1 531 14 is_stmt 0 view .LVU380
 1224              		.arm
 1225              		.syntax unified
 1226 0030 7080BDE8 		pop	{r4, r5, r6, pc}
 1227              	.L89:
 1228              		.loc 1 533 5 is_stmt 1 view .LVU381
 1229              		.loc 1 534 9 is_stmt 0 view .LVU382
 1230 0034 0900A0E3 		mov	r0, #9
 1231              		.loc 1 533 21 view .LVU383
 1232 0038 244085E5 		str	r4, [r5, #36]
 1233              		.loc 1 534 5 is_stmt 1 view .LVU384
 1234              		.loc 1 534 9 is_stmt 0 view .LVU385
 1235 003c FEFFFFEB 		bl	chSchGoSleepTimeoutS
 1236              	.LVL79:
 1237              		.loc 1 534 8 view .LVU386
 1238 0040 000050E3 		cmp	r0, #0
 1239 0044 050000BA 		blt	.L91
 1240 0048 383095E5 		ldr	r3, [r5, #56]
 1241              	.L88:
 1242              		.loc 1 539 3 is_stmt 1 view .LVU387
 1243              		.loc 1 539 19 is_stmt 0 view .LVU388
 1244 004c 0430C3E1 		bic	r3, r3, r4
 1245 0050 383085E5 		str	r3, [r5, #56]
 1246              		.loc 1 541 3 is_stmt 1 view .LVU389
 1247              		.loc 1 541 3 view .LVU390
 1248              		.syntax divided
 1249              	@ 541 "../os/kernel/src/chevents.c" 1
 1250 0054 1FF021E3 		msr     CPSR_c, #0x1F
 1251              	@ 0 "" 2
 1252              		.loc 1 541 16 view .LVU391
 1253              		.loc 1 542 3 view .LVU392
 1254              		.loc 1 542 10 is_stmt 0 view .LVU393
ARM GAS  /tmp/cc9XfRU8.s 			page 23


 1255              		.arm
 1256              		.syntax unified
 1257 0058 0400A0E1 		mov	r0, r4
 1258              		.loc 1 543 1 view .LVU394
 1259 005c 7080BDE8 		pop	{r4, r5, r6, pc}
 1260              	.L91:
 1261              		.loc 1 535 7 is_stmt 1 view .LVU395
 1262              		.loc 1 535 7 view .LVU396
 1263              		.syntax divided
 1264              	@ 535 "../os/kernel/src/chevents.c" 1
 1265 0060 1FF021E3 		msr     CPSR_c, #0x1F
 1266              	@ 0 "" 2
 1267              		.loc 1 535 20 view .LVU397
 1268              		.loc 1 536 7 view .LVU398
 1269              		.loc 1 536 14 is_stmt 0 view .LVU399
 1270              		.arm
 1271              		.syntax unified
 1272 0064 0000A0E3 		mov	r0, #0
 1273 0068 7080BDE8 		pop	{r4, r5, r6, pc}
 1274              	.L94:
 1275              		.align	2
 1276              	.L93:
 1277 006c 00000000 		.word	rlist
 1278              		.cfi_endproc
 1279              	.LFE23:
 1280              		.size	chEvtWaitAllTimeout, .-chEvtWaitAllTimeout
 1281              		.text
 1282              	.Letext0:
 1283              		.file 2 "/usr/lib/gcc/arm-none-eabi/9.2.1/include/stdint.h"
 1284              		.file 3 "../os/ports/GCC/ARM/chtypes.h"
 1285              		.file 4 "../os/kernel/include/chlists.h"
 1286              		.file 5 "../os/kernel/include/chthreads.h"
 1287              		.file 6 "../os/ports/GCC/ARM/chcore.h"
 1288              		.file 7 "../os/kernel/include/chvt.h"
 1289              		.file 8 "../os/kernel/include/chschd.h"
 1290              		.file 9 "../os/kernel/include/chmtx.h"
 1291              		.file 10 "../os/kernel/include/chevents.h"
 1292              		.file 11 "../os/kernel/include/chregistry.h"
 1293              		.file 12 "../os/kernel/include/ch.h"
 1294              		.section	.debug_info,"",%progbits
 1295              	.Ldebug_info0:
 1296 0000 4A0D0000 		.4byte	0xd4a
 1297 0004 0400     		.2byte	0x4
 1298 0006 00000000 		.4byte	.Ldebug_abbrev0
 1299 000a 04       		.byte	0x4
 1300 000b 01       		.uleb128 0x1
 1301 000c 13000000 		.4byte	.LASF128
 1302 0010 0C       		.byte	0xc
 1303 0011 A2040000 		.4byte	.LASF129
 1304 0015 51050000 		.4byte	.LASF130
 1305 0019 18000000 		.4byte	.Ldebug_ranges0+0x18
 1306 001d 00000000 		.4byte	0
 1307 0021 00000000 		.4byte	.Ldebug_line0
 1308 0025 02       		.uleb128 0x2
 1309 0026 04       		.byte	0x4
 1310 0027 05       		.byte	0x5
 1311 0028 696E7400 		.ascii	"int\000"
ARM GAS  /tmp/cc9XfRU8.s 			page 24


 1312 002c 03       		.uleb128 0x3
 1313 002d 04       		.byte	0x4
 1314 002e 07       		.byte	0x7
 1315 002f 9C020000 		.4byte	.LASF0
 1316 0033 03       		.uleb128 0x3
 1317 0034 01       		.byte	0x1
 1318 0035 06       		.byte	0x6
 1319 0036 74010000 		.4byte	.LASF1
 1320 003a 03       		.uleb128 0x3
 1321 003b 02       		.byte	0x2
 1322 003c 05       		.byte	0x5
 1323 003d 7A040000 		.4byte	.LASF2
 1324 0041 04       		.uleb128 0x4
 1325 0042 38040000 		.4byte	.LASF5
 1326 0046 02       		.byte	0x2
 1327 0047 28       		.byte	0x28
 1328 0048 18       		.byte	0x18
 1329 0049 4D000000 		.4byte	0x4d
 1330 004d 03       		.uleb128 0x3
 1331 004e 04       		.byte	0x4
 1332 004f 05       		.byte	0x5
 1333 0050 C3010000 		.4byte	.LASF3
 1334 0054 03       		.uleb128 0x3
 1335 0055 08       		.byte	0x8
 1336 0056 05       		.byte	0x5
 1337 0057 66010000 		.4byte	.LASF4
 1338 005b 04       		.uleb128 0x4
 1339 005c 33060000 		.4byte	.LASF6
 1340 0060 02       		.byte	0x2
 1341 0061 2E       		.byte	0x2e
 1342 0062 18       		.byte	0x18
 1343 0063 67000000 		.4byte	0x67
 1344 0067 03       		.uleb128 0x3
 1345 0068 01       		.byte	0x1
 1346 0069 08       		.byte	0x8
 1347 006a 40040000 		.4byte	.LASF7
 1348 006e 04       		.uleb128 0x4
 1349 006f F7010000 		.4byte	.LASF8
 1350 0073 02       		.byte	0x2
 1351 0074 31       		.byte	0x31
 1352 0075 19       		.byte	0x19
 1353 0076 7A000000 		.4byte	0x7a
 1354 007a 03       		.uleb128 0x3
 1355 007b 02       		.byte	0x2
 1356 007c 07       		.byte	0x7
 1357 007d F9020000 		.4byte	.LASF9
 1358 0081 04       		.uleb128 0x4
 1359 0082 27050000 		.4byte	.LASF10
 1360 0086 02       		.byte	0x2
 1361 0087 34       		.byte	0x34
 1362 0088 19       		.byte	0x19
 1363 0089 8D000000 		.4byte	0x8d
 1364 008d 03       		.uleb128 0x3
 1365 008e 04       		.byte	0x4
 1366 008f 07       		.byte	0x7
 1367 0090 B1020000 		.4byte	.LASF11
 1368 0094 03       		.uleb128 0x3
ARM GAS  /tmp/cc9XfRU8.s 			page 25


 1369 0095 08       		.byte	0x8
 1370 0096 07       		.byte	0x7
 1371 0097 01010000 		.4byte	.LASF12
 1372 009b 04       		.uleb128 0x4
 1373 009c 3C030000 		.4byte	.LASF13
 1374 00a0 03       		.byte	0x3
 1375 00a1 2A       		.byte	0x2a
 1376 00a2 19       		.byte	0x19
 1377 00a3 5B000000 		.4byte	0x5b
 1378 00a7 04       		.uleb128 0x4
 1379 00a8 CC010000 		.4byte	.LASF14
 1380 00ac 03       		.byte	0x3
 1381 00ad 2B       		.byte	0x2b
 1382 00ae 19       		.byte	0x19
 1383 00af 5B000000 		.4byte	0x5b
 1384 00b3 04       		.uleb128 0x4
 1385 00b4 16040000 		.4byte	.LASF15
 1386 00b8 03       		.byte	0x3
 1387 00b9 2C       		.byte	0x2c
 1388 00ba 19       		.byte	0x19
 1389 00bb 5B000000 		.4byte	0x5b
 1390 00bf 04       		.uleb128 0x4
 1391 00c0 B9010000 		.4byte	.LASF16
 1392 00c4 03       		.byte	0x3
 1393 00c5 2D       		.byte	0x2d
 1394 00c6 19       		.byte	0x19
 1395 00c7 5B000000 		.4byte	0x5b
 1396 00cb 04       		.uleb128 0x4
 1397 00cc 30040000 		.4byte	.LASF17
 1398 00d0 03       		.byte	0x3
 1399 00d1 2E       		.byte	0x2e
 1400 00d2 19       		.byte	0x19
 1401 00d3 81000000 		.4byte	0x81
 1402 00d7 04       		.uleb128 0x4
 1403 00d8 1E030000 		.4byte	.LASF18
 1404 00dc 03       		.byte	0x3
 1405 00dd 2F       		.byte	0x2f
 1406 00de 19       		.byte	0x19
 1407 00df 41000000 		.4byte	0x41
 1408 00e3 04       		.uleb128 0x4
 1409 00e4 7A020000 		.4byte	.LASF19
 1410 00e8 03       		.byte	0x3
 1411 00e9 30       		.byte	0x30
 1412 00ea 19       		.byte	0x19
 1413 00eb 41000000 		.4byte	0x41
 1414 00ef 04       		.uleb128 0x4
 1415 00f0 50030000 		.4byte	.LASF20
 1416 00f4 03       		.byte	0x3
 1417 00f5 31       		.byte	0x31
 1418 00f6 19       		.byte	0x19
 1419 00f7 81000000 		.4byte	0x81
 1420 00fb 04       		.uleb128 0x4
 1421 00fc 05060000 		.4byte	.LASF21
 1422 0100 03       		.byte	0x3
 1423 0101 32       		.byte	0x32
 1424 0102 19       		.byte	0x19
 1425 0103 81000000 		.4byte	0x81
ARM GAS  /tmp/cc9XfRU8.s 			page 26


 1426 0107 04       		.uleb128 0x4
 1427 0108 C7050000 		.4byte	.LASF22
 1428 010c 03       		.byte	0x3
 1429 010d 33       		.byte	0x33
 1430 010e 19       		.byte	0x19
 1431 010f 81000000 		.4byte	0x81
 1432 0113 05       		.uleb128 0x5
 1433 0114 07010000 		.4byte	0x107
 1434 0118 04       		.uleb128 0x4
 1435 0119 FA040000 		.4byte	.LASF23
 1436 011d 04       		.byte	0x4
 1437 011e 23       		.byte	0x23
 1438 011f 17       		.byte	0x17
 1439 0120 24010000 		.4byte	0x124
 1440 0124 06       		.uleb128 0x6
 1441 0125 FA040000 		.4byte	.LASF23
 1442 0129 44       		.byte	0x44
 1443 012a 05       		.byte	0x5
 1444 012b 57       		.byte	0x57
 1445 012c 08       		.byte	0x8
 1446 012d 29020000 		.4byte	0x229
 1447 0131 07       		.uleb128 0x7
 1448 0132 DC040000 		.4byte	.LASF24
 1449 0136 05       		.byte	0x5
 1450 0137 58       		.byte	0x58
 1451 0138 1A       		.byte	0x1a
 1452 0139 4D020000 		.4byte	0x24d
 1453 013d 00       		.byte	0
 1454 013e 07       		.uleb128 0x7
 1455 013f 29040000 		.4byte	.LASF25
 1456 0143 05       		.byte	0x5
 1457 0144 5A       		.byte	0x5a
 1458 0145 1A       		.byte	0x1a
 1459 0146 4D020000 		.4byte	0x24d
 1460 014a 04       		.byte	0x4
 1461 014b 07       		.uleb128 0x7
 1462 014c 52010000 		.4byte	.LASF26
 1463 0150 05       		.byte	0x5
 1464 0151 5C       		.byte	0x5c
 1465 0152 19       		.byte	0x19
 1466 0153 CB000000 		.4byte	0xcb
 1467 0157 08       		.byte	0x8
 1468 0158 07       		.uleb128 0x7
 1469 0159 B4060000 		.4byte	.LASF27
 1470 015d 05       		.byte	0x5
 1471 015e 5D       		.byte	0x5d
 1472 015f 19       		.byte	0x19
 1473 0160 18030000 		.4byte	0x318
 1474 0164 0C       		.byte	0xc
 1475 0165 07       		.uleb128 0x7
 1476 0166 1F020000 		.4byte	.LASF28
 1477 016a 05       		.byte	0x5
 1478 016b 5F       		.byte	0x5f
 1479 016c 1A       		.byte	0x1a
 1480 016d 4D020000 		.4byte	0x24d
 1481 0171 10       		.byte	0x10
 1482 0172 07       		.uleb128 0x7
ARM GAS  /tmp/cc9XfRU8.s 			page 27


 1483 0173 BE030000 		.4byte	.LASF29
 1484 0177 05       		.byte	0x5
 1485 0178 60       		.byte	0x60
 1486 0179 1A       		.byte	0x1a
 1487 017a 4D020000 		.4byte	0x24d
 1488 017e 14       		.byte	0x14
 1489 017f 07       		.uleb128 0x7
 1490 0180 6A060000 		.4byte	.LASF30
 1491 0184 05       		.byte	0x5
 1492 0185 67       		.byte	0x67
 1493 0186 1A       		.byte	0x1a
 1494 0187 9B050000 		.4byte	0x59b
 1495 018b 18       		.byte	0x18
 1496 018c 07       		.uleb128 0x7
 1497 018d 84040000 		.4byte	.LASF31
 1498 0191 05       		.byte	0x5
 1499 0192 72       		.byte	0x72
 1500 0193 19       		.byte	0x19
 1501 0194 A7000000 		.4byte	0xa7
 1502 0198 1C       		.byte	0x1c
 1503 0199 07       		.uleb128 0x7
 1504 019a F2040000 		.4byte	.LASF32
 1505 019e 05       		.byte	0x5
 1506 019f 76       		.byte	0x76
 1507 01a0 19       		.byte	0x19
 1508 01a1 9B000000 		.4byte	0x9b
 1509 01a5 1D       		.byte	0x1d
 1510 01a6 07       		.uleb128 0x7
 1511 01a7 1C060000 		.4byte	.LASF33
 1512 01ab 05       		.byte	0x5
 1513 01ac 7B       		.byte	0x7b
 1514 01ad 19       		.byte	0x19
 1515 01ae B3000000 		.4byte	0xb3
 1516 01b2 1E       		.byte	0x1e
 1517 01b3 07       		.uleb128 0x7
 1518 01b4 8C040000 		.4byte	.LASF34
 1519 01b8 05       		.byte	0x5
 1520 01b9 81       		.byte	0x81
 1521 01ba 19       		.byte	0x19
 1522 01bb BF000000 		.4byte	0xbf
 1523 01bf 1F       		.byte	0x1f
 1524 01c0 07       		.uleb128 0x7
 1525 01c1 E5050000 		.4byte	.LASF35
 1526 01c5 05       		.byte	0x5
 1527 01c6 88       		.byte	0x88
 1528 01c7 19       		.byte	0x19
 1529 01c8 13010000 		.4byte	0x113
 1530 01cc 20       		.byte	0x20
 1531 01cd 08       		.uleb128 0x8
 1532 01ce 705F7500 		.ascii	"p_u\000"
 1533 01d2 05       		.byte	0x5
 1534 01d3 AD       		.byte	0xad
 1535 01d4 19       		.byte	0x19
 1536 01d5 61050000 		.4byte	0x561
 1537 01d9 24       		.byte	0x24
 1538 01da 07       		.uleb128 0x7
 1539 01db BA060000 		.4byte	.LASF36
ARM GAS  /tmp/cc9XfRU8.s 			page 28


 1540 01df 05       		.byte	0x5
 1541 01e0 B2       		.byte	0xb2
 1542 01e1 19       		.byte	0x19
 1543 01e2 76020000 		.4byte	0x276
 1544 01e6 28       		.byte	0x28
 1545 01e7 07       		.uleb128 0x7
 1546 01e8 F3050000 		.4byte	.LASF37
 1547 01ec 05       		.byte	0x5
 1548 01ed B8       		.byte	0xb8
 1549 01ee 19       		.byte	0x19
 1550 01ef 53020000 		.4byte	0x253
 1551 01f3 2C       		.byte	0x2c
 1552 01f4 07       		.uleb128 0x7
 1553 01f5 0D000000 		.4byte	.LASF38
 1554 01f9 05       		.byte	0x5
 1555 01fa BC       		.byte	0xbc
 1556 01fb 19       		.byte	0x19
 1557 01fc D7000000 		.4byte	0xd7
 1558 0200 34       		.byte	0x34
 1559 0201 07       		.uleb128 0x7
 1560 0202 1C050000 		.4byte	.LASF39
 1561 0206 05       		.byte	0x5
 1562 0207 C2       		.byte	0xc2
 1563 0208 19       		.byte	0x19
 1564 0209 EF000000 		.4byte	0xef
 1565 020d 38       		.byte	0x38
 1566 020e 07       		.uleb128 0x7
 1567 020f 70040000 		.4byte	.LASF40
 1568 0213 05       		.byte	0x5
 1569 0214 C9       		.byte	0xc9
 1570 0215 1A       		.byte	0x1a
 1571 0216 AD050000 		.4byte	0x5ad
 1572 021a 3C       		.byte	0x3c
 1573 021b 07       		.uleb128 0x7
 1574 021c D1050000 		.4byte	.LASF41
 1575 0220 05       		.byte	0x5
 1576 0221 CD       		.byte	0xcd
 1577 0222 19       		.byte	0x19
 1578 0223 CB000000 		.4byte	0xcb
 1579 0227 40       		.byte	0x40
 1580 0228 00       		.byte	0
 1581 0229 09       		.uleb128 0x9
 1582 022a 08       		.byte	0x8
 1583 022b 04       		.byte	0x4
 1584 022c 5A       		.byte	0x5a
 1585 022d 09       		.byte	0x9
 1586 022e 4D020000 		.4byte	0x24d
 1587 0232 07       		.uleb128 0x7
 1588 0233 DC040000 		.4byte	.LASF24
 1589 0237 04       		.byte	0x4
 1590 0238 5B       		.byte	0x5b
 1591 0239 1A       		.byte	0x1a
 1592 023a 4D020000 		.4byte	0x24d
 1593 023e 00       		.byte	0
 1594 023f 07       		.uleb128 0x7
 1595 0240 29040000 		.4byte	.LASF25
 1596 0244 04       		.byte	0x4
ARM GAS  /tmp/cc9XfRU8.s 			page 29


 1597 0245 5D       		.byte	0x5d
 1598 0246 1A       		.byte	0x1a
 1599 0247 4D020000 		.4byte	0x24d
 1600 024b 04       		.byte	0x4
 1601 024c 00       		.byte	0
 1602 024d 0A       		.uleb128 0xa
 1603 024e 04       		.byte	0x4
 1604 024f 18010000 		.4byte	0x118
 1605 0253 04       		.uleb128 0x4
 1606 0254 CC030000 		.4byte	.LASF42
 1607 0258 04       		.byte	0x4
 1608 0259 5F       		.byte	0x5f
 1609 025a 03       		.byte	0x3
 1610 025b 29020000 		.4byte	0x229
 1611 025f 09       		.uleb128 0x9
 1612 0260 04       		.byte	0x4
 1613 0261 04       		.byte	0x4
 1614 0262 64       		.byte	0x64
 1615 0263 09       		.byte	0x9
 1616 0264 76020000 		.4byte	0x276
 1617 0268 07       		.uleb128 0x7
 1618 0269 DC040000 		.4byte	.LASF24
 1619 026d 04       		.byte	0x4
 1620 026e 66       		.byte	0x66
 1621 026f 16       		.byte	0x16
 1622 0270 4D020000 		.4byte	0x24d
 1623 0274 00       		.byte	0
 1624 0275 00       		.byte	0
 1625 0276 04       		.uleb128 0x4
 1626 0277 44030000 		.4byte	.LASF43
 1627 027b 04       		.byte	0x4
 1628 027c 69       		.byte	0x69
 1629 027d 03       		.byte	0x3
 1630 027e 5F020000 		.4byte	0x25f
 1631 0282 04       		.uleb128 0x4
 1632 0283 62030000 		.4byte	.LASF44
 1633 0287 06       		.byte	0x6
 1634 0288 9D       		.byte	0x9d
 1635 0289 12       		.byte	0x12
 1636 028a 81000000 		.4byte	0x81
 1637 028e 04       		.uleb128 0x4
 1638 028f 55020000 		.4byte	.LASF45
 1639 0293 06       		.byte	0x6
 1640 0294 A2       		.byte	0xa2
 1641 0295 0F       		.byte	0xf
 1642 0296 9A020000 		.4byte	0x29a
 1643 029a 0B       		.uleb128 0xb
 1644 029b 04       		.byte	0x4
 1645 029c 06       		.uleb128 0x6
 1646 029d EC050000 		.4byte	.LASF46
 1647 02a1 24       		.byte	0x24
 1648 02a2 06       		.byte	0x6
 1649 02a3 B9       		.byte	0xb9
 1650 02a4 08       		.byte	0x8
 1651 02a5 18030000 		.4byte	0x318
 1652 02a9 08       		.uleb128 0x8
 1653 02aa 723400   		.ascii	"r4\000"
ARM GAS  /tmp/cc9XfRU8.s 			page 30


 1654 02ad 06       		.byte	0x6
 1655 02ae BA       		.byte	0xba
 1656 02af 11       		.byte	0x11
 1657 02b0 8E020000 		.4byte	0x28e
 1658 02b4 00       		.byte	0
 1659 02b5 08       		.uleb128 0x8
 1660 02b6 723500   		.ascii	"r5\000"
 1661 02b9 06       		.byte	0x6
 1662 02ba BB       		.byte	0xbb
 1663 02bb 11       		.byte	0x11
 1664 02bc 8E020000 		.4byte	0x28e
 1665 02c0 04       		.byte	0x4
 1666 02c1 08       		.uleb128 0x8
 1667 02c2 723600   		.ascii	"r6\000"
 1668 02c5 06       		.byte	0x6
 1669 02c6 BC       		.byte	0xbc
 1670 02c7 11       		.byte	0x11
 1671 02c8 8E020000 		.4byte	0x28e
 1672 02cc 08       		.byte	0x8
 1673 02cd 08       		.uleb128 0x8
 1674 02ce 723700   		.ascii	"r7\000"
 1675 02d1 06       		.byte	0x6
 1676 02d2 BD       		.byte	0xbd
 1677 02d3 11       		.byte	0x11
 1678 02d4 8E020000 		.4byte	0x28e
 1679 02d8 0C       		.byte	0xc
 1680 02d9 08       		.uleb128 0x8
 1681 02da 723800   		.ascii	"r8\000"
 1682 02dd 06       		.byte	0x6
 1683 02de BE       		.byte	0xbe
 1684 02df 11       		.byte	0x11
 1685 02e0 8E020000 		.4byte	0x28e
 1686 02e4 10       		.byte	0x10
 1687 02e5 08       		.uleb128 0x8
 1688 02e6 723900   		.ascii	"r9\000"
 1689 02e9 06       		.byte	0x6
 1690 02ea BF       		.byte	0xbf
 1691 02eb 11       		.byte	0x11
 1692 02ec 8E020000 		.4byte	0x28e
 1693 02f0 14       		.byte	0x14
 1694 02f1 08       		.uleb128 0x8
 1695 02f2 72313000 		.ascii	"r10\000"
 1696 02f6 06       		.byte	0x6
 1697 02f7 C0       		.byte	0xc0
 1698 02f8 11       		.byte	0x11
 1699 02f9 8E020000 		.4byte	0x28e
 1700 02fd 18       		.byte	0x18
 1701 02fe 08       		.uleb128 0x8
 1702 02ff 72313100 		.ascii	"r11\000"
 1703 0303 06       		.byte	0x6
 1704 0304 C1       		.byte	0xc1
 1705 0305 11       		.byte	0x11
 1706 0306 8E020000 		.4byte	0x28e
 1707 030a 1C       		.byte	0x1c
 1708 030b 08       		.uleb128 0x8
 1709 030c 6C7200   		.ascii	"lr\000"
 1710 030f 06       		.byte	0x6
ARM GAS  /tmp/cc9XfRU8.s 			page 31


 1711 0310 C2       		.byte	0xc2
 1712 0311 11       		.byte	0x11
 1713 0312 8E020000 		.4byte	0x28e
 1714 0316 20       		.byte	0x20
 1715 0317 00       		.byte	0
 1716 0318 06       		.uleb128 0x6
 1717 0319 F1020000 		.4byte	.LASF47
 1718 031d 04       		.byte	0x4
 1719 031e 06       		.byte	0x6
 1720 031f CA       		.byte	0xca
 1721 0320 08       		.byte	0x8
 1722 0321 33030000 		.4byte	0x333
 1723 0325 08       		.uleb128 0x8
 1724 0326 72313300 		.ascii	"r13\000"
 1725 032a 06       		.byte	0x6
 1726 032b CB       		.byte	0xcb
 1727 032c 12       		.byte	0x12
 1728 032d 33030000 		.4byte	0x333
 1729 0331 00       		.byte	0
 1730 0332 00       		.byte	0
 1731 0333 0A       		.uleb128 0xa
 1732 0334 04       		.byte	0x4
 1733 0335 9C020000 		.4byte	0x29c
 1734 0339 04       		.uleb128 0x4
 1735 033a DC050000 		.4byte	.LASF48
 1736 033e 07       		.byte	0x7
 1737 033f 4E       		.byte	0x4e
 1738 0340 10       		.byte	0x10
 1739 0341 45030000 		.4byte	0x345
 1740 0345 0A       		.uleb128 0xa
 1741 0346 04       		.byte	0x4
 1742 0347 4B030000 		.4byte	0x34b
 1743 034b 0C       		.uleb128 0xc
 1744 034c 56030000 		.4byte	0x356
 1745 0350 0D       		.uleb128 0xd
 1746 0351 9A020000 		.4byte	0x29a
 1747 0355 00       		.byte	0
 1748 0356 04       		.uleb128 0x4
 1749 0357 44050000 		.4byte	.LASF49
 1750 035b 07       		.byte	0x7
 1751 035c 53       		.byte	0x53
 1752 035d 1D       		.byte	0x1d
 1753 035e 62030000 		.4byte	0x362
 1754 0362 06       		.uleb128 0x6
 1755 0363 44050000 		.4byte	.LASF49
 1756 0367 14       		.byte	0x14
 1757 0368 07       		.byte	0x7
 1758 0369 5A       		.byte	0x5a
 1759 036a 08       		.byte	0x8
 1760 036b B1030000 		.4byte	0x3b1
 1761 036f 07       		.uleb128 0x7
 1762 0370 A9020000 		.4byte	.LASF50
 1763 0374 07       		.byte	0x7
 1764 0375 5B       		.byte	0x5b
 1765 0376 1A       		.byte	0x1a
 1766 0377 B1030000 		.4byte	0x3b1
 1767 037b 00       		.byte	0
ARM GAS  /tmp/cc9XfRU8.s 			page 32


 1768 037c 07       		.uleb128 0x7
 1769 037d 5E020000 		.4byte	.LASF51
 1770 0381 07       		.byte	0x7
 1771 0382 5D       		.byte	0x5d
 1772 0383 1A       		.byte	0x1a
 1773 0384 B1030000 		.4byte	0x3b1
 1774 0388 04       		.byte	0x4
 1775 0389 07       		.uleb128 0x7
 1776 038a 88030000 		.4byte	.LASF52
 1777 038e 07       		.byte	0x7
 1778 038f 5F       		.byte	0x5f
 1779 0390 19       		.byte	0x19
 1780 0391 07010000 		.4byte	0x107
 1781 0395 08       		.byte	0x8
 1782 0396 07       		.uleb128 0x7
 1783 0397 90030000 		.4byte	.LASF53
 1784 039b 07       		.byte	0x7
 1785 039c 60       		.byte	0x60
 1786 039d 19       		.byte	0x19
 1787 039e 39030000 		.4byte	0x339
 1788 03a2 0C       		.byte	0xc
 1789 03a3 07       		.uleb128 0x7
 1790 03a4 FE050000 		.4byte	.LASF54
 1791 03a8 07       		.byte	0x7
 1792 03a9 62       		.byte	0x62
 1793 03aa 1A       		.byte	0x1a
 1794 03ab 9A020000 		.4byte	0x29a
 1795 03af 10       		.byte	0x10
 1796 03b0 00       		.byte	0
 1797 03b1 0A       		.uleb128 0xa
 1798 03b2 04       		.byte	0x4
 1799 03b3 56030000 		.4byte	0x356
 1800 03b7 09       		.uleb128 0x9
 1801 03b8 10       		.byte	0x10
 1802 03b9 07       		.byte	0x7
 1803 03ba 6C       		.byte	0x6c
 1804 03bb 09       		.byte	0x9
 1805 03bc F5030000 		.4byte	0x3f5
 1806 03c0 07       		.uleb128 0x7
 1807 03c1 A9020000 		.4byte	.LASF50
 1808 03c5 07       		.byte	0x7
 1809 03c6 6D       		.byte	0x6d
 1810 03c7 1A       		.byte	0x1a
 1811 03c8 B1030000 		.4byte	0x3b1
 1812 03cc 00       		.byte	0
 1813 03cd 07       		.uleb128 0x7
 1814 03ce 5E020000 		.4byte	.LASF51
 1815 03d2 07       		.byte	0x7
 1816 03d3 6F       		.byte	0x6f
 1817 03d4 1A       		.byte	0x1a
 1818 03d5 B1030000 		.4byte	0x3b1
 1819 03d9 04       		.byte	0x4
 1820 03da 07       		.uleb128 0x7
 1821 03db 88030000 		.4byte	.LASF52
 1822 03df 07       		.byte	0x7
 1823 03e0 71       		.byte	0x71
 1824 03e1 19       		.byte	0x19
ARM GAS  /tmp/cc9XfRU8.s 			page 33


 1825 03e2 07010000 		.4byte	0x107
 1826 03e6 08       		.byte	0x8
 1827 03e7 07       		.uleb128 0x7
 1828 03e8 71060000 		.4byte	.LASF55
 1829 03ec 07       		.byte	0x7
 1830 03ed 72       		.byte	0x72
 1831 03ee 19       		.byte	0x19
 1832 03ef 13010000 		.4byte	0x113
 1833 03f3 0C       		.byte	0xc
 1834 03f4 00       		.byte	0
 1835 03f5 04       		.uleb128 0x4
 1836 03f6 A5060000 		.4byte	.LASF56
 1837 03fa 07       		.byte	0x7
 1838 03fb 73       		.byte	0x73
 1839 03fc 03       		.byte	0x3
 1840 03fd B7030000 		.4byte	0x3b7
 1841 0401 0E       		.uleb128 0xe
 1842 0402 EE000000 		.4byte	.LASF64
 1843 0406 07       		.byte	0x7
 1844 0407 D1       		.byte	0xd1
 1845 0408 0F       		.byte	0xf
 1846 0409 F5030000 		.4byte	0x3f5
 1847 040d 09       		.uleb128 0x9
 1848 040e 1C       		.byte	0x1c
 1849 040f 08       		.byte	0x8
 1850 0410 57       		.byte	0x57
 1851 0411 09       		.byte	0x9
 1852 0412 65040000 		.4byte	0x465
 1853 0416 07       		.uleb128 0x7
 1854 0417 3C050000 		.4byte	.LASF57
 1855 041b 08       		.byte	0x8
 1856 041c 58       		.byte	0x58
 1857 041d 19       		.byte	0x19
 1858 041e 53020000 		.4byte	0x253
 1859 0422 00       		.byte	0
 1860 0423 07       		.uleb128 0x7
 1861 0424 81030000 		.4byte	.LASF58
 1862 0428 08       		.byte	0x8
 1863 0429 59       		.byte	0x59
 1864 042a 19       		.byte	0x19
 1865 042b CB000000 		.4byte	0xcb
 1866 042f 08       		.byte	0x8
 1867 0430 07       		.uleb128 0x7
 1868 0431 C6030000 		.4byte	.LASF59
 1869 0435 08       		.byte	0x8
 1870 0436 5B       		.byte	0x5b
 1871 0437 19       		.byte	0x19
 1872 0438 18030000 		.4byte	0x318
 1873 043c 0C       		.byte	0xc
 1874 043d 07       		.uleb128 0x7
 1875 043e 48020000 		.4byte	.LASF60
 1876 0442 08       		.byte	0x8
 1877 0443 5E       		.byte	0x5e
 1878 0444 1A       		.byte	0x1a
 1879 0445 4D020000 		.4byte	0x24d
 1880 0449 10       		.byte	0x10
 1881 044a 07       		.uleb128 0x7
ARM GAS  /tmp/cc9XfRU8.s 			page 34


 1882 044b FD030000 		.4byte	.LASF61
 1883 044f 08       		.byte	0x8
 1884 0450 5F       		.byte	0x5f
 1885 0451 1A       		.byte	0x1a
 1886 0452 4D020000 		.4byte	0x24d
 1887 0456 14       		.byte	0x14
 1888 0457 07       		.uleb128 0x7
 1889 0458 F3030000 		.4byte	.LASF62
 1890 045c 08       		.byte	0x8
 1891 045d 62       		.byte	0x62
 1892 045e 1A       		.byte	0x1a
 1893 045f 4D020000 		.4byte	0x24d
 1894 0463 18       		.byte	0x18
 1895 0464 00       		.byte	0
 1896 0465 04       		.uleb128 0x4
 1897 0466 23060000 		.4byte	.LASF63
 1898 046a 08       		.byte	0x8
 1899 046b 64       		.byte	0x64
 1900 046c 03       		.byte	0x3
 1901 046d 0D040000 		.4byte	0x40d
 1902 0471 0E       		.uleb128 0xe
 1903 0472 2D060000 		.4byte	.LASF65
 1904 0476 08       		.byte	0x8
 1905 0477 68       		.byte	0x68
 1906 0478 12       		.byte	0x12
 1907 0479 65040000 		.4byte	0x465
 1908 047d 06       		.uleb128 0x6
 1909 047e 5C030000 		.4byte	.LASF66
 1910 0482 10       		.byte	0x10
 1911 0483 09       		.byte	0x9
 1912 0484 25       		.byte	0x25
 1913 0485 10       		.byte	0x10
 1914 0486 B2040000 		.4byte	0x4b2
 1915 048a 07       		.uleb128 0x7
 1916 048b B1010000 		.4byte	.LASF67
 1917 048f 09       		.byte	0x9
 1918 0490 26       		.byte	0x26
 1919 0491 19       		.byte	0x19
 1920 0492 53020000 		.4byte	0x253
 1921 0496 00       		.byte	0
 1922 0497 07       		.uleb128 0x7
 1923 0498 AC060000 		.4byte	.LASF68
 1924 049c 09       		.byte	0x9
 1925 049d 28       		.byte	0x28
 1926 049e 1A       		.byte	0x1a
 1927 049f 4D020000 		.4byte	0x24d
 1928 04a3 08       		.byte	0x8
 1929 04a4 07       		.uleb128 0x7
 1930 04a5 C0050000 		.4byte	.LASF69
 1931 04a9 09       		.byte	0x9
 1932 04aa 2A       		.byte	0x2a
 1933 04ab 1A       		.byte	0x1a
 1934 04ac B2040000 		.4byte	0x4b2
 1935 04b0 0C       		.byte	0xc
 1936 04b1 00       		.byte	0
 1937 04b2 0A       		.uleb128 0xa
 1938 04b3 04       		.byte	0x4
ARM GAS  /tmp/cc9XfRU8.s 			page 35


 1939 04b4 7D040000 		.4byte	0x47d
 1940 04b8 04       		.uleb128 0x4
 1941 04b9 5C030000 		.4byte	.LASF66
 1942 04bd 09       		.byte	0x9
 1943 04be 2C       		.byte	0x2c
 1944 04bf 03       		.byte	0x3
 1945 04c0 7D040000 		.4byte	0x47d
 1946 04c4 04       		.uleb128 0x4
 1947 04c5 41060000 		.4byte	.LASF70
 1948 04c9 0A       		.byte	0xa
 1949 04ca 25       		.byte	0x25
 1950 04cb 1E       		.byte	0x1e
 1951 04cc D0040000 		.4byte	0x4d0
 1952 04d0 06       		.uleb128 0x6
 1953 04d1 41060000 		.4byte	.LASF70
 1954 04d5 10       		.byte	0x10
 1955 04d6 0A       		.byte	0xa
 1956 04d7 2A       		.byte	0x2a
 1957 04d8 08       		.byte	0x8
 1958 04d9 12050000 		.4byte	0x512
 1959 04dd 07       		.uleb128 0x7
 1960 04de 24030000 		.4byte	.LASF71
 1961 04e2 0A       		.byte	0xa
 1962 04e3 2B       		.byte	0x2b
 1963 04e4 1A       		.byte	0x1a
 1964 04e5 12050000 		.4byte	0x512
 1965 04e9 00       		.byte	0
 1966 04ea 07       		.uleb128 0x7
 1967 04eb 5B040000 		.4byte	.LASF72
 1968 04ef 0A       		.byte	0xa
 1969 04f0 2E       		.byte	0x2e
 1970 04f1 1A       		.byte	0x1a
 1971 04f2 4D020000 		.4byte	0x24d
 1972 04f6 04       		.byte	0x4
 1973 04f7 07       		.uleb128 0x7
 1974 04f8 05040000 		.4byte	.LASF73
 1975 04fc 0A       		.byte	0xa
 1976 04fd 30       		.byte	0x30
 1977 04fe 19       		.byte	0x19
 1978 04ff EF000000 		.4byte	0xef
 1979 0503 08       		.byte	0x8
 1980 0504 07       		.uleb128 0x7
 1981 0505 67040000 		.4byte	.LASF74
 1982 0509 0A       		.byte	0xa
 1983 050a 33       		.byte	0x33
 1984 050b 19       		.byte	0x19
 1985 050c FB000000 		.4byte	0xfb
 1986 0510 0C       		.byte	0xc
 1987 0511 00       		.byte	0
 1988 0512 0A       		.uleb128 0xa
 1989 0513 04       		.byte	0x4
 1990 0514 C4040000 		.4byte	0x4c4
 1991 0518 06       		.uleb128 0x6
 1992 0519 84020000 		.4byte	.LASF75
 1993 051d 04       		.byte	0x4
 1994 051e 0A       		.byte	0xa
 1995 051f 3A       		.byte	0x3a
ARM GAS  /tmp/cc9XfRU8.s 			page 36


 1996 0520 10       		.byte	0x10
 1997 0521 33050000 		.4byte	0x533
 1998 0525 07       		.uleb128 0x7
 1999 0526 7C060000 		.4byte	.LASF76
 2000 052a 0A       		.byte	0xa
 2001 052b 3B       		.byte	0x3b
 2002 052c 1A       		.byte	0x1a
 2003 052d 12050000 		.4byte	0x512
 2004 0531 00       		.byte	0
 2005 0532 00       		.byte	0
 2006 0533 04       		.uleb128 0x4
 2007 0534 84020000 		.4byte	.LASF75
 2008 0538 0A       		.byte	0xa
 2009 0539 3E       		.byte	0x3e
 2010 053a 03       		.byte	0x3
 2011 053b 18050000 		.4byte	0x518
 2012 053f 04       		.uleb128 0x4
 2013 0540 90020000 		.4byte	.LASF77
 2014 0544 0A       		.byte	0xa
 2015 0545 43       		.byte	0x43
 2016 0546 10       		.byte	0x10
 2017 0547 50050000 		.4byte	0x550
 2018 054b 0F       		.uleb128 0xf
 2019 054c 3F050000 		.4byte	0x53f
 2020 0550 0A       		.uleb128 0xa
 2021 0551 04       		.byte	0x4
 2022 0552 56050000 		.4byte	0x556
 2023 0556 0C       		.uleb128 0xc
 2024 0557 61050000 		.4byte	0x561
 2025 055b 0D       		.uleb128 0xd
 2026 055c E3000000 		.4byte	0xe3
 2027 0560 00       		.byte	0
 2028 0561 10       		.uleb128 0x10
 2029 0562 04       		.byte	0x4
 2030 0563 05       		.byte	0x5
 2031 0564 8F       		.byte	0x8f
 2032 0565 03       		.byte	0x3
 2033 0566 9B050000 		.4byte	0x59b
 2034 056a 11       		.uleb128 0x11
 2035 056b E7000000 		.4byte	.LASF78
 2036 056f 05       		.byte	0x5
 2037 0570 96       		.byte	0x96
 2038 0571 19       		.byte	0x19
 2039 0572 D7000000 		.4byte	0xd7
 2040 0576 11       		.uleb128 0x11
 2041 0577 35010000 		.4byte	.LASF79
 2042 057b 05       		.byte	0x5
 2043 057c 9D       		.byte	0x9d
 2044 057d 19       		.byte	0x19
 2045 057e D7000000 		.4byte	0xd7
 2046 0582 11       		.uleb128 0x11
 2047 0583 63060000 		.4byte	.LASF80
 2048 0587 05       		.byte	0x5
 2049 0588 A4       		.byte	0xa4
 2050 0589 1A       		.byte	0x1a
 2051 058a 9A020000 		.4byte	0x29a
 2052 058e 11       		.uleb128 0x11
ARM GAS  /tmp/cc9XfRU8.s 			page 37


 2053 058f D5040000 		.4byte	.LASF81
 2054 0593 05       		.byte	0x5
 2055 0594 AB       		.byte	0xab
 2056 0595 19       		.byte	0x19
 2057 0596 EF000000 		.4byte	0xef
 2058 059a 00       		.byte	0
 2059 059b 0A       		.uleb128 0xa
 2060 059c 04       		.byte	0x4
 2061 059d A8050000 		.4byte	0x5a8
 2062 05a1 03       		.uleb128 0x3
 2063 05a2 01       		.byte	0x1
 2064 05a3 08       		.byte	0x8
 2065 05a4 AF050000 		.4byte	.LASF82
 2066 05a8 0F       		.uleb128 0xf
 2067 05a9 A1050000 		.4byte	0x5a1
 2068 05ad 0A       		.uleb128 0xa
 2069 05ae 04       		.byte	0x4
 2070 05af B8040000 		.4byte	0x4b8
 2071 05b3 09       		.uleb128 0x9
 2072 05b4 16       		.byte	0x16
 2073 05b5 0B       		.byte	0xb
 2074 05b6 25       		.byte	0x25
 2075 05b7 09       		.byte	0x9
 2076 05b8 A7060000 		.4byte	0x6a7
 2077 05bc 07       		.uleb128 0x7
 2078 05bd E3020000 		.4byte	.LASF83
 2079 05c1 0B       		.byte	0xb
 2080 05c2 26       		.byte	0x26
 2081 05c3 0D       		.byte	0xd
 2082 05c4 A7060000 		.4byte	0x6a7
 2083 05c8 00       		.byte	0
 2084 05c9 07       		.uleb128 0x7
 2085 05ca 6D030000 		.4byte	.LASF84
 2086 05ce 0B       		.byte	0xb
 2087 05cf 27       		.byte	0x27
 2088 05d0 0D       		.byte	0xd
 2089 05d1 5B000000 		.4byte	0x5b
 2090 05d5 04       		.byte	0x4
 2091 05d6 07       		.uleb128 0x7
 2092 05d7 D9030000 		.4byte	.LASF85
 2093 05db 0B       		.byte	0xb
 2094 05dc 28       		.byte	0x28
 2095 05dd 0D       		.byte	0xd
 2096 05de 5B000000 		.4byte	0x5b
 2097 05e2 05       		.byte	0x5
 2098 05e3 07       		.uleb128 0x7
 2099 05e4 9A060000 		.4byte	.LASF86
 2100 05e8 0B       		.byte	0xb
 2101 05e9 29       		.byte	0x29
 2102 05ea 0D       		.byte	0xd
 2103 05eb 6E000000 		.4byte	0x6e
 2104 05ef 06       		.byte	0x6
 2105 05f0 07       		.uleb128 0x7
 2106 05f1 1E040000 		.4byte	.LASF87
 2107 05f5 0B       		.byte	0xb
 2108 05f6 2A       		.byte	0x2a
 2109 05f7 0D       		.byte	0xd
ARM GAS  /tmp/cc9XfRU8.s 			page 38


 2110 05f8 5B000000 		.4byte	0x5b
 2111 05fc 08       		.byte	0x8
 2112 05fd 07       		.uleb128 0x7
 2113 05fe A6030000 		.4byte	.LASF88
 2114 0602 0B       		.byte	0xb
 2115 0603 2B       		.byte	0x2b
 2116 0604 0D       		.byte	0xd
 2117 0605 5B000000 		.4byte	0x5b
 2118 0609 09       		.byte	0x9
 2119 060a 07       		.uleb128 0x7
 2120 060b 27010000 		.4byte	.LASF89
 2121 060f 0B       		.byte	0xb
 2122 0610 2C       		.byte	0x2c
 2123 0611 0D       		.byte	0xd
 2124 0612 5B000000 		.4byte	0x5b
 2125 0616 0A       		.byte	0xa
 2126 0617 07       		.uleb128 0x7
 2127 0618 30050000 		.4byte	.LASF90
 2128 061c 0B       		.byte	0xb
 2129 061d 2D       		.byte	0x2d
 2130 061e 0D       		.byte	0xd
 2131 061f 5B000000 		.4byte	0x5b
 2132 0623 0B       		.byte	0xb
 2133 0624 07       		.uleb128 0x7
 2134 0625 11060000 		.4byte	.LASF91
 2135 0629 0B       		.byte	0xb
 2136 062a 2E       		.byte	0x2e
 2137 062b 0D       		.byte	0xd
 2138 062c 5B000000 		.4byte	0x5b
 2139 0630 0C       		.byte	0xc
 2140 0631 07       		.uleb128 0x7
 2141 0632 01050000 		.4byte	.LASF92
 2142 0636 0B       		.byte	0xb
 2143 0637 2F       		.byte	0x2f
 2144 0638 0D       		.byte	0xd
 2145 0639 5B000000 		.4byte	0x5b
 2146 063d 0D       		.byte	0xd
 2147 063e 07       		.uleb128 0x7
 2148 063f 00000000 		.4byte	.LASF93
 2149 0643 0B       		.byte	0xb
 2150 0644 30       		.byte	0x30
 2151 0645 0D       		.byte	0xd
 2152 0646 5B000000 		.4byte	0x5b
 2153 064a 0E       		.byte	0xe
 2154 064b 07       		.uleb128 0x7
 2155 064c B2030000 		.4byte	.LASF94
 2156 0650 0B       		.byte	0xb
 2157 0651 31       		.byte	0x31
 2158 0652 0D       		.byte	0xd
 2159 0653 5B000000 		.4byte	0x5b
 2160 0657 0F       		.byte	0xf
 2161 0658 07       		.uleb128 0x7
 2162 0659 80010000 		.4byte	.LASF95
 2163 065d 0B       		.byte	0xb
 2164 065e 32       		.byte	0x32
 2165 065f 0D       		.byte	0xd
 2166 0660 5B000000 		.4byte	0x5b
ARM GAS  /tmp/cc9XfRU8.s 			page 39


 2167 0664 10       		.byte	0x10
 2168 0665 07       		.uleb128 0x7
 2169 0666 59010000 		.4byte	.LASF96
 2170 066a 0B       		.byte	0xb
 2171 066b 34       		.byte	0x34
 2172 066c 0D       		.byte	0xd
 2173 066d 5B000000 		.4byte	0x5b
 2174 0671 11       		.byte	0x11
 2175 0672 07       		.uleb128 0x7
 2176 0673 A4010000 		.4byte	.LASF97
 2177 0677 0B       		.byte	0xb
 2178 0678 35       		.byte	0x35
 2179 0679 0D       		.byte	0xd
 2180 067a 5B000000 		.4byte	0x5b
 2181 067e 12       		.byte	0x12
 2182 067f 07       		.uleb128 0x7
 2183 0680 75030000 		.4byte	.LASF98
 2184 0684 0B       		.byte	0xb
 2185 0685 36       		.byte	0x36
 2186 0686 0D       		.byte	0xd
 2187 0687 5B000000 		.4byte	0x5b
 2188 068b 13       		.byte	0x13
 2189 068c 07       		.uleb128 0x7
 2190 068d E3040000 		.4byte	.LASF99
 2191 0691 0B       		.byte	0xb
 2192 0692 37       		.byte	0x37
 2193 0693 0D       		.byte	0xd
 2194 0694 5B000000 		.4byte	0x5b
 2195 0698 14       		.byte	0x14
 2196 0699 07       		.uleb128 0x7
 2197 069a 96040000 		.4byte	.LASF100
 2198 069e 0B       		.byte	0xb
 2199 069f 39       		.byte	0x39
 2200 06a0 0D       		.byte	0xd
 2201 06a1 5B000000 		.4byte	0x5b
 2202 06a5 15       		.byte	0x15
 2203 06a6 00       		.byte	0
 2204 06a7 12       		.uleb128 0x12
 2205 06a8 A1050000 		.4byte	0x5a1
 2206 06ac B7060000 		.4byte	0x6b7
 2207 06b0 13       		.uleb128 0x13
 2208 06b1 2C000000 		.4byte	0x2c
 2209 06b5 03       		.byte	0x3
 2210 06b6 00       		.byte	0
 2211 06b7 04       		.uleb128 0x4
 2212 06b8 00020000 		.4byte	.LASF101
 2213 06bc 0B       		.byte	0xb
 2214 06bd 3A       		.byte	0x3a
 2215 06be 03       		.byte	0x3
 2216 06bf B3050000 		.4byte	0x5b3
 2217 06c3 0F       		.uleb128 0xf
 2218 06c4 B7060000 		.4byte	0x6b7
 2219 06c8 0E       		.uleb128 0xe
 2220 06c9 DA020000 		.4byte	.LASF102
 2221 06cd 0B       		.byte	0xb
 2222 06ce 77       		.byte	0x77
 2223 06cf 1D       		.byte	0x1d
ARM GAS  /tmp/cc9XfRU8.s 			page 40


 2224 06d0 C3060000 		.4byte	0x6c3
 2225 06d4 12       		.uleb128 0x12
 2226 06d5 82020000 		.4byte	0x282
 2227 06d9 E4060000 		.4byte	0x6e4
 2228 06dd 13       		.uleb128 0x13
 2229 06de 2C000000 		.4byte	0x2c
 2230 06e2 26       		.byte	0x26
 2231 06e3 00       		.byte	0
 2232 06e4 0E       		.uleb128 0xe
 2233 06e5 27020000 		.4byte	.LASF103
 2234 06e9 0C       		.byte	0xc
 2235 06ea 82       		.byte	0x82
 2236 06eb 08       		.byte	0x8
 2237 06ec D4060000 		.4byte	0x6d4
 2238 06f0 14       		.uleb128 0x14
 2239 06f1 90010000 		.4byte	.LASF106
 2240 06f5 01       		.byte	0x1
 2241 06f6 0B02     		.2byte	0x20b
 2242 06f8 0D       		.byte	0xd
 2243 06f9 EF000000 		.4byte	0xef
 2244 06fd 00000000 		.4byte	.LFB23
 2245 0701 70000000 		.4byte	.LFE23-.LFB23
 2246 0705 01       		.uleb128 0x1
 2247 0706 9C       		.byte	0x9c
 2248 0707 5A070000 		.4byte	0x75a
 2249 070b 15       		.uleb128 0x15
 2250 070c 50020000 		.4byte	.LASF104
 2251 0710 01       		.byte	0x1
 2252 0711 0B02     		.2byte	0x20b
 2253 0713 2D       		.byte	0x2d
 2254 0714 EF000000 		.4byte	0xef
 2255 0718 04000000 		.4byte	.LLST38
 2256 071c 00000000 		.4byte	.LVUS38
 2257 0720 15       		.uleb128 0x15
 2258 0721 E1030000 		.4byte	.LASF105
 2259 0725 01       		.byte	0x1
 2260 0726 0B02     		.2byte	0x20b
 2261 0728 3D       		.byte	0x3d
 2262 0729 07010000 		.4byte	0x107
 2263 072d 26000000 		.4byte	.LLST39
 2264 0731 22000000 		.4byte	.LVUS39
 2265 0735 16       		.uleb128 0x16
 2266 0736 63747000 		.ascii	"ctp\000"
 2267 073a 01       		.byte	0x1
 2268 073b 0C02     		.2byte	0x20c
 2269 073d 0B       		.byte	0xb
 2270 073e 4D020000 		.4byte	0x24d
 2271 0742 49000000 		.4byte	.LLST40
 2272 0746 47000000 		.4byte	.LVUS40
 2273 074a 17       		.uleb128 0x17
 2274 074b 40000000 		.4byte	.LVL79
 2275 074f 1D0D0000 		.4byte	0xd1d
 2276 0753 18       		.uleb128 0x18
 2277 0754 01       		.uleb128 0x1
 2278 0755 50       		.byte	0x50
 2279 0756 01       		.uleb128 0x1
 2280 0757 39       		.byte	0x39
ARM GAS  /tmp/cc9XfRU8.s 			page 41


 2281 0758 00       		.byte	0
 2282 0759 00       		.byte	0
 2283 075a 14       		.uleb128 0x14
 2284 075b 3E010000 		.4byte	.LASF107
 2285 075f 01       		.byte	0x1
 2286 0760 E201     		.2byte	0x1e2
 2287 0762 0D       		.byte	0xd
 2288 0763 EF000000 		.4byte	0xef
 2289 0767 00000000 		.4byte	.LFB22
 2290 076b 60000000 		.4byte	.LFE22-.LFB22
 2291 076f 01       		.uleb128 0x1
 2292 0770 9C       		.byte	0x9c
 2293 0771 D7070000 		.4byte	0x7d7
 2294 0775 15       		.uleb128 0x15
 2295 0776 50020000 		.4byte	.LASF104
 2296 077a 01       		.byte	0x1
 2297 077b E201     		.2byte	0x1e2
 2298 077d 2D       		.byte	0x2d
 2299 077e EF000000 		.4byte	0xef
 2300 0782 66000000 		.4byte	.LLST34
 2301 0786 5C000000 		.4byte	.LVUS34
 2302 078a 15       		.uleb128 0x15
 2303 078b E1030000 		.4byte	.LASF105
 2304 078f 01       		.byte	0x1
 2305 0790 E201     		.2byte	0x1e2
 2306 0792 3D       		.byte	0x3d
 2307 0793 07010000 		.4byte	0x107
 2308 0797 B3000000 		.4byte	.LLST35
 2309 079b AB000000 		.4byte	.LVUS35
 2310 079f 16       		.uleb128 0x16
 2311 07a0 63747000 		.ascii	"ctp\000"
 2312 07a4 01       		.byte	0x1
 2313 07a5 E301     		.2byte	0x1e3
 2314 07a7 0B       		.byte	0xb
 2315 07a8 4D020000 		.4byte	0x24d
 2316 07ac EF000000 		.4byte	.LLST36
 2317 07b0 ED000000 		.4byte	.LVUS36
 2318 07b4 16       		.uleb128 0x16
 2319 07b5 6D00     		.ascii	"m\000"
 2320 07b7 01       		.byte	0x1
 2321 07b8 E401     		.2byte	0x1e4
 2322 07ba 0F       		.byte	0xf
 2323 07bb EF000000 		.4byte	0xef
 2324 07bf 0A010000 		.4byte	.LLST37
 2325 07c3 02010000 		.4byte	.LVUS37
 2326 07c7 17       		.uleb128 0x17
 2327 07c8 40000000 		.4byte	.LVL74
 2328 07cc 1D0D0000 		.4byte	0xd1d
 2329 07d0 18       		.uleb128 0x18
 2330 07d1 01       		.uleb128 0x1
 2331 07d2 50       		.byte	0x50
 2332 07d3 01       		.uleb128 0x1
 2333 07d4 38       		.byte	0x38
 2334 07d5 00       		.byte	0
 2335 07d6 00       		.byte	0
 2336 07d7 14       		.uleb128 0x14
 2337 07d8 4F060000 		.4byte	.LASF108
ARM GAS  /tmp/cc9XfRU8.s 			page 42


 2338 07dc 01       		.byte	0x1
 2339 07dd B701     		.2byte	0x1b7
 2340 07df 0D       		.byte	0xd
 2341 07e0 EF000000 		.4byte	0xef
 2342 07e4 00000000 		.4byte	.LFB21
 2343 07e8 68000000 		.4byte	.LFE21-.LFB21
 2344 07ec 01       		.uleb128 0x1
 2345 07ed 9C       		.byte	0x9c
 2346 07ee 54080000 		.4byte	0x854
 2347 07f2 15       		.uleb128 0x15
 2348 07f3 50020000 		.4byte	.LASF104
 2349 07f7 01       		.byte	0x1
 2350 07f8 B701     		.2byte	0x1b7
 2351 07fa 2D       		.byte	0x2d
 2352 07fb EF000000 		.4byte	0xef
 2353 07ff 57010000 		.4byte	.LLST30
 2354 0803 4D010000 		.4byte	.LVUS30
 2355 0807 15       		.uleb128 0x15
 2356 0808 E1030000 		.4byte	.LASF105
 2357 080c 01       		.byte	0x1
 2358 080d B701     		.2byte	0x1b7
 2359 080f 3D       		.byte	0x3d
 2360 0810 07010000 		.4byte	0x107
 2361 0814 A4010000 		.4byte	.LLST31
 2362 0818 9C010000 		.4byte	.LVUS31
 2363 081c 16       		.uleb128 0x16
 2364 081d 63747000 		.ascii	"ctp\000"
 2365 0821 01       		.byte	0x1
 2366 0822 B801     		.2byte	0x1b8
 2367 0824 0B       		.byte	0xb
 2368 0825 4D020000 		.4byte	0x24d
 2369 0829 E0010000 		.4byte	.LLST32
 2370 082d DE010000 		.4byte	.LVUS32
 2371 0831 16       		.uleb128 0x16
 2372 0832 6D00     		.ascii	"m\000"
 2373 0834 01       		.byte	0x1
 2374 0835 B901     		.2byte	0x1b9
 2375 0837 0F       		.byte	0xf
 2376 0838 EF000000 		.4byte	0xef
 2377 083c FB010000 		.4byte	.LLST33
 2378 0840 F3010000 		.4byte	.LVUS33
 2379 0844 17       		.uleb128 0x17
 2380 0845 40000000 		.4byte	.LVL65
 2381 0849 1D0D0000 		.4byte	0xd1d
 2382 084d 18       		.uleb128 0x18
 2383 084e 01       		.uleb128 0x1
 2384 084f 50       		.byte	0x50
 2385 0850 01       		.uleb128 0x1
 2386 0851 38       		.byte	0x38
 2387 0852 00       		.byte	0
 2388 0853 00       		.byte	0
 2389 0854 14       		.uleb128 0x14
 2390 0855 E6030000 		.4byte	.LASF109
 2391 0859 01       		.byte	0x1
 2392 085a 9001     		.2byte	0x190
 2393 085c 0D       		.byte	0xd
 2394 085d EF000000 		.4byte	0xef
ARM GAS  /tmp/cc9XfRU8.s 			page 43


 2395 0861 00000000 		.4byte	.LFB20
 2396 0865 48000000 		.4byte	.LFE20-.LFB20
 2397 0869 01       		.uleb128 0x1
 2398 086a 9C       		.byte	0x9c
 2399 086b A9080000 		.4byte	0x8a9
 2400 086f 15       		.uleb128 0x15
 2401 0870 50020000 		.4byte	.LASF104
 2402 0874 01       		.byte	0x1
 2403 0875 9001     		.2byte	0x190
 2404 0877 26       		.byte	0x26
 2405 0878 EF000000 		.4byte	0xef
 2406 087c 42020000 		.4byte	.LLST28
 2407 0880 3E020000 		.4byte	.LVUS28
 2408 0884 16       		.uleb128 0x16
 2409 0885 63747000 		.ascii	"ctp\000"
 2410 0889 01       		.byte	0x1
 2411 088a 9101     		.2byte	0x191
 2412 088c 0B       		.byte	0xb
 2413 088d 4D020000 		.4byte	0x24d
 2414 0891 62020000 		.4byte	.LLST29
 2415 0895 60020000 		.4byte	.LVUS29
 2416 0899 17       		.uleb128 0x17
 2417 089a 2C000000 		.4byte	.LVL58
 2418 089e 290D0000 		.4byte	0xd29
 2419 08a2 18       		.uleb128 0x18
 2420 08a3 01       		.uleb128 0x1
 2421 08a4 50       		.byte	0x50
 2422 08a5 01       		.uleb128 0x1
 2423 08a6 39       		.byte	0x39
 2424 08a7 00       		.byte	0
 2425 08a8 00       		.byte	0
 2426 08a9 14       		.uleb128 0x14
 2427 08aa D5010000 		.4byte	.LASF110
 2428 08ae 01       		.byte	0x1
 2429 08af 7401     		.2byte	0x174
 2430 08b1 0D       		.byte	0xd
 2431 08b2 EF000000 		.4byte	0xef
 2432 08b6 00000000 		.4byte	.LFB19
 2433 08ba 4C000000 		.4byte	.LFE19-.LFB19
 2434 08be 01       		.uleb128 0x1
 2435 08bf 9C       		.byte	0x9c
 2436 08c0 11090000 		.4byte	0x911
 2437 08c4 15       		.uleb128 0x15
 2438 08c5 50020000 		.4byte	.LASF104
 2439 08c9 01       		.byte	0x1
 2440 08ca 7401     		.2byte	0x174
 2441 08cc 26       		.byte	0x26
 2442 08cd EF000000 		.4byte	0xef
 2443 08d1 79020000 		.4byte	.LLST25
 2444 08d5 75020000 		.4byte	.LVUS25
 2445 08d9 16       		.uleb128 0x16
 2446 08da 63747000 		.ascii	"ctp\000"
 2447 08de 01       		.byte	0x1
 2448 08df 7501     		.2byte	0x175
 2449 08e1 0B       		.byte	0xb
 2450 08e2 4D020000 		.4byte	0x24d
 2451 08e6 99020000 		.4byte	.LLST26
ARM GAS  /tmp/cc9XfRU8.s 			page 44


 2452 08ea 97020000 		.4byte	.LVUS26
 2453 08ee 16       		.uleb128 0x16
 2454 08ef 6D00     		.ascii	"m\000"
 2455 08f1 01       		.byte	0x1
 2456 08f2 7601     		.2byte	0x176
 2457 08f4 0F       		.byte	0xf
 2458 08f5 EF000000 		.4byte	0xef
 2459 08f9 B4020000 		.4byte	.LLST27
 2460 08fd AC020000 		.4byte	.LVUS27
 2461 0901 17       		.uleb128 0x17
 2462 0902 3C000000 		.4byte	.LVL53
 2463 0906 290D0000 		.4byte	0xd29
 2464 090a 18       		.uleb128 0x18
 2465 090b 01       		.uleb128 0x1
 2466 090c 50       		.byte	0x50
 2467 090d 01       		.uleb128 0x1
 2468 090e 38       		.byte	0x38
 2469 090f 00       		.byte	0
 2470 0910 00       		.byte	0
 2471 0911 14       		.uleb128 0x14
 2472 0912 4E040000 		.4byte	.LASF111
 2473 0916 01       		.byte	0x1
 2474 0917 5701     		.2byte	0x157
 2475 0919 0D       		.byte	0xd
 2476 091a EF000000 		.4byte	0xef
 2477 091e 00000000 		.4byte	.LFB18
 2478 0922 54000000 		.4byte	.LFE18-.LFB18
 2479 0926 01       		.uleb128 0x1
 2480 0927 9C       		.byte	0x9c
 2481 0928 79090000 		.4byte	0x979
 2482 092c 15       		.uleb128 0x15
 2483 092d 50020000 		.4byte	.LASF104
 2484 0931 01       		.byte	0x1
 2485 0932 5701     		.2byte	0x157
 2486 0934 26       		.byte	0x26
 2487 0935 EF000000 		.4byte	0xef
 2488 0939 FA020000 		.4byte	.LLST22
 2489 093d F2020000 		.4byte	.LVUS22
 2490 0941 16       		.uleb128 0x16
 2491 0942 63747000 		.ascii	"ctp\000"
 2492 0946 01       		.byte	0x1
 2493 0947 5801     		.2byte	0x158
 2494 0949 0B       		.byte	0xb
 2495 094a 4D020000 		.4byte	0x24d
 2496 094e 33030000 		.4byte	.LLST23
 2497 0952 31030000 		.4byte	.LVUS23
 2498 0956 16       		.uleb128 0x16
 2499 0957 6D00     		.ascii	"m\000"
 2500 0959 01       		.byte	0x1
 2501 095a 5901     		.2byte	0x159
 2502 095c 0F       		.byte	0xf
 2503 095d EF000000 		.4byte	0xef
 2504 0961 52030000 		.4byte	.LLST24
 2505 0965 46030000 		.4byte	.LVUS24
 2506 0969 17       		.uleb128 0x17
 2507 096a 44000000 		.4byte	.LVL45
 2508 096e 290D0000 		.4byte	0xd29
ARM GAS  /tmp/cc9XfRU8.s 			page 45


 2509 0972 18       		.uleb128 0x18
 2510 0973 01       		.uleb128 0x1
 2511 0974 50       		.byte	0x50
 2512 0975 01       		.uleb128 0x1
 2513 0976 38       		.byte	0x38
 2514 0977 00       		.byte	0
 2515 0978 00       		.byte	0
 2516 0979 19       		.uleb128 0x19
 2517 097a 98030000 		.4byte	.LASF115
 2518 097e 01       		.byte	0x1
 2519 097f 3401     		.2byte	0x134
 2520 0981 06       		.byte	0x6
 2521 0982 00000000 		.4byte	.LFB17
 2522 0986 54000000 		.4byte	.LFE17-.LFB17
 2523 098a 01       		.uleb128 0x1
 2524 098b 9C       		.byte	0x9c
 2525 098c DC090000 		.4byte	0x9dc
 2526 0990 15       		.uleb128 0x15
 2527 0991 0D040000 		.4byte	.LASF112
 2528 0995 01       		.byte	0x1
 2529 0996 3401     		.2byte	0x134
 2530 0998 27       		.byte	0x27
 2531 0999 DC090000 		.4byte	0x9dc
 2532 099d AF030000 		.4byte	.LLST19
 2533 09a1 AB030000 		.4byte	.LVUS19
 2534 09a5 15       		.uleb128 0x15
 2535 09a6 50020000 		.4byte	.LASF104
 2536 09aa 01       		.byte	0x1
 2537 09ab 3401     		.2byte	0x134
 2538 09ad 3D       		.byte	0x3d
 2539 09ae EF000000 		.4byte	0xef
 2540 09b2 D1030000 		.4byte	.LLST20
 2541 09b6 CD030000 		.4byte	.LVUS20
 2542 09ba 16       		.uleb128 0x16
 2543 09bb 65696400 		.ascii	"eid\000"
 2544 09bf 01       		.byte	0x1
 2545 09c0 3501     		.2byte	0x135
 2546 09c2 0D       		.byte	0xd
 2547 09c3 E3000000 		.4byte	0xe3
 2548 09c7 F3030000 		.4byte	.LLST21
 2549 09cb EF030000 		.4byte	.LVUS21
 2550 09cf 1A       		.uleb128 0x1a
 2551 09d0 34000000 		.4byte	.LVL35
 2552 09d4 18       		.uleb128 0x18
 2553 09d5 01       		.uleb128 0x1
 2554 09d6 50       		.byte	0x50
 2555 09d7 02       		.uleb128 0x2
 2556 09d8 74       		.byte	0x74
 2557 09d9 00       		.sleb128 0
 2558 09da 00       		.byte	0
 2559 09db 00       		.byte	0
 2560 09dc 0A       		.uleb128 0xa
 2561 09dd 04       		.byte	0x4
 2562 09de 4B050000 		.4byte	0x54b
 2563 09e2 14       		.uleb128 0x14
 2564 09e3 BE040000 		.4byte	.LASF113
 2565 09e7 01       		.byte	0x1
ARM GAS  /tmp/cc9XfRU8.s 			page 46


 2566 09e8 2201     		.2byte	0x122
 2567 09ea 0D       		.byte	0xd
 2568 09eb FB000000 		.4byte	0xfb
 2569 09ef 00000000 		.4byte	.LFB16
 2570 09f3 14000000 		.4byte	.LFE16-.LFB16
 2571 09f7 01       		.uleb128 0x1
 2572 09f8 9C       		.byte	0x9c
 2573 09f9 280A0000 		.4byte	0xa28
 2574 09fd 1B       		.uleb128 0x1b
 2575 09fe 656C7000 		.ascii	"elp\000"
 2576 0a02 01       		.byte	0x1
 2577 0a03 2201     		.2byte	0x122
 2578 0a05 33       		.byte	0x33
 2579 0a06 12050000 		.4byte	0x512
 2580 0a0a 16040000 		.4byte	.LLST17
 2581 0a0e 12040000 		.4byte	.LVUS17
 2582 0a12 1C       		.uleb128 0x1c
 2583 0a13 3B060000 		.4byte	.LASF114
 2584 0a17 01       		.byte	0x1
 2585 0a18 2301     		.2byte	0x123
 2586 0a1a 0F       		.byte	0xf
 2587 0a1b FB000000 		.4byte	0xfb
 2588 0a1f 36040000 		.4byte	.LLST18
 2589 0a23 34040000 		.4byte	.LVUS18
 2590 0a27 00       		.byte	0
 2591 0a28 19       		.uleb128 0x19
 2592 0a29 66020000 		.4byte	.LASF116
 2593 0a2d 01       		.byte	0x1
 2594 0a2e 0F01     		.2byte	0x10f
 2595 0a30 06       		.byte	0x6
 2596 0a31 00000000 		.4byte	.LFB15
 2597 0a35 18000000 		.4byte	.LFE15-.LFB15
 2598 0a39 01       		.uleb128 0x1
 2599 0a3a 9C       		.byte	0x9c
 2600 0a3b 8F0A0000 		.4byte	0xa8f
 2601 0a3f 1B       		.uleb128 0x1b
 2602 0a40 65737000 		.ascii	"esp\000"
 2603 0a44 01       		.byte	0x1
 2604 0a45 0F01     		.2byte	0x10f
 2605 0a47 27       		.byte	0x27
 2606 0a48 8F0A0000 		.4byte	0xa8f
 2607 0a4c 4D040000 		.4byte	.LLST15
 2608 0a50 49040000 		.4byte	.LVUS15
 2609 0a54 15       		.uleb128 0x15
 2610 0a55 3B060000 		.4byte	.LASF114
 2611 0a59 01       		.byte	0x1
 2612 0a5a 0F01     		.2byte	0x10f
 2613 0a5c 38       		.byte	0x38
 2614 0a5d FB000000 		.4byte	0xfb
 2615 0a61 72040000 		.4byte	.LLST16
 2616 0a65 6E040000 		.4byte	.LVUS16
 2617 0a69 1D       		.uleb128 0x1d
 2618 0a6a 0C000000 		.4byte	.LVL28
 2619 0a6e 600B0000 		.4byte	0xb60
 2620 0a72 850A0000 		.4byte	0xa85
 2621 0a76 18       		.uleb128 0x18
 2622 0a77 01       		.uleb128 0x1
ARM GAS  /tmp/cc9XfRU8.s 			page 47


 2623 0a78 50       		.byte	0x50
 2624 0a79 03       		.uleb128 0x3
 2625 0a7a F3       		.byte	0xf3
 2626 0a7b 01       		.uleb128 0x1
 2627 0a7c 50       		.byte	0x50
 2628 0a7d 18       		.uleb128 0x18
 2629 0a7e 01       		.uleb128 0x1
 2630 0a7f 51       		.byte	0x51
 2631 0a80 03       		.uleb128 0x3
 2632 0a81 F3       		.byte	0xf3
 2633 0a82 01       		.uleb128 0x1
 2634 0a83 51       		.byte	0x51
 2635 0a84 00       		.byte	0
 2636 0a85 1E       		.uleb128 0x1e
 2637 0a86 10000000 		.4byte	.LVL29
 2638 0a8a 350D0000 		.4byte	0xd35
 2639 0a8e 00       		.byte	0
 2640 0a8f 0A       		.uleb128 0xa
 2641 0a90 04       		.byte	0x4
 2642 0a91 33050000 		.4byte	0x533
 2643 0a95 1F       		.uleb128 0x1f
 2644 0a96 C4060000 		.4byte	.LASF131
 2645 0a9a 01       		.byte	0x1
 2646 0a9b F4       		.byte	0xf4
 2647 0a9c 06       		.byte	0x6
 2648 0a9d 01       		.byte	0x1
 2649 0a9e BA0A0000 		.4byte	0xaba
 2650 0aa2 20       		.uleb128 0x20
 2651 0aa3 747000   		.ascii	"tp\000"
 2652 0aa6 01       		.byte	0x1
 2653 0aa7 F4       		.byte	0xf4
 2654 0aa8 1B       		.byte	0x1b
 2655 0aa9 4D020000 		.4byte	0x24d
 2656 0aad 21       		.uleb128 0x21
 2657 0aae 50020000 		.4byte	.LASF104
 2658 0ab2 01       		.byte	0x1
 2659 0ab3 F4       		.byte	0xf4
 2660 0ab4 2B       		.byte	0x2b
 2661 0ab5 EF000000 		.4byte	0xef
 2662 0ab9 00       		.byte	0
 2663 0aba 22       		.uleb128 0x22
 2664 0abb F5000000 		.4byte	.LASF117
 2665 0abf 01       		.byte	0x1
 2666 0ac0 DE       		.byte	0xde
 2667 0ac1 06       		.byte	0x6
 2668 0ac2 00000000 		.4byte	.LFB13
 2669 0ac6 18000000 		.4byte	.LFE13-.LFB13
 2670 0aca 01       		.uleb128 0x1
 2671 0acb 9C       		.byte	0x9c
 2672 0acc 1D0B0000 		.4byte	0xb1d
 2673 0ad0 23       		.uleb128 0x23
 2674 0ad1 747000   		.ascii	"tp\000"
 2675 0ad4 01       		.byte	0x1
 2676 0ad5 DE       		.byte	0xde
 2677 0ad6 1A       		.byte	0x1a
 2678 0ad7 4D020000 		.4byte	0x24d
 2679 0adb 97040000 		.4byte	.LLST13
ARM GAS  /tmp/cc9XfRU8.s 			page 48


 2680 0adf 93040000 		.4byte	.LVUS13
 2681 0ae3 24       		.uleb128 0x24
 2682 0ae4 50020000 		.4byte	.LASF104
 2683 0ae8 01       		.byte	0x1
 2684 0ae9 DE       		.byte	0xde
 2685 0aea 2A       		.byte	0x2a
 2686 0aeb EF000000 		.4byte	0xef
 2687 0aef BC040000 		.4byte	.LLST14
 2688 0af3 B8040000 		.4byte	.LVUS14
 2689 0af7 1D       		.uleb128 0x1d
 2690 0af8 0C000000 		.4byte	.LVL25
 2691 0afc 950A0000 		.4byte	0xa95
 2692 0b00 130B0000 		.4byte	0xb13
 2693 0b04 18       		.uleb128 0x18
 2694 0b05 01       		.uleb128 0x1
 2695 0b06 50       		.byte	0x50
 2696 0b07 03       		.uleb128 0x3
 2697 0b08 F3       		.byte	0xf3
 2698 0b09 01       		.uleb128 0x1
 2699 0b0a 50       		.byte	0x50
 2700 0b0b 18       		.uleb128 0x18
 2701 0b0c 01       		.uleb128 0x1
 2702 0b0d 51       		.byte	0x51
 2703 0b0e 03       		.uleb128 0x3
 2704 0b0f F3       		.byte	0xf3
 2705 0b10 01       		.uleb128 0x1
 2706 0b11 51       		.byte	0x51
 2707 0b12 00       		.byte	0
 2708 0b13 1E       		.uleb128 0x1e
 2709 0b14 10000000 		.4byte	.LVL26
 2710 0b18 350D0000 		.4byte	0xd35
 2711 0b1c 00       		.byte	0
 2712 0b1d 25       		.uleb128 0x25
 2713 0b1e 84060000 		.4byte	.LASF118
 2714 0b22 01       		.byte	0x1
 2715 0b23 CA       		.byte	0xca
 2716 0b24 0D       		.byte	0xd
 2717 0b25 FB000000 		.4byte	0xfb
 2718 0b29 00000000 		.4byte	.LFB12
 2719 0b2d 1C000000 		.4byte	.LFE12-.LFB12
 2720 0b31 01       		.uleb128 0x1
 2721 0b32 9C       		.byte	0x9c
 2722 0b33 600B0000 		.4byte	0xb60
 2723 0b37 23       		.uleb128 0x23
 2724 0b38 656C7000 		.ascii	"elp\000"
 2725 0b3c 01       		.byte	0x1
 2726 0b3d CA       		.byte	0xca
 2727 0b3e 32       		.byte	0x32
 2728 0b3f 12050000 		.4byte	0x512
 2729 0b43 E1040000 		.4byte	.LLST4
 2730 0b47 DD040000 		.4byte	.LVUS4
 2731 0b4b 26       		.uleb128 0x26
 2732 0b4c 3B060000 		.4byte	.LASF114
 2733 0b50 01       		.byte	0x1
 2734 0b51 CB       		.byte	0xcb
 2735 0b52 0F       		.byte	0xf
 2736 0b53 FB000000 		.4byte	0xfb
ARM GAS  /tmp/cc9XfRU8.s 			page 49


 2737 0b57 01050000 		.4byte	.LLST5
 2738 0b5b FF040000 		.4byte	.LVUS5
 2739 0b5f 00       		.byte	0
 2740 0b60 22       		.uleb128 0x22
 2741 0b61 0A020000 		.4byte	.LASF119
 2742 0b65 01       		.byte	0x1
 2743 0b66 B1       		.byte	0xb1
 2744 0b67 06       		.byte	0x6
 2745 0b68 00000000 		.4byte	.LFB11
 2746 0b6c 40000000 		.4byte	.LFE11-.LFB11
 2747 0b70 01       		.uleb128 0x1
 2748 0b71 9C       		.byte	0x9c
 2749 0b72 BC0B0000 		.4byte	0xbbc
 2750 0b76 23       		.uleb128 0x23
 2751 0b77 65737000 		.ascii	"esp\000"
 2752 0b7b 01       		.byte	0x1
 2753 0b7c B1       		.byte	0xb1
 2754 0b7d 28       		.byte	0x28
 2755 0b7e 8F0A0000 		.4byte	0xa8f
 2756 0b82 18050000 		.4byte	.LLST10
 2757 0b86 14050000 		.4byte	.LVUS10
 2758 0b8a 24       		.uleb128 0x24
 2759 0b8b 3B060000 		.4byte	.LASF114
 2760 0b8f 01       		.byte	0x1
 2761 0b90 B1       		.byte	0xb1
 2762 0b91 39       		.byte	0x39
 2763 0b92 FB000000 		.4byte	0xfb
 2764 0b96 3A050000 		.4byte	.LLST11
 2765 0b9a 36050000 		.4byte	.LVUS11
 2766 0b9e 27       		.uleb128 0x27
 2767 0b9f 656C7000 		.ascii	"elp\000"
 2768 0ba3 01       		.byte	0x1
 2769 0ba4 B2       		.byte	0xb2
 2770 0ba5 12       		.byte	0x12
 2771 0ba6 12050000 		.4byte	0x512
 2772 0baa 5A050000 		.4byte	.LLST12
 2773 0bae 58050000 		.4byte	.LVUS12
 2774 0bb2 1E       		.uleb128 0x1e
 2775 0bb3 30000000 		.4byte	.LVL22
 2776 0bb7 950A0000 		.4byte	0xa95
 2777 0bbb 00       		.byte	0
 2778 0bbc 25       		.uleb128 0x25
 2779 0bbd 18010000 		.4byte	.LASF120
 2780 0bc1 01       		.byte	0x1
 2781 0bc2 96       		.byte	0x96
 2782 0bc3 0D       		.byte	0xd
 2783 0bc4 EF000000 		.4byte	0xef
 2784 0bc8 00000000 		.4byte	.LFB10
 2785 0bcc 24000000 		.4byte	.LFE10-.LFB10
 2786 0bd0 01       		.uleb128 0x1
 2787 0bd1 9C       		.byte	0x9c
 2788 0bd2 EB0B0000 		.4byte	0xbeb
 2789 0bd6 24       		.uleb128 0x24
 2790 0bd7 50020000 		.4byte	.LASF104
 2791 0bdb 01       		.byte	0x1
 2792 0bdc 96       		.byte	0x96
 2793 0bdd 28       		.byte	0x28
ARM GAS  /tmp/cc9XfRU8.s 			page 50


 2794 0bde EF000000 		.4byte	0xef
 2795 0be2 73050000 		.4byte	.LLST3
 2796 0be6 6D050000 		.4byte	.LVUS3
 2797 0bea 00       		.byte	0
 2798 0beb 25       		.uleb128 0x25
 2799 0bec C3020000 		.4byte	.LASF121
 2800 0bf0 01       		.byte	0x1
 2801 0bf1 81       		.byte	0x81
 2802 0bf2 0D       		.byte	0xd
 2803 0bf3 EF000000 		.4byte	0xef
 2804 0bf7 00000000 		.4byte	.LFB9
 2805 0bfb 28000000 		.4byte	.LFE9-.LFB9
 2806 0bff 01       		.uleb128 0x1
 2807 0c00 9C       		.byte	0x9c
 2808 0c01 2C0C0000 		.4byte	0xc2c
 2809 0c05 24       		.uleb128 0x24
 2810 0c06 50020000 		.4byte	.LASF104
 2811 0c0a 01       		.byte	0x1
 2812 0c0b 81       		.byte	0x81
 2813 0c0c 30       		.byte	0x30
 2814 0c0d EF000000 		.4byte	0xef
 2815 0c11 A3050000 		.4byte	.LLST1
 2816 0c15 9F050000 		.4byte	.LVUS1
 2817 0c19 27       		.uleb128 0x27
 2818 0c1a 6D00     		.ascii	"m\000"
 2819 0c1c 01       		.byte	0x1
 2820 0c1d 82       		.byte	0x82
 2821 0c1e 0F       		.byte	0xf
 2822 0c1f EF000000 		.4byte	0xef
 2823 0c23 C8050000 		.4byte	.LLST2
 2824 0c27 C4050000 		.4byte	.LVUS2
 2825 0c2b 00       		.byte	0
 2826 0c2c 22       		.uleb128 0x22
 2827 0c2d 2C030000 		.4byte	.LASF122
 2828 0c31 01       		.byte	0x1
 2829 0c32 68       		.byte	0x68
 2830 0c33 06       		.byte	0x6
 2831 0c34 00000000 		.4byte	.LFB8
 2832 0c38 3C000000 		.4byte	.LFE8-.LFB8
 2833 0c3c 01       		.uleb128 0x1
 2834 0c3d 9C       		.byte	0x9c
 2835 0c3e 710C0000 		.4byte	0xc71
 2836 0c42 28       		.uleb128 0x28
 2837 0c43 65737000 		.ascii	"esp\000"
 2838 0c47 01       		.byte	0x1
 2839 0c48 68       		.byte	0x68
 2840 0c49 23       		.byte	0x23
 2841 0c4a 8F0A0000 		.4byte	0xa8f
 2842 0c4e 01       		.uleb128 0x1
 2843 0c4f 50       		.byte	0x50
 2844 0c50 28       		.uleb128 0x28
 2845 0c51 656C7000 		.ascii	"elp\000"
 2846 0c55 01       		.byte	0x1
 2847 0c56 68       		.byte	0x68
 2848 0c57 37       		.byte	0x37
 2849 0c58 12050000 		.4byte	0x512
 2850 0c5c 01       		.uleb128 0x1
ARM GAS  /tmp/cc9XfRU8.s 			page 51


 2851 0c5d 51       		.byte	0x51
 2852 0c5e 27       		.uleb128 0x27
 2853 0c5f 7000     		.ascii	"p\000"
 2854 0c61 01       		.byte	0x1
 2855 0c62 69       		.byte	0x69
 2856 0c63 12       		.byte	0x12
 2857 0c64 12050000 		.4byte	0x512
 2858 0c68 F3050000 		.4byte	.LLST0
 2859 0c6c EB050000 		.4byte	.LVUS0
 2860 0c70 00       		.byte	0
 2861 0c71 22       		.uleb128 0x22
 2862 0c72 0C030000 		.4byte	.LASF123
 2863 0c76 01       		.byte	0x1
 2864 0c77 4E       		.byte	0x4e
 2865 0c78 06       		.byte	0x6
 2866 0c79 00000000 		.4byte	.LFB7
 2867 0c7d 34000000 		.4byte	.LFE7-.LFB7
 2868 0c81 01       		.uleb128 0x1
 2869 0c82 9C       		.byte	0x9c
 2870 0c83 B20C0000 		.4byte	0xcb2
 2871 0c87 28       		.uleb128 0x28
 2872 0c88 65737000 		.ascii	"esp\000"
 2873 0c8c 01       		.byte	0x1
 2874 0c8d 4E       		.byte	0x4e
 2875 0c8e 25       		.byte	0x25
 2876 0c8f 8F0A0000 		.4byte	0xa8f
 2877 0c93 01       		.uleb128 0x1
 2878 0c94 50       		.byte	0x50
 2879 0c95 28       		.uleb128 0x28
 2880 0c96 656C7000 		.ascii	"elp\000"
 2881 0c9a 01       		.byte	0x1
 2882 0c9b 4E       		.byte	0x4e
 2883 0c9c 39       		.byte	0x39
 2884 0c9d 12050000 		.4byte	0x512
 2885 0ca1 01       		.uleb128 0x1
 2886 0ca2 51       		.byte	0x51
 2887 0ca3 29       		.uleb128 0x29
 2888 0ca4 50020000 		.4byte	.LASF104
 2889 0ca8 01       		.byte	0x1
 2890 0ca9 4E       		.byte	0x4e
 2891 0caa 4A       		.byte	0x4a
 2892 0cab EF000000 		.4byte	0xef
 2893 0caf 01       		.uleb128 0x1
 2894 0cb0 52       		.byte	0x52
 2895 0cb1 00       		.byte	0
 2896 0cb2 2A       		.uleb128 0x2a
 2897 0cb3 950A0000 		.4byte	0xa95
 2898 0cb7 00000000 		.4byte	.LFB14
 2899 0cbb 50000000 		.4byte	.LFE14-.LFB14
 2900 0cbf 01       		.uleb128 0x1
 2901 0cc0 9C       		.byte	0x9c
 2902 0cc1 1D0D0000 		.4byte	0xd1d
 2903 0cc5 2B       		.uleb128 0x2b
 2904 0cc6 A20A0000 		.4byte	0xaa2
 2905 0cca 2D060000 		.4byte	.LLST6
 2906 0cce 27060000 		.4byte	.LVUS6
 2907 0cd2 2B       		.uleb128 0x2b
ARM GAS  /tmp/cc9XfRU8.s 			page 52


 2908 0cd3 AD0A0000 		.4byte	0xaad
 2909 0cd7 5D060000 		.4byte	.LLST7
 2910 0cdb 59060000 		.4byte	.LVUS7
 2911 0cdf 2C       		.uleb128 0x2c
 2912 0ce0 950A0000 		.4byte	0xa95
 2913 0ce4 2C000000 		.4byte	.LBI4
 2914 0ce8 00       		.byte	.LVU114
 2915 0ce9 00000000 		.4byte	.Ldebug_ranges0+0
 2916 0ced 01       		.byte	0x1
 2917 0cee F4       		.byte	0xf4
 2918 0cef 06       		.byte	0x6
 2919 0cf0 2B       		.uleb128 0x2b
 2920 0cf1 AD0A0000 		.4byte	0xaad
 2921 0cf5 80060000 		.4byte	.LLST8
 2922 0cf9 7E060000 		.4byte	.LVUS8
 2923 0cfd 2B       		.uleb128 0x2b
 2924 0cfe A20A0000 		.4byte	0xaa2
 2925 0d02 9A060000 		.4byte	.LLST9
 2926 0d06 96060000 		.4byte	.LVUS9
 2927 0d0a 17       		.uleb128 0x17
 2928 0d0b 34000000 		.4byte	.LVL16
 2929 0d0f 410D0000 		.4byte	0xd41
 2930 0d13 18       		.uleb128 0x18
 2931 0d14 01       		.uleb128 0x1
 2932 0d15 50       		.byte	0x50
 2933 0d16 03       		.uleb128 0x3
 2934 0d17 F3       		.byte	0xf3
 2935 0d18 01       		.uleb128 0x1
 2936 0d19 50       		.byte	0x50
 2937 0d1a 00       		.byte	0
 2938 0d1b 00       		.byte	0
 2939 0d1c 00       		.byte	0
 2940 0d1d 2D       		.uleb128 0x2d
 2941 0d1e E2010000 		.4byte	.LASF124
 2942 0d22 E2010000 		.4byte	.LASF124
 2943 0d26 08       		.byte	0x8
 2944 0d27 8F       		.byte	0x8f
 2945 0d28 09       		.byte	0x9
 2946 0d29 2D       		.uleb128 0x2d
 2947 0d2a 0E050000 		.4byte	.LASF125
 2948 0d2e 0E050000 		.4byte	.LASF125
 2949 0d32 08       		.byte	0x8
 2950 0d33 8C       		.byte	0x8c
 2951 0d34 08       		.byte	0x8
 2952 0d35 2D       		.uleb128 0x2d
 2953 0d36 37020000 		.4byte	.LASF126
 2954 0d3a 37020000 		.4byte	.LASF126
 2955 0d3e 08       		.byte	0x8
 2956 0d3f 95       		.byte	0x95
 2957 0d40 08       		.byte	0x8
 2958 0d41 2D       		.uleb128 0x2d
 2959 0d42 B4050000 		.4byte	.LASF127
 2960 0d46 B4050000 		.4byte	.LASF127
 2961 0d4a 08       		.byte	0x8
 2962 0d4b 89       		.byte	0x89
 2963 0d4c 0B       		.byte	0xb
 2964 0d4d 00       		.byte	0
ARM GAS  /tmp/cc9XfRU8.s 			page 53


 2965              		.section	.debug_abbrev,"",%progbits
 2966              	.Ldebug_abbrev0:
 2967 0000 01       		.uleb128 0x1
 2968 0001 11       		.uleb128 0x11
 2969 0002 01       		.byte	0x1
 2970 0003 25       		.uleb128 0x25
 2971 0004 0E       		.uleb128 0xe
 2972 0005 13       		.uleb128 0x13
 2973 0006 0B       		.uleb128 0xb
 2974 0007 03       		.uleb128 0x3
 2975 0008 0E       		.uleb128 0xe
 2976 0009 1B       		.uleb128 0x1b
 2977 000a 0E       		.uleb128 0xe
 2978 000b 55       		.uleb128 0x55
 2979 000c 17       		.uleb128 0x17
 2980 000d 11       		.uleb128 0x11
 2981 000e 01       		.uleb128 0x1
 2982 000f 10       		.uleb128 0x10
 2983 0010 17       		.uleb128 0x17
 2984 0011 00       		.byte	0
 2985 0012 00       		.byte	0
 2986 0013 02       		.uleb128 0x2
 2987 0014 24       		.uleb128 0x24
 2988 0015 00       		.byte	0
 2989 0016 0B       		.uleb128 0xb
 2990 0017 0B       		.uleb128 0xb
 2991 0018 3E       		.uleb128 0x3e
 2992 0019 0B       		.uleb128 0xb
 2993 001a 03       		.uleb128 0x3
 2994 001b 08       		.uleb128 0x8
 2995 001c 00       		.byte	0
 2996 001d 00       		.byte	0
 2997 001e 03       		.uleb128 0x3
 2998 001f 24       		.uleb128 0x24
 2999 0020 00       		.byte	0
 3000 0021 0B       		.uleb128 0xb
 3001 0022 0B       		.uleb128 0xb
 3002 0023 3E       		.uleb128 0x3e
 3003 0024 0B       		.uleb128 0xb
 3004 0025 03       		.uleb128 0x3
 3005 0026 0E       		.uleb128 0xe
 3006 0027 00       		.byte	0
 3007 0028 00       		.byte	0
 3008 0029 04       		.uleb128 0x4
 3009 002a 16       		.uleb128 0x16
 3010 002b 00       		.byte	0
 3011 002c 03       		.uleb128 0x3
 3012 002d 0E       		.uleb128 0xe
 3013 002e 3A       		.uleb128 0x3a
 3014 002f 0B       		.uleb128 0xb
 3015 0030 3B       		.uleb128 0x3b
 3016 0031 0B       		.uleb128 0xb
 3017 0032 39       		.uleb128 0x39
 3018 0033 0B       		.uleb128 0xb
 3019 0034 49       		.uleb128 0x49
 3020 0035 13       		.uleb128 0x13
 3021 0036 00       		.byte	0
ARM GAS  /tmp/cc9XfRU8.s 			page 54


 3022 0037 00       		.byte	0
 3023 0038 05       		.uleb128 0x5
 3024 0039 35       		.uleb128 0x35
 3025 003a 00       		.byte	0
 3026 003b 49       		.uleb128 0x49
 3027 003c 13       		.uleb128 0x13
 3028 003d 00       		.byte	0
 3029 003e 00       		.byte	0
 3030 003f 06       		.uleb128 0x6
 3031 0040 13       		.uleb128 0x13
 3032 0041 01       		.byte	0x1
 3033 0042 03       		.uleb128 0x3
 3034 0043 0E       		.uleb128 0xe
 3035 0044 0B       		.uleb128 0xb
 3036 0045 0B       		.uleb128 0xb
 3037 0046 3A       		.uleb128 0x3a
 3038 0047 0B       		.uleb128 0xb
 3039 0048 3B       		.uleb128 0x3b
 3040 0049 0B       		.uleb128 0xb
 3041 004a 39       		.uleb128 0x39
 3042 004b 0B       		.uleb128 0xb
 3043 004c 01       		.uleb128 0x1
 3044 004d 13       		.uleb128 0x13
 3045 004e 00       		.byte	0
 3046 004f 00       		.byte	0
 3047 0050 07       		.uleb128 0x7
 3048 0051 0D       		.uleb128 0xd
 3049 0052 00       		.byte	0
 3050 0053 03       		.uleb128 0x3
 3051 0054 0E       		.uleb128 0xe
 3052 0055 3A       		.uleb128 0x3a
 3053 0056 0B       		.uleb128 0xb
 3054 0057 3B       		.uleb128 0x3b
 3055 0058 0B       		.uleb128 0xb
 3056 0059 39       		.uleb128 0x39
 3057 005a 0B       		.uleb128 0xb
 3058 005b 49       		.uleb128 0x49
 3059 005c 13       		.uleb128 0x13
 3060 005d 38       		.uleb128 0x38
 3061 005e 0B       		.uleb128 0xb
 3062 005f 00       		.byte	0
 3063 0060 00       		.byte	0
 3064 0061 08       		.uleb128 0x8
 3065 0062 0D       		.uleb128 0xd
 3066 0063 00       		.byte	0
 3067 0064 03       		.uleb128 0x3
 3068 0065 08       		.uleb128 0x8
 3069 0066 3A       		.uleb128 0x3a
 3070 0067 0B       		.uleb128 0xb
 3071 0068 3B       		.uleb128 0x3b
 3072 0069 0B       		.uleb128 0xb
 3073 006a 39       		.uleb128 0x39
 3074 006b 0B       		.uleb128 0xb
 3075 006c 49       		.uleb128 0x49
 3076 006d 13       		.uleb128 0x13
 3077 006e 38       		.uleb128 0x38
 3078 006f 0B       		.uleb128 0xb
ARM GAS  /tmp/cc9XfRU8.s 			page 55


 3079 0070 00       		.byte	0
 3080 0071 00       		.byte	0
 3081 0072 09       		.uleb128 0x9
 3082 0073 13       		.uleb128 0x13
 3083 0074 01       		.byte	0x1
 3084 0075 0B       		.uleb128 0xb
 3085 0076 0B       		.uleb128 0xb
 3086 0077 3A       		.uleb128 0x3a
 3087 0078 0B       		.uleb128 0xb
 3088 0079 3B       		.uleb128 0x3b
 3089 007a 0B       		.uleb128 0xb
 3090 007b 39       		.uleb128 0x39
 3091 007c 0B       		.uleb128 0xb
 3092 007d 01       		.uleb128 0x1
 3093 007e 13       		.uleb128 0x13
 3094 007f 00       		.byte	0
 3095 0080 00       		.byte	0
 3096 0081 0A       		.uleb128 0xa
 3097 0082 0F       		.uleb128 0xf
 3098 0083 00       		.byte	0
 3099 0084 0B       		.uleb128 0xb
 3100 0085 0B       		.uleb128 0xb
 3101 0086 49       		.uleb128 0x49
 3102 0087 13       		.uleb128 0x13
 3103 0088 00       		.byte	0
 3104 0089 00       		.byte	0
 3105 008a 0B       		.uleb128 0xb
 3106 008b 0F       		.uleb128 0xf
 3107 008c 00       		.byte	0
 3108 008d 0B       		.uleb128 0xb
 3109 008e 0B       		.uleb128 0xb
 3110 008f 00       		.byte	0
 3111 0090 00       		.byte	0
 3112 0091 0C       		.uleb128 0xc
 3113 0092 15       		.uleb128 0x15
 3114 0093 01       		.byte	0x1
 3115 0094 27       		.uleb128 0x27
 3116 0095 19       		.uleb128 0x19
 3117 0096 01       		.uleb128 0x1
 3118 0097 13       		.uleb128 0x13
 3119 0098 00       		.byte	0
 3120 0099 00       		.byte	0
 3121 009a 0D       		.uleb128 0xd
 3122 009b 05       		.uleb128 0x5
 3123 009c 00       		.byte	0
 3124 009d 49       		.uleb128 0x49
 3125 009e 13       		.uleb128 0x13
 3126 009f 00       		.byte	0
 3127 00a0 00       		.byte	0
 3128 00a1 0E       		.uleb128 0xe
 3129 00a2 34       		.uleb128 0x34
 3130 00a3 00       		.byte	0
 3131 00a4 03       		.uleb128 0x3
 3132 00a5 0E       		.uleb128 0xe
 3133 00a6 3A       		.uleb128 0x3a
 3134 00a7 0B       		.uleb128 0xb
 3135 00a8 3B       		.uleb128 0x3b
ARM GAS  /tmp/cc9XfRU8.s 			page 56


 3136 00a9 0B       		.uleb128 0xb
 3137 00aa 39       		.uleb128 0x39
 3138 00ab 0B       		.uleb128 0xb
 3139 00ac 49       		.uleb128 0x49
 3140 00ad 13       		.uleb128 0x13
 3141 00ae 3F       		.uleb128 0x3f
 3142 00af 19       		.uleb128 0x19
 3143 00b0 3C       		.uleb128 0x3c
 3144 00b1 19       		.uleb128 0x19
 3145 00b2 00       		.byte	0
 3146 00b3 00       		.byte	0
 3147 00b4 0F       		.uleb128 0xf
 3148 00b5 26       		.uleb128 0x26
 3149 00b6 00       		.byte	0
 3150 00b7 49       		.uleb128 0x49
 3151 00b8 13       		.uleb128 0x13
 3152 00b9 00       		.byte	0
 3153 00ba 00       		.byte	0
 3154 00bb 10       		.uleb128 0x10
 3155 00bc 17       		.uleb128 0x17
 3156 00bd 01       		.byte	0x1
 3157 00be 0B       		.uleb128 0xb
 3158 00bf 0B       		.uleb128 0xb
 3159 00c0 3A       		.uleb128 0x3a
 3160 00c1 0B       		.uleb128 0xb
 3161 00c2 3B       		.uleb128 0x3b
 3162 00c3 0B       		.uleb128 0xb
 3163 00c4 39       		.uleb128 0x39
 3164 00c5 0B       		.uleb128 0xb
 3165 00c6 01       		.uleb128 0x1
 3166 00c7 13       		.uleb128 0x13
 3167 00c8 00       		.byte	0
 3168 00c9 00       		.byte	0
 3169 00ca 11       		.uleb128 0x11
 3170 00cb 0D       		.uleb128 0xd
 3171 00cc 00       		.byte	0
 3172 00cd 03       		.uleb128 0x3
 3173 00ce 0E       		.uleb128 0xe
 3174 00cf 3A       		.uleb128 0x3a
 3175 00d0 0B       		.uleb128 0xb
 3176 00d1 3B       		.uleb128 0x3b
 3177 00d2 0B       		.uleb128 0xb
 3178 00d3 39       		.uleb128 0x39
 3179 00d4 0B       		.uleb128 0xb
 3180 00d5 49       		.uleb128 0x49
 3181 00d6 13       		.uleb128 0x13
 3182 00d7 00       		.byte	0
 3183 00d8 00       		.byte	0
 3184 00d9 12       		.uleb128 0x12
 3185 00da 01       		.uleb128 0x1
 3186 00db 01       		.byte	0x1
 3187 00dc 49       		.uleb128 0x49
 3188 00dd 13       		.uleb128 0x13
 3189 00de 01       		.uleb128 0x1
 3190 00df 13       		.uleb128 0x13
 3191 00e0 00       		.byte	0
 3192 00e1 00       		.byte	0
ARM GAS  /tmp/cc9XfRU8.s 			page 57


 3193 00e2 13       		.uleb128 0x13
 3194 00e3 21       		.uleb128 0x21
 3195 00e4 00       		.byte	0
 3196 00e5 49       		.uleb128 0x49
 3197 00e6 13       		.uleb128 0x13
 3198 00e7 2F       		.uleb128 0x2f
 3199 00e8 0B       		.uleb128 0xb
 3200 00e9 00       		.byte	0
 3201 00ea 00       		.byte	0
 3202 00eb 14       		.uleb128 0x14
 3203 00ec 2E       		.uleb128 0x2e
 3204 00ed 01       		.byte	0x1
 3205 00ee 3F       		.uleb128 0x3f
 3206 00ef 19       		.uleb128 0x19
 3207 00f0 03       		.uleb128 0x3
 3208 00f1 0E       		.uleb128 0xe
 3209 00f2 3A       		.uleb128 0x3a
 3210 00f3 0B       		.uleb128 0xb
 3211 00f4 3B       		.uleb128 0x3b
 3212 00f5 05       		.uleb128 0x5
 3213 00f6 39       		.uleb128 0x39
 3214 00f7 0B       		.uleb128 0xb
 3215 00f8 27       		.uleb128 0x27
 3216 00f9 19       		.uleb128 0x19
 3217 00fa 49       		.uleb128 0x49
 3218 00fb 13       		.uleb128 0x13
 3219 00fc 11       		.uleb128 0x11
 3220 00fd 01       		.uleb128 0x1
 3221 00fe 12       		.uleb128 0x12
 3222 00ff 06       		.uleb128 0x6
 3223 0100 40       		.uleb128 0x40
 3224 0101 18       		.uleb128 0x18
 3225 0102 9742     		.uleb128 0x2117
 3226 0104 19       		.uleb128 0x19
 3227 0105 01       		.uleb128 0x1
 3228 0106 13       		.uleb128 0x13
 3229 0107 00       		.byte	0
 3230 0108 00       		.byte	0
 3231 0109 15       		.uleb128 0x15
 3232 010a 05       		.uleb128 0x5
 3233 010b 00       		.byte	0
 3234 010c 03       		.uleb128 0x3
 3235 010d 0E       		.uleb128 0xe
 3236 010e 3A       		.uleb128 0x3a
 3237 010f 0B       		.uleb128 0xb
 3238 0110 3B       		.uleb128 0x3b
 3239 0111 05       		.uleb128 0x5
 3240 0112 39       		.uleb128 0x39
 3241 0113 0B       		.uleb128 0xb
 3242 0114 49       		.uleb128 0x49
 3243 0115 13       		.uleb128 0x13
 3244 0116 02       		.uleb128 0x2
 3245 0117 17       		.uleb128 0x17
 3246 0118 B742     		.uleb128 0x2137
 3247 011a 17       		.uleb128 0x17
 3248 011b 00       		.byte	0
 3249 011c 00       		.byte	0
ARM GAS  /tmp/cc9XfRU8.s 			page 58


 3250 011d 16       		.uleb128 0x16
 3251 011e 34       		.uleb128 0x34
 3252 011f 00       		.byte	0
 3253 0120 03       		.uleb128 0x3
 3254 0121 08       		.uleb128 0x8
 3255 0122 3A       		.uleb128 0x3a
 3256 0123 0B       		.uleb128 0xb
 3257 0124 3B       		.uleb128 0x3b
 3258 0125 05       		.uleb128 0x5
 3259 0126 39       		.uleb128 0x39
 3260 0127 0B       		.uleb128 0xb
 3261 0128 49       		.uleb128 0x49
 3262 0129 13       		.uleb128 0x13
 3263 012a 02       		.uleb128 0x2
 3264 012b 17       		.uleb128 0x17
 3265 012c B742     		.uleb128 0x2137
 3266 012e 17       		.uleb128 0x17
 3267 012f 00       		.byte	0
 3268 0130 00       		.byte	0
 3269 0131 17       		.uleb128 0x17
 3270 0132 898201   		.uleb128 0x4109
 3271 0135 01       		.byte	0x1
 3272 0136 11       		.uleb128 0x11
 3273 0137 01       		.uleb128 0x1
 3274 0138 31       		.uleb128 0x31
 3275 0139 13       		.uleb128 0x13
 3276 013a 00       		.byte	0
 3277 013b 00       		.byte	0
 3278 013c 18       		.uleb128 0x18
 3279 013d 8A8201   		.uleb128 0x410a
 3280 0140 00       		.byte	0
 3281 0141 02       		.uleb128 0x2
 3282 0142 18       		.uleb128 0x18
 3283 0143 9142     		.uleb128 0x2111
 3284 0145 18       		.uleb128 0x18
 3285 0146 00       		.byte	0
 3286 0147 00       		.byte	0
 3287 0148 19       		.uleb128 0x19
 3288 0149 2E       		.uleb128 0x2e
 3289 014a 01       		.byte	0x1
 3290 014b 3F       		.uleb128 0x3f
 3291 014c 19       		.uleb128 0x19
 3292 014d 03       		.uleb128 0x3
 3293 014e 0E       		.uleb128 0xe
 3294 014f 3A       		.uleb128 0x3a
 3295 0150 0B       		.uleb128 0xb
 3296 0151 3B       		.uleb128 0x3b
 3297 0152 05       		.uleb128 0x5
 3298 0153 39       		.uleb128 0x39
 3299 0154 0B       		.uleb128 0xb
 3300 0155 27       		.uleb128 0x27
 3301 0156 19       		.uleb128 0x19
 3302 0157 11       		.uleb128 0x11
 3303 0158 01       		.uleb128 0x1
 3304 0159 12       		.uleb128 0x12
 3305 015a 06       		.uleb128 0x6
 3306 015b 40       		.uleb128 0x40
ARM GAS  /tmp/cc9XfRU8.s 			page 59


 3307 015c 18       		.uleb128 0x18
 3308 015d 9742     		.uleb128 0x2117
 3309 015f 19       		.uleb128 0x19
 3310 0160 01       		.uleb128 0x1
 3311 0161 13       		.uleb128 0x13
 3312 0162 00       		.byte	0
 3313 0163 00       		.byte	0
 3314 0164 1A       		.uleb128 0x1a
 3315 0165 898201   		.uleb128 0x4109
 3316 0168 01       		.byte	0x1
 3317 0169 11       		.uleb128 0x11
 3318 016a 01       		.uleb128 0x1
 3319 016b 00       		.byte	0
 3320 016c 00       		.byte	0
 3321 016d 1B       		.uleb128 0x1b
 3322 016e 05       		.uleb128 0x5
 3323 016f 00       		.byte	0
 3324 0170 03       		.uleb128 0x3
 3325 0171 08       		.uleb128 0x8
 3326 0172 3A       		.uleb128 0x3a
 3327 0173 0B       		.uleb128 0xb
 3328 0174 3B       		.uleb128 0x3b
 3329 0175 05       		.uleb128 0x5
 3330 0176 39       		.uleb128 0x39
 3331 0177 0B       		.uleb128 0xb
 3332 0178 49       		.uleb128 0x49
 3333 0179 13       		.uleb128 0x13
 3334 017a 02       		.uleb128 0x2
 3335 017b 17       		.uleb128 0x17
 3336 017c B742     		.uleb128 0x2137
 3337 017e 17       		.uleb128 0x17
 3338 017f 00       		.byte	0
 3339 0180 00       		.byte	0
 3340 0181 1C       		.uleb128 0x1c
 3341 0182 34       		.uleb128 0x34
 3342 0183 00       		.byte	0
 3343 0184 03       		.uleb128 0x3
 3344 0185 0E       		.uleb128 0xe
 3345 0186 3A       		.uleb128 0x3a
 3346 0187 0B       		.uleb128 0xb
 3347 0188 3B       		.uleb128 0x3b
 3348 0189 05       		.uleb128 0x5
 3349 018a 39       		.uleb128 0x39
 3350 018b 0B       		.uleb128 0xb
 3351 018c 49       		.uleb128 0x49
 3352 018d 13       		.uleb128 0x13
 3353 018e 02       		.uleb128 0x2
 3354 018f 17       		.uleb128 0x17
 3355 0190 B742     		.uleb128 0x2137
 3356 0192 17       		.uleb128 0x17
 3357 0193 00       		.byte	0
 3358 0194 00       		.byte	0
 3359 0195 1D       		.uleb128 0x1d
 3360 0196 898201   		.uleb128 0x4109
 3361 0199 01       		.byte	0x1
 3362 019a 11       		.uleb128 0x11
 3363 019b 01       		.uleb128 0x1
ARM GAS  /tmp/cc9XfRU8.s 			page 60


 3364 019c 31       		.uleb128 0x31
 3365 019d 13       		.uleb128 0x13
 3366 019e 01       		.uleb128 0x1
 3367 019f 13       		.uleb128 0x13
 3368 01a0 00       		.byte	0
 3369 01a1 00       		.byte	0
 3370 01a2 1E       		.uleb128 0x1e
 3371 01a3 898201   		.uleb128 0x4109
 3372 01a6 00       		.byte	0
 3373 01a7 11       		.uleb128 0x11
 3374 01a8 01       		.uleb128 0x1
 3375 01a9 31       		.uleb128 0x31
 3376 01aa 13       		.uleb128 0x13
 3377 01ab 00       		.byte	0
 3378 01ac 00       		.byte	0
 3379 01ad 1F       		.uleb128 0x1f
 3380 01ae 2E       		.uleb128 0x2e
 3381 01af 01       		.byte	0x1
 3382 01b0 3F       		.uleb128 0x3f
 3383 01b1 19       		.uleb128 0x19
 3384 01b2 03       		.uleb128 0x3
 3385 01b3 0E       		.uleb128 0xe
 3386 01b4 3A       		.uleb128 0x3a
 3387 01b5 0B       		.uleb128 0xb
 3388 01b6 3B       		.uleb128 0x3b
 3389 01b7 0B       		.uleb128 0xb
 3390 01b8 39       		.uleb128 0x39
 3391 01b9 0B       		.uleb128 0xb
 3392 01ba 27       		.uleb128 0x27
 3393 01bb 19       		.uleb128 0x19
 3394 01bc 20       		.uleb128 0x20
 3395 01bd 0B       		.uleb128 0xb
 3396 01be 01       		.uleb128 0x1
 3397 01bf 13       		.uleb128 0x13
 3398 01c0 00       		.byte	0
 3399 01c1 00       		.byte	0
 3400 01c2 20       		.uleb128 0x20
 3401 01c3 05       		.uleb128 0x5
 3402 01c4 00       		.byte	0
 3403 01c5 03       		.uleb128 0x3
 3404 01c6 08       		.uleb128 0x8
 3405 01c7 3A       		.uleb128 0x3a
 3406 01c8 0B       		.uleb128 0xb
 3407 01c9 3B       		.uleb128 0x3b
 3408 01ca 0B       		.uleb128 0xb
 3409 01cb 39       		.uleb128 0x39
 3410 01cc 0B       		.uleb128 0xb
 3411 01cd 49       		.uleb128 0x49
 3412 01ce 13       		.uleb128 0x13
 3413 01cf 00       		.byte	0
 3414 01d0 00       		.byte	0
 3415 01d1 21       		.uleb128 0x21
 3416 01d2 05       		.uleb128 0x5
 3417 01d3 00       		.byte	0
 3418 01d4 03       		.uleb128 0x3
 3419 01d5 0E       		.uleb128 0xe
 3420 01d6 3A       		.uleb128 0x3a
ARM GAS  /tmp/cc9XfRU8.s 			page 61


 3421 01d7 0B       		.uleb128 0xb
 3422 01d8 3B       		.uleb128 0x3b
 3423 01d9 0B       		.uleb128 0xb
 3424 01da 39       		.uleb128 0x39
 3425 01db 0B       		.uleb128 0xb
 3426 01dc 49       		.uleb128 0x49
 3427 01dd 13       		.uleb128 0x13
 3428 01de 00       		.byte	0
 3429 01df 00       		.byte	0
 3430 01e0 22       		.uleb128 0x22
 3431 01e1 2E       		.uleb128 0x2e
 3432 01e2 01       		.byte	0x1
 3433 01e3 3F       		.uleb128 0x3f
 3434 01e4 19       		.uleb128 0x19
 3435 01e5 03       		.uleb128 0x3
 3436 01e6 0E       		.uleb128 0xe
 3437 01e7 3A       		.uleb128 0x3a
 3438 01e8 0B       		.uleb128 0xb
 3439 01e9 3B       		.uleb128 0x3b
 3440 01ea 0B       		.uleb128 0xb
 3441 01eb 39       		.uleb128 0x39
 3442 01ec 0B       		.uleb128 0xb
 3443 01ed 27       		.uleb128 0x27
 3444 01ee 19       		.uleb128 0x19
 3445 01ef 11       		.uleb128 0x11
 3446 01f0 01       		.uleb128 0x1
 3447 01f1 12       		.uleb128 0x12
 3448 01f2 06       		.uleb128 0x6
 3449 01f3 40       		.uleb128 0x40
 3450 01f4 18       		.uleb128 0x18
 3451 01f5 9742     		.uleb128 0x2117
 3452 01f7 19       		.uleb128 0x19
 3453 01f8 01       		.uleb128 0x1
 3454 01f9 13       		.uleb128 0x13
 3455 01fa 00       		.byte	0
 3456 01fb 00       		.byte	0
 3457 01fc 23       		.uleb128 0x23
 3458 01fd 05       		.uleb128 0x5
 3459 01fe 00       		.byte	0
 3460 01ff 03       		.uleb128 0x3
 3461 0200 08       		.uleb128 0x8
 3462 0201 3A       		.uleb128 0x3a
 3463 0202 0B       		.uleb128 0xb
 3464 0203 3B       		.uleb128 0x3b
 3465 0204 0B       		.uleb128 0xb
 3466 0205 39       		.uleb128 0x39
 3467 0206 0B       		.uleb128 0xb
 3468 0207 49       		.uleb128 0x49
 3469 0208 13       		.uleb128 0x13
 3470 0209 02       		.uleb128 0x2
 3471 020a 17       		.uleb128 0x17
 3472 020b B742     		.uleb128 0x2137
 3473 020d 17       		.uleb128 0x17
 3474 020e 00       		.byte	0
 3475 020f 00       		.byte	0
 3476 0210 24       		.uleb128 0x24
 3477 0211 05       		.uleb128 0x5
ARM GAS  /tmp/cc9XfRU8.s 			page 62


 3478 0212 00       		.byte	0
 3479 0213 03       		.uleb128 0x3
 3480 0214 0E       		.uleb128 0xe
 3481 0215 3A       		.uleb128 0x3a
 3482 0216 0B       		.uleb128 0xb
 3483 0217 3B       		.uleb128 0x3b
 3484 0218 0B       		.uleb128 0xb
 3485 0219 39       		.uleb128 0x39
 3486 021a 0B       		.uleb128 0xb
 3487 021b 49       		.uleb128 0x49
 3488 021c 13       		.uleb128 0x13
 3489 021d 02       		.uleb128 0x2
 3490 021e 17       		.uleb128 0x17
 3491 021f B742     		.uleb128 0x2137
 3492 0221 17       		.uleb128 0x17
 3493 0222 00       		.byte	0
 3494 0223 00       		.byte	0
 3495 0224 25       		.uleb128 0x25
 3496 0225 2E       		.uleb128 0x2e
 3497 0226 01       		.byte	0x1
 3498 0227 3F       		.uleb128 0x3f
 3499 0228 19       		.uleb128 0x19
 3500 0229 03       		.uleb128 0x3
 3501 022a 0E       		.uleb128 0xe
 3502 022b 3A       		.uleb128 0x3a
 3503 022c 0B       		.uleb128 0xb
 3504 022d 3B       		.uleb128 0x3b
 3505 022e 0B       		.uleb128 0xb
 3506 022f 39       		.uleb128 0x39
 3507 0230 0B       		.uleb128 0xb
 3508 0231 27       		.uleb128 0x27
 3509 0232 19       		.uleb128 0x19
 3510 0233 49       		.uleb128 0x49
 3511 0234 13       		.uleb128 0x13
 3512 0235 11       		.uleb128 0x11
 3513 0236 01       		.uleb128 0x1
 3514 0237 12       		.uleb128 0x12
 3515 0238 06       		.uleb128 0x6
 3516 0239 40       		.uleb128 0x40
 3517 023a 18       		.uleb128 0x18
 3518 023b 9742     		.uleb128 0x2117
 3519 023d 19       		.uleb128 0x19
 3520 023e 01       		.uleb128 0x1
 3521 023f 13       		.uleb128 0x13
 3522 0240 00       		.byte	0
 3523 0241 00       		.byte	0
 3524 0242 26       		.uleb128 0x26
 3525 0243 34       		.uleb128 0x34
 3526 0244 00       		.byte	0
 3527 0245 03       		.uleb128 0x3
 3528 0246 0E       		.uleb128 0xe
 3529 0247 3A       		.uleb128 0x3a
 3530 0248 0B       		.uleb128 0xb
 3531 0249 3B       		.uleb128 0x3b
 3532 024a 0B       		.uleb128 0xb
 3533 024b 39       		.uleb128 0x39
 3534 024c 0B       		.uleb128 0xb
ARM GAS  /tmp/cc9XfRU8.s 			page 63


 3535 024d 49       		.uleb128 0x49
 3536 024e 13       		.uleb128 0x13
 3537 024f 02       		.uleb128 0x2
 3538 0250 17       		.uleb128 0x17
 3539 0251 B742     		.uleb128 0x2137
 3540 0253 17       		.uleb128 0x17
 3541 0254 00       		.byte	0
 3542 0255 00       		.byte	0
 3543 0256 27       		.uleb128 0x27
 3544 0257 34       		.uleb128 0x34
 3545 0258 00       		.byte	0
 3546 0259 03       		.uleb128 0x3
 3547 025a 08       		.uleb128 0x8
 3548 025b 3A       		.uleb128 0x3a
 3549 025c 0B       		.uleb128 0xb
 3550 025d 3B       		.uleb128 0x3b
 3551 025e 0B       		.uleb128 0xb
 3552 025f 39       		.uleb128 0x39
 3553 0260 0B       		.uleb128 0xb
 3554 0261 49       		.uleb128 0x49
 3555 0262 13       		.uleb128 0x13
 3556 0263 02       		.uleb128 0x2
 3557 0264 17       		.uleb128 0x17
 3558 0265 B742     		.uleb128 0x2137
 3559 0267 17       		.uleb128 0x17
 3560 0268 00       		.byte	0
 3561 0269 00       		.byte	0
 3562 026a 28       		.uleb128 0x28
 3563 026b 05       		.uleb128 0x5
 3564 026c 00       		.byte	0
 3565 026d 03       		.uleb128 0x3
 3566 026e 08       		.uleb128 0x8
 3567 026f 3A       		.uleb128 0x3a
 3568 0270 0B       		.uleb128 0xb
 3569 0271 3B       		.uleb128 0x3b
 3570 0272 0B       		.uleb128 0xb
 3571 0273 39       		.uleb128 0x39
 3572 0274 0B       		.uleb128 0xb
 3573 0275 49       		.uleb128 0x49
 3574 0276 13       		.uleb128 0x13
 3575 0277 02       		.uleb128 0x2
 3576 0278 18       		.uleb128 0x18
 3577 0279 00       		.byte	0
 3578 027a 00       		.byte	0
 3579 027b 29       		.uleb128 0x29
 3580 027c 05       		.uleb128 0x5
 3581 027d 00       		.byte	0
 3582 027e 03       		.uleb128 0x3
 3583 027f 0E       		.uleb128 0xe
 3584 0280 3A       		.uleb128 0x3a
 3585 0281 0B       		.uleb128 0xb
 3586 0282 3B       		.uleb128 0x3b
 3587 0283 0B       		.uleb128 0xb
 3588 0284 39       		.uleb128 0x39
 3589 0285 0B       		.uleb128 0xb
 3590 0286 49       		.uleb128 0x49
 3591 0287 13       		.uleb128 0x13
ARM GAS  /tmp/cc9XfRU8.s 			page 64


 3592 0288 02       		.uleb128 0x2
 3593 0289 18       		.uleb128 0x18
 3594 028a 00       		.byte	0
 3595 028b 00       		.byte	0
 3596 028c 2A       		.uleb128 0x2a
 3597 028d 2E       		.uleb128 0x2e
 3598 028e 01       		.byte	0x1
 3599 028f 31       		.uleb128 0x31
 3600 0290 13       		.uleb128 0x13
 3601 0291 11       		.uleb128 0x11
 3602 0292 01       		.uleb128 0x1
 3603 0293 12       		.uleb128 0x12
 3604 0294 06       		.uleb128 0x6
 3605 0295 40       		.uleb128 0x40
 3606 0296 18       		.uleb128 0x18
 3607 0297 9742     		.uleb128 0x2117
 3608 0299 19       		.uleb128 0x19
 3609 029a 01       		.uleb128 0x1
 3610 029b 13       		.uleb128 0x13
 3611 029c 00       		.byte	0
 3612 029d 00       		.byte	0
 3613 029e 2B       		.uleb128 0x2b
 3614 029f 05       		.uleb128 0x5
 3615 02a0 00       		.byte	0
 3616 02a1 31       		.uleb128 0x31
 3617 02a2 13       		.uleb128 0x13
 3618 02a3 02       		.uleb128 0x2
 3619 02a4 17       		.uleb128 0x17
 3620 02a5 B742     		.uleb128 0x2137
 3621 02a7 17       		.uleb128 0x17
 3622 02a8 00       		.byte	0
 3623 02a9 00       		.byte	0
 3624 02aa 2C       		.uleb128 0x2c
 3625 02ab 1D       		.uleb128 0x1d
 3626 02ac 01       		.byte	0x1
 3627 02ad 31       		.uleb128 0x31
 3628 02ae 13       		.uleb128 0x13
 3629 02af 52       		.uleb128 0x52
 3630 02b0 01       		.uleb128 0x1
 3631 02b1 B842     		.uleb128 0x2138
 3632 02b3 0B       		.uleb128 0xb
 3633 02b4 55       		.uleb128 0x55
 3634 02b5 17       		.uleb128 0x17
 3635 02b6 58       		.uleb128 0x58
 3636 02b7 0B       		.uleb128 0xb
 3637 02b8 59       		.uleb128 0x59
 3638 02b9 0B       		.uleb128 0xb
 3639 02ba 57       		.uleb128 0x57
 3640 02bb 0B       		.uleb128 0xb
 3641 02bc 00       		.byte	0
 3642 02bd 00       		.byte	0
 3643 02be 2D       		.uleb128 0x2d
 3644 02bf 2E       		.uleb128 0x2e
 3645 02c0 00       		.byte	0
 3646 02c1 3F       		.uleb128 0x3f
 3647 02c2 19       		.uleb128 0x19
 3648 02c3 3C       		.uleb128 0x3c
ARM GAS  /tmp/cc9XfRU8.s 			page 65


 3649 02c4 19       		.uleb128 0x19
 3650 02c5 6E       		.uleb128 0x6e
 3651 02c6 0E       		.uleb128 0xe
 3652 02c7 03       		.uleb128 0x3
 3653 02c8 0E       		.uleb128 0xe
 3654 02c9 3A       		.uleb128 0x3a
 3655 02ca 0B       		.uleb128 0xb
 3656 02cb 3B       		.uleb128 0x3b
 3657 02cc 0B       		.uleb128 0xb
 3658 02cd 39       		.uleb128 0x39
 3659 02ce 0B       		.uleb128 0xb
 3660 02cf 00       		.byte	0
 3661 02d0 00       		.byte	0
 3662 02d1 00       		.byte	0
 3663              		.section	.debug_loc,"",%progbits
 3664              	.Ldebug_loc0:
 3665              	.LVUS38:
 3666 0000 00       		.uleb128 0
 3667 0001 00       		.uleb128 .LVU374
 3668 0002 00       		.uleb128 .LVU374
 3669 0003 00       		.uleb128 0
 3670              	.LLST38:
 3671 0004 00000000 		.4byte	.LVL76
 3672 0008 28000000 		.4byte	.LVL78
 3673 000c 0100     		.2byte	0x1
 3674 000e 50       		.byte	0x50
 3675 000f 28000000 		.4byte	.LVL78
 3676 0013 70000000 		.4byte	.LFE23
 3677 0017 0100     		.2byte	0x1
 3678 0019 54       		.byte	0x54
 3679 001a 00000000 		.4byte	0
 3680 001e 00000000 		.4byte	0
 3681              	.LVUS39:
 3682 0022 00       		.uleb128 0
 3683 0023 00       		.uleb128 .LVU386
 3684 0024 00       		.uleb128 .LVU386
 3685 0025 00       		.uleb128 0
 3686              	.LLST39:
 3687 0026 00000000 		.4byte	.LVL76
 3688 002a 3F000000 		.4byte	.LVL79-1
 3689 002e 0100     		.2byte	0x1
 3690 0030 51       		.byte	0x51
 3691 0031 3F000000 		.4byte	.LVL79-1
 3692 0035 70000000 		.4byte	.LFE23
 3693 0039 0400     		.2byte	0x4
 3694 003b F3       		.byte	0xf3
 3695 003c 01       		.uleb128 0x1
 3696 003d 51       		.byte	0x51
 3697 003e 9F       		.byte	0x9f
 3698 003f 00000000 		.4byte	0
 3699 0043 00000000 		.4byte	0
 3700              	.LVUS40:
 3701 0047 00       		.uleb128 .LVU367
 3702 0048 00       		.uleb128 0
 3703              	.LLST40:
 3704 0049 10000000 		.4byte	.LVL77
 3705 004d 70000000 		.4byte	.LFE23
ARM GAS  /tmp/cc9XfRU8.s 			page 66


 3706 0051 0100     		.2byte	0x1
 3707 0053 55       		.byte	0x55
 3708 0054 00000000 		.4byte	0
 3709 0058 00000000 		.4byte	0
 3710              	.LVUS34:
 3711 005c 00       		.uleb128 0
 3712 005d 00       		.uleb128 .LVU345
 3713 005e 00       		.uleb128 .LVU345
 3714 005f 00       		.uleb128 .LVU350
 3715 0060 00       		.uleb128 .LVU350
 3716 0061 00       		.uleb128 .LVU354
 3717 0062 00       		.uleb128 .LVU354
 3718 0063 00       		.uleb128 .LVU359
 3719 0064 00       		.uleb128 .LVU359
 3720 0065 00       		.uleb128 0
 3721              	.LLST34:
 3722 0066 00000000 		.4byte	.LVL68
 3723 006a 24000000 		.4byte	.LVL71
 3724 006e 0100     		.2byte	0x1
 3725 0070 50       		.byte	0x50
 3726 0071 24000000 		.4byte	.LVL71
 3727 0075 30000000 		.4byte	.LVL72
 3728 0079 0400     		.2byte	0x4
 3729 007b F3       		.byte	0xf3
 3730 007c 01       		.uleb128 0x1
 3731 007d 50       		.byte	0x50
 3732 007e 9F       		.byte	0x9f
 3733 007f 30000000 		.4byte	.LVL72
 3734 0083 3C000000 		.4byte	.LVL73
 3735 0087 0100     		.2byte	0x1
 3736 0089 50       		.byte	0x50
 3737 008a 3C000000 		.4byte	.LVL73
 3738 008e 50000000 		.4byte	.LVL75
 3739 0092 0100     		.2byte	0x1
 3740 0094 54       		.byte	0x54
 3741 0095 50000000 		.4byte	.LVL75
 3742 0099 60000000 		.4byte	.LFE22
 3743 009d 0400     		.2byte	0x4
 3744 009f F3       		.byte	0xf3
 3745 00a0 01       		.uleb128 0x1
 3746 00a1 50       		.byte	0x50
 3747 00a2 9F       		.byte	0x9f
 3748 00a3 00000000 		.4byte	0
 3749 00a7 00000000 		.4byte	0
 3750              	.LVUS35:
 3751 00ab 00       		.uleb128 0
 3752 00ac 00       		.uleb128 .LVU345
 3753 00ad 00       		.uleb128 .LVU345
 3754 00ae 00       		.uleb128 .LVU350
 3755 00af 00       		.uleb128 .LVU350
 3756 00b0 00       		.uleb128 .LVU355
 3757 00b1 00       		.uleb128 .LVU355
 3758 00b2 00       		.uleb128 0
 3759              	.LLST35:
 3760 00b3 00000000 		.4byte	.LVL68
 3761 00b7 24000000 		.4byte	.LVL71
 3762 00bb 0100     		.2byte	0x1
ARM GAS  /tmp/cc9XfRU8.s 			page 67


 3763 00bd 51       		.byte	0x51
 3764 00be 24000000 		.4byte	.LVL71
 3765 00c2 30000000 		.4byte	.LVL72
 3766 00c6 0400     		.2byte	0x4
 3767 00c8 F3       		.byte	0xf3
 3768 00c9 01       		.uleb128 0x1
 3769 00ca 51       		.byte	0x51
 3770 00cb 9F       		.byte	0x9f
 3771 00cc 30000000 		.4byte	.LVL72
 3772 00d0 3F000000 		.4byte	.LVL74-1
 3773 00d4 0100     		.2byte	0x1
 3774 00d6 51       		.byte	0x51
 3775 00d7 3F000000 		.4byte	.LVL74-1
 3776 00db 60000000 		.4byte	.LFE22
 3777 00df 0400     		.2byte	0x4
 3778 00e1 F3       		.byte	0xf3
 3779 00e2 01       		.uleb128 0x1
 3780 00e3 51       		.byte	0x51
 3781 00e4 9F       		.byte	0x9f
 3782 00e5 00000000 		.4byte	0
 3783 00e9 00000000 		.4byte	0
 3784              	.LVUS36:
 3785 00ed 00       		.uleb128 .LVU336
 3786 00ee 00       		.uleb128 0
 3787              	.LLST36:
 3788 00ef 0C000000 		.4byte	.LVL69
 3789 00f3 60000000 		.4byte	.LFE22
 3790 00f7 0100     		.2byte	0x1
 3791 00f9 55       		.byte	0x55
 3792 00fa 00000000 		.4byte	0
 3793 00fe 00000000 		.4byte	0
 3794              	.LVUS37:
 3795 0102 00       		.uleb128 .LVU342
 3796 0103 00       		.uleb128 .LVU345
 3797 0104 00       		.uleb128 .LVU350
 3798 0105 00       		.uleb128 .LVU354
 3799 0106 00       		.uleb128 .LVU354
 3800 0107 00       		.uleb128 .LVU355
 3801 0108 00       		.uleb128 .LVU359
 3802 0109 00       		.uleb128 0
 3803              	.LLST37:
 3804 010a 14000000 		.4byte	.LVL70
 3805 010e 24000000 		.4byte	.LVL71
 3806 0112 0600     		.2byte	0x6
 3807 0114 73       		.byte	0x73
 3808 0115 00       		.sleb128 0
 3809 0116 70       		.byte	0x70
 3810 0117 00       		.sleb128 0
 3811 0118 1A       		.byte	0x1a
 3812 0119 9F       		.byte	0x9f
 3813 011a 30000000 		.4byte	.LVL72
 3814 011e 3C000000 		.4byte	.LVL73
 3815 0122 0600     		.2byte	0x6
 3816 0124 73       		.byte	0x73
 3817 0125 00       		.sleb128 0
 3818 0126 70       		.byte	0x70
 3819 0127 00       		.sleb128 0
ARM GAS  /tmp/cc9XfRU8.s 			page 68


 3820 0128 1A       		.byte	0x1a
 3821 0129 9F       		.byte	0x9f
 3822 012a 3C000000 		.4byte	.LVL73
 3823 012e 3F000000 		.4byte	.LVL74-1
 3824 0132 0600     		.2byte	0x6
 3825 0134 73       		.byte	0x73
 3826 0135 00       		.sleb128 0
 3827 0136 74       		.byte	0x74
 3828 0137 00       		.sleb128 0
 3829 0138 1A       		.byte	0x1a
 3830 0139 9F       		.byte	0x9f
 3831 013a 50000000 		.4byte	.LVL75
 3832 013e 60000000 		.4byte	.LFE22
 3833 0142 0100     		.2byte	0x1
 3834 0144 56       		.byte	0x56
 3835 0145 00000000 		.4byte	0
 3836 0149 00000000 		.4byte	0
 3837              	.LVUS30:
 3838 014d 00       		.uleb128 0
 3839 014e 00       		.uleb128 .LVU312
 3840 014f 00       		.uleb128 .LVU312
 3841 0150 00       		.uleb128 .LVU317
 3842 0151 00       		.uleb128 .LVU317
 3843 0152 00       		.uleb128 .LVU321
 3844 0153 00       		.uleb128 .LVU321
 3845 0154 00       		.uleb128 .LVU326
 3846 0155 00       		.uleb128 .LVU326
 3847 0156 00       		.uleb128 0
 3848              	.LLST30:
 3849 0157 00000000 		.4byte	.LVL59
 3850 015b 24000000 		.4byte	.LVL62
 3851 015f 0100     		.2byte	0x1
 3852 0161 50       		.byte	0x50
 3853 0162 24000000 		.4byte	.LVL62
 3854 0166 30000000 		.4byte	.LVL63
 3855 016a 0400     		.2byte	0x4
 3856 016c F3       		.byte	0xf3
 3857 016d 01       		.uleb128 0x1
 3858 016e 50       		.byte	0x50
 3859 016f 9F       		.byte	0x9f
 3860 0170 30000000 		.4byte	.LVL63
 3861 0174 3C000000 		.4byte	.LVL64
 3862 0178 0100     		.2byte	0x1
 3863 017a 50       		.byte	0x50
 3864 017b 3C000000 		.4byte	.LVL64
 3865 017f 50000000 		.4byte	.LVL66
 3866 0183 0100     		.2byte	0x1
 3867 0185 54       		.byte	0x54
 3868 0186 50000000 		.4byte	.LVL66
 3869 018a 68000000 		.4byte	.LFE21
 3870 018e 0400     		.2byte	0x4
 3871 0190 F3       		.byte	0xf3
 3872 0191 01       		.uleb128 0x1
 3873 0192 50       		.byte	0x50
 3874 0193 9F       		.byte	0x9f
 3875 0194 00000000 		.4byte	0
 3876 0198 00000000 		.4byte	0
ARM GAS  /tmp/cc9XfRU8.s 			page 69


 3877              	.LVUS31:
 3878 019c 00       		.uleb128 0
 3879 019d 00       		.uleb128 .LVU312
 3880 019e 00       		.uleb128 .LVU312
 3881 019f 00       		.uleb128 .LVU317
 3882 01a0 00       		.uleb128 .LVU317
 3883 01a1 00       		.uleb128 .LVU322
 3884 01a2 00       		.uleb128 .LVU322
 3885 01a3 00       		.uleb128 0
 3886              	.LLST31:
 3887 01a4 00000000 		.4byte	.LVL59
 3888 01a8 24000000 		.4byte	.LVL62
 3889 01ac 0100     		.2byte	0x1
 3890 01ae 51       		.byte	0x51
 3891 01af 24000000 		.4byte	.LVL62
 3892 01b3 30000000 		.4byte	.LVL63
 3893 01b7 0400     		.2byte	0x4
 3894 01b9 F3       		.byte	0xf3
 3895 01ba 01       		.uleb128 0x1
 3896 01bb 51       		.byte	0x51
 3897 01bc 9F       		.byte	0x9f
 3898 01bd 30000000 		.4byte	.LVL63
 3899 01c1 3F000000 		.4byte	.LVL65-1
 3900 01c5 0100     		.2byte	0x1
 3901 01c7 51       		.byte	0x51
 3902 01c8 3F000000 		.4byte	.LVL65-1
 3903 01cc 68000000 		.4byte	.LFE21
 3904 01d0 0400     		.2byte	0x4
 3905 01d2 F3       		.byte	0xf3
 3906 01d3 01       		.uleb128 0x1
 3907 01d4 51       		.byte	0x51
 3908 01d5 9F       		.byte	0x9f
 3909 01d6 00000000 		.4byte	0
 3910 01da 00000000 		.4byte	0
 3911              	.LVUS32:
 3912 01de 00       		.uleb128 .LVU303
 3913 01df 00       		.uleb128 0
 3914              	.LLST32:
 3915 01e0 0C000000 		.4byte	.LVL60
 3916 01e4 68000000 		.4byte	.LFE21
 3917 01e8 0100     		.2byte	0x1
 3918 01ea 56       		.byte	0x56
 3919 01eb 00000000 		.4byte	0
 3920 01ef 00000000 		.4byte	0
 3921              	.LVUS33:
 3922 01f3 00       		.uleb128 .LVU309
 3923 01f4 00       		.uleb128 .LVU312
 3924 01f5 00       		.uleb128 .LVU317
 3925 01f6 00       		.uleb128 .LVU321
 3926 01f7 00       		.uleb128 .LVU321
 3927 01f8 00       		.uleb128 .LVU322
 3928 01f9 00       		.uleb128 .LVU326
 3929 01fa 00       		.uleb128 0
 3930              	.LLST33:
 3931 01fb 14000000 		.4byte	.LVL61
 3932 01ff 24000000 		.4byte	.LVL62
 3933 0203 0600     		.2byte	0x6
ARM GAS  /tmp/cc9XfRU8.s 			page 70


 3934 0205 73       		.byte	0x73
 3935 0206 00       		.sleb128 0
 3936 0207 70       		.byte	0x70
 3937 0208 00       		.sleb128 0
 3938 0209 1A       		.byte	0x1a
 3939 020a 9F       		.byte	0x9f
 3940 020b 30000000 		.4byte	.LVL63
 3941 020f 3C000000 		.4byte	.LVL64
 3942 0213 0600     		.2byte	0x6
 3943 0215 73       		.byte	0x73
 3944 0216 00       		.sleb128 0
 3945 0217 70       		.byte	0x70
 3946 0218 00       		.sleb128 0
 3947 0219 1A       		.byte	0x1a
 3948 021a 9F       		.byte	0x9f
 3949 021b 3C000000 		.4byte	.LVL64
 3950 021f 3F000000 		.4byte	.LVL65-1
 3951 0223 0600     		.2byte	0x6
 3952 0225 73       		.byte	0x73
 3953 0226 00       		.sleb128 0
 3954 0227 74       		.byte	0x74
 3955 0228 00       		.sleb128 0
 3956 0229 1A       		.byte	0x1a
 3957 022a 9F       		.byte	0x9f
 3958 022b 50000000 		.4byte	.LVL66
 3959 022f 68000000 		.4byte	.LFE21
 3960 0233 0100     		.2byte	0x1
 3961 0235 55       		.byte	0x55
 3962 0236 00000000 		.4byte	0
 3963 023a 00000000 		.4byte	0
 3964              	.LVUS28:
 3965 023e 00       		.uleb128 0
 3966 023f 00       		.uleb128 .LVU290
 3967 0240 00       		.uleb128 .LVU290
 3968 0241 00       		.uleb128 0
 3969              	.LLST28:
 3970 0242 00000000 		.4byte	.LVL55
 3971 0246 28000000 		.4byte	.LVL57
 3972 024a 0100     		.2byte	0x1
 3973 024c 50       		.byte	0x50
 3974 024d 28000000 		.4byte	.LVL57
 3975 0251 48000000 		.4byte	.LFE20
 3976 0255 0100     		.2byte	0x1
 3977 0257 54       		.byte	0x54
 3978 0258 00000000 		.4byte	0
 3979 025c 00000000 		.4byte	0
 3980              	.LVUS29:
 3981 0260 00       		.uleb128 .LVU281
 3982 0261 00       		.uleb128 0
 3983              	.LLST29:
 3984 0262 10000000 		.4byte	.LVL56
 3985 0266 48000000 		.4byte	.LFE20
 3986 026a 0100     		.2byte	0x1
 3987 026c 55       		.byte	0x55
 3988 026d 00000000 		.4byte	0
 3989 0271 00000000 		.4byte	0
 3990              	.LVUS25:
ARM GAS  /tmp/cc9XfRU8.s 			page 71


 3991 0275 00       		.uleb128 0
 3992 0276 00       		.uleb128 .LVU259
 3993 0277 00       		.uleb128 .LVU259
 3994 0278 00       		.uleb128 0
 3995              	.LLST25:
 3996 0279 00000000 		.4byte	.LVL47
 3997 027d 1C000000 		.4byte	.LVL50
 3998 0281 0100     		.2byte	0x1
 3999 0283 50       		.byte	0x50
 4000 0284 1C000000 		.4byte	.LVL50
 4001 0288 4C000000 		.4byte	.LFE19
 4002 028c 0100     		.2byte	0x1
 4003 028e 54       		.byte	0x54
 4004 028f 00000000 		.4byte	0
 4005 0293 00000000 		.4byte	0
 4006              	.LVUS26:
 4007 0297 00       		.uleb128 .LVU252
 4008 0298 00       		.uleb128 0
 4009              	.LLST26:
 4010 0299 10000000 		.4byte	.LVL48
 4011 029d 4C000000 		.4byte	.LFE19
 4012 02a1 0100     		.2byte	0x1
 4013 02a3 55       		.byte	0x55
 4014 02a4 00000000 		.4byte	0
 4015 02a8 00000000 		.4byte	0
 4016              	.LVUS27:
 4017 02ac 00       		.uleb128 .LVU258
 4018 02ad 00       		.uleb128 .LVU259
 4019 02ae 00       		.uleb128 .LVU259
 4020 02af 00       		.uleb128 .LVU269
 4021 02b0 00       		.uleb128 .LVU269
 4022 02b1 00       		.uleb128 .LVU271
 4023 02b2 00       		.uleb128 .LVU274
 4024 02b3 00       		.uleb128 0
 4025              	.LLST27:
 4026 02b4 18000000 		.4byte	.LVL49
 4027 02b8 1C000000 		.4byte	.LVL50
 4028 02bc 0600     		.2byte	0x6
 4029 02be 73       		.byte	0x73
 4030 02bf 00       		.sleb128 0
 4031 02c0 70       		.byte	0x70
 4032 02c1 00       		.sleb128 0
 4033 02c2 1A       		.byte	0x1a
 4034 02c3 9F       		.byte	0x9f
 4035 02c4 1C000000 		.4byte	.LVL50
 4036 02c8 34000000 		.4byte	.LVL52
 4037 02cc 0100     		.2byte	0x1
 4038 02ce 50       		.byte	0x50
 4039 02cf 34000000 		.4byte	.LVL52
 4040 02d3 3B000000 		.4byte	.LVL53-1
 4041 02d7 0600     		.2byte	0x6
 4042 02d9 73       		.byte	0x73
 4043 02da 00       		.sleb128 0
 4044 02db 74       		.byte	0x74
 4045 02dc 00       		.sleb128 0
 4046 02dd 1A       		.byte	0x1a
 4047 02de 9F       		.byte	0x9f
ARM GAS  /tmp/cc9XfRU8.s 			page 72


 4048 02df 44000000 		.4byte	.LVL54
 4049 02e3 4C000000 		.4byte	.LFE19
 4050 02e7 0100     		.2byte	0x1
 4051 02e9 50       		.byte	0x50
 4052 02ea 00000000 		.4byte	0
 4053 02ee 00000000 		.4byte	0
 4054              	.LVUS22:
 4055 02f2 00       		.uleb128 0
 4056 02f3 00       		.uleb128 .LVU227
 4057 02f4 00       		.uleb128 .LVU227
 4058 02f5 00       		.uleb128 .LVU237
 4059 02f6 00       		.uleb128 .LVU237
 4060 02f7 00       		.uleb128 .LVU241
 4061 02f8 00       		.uleb128 .LVU241
 4062 02f9 00       		.uleb128 0
 4063              	.LLST22:
 4064 02fa 00000000 		.4byte	.LVL38
 4065 02fe 1C000000 		.4byte	.LVL41
 4066 0302 0100     		.2byte	0x1
 4067 0304 50       		.byte	0x50
 4068 0305 1C000000 		.4byte	.LVL41
 4069 0309 34000000 		.4byte	.LVL43
 4070 030d 0400     		.2byte	0x4
 4071 030f F3       		.byte	0xf3
 4072 0310 01       		.uleb128 0x1
 4073 0311 50       		.byte	0x50
 4074 0312 9F       		.byte	0x9f
 4075 0313 34000000 		.4byte	.LVL43
 4076 0317 40000000 		.4byte	.LVL44
 4077 031b 0100     		.2byte	0x1
 4078 031d 50       		.byte	0x50
 4079 031e 40000000 		.4byte	.LVL44
 4080 0322 54000000 		.4byte	.LFE18
 4081 0326 0100     		.2byte	0x1
 4082 0328 54       		.byte	0x54
 4083 0329 00000000 		.4byte	0
 4084 032d 00000000 		.4byte	0
 4085              	.LVUS23:
 4086 0331 00       		.uleb128 .LVU220
 4087 0332 00       		.uleb128 0
 4088              	.LLST23:
 4089 0333 0C000000 		.4byte	.LVL39
 4090 0337 54000000 		.4byte	.LFE18
 4091 033b 0100     		.2byte	0x1
 4092 033d 55       		.byte	0x55
 4093 033e 00000000 		.4byte	0
 4094 0342 00000000 		.4byte	0
 4095              	.LVUS24:
 4096 0346 00       		.uleb128 .LVU226
 4097 0347 00       		.uleb128 .LVU227
 4098 0348 00       		.uleb128 .LVU227
 4099 0349 00       		.uleb128 .LVU230
 4100 034a 00       		.uleb128 .LVU230
 4101 034b 00       		.uleb128 .LVU237
 4102 034c 00       		.uleb128 .LVU237
 4103 034d 00       		.uleb128 .LVU241
 4104 034e 00       		.uleb128 .LVU241
ARM GAS  /tmp/cc9XfRU8.s 			page 73


 4105 034f 00       		.uleb128 .LVU242
 4106 0350 00       		.uleb128 .LVU245
 4107 0351 00       		.uleb128 0
 4108              	.LLST24:
 4109 0352 14000000 		.4byte	.LVL40
 4110 0356 1C000000 		.4byte	.LVL41
 4111 035a 0600     		.2byte	0x6
 4112 035c 73       		.byte	0x73
 4113 035d 00       		.sleb128 0
 4114 035e 70       		.byte	0x70
 4115 035f 00       		.sleb128 0
 4116 0360 1A       		.byte	0x1a
 4117 0361 9F       		.byte	0x9f
 4118 0362 1C000000 		.4byte	.LVL41
 4119 0366 24000000 		.4byte	.LVL42
 4120 036a 0100     		.2byte	0x1
 4121 036c 52       		.byte	0x52
 4122 036d 24000000 		.4byte	.LVL42
 4123 0371 34000000 		.4byte	.LVL43
 4124 0375 0100     		.2byte	0x1
 4125 0377 50       		.byte	0x50
 4126 0378 34000000 		.4byte	.LVL43
 4127 037c 40000000 		.4byte	.LVL44
 4128 0380 0600     		.2byte	0x6
 4129 0382 73       		.byte	0x73
 4130 0383 00       		.sleb128 0
 4131 0384 70       		.byte	0x70
 4132 0385 00       		.sleb128 0
 4133 0386 1A       		.byte	0x1a
 4134 0387 9F       		.byte	0x9f
 4135 0388 40000000 		.4byte	.LVL44
 4136 038c 43000000 		.4byte	.LVL45-1
 4137 0390 0600     		.2byte	0x6
 4138 0392 73       		.byte	0x73
 4139 0393 00       		.sleb128 0
 4140 0394 74       		.byte	0x74
 4141 0395 00       		.sleb128 0
 4142 0396 1A       		.byte	0x1a
 4143 0397 9F       		.byte	0x9f
 4144 0398 4C000000 		.4byte	.LVL46
 4145 039c 54000000 		.4byte	.LFE18
 4146 03a0 0100     		.2byte	0x1
 4147 03a2 52       		.byte	0x52
 4148 03a3 00000000 		.4byte	0
 4149 03a7 00000000 		.4byte	0
 4150              	.LVUS19:
 4151 03ab 00       		.uleb128 0
 4152 03ac 00       		.uleb128 .LVU191
 4153 03ad 00       		.uleb128 .LVU191
 4154 03ae 00       		.uleb128 0
 4155              	.LLST19:
 4156 03af 00000000 		.4byte	.LVL32
 4157 03b3 18000000 		.4byte	.LVL33
 4158 03b7 0100     		.2byte	0x1
 4159 03b9 50       		.byte	0x50
 4160 03ba 18000000 		.4byte	.LVL33
 4161 03be 54000000 		.4byte	.LFE17
ARM GAS  /tmp/cc9XfRU8.s 			page 74


 4162 03c2 0100     		.2byte	0x1
 4163 03c4 57       		.byte	0x57
 4164 03c5 00000000 		.4byte	0
 4165 03c9 00000000 		.4byte	0
 4166              	.LVUS20:
 4167 03cd 00       		.uleb128 0
 4168 03ce 00       		.uleb128 .LVU191
 4169 03cf 00       		.uleb128 .LVU191
 4170 03d0 00       		.uleb128 0
 4171              	.LLST20:
 4172 03d1 00000000 		.4byte	.LVL32
 4173 03d5 18000000 		.4byte	.LVL33
 4174 03d9 0100     		.2byte	0x1
 4175 03db 51       		.byte	0x51
 4176 03dc 18000000 		.4byte	.LVL33
 4177 03e0 54000000 		.4byte	.LFE17
 4178 03e4 0100     		.2byte	0x1
 4179 03e6 55       		.byte	0x55
 4180 03e7 00000000 		.4byte	0
 4181 03eb 00000000 		.4byte	0
 4182              	.LVUS21:
 4183 03ef 05       		.uleb128 .LVU185
 4184 03f0 00       		.uleb128 .LVU191
 4185 03f1 00       		.uleb128 .LVU191
 4186 03f2 00       		.uleb128 0
 4187              	.LLST21:
 4188 03f3 00000000 		.4byte	.LVL32
 4189 03f7 18000000 		.4byte	.LVL33
 4190 03fb 0200     		.2byte	0x2
 4191 03fd 30       		.byte	0x30
 4192 03fe 9F       		.byte	0x9f
 4193 03ff 18000000 		.4byte	.LVL33
 4194 0403 54000000 		.4byte	.LFE17
 4195 0407 0100     		.2byte	0x1
 4196 0409 54       		.byte	0x54
 4197 040a 00000000 		.4byte	0
 4198 040e 00000000 		.4byte	0
 4199              	.LVUS17:
 4200 0412 00       		.uleb128 0
 4201 0413 00       		.uleb128 .LVU176
 4202 0414 00       		.uleb128 .LVU176
 4203 0415 00       		.uleb128 0
 4204              	.LLST17:
 4205 0416 00000000 		.4byte	.LVL30
 4206 041a 0C000000 		.4byte	.LVL31
 4207 041e 0100     		.2byte	0x1
 4208 0420 50       		.byte	0x50
 4209 0421 0C000000 		.4byte	.LVL31
 4210 0425 14000000 		.4byte	.LFE16
 4211 0429 0100     		.2byte	0x1
 4212 042b 53       		.byte	0x53
 4213 042c 00000000 		.4byte	0
 4214 0430 00000000 		.4byte	0
 4215              	.LVUS18:
 4216 0434 00       		.uleb128 .LVU176
 4217 0435 00       		.uleb128 0
 4218              	.LLST18:
ARM GAS  /tmp/cc9XfRU8.s 			page 75


 4219 0436 0C000000 		.4byte	.LVL31
 4220 043a 14000000 		.4byte	.LFE16
 4221 043e 0100     		.2byte	0x1
 4222 0440 50       		.byte	0x50
 4223 0441 00000000 		.4byte	0
 4224 0445 00000000 		.4byte	0
 4225              	.LVUS15:
 4226 0449 00       		.uleb128 0
 4227 044a 00       		.uleb128 .LVU165
 4228 044b 00       		.uleb128 .LVU165
 4229 044c 00       		.uleb128 0
 4230              	.LLST15:
 4231 044d 00000000 		.4byte	.LVL27
 4232 0451 0B000000 		.4byte	.LVL28-1
 4233 0455 0100     		.2byte	0x1
 4234 0457 50       		.byte	0x50
 4235 0458 0B000000 		.4byte	.LVL28-1
 4236 045c 18000000 		.4byte	.LFE15
 4237 0460 0400     		.2byte	0x4
 4238 0462 F3       		.byte	0xf3
 4239 0463 01       		.uleb128 0x1
 4240 0464 50       		.byte	0x50
 4241 0465 9F       		.byte	0x9f
 4242 0466 00000000 		.4byte	0
 4243 046a 00000000 		.4byte	0
 4244              	.LVUS16:
 4245 046e 00       		.uleb128 0
 4246 046f 00       		.uleb128 .LVU165
 4247 0470 00       		.uleb128 .LVU165
 4248 0471 00       		.uleb128 0
 4249              	.LLST16:
 4250 0472 00000000 		.4byte	.LVL27
 4251 0476 0B000000 		.4byte	.LVL28-1
 4252 047a 0100     		.2byte	0x1
 4253 047c 51       		.byte	0x51
 4254 047d 0B000000 		.4byte	.LVL28-1
 4255 0481 18000000 		.4byte	.LFE15
 4256 0485 0400     		.2byte	0x4
 4257 0487 F3       		.byte	0xf3
 4258 0488 01       		.uleb128 0x1
 4259 0489 51       		.byte	0x51
 4260 048a 9F       		.byte	0x9f
 4261 048b 00000000 		.4byte	0
 4262 048f 00000000 		.4byte	0
 4263              	.LVUS13:
 4264 0493 00       		.uleb128 0
 4265 0494 00       		.uleb128 .LVU153
 4266 0495 00       		.uleb128 .LVU153
 4267 0496 00       		.uleb128 0
 4268              	.LLST13:
 4269 0497 00000000 		.4byte	.LVL24
 4270 049b 0B000000 		.4byte	.LVL25-1
 4271 049f 0100     		.2byte	0x1
 4272 04a1 50       		.byte	0x50
 4273 04a2 0B000000 		.4byte	.LVL25-1
 4274 04a6 18000000 		.4byte	.LFE13
 4275 04aa 0400     		.2byte	0x4
ARM GAS  /tmp/cc9XfRU8.s 			page 76


 4276 04ac F3       		.byte	0xf3
 4277 04ad 01       		.uleb128 0x1
 4278 04ae 50       		.byte	0x50
 4279 04af 9F       		.byte	0x9f
 4280 04b0 00000000 		.4byte	0
 4281 04b4 00000000 		.4byte	0
 4282              	.LVUS14:
 4283 04b8 00       		.uleb128 0
 4284 04b9 00       		.uleb128 .LVU153
 4285 04ba 00       		.uleb128 .LVU153
 4286 04bb 00       		.uleb128 0
 4287              	.LLST14:
 4288 04bc 00000000 		.4byte	.LVL24
 4289 04c0 0B000000 		.4byte	.LVL25-1
 4290 04c4 0100     		.2byte	0x1
 4291 04c6 51       		.byte	0x51
 4292 04c7 0B000000 		.4byte	.LVL25-1
 4293 04cb 18000000 		.4byte	.LFE13
 4294 04cf 0400     		.2byte	0x4
 4295 04d1 F3       		.byte	0xf3
 4296 04d2 01       		.uleb128 0x1
 4297 04d3 51       		.byte	0x51
 4298 04d4 9F       		.byte	0x9f
 4299 04d5 00000000 		.4byte	0
 4300 04d9 00000000 		.4byte	0
 4301              	.LVUS4:
 4302 04dd 00       		.uleb128 0
 4303 04de 00       		.uleb128 .LVU91
 4304 04df 00       		.uleb128 .LVU91
 4305 04e0 00       		.uleb128 0
 4306              	.LLST4:
 4307 04e1 00000000 		.4byte	.LVL11
 4308 04e5 10000000 		.4byte	.LVL12
 4309 04e9 0100     		.2byte	0x1
 4310 04eb 50       		.byte	0x50
 4311 04ec 10000000 		.4byte	.LVL12
 4312 04f0 1C000000 		.4byte	.LFE12
 4313 04f4 0100     		.2byte	0x1
 4314 04f6 53       		.byte	0x53
 4315 04f7 00000000 		.4byte	0
 4316 04fb 00000000 		.4byte	0
 4317              	.LVUS5:
 4318 04ff 00       		.uleb128 .LVU91
 4319 0500 00       		.uleb128 0
 4320              	.LLST5:
 4321 0501 10000000 		.4byte	.LVL12
 4322 0505 1C000000 		.4byte	.LFE12
 4323 0509 0100     		.2byte	0x1
 4324 050b 50       		.byte	0x50
 4325 050c 00000000 		.4byte	0
 4326 0510 00000000 		.4byte	0
 4327              	.LVUS10:
 4328 0514 00       		.uleb128 0
 4329 0515 00       		.uleb128 .LVU134
 4330 0516 00       		.uleb128 .LVU134
 4331 0517 00       		.uleb128 0
 4332              	.LLST10:
ARM GAS  /tmp/cc9XfRU8.s 			page 77


 4333 0518 00000000 		.4byte	.LVL19
 4334 051c 18000000 		.4byte	.LVL21
 4335 0520 0100     		.2byte	0x1
 4336 0522 50       		.byte	0x50
 4337 0523 18000000 		.4byte	.LVL21
 4338 0527 40000000 		.4byte	.LFE11
 4339 052b 0100     		.2byte	0x1
 4340 052d 55       		.byte	0x55
 4341 052e 00000000 		.4byte	0
 4342 0532 00000000 		.4byte	0
 4343              	.LVUS11:
 4344 0536 00       		.uleb128 0
 4345 0537 00       		.uleb128 .LVU134
 4346 0538 00       		.uleb128 .LVU134
 4347 0539 00       		.uleb128 0
 4348              	.LLST11:
 4349 053a 00000000 		.4byte	.LVL19
 4350 053e 18000000 		.4byte	.LVL21
 4351 0542 0100     		.2byte	0x1
 4352 0544 51       		.byte	0x51
 4353 0545 18000000 		.4byte	.LVL21
 4354 0549 40000000 		.4byte	.LFE11
 4355 054d 0100     		.2byte	0x1
 4356 054f 56       		.byte	0x56
 4357 0550 00000000 		.4byte	0
 4358 0554 00000000 		.4byte	0
 4359              	.LVUS12:
 4360 0558 00       		.uleb128 .LVU132
 4361 0559 00       		.uleb128 0
 4362              	.LLST12:
 4363 055a 08000000 		.4byte	.LVL20
 4364 055e 40000000 		.4byte	.LFE11
 4365 0562 0100     		.2byte	0x1
 4366 0564 54       		.byte	0x54
 4367 0565 00000000 		.4byte	0
 4368 0569 00000000 		.4byte	0
 4369              	.LVUS3:
 4370 056d 00       		.uleb128 0
 4371 056e 00       		.uleb128 .LVU75
 4372 056f 00       		.uleb128 .LVU75
 4373 0570 00       		.uleb128 .LVU76
 4374 0571 00       		.uleb128 .LVU76
 4375 0572 00       		.uleb128 0
 4376              	.LLST3:
 4377 0573 00000000 		.4byte	.LVL8
 4378 0577 14000000 		.4byte	.LVL9
 4379 057b 0100     		.2byte	0x1
 4380 057d 50       		.byte	0x50
 4381 057e 14000000 		.4byte	.LVL9
 4382 0582 18000000 		.4byte	.LVL10
 4383 0586 0400     		.2byte	0x4
 4384 0588 F3       		.byte	0xf3
 4385 0589 01       		.uleb128 0x1
 4386 058a 50       		.byte	0x50
 4387 058b 9F       		.byte	0x9f
 4388 058c 18000000 		.4byte	.LVL10
 4389 0590 24000000 		.4byte	.LFE10
ARM GAS  /tmp/cc9XfRU8.s 			page 78


 4390 0594 0100     		.2byte	0x1
 4391 0596 50       		.byte	0x50
 4392 0597 00000000 		.4byte	0
 4393 059b 00000000 		.4byte	0
 4394              	.LVUS1:
 4395 059f 00       		.uleb128 0
 4396 05a0 00       		.uleb128 .LVU67
 4397 05a1 00       		.uleb128 .LVU67
 4398 05a2 00       		.uleb128 0
 4399              	.LLST1:
 4400 05a3 00000000 		.4byte	.LVL5
 4401 05a7 20000000 		.4byte	.LVL7
 4402 05ab 0100     		.2byte	0x1
 4403 05ad 50       		.byte	0x50
 4404 05ae 20000000 		.4byte	.LVL7
 4405 05b2 28000000 		.4byte	.LFE9
 4406 05b6 0400     		.2byte	0x4
 4407 05b8 F3       		.byte	0xf3
 4408 05b9 01       		.uleb128 0x1
 4409 05ba 50       		.byte	0x50
 4410 05bb 9F       		.byte	0x9f
 4411 05bc 00000000 		.4byte	0
 4412 05c0 00000000 		.4byte	0
 4413              	.LVUS2:
 4414 05c4 00       		.uleb128 .LVU60
 4415 05c5 00       		.uleb128 .LVU67
 4416 05c6 00       		.uleb128 .LVU67
 4417 05c7 00       		.uleb128 0
 4418              	.LLST2:
 4419 05c8 10000000 		.4byte	.LVL6
 4420 05cc 20000000 		.4byte	.LVL7
 4421 05d0 0600     		.2byte	0x6
 4422 05d2 73       		.byte	0x73
 4423 05d3 00       		.sleb128 0
 4424 05d4 70       		.byte	0x70
 4425 05d5 00       		.sleb128 0
 4426 05d6 1A       		.byte	0x1a
 4427 05d7 9F       		.byte	0x9f
 4428 05d8 20000000 		.4byte	.LVL7
 4429 05dc 28000000 		.4byte	.LFE9
 4430 05e0 0100     		.2byte	0x1
 4431 05e2 50       		.byte	0x50
 4432 05e3 00000000 		.4byte	0
 4433 05e7 00000000 		.4byte	0
 4434              	.LVUS0:
 4435 05eb 05       		.uleb128 .LVU29
 4436 05ec 00       		.uleb128 .LVU35
 4437 05ed 00       		.uleb128 .LVU35
 4438 05ee 00       		.uleb128 .LVU36
 4439 05ef 01       		.uleb128 .LVU37
 4440 05f0 00       		.uleb128 .LVU39
 4441 05f1 00       		.uleb128 .LVU39
 4442 05f2 00       		.uleb128 0
 4443              	.LLST0:
 4444 05f3 00000000 		.4byte	.LVL1
 4445 05f7 0C000000 		.4byte	.LVL2
 4446 05fb 0100     		.2byte	0x1
ARM GAS  /tmp/cc9XfRU8.s 			page 79


 4447 05fd 50       		.byte	0x50
 4448 05fe 0C000000 		.4byte	.LVL2
 4449 0602 14000000 		.4byte	.LVL3
 4450 0606 0100     		.2byte	0x1
 4451 0608 52       		.byte	0x52
 4452 0609 14000000 		.4byte	.LVL3
 4453 060d 1C000000 		.4byte	.LVL4
 4454 0611 0100     		.2byte	0x1
 4455 0613 53       		.byte	0x53
 4456 0614 1C000000 		.4byte	.LVL4
 4457 0618 3C000000 		.4byte	.LFE8
 4458 061c 0100     		.2byte	0x1
 4459 061e 52       		.byte	0x52
 4460 061f 00000000 		.4byte	0
 4461 0623 00000000 		.4byte	0
 4462              	.LVUS6:
 4463 0627 00       		.uleb128 0
 4464 0628 00       		.uleb128 .LVU118
 4465 0629 00       		.uleb128 .LVU118
 4466 062a 00       		.uleb128 .LVU121
 4467 062b 00       		.uleb128 .LVU121
 4468 062c 00       		.uleb128 0
 4469              	.LLST6:
 4470 062d 00000000 		.4byte	.LVL13
 4471 0631 33000000 		.4byte	.LVL16-1
 4472 0635 0100     		.2byte	0x1
 4473 0637 50       		.byte	0x50
 4474 0638 33000000 		.4byte	.LVL16-1
 4475 063c 40000000 		.4byte	.LVL18
 4476 0640 0400     		.2byte	0x4
 4477 0642 F3       		.byte	0xf3
 4478 0643 01       		.uleb128 0x1
 4479 0644 50       		.byte	0x50
 4480 0645 9F       		.byte	0x9f
 4481 0646 40000000 		.4byte	.LVL18
 4482 064a 50000000 		.4byte	.LFE14
 4483 064e 0100     		.2byte	0x1
 4484 0650 50       		.byte	0x50
 4485 0651 00000000 		.4byte	0
 4486 0655 00000000 		.4byte	0
 4487              	.LVUS7:
 4488 0659 00       		.uleb128 0
 4489 065a 00       		.uleb128 .LVU107
 4490 065b 00       		.uleb128 .LVU107
 4491 065c 00       		.uleb128 0
 4492              	.LLST7:
 4493 065d 00000000 		.4byte	.LVL13
 4494 0661 0C000000 		.4byte	.LVL14
 4495 0665 0100     		.2byte	0x1
 4496 0667 51       		.byte	0x51
 4497 0668 0C000000 		.4byte	.LVL14
 4498 066c 50000000 		.4byte	.LFE14
 4499 0670 0400     		.2byte	0x4
 4500 0672 F3       		.byte	0xf3
 4501 0673 01       		.uleb128 0x1
 4502 0674 51       		.byte	0x51
 4503 0675 9F       		.byte	0x9f
ARM GAS  /tmp/cc9XfRU8.s 			page 80


 4504 0676 00000000 		.4byte	0
 4505 067a 00000000 		.4byte	0
 4506              	.LVUS8:
 4507 067e 01       		.uleb128 .LVU115
 4508 067f 00       		.uleb128 .LVU119
 4509              	.LLST8:
 4510 0680 2C000000 		.4byte	.LVL15
 4511 0684 3C000000 		.4byte	.LVL17
 4512 0688 0400     		.2byte	0x4
 4513 068a F3       		.byte	0xf3
 4514 068b 01       		.uleb128 0x1
 4515 068c 51       		.byte	0x51
 4516 068d 9F       		.byte	0x9f
 4517 068e 00000000 		.4byte	0
 4518 0692 00000000 		.4byte	0
 4519              	.LVUS9:
 4520 0696 00       		.uleb128 .LVU114
 4521 0697 00       		.uleb128 .LVU118
 4522 0698 00       		.uleb128 .LVU118
 4523 0699 00       		.uleb128 .LVU119
 4524              	.LLST9:
 4525 069a 2C000000 		.4byte	.LVL15
 4526 069e 33000000 		.4byte	.LVL16-1
 4527 06a2 0100     		.2byte	0x1
 4528 06a4 50       		.byte	0x50
 4529 06a5 33000000 		.4byte	.LVL16-1
 4530 06a9 3C000000 		.4byte	.LVL17
 4531 06ad 0400     		.2byte	0x4
 4532 06af F3       		.byte	0xf3
 4533 06b0 01       		.uleb128 0x1
 4534 06b1 50       		.byte	0x50
 4535 06b2 9F       		.byte	0x9f
 4536 06b3 00000000 		.4byte	0
 4537 06b7 00000000 		.4byte	0
 4538              		.section	.debug_aranges,"",%progbits
 4539 0000 9C000000 		.4byte	0x9c
 4540 0004 0200     		.2byte	0x2
 4541 0006 00000000 		.4byte	.Ldebug_info0
 4542 000a 04       		.byte	0x4
 4543 000b 00       		.byte	0
 4544 000c 0000     		.2byte	0
 4545 000e 0000     		.2byte	0
 4546 0010 00000000 		.4byte	.LFB7
 4547 0014 34000000 		.4byte	.LFE7-.LFB7
 4548 0018 00000000 		.4byte	.LFB8
 4549 001c 3C000000 		.4byte	.LFE8-.LFB8
 4550 0020 00000000 		.4byte	.LFB9
 4551 0024 28000000 		.4byte	.LFE9-.LFB9
 4552 0028 00000000 		.4byte	.LFB10
 4553 002c 24000000 		.4byte	.LFE10-.LFB10
 4554 0030 00000000 		.4byte	.LFB12
 4555 0034 1C000000 		.4byte	.LFE12-.LFB12
 4556 0038 00000000 		.4byte	.LFB14
 4557 003c 50000000 		.4byte	.LFE14-.LFB14
 4558 0040 00000000 		.4byte	.LFB11
 4559 0044 40000000 		.4byte	.LFE11-.LFB11
 4560 0048 00000000 		.4byte	.LFB13
ARM GAS  /tmp/cc9XfRU8.s 			page 81


 4561 004c 18000000 		.4byte	.LFE13-.LFB13
 4562 0050 00000000 		.4byte	.LFB15
 4563 0054 18000000 		.4byte	.LFE15-.LFB15
 4564 0058 00000000 		.4byte	.LFB16
 4565 005c 14000000 		.4byte	.LFE16-.LFB16
 4566 0060 00000000 		.4byte	.LFB17
 4567 0064 54000000 		.4byte	.LFE17-.LFB17
 4568 0068 00000000 		.4byte	.LFB18
 4569 006c 54000000 		.4byte	.LFE18-.LFB18
 4570 0070 00000000 		.4byte	.LFB19
 4571 0074 4C000000 		.4byte	.LFE19-.LFB19
 4572 0078 00000000 		.4byte	.LFB20
 4573 007c 48000000 		.4byte	.LFE20-.LFB20
 4574 0080 00000000 		.4byte	.LFB21
 4575 0084 68000000 		.4byte	.LFE21-.LFB21
 4576 0088 00000000 		.4byte	.LFB22
 4577 008c 60000000 		.4byte	.LFE22-.LFB22
 4578 0090 00000000 		.4byte	.LFB23
 4579 0094 70000000 		.4byte	.LFE23-.LFB23
 4580 0098 00000000 		.4byte	0
 4581 009c 00000000 		.4byte	0
 4582              		.section	.debug_ranges,"",%progbits
 4583              	.Ldebug_ranges0:
 4584 0000 2C000000 		.4byte	.LBB4
 4585 0004 2C000000 		.4byte	.LBE4
 4586 0008 30000000 		.4byte	.LBB7
 4587 000c 3C000000 		.4byte	.LBE7
 4588 0010 00000000 		.4byte	0
 4589 0014 00000000 		.4byte	0
 4590 0018 00000000 		.4byte	.LFB7
 4591 001c 34000000 		.4byte	.LFE7
 4592 0020 00000000 		.4byte	.LFB8
 4593 0024 3C000000 		.4byte	.LFE8
 4594 0028 00000000 		.4byte	.LFB9
 4595 002c 28000000 		.4byte	.LFE9
 4596 0030 00000000 		.4byte	.LFB10
 4597 0034 24000000 		.4byte	.LFE10
 4598 0038 00000000 		.4byte	.LFB12
 4599 003c 1C000000 		.4byte	.LFE12
 4600 0040 00000000 		.4byte	.LFB14
 4601 0044 50000000 		.4byte	.LFE14
 4602 0048 00000000 		.4byte	.LFB11
 4603 004c 40000000 		.4byte	.LFE11
 4604 0050 00000000 		.4byte	.LFB13
 4605 0054 18000000 		.4byte	.LFE13
 4606 0058 00000000 		.4byte	.LFB15
 4607 005c 18000000 		.4byte	.LFE15
 4608 0060 00000000 		.4byte	.LFB16
 4609 0064 14000000 		.4byte	.LFE16
 4610 0068 00000000 		.4byte	.LFB17
 4611 006c 54000000 		.4byte	.LFE17
 4612 0070 00000000 		.4byte	.LFB18
 4613 0074 54000000 		.4byte	.LFE18
 4614 0078 00000000 		.4byte	.LFB19
 4615 007c 4C000000 		.4byte	.LFE19
 4616 0080 00000000 		.4byte	.LFB20
 4617 0084 48000000 		.4byte	.LFE20
ARM GAS  /tmp/cc9XfRU8.s 			page 82


 4618 0088 00000000 		.4byte	.LFB21
 4619 008c 68000000 		.4byte	.LFE21
 4620 0090 00000000 		.4byte	.LFB22
 4621 0094 60000000 		.4byte	.LFE22
 4622 0098 00000000 		.4byte	.LFB23
 4623 009c 70000000 		.4byte	.LFE23
 4624 00a0 00000000 		.4byte	0
 4625 00a4 00000000 		.4byte	0
 4626              		.section	.debug_line,"",%progbits
 4627              	.Ldebug_line0:
 4628 0000 F9060000 		.section	.debug_str,"MS",%progbits,1
 4628      03000C01 
 4628      00000201 
 4628      FB0E0D00 
 4628      01010101 
 4629              	.LASF93:
 4630 0000 63665F6F 		.ascii	"cf_off_older\000"
 4630      66665F6F 
 4630      6C646572 
 4630      00
 4631              	.LASF38:
 4632 000d 705F6D73 		.ascii	"p_msg\000"
 4632      6700
 4633              	.LASF128:
 4634 0013 474E5520 		.ascii	"GNU C17 9.2.1 20191025 (release) [ARM/arm-9-branch "
 4634      43313720 
 4634      392E322E 
 4634      31203230 
 4634      31393130 
 4635 0046 72657669 		.ascii	"revision 277599] -mcpu=arm1176jz-s -mno-thumb-inter"
 4635      73696F6E 
 4635      20323737 
 4635      3539395D 
 4635      202D6D63 
 4636 0079 776F726B 		.ascii	"work -mfloat-abi=soft -marm -march=armv6kz -ggdb -O"
 4636      202D6D66 
 4636      6C6F6174 
 4636      2D616269 
 4636      3D736F66 
 4637 00ac 32202D66 		.ascii	"2 -fomit-frame-pointer -ffunction-sections -fdata-s"
 4637      6F6D6974 
 4637      2D667261 
 4637      6D652D70 
 4637      6F696E74 
 4638 00df 65637469 		.ascii	"ections\000"
 4638      6F6E7300 
 4639              	.LASF78:
 4640 00e7 7264796D 		.ascii	"rdymsg\000"
 4640      736700
 4641              	.LASF64:
 4642 00ee 76746C69 		.ascii	"vtlist\000"
 4642      737400
 4643              	.LASF117:
 4644 00f5 63684576 		.ascii	"chEvtSignal\000"
 4644      74536967 
 4644      6E616C00 
 4645              	.LASF12:
ARM GAS  /tmp/cc9XfRU8.s 			page 83


 4646 0101 6C6F6E67 		.ascii	"long long unsigned int\000"
 4646      206C6F6E 
 4646      6720756E 
 4646      7369676E 
 4646      65642069 
 4647              	.LASF120:
 4648 0118 63684576 		.ascii	"chEvtAddEvents\000"
 4648      74416464 
 4648      4576656E 
 4648      747300
 4649              	.LASF89:
 4650 0127 63685F74 		.ascii	"ch_threadsize\000"
 4650      68726561 
 4650      6473697A 
 4650      6500
 4651              	.LASF79:
 4652 0135 65786974 		.ascii	"exitcode\000"
 4652      636F6465 
 4652      00
 4653              	.LASF107:
 4654 013e 63684576 		.ascii	"chEvtWaitAnyTimeout\000"
 4654      74576169 
 4654      74416E79 
 4654      54696D65 
 4654      6F757400 
 4655              	.LASF26:
 4656 0152 705F7072 		.ascii	"p_prio\000"
 4656      696F00
 4657              	.LASF96:
 4658 0159 63665F6F 		.ascii	"cf_off_state\000"
 4658      66665F73 
 4658      74617465 
 4658      00
 4659              	.LASF4:
 4660 0166 6C6F6E67 		.ascii	"long long int\000"
 4660      206C6F6E 
 4660      6720696E 
 4660      7400
 4661              	.LASF1:
 4662 0174 7369676E 		.ascii	"signed char\000"
 4662      65642063 
 4662      68617200 
 4663              	.LASF95:
 4664 0180 63665F6F 		.ascii	"cf_off_stklimit\000"
 4664      66665F73 
 4664      746B6C69 
 4664      6D697400 
 4665              	.LASF106:
 4666 0190 63684576 		.ascii	"chEvtWaitAllTimeout\000"
 4666      74576169 
 4666      74416C6C 
 4666      54696D65 
 4666      6F757400 
 4667              	.LASF97:
 4668 01a4 63665F6F 		.ascii	"cf_off_flags\000"
 4668      66665F66 
 4668      6C616773 
ARM GAS  /tmp/cc9XfRU8.s 			page 84


 4668      00
 4669              	.LASF67:
 4670 01b1 6D5F7175 		.ascii	"m_queue\000"
 4670      65756500 
 4671              	.LASF16:
 4672 01b9 74736C69 		.ascii	"tslices_t\000"
 4672      6365735F 
 4672      7400
 4673              	.LASF3:
 4674 01c3 6C6F6E67 		.ascii	"long int\000"
 4674      20696E74 
 4674      00
 4675              	.LASF14:
 4676 01cc 74737461 		.ascii	"tstate_t\000"
 4676      74655F74 
 4676      00
 4677              	.LASF110:
 4678 01d5 63684576 		.ascii	"chEvtWaitAny\000"
 4678      74576169 
 4678      74416E79 
 4678      00
 4679              	.LASF124:
 4680 01e2 63685363 		.ascii	"chSchGoSleepTimeoutS\000"
 4680      68476F53 
 4680      6C656570 
 4680      54696D65 
 4680      6F757453 
 4681              	.LASF8:
 4682 01f7 75696E74 		.ascii	"uint16_t\000"
 4682      31365F74 
 4682      00
 4683              	.LASF101:
 4684 0200 63686465 		.ascii	"chdebug_t\000"
 4684      6275675F 
 4684      7400
 4685              	.LASF119:
 4686 020a 63684576 		.ascii	"chEvtBroadcastFlagsI\000"
 4686      7442726F 
 4686      61646361 
 4686      7374466C 
 4686      61677349 
 4687              	.LASF28:
 4688 021f 705F6E65 		.ascii	"p_newer\000"
 4688      77657200 
 4689              	.LASF103:
 4690 0227 5F69646C 		.ascii	"_idle_thread_wa\000"
 4690      655F7468 
 4690      72656164 
 4690      5F776100 
 4691              	.LASF126:
 4692 0237 63685363 		.ascii	"chSchRescheduleS\000"
 4692      68526573 
 4692      63686564 
 4692      756C6553 
 4692      00
 4693              	.LASF60:
 4694 0248 725F6E65 		.ascii	"r_newer\000"
ARM GAS  /tmp/cc9XfRU8.s 			page 85


 4694      77657200 
 4695              	.LASF104:
 4696 0250 6D61736B 		.ascii	"mask\000"
 4696      00
 4697              	.LASF45:
 4698 0255 72656761 		.ascii	"regarm_t\000"
 4698      726D5F74 
 4698      00
 4699              	.LASF51:
 4700 025e 76745F70 		.ascii	"vt_prev\000"
 4700      72657600 
 4701              	.LASF116:
 4702 0266 63684576 		.ascii	"chEvtBroadcastFlags\000"
 4702      7442726F 
 4702      61646361 
 4702      7374466C 
 4702      61677300 
 4703              	.LASF19:
 4704 027a 6576656E 		.ascii	"eventid_t\000"
 4704      7469645F 
 4704      7400
 4705              	.LASF75:
 4706 0284 4576656E 		.ascii	"EventSource\000"
 4706      74536F75 
 4706      72636500 
 4707              	.LASF77:
 4708 0290 65766861 		.ascii	"evhandler_t\000"
 4708      6E646C65 
 4708      725F7400 
 4709              	.LASF0:
 4710 029c 756E7369 		.ascii	"unsigned int\000"
 4710      676E6564 
 4710      20696E74 
 4710      00
 4711              	.LASF50:
 4712 02a9 76745F6E 		.ascii	"vt_next\000"
 4712      65787400 
 4713              	.LASF11:
 4714 02b1 6C6F6E67 		.ascii	"long unsigned int\000"
 4714      20756E73 
 4714      69676E65 
 4714      6420696E 
 4714      7400
 4715              	.LASF121:
 4716 02c3 63684576 		.ascii	"chEvtGetAndClearEvents\000"
 4716      74476574 
 4716      416E6443 
 4716      6C656172 
 4716      4576656E 
 4717              	.LASF102:
 4718 02da 63685F64 		.ascii	"ch_debug\000"
 4718      65627567 
 4718      00
 4719              	.LASF83:
 4720 02e3 63685F69 		.ascii	"ch_identifier\000"
 4720      64656E74 
 4720      69666965 
ARM GAS  /tmp/cc9XfRU8.s 			page 86


 4720      7200
 4721              	.LASF47:
 4722 02f1 636F6E74 		.ascii	"context\000"
 4722      65787400 
 4723              	.LASF9:
 4724 02f9 73686F72 		.ascii	"short unsigned int\000"
 4724      7420756E 
 4724      7369676E 
 4724      65642069 
 4724      6E7400
 4725              	.LASF123:
 4726 030c 63684576 		.ascii	"chEvtRegisterMask\000"
 4726      74526567 
 4726      69737465 
 4726      724D6173 
 4726      6B00
 4727              	.LASF18:
 4728 031e 6D73675F 		.ascii	"msg_t\000"
 4728      7400
 4729              	.LASF71:
 4730 0324 656C5F6E 		.ascii	"el_next\000"
 4730      65787400 
 4731              	.LASF122:
 4732 032c 63684576 		.ascii	"chEvtUnregister\000"
 4732      74556E72 
 4732      65676973 
 4732      74657200 
 4733              	.LASF13:
 4734 033c 746D6F64 		.ascii	"tmode_t\000"
 4734      655F7400 
 4735              	.LASF43:
 4736 0344 54687265 		.ascii	"ThreadsList\000"
 4736      6164734C 
 4736      69737400 
 4737              	.LASF20:
 4738 0350 6576656E 		.ascii	"eventmask_t\000"
 4738      746D6173 
 4738      6B5F7400 
 4739              	.LASF66:
 4740 035c 4D757465 		.ascii	"Mutex\000"
 4740      7800
 4741              	.LASF44:
 4742 0362 73746B61 		.ascii	"stkalign_t\000"
 4742      6C69676E 
 4742      5F7400
 4743              	.LASF84:
 4744 036d 63685F7A 		.ascii	"ch_zero\000"
 4744      65726F00 
 4745              	.LASF98:
 4746 0375 63665F6F 		.ascii	"cf_off_refs\000"
 4746      66665F72 
 4746      65667300 
 4747              	.LASF58:
 4748 0381 725F7072 		.ascii	"r_prio\000"
 4748      696F00
 4749              	.LASF52:
 4750 0388 76745F74 		.ascii	"vt_time\000"
ARM GAS  /tmp/cc9XfRU8.s 			page 87


 4750      696D6500 
 4751              	.LASF53:
 4752 0390 76745F66 		.ascii	"vt_func\000"
 4752      756E6300 
 4753              	.LASF115:
 4754 0398 63684576 		.ascii	"chEvtDispatch\000"
 4754      74446973 
 4754      70617463 
 4754      6800
 4755              	.LASF88:
 4756 03a6 63685F74 		.ascii	"ch_timesize\000"
 4756      696D6573 
 4756      697A6500 
 4757              	.LASF94:
 4758 03b2 63665F6F 		.ascii	"cf_off_name\000"
 4758      66665F6E 
 4758      616D6500 
 4759              	.LASF29:
 4760 03be 705F6F6C 		.ascii	"p_older\000"
 4760      64657200 
 4761              	.LASF59:
 4762 03c6 725F6374 		.ascii	"r_ctx\000"
 4762      7800
 4763              	.LASF42:
 4764 03cc 54687265 		.ascii	"ThreadsQueue\000"
 4764      61647351 
 4764      75657565 
 4764      00
 4765              	.LASF85:
 4766 03d9 63685F73 		.ascii	"ch_size\000"
 4766      697A6500 
 4767              	.LASF105:
 4768 03e1 74696D65 		.ascii	"time\000"
 4768      00
 4769              	.LASF109:
 4770 03e6 63684576 		.ascii	"chEvtWaitAll\000"
 4770      74576169 
 4770      74416C6C 
 4770      00
 4771              	.LASF62:
 4772 03f3 725F6375 		.ascii	"r_current\000"
 4772      7272656E 
 4772      7400
 4773              	.LASF61:
 4774 03fd 725F6F6C 		.ascii	"r_older\000"
 4774      64657200 
 4775              	.LASF73:
 4776 0405 656C5F6D 		.ascii	"el_mask\000"
 4776      61736B00 
 4777              	.LASF112:
 4778 040d 68616E64 		.ascii	"handlers\000"
 4778      6C657273 
 4778      00
 4779              	.LASF15:
 4780 0416 74726566 		.ascii	"trefs_t\000"
 4780      735F7400 
 4781              	.LASF87:
ARM GAS  /tmp/cc9XfRU8.s 			page 88


 4782 041e 63685F70 		.ascii	"ch_ptrsize\000"
 4782      74727369 
 4782      7A6500
 4783              	.LASF25:
 4784 0429 705F7072 		.ascii	"p_prev\000"
 4784      657600
 4785              	.LASF17:
 4786 0430 74707269 		.ascii	"tprio_t\000"
 4786      6F5F7400 
 4787              	.LASF5:
 4788 0438 696E7433 		.ascii	"int32_t\000"
 4788      325F7400 
 4789              	.LASF7:
 4790 0440 756E7369 		.ascii	"unsigned char\000"
 4790      676E6564 
 4790      20636861 
 4790      7200
 4791              	.LASF111:
 4792 044e 63684576 		.ascii	"chEvtWaitOne\000"
 4792      74576169 
 4792      744F6E65 
 4792      00
 4793              	.LASF72:
 4794 045b 656C5F6C 		.ascii	"el_listener\000"
 4794      69737465 
 4794      6E657200 
 4795              	.LASF74:
 4796 0467 656C5F66 		.ascii	"el_flags\000"
 4796      6C616773 
 4796      00
 4797              	.LASF40:
 4798 0470 705F6D74 		.ascii	"p_mtxlist\000"
 4798      786C6973 
 4798      7400
 4799              	.LASF2:
 4800 047a 73686F72 		.ascii	"short int\000"
 4800      7420696E 
 4800      7400
 4801              	.LASF31:
 4802 0484 705F7374 		.ascii	"p_state\000"
 4802      61746500 
 4803              	.LASF34:
 4804 048c 705F7072 		.ascii	"p_preempt\000"
 4804      65656D70 
 4804      7400
 4805              	.LASF100:
 4806 0496 63665F6F 		.ascii	"cf_off_time\000"
 4806      66665F74 
 4806      696D6500 
 4807              	.LASF129:
 4808 04a2 2E2E2F6F 		.ascii	"../os/kernel/src/chevents.c\000"
 4808      732F6B65 
 4808      726E656C 
 4808      2F737263 
 4808      2F636865 
 4809              	.LASF113:
 4810 04be 63684576 		.ascii	"chEvtGetAndClearFlagsI\000"
ARM GAS  /tmp/cc9XfRU8.s 			page 89


 4810      74476574 
 4810      416E6443 
 4810      6C656172 
 4810      466C6167 
 4811              	.LASF81:
 4812 04d5 65776D61 		.ascii	"ewmask\000"
 4812      736B00
 4813              	.LASF24:
 4814 04dc 705F6E65 		.ascii	"p_next\000"
 4814      787400
 4815              	.LASF99:
 4816 04e3 63665F6F 		.ascii	"cf_off_preempt\000"
 4816      66665F70 
 4816      7265656D 
 4816      707400
 4817              	.LASF32:
 4818 04f2 705F666C 		.ascii	"p_flags\000"
 4818      61677300 
 4819              	.LASF23:
 4820 04fa 54687265 		.ascii	"Thread\000"
 4820      616400
 4821              	.LASF92:
 4822 0501 63665F6F 		.ascii	"cf_off_newer\000"
 4822      66665F6E 
 4822      65776572 
 4822      00
 4823              	.LASF125:
 4824 050e 63685363 		.ascii	"chSchGoSleepS\000"
 4824      68476F53 
 4824      6C656570 
 4824      5300
 4825              	.LASF39:
 4826 051c 705F6570 		.ascii	"p_epending\000"
 4826      656E6469 
 4826      6E6700
 4827              	.LASF10:
 4828 0527 75696E74 		.ascii	"uint32_t\000"
 4828      33325F74 
 4828      00
 4829              	.LASF90:
 4830 0530 63665F6F 		.ascii	"cf_off_prio\000"
 4830      66665F70 
 4830      72696F00 
 4831              	.LASF57:
 4832 053c 725F7175 		.ascii	"r_queue\000"
 4832      65756500 
 4833              	.LASF49:
 4834 0544 56697274 		.ascii	"VirtualTimer\000"
 4834      75616C54 
 4834      696D6572 
 4834      00
 4835              	.LASF130:
 4836 0551 2F686F6D 		.ascii	"/home/taskman/arduino/embedded-wind-turbine/Data_Co"
 4836      652F7461 
 4836      736B6D61 
 4836      6E2F6172 
 4836      6475696E 
ARM GAS  /tmp/cc9XfRU8.s 			page 90


 4837 0584 6C6C6563 		.ascii	"llector/raspberry/compiler/ChibiOS-RPi/led\000"
 4837      746F722F 
 4837      72617370 
 4837      62657272 
 4837      792F636F 
 4838              	.LASF82:
 4839 05af 63686172 		.ascii	"char\000"
 4839      00
 4840              	.LASF127:
 4841 05b4 63685363 		.ascii	"chSchReadyI\000"
 4841      68526561 
 4841      64794900 
 4842              	.LASF69:
 4843 05c0 6D5F6E65 		.ascii	"m_next\000"
 4843      787400
 4844              	.LASF22:
 4845 05c7 73797374 		.ascii	"systime_t\000"
 4845      696D655F 
 4845      7400
 4846              	.LASF41:
 4847 05d1 705F7265 		.ascii	"p_realprio\000"
 4847      616C7072 
 4847      696F00
 4848              	.LASF48:
 4849 05dc 76746675 		.ascii	"vtfunc_t\000"
 4849      6E635F74 
 4849      00
 4850              	.LASF35:
 4851 05e5 705F7469 		.ascii	"p_time\000"
 4851      6D6500
 4852              	.LASF46:
 4853 05ec 696E7463 		.ascii	"intctx\000"
 4853      747800
 4854              	.LASF37:
 4855 05f3 705F6D73 		.ascii	"p_msgqueue\000"
 4855      67717565 
 4855      756500
 4856              	.LASF54:
 4857 05fe 76745F70 		.ascii	"vt_par\000"
 4857      617200
 4858              	.LASF21:
 4859 0605 666C6167 		.ascii	"flagsmask_t\000"
 4859      736D6173 
 4859      6B5F7400 
 4860              	.LASF91:
 4861 0611 63665F6F 		.ascii	"cf_off_ctx\000"
 4861      66665F63 
 4861      747800
 4862              	.LASF33:
 4863 061c 705F7265 		.ascii	"p_refs\000"
 4863      667300
 4864              	.LASF63:
 4865 0623 52656164 		.ascii	"ReadyList\000"
 4865      794C6973 
 4865      7400
 4866              	.LASF65:
 4867 062d 726C6973 		.ascii	"rlist\000"
ARM GAS  /tmp/cc9XfRU8.s 			page 91


 4867      7400
 4868              	.LASF6:
 4869 0633 75696E74 		.ascii	"uint8_t\000"
 4869      385F7400 
 4870              	.LASF114:
 4871 063b 666C6167 		.ascii	"flags\000"
 4871      7300
 4872              	.LASF70:
 4873 0641 4576656E 		.ascii	"EventListener\000"
 4873      744C6973 
 4873      74656E65 
 4873      7200
 4874              	.LASF108:
 4875 064f 63684576 		.ascii	"chEvtWaitOneTimeout\000"
 4875      74576169 
 4875      744F6E65 
 4875      54696D65 
 4875      6F757400 
 4876              	.LASF80:
 4877 0663 77746F62 		.ascii	"wtobjp\000"
 4877      6A7000
 4878              	.LASF30:
 4879 066a 705F6E61 		.ascii	"p_name\000"
 4879      6D6500
 4880              	.LASF55:
 4881 0671 76745F73 		.ascii	"vt_systime\000"
 4881      79737469 
 4881      6D6500
 4882              	.LASF76:
 4883 067c 65735F6E 		.ascii	"es_next\000"
 4883      65787400 
 4884              	.LASF118:
 4885 0684 63684576 		.ascii	"chEvtGetAndClearFlags\000"
 4885      74476574 
 4885      416E6443 
 4885      6C656172 
 4885      466C6167 
 4886              	.LASF86:
 4887 069a 63685F76 		.ascii	"ch_version\000"
 4887      65727369 
 4887      6F6E00
 4888              	.LASF56:
 4889 06a5 56544C69 		.ascii	"VTList\000"
 4889      737400
 4890              	.LASF68:
 4891 06ac 6D5F6F77 		.ascii	"m_owner\000"
 4891      6E657200 
 4892              	.LASF27:
 4893 06b4 705F6374 		.ascii	"p_ctx\000"
 4893      7800
 4894              	.LASF36:
 4895 06ba 705F7761 		.ascii	"p_waiting\000"
 4895      6974696E 
 4895      6700
 4896              	.LASF131:
 4897 06c4 63684576 		.ascii	"chEvtSignalI\000"
 4897      74536967 
ARM GAS  /tmp/cc9XfRU8.s 			page 92


 4897      6E616C49 
 4897      00
 4898              		.ident	"GCC: (15:9-2019-q4-0ubuntu1) 9.2.1 20191025 (release) [ARM/arm-9-branch revision 277599]"
ARM GAS  /tmp/cc9XfRU8.s 			page 93


DEFINED SYMBOLS
                            *ABS*:0000000000000000 chevents.c
     /tmp/cc9XfRU8.s:16     .text.chEvtRegisterMask:0000000000000000 $a
     /tmp/cc9XfRU8.s:23     .text.chEvtRegisterMask:0000000000000000 chEvtRegisterMask
     /tmp/cc9XfRU8.s:81     .text.chEvtRegisterMask:0000000000000030 $d
     /tmp/cc9XfRU8.s:86     .text.chEvtUnregister:0000000000000000 $a
     /tmp/cc9XfRU8.s:92     .text.chEvtUnregister:0000000000000000 chEvtUnregister
     /tmp/cc9XfRU8.s:167    .text.chEvtGetAndClearEvents:0000000000000000 $a
     /tmp/cc9XfRU8.s:173    .text.chEvtGetAndClearEvents:0000000000000000 chEvtGetAndClearEvents
     /tmp/cc9XfRU8.s:220    .text.chEvtGetAndClearEvents:0000000000000024 $d
     /tmp/cc9XfRU8.s:225    .text.chEvtAddEvents:0000000000000000 $a
     /tmp/cc9XfRU8.s:231    .text.chEvtAddEvents:0000000000000000 chEvtAddEvents
     /tmp/cc9XfRU8.s:274    .text.chEvtAddEvents:0000000000000020 $d
     /tmp/cc9XfRU8.s:279    .text.chEvtGetAndClearFlags:0000000000000000 $a
     /tmp/cc9XfRU8.s:285    .text.chEvtGetAndClearFlags:0000000000000000 chEvtGetAndClearFlags
     /tmp/cc9XfRU8.s:331    .text.chEvtSignalI:0000000000000000 $a
     /tmp/cc9XfRU8.s:337    .text.chEvtSignalI:0000000000000000 chEvtSignalI
     /tmp/cc9XfRU8.s:414    .text.chEvtBroadcastFlagsI:0000000000000000 $a
     /tmp/cc9XfRU8.s:420    .text.chEvtBroadcastFlagsI:0000000000000000 chEvtBroadcastFlagsI
     /tmp/cc9XfRU8.s:477    .text.chEvtSignal:0000000000000000 $a
     /tmp/cc9XfRU8.s:483    .text.chEvtSignal:0000000000000000 chEvtSignal
     /tmp/cc9XfRU8.s:528    .text.chEvtBroadcastFlags:0000000000000000 $a
     /tmp/cc9XfRU8.s:534    .text.chEvtBroadcastFlags:0000000000000000 chEvtBroadcastFlags
     /tmp/cc9XfRU8.s:577    .text.chEvtGetAndClearFlagsI:0000000000000000 $a
     /tmp/cc9XfRU8.s:583    .text.chEvtGetAndClearFlagsI:0000000000000000 chEvtGetAndClearFlagsI
     /tmp/cc9XfRU8.s:610    .text.chEvtDispatch:0000000000000000 $a
     /tmp/cc9XfRU8.s:616    .text.chEvtDispatch:0000000000000000 chEvtDispatch
     /tmp/cc9XfRU8.s:697    .text.chEvtWaitOne:0000000000000000 $a
     /tmp/cc9XfRU8.s:703    .text.chEvtWaitOne:0000000000000000 chEvtWaitOne
     /tmp/cc9XfRU8.s:788    .text.chEvtWaitOne:0000000000000050 $d
     /tmp/cc9XfRU8.s:793    .text.chEvtWaitAny:0000000000000000 $a
     /tmp/cc9XfRU8.s:799    .text.chEvtWaitAny:0000000000000000 chEvtWaitAny
     /tmp/cc9XfRU8.s:879    .text.chEvtWaitAny:0000000000000048 $d
     /tmp/cc9XfRU8.s:884    .text.chEvtWaitAll:0000000000000000 $a
     /tmp/cc9XfRU8.s:890    .text.chEvtWaitAll:0000000000000000 chEvtWaitAll
     /tmp/cc9XfRU8.s:958    .text.chEvtWaitAll:0000000000000044 $d
     /tmp/cc9XfRU8.s:963    .text.chEvtWaitOneTimeout:0000000000000000 $a
     /tmp/cc9XfRU8.s:969    .text.chEvtWaitOneTimeout:0000000000000000 chEvtWaitOneTimeout
     /tmp/cc9XfRU8.s:1062   .text.chEvtWaitOneTimeout:0000000000000064 $d
     /tmp/cc9XfRU8.s:1067   .text.chEvtWaitAnyTimeout:0000000000000000 $a
     /tmp/cc9XfRU8.s:1073   .text.chEvtWaitAnyTimeout:0000000000000000 chEvtWaitAnyTimeout
     /tmp/cc9XfRU8.s:1160   .text.chEvtWaitAnyTimeout:000000000000005c $d
     /tmp/cc9XfRU8.s:1165   .text.chEvtWaitAllTimeout:0000000000000000 $a
     /tmp/cc9XfRU8.s:1171   .text.chEvtWaitAllTimeout:0000000000000000 chEvtWaitAllTimeout
     /tmp/cc9XfRU8.s:1277   .text.chEvtWaitAllTimeout:000000000000006c $d

UNDEFINED SYMBOLS
rlist
chSchReadyI
chSchRescheduleS
chSchGoSleepS
chSchGoSleepTimeoutS
