ARM GAS  /tmp/cc9XfRU8.s 			page 1


   1              		.cpu arm1176jz-s
   2              		.eabi_attribute 20, 1
   3              		.eabi_attribute 21, 1
   4              		.eabi_attribute 23, 3
   5              		.eabi_attribute 24, 1
   6              		.eabi_attribute 25, 1
   7              		.eabi_attribute 26, 1
   8              		.eabi_attribute 30, 2
   9              		.eabi_attribute 34, 1
  10              		.eabi_attribute 18, 4
  11              		.file	"chevents.c"
  12              		.text
  13              	.Ltext0:
  14              		.cfi_sections	.debug_frame
  15              		.section	.text.chEvtRegisterMask,"ax",%progbits
  16              		.align	2
  17              		.global	chEvtRegisterMask
  18              		.arch armv6kz
  19              		.syntax unified
  20              		.arm
  21              		.fpu softvfp
  22              		.type	chEvtRegisterMask, %function
  23              	chEvtRegisterMask:
  24              	.LVL0:
  25              	.LFB7:
  26              		.file 1 "../os/kernel/src/chevents.c"
  27              		.loc 1 78 80 view -0
  28              		.cfi_startproc
  29              		@ args = 0, pretend = 0, frame = 0
  30              		@ frame_needed = 0, uses_anonymous_args = 0
  31              		.loc 1 80 3 view .LVU1
  32              		.loc 1 80 66 view .LVU2
  33              		.loc 1 82 3 view .LVU3
  34              		.loc 1 78 80 is_stmt 0 view .LVU4
  35 0000 04E02DE5 		str	lr, [sp, #-4]!
  36              		.cfi_def_cfa_offset 4
  37              		.cfi_offset 14, -4
  38              		.loc 1 82 3 view .LVU5
  39              		.syntax divided
  40              	@ 82 "../os/kernel/src/chevents.c" 1
  41 0004 9FF021E3 		msr     CPSR_c, #0x9F
  42              	@ 0 "" 2
  43              		.loc 1 82 3 is_stmt 1 view .LVU6
  44              		.loc 1 82 14 view .LVU7
  45              		.loc 1 83 3 view .LVU8
  46              		.loc 1 87 20 is_stmt 0 view .LVU9
  47              		.arm
  48              		.syntax unified
  49 0008 0030A0E3 		mov	r3, #0
  50              		.loc 1 85 22 view .LVU10
  51 000c 1CC09FE5 		ldr	ip, .L4
  52              		.loc 1 83 20 view .LVU11
  53 0010 00E090E5 		ldr	lr, [r0]
  54              		.loc 1 85 20 view .LVU12
  55 0014 18C09CE5 		ldr	ip, [ip, #24]
  56              		.loc 1 83 20 view .LVU13
  57 0018 00E081E5 		str	lr, [r1]
ARM GAS  /tmp/cc9XfRU8.s 			page 2


  58              		.loc 1 84 3 is_stmt 1 view .LVU14
  59              		.loc 1 84 20 is_stmt 0 view .LVU15
  60 001c 001080E5 		str	r1, [r0]
  61              		.loc 1 85 3 is_stmt 1 view .LVU16
  62              		.loc 1 87 20 is_stmt 0 view .LVU17
  63 0020 F820C1E1 		strd	r2, [r1, #8]
  64              		.loc 1 85 20 view .LVU18
  65 0024 04C081E5 		str	ip, [r1, #4]
  66              		.loc 1 86 3 is_stmt 1 view .LVU19
  67              		.loc 1 88 3 view .LVU20
  68              		.loc 1 88 3 view .LVU21
  69              		.syntax divided
  70              	@ 88 "../os/kernel/src/chevents.c" 1
  71 0028 1FF021E3 		msr     CPSR_c, #0x1F
  72              	@ 0 "" 2
  73              		.loc 1 88 16 view .LVU22
  74              		.loc 1 89 1 is_stmt 0 view .LVU23
  75              		.arm
  76              		.syntax unified
  77 002c 04F09DE4 		ldr	pc, [sp], #4
  78              	.L5:
  79              		.align	2
  80              	.L4:
  81 0030 00000000 		.word	rlist
  82              		.cfi_endproc
  83              	.LFE7:
  84              		.size	chEvtRegisterMask, .-chEvtRegisterMask
  85              		.section	.text.chEvtUnregister,"ax",%progbits
  86              		.align	2
  87              		.global	chEvtUnregister
  88              		.syntax unified
  89              		.arm
  90              		.fpu softvfp
  91              		.type	chEvtUnregister, %function
  92              	chEvtUnregister:
  93              	.LVL1:
  94              	.LFB8:
  95              		.loc 1 104 60 is_stmt 1 view -0
  96              		.cfi_startproc
  97              		@ args = 0, pretend = 0, frame = 0
  98              		@ frame_needed = 0, uses_anonymous_args = 0
  99              		@ link register save eliminated.
 100              		.loc 1 105 3 view .LVU25
 101              		.loc 1 107 3 view .LVU26
 102              		.loc 1 107 64 view .LVU27
 103              		.loc 1 109 3 view .LVU28
 104              		.loc 1 110 3 view .LVU29
 105              		.syntax divided
 106              	@ 110 "../os/kernel/src/chevents.c" 1
 107 0000 9FF021E3 		msr     CPSR_c, #0x9F
 108              	@ 0 "" 2
 109              		.loc 1 110 3 view .LVU30
 110              		.loc 1 110 14 view .LVU31
 111              		.loc 1 111 3 view .LVU32
 112              		.loc 1 109 5 is_stmt 0 view .LVU33
 113              		.arm
 114              		.syntax unified
ARM GAS  /tmp/cc9XfRU8.s 			page 3


 115 0004 0030A0E1 		mov	r3, r0
 116              		.loc 1 111 9 view .LVU34
 117 0008 010000EA 		b	.L7
 118              	.LVL2:
 119              	.L9:
 120              		.loc 1 112 8 view .LVU35
 121 000c 010053E1 		cmp	r3, r1
 122 0010 0500000A 		beq	.L11
 123              	.LVL3:
 124              	.L7:
 125              		.loc 1 112 5 is_stmt 1 view .LVU36
 126              		.loc 1 111 9 view .LVU37
 127 0014 0320A0E1 		mov	r2, r3
 128              		.loc 1 111 11 is_stmt 0 view .LVU38
 129 0018 003093E5 		ldr	r3, [r3]
 130              	.LVL4:
 131              		.loc 1 111 9 view .LVU39
 132 001c 000053E1 		cmp	r3, r0
 133 0020 F9FFFF1A 		bne	.L9
 134              		.loc 1 118 3 is_stmt 1 view .LVU40
 135              		.loc 1 118 3 view .LVU41
 136              		.syntax divided
 137              	@ 118 "../os/kernel/src/chevents.c" 1
 138 0024 1FF021E3 		msr     CPSR_c, #0x1F
 139              	@ 0 "" 2
 140              		.loc 1 118 16 view .LVU42
 141              		.loc 1 119 1 is_stmt 0 view .LVU43
 142              		.arm
 143              		.syntax unified
 144 0028 1EFF2FE1 		bx	lr
 145              	.L11:
 146              		.loc 1 113 7 is_stmt 1 view .LVU44
 147              		.loc 1 113 23 is_stmt 0 view .LVU45
 148 002c 003093E5 		ldr	r3, [r3]
 149              		.loc 1 113 18 view .LVU46
 150 0030 003082E5 		str	r3, [r2]
 151              		.loc 1 114 7 is_stmt 1 view .LVU47
 152              		.loc 1 118 3 view .LVU48
 153              		.loc 1 118 3 view .LVU49
 154              		.syntax divided
 155              	@ 118 "../os/kernel/src/chevents.c" 1
 156 0034 1FF021E3 		msr     CPSR_c, #0x1F
 157              	@ 0 "" 2
 158              		.loc 1 118 16 view .LVU50
 159              		.loc 1 119 1 is_stmt 0 view .LVU51
 160              		.arm
 161              		.syntax unified
 162 0038 1EFF2FE1 		bx	lr
 163              		.cfi_endproc
 164              	.LFE8:
 165              		.size	chEvtUnregister, .-chEvtUnregister
 166              		.section	.text.chEvtGetAndClearEvents,"ax",%progbits
 167              		.align	2
 168              		.global	chEvtGetAndClearEvents
 169              		.syntax unified
 170              		.arm
 171              		.fpu softvfp
ARM GAS  /tmp/cc9XfRU8.s 			page 4


 172              		.type	chEvtGetAndClearEvents, %function
 173              	chEvtGetAndClearEvents:
 174              	.LVL5:
 175              	.LFB9:
 176              		.loc 1 129 54 is_stmt 1 view -0
 177              		.cfi_startproc
 178              		@ args = 0, pretend = 0, frame = 0
 179              		@ frame_needed = 0, uses_anonymous_args = 0
 180              		@ link register save eliminated.
 181              		.loc 1 130 3 view .LVU53
 182              		.loc 1 132 3 view .LVU54
 183              		.syntax divided
 184              	@ 132 "../os/kernel/src/chevents.c" 1
 185 0000 9FF021E3 		msr     CPSR_c, #0x9F
 186              	@ 0 "" 2
 187              		.loc 1 132 3 view .LVU55
 188              		.loc 1 132 14 view .LVU56
 189              		.loc 1 134 3 view .LVU57
 190              		.loc 1 134 7 is_stmt 0 view .LVU58
 191              		.arm
 192              		.syntax unified
 193 0004 18309FE5 		ldr	r3, .L13
 194 0008 182093E5 		ldr	r2, [r3, #24]
 195              		.loc 1 134 12 view .LVU59
 196 000c 383092E5 		ldr	r3, [r2, #56]
 197              	.LVL6:
 198              		.loc 1 135 3 is_stmt 1 view .LVU60
 199              		.loc 1 135 21 is_stmt 0 view .LVU61
 200 0010 0010C3E1 		bic	r1, r3, r0
 201 0014 381082E5 		str	r1, [r2, #56]
 202              		.loc 1 137 3 is_stmt 1 view .LVU62
 203              		.loc 1 137 3 view .LVU63
 204              		.syntax divided
 205              	@ 137 "../os/kernel/src/chevents.c" 1
 206 0018 1FF021E3 		msr     CPSR_c, #0x1F
 207              	@ 0 "" 2
 208              		.loc 1 137 16 view .LVU64
 209              		.loc 1 138 3 view .LVU65
 210              		.loc 1 139 1 is_stmt 0 view .LVU66
 211              		.arm
 212              		.syntax unified
 213 001c 030000E0 		and	r0, r0, r3
 214              	.LVL7:
 215              		.loc 1 139 1 view .LVU67
 216 0020 1EFF2FE1 		bx	lr
 217              	.L14:
 218              		.align	2
 219              	.L13:
 220 0024 00000000 		.word	rlist
 221              		.cfi_endproc
 222              	.LFE9:
 223              		.size	chEvtGetAndClearEvents, .-chEvtGetAndClearEvents
 224              		.section	.text.chEvtAddEvents,"ax",%progbits
 225              		.align	2
 226              		.global	chEvtAddEvents
 227              		.syntax unified
 228              		.arm
ARM GAS  /tmp/cc9XfRU8.s 			page 5


 229              		.fpu softvfp
 230              		.type	chEvtAddEvents, %function
 231              	chEvtAddEvents:
 232              	.LVL8:
 233              	.LFB10:
 234              		.loc 1 150 46 is_stmt 1 view -0
 235              		.cfi_startproc
 236              		@ args = 0, pretend = 0, frame = 0
 237              		@ frame_needed = 0, uses_anonymous_args = 0
 238              		@ link register save eliminated.
 239              		.loc 1 152 3 view .LVU69
 240              		.syntax divided
 241              	@ 152 "../os/kernel/src/chevents.c" 1
 242 0000 9FF021E3 		msr     CPSR_c, #0x9F
 243              	@ 0 "" 2
 244              		.loc 1 152 3 view .LVU70
 245              		.loc 1 152 14 view .LVU71
 246              		.loc 1 154 3 view .LVU72
 247              		.loc 1 154 11 is_stmt 0 view .LVU73
 248              		.arm
 249              		.syntax unified
 250 0004 14309FE5 		ldr	r3, .L16
 251 0008 183093E5 		ldr	r3, [r3, #24]
 252              		.loc 1 154 29 view .LVU74
 253 000c 382093E5 		ldr	r2, [r3, #56]
 254 0010 020080E1 		orr	r0, r0, r2
 255              	.LVL9:
 256              		.loc 1 154 29 view .LVU75
 257 0014 380083E5 		str	r0, [r3, #56]
 258              	.LVL10:
 259              		.loc 1 156 3 is_stmt 1 view .LVU76
 260              		.loc 1 156 3 view .LVU77
 261              		.syntax divided
 262              	@ 156 "../os/kernel/src/chevents.c" 1
 263 0018 1FF021E3 		msr     CPSR_c, #0x1F
 264              	@ 0 "" 2
 265              		.loc 1 156 16 view .LVU78
 266              		.loc 1 157 3 view .LVU79
 267              		.loc 1 158 1 is_stmt 0 view .LVU80
 268              		.arm
 269              		.syntax unified
 270 001c 1EFF2FE1 		bx	lr
 271              	.L17:
 272              		.align	2
 273              	.L16:
 274 0020 00000000 		.word	rlist
 275              		.cfi_endproc
 276              	.LFE10:
 277              		.size	chEvtAddEvents, .-chEvtAddEvents
 278              		.section	.text.chEvtGetAndClearFlags,"ax",%progbits
 279              		.align	2
 280              		.global	chEvtGetAndClearFlags
 281              		.syntax unified
 282              		.arm
 283              		.fpu softvfp
 284              		.type	chEvtGetAndClearFlags, %function
 285              	chEvtGetAndClearFlags:
ARM GAS  /tmp/cc9XfRU8.s 			page 6


 286              	.LVL11:
 287              	.LFB12:
 288              		.loc 1 202 55 is_stmt 1 view -0
 289              		.cfi_startproc
 290              		@ args = 0, pretend = 0, frame = 0
 291              		@ frame_needed = 0, uses_anonymous_args = 0
 292              		@ link register save eliminated.
 293              		.loc 1 203 3 view .LVU82
 294              		.loc 1 205 3 view .LVU83
 295              		.loc 1 202 55 is_stmt 0 view .LVU84
 296 0000 0030A0E1 		mov	r3, r0
 297              		.loc 1 205 3 view .LVU85
 298              		.syntax divided
 299              	@ 205 "../os/kernel/src/chevents.c" 1
 300 0004 9FF021E3 		msr     CPSR_c, #0x9F
 301              	@ 0 "" 2
 302              		.loc 1 205 3 is_stmt 1 view .LVU86
 303              		.loc 1 205 14 view .LVU87
 304              		.loc 1 207 3 view .LVU88
 305              		.loc 1 208 17 is_stmt 0 view .LVU89
 306              		.arm
 307              		.syntax unified
 308 0008 0020A0E3 		mov	r2, #0
 309              		.loc 1 207 9 view .LVU90
 310 000c 0C0090E5 		ldr	r0, [r0, #12]
 311              	.LVL12:
 312              		.loc 1 208 3 is_stmt 1 view .LVU91
 313              		.loc 1 208 17 is_stmt 0 view .LVU92
 314 0010 0C2083E5 		str	r2, [r3, #12]
 315              		.loc 1 210 3 is_stmt 1 view .LVU93
 316              		.loc 1 210 3 view .LVU94
 317              		.syntax divided
 318              	@ 210 "../os/kernel/src/chevents.c" 1
 319 0014 1FF021E3 		msr     CPSR_c, #0x1F
 320              	@ 0 "" 2
 321              		.loc 1 210 16 view .LVU95
 322              		.loc 1 211 3 view .LVU96
 323              		.loc 1 212 1 is_stmt 0 view .LVU97
 324              		.arm
 325              		.syntax unified
 326 0018 1EFF2FE1 		bx	lr
 327              		.cfi_endproc
 328              	.LFE12:
 329              		.size	chEvtGetAndClearFlags, .-chEvtGetAndClearFlags
 330              		.section	.text.chEvtSignalI,"ax",%progbits
 331              		.align	2
 332              		.global	chEvtSignalI
 333              		.syntax unified
 334              		.arm
 335              		.fpu softvfp
 336              		.type	chEvtSignalI, %function
 337              	chEvtSignalI:
 338              	.LVL13:
 339              	.LFB14:
 340              		.loc 1 244 49 is_stmt 1 view -0
 341              		.cfi_startproc
 342              		@ args = 0, pretend = 0, frame = 0
ARM GAS  /tmp/cc9XfRU8.s 			page 7


 343              		@ frame_needed = 0, uses_anonymous_args = 0
 344              		.loc 1 246 3 view .LVU99
 345              		.loc 1 246 21 view .LVU100
 346              		.loc 1 247 3 view .LVU101
 347              		.loc 1 247 41 view .LVU102
 348              		.loc 1 249 3 view .LVU103
 349              		.loc 1 249 18 is_stmt 0 view .LVU104
 350 0000 382090E5 		ldr	r2, [r0, #56]
 351              		.loc 1 251 11 view .LVU105
 352 0004 1C30D0E5 		ldrb	r3, [r0, #28]	@ zero_extendqisi2
 353              		.loc 1 249 18 view .LVU106
 354 0008 021081E1 		orr	r1, r1, r2
 355              	.LVL14:
 356              		.loc 1 251 6 view .LVU107
 357 000c 080053E3 		cmp	r3, #8
 358              		.loc 1 249 18 view .LVU108
 359 0010 381080E5 		str	r1, [r0, #56]
 360              		.loc 1 251 3 is_stmt 1 view .LVU109
 361              		.loc 1 251 6 is_stmt 0 view .LVU110
 362 0014 0900000A 		beq	.L27
 363              		.loc 1 252 50 view .LVU111
 364 0018 090053E3 		cmp	r3, #9
 365 001c 1EFF2F11 		bxne	lr
 366              		.loc 1 254 34 view .LVU112
 367 0020 243090E5 		ldr	r3, [r0, #36]
 368              		.loc 1 253 44 view .LVU113
 369 0024 0130D3E1 		bics	r3, r3, r1
 370 0028 1EFF2F11 		bxne	lr
 371              	.L21:
 372              	.LVL15:
 373              	.LBB4:
 374              	.LBI4:
 375              		.loc 1 244 6 is_stmt 1 view .LVU114
 376              	.LBB5:
 377              		.loc 1 255 5 view .LVU115
 378              	.LBE5:
 379              	.LBE4:
 380              		.loc 1 244 49 is_stmt 0 view .LVU116
 381 002c 10402DE9 		push	{r4, lr}
 382              		.cfi_def_cfa_offset 8
 383              		.cfi_offset 4, -8
 384              		.cfi_offset 14, -4
 385              	.LBB7:
 386              	.LBB6:
 387              		.loc 1 255 5 view .LVU117
 388 0030 FEFFFFEB 		bl	chSchReadyI
 389              	.LVL16:
 390              		.loc 1 255 33 view .LVU118
 391 0034 0030A0E3 		mov	r3, #0
 392 0038 243080E5 		str	r3, [r0, #36]
 393              	.LVL17:
 394              		.loc 1 255 33 view .LVU119
 395              	.LBE6:
 396              	.LBE7:
 397              		.loc 1 256 1 view .LVU120
 398 003c 1080BDE8 		pop	{r4, pc}
 399              	.LVL18:
ARM GAS  /tmp/cc9XfRU8.s 			page 8


 400              	.L27:
 401              		.cfi_def_cfa_offset 0
 402              		.cfi_restore 4
 403              		.cfi_restore 14
 404              		.loc 1 252 25 discriminator 1 view .LVU121
 405 0040 243090E5 		ldr	r3, [r0, #36]
 406              		.loc 1 251 43 discriminator 1 view .LVU122
 407 0044 030011E1 		tst	r1, r3
 408 0048 1EFF2F01 		bxeq	lr
 409 004c F6FFFFEA 		b	.L21
 410              		.cfi_endproc
 411              	.LFE14:
 412              		.size	chEvtSignalI, .-chEvtSignalI
 413              		.section	.text.chEvtBroadcastFlagsI,"ax",%progbits
 414              		.align	2
 415              		.global	chEvtBroadcastFlagsI
 416              		.syntax unified
 417              		.arm
 418              		.fpu softvfp
 419              		.type	chEvtBroadcastFlagsI, %function
 420              	chEvtBroadcastFlagsI:
 421              	.LVL19:
 422              	.LFB11:
 423              		.loc 1 177 64 is_stmt 1 view -0
 424              		.cfi_startproc
 425              		@ args = 0, pretend = 0, frame = 0
 426              		@ frame_needed = 0, uses_anonymous_args = 0
 427              		.loc 1 178 3 view .LVU124
 428              		.loc 1 180 3 view .LVU125
 429              		.loc 1 180 21 view .LVU126
 430              		.loc 1 181 3 view .LVU127
 431              		.loc 1 181 49 view .LVU128
 432              		.loc 1 183 3 view .LVU129
 433              		.loc 1 177 64 is_stmt 0 view .LVU130
 434 0000 70402DE9 		push	{r4, r5, r6, lr}
 435              		.cfi_def_cfa_offset 16
 436              		.cfi_offset 4, -16
 437              		.cfi_offset 5, -12
 438              		.cfi_offset 6, -8
 439              		.cfi_offset 14, -4
 440              		.loc 1 183 7 view .LVU131
 441 0004 004090E5 		ldr	r4, [r0]
 442              	.LVL20:
 443              		.loc 1 184 3 is_stmt 1 view .LVU132
 444              		.loc 1 184 9 view .LVU133
 445 0008 040050E1 		cmp	r0, r4
 446 000c 7080BD08 		popeq	{r4, r5, r6, pc}
 447 0010 0050A0E1 		mov	r5, r0
 448 0014 0160A0E1 		mov	r6, r1
 449              	.LVL21:
 450              	.L30:
 451              		.loc 1 185 5 view .LVU134
 452              		.loc 1 185 19 is_stmt 0 view .LVU135
 453 0018 0C3094E5 		ldr	r3, [r4, #12]
 454              		.loc 1 186 5 view .LVU136
 455 001c 081094E5 		ldr	r1, [r4, #8]
 456              		.loc 1 185 19 view .LVU137
ARM GAS  /tmp/cc9XfRU8.s 			page 9


 457 0020 063083E1 		orr	r3, r3, r6
 458              		.loc 1 186 5 view .LVU138
 459 0024 040094E5 		ldr	r0, [r4, #4]
 460              		.loc 1 185 19 view .LVU139
 461 0028 0C3084E5 		str	r3, [r4, #12]
 462              		.loc 1 186 5 is_stmt 1 view .LVU140
 463 002c FEFFFFEB 		bl	chEvtSignalI
 464              	.LVL22:
 465              		.loc 1 187 5 view .LVU141
 466              		.loc 1 187 9 is_stmt 0 view .LVU142
 467 0030 004094E5 		ldr	r4, [r4]
 468              	.LVL23:
 469              		.loc 1 184 9 is_stmt 1 view .LVU143
 470 0034 040055E1 		cmp	r5, r4
 471 0038 F6FFFF1A 		bne	.L30
 472 003c 7080BDE8 		pop	{r4, r5, r6, pc}
 473              		.cfi_endproc
 474              	.LFE11:
 475              		.size	chEvtBroadcastFlagsI, .-chEvtBroadcastFlagsI
 476              		.section	.text.chEvtSignal,"ax",%progbits
 477              		.align	2
 478              		.global	chEvtSignal
 479              		.syntax unified
 480              		.arm
 481              		.fpu softvfp
 482              		.type	chEvtSignal, %function
 483              	chEvtSignal:
 484              	.LVL24:
 485              	.LFB13:
 486              		.loc 1 222 48 view -0
 487              		.cfi_startproc
 488              		@ args = 0, pretend = 0, frame = 0
 489              		@ frame_needed = 0, uses_anonymous_args = 0
 490              		.loc 1 224 3 view .LVU145
 491              		.loc 1 224 40 view .LVU146
 492              		.loc 1 226 3 view .LVU147
 493              		.loc 1 222 48 is_stmt 0 view .LVU148
 494 0000 10402DE9 		push	{r4, lr}
 495              		.cfi_def_cfa_offset 8
 496              		.cfi_offset 4, -8
 497              		.cfi_offset 14, -4
 498              		.loc 1 226 3 view .LVU149
 499              		.syntax divided
 500              	@ 226 "../os/kernel/src/chevents.c" 1
 501 0004 9FF021E3 		msr     CPSR_c, #0x9F
 502              	@ 0 "" 2
 503              		.loc 1 226 3 is_stmt 1 view .LVU150
 504              		.loc 1 226 14 view .LVU151
 505              		.loc 1 227 3 view .LVU152
 506              		.arm
 507              		.syntax unified
 508 0008 FEFFFFEB 		bl	chEvtSignalI
 509              	.LVL25:
 510              		.loc 1 228 3 view .LVU153
 511 000c FEFFFFEB 		bl	chSchRescheduleS
 512              	.LVL26:
 513              		.loc 1 229 3 view .LVU154
ARM GAS  /tmp/cc9XfRU8.s 			page 10


 514              		.loc 1 229 3 view .LVU155
 515              		.syntax divided
 516              	@ 229 "../os/kernel/src/chevents.c" 1
 517 0010 1FF021E3 		msr     CPSR_c, #0x1F
 518              	@ 0 "" 2
 519              		.loc 1 229 16 view .LVU156
 520              		.loc 1 230 1 is_stmt 0 view .LVU157
 521              		.arm
 522              		.syntax unified
 523 0014 1080BDE8 		pop	{r4, pc}
 524              		.cfi_endproc
 525              	.LFE13:
 526              		.size	chEvtSignal, .-chEvtSignal
 527              		.section	.text.chEvtBroadcastFlags,"ax",%progbits
 528              		.align	2
 529              		.global	chEvtBroadcastFlags
 530              		.syntax unified
 531              		.arm
 532              		.fpu softvfp
 533              		.type	chEvtBroadcastFlags, %function
 534              	chEvtBroadcastFlags:
 535              	.LVL27:
 536              	.LFB15:
 537              		.loc 1 271 63 is_stmt 1 view -0
 538              		.cfi_startproc
 539              		@ args = 0, pretend = 0, frame = 0
 540              		@ frame_needed = 0, uses_anonymous_args = 0
 541              		.loc 1 273 3 view .LVU159
 542              		.loc 1 271 63 is_stmt 0 view .LVU160
 543 0000 10402DE9 		push	{r4, lr}
 544              		.cfi_def_cfa_offset 8
 545              		.cfi_offset 4, -8
 546              		.cfi_offset 14, -4
 547              		.loc 1 273 3 view .LVU161
 548              		.syntax divided
 549              	@ 273 "../os/kernel/src/chevents.c" 1
 550 0004 9FF021E3 		msr     CPSR_c, #0x9F
 551              	@ 0 "" 2
 552              		.loc 1 273 3 is_stmt 1 view .LVU162
 553              		.loc 1 273 14 view .LVU163
 554              		.loc 1 274 3 view .LVU164
 555              		.arm
 556              		.syntax unified
 557 0008 FEFFFFEB 		bl	chEvtBroadcastFlagsI
 558              	.LVL28:
 559              		.loc 1 275 3 view .LVU165
 560 000c FEFFFFEB 		bl	chSchRescheduleS
 561              	.LVL29:
 562              		.loc 1 276 3 view .LVU166
 563              		.loc 1 276 3 view .LVU167
 564              		.syntax divided
 565              	@ 276 "../os/kernel/src/chevents.c" 1
 566 0010 1FF021E3 		msr     CPSR_c, #0x1F
 567              	@ 0 "" 2
 568              		.loc 1 276 16 view .LVU168
 569              		.loc 1 277 1 is_stmt 0 view .LVU169
 570              		.arm
ARM GAS  /tmp/cc9XfRU8.s 			page 11


 571              		.syntax unified
 572 0014 1080BDE8 		pop	{r4, pc}
 573              		.cfi_endproc
 574              	.LFE15:
 575              		.size	chEvtBroadcastFlags, .-chEvtBroadcastFlags
 576              		.section	.text.chEvtGetAndClearFlagsI,"ax",%progbits
 577              		.align	2
 578              		.global	chEvtGetAndClearFlagsI
 579              		.syntax unified
 580              		.arm
 581              		.fpu softvfp
 582              		.type	chEvtGetAndClearFlagsI, %function
 583              	chEvtGetAndClearFlagsI:
 584              	.LVL30:
 585              	.LFB16:
 586              		.loc 1 290 56 is_stmt 1 view -0
 587              		.cfi_startproc
 588              		@ args = 0, pretend = 0, frame = 0
 589              		@ frame_needed = 0, uses_anonymous_args = 0
 590              		@ link register save eliminated.
 591              		.loc 1 291 3 view .LVU171
 592              		.loc 1 293 3 view .LVU172
 593              		.loc 1 290 56 is_stmt 0 view .LVU173
 594 0000 0030A0E1 		mov	r3, r0
 595              		.loc 1 294 17 view .LVU174
 596 0004 0020A0E3 		mov	r2, #0
 597              		.loc 1 293 9 view .LVU175
 598 0008 0C0090E5 		ldr	r0, [r0, #12]
 599              	.LVL31:
 600              		.loc 1 294 3 is_stmt 1 view .LVU176
 601              		.loc 1 294 17 is_stmt 0 view .LVU177
 602 000c 0C2083E5 		str	r2, [r3, #12]
 603              		.loc 1 296 3 is_stmt 1 view .LVU178
 604              		.loc 1 297 1 is_stmt 0 view .LVU179
 605 0010 1EFF2FE1 		bx	lr
 606              		.cfi_endproc
 607              	.LFE16:
 608              		.size	chEvtGetAndClearFlagsI, .-chEvtGetAndClearFlagsI
 609              		.section	.text.chEvtDispatch,"ax",%progbits
 610              		.align	2
 611              		.global	chEvtDispatch
 612              		.syntax unified
 613              		.arm
 614              		.fpu softvfp
 615              		.type	chEvtDispatch, %function
 616              	chEvtDispatch:
 617              	.LVL32:
 618              	.LFB17:
 619              		.loc 1 308 67 is_stmt 1 view -0
 620              		.cfi_startproc
 621              		@ args = 0, pretend = 0, frame = 0
 622              		@ frame_needed = 0, uses_anonymous_args = 0
 623              		.loc 1 309 3 view .LVU181
 624              		.loc 1 311 3 view .LVU182
 625              		.loc 1 311 48 view .LVU183
 626              		.loc 1 313 3 view .LVU184
 627              		.loc 1 314 3 view .LVU185
ARM GAS  /tmp/cc9XfRU8.s 			page 12


 628              		.loc 1 314 9 view .LVU186
 629              		.loc 1 308 67 is_stmt 0 view .LVU187
 630 0000 F0412DE9 		push	{r4, r5, r6, r7, r8, lr}
 631              		.cfi_def_cfa_offset 24
 632              		.cfi_offset 4, -24
 633              		.cfi_offset 5, -20
 634              		.cfi_offset 6, -16
 635              		.cfi_offset 7, -12
 636              		.cfi_offset 8, -8
 637              		.cfi_offset 14, -4
 638              		.loc 1 314 9 view .LVU188
 639 0004 005051E2 		subs	r5, r1, #0
 640 0008 F081BD08 		popeq	{r4, r5, r6, r7, r8, pc}
 641 000c 0070A0E1 		mov	r7, r0
 642              		.loc 1 313 7 view .LVU189
 643 0010 0040A0E3 		mov	r4, #0
 644              		.loc 1 315 16 view .LVU190
 645 0014 0160A0E3 		mov	r6, #1
 646              	.LVL33:
 647              	.L41:
 648              		.loc 1 315 5 is_stmt 1 view .LVU191
 649              		.loc 1 316 7 view .LVU192
 650              		.loc 1 318 34 view .LVU193
 651              		.loc 1 319 7 view .LVU194
 652              		.loc 1 322 5 view .LVU195
 653              		.loc 1 315 16 is_stmt 0 view .LVU196
 654 0018 1634A0E1 		lsl	r3, r6, r4
 655              		.loc 1 315 8 view .LVU197
 656 001c 050013E1 		tst	r3, r5
 657 0020 0900000A 		beq	.L40
 658              	.L51:
 659              		.loc 1 320 7 view .LVU198
 660 0024 0400A0E1 		mov	r0, r4
 661              		.loc 1 319 12 view .LVU199
 662 0028 0350C5E1 		bic	r5, r5, r3
 663              	.LVL34:
 664              		.loc 1 320 7 is_stmt 1 view .LVU200
 665 002c 043197E7 		ldr	r3, [r7, r4, lsl #2]
 666 0030 33FF2FE1 		blx	r3
 667              	.LVL35:
 668              		.loc 1 322 5 view .LVU201
 669              		.loc 1 314 9 is_stmt 0 view .LVU202
 670 0034 000055E3 		cmp	r5, #0
 671              		.loc 1 322 8 view .LVU203
 672 0038 014084E2 		add	r4, r4, #1
 673              	.LVL36:
 674              		.loc 1 314 9 is_stmt 1 view .LVU204
 675 003c F081BD08 		popeq	{r4, r5, r6, r7, r8, pc}
 676              		.loc 1 315 5 view .LVU205
 677              		.loc 1 316 7 view .LVU206
 678              		.loc 1 318 34 view .LVU207
 679              		.loc 1 319 7 view .LVU208
 680              		.loc 1 322 5 view .LVU209
 681              		.loc 1 315 16 is_stmt 0 view .LVU210
 682 0040 1634A0E1 		lsl	r3, r6, r4
 683              		.loc 1 315 8 view .LVU211
 684 0044 050013E1 		tst	r3, r5
ARM GAS  /tmp/cc9XfRU8.s 			page 13


 685 0048 F5FFFF1A 		bne	.L51
 686              	.L40:
 687              		.loc 1 322 8 view .LVU212
 688 004c 014084E2 		add	r4, r4, #1
 689              	.LVL37:
 690              		.loc 1 314 9 is_stmt 1 view .LVU213
 691              		.loc 1 314 9 is_stmt 0 view .LVU214
 692 0050 F0FFFFEA 		b	.L41
 693              		.cfi_endproc
 694              	.LFE17:
 695              		.size	chEvtDispatch, .-chEvtDispatch
 696              		.section	.text.chEvtWaitOne,"ax",%progbits
 697              		.align	2
 698              		.global	chEvtWaitOne
 699              		.syntax unified
 700              		.arm
 701              		.fpu softvfp
 702              		.type	chEvtWaitOne, %function
 703              	chEvtWaitOne:
 704              	.LVL38:
 705              	.LFB18:
 706              		.loc 1 343 44 is_stmt 1 view -0
 707              		.cfi_startproc
 708              		@ args = 0, pretend = 0, frame = 0
 709              		@ frame_needed = 0, uses_anonymous_args = 0
 710              		.loc 1 344 3 view .LVU216
 711              		.loc 1 344 11 is_stmt 0 view .LVU217
 712 0000 48309FE5 		ldr	r3, .L56
 713              		.loc 1 343 44 view .LVU218
 714 0004 70402DE9 		push	{r4, r5, r6, lr}
 715              		.cfi_def_cfa_offset 16
 716              		.cfi_offset 4, -16
 717              		.cfi_offset 5, -12
 718              		.cfi_offset 6, -8
 719              		.cfi_offset 14, -4
 720              		.loc 1 344 11 view .LVU219
 721 0008 185093E5 		ldr	r5, [r3, #24]
 722              	.LVL39:
 723              		.loc 1 345 3 is_stmt 1 view .LVU220
 724              		.loc 1 347 3 view .LVU221
 725              		.syntax divided
 726              	@ 347 "../os/kernel/src/chevents.c" 1
 727 000c 9FF021E3 		msr     CPSR_c, #0x9F
 728              	@ 0 "" 2
 729              		.loc 1 347 3 view .LVU222
 730              		.loc 1 347 14 view .LVU223
 731              		.loc 1 349 3 view .LVU224
 732              		.loc 1 349 16 is_stmt 0 view .LVU225
 733              		.arm
 734              		.syntax unified
 735 0010 383095E5 		ldr	r3, [r5, #56]
 736              	.LVL40:
 737              		.loc 1 349 6 view .LVU226
 738 0014 002013E0 		ands	r2, r3, r0
 739 0018 0500000A 		beq	.L55
 740              	.LVL41:
 741              	.L53:
ARM GAS  /tmp/cc9XfRU8.s 			page 14


 742              		.loc 1 354 3 is_stmt 1 view .LVU227
 743              		.loc 1 354 8 is_stmt 0 view .LVU228
 744 001c 000062E2 		rsb	r0, r2, #0
 745              		.loc 1 354 5 view .LVU229
 746 0020 020000E0 		and	r0, r0, r2
 747              	.LVL42:
 748              		.loc 1 355 3 is_stmt 1 view .LVU230
 749              		.loc 1 355 19 is_stmt 0 view .LVU231
 750 0024 0030C3E1 		bic	r3, r3, r0
 751 0028 383085E5 		str	r3, [r5, #56]
 752              		.loc 1 357 3 is_stmt 1 view .LVU232
 753              		.loc 1 357 3 view .LVU233
 754              		.syntax divided
 755              	@ 357 "../os/kernel/src/chevents.c" 1
 756 002c 1FF021E3 		msr     CPSR_c, #0x1F
 757              	@ 0 "" 2
 758              		.loc 1 357 16 view .LVU234
 759              		.loc 1 358 3 view .LVU235
 760              		.loc 1 359 1 is_stmt 0 view .LVU236
 761              		.arm
 762              		.syntax unified
 763 0030 7080BDE8 		pop	{r4, r5, r6, pc}
 764              	.LVL43:
 765              	.L55:
 766              		.loc 1 359 1 view .LVU237
 767 0034 0040A0E1 		mov	r4, r0
 768              		.loc 1 350 5 is_stmt 1 view .LVU238
 769              		.loc 1 350 21 is_stmt 0 view .LVU239
 770 0038 240085E5 		str	r0, [r5, #36]
 771              		.loc 1 351 5 is_stmt 1 view .LVU240
 772 003c 0800A0E3 		mov	r0, #8
 773              	.LVL44:
 774              		.loc 1 351 5 is_stmt 0 view .LVU241
 775 0040 FEFFFFEB 		bl	chSchGoSleepS
 776              	.LVL45:
 777              		.loc 1 352 5 is_stmt 1 view .LVU242
 778              		.loc 1 352 12 is_stmt 0 view .LVU243
 779 0044 383095E5 		ldr	r3, [r5, #56]
 780              		.loc 1 352 7 view .LVU244
 781 0048 042003E0 		and	r2, r3, r4
 782              	.LVL46:
 783              		.loc 1 352 7 view .LVU245
 784 004c F2FFFFEA 		b	.L53
 785              	.L57:
 786              		.align	2
 787              	.L56:
 788 0050 00000000 		.word	rlist
 789              		.cfi_endproc
 790              	.LFE18:
 791              		.size	chEvtWaitOne, .-chEvtWaitOne
 792              		.section	.text.chEvtWaitAny,"ax",%progbits
 793              		.align	2
 794              		.global	chEvtWaitAny
 795              		.syntax unified
 796              		.arm
 797              		.fpu softvfp
 798              		.type	chEvtWaitAny, %function
ARM GAS  /tmp/cc9XfRU8.s 			page 15


 799              	chEvtWaitAny:
 800              	.LVL47:
 801              	.LFB19:
 802              		.loc 1 372 44 is_stmt 1 view -0
 803              		.cfi_startproc
 804              		@ args = 0, pretend = 0, frame = 0
 805              		@ frame_needed = 0, uses_anonymous_args = 0
 806              		.loc 1 373 3 view .LVU247
 807              		.loc 1 373 11 is_stmt 0 view .LVU248
 808 0000 40309FE5 		ldr	r3, .L62
 809              		.loc 1 372 44 view .LVU249
 810 0004 70402DE9 		push	{r4, r5, r6, lr}
 811              		.cfi_def_cfa_offset 16
 812              		.cfi_offset 4, -16
 813              		.cfi_offset 5, -12
 814              		.cfi_offset 6, -8
 815              		.cfi_offset 14, -4
 816              		.loc 1 372 44 view .LVU250
 817 0008 0040A0E1 		mov	r4, r0
 818              		.loc 1 373 11 view .LVU251
 819 000c 185093E5 		ldr	r5, [r3, #24]
 820              	.LVL48:
 821              		.loc 1 374 3 is_stmt 1 view .LVU252
 822              		.loc 1 376 3 view .LVU253
 823              		.syntax divided
 824              	@ 376 "../os/kernel/src/chevents.c" 1
 825 0010 9FF021E3 		msr     CPSR_c, #0x9F
 826              	@ 0 "" 2
 827              		.loc 1 376 3 view .LVU254
 828              		.loc 1 376 14 view .LVU255
 829              		.loc 1 378 3 view .LVU256
 830              		.loc 1 378 16 is_stmt 0 view .LVU257
 831              		.arm
 832              		.syntax unified
 833 0014 383095E5 		ldr	r3, [r5, #56]
 834              	.LVL49:
 835              		.loc 1 378 6 view .LVU258
 836 0018 000013E0 		ands	r0, r3, r0
 837              	.LVL50:
 838              		.loc 1 378 6 view .LVU259
 839 001c 0300000A 		beq	.L61
 840              	.LVL51:
 841              	.L59:
 842              		.loc 1 383 3 is_stmt 1 view .LVU260
 843              		.loc 1 383 19 is_stmt 0 view .LVU261
 844 0020 0030C3E1 		bic	r3, r3, r0
 845 0024 383085E5 		str	r3, [r5, #56]
 846              		.loc 1 385 3 is_stmt 1 view .LVU262
 847              		.loc 1 385 3 view .LVU263
 848              		.syntax divided
 849              	@ 385 "../os/kernel/src/chevents.c" 1
 850 0028 1FF021E3 		msr     CPSR_c, #0x1F
 851              	@ 0 "" 2
 852              		.loc 1 385 16 view .LVU264
 853              		.loc 1 386 3 view .LVU265
 854              		.loc 1 387 1 is_stmt 0 view .LVU266
 855              		.arm
ARM GAS  /tmp/cc9XfRU8.s 			page 16


 856              		.syntax unified
 857 002c 7080BDE8 		pop	{r4, r5, r6, pc}
 858              	.L61:
 859              		.loc 1 379 5 is_stmt 1 view .LVU267
 860              		.loc 1 380 5 is_stmt 0 view .LVU268
 861 0030 0800A0E3 		mov	r0, #8
 862              	.LVL52:
 863              		.loc 1 379 21 view .LVU269
 864 0034 244085E5 		str	r4, [r5, #36]
 865              		.loc 1 380 5 is_stmt 1 view .LVU270
 866 0038 FEFFFFEB 		bl	chSchGoSleepS
 867              	.LVL53:
 868              		.loc 1 381 5 view .LVU271
 869              		.loc 1 381 12 is_stmt 0 view .LVU272
 870 003c 383095E5 		ldr	r3, [r5, #56]
 871              		.loc 1 381 7 view .LVU273
 872 0040 040003E0 		and	r0, r3, r4
 873              	.LVL54:
 874              		.loc 1 381 7 view .LVU274
 875 0044 F5FFFFEA 		b	.L59
 876              	.L63:
 877              		.align	2
 878              	.L62:
 879 0048 00000000 		.word	rlist
 880              		.cfi_endproc
 881              	.LFE19:
 882              		.size	chEvtWaitAny, .-chEvtWaitAny
 883              		.section	.text.chEvtWaitAll,"ax",%progbits
 884              		.align	2
 885              		.global	chEvtWaitAll
 886              		.syntax unified
 887              		.arm
 888              		.fpu softvfp
 889              		.type	chEvtWaitAll, %function
 890              	chEvtWaitAll:
 891              	.LVL55:
 892              	.LFB20:
 893              		.loc 1 400 44 is_stmt 1 view -0
 894              		.cfi_startproc
 895              		@ args = 0, pretend = 0, frame = 0
 896              		@ frame_needed = 0, uses_anonymous_args = 0
 897              		.loc 1 401 3 view .LVU276
 898              		.loc 1 401 11 is_stmt 0 view .LVU277
 899 0000 3C309FE5 		ldr	r3, .L67
 900              		.loc 1 400 44 view .LVU278
 901 0004 70402DE9 		push	{r4, r5, r6, lr}
 902              		.cfi_def_cfa_offset 16
 903              		.cfi_offset 4, -16
 904              		.cfi_offset 5, -12
 905              		.cfi_offset 6, -8
 906              		.cfi_offset 14, -4
 907              		.loc 1 400 44 view .LVU279
 908 0008 0040A0E1 		mov	r4, r0
 909              		.loc 1 401 11 view .LVU280
 910 000c 185093E5 		ldr	r5, [r3, #24]
 911              	.LVL56:
 912              		.loc 1 403 3 is_stmt 1 view .LVU281
ARM GAS  /tmp/cc9XfRU8.s 			page 17


 913              		.syntax divided
 914              	@ 403 "../os/kernel/src/chevents.c" 1
 915 0010 9FF021E3 		msr     CPSR_c, #0x9F
 916              	@ 0 "" 2
 917              		.loc 1 403 3 view .LVU282
 918              		.loc 1 403 14 view .LVU283
 919              		.loc 1 405 3 view .LVU284
 920              		.loc 1 405 11 is_stmt 0 view .LVU285
 921              		.arm
 922              		.syntax unified
 923 0014 383095E5 		ldr	r3, [r5, #56]
 924              		.loc 1 405 6 view .LVU286
 925 0018 0320D0E1 		bics	r2, r0, r3
 926 001c 0300000A 		beq	.L65
 927              		.loc 1 406 5 is_stmt 1 view .LVU287
 928              		.loc 1 406 21 is_stmt 0 view .LVU288
 929 0020 240085E5 		str	r0, [r5, #36]
 930              		.loc 1 407 5 is_stmt 1 view .LVU289
 931 0024 0900A0E3 		mov	r0, #9
 932              	.LVL57:
 933              		.loc 1 407 5 is_stmt 0 view .LVU290
 934 0028 FEFFFFEB 		bl	chSchGoSleepS
 935              	.LVL58:
 936 002c 383095E5 		ldr	r3, [r5, #56]
 937              	.L65:
 938              		.loc 1 409 3 is_stmt 1 view .LVU291
 939              		.loc 1 409 19 is_stmt 0 view .LVU292
 940 0030 0430C3E1 		bic	r3, r3, r4
 941 0034 383085E5 		str	r3, [r5, #56]
 942              		.loc 1 411 3 is_stmt 1 view .LVU293
 943              		.loc 1 411 3 view .LVU294
 944              		.syntax divided
 945              	@ 411 "../os/kernel/src/chevents.c" 1
 946 0038 1FF021E3 		msr     CPSR_c, #0x1F
 947              	@ 0 "" 2
 948              		.loc 1 411 16 view .LVU295
 949              		.loc 1 412 3 view .LVU296
 950              		.loc 1 413 1 is_stmt 0 view .LVU297
 951              		.arm
 952              		.syntax unified
 953 003c 0400A0E1 		mov	r0, r4
 954 0040 7080BDE8 		pop	{r4, r5, r6, pc}
 955              	.L68:
 956              		.align	2
 957              	.L67:
 958 0044 00000000 		.word	rlist
 959              		.cfi_endproc
 960              	.LFE20:
 961              		.size	chEvtWaitAll, .-chEvtWaitAll
 962              		.section	.text.chEvtWaitOneTimeout,"ax",%progbits
 963              		.align	2
 964              		.global	chEvtWaitOneTimeout
 965              		.syntax unified
 966              		.arm
 967              		.fpu softvfp
 968              		.type	chEvtWaitOneTimeout, %function
 969              	chEvtWaitOneTimeout:
ARM GAS  /tmp/cc9XfRU8.s 			page 18


 970              	.LVL59:
 971              	.LFB21:
 972              		.loc 1 439 67 is_stmt 1 view -0
 973              		.cfi_startproc
 974              		@ args = 0, pretend = 0, frame = 0
 975              		@ frame_needed = 0, uses_anonymous_args = 0
 976              		.loc 1 440 3 view .LVU299
 977              		.loc 1 440 11 is_stmt 0 view .LVU300
 978 0000 5C309FE5 		ldr	r3, .L76
 979              		.loc 1 439 67 view .LVU301
 980 0004 70402DE9 		push	{r4, r5, r6, lr}
 981              		.cfi_def_cfa_offset 16
 982              		.cfi_offset 4, -16
 983              		.cfi_offset 5, -12
 984              		.cfi_offset 6, -8
 985              		.cfi_offset 14, -4
 986              		.loc 1 440 11 view .LVU302
 987 0008 186093E5 		ldr	r6, [r3, #24]
 988              	.LVL60:
 989              		.loc 1 441 3 is_stmt 1 view .LVU303
 990              		.loc 1 443 3 view .LVU304
 991              		.syntax divided
 992              	@ 443 "../os/kernel/src/chevents.c" 1
 993 000c 9FF021E3 		msr     CPSR_c, #0x9F
 994              	@ 0 "" 2
 995              		.loc 1 443 3 view .LVU305
 996              		.loc 1 443 14 view .LVU306
 997              		.loc 1 445 3 view .LVU307
 998              		.loc 1 445 16 is_stmt 0 view .LVU308
 999              		.arm
 1000              		.syntax unified
 1001 0010 383096E5 		ldr	r3, [r6, #56]
 1002              	.LVL61:
 1003              		.loc 1 445 6 view .LVU309
 1004 0014 005013E0 		ands	r5, r3, r0
 1005 0018 0C00001A 		bne	.L70
 1006              		.loc 1 446 5 is_stmt 1 view .LVU310
 1007              		.loc 1 446 8 is_stmt 0 view .LVU311
 1008 001c 000051E3 		cmp	r1, #0
 1009 0020 0200001A 		bne	.L71
 1010              	.LVL62:
 1011              	.L75:
 1012              		.loc 1 460 3 is_stmt 1 view .LVU312
 1013              		.loc 1 460 3 view .LVU313
 1014              		.syntax divided
 1015              	@ 460 "../os/kernel/src/chevents.c" 1
 1016 0024 1FF021E3 		msr     CPSR_c, #0x1F
 1017              	@ 0 "" 2
 1018              		.loc 1 460 16 view .LVU314
 1019              		.loc 1 461 3 view .LVU315
 1020              		.loc 1 462 1 is_stmt 0 view .LVU316
 1021              		.arm
 1022              		.syntax unified
 1023 0028 0500A0E1 		mov	r0, r5
 1024 002c 7080BDE8 		pop	{r4, r5, r6, pc}
 1025              	.LVL63:
 1026              	.L71:
ARM GAS  /tmp/cc9XfRU8.s 			page 19


 1027              		.loc 1 450 5 is_stmt 1 view .LVU317
 1028              		.loc 1 450 21 is_stmt 0 view .LVU318
 1029 0030 240086E5 		str	r0, [r6, #36]
 1030              		.loc 1 451 5 is_stmt 1 view .LVU319
 1031 0034 0040A0E1 		mov	r4, r0
 1032              		.loc 1 451 9 is_stmt 0 view .LVU320
 1033 0038 0800A0E3 		mov	r0, #8
 1034              	.LVL64:
 1035              		.loc 1 451 9 view .LVU321
 1036 003c FEFFFFEB 		bl	chSchGoSleepTimeoutS
 1037              	.LVL65:
 1038              		.loc 1 451 8 view .LVU322
 1039 0040 000050E3 		cmp	r0, #0
 1040 0044 F6FFFFBA 		blt	.L75
 1041              		.loc 1 455 5 is_stmt 1 view .LVU323
 1042              		.loc 1 455 12 is_stmt 0 view .LVU324
 1043 0048 383096E5 		ldr	r3, [r6, #56]
 1044              		.loc 1 455 7 view .LVU325
 1045 004c 045003E0 		and	r5, r3, r4
 1046              	.LVL66:
 1047              	.L70:
 1048              		.loc 1 457 3 is_stmt 1 view .LVU326
 1049              		.loc 1 457 8 is_stmt 0 view .LVU327
 1050 0050 002065E2 		rsb	r2, r5, #0
 1051              		.loc 1 457 5 view .LVU328
 1052 0054 025005E0 		and	r5, r5, r2
 1053              	.LVL67:
 1054              		.loc 1 458 3 is_stmt 1 view .LVU329
 1055              		.loc 1 458 19 is_stmt 0 view .LVU330
 1056 0058 0530C3E1 		bic	r3, r3, r5
 1057 005c 383086E5 		str	r3, [r6, #56]
 1058 0060 EFFFFFEA 		b	.L75
 1059              	.L77:
 1060              		.align	2
 1061              	.L76:
 1062 0064 00000000 		.word	rlist
 1063              		.cfi_endproc
 1064              	.LFE21:
 1065              		.size	chEvtWaitOneTimeout, .-chEvtWaitOneTimeout
 1066              		.section	.text.chEvtWaitAnyTimeout,"ax",%progbits
 1067              		.align	2
 1068              		.global	chEvtWaitAnyTimeout
 1069              		.syntax unified
 1070              		.arm
 1071              		.fpu softvfp
 1072              		.type	chEvtWaitAnyTimeout, %function
 1073              	chEvtWaitAnyTimeout:
 1074              	.LVL68:
 1075              	.LFB22:
 1076              		.loc 1 482 67 is_stmt 1 view -0
 1077              		.cfi_startproc
 1078              		@ args = 0, pretend = 0, frame = 0
 1079              		@ frame_needed = 0, uses_anonymous_args = 0
 1080              		.loc 1 483 3 view .LVU332
 1081              		.loc 1 483 11 is_stmt 0 view .LVU333
 1082 0000 54309FE5 		ldr	r3, .L85
 1083              		.loc 1 482 67 view .LVU334
ARM GAS  /tmp/cc9XfRU8.s 			page 20


 1084 0004 70402DE9 		push	{r4, r5, r6, lr}
 1085              		.cfi_def_cfa_offset 16
 1086              		.cfi_offset 4, -16
 1087              		.cfi_offset 5, -12
 1088              		.cfi_offset 6, -8
 1089              		.cfi_offset 14, -4
 1090              		.loc 1 483 11 view .LVU335
 1091 0008 185093E5 		ldr	r5, [r3, #24]
 1092              	.LVL69:
 1093              		.loc 1 484 3 is_stmt 1 view .LVU336
 1094              		.loc 1 486 3 view .LVU337
 1095              		.syntax divided
 1096              	@ 486 "../os/kernel/src/chevents.c" 1
 1097 000c 9FF021E3 		msr     CPSR_c, #0x9F
 1098              	@ 0 "" 2
 1099              		.loc 1 486 3 view .LVU338
 1100              		.loc 1 486 14 view .LVU339
 1101              		.loc 1 488 3 view .LVU340
 1102              		.loc 1 488 16 is_stmt 0 view .LVU341
 1103              		.arm
 1104              		.syntax unified
 1105 0010 383095E5 		ldr	r3, [r5, #56]
 1106              	.LVL70:
 1107              		.loc 1 488 6 view .LVU342
 1108 0014 006013E0 		ands	r6, r3, r0
 1109 0018 0C00001A 		bne	.L79
 1110              		.loc 1 489 5 is_stmt 1 view .LVU343
 1111              		.loc 1 489 8 is_stmt 0 view .LVU344
 1112 001c 000051E3 		cmp	r1, #0
 1113 0020 0200001A 		bne	.L80
 1114              	.LVL71:
 1115              	.L84:
 1116              		.loc 1 502 3 is_stmt 1 view .LVU345
 1117              		.loc 1 502 3 view .LVU346
 1118              		.syntax divided
 1119              	@ 502 "../os/kernel/src/chevents.c" 1
 1120 0024 1FF021E3 		msr     CPSR_c, #0x1F
 1121              	@ 0 "" 2
 1122              		.loc 1 502 16 view .LVU347
 1123              		.loc 1 503 3 view .LVU348
 1124              		.loc 1 504 1 is_stmt 0 view .LVU349
 1125              		.arm
 1126              		.syntax unified
 1127 0028 0600A0E1 		mov	r0, r6
 1128 002c 7080BDE8 		pop	{r4, r5, r6, pc}
 1129              	.LVL72:
 1130              	.L80:
 1131              		.loc 1 493 5 is_stmt 1 view .LVU350
 1132              		.loc 1 493 21 is_stmt 0 view .LVU351
 1133 0030 240085E5 		str	r0, [r5, #36]
 1134              		.loc 1 494 5 is_stmt 1 view .LVU352
 1135 0034 0040A0E1 		mov	r4, r0
 1136              		.loc 1 494 9 is_stmt 0 view .LVU353
 1137 0038 0800A0E3 		mov	r0, #8
 1138              	.LVL73:
 1139              		.loc 1 494 9 view .LVU354
 1140 003c FEFFFFEB 		bl	chSchGoSleepTimeoutS
ARM GAS  /tmp/cc9XfRU8.s 			page 21


 1141              	.LVL74:
 1142              		.loc 1 494 8 view .LVU355
 1143 0040 000050E3 		cmp	r0, #0
 1144 0044 F6FFFFBA 		blt	.L84
 1145              		.loc 1 498 5 is_stmt 1 view .LVU356
 1146              		.loc 1 498 12 is_stmt 0 view .LVU357
 1147 0048 383095E5 		ldr	r3, [r5, #56]
 1148              		.loc 1 498 7 view .LVU358
 1149 004c 046003E0 		and	r6, r3, r4
 1150              	.LVL75:
 1151              	.L79:
 1152              		.loc 1 500 3 is_stmt 1 view .LVU359
 1153              		.loc 1 500 19 is_stmt 0 view .LVU360
 1154 0050 0630C3E1 		bic	r3, r3, r6
 1155 0054 383085E5 		str	r3, [r5, #56]
 1156 0058 F1FFFFEA 		b	.L84
 1157              	.L86:
 1158              		.align	2
 1159              	.L85:
 1160 005c 00000000 		.word	rlist
 1161              		.cfi_endproc
 1162              	.LFE22:
 1163              		.size	chEvtWaitAnyTimeout, .-chEvtWaitAnyTimeout
 1164              		.section	.text.chEvtWaitAllTimeout,"ax",%progbits
 1165              		.align	2
 1166              		.global	chEvtWaitAllTimeout
 1167              		.syntax unified
 1168              		.arm
 1169              		.fpu softvfp
 1170              		.type	chEvtWaitAllTimeout, %function
 1171              	chEvtWaitAllTimeout:
 1172              	.LVL76:
 1173              	.LFB23:
 1174              		.loc 1 523 67 is_stmt 1 view -0
 1175              		.cfi_startproc
 1176              		@ args = 0, pretend = 0, frame = 0
 1177              		@ frame_needed = 0, uses_anonymous_args = 0
 1178              		.loc 1 524 3 view .LVU362
 1179              		.loc 1 524 11 is_stmt 0 view .LVU363
 1180 0000 64309FE5 		ldr	r3, .L93
 1181              		.loc 1 523 67 view .LVU364
 1182 0004 70402DE9 		push	{r4, r5, r6, lr}
 1183              		.cfi_def_cfa_offset 16
 1184              		.cfi_offset 4, -16
 1185              		.cfi_offset 5, -12
 1186              		.cfi_offset 6, -8
 1187              		.cfi_offset 14, -4
 1188              		.loc 1 523 67 view .LVU365
 1189 0008 0040A0E1 		mov	r4, r0
 1190              		.loc 1 524 11 view .LVU366
 1191 000c 185093E5 		ldr	r5, [r3, #24]
 1192              	.LVL77:
 1193              		.loc 1 526 3 is_stmt 1 view .LVU367
 1194              		.syntax divided
 1195              	@ 526 "../os/kernel/src/chevents.c" 1
 1196 0010 9FF021E3 		msr     CPSR_c, #0x9F
 1197              	@ 0 "" 2
ARM GAS  /tmp/cc9XfRU8.s 			page 22


 1198              		.loc 1 526 3 view .LVU368
 1199              		.loc 1 526 14 view .LVU369
 1200              		.loc 1 528 3 view .LVU370
 1201              		.loc 1 528 11 is_stmt 0 view .LVU371
 1202              		.arm
 1203              		.syntax unified
 1204 0014 383095E5 		ldr	r3, [r5, #56]
 1205              		.loc 1 528 6 view .LVU372
 1206 0018 0320D0E1 		bics	r2, r0, r3
 1207 001c 0A00000A 		beq	.L88
 1208              		.loc 1 529 8 view .LVU373
 1209 0020 000051E3 		cmp	r1, #0
 1210 0024 0100A0E1 		mov	r0, r1
 1211              	.LVL78:
 1212              		.loc 1 529 5 is_stmt 1 view .LVU374
 1213              		.loc 1 529 8 is_stmt 0 view .LVU375
 1214 0028 0100001A 		bne	.L89
 1215              		.loc 1 530 7 is_stmt 1 view .LVU376
 1216              		.loc 1 530 7 view .LVU377
 1217              		.syntax divided
 1218              	@ 530 "../os/kernel/src/chevents.c" 1
 1219 002c 1FF021E3 		msr     CPSR_c, #0x1F
 1220              	@ 0 "" 2
 1221              		.loc 1 530 20 view .LVU378
 1222              		.loc 1 531 7 view .LVU379
 1223              		.loc 1 531 14 is_stmt 0 view .LVU380
 1224              		.arm
 1225              		.syntax unified
 1226 0030 7080BDE8 		pop	{r4, r5, r6, pc}
 1227              	.L89:
 1228              		.loc 1 533 5 is_stmt 1 view .LVU381
 1229              		.loc 1 534 9 is_stmt 0 view .LVU382
 1230 0034 0900A0E3 		mov	r0, #9
 1231              		.loc 1 533 21 view .LVU383
 1232 0038 244085E5 		str	r4, [r5, #36]
 1233              		.loc 1 534 5 is_stmt 1 view .LVU384
 1234              		.loc 1 534 9 is_stmt 0 view .LVU385
 1235 003c FEFFFFEB 		bl	chSchGoSleepTimeoutS
 1236              	.LVL79:
 1237              		.loc 1 534 8 view .LVU386
 1238 0040 000050E3 		cmp	r0, #0
 1239 0044 050000BA 		blt	.L91
 1240 0048 383095E5 		ldr	r3, [r5, #56]
 1241              	.L88:
 1242              		.loc 1 539 3 is_stmt 1 view .LVU387
 1243              		.loc 1 539 19 is_stmt 0 view .LVU388
 1244 004c 0430C3E1 		bic	r3, r3, r4
 1245 0050 383085E5 		str	r3, [r5, #56]
 1246              		.loc 1 541 3 is_stmt 1 view .LVU389
 1247              		.loc 1 541 3 view .LVU390
 1248              		.syntax divided
 1249              	@ 541 "../os/kernel/src/chevents.c" 1
 1250 0054 1FF021E3 		msr     CPSR_c, #0x1F
 1251              	@ 0 "" 2
 1252              		.loc 1 541 16 view .LVU391
 1253              		.loc 1 542 3 view .LVU392
 1254              		.loc 1 542 10 is_stmt 0 view .LVU393
ARM GAS  /tmp/cc9XfRU8.s 			page 23


 1255              		.arm
 1256              		.syntax unified
 1257 0058 0400A0E1 		mov	r0, r4
 1258              		.loc 1 543 1 view .LVU394
 1259 005c 7080BDE8 		pop	{r4, r5, r6, pc}
 1260              	.L91:
 1261              		.loc 1 535 7 is_stmt 1 view .LVU395
 1262              		.loc 1 535 7 view .LVU396
 1263              		.syntax divided
 1264              	@ 535 "../os/kernel/src/chevents.c" 1
 1265 0060 1FF021E3 		msr     CPSR_c, #0x1F
 1266              	@ 0 "" 2
 1267              		.loc 1 535 20 view .LVU397
 1268              		.loc 1 536 7 view .LVU398
 1269              		.loc 1 536 14 is_stmt 0 view .LVU399
 1270              		.arm
 1271              		.syntax unified
 1272 0064 0000A0E3 		mov	r0, #0
 1273 0068 7080BDE8 		pop	{r4, r5, r6, pc}
 1274              	.L94:
 1275              		.align	2
 1276              	.L93:
 1277 006c 00000000 		.word	rlist
 1278              		.cfi_endproc
 1279              	.LFE23:
 1280              		.size	chEvtWaitAllTimeout, .-chEvtWaitAllTimeout
 1281              		.text
 1282              	.Letext0:
 1283              		.file 2 "/usr/lib/gcc/arm-none-eabi/9.2.1/include/stdint.h"
 1284              		.file 3 "../os/ports/GCC/ARM/chtypes.h"
 1285              		.file 4 "../os/kernel/include/chlists.h"
 1286              		.file 5 "../os/kernel/include/chthreads.h"
 1287              		.file 6 "../os/ports/GCC/ARM/chcore.h"
 1288              		.file 7 "../os/kernel/include/chvt.h"
 1289              		.file 8 "../os/kernel/include/chschd.h"
 1290              		.file 9 "../os/kernel/include/chmtx.h"
 1291              		.file 10 "../os/kernel/include/chevents.h"
 1292              		.file 11 "../os/kernel/include/chregistry.h"
 1293              		.file 12 "../os/kernel/include/ch.h"