ARM GAS  /tmp/ccL2iGP5.s 			page 1


   1              		.cpu arm1176jz-s
   2              		.eabi_attribute 20, 1
   3              		.eabi_attribute 21, 1
   4              		.eabi_attribute 23, 3
   5              		.eabi_attribute 24, 1
   6              		.eabi_attribute 25, 1
   7              		.eabi_attribute 26, 1
   8              		.eabi_attribute 30, 2
   9              		.eabi_attribute 34, 1
  10              		.eabi_attribute 18, 4
  11              		.file	"chheap.c"
  12              		.text
  13              	.Ltext0:
  14              		.cfi_sections	.debug_frame
  15              		.section	.text._heap_init,"ax",%progbits
  16              		.align	2
  17              		.global	_heap_init
  18              		.arch armv6kz
  19              		.syntax unified
  20              		.arm
  21              		.fpu softvfp
  22              		.type	_heap_init, %function
  23              	_heap_init:
  24              	.LFB7:
  25              		.file 1 "../os/kernel/src/chheap.c"
  26              		.loc 1 68 23 view -0
  27              		.cfi_startproc
  28              		@ args = 0, pretend = 0, frame = 0
  29              		@ frame_needed = 0, uses_anonymous_args = 0
  30              		@ link register save eliminated.
  31              		.loc 1 69 3 view .LVU1
  32              		.loc 1 70 32 is_stmt 0 view .LVU2
  33 0000 0020A0E3 		mov	r2, #0
  34              		.loc 1 69 27 view .LVU3
  35 0004 14309FE5 		ldr	r3, .L3
  36 0008 14109FE5 		ldr	r1, .L3+4
  37              		.loc 1 73 3 view .LVU4
  38 000c 0C0083E2 		add	r0, r3, #12
  39              		.loc 1 70 32 view .LVU5
  40 0010 042083E5 		str	r2, [r3, #4]
  41              		.loc 1 71 30 view .LVU6
  42 0014 082083E5 		str	r2, [r3, #8]
  43              		.loc 1 69 27 view .LVU7
  44 0018 001083E5 		str	r1, [r3]
  45              		.loc 1 70 3 is_stmt 1 view .LVU8
  46              		.loc 1 71 3 view .LVU9
  47              		.loc 1 73 3 view .LVU10
  48 001c FEFFFFEA 		b	chMtxInit
  49              	.LVL0:
  50              	.L4:
  51              		.align	2
  52              	.L3:
  53 0020 00000000 		.word	.LANCHOR0
  54 0024 00000000 		.word	chCoreAlloc
  55              		.cfi_endproc
  56              	.LFE7:
  57              		.size	_heap_init, .-_heap_init
ARM GAS  /tmp/ccL2iGP5.s 			page 2


  58              		.section	.text.chHeapInit,"ax",%progbits
  59              		.align	2
  60              		.global	chHeapInit
  61              		.syntax unified
  62              		.arm
  63              		.fpu softvfp
  64              		.type	chHeapInit, %function
  65              	chHeapInit:
  66              	.LVL1:
  67              	.LFB8:
  68              		.loc 1 92 60 view -0
  69              		.cfi_startproc
  70              		@ args = 0, pretend = 0, frame = 0
  71              		@ frame_needed = 0, uses_anonymous_args = 0
  72              		@ link register save eliminated.
  73              		.loc 1 93 3 view .LVU12
  74              		.loc 1 95 3 view .LVU13
  75              		.loc 1 95 72 view .LVU14
  76              		.loc 1 97 3 view .LVU15
  77              		.loc 1 97 21 is_stmt 0 view .LVU16
  78 0000 0030A0E3 		mov	r3, #0
  79              		.loc 1 101 21 view .LVU17
  80 0004 082042E2 		sub	r2, r2, #8
  81              	.LVL2:
  82              		.loc 1 98 26 view .LVU18
  83 0008 041080E5 		str	r1, [r0, #4]
  84              		.loc 1 97 21 view .LVU19
  85 000c 003080E5 		str	r3, [r0]
  86              		.loc 1 98 3 is_stmt 1 view .LVU20
  87              	.LVL3:
  88              		.loc 1 99 3 view .LVU21
  89              		.loc 1 99 24 is_stmt 0 view .LVU22
  90 0010 083080E5 		str	r3, [r0, #8]
  91              		.loc 1 100 3 is_stmt 1 view .LVU23
  92              		.loc 1 103 3 is_stmt 0 view .LVU24
  93 0014 0C0080E2 		add	r0, r0, #12
  94              	.LVL4:
  95              		.loc 1 101 14 view .LVU25
  96 0018 042081E5 		str	r2, [r1, #4]
  97              		.loc 1 100 16 view .LVU26
  98 001c 003081E5 		str	r3, [r1]
  99              		.loc 1 101 3 is_stmt 1 view .LVU27
 100              		.loc 1 103 3 view .LVU28
 101 0020 FEFFFFEA 		b	chMtxInit
 102              	.LVL5:
 103              		.loc 1 103 3 is_stmt 0 view .LVU29
 104              		.cfi_endproc
 105              	.LFE8:
 106              		.size	chHeapInit, .-chHeapInit
 107              		.section	.text.chHeapAlloc,"ax",%progbits
 108              		.align	2
 109              		.global	chHeapAlloc
 110              		.syntax unified
 111              		.arm
 112              		.fpu softvfp
 113              		.type	chHeapAlloc, %function
 114              	chHeapAlloc:
ARM GAS  /tmp/ccL2iGP5.s 			page 3


 115              	.LVL6:
 116              	.LFB9:
 117              		.loc 1 125 51 is_stmt 1 view -0
 118              		.cfi_startproc
 119              		@ args = 0, pretend = 0, frame = 0
 120              		@ frame_needed = 0, uses_anonymous_args = 0
 121              		.loc 1 126 3 view .LVU31
 122              		.loc 1 128 3 view .LVU32
 123              		.loc 1 129 11 is_stmt 0 view .LVU33
 124 0000 000050E3 		cmp	r0, #0
 125              		.loc 1 125 51 view .LVU34
 126 0004 70402DE9 		push	{r4, r5, r6, lr}
 127              		.cfi_def_cfa_offset 16
 128              		.cfi_offset 4, -16
 129              		.cfi_offset 5, -12
 130              		.cfi_offset 6, -8
 131              		.cfi_offset 14, -4
 132              		.loc 1 129 11 view .LVU35
 133 0008 A4609FE5 		ldr	r6, .L21
 134 000c 0060A011 		movne	r6, r0
 135              	.LVL7:
 136              		.loc 1 131 3 is_stmt 1 view .LVU36
 137              		.loc 1 131 10 is_stmt 0 view .LVU37
 138 0010 035081E2 		add	r5, r1, #3
 139              		.loc 1 133 3 view .LVU38
 140 0014 0C0086E2 		add	r0, r6, #12
 141              		.loc 1 131 8 view .LVU39
 142 0018 0350C5E3 		bic	r5, r5, #3
 143              	.LVL8:
 144              		.loc 1 132 3 is_stmt 1 view .LVU40
 145              		.loc 1 132 6 is_stmt 0 view .LVU41
 146 001c 044086E2 		add	r4, r6, #4
 147              	.LVL9:
 148              		.loc 1 133 3 is_stmt 1 view .LVU42
 149 0020 FEFFFFEB 		bl	chMtxLock
 150              	.LVL10:
 151              		.loc 1 135 3 view .LVU43
 152              		.loc 1 135 9 is_stmt 0 view .LVU44
 153 0024 020000EA 		b	.L8
 154              	.LVL11:
 155              	.L12:
 156              		.loc 1 137 14 view .LVU45
 157 0028 043094E5 		ldr	r3, [r4, #4]
 158              		.loc 1 137 8 view .LVU46
 159 002c 050053E1 		cmp	r3, r5
 160 0030 0F00002A 		bcs	.L20
 161              	.LVL12:
 162              	.L8:
 163              		.loc 1 136 5 is_stmt 1 view .LVU47
 164              		.loc 1 135 9 view .LVU48
 165 0034 0420A0E1 		mov	r2, r4
 166              		.loc 1 135 17 is_stmt 0 view .LVU49
 167 0038 004094E5 		ldr	r4, [r4]
 168              	.LVL13:
 169              		.loc 1 137 5 is_stmt 1 view .LVU50
 170              		.loc 1 135 9 is_stmt 0 view .LVU51
 171 003c 000054E3 		cmp	r4, #0
ARM GAS  /tmp/ccL2iGP5.s 			page 4


 172 0040 F8FFFF1A 		bne	.L12
 173              		.loc 1 160 3 is_stmt 1 view .LVU52
 174 0044 FEFFFFEB 		bl	chMtxUnlock
 175              	.LVL14:
 176              		.loc 1 164 3 view .LVU53
 177              		.loc 1 164 12 is_stmt 0 view .LVU54
 178 0048 003096E5 		ldr	r3, [r6]
 179              		.loc 1 164 6 view .LVU55
 180 004c 000053E3 		cmp	r3, #0
 181 0050 0500000A 		beq	.L6
 182              		.loc 1 165 5 is_stmt 1 view .LVU56
 183              		.loc 1 165 10 is_stmt 0 view .LVU57
 184 0054 080085E2 		add	r0, r5, #8
 185 0058 33FF2FE1 		blx	r3
 186              	.LVL15:
 187              		.loc 1 166 5 is_stmt 1 view .LVU58
 188              		.loc 1 166 8 is_stmt 0 view .LVU59
 189 005c 000050E3 		cmp	r0, #0
 190              		.loc 1 167 7 is_stmt 1 view .LVU60
 191              		.loc 1 167 20 is_stmt 0 view .LVU61
 192 0060 00608015 		strne	r6, [r0]
 193              		.loc 1 168 7 is_stmt 1 view .LVU62
 194              		.loc 1 168 18 is_stmt 0 view .LVU63
 195 0064 04508015 		strne	r5, [r0, #4]
 196              		.loc 1 169 7 is_stmt 1 view .LVU64
 197              		.loc 1 169 9 is_stmt 0 view .LVU65
 198 0068 08408012 		addne	r4, r0, #8
 199              	.LVL16:
 200              		.loc 1 170 7 is_stmt 1 view .LVU66
 201              	.L6:
 202              		.loc 1 174 1 is_stmt 0 view .LVU67
 203 006c 0400A0E1 		mov	r0, r4
 204 0070 7080BDE8 		pop	{r4, r5, r6, pc}
 205              	.LVL17:
 206              	.L20:
 207              		.loc 1 138 7 is_stmt 1 view .LVU68
 208              		.loc 1 138 29 is_stmt 0 view .LVU69
 209 0074 081085E2 		add	r1, r5, #8
 210              		.loc 1 138 10 view .LVU70
 211 0078 010053E1 		cmp	r3, r1
 212              		.loc 1 142 9 is_stmt 1 view .LVU71
 213              		.loc 1 146 9 view .LVU72
 214              		.loc 1 147 31 is_stmt 0 view .LVU73
 215 007c 00C09425 		ldrcs	ip, [r4]
 216              		.loc 1 142 31 view .LVU74
 217 0080 00309435 		ldrcc	r3, [r4]
 218              		.loc 1 148 61 view .LVU75
 219 0084 05304320 		subcs	r3, r3, r5
 220              		.loc 1 146 12 view .LVU76
 221 0088 01008420 		addcs	r0, r4, r1
 222              	.LVL18:
 223              		.loc 1 147 9 is_stmt 1 view .LVU77
 224              		.loc 1 148 61 is_stmt 0 view .LVU78
 225 008c 08304322 		subcs	r3, r3, #8
 226              		.loc 1 147 22 view .LVU79
 227 0090 01C08427 		strcs	ip, [r4, r1]
 228              		.loc 1 148 9 is_stmt 1 view .LVU80
ARM GAS  /tmp/ccL2iGP5.s 			page 5


 229              		.loc 1 142 22 is_stmt 0 view .LVU81
 230 0094 00308235 		strcc	r3, [r2]
 231              		.loc 1 148 20 view .LVU82
 232 0098 04308025 		strcs	r3, [r0, #4]
 233              		.loc 1 149 9 is_stmt 1 view .LVU83
 234              		.loc 1 149 22 is_stmt 0 view .LVU84
 235 009c 00008225 		strcs	r0, [r2]
 236              		.loc 1 150 9 is_stmt 1 view .LVU85
 237              		.loc 1 150 20 is_stmt 0 view .LVU86
 238 00a0 04508425 		strcs	r5, [r4, #4]
 239              		.loc 1 152 7 is_stmt 1 view .LVU87
 240              		.loc 1 152 20 is_stmt 0 view .LVU88
 241 00a4 086084E4 		str	r6, [r4], #8
 242              	.LVL19:
 243              		.loc 1 154 7 is_stmt 1 view .LVU89
 244 00a8 FEFFFFEB 		bl	chMtxUnlock
 245              	.LVL20:
 246              		.loc 1 155 7 view .LVU90
 247              		.loc 1 174 1 is_stmt 0 view .LVU91
 248 00ac 0400A0E1 		mov	r0, r4
 249 00b0 7080BDE8 		pop	{r4, r5, r6, pc}
 250              	.L22:
 251              		.align	2
 252              	.L21:
 253 00b4 00000000 		.word	.LANCHOR0
 254              		.cfi_endproc
 255              	.LFE9:
 256              		.size	chHeapAlloc, .-chHeapAlloc
 257              		.section	.text.chHeapFree,"ax",%progbits
 258              		.align	2
 259              		.global	chHeapFree
 260              		.syntax unified
 261              		.arm
 262              		.fpu softvfp
 263              		.type	chHeapFree, %function
 264              	chHeapFree:
 265              	.LVL21:
 266              	.LFB10:
 267              		.loc 1 187 26 is_stmt 1 view -0
 268              		.cfi_startproc
 269              		@ args = 0, pretend = 0, frame = 0
 270              		@ frame_needed = 0, uses_anonymous_args = 0
 271              		.loc 1 188 3 view .LVU93
 272              		.loc 1 189 3 view .LVU94
 273              		.loc 1 191 3 view .LVU95
 274              		.loc 1 191 38 view .LVU96
 275              		.loc 1 193 3 view .LVU97
 276              		.loc 1 187 26 is_stmt 0 view .LVU98
 277 0000 70402DE9 		push	{r4, r5, r6, lr}
 278              		.cfi_def_cfa_offset 16
 279              		.cfi_offset 4, -16
 280              		.cfi_offset 5, -12
 281              		.cfi_offset 6, -8
 282              		.cfi_offset 14, -4
 283              		.loc 1 187 26 view .LVU99
 284 0004 0060A0E1 		mov	r6, r0
 285              		.loc 1 194 9 view .LVU100
ARM GAS  /tmp/ccL2iGP5.s 			page 6


 286 0008 080010E5 		ldr	r0, [r0, #-8]
 287              	.LVL22:
 288              		.loc 1 193 6 view .LVU101
 289 000c 084046E2 		sub	r4, r6, #8
 290              	.LVL23:
 291              		.loc 1 194 3 is_stmt 1 view .LVU102
 292              		.loc 1 195 3 view .LVU103
 293              		.loc 1 195 6 is_stmt 0 view .LVU104
 294 0010 045080E2 		add	r5, r0, #4
 295              	.LVL24:
 296              		.loc 1 196 3 is_stmt 1 view .LVU105
 297 0014 0C0080E2 		add	r0, r0, #12
 298              	.LVL25:
 299              		.loc 1 196 3 is_stmt 0 view .LVU106
 300 0018 FEFFFFEB 		bl	chMtxLock
 301              	.LVL26:
 302              		.loc 1 195 6 view .LVU107
 303 001c 0530A0E1 		mov	r3, r5
 304 0020 020000EA 		b	.L29
 305              	.LVL27:
 306              	.L34:
 307              		.loc 1 204 33 view .LVU108
 308 0024 040052E1 		cmp	r2, r4
 309 0028 0A00008A 		bhi	.L25
 310              	.L26:
 311              	.LVL28:
 312              		.loc 1 221 8 view .LVU109
 313 002c 0230A0E1 		mov	r3, r2
 314              	.LVL29:
 315              	.L29:
 316              		.loc 1 198 3 is_stmt 1 view .LVU110
 317              		.loc 1 199 5 view .LVU111
 318              		.loc 1 201 37 view .LVU112
 319              		.loc 1 203 5 view .LVU113
 320              		.loc 1 221 5 view .LVU114
 321              		.loc 1 198 9 view .LVU115
 322              		.loc 1 203 8 is_stmt 0 view .LVU116
 323 0030 052043E0 		sub	r2, r3, r5
 324 0034 122F6FE1 		clz	r2, r2
 325 0038 A222A0E1 		lsr	r2, r2, #5
 326              		.loc 1 203 33 view .LVU117
 327 003c 040053E1 		cmp	r3, r4
 328 0040 01208233 		orrcc	r2, r2, #1
 329 0044 000052E3 		cmp	r2, #0
 330              		.loc 1 204 18 view .LVU118
 331 0048 002093E5 		ldr	r2, [r3]
 332              		.loc 1 203 33 view .LVU119
 333 004c F6FFFF0A 		beq	.L26
 334              		.loc 1 203 47 discriminator 3 view .LVU120
 335 0050 000052E3 		cmp	r2, #0
 336 0054 F2FFFF1A 		bne	.L34
 337              	.L25:
 338              		.loc 1 206 7 is_stmt 1 view .LVU121
 339              		.loc 1 206 20 is_stmt 0 view .LVU122
 340 0058 082006E5 		str	r2, [r6, #-8]
 341              	.LVL30:
 342              		.loc 1 207 7 is_stmt 1 view .LVU123
ARM GAS  /tmp/ccL2iGP5.s 			page 7


 343              		.loc 1 209 11 is_stmt 0 view .LVU124
 344 005c 042016E5 		ldr	r2, [r6, #-4]
 345              		.loc 1 207 20 view .LVU125
 346 0060 004083E5 		str	r4, [r3]
 347              		.loc 1 209 7 is_stmt 1 view .LVU126
 348              		.loc 1 209 31 is_stmt 0 view .LVU127
 349 0064 081016E5 		ldr	r1, [r6, #-8]
 350              		.loc 1 209 11 view .LVU128
 351 0068 020086E0 		add	r0, r6, r2
 352              		.loc 1 209 10 view .LVU129
 353 006c 000051E1 		cmp	r1, r0
 354              		.loc 1 211 9 is_stmt 1 view .LVU130
 355              		.loc 1 211 20 is_stmt 0 view .LVU131
 356 0070 04009105 		ldreq	r0, [r1, #4]
 357 0074 08208202 		addeq	r2, r2, #8
 358              		.loc 1 212 41 view .LVU132
 359 0078 00109105 		ldreq	r1, [r1]
 360              		.loc 1 211 20 view .LVU133
 361 007c 02208000 		addeq	r2, r0, r2
 362              		.loc 1 212 22 view .LVU134
 363 0080 06000609 		stmdbeq	r6, {r1, r2}
 364              		.loc 1 214 7 is_stmt 1 view .LVU135
 365              		.loc 1 214 12 is_stmt 0 view .LVU136
 366 0084 041093E5 		ldr	r1, [r3, #4]
 367 0088 082081E2 		add	r2, r1, #8
 368 008c 022083E0 		add	r2, r3, r2
 369              		.loc 1 214 10 view .LVU137
 370 0090 020054E1 		cmp	r4, r2
 371 0094 0100000A 		beq	.L35
 372              		.loc 1 219 7 is_stmt 1 view .LVU138
 373              		.loc 1 224 3 view .LVU139
 374              		.loc 1 226 1 is_stmt 0 view .LVU140
 375 0098 7040BDE8 		pop	{r4, r5, r6, lr}
 376              		.cfi_remember_state
 377              		.cfi_restore 14
 378              		.cfi_restore 6
 379              		.cfi_restore 5
 380              		.cfi_restore 4
 381              		.cfi_def_cfa_offset 0
 382              	.LVL31:
 383              		.loc 1 224 3 view .LVU141
 384 009c FEFFFFEA 		b	chMtxUnlock
 385              	.LVL32:
 386              	.L35:
 387              		.cfi_restore_state
 388              		.loc 1 216 9 is_stmt 1 view .LVU142
 389              		.loc 1 217 31 is_stmt 0 view .LVU143
 390 00a0 050016E9 		ldmdb	r6, {r0, r2}
 391              		.loc 1 216 20 view .LVU144
 392 00a4 082082E2 		add	r2, r2, #8
 393 00a8 011082E0 		add	r1, r2, r1
 394              		.loc 1 217 22 view .LVU145
 395 00ac F000C3E1 		strd	r0, [r3]
 396              		.loc 1 219 7 is_stmt 1 view .LVU146
 397              		.loc 1 224 3 view .LVU147
 398              		.loc 1 226 1 is_stmt 0 view .LVU148
 399 00b0 7040BDE8 		pop	{r4, r5, r6, lr}
ARM GAS  /tmp/ccL2iGP5.s 			page 8


 400              		.cfi_restore 14
 401              		.cfi_restore 6
 402              		.cfi_restore 5
 403              		.cfi_restore 4
 404              		.cfi_def_cfa_offset 0
 405              	.LVL33:
 406              		.loc 1 224 3 view .LVU149
 407 00b4 FEFFFFEA 		b	chMtxUnlock
 408              	.LVL34:
 409              		.cfi_endproc
 410              	.LFE10:
 411              		.size	chHeapFree, .-chHeapFree
 412              		.section	.text.chHeapStatus,"ax",%progbits
 413              		.align	2
 414              		.global	chHeapStatus
 415              		.syntax unified
 416              		.arm
 417              		.fpu softvfp
 418              		.type	chHeapStatus, %function
 419              	chHeapStatus:
 420              	.LVL35:
 421              	.LFB11:
 422              		.loc 1 243 55 is_stmt 1 view -0
 423              		.cfi_startproc
 424              		@ args = 0, pretend = 0, frame = 0
 425              		@ frame_needed = 0, uses_anonymous_args = 0
 426              		.loc 1 244 3 view .LVU151
 427              		.loc 1 245 3 view .LVU152
 428              		.loc 1 247 3 view .LVU153
 429              		.loc 1 248 11 is_stmt 0 view .LVU154
 430 0000 000050E3 		cmp	r0, #0
 431              		.loc 1 243 55 view .LVU155
 432 0004 70402DE9 		push	{r4, r5, r6, lr}
 433              		.cfi_def_cfa_offset 16
 434              		.cfi_offset 4, -16
 435              		.cfi_offset 5, -12
 436              		.cfi_offset 6, -8
 437              		.cfi_offset 14, -4
 438              		.loc 1 248 11 view .LVU156
 439 0008 58409FE5 		ldr	r4, .L47
 440 000c 0040A011 		movne	r4, r0
 441              	.LVL36:
 442              		.loc 1 250 3 is_stmt 1 view .LVU157
 443 0010 0C0084E2 		add	r0, r4, #12
 444              		.loc 1 243 55 is_stmt 0 view .LVU158
 445 0014 0150A0E1 		mov	r5, r1
 446              		.loc 1 250 3 view .LVU159
 447 0018 FEFFFFEB 		bl	chMtxLock
 448              	.LVL37:
 449              		.loc 1 252 3 is_stmt 1 view .LVU160
 450              		.loc 1 253 3 view .LVU161
 451              		.loc 1 253 36 view .LVU162
 452              		.loc 1 253 43 is_stmt 0 view .LVU163
 453 001c 043094E5 		ldr	r3, [r4, #4]
 454              		.loc 1 253 3 view .LVU164
 455 0020 000053E3 		cmp	r3, #0
 456 0024 0C00000A 		beq	.L41
ARM GAS  /tmp/ccL2iGP5.s 			page 9


 457              		.loc 1 252 6 view .LVU165
 458 0028 0020A0E3 		mov	r2, #0
 459              		.loc 1 253 10 view .LVU166
 460 002c 0240A0E1 		mov	r4, r2
 461              	.LVL38:
 462              	.L39:
 463              		.loc 1 254 5 is_stmt 1 discriminator 3 view .LVU167
 464              		.loc 1 254 8 is_stmt 0 discriminator 3 view .LVU168
 465 0030 040093E5 		ldr	r0, [r3, #4]
 466              		.loc 1 253 43 discriminator 3 view .LVU169
 467 0034 003093E5 		ldr	r3, [r3]
 468              		.loc 1 253 51 discriminator 3 view .LVU170
 469 0038 014084E2 		add	r4, r4, #1
 470              	.LVL39:
 471              		.loc 1 253 3 discriminator 3 view .LVU171
 472 003c 000053E3 		cmp	r3, #0
 473              		.loc 1 254 8 discriminator 3 view .LVU172
 474 0040 002082E0 		add	r2, r2, r0
 475              	.LVL40:
 476              		.loc 1 253 50 is_stmt 1 discriminator 3 view .LVU173
 477              		.loc 1 253 36 discriminator 3 view .LVU174
 478              		.loc 1 253 3 is_stmt 0 discriminator 3 view .LVU175
 479 0044 F9FFFF1A 		bne	.L39
 480              	.LVL41:
 481              	.L38:
 482              		.loc 1 255 3 is_stmt 1 view .LVU176
 483              		.loc 1 255 6 is_stmt 0 view .LVU177
 484 0048 000055E3 		cmp	r5, #0
 485              		.loc 1 256 5 is_stmt 1 view .LVU178
 486              		.loc 1 256 12 is_stmt 0 view .LVU179
 487 004c 00208515 		strne	r2, [r5]
 488              		.loc 1 258 3 is_stmt 1 view .LVU180
 489 0050 FEFFFFEB 		bl	chMtxUnlock
 490              	.LVL42:
 491              		.loc 1 259 3 view .LVU181
 492              		.loc 1 260 1 is_stmt 0 view .LVU182
 493 0054 0400A0E1 		mov	r0, r4
 494 0058 7080BDE8 		pop	{r4, r5, r6, pc}
 495              	.LVL43:
 496              	.L41:
 497              		.loc 1 252 6 view .LVU183
 498 005c 0320A0E1 		mov	r2, r3
 499              		.loc 1 253 10 view .LVU184
 500 0060 0340A0E1 		mov	r4, r3
 501              	.LVL44:
 502              		.loc 1 253 10 view .LVU185
 503 0064 F7FFFFEA 		b	.L38
 504              	.L48:
 505              		.align	2
 506              	.L47:
 507 0068 00000000 		.word	.LANCHOR0
 508              		.cfi_endproc
 509              	.LFE11:
 510              		.size	chHeapStatus, .-chHeapStatus
 511              		.section	.bss.default_heap,"aw",%nobits
 512              		.align	2
 513              		.set	.LANCHOR0,. + 0
ARM GAS  /tmp/ccL2iGP5.s 			page 10


 514              		.type	default_heap, %object
 515              		.size	default_heap, 28
 516              	default_heap:
 517 0000 00000000 		.space	28
 517      00000000 
 517      00000000 
 517      00000000 
 517      00000000 
 518              		.text
 519              	.Letext0:
 520              		.file 2 "/usr/lib/gcc/arm-none-eabi/9.2.1/include/stddef.h"
 521              		.file 3 "/usr/lib/gcc/arm-none-eabi/9.2.1/include/stdint.h"
 522              		.file 4 "../os/ports/GCC/ARM/chtypes.h"
 523              		.file 5 "../os/kernel/include/chlists.h"
 524              		.file 6 "../os/kernel/include/chthreads.h"
 525              		.file 7 "../os/ports/GCC/ARM/chcore.h"
 526              		.file 8 "../os/kernel/include/chvt.h"
 527              		.file 9 "../os/kernel/include/chschd.h"
 528              		.file 10 "../os/kernel/include/chmtx.h"
 529              		.file 11 "../os/kernel/include/chmemcore.h"
 530              		.file 12 "../os/kernel/include/chheap.h"
 531              		.file 13 "../os/kernel/include/chregistry.h"
 532              		.file 14 "../os/kernel/include/ch.h"