ARM GAS  /tmp/ccHILlsE.s 			page 1


   1              		.cpu arm1176jz-s
   2              		.eabi_attribute 20, 1
   3              		.eabi_attribute 21, 1
   4              		.eabi_attribute 23, 3
   5              		.eabi_attribute 24, 1
   6              		.eabi_attribute 25, 1
   7              		.eabi_attribute 26, 1
   8              		.eabi_attribute 30, 2
   9              		.eabi_attribute 34, 1
  10              		.eabi_attribute 18, 4
  11              		.file	"chmboxes.c"
  12              		.text
  13              	.Ltext0:
  14              		.cfi_sections	.debug_frame
  15              		.section	.text.chMBInit,"ax",%progbits
  16              		.align	2
  17              		.global	chMBInit
  18              		.arch armv6kz
  19              		.syntax unified
  20              		.arm
  21              		.fpu softvfp
  22              		.type	chMBInit, %function
  23              	chMBInit:
  24              	.LVL0:
  25              	.LFB7:
  26              		.file 1 "../os/kernel/src/chmboxes.c"
  27              		.loc 1 65 50 view -0
  28              		.cfi_startproc
  29              		@ args = 0, pretend = 0, frame = 0
  30              		@ frame_needed = 0, uses_anonymous_args = 0
  31              		.loc 1 67 3 view .LVU1
  32              		.loc 1 67 68 view .LVU2
  33              		.loc 1 69 3 view .LVU3
  34              		.loc 1 65 50 is_stmt 0 view .LVU4
  35 0000 0130A0E1 		mov	r3, r1
  36 0004 10402DE9 		push	{r4, lr}
  37              		.cfi_def_cfa_offset 8
  38              		.cfi_offset 4, -8
  39              		.cfi_offset 14, -4
  40              		.loc 1 65 50 view .LVU5
  41 0008 0040A0E1 		mov	r4, r0
  42 000c 0210A0E1 		mov	r1, r2
  43              	.LVL1:
  44              		.loc 1 70 17 view .LVU6
  45 0010 022183E0 		add	r2, r3, r2, lsl #2
  46              	.LVL2:
  47              		.loc 1 69 50 view .LVU7
  48 0014 0C3080E5 		str	r3, [r0, #12]
  49              		.loc 1 69 34 view .LVU8
  50 0018 083080E5 		str	r3, [r0, #8]
  51              		.loc 1 69 18 view .LVU9
  52 001c 003080E5 		str	r3, [r0]
  53              		.loc 1 70 3 is_stmt 1 view .LVU10
  54              		.loc 1 70 15 is_stmt 0 view .LVU11
  55 0020 042080E5 		str	r2, [r0, #4]
  56              		.loc 1 71 3 is_stmt 1 view .LVU12
  57 0024 1C0080E2 		add	r0, r0, #28
ARM GAS  /tmp/ccHILlsE.s 			page 2


  58              	.LVL3:
  59              		.loc 1 71 3 is_stmt 0 view .LVU13
  60 0028 FEFFFFEB 		bl	chSemInit
  61              	.LVL4:
  62              		.loc 1 72 3 is_stmt 1 view .LVU14
  63 002c 100084E2 		add	r0, r4, #16
  64 0030 0010A0E3 		mov	r1, #0
  65              		.loc 1 73 1 is_stmt 0 view .LVU15
  66 0034 1040BDE8 		pop	{r4, lr}
  67              		.cfi_restore 14
  68              		.cfi_restore 4
  69              		.cfi_def_cfa_offset 0
  70              	.LVL5:
  71              		.loc 1 72 3 view .LVU16
  72 0038 FEFFFFEA 		b	chSemInit
  73              	.LVL6:
  74              		.loc 1 72 3 view .LVU17
  75              		.cfi_endproc
  76              	.LFE7:
  77              		.size	chMBInit, .-chMBInit
  78              		.section	.text.chMBReset,"ax",%progbits
  79              		.align	2
  80              		.global	chMBReset
  81              		.syntax unified
  82              		.arm
  83              		.fpu softvfp
  84              		.type	chMBReset, %function
  85              	chMBReset:
  86              	.LVL7:
  87              	.LFB8:
  88              		.loc 1 84 30 is_stmt 1 view -0
  89              		.cfi_startproc
  90              		@ args = 0, pretend = 0, frame = 0
  91              		@ frame_needed = 0, uses_anonymous_args = 0
  92              		.loc 1 86 3 view .LVU19
  93              		.loc 1 86 39 view .LVU20
  94              		.loc 1 88 3 view .LVU21
  95              		.loc 1 84 30 is_stmt 0 view .LVU22
  96 0000 10402DE9 		push	{r4, lr}
  97              		.cfi_def_cfa_offset 8
  98              		.cfi_offset 4, -8
  99              		.cfi_offset 14, -4
 100              		.loc 1 84 30 view .LVU23
 101 0004 0040A0E1 		mov	r4, r0
 102              		.loc 1 88 3 view .LVU24
 103              		.syntax divided
 104              	@ 88 "../os/kernel/src/chmboxes.c" 1
 105 0008 9FF021E3 		msr     CPSR_c, #0x9F
 106              	@ 0 "" 2
 107              		.loc 1 88 3 is_stmt 1 view .LVU25
 108              		.loc 1 88 14 view .LVU26
 109              		.loc 1 89 3 view .LVU27
 110              		.loc 1 89 38 is_stmt 0 view .LVU28
 111              		.arm
 112              		.syntax unified
 113 000c 003090E5 		ldr	r3, [r0]
 114              		.loc 1 90 46 view .LVU29
ARM GAS  /tmp/ccHILlsE.s 			page 3


 115 0010 041090E5 		ldr	r1, [r0, #4]
 116              		.loc 1 89 33 view .LVU30
 117 0014 0C3080E5 		str	r3, [r0, #12]
 118              		.loc 1 90 46 view .LVU31
 119 0018 031041E0 		sub	r1, r1, r3
 120              		.loc 1 89 17 view .LVU32
 121 001c 083080E5 		str	r3, [r0, #8]
 122              		.loc 1 90 3 is_stmt 1 view .LVU33
 123 0020 4111A0E1 		asr	r1, r1, #2
 124 0024 1C0080E2 		add	r0, r0, #28
 125              	.LVL8:
 126              		.loc 1 90 3 is_stmt 0 view .LVU34
 127 0028 FEFFFFEB 		bl	chSemResetI
 128              	.LVL9:
 129              		.loc 1 91 3 is_stmt 1 view .LVU35
 130 002c 0010A0E3 		mov	r1, #0
 131 0030 100084E2 		add	r0, r4, #16
 132 0034 FEFFFFEB 		bl	chSemResetI
 133              	.LVL10:
 134              		.loc 1 92 3 view .LVU36
 135 0038 FEFFFFEB 		bl	chSchRescheduleS
 136              	.LVL11:
 137              		.loc 1 93 3 view .LVU37
 138              		.loc 1 93 3 view .LVU38
 139              		.syntax divided
 140              	@ 93 "../os/kernel/src/chmboxes.c" 1
 141 003c 1FF021E3 		msr     CPSR_c, #0x1F
 142              	@ 0 "" 2
 143              		.loc 1 93 16 view .LVU39
 144              		.loc 1 94 1 is_stmt 0 view .LVU40
 145              		.arm
 146              		.syntax unified
 147 0040 1080BDE8 		pop	{r4, pc}
 148              		.cfi_endproc
 149              	.LFE8:
 150              		.size	chMBReset, .-chMBReset
 151              		.section	.text.chMBPost,"ax",%progbits
 152              		.align	2
 153              		.global	chMBPost
 154              		.syntax unified
 155              		.arm
 156              		.fpu softvfp
 157              		.type	chMBPost, %function
 158              	chMBPost:
 159              	.LVL12:
 160              	.LFB9:
 161              		.loc 1 115 57 is_stmt 1 view -0
 162              		.cfi_startproc
 163              		@ args = 0, pretend = 0, frame = 0
 164              		@ frame_needed = 0, uses_anonymous_args = 0
 165              		.loc 1 115 57 is_stmt 0 view .LVU42
 166 0000 70402DE9 		push	{r4, r5, r6, lr}
 167              		.cfi_def_cfa_offset 16
 168              		.cfi_offset 4, -16
 169              		.cfi_offset 5, -12
 170              		.cfi_offset 6, -8
 171              		.cfi_offset 14, -4
ARM GAS  /tmp/ccHILlsE.s 			page 4


 172              		.loc 1 115 57 view .LVU43
 173 0004 0160A0E1 		mov	r6, r1
 174              		.loc 1 116 3 is_stmt 1 view .LVU44
 175              		.loc 1 118 3 view .LVU45
 176              		.loc 1 115 57 is_stmt 0 view .LVU46
 177 0008 0040A0E1 		mov	r4, r0
 178 000c 0210A0E1 		mov	r1, r2
 179              	.LVL13:
 180              		.loc 1 118 3 view .LVU47
 181              		.syntax divided
 182              	@ 118 "../os/kernel/src/chmboxes.c" 1
 183 0010 9FF021E3 		msr     CPSR_c, #0x9F
 184              	@ 0 "" 2
 185              		.loc 1 118 3 is_stmt 1 view .LVU48
 186              		.loc 1 118 14 view .LVU49
 187              		.loc 1 119 3 view .LVU50
 188              	.LVL14:
 189              		.arm
 190              		.syntax unified
 191              	.LBB12:
 192              	.LBI12:
 193              		.loc 1 143 7 view .LVU51
 194              	.LBB13:
 195              		.loc 1 144 3 view .LVU52
 196              		.loc 1 146 3 view .LVU53
 197              		.loc 1 146 21 view .LVU54
 198              		.loc 1 147 3 view .LVU55
 199              		.loc 1 147 39 view .LVU56
 200              		.loc 1 149 3 view .LVU57
 201              		.loc 1 149 12 is_stmt 0 view .LVU58
 202 0014 1C0080E2 		add	r0, r0, #28
 203              	.LVL15:
 204              		.loc 1 149 12 view .LVU59
 205 0018 FEFFFFEB 		bl	chSemWaitTimeoutS
 206              	.LVL16:
 207              		.loc 1 150 3 is_stmt 1 view .LVU60
 208              		.loc 1 150 6 is_stmt 0 view .LVU61
 209 001c 005050E2 		subs	r5, r0, #0
 210 0020 0900001A 		bne	.L7
 211              	.LVL17:
 212              	.LBB14:
 213              	.LBI14:
 214              		.loc 1 143 7 is_stmt 1 view .LVU62
 215              	.LBB15:
 216              		.loc 1 151 5 view .LVU63
 217              		.loc 1 152 8 is_stmt 0 view .LVU64
 218 0024 0A0094E9 		ldmib	r4, {r1, r3}
 219              		.loc 1 151 19 view .LVU65
 220 0028 042083E2 		add	r2, r3, #4
 221              		.loc 1 152 8 view .LVU66
 222 002c 010052E1 		cmp	r2, r1
 223              		.loc 1 151 19 view .LVU67
 224 0030 082084E5 		str	r2, [r4, #8]
 225              		.loc 1 151 22 view .LVU68
 226 0034 006083E5 		str	r6, [r3]
 227              		.loc 1 152 5 is_stmt 1 view .LVU69
 228              		.loc 1 153 7 view .LVU70
ARM GAS  /tmp/ccHILlsE.s 			page 5


 229              		.loc 1 154 5 view .LVU71
 230              		.loc 1 153 21 is_stmt 0 view .LVU72
 231 0038 00309425 		ldrcs	r3, [r4]
 232              		.loc 1 154 5 view .LVU73
 233 003c 100084E2 		add	r0, r4, #16
 234              	.LVL18:
 235              		.loc 1 153 21 view .LVU74
 236 0040 08308425 		strcs	r3, [r4, #8]
 237              		.loc 1 154 5 view .LVU75
 238 0044 FEFFFFEB 		bl	chSemSignalI
 239              	.LVL19:
 240              		.loc 1 155 5 is_stmt 1 view .LVU76
 241 0048 FEFFFFEB 		bl	chSchRescheduleS
 242              	.LVL20:
 243              	.L7:
 244              		.loc 1 155 5 is_stmt 0 view .LVU77
 245              	.LBE15:
 246              	.LBE14:
 247              		.loc 1 157 3 is_stmt 1 view .LVU78
 248              		.loc 1 157 3 is_stmt 0 view .LVU79
 249              	.LBE13:
 250              	.LBE12:
 251              		.loc 1 120 3 is_stmt 1 view .LVU80
 252              		.loc 1 120 3 view .LVU81
 253              		.syntax divided
 254              	@ 120 "../os/kernel/src/chmboxes.c" 1
 255 004c 1FF021E3 		msr     CPSR_c, #0x1F
 256              	@ 0 "" 2
 257              		.loc 1 120 16 view .LVU82
 258              		.loc 1 121 3 view .LVU83
 259              		.loc 1 122 1 is_stmt 0 view .LVU84
 260              		.arm
 261              		.syntax unified
 262 0050 0500A0E1 		mov	r0, r5
 263 0054 7080BDE8 		pop	{r4, r5, r6, pc}
 264              		.cfi_endproc
 265              	.LFE9:
 266              		.size	chMBPost, .-chMBPost
 267              		.section	.text.chMBPostS,"ax",%progbits
 268              		.align	2
 269              		.global	chMBPostS
 270              		.syntax unified
 271              		.arm
 272              		.fpu softvfp
 273              		.type	chMBPostS, %function
 274              	chMBPostS:
 275              	.LVL21:
 276              	.LFB10:
 277              		.loc 1 143 58 is_stmt 1 view -0
 278              		.cfi_startproc
 279              		@ args = 0, pretend = 0, frame = 0
 280              		@ frame_needed = 0, uses_anonymous_args = 0
 281              		.loc 1 143 58 is_stmt 0 view .LVU86
 282 0000 70402DE9 		push	{r4, r5, r6, lr}
 283              		.cfi_def_cfa_offset 16
 284              		.cfi_offset 4, -16
 285              		.cfi_offset 5, -12
ARM GAS  /tmp/ccHILlsE.s 			page 6


 286              		.cfi_offset 6, -8
 287              		.cfi_offset 14, -4
 288              		.loc 1 143 58 view .LVU87
 289 0004 0040A0E1 		mov	r4, r0
 290 0008 0160A0E1 		mov	r6, r1
 291              		.loc 1 149 12 view .LVU88
 292 000c 1C0080E2 		add	r0, r0, #28
 293              	.LVL22:
 294              		.loc 1 149 12 view .LVU89
 295 0010 0210A0E1 		mov	r1, r2
 296              	.LVL23:
 297              		.loc 1 144 3 is_stmt 1 view .LVU90
 298              		.loc 1 146 3 view .LVU91
 299              		.loc 1 146 21 view .LVU92
 300              		.loc 1 147 3 view .LVU93
 301              		.loc 1 147 39 view .LVU94
 302              		.loc 1 149 3 view .LVU95
 303              		.loc 1 149 12 is_stmt 0 view .LVU96
 304 0014 FEFFFFEB 		bl	chSemWaitTimeoutS
 305              	.LVL24:
 306              		.loc 1 150 3 is_stmt 1 view .LVU97
 307              		.loc 1 150 6 is_stmt 0 view .LVU98
 308 0018 005050E2 		subs	r5, r0, #0
 309 001c 0900001A 		bne	.L10
 310              	.LVL25:
 311              	.LBB18:
 312              	.LBI18:
 313              		.loc 1 143 7 is_stmt 1 view .LVU99
 314              	.LBB19:
 315              		.loc 1 151 5 view .LVU100
 316              		.loc 1 152 8 is_stmt 0 view .LVU101
 317 0020 0A0094E9 		ldmib	r4, {r1, r3}
 318              		.loc 1 151 19 view .LVU102
 319 0024 042083E2 		add	r2, r3, #4
 320              		.loc 1 152 8 view .LVU103
 321 0028 010052E1 		cmp	r2, r1
 322              		.loc 1 151 19 view .LVU104
 323 002c 082084E5 		str	r2, [r4, #8]
 324              		.loc 1 151 22 view .LVU105
 325 0030 006083E5 		str	r6, [r3]
 326              		.loc 1 152 5 is_stmt 1 view .LVU106
 327              		.loc 1 153 7 view .LVU107
 328              		.loc 1 154 5 view .LVU108
 329              		.loc 1 153 21 is_stmt 0 view .LVU109
 330 0034 00309425 		ldrcs	r3, [r4]
 331              		.loc 1 154 5 view .LVU110
 332 0038 100084E2 		add	r0, r4, #16
 333              	.LVL26:
 334              		.loc 1 153 21 view .LVU111
 335 003c 08308425 		strcs	r3, [r4, #8]
 336              		.loc 1 154 5 view .LVU112
 337 0040 FEFFFFEB 		bl	chSemSignalI
 338              	.LVL27:
 339              		.loc 1 155 5 is_stmt 1 view .LVU113
 340 0044 FEFFFFEB 		bl	chSchRescheduleS
 341              	.LVL28:
 342              		.loc 1 155 5 is_stmt 0 view .LVU114
ARM GAS  /tmp/ccHILlsE.s 			page 7


 343              	.LBE19:
 344              	.LBE18:
 345              		.loc 1 157 3 is_stmt 1 view .LVU115
 346              	.L10:
 347              		.loc 1 158 1 is_stmt 0 view .LVU116
 348 0048 0500A0E1 		mov	r0, r5
 349 004c 7080BDE8 		pop	{r4, r5, r6, pc}
 350              		.cfi_endproc
 351              	.LFE10:
 352              		.size	chMBPostS, .-chMBPostS
 353              		.section	.text.chMBPostI,"ax",%progbits
 354              		.align	2
 355              		.global	chMBPostI
 356              		.syntax unified
 357              		.arm
 358              		.fpu softvfp
 359              		.type	chMBPostI, %function
 360              	chMBPostI:
 361              	.LVL29:
 362              	.LFB11:
 363              		.loc 1 174 42 is_stmt 1 view -0
 364              		.cfi_startproc
 365              		@ args = 0, pretend = 0, frame = 0
 366              		@ frame_needed = 0, uses_anonymous_args = 0
 367              		.loc 1 176 3 view .LVU118
 368              		.loc 1 176 21 view .LVU119
 369              		.loc 1 177 3 view .LVU120
 370              		.loc 1 177 39 view .LVU121
 371              		.loc 1 179 3 view .LVU122
 372              		.loc 1 179 7 is_stmt 0 view .LVU123
 373 0000 243090E5 		ldr	r3, [r0, #36]
 374              		.loc 1 179 6 view .LVU124
 375 0004 000053E3 		cmp	r3, #0
 376 0008 0E0000DA 		ble	.L17
 377              		.loc 1 181 3 is_stmt 1 view .LVU125
 378              		.loc 1 182 7 is_stmt 0 view .LVU126
 379 000c 082090E5 		ldr	r2, [r0, #8]
 380              		.loc 1 174 42 view .LVU127
 381 0010 10402DE9 		push	{r4, lr}
 382              		.cfi_def_cfa_offset 8
 383              		.cfi_offset 4, -8
 384              		.cfi_offset 14, -4
 385              		.loc 1 183 6 view .LVU128
 386 0014 04E090E5 		ldr	lr, [r0, #4]
 387              		.loc 1 182 17 view .LVU129
 388 0018 04C082E2 		add	ip, r2, #4
 389              		.loc 1 181 3 view .LVU130
 390 001c 013043E2 		sub	r3, r3, #1
 391              		.loc 1 183 6 view .LVU131
 392 0020 0E005CE1 		cmp	ip, lr
 393              		.loc 1 181 3 view .LVU132
 394 0024 243080E5 		str	r3, [r0, #36]
 395              		.loc 1 182 3 is_stmt 1 view .LVU133
 396              		.loc 1 184 19 is_stmt 0 view .LVU134
 397 0028 00309025 		ldrcs	r3, [r0]
 398              		.loc 1 182 17 view .LVU135
 399 002c 08C080E5 		str	ip, [r0, #8]
ARM GAS  /tmp/ccHILlsE.s 			page 8


 400              		.loc 1 182 20 view .LVU136
 401 0030 001082E5 		str	r1, [r2]
 402              		.loc 1 183 3 is_stmt 1 view .LVU137
 403              		.loc 1 184 5 view .LVU138
 404              		.loc 1 185 3 view .LVU139
 405 0034 100080E2 		add	r0, r0, #16
 406              	.LVL30:
 407              		.loc 1 184 19 is_stmt 0 view .LVU140
 408 0038 08300025 		strcs	r3, [r0, #-8]
 409              		.loc 1 185 3 view .LVU141
 410 003c FEFFFFEB 		bl	chSemSignalI
 411              	.LVL31:
 412              		.loc 1 186 3 is_stmt 1 view .LVU142
 413              		.loc 1 186 10 is_stmt 0 view .LVU143
 414 0040 0000A0E3 		mov	r0, #0
 415              		.loc 1 187 1 view .LVU144
 416 0044 1080BDE8 		pop	{r4, pc}
 417              	.LVL32:
 418              	.L17:
 419              		.cfi_def_cfa_offset 0
 420              		.cfi_restore 4
 421              		.cfi_restore 14
 422              		.loc 1 180 12 view .LVU145
 423 0048 0000E0E3 		mvn	r0, #0
 424              	.LVL33:
 425              		.loc 1 187 1 view .LVU146
 426 004c 1EFF2FE1 		bx	lr
 427              		.cfi_endproc
 428              	.LFE11:
 429              		.size	chMBPostI, .-chMBPostI
 430              		.section	.text.chMBPostAhead,"ax",%progbits
 431              		.align	2
 432              		.global	chMBPostAhead
 433              		.syntax unified
 434              		.arm
 435              		.fpu softvfp
 436              		.type	chMBPostAhead, %function
 437              	chMBPostAhead:
 438              	.LVL34:
 439              	.LFB12:
 440              		.loc 1 208 62 is_stmt 1 view -0
 441              		.cfi_startproc
 442              		@ args = 0, pretend = 0, frame = 0
 443              		@ frame_needed = 0, uses_anonymous_args = 0
 444              		.loc 1 208 62 is_stmt 0 view .LVU148
 445 0000 70402DE9 		push	{r4, r5, r6, lr}
 446              		.cfi_def_cfa_offset 16
 447              		.cfi_offset 4, -16
 448              		.cfi_offset 5, -12
 449              		.cfi_offset 6, -8
 450              		.cfi_offset 14, -4
 451              		.loc 1 208 62 view .LVU149
 452 0004 0160A0E1 		mov	r6, r1
 453              		.loc 1 209 3 is_stmt 1 view .LVU150
 454              		.loc 1 211 3 view .LVU151
 455              		.loc 1 208 62 is_stmt 0 view .LVU152
 456 0008 0040A0E1 		mov	r4, r0
ARM GAS  /tmp/ccHILlsE.s 			page 9


 457 000c 0210A0E1 		mov	r1, r2
 458              	.LVL35:
 459              		.loc 1 211 3 view .LVU153
 460              		.syntax divided
 461              	@ 211 "../os/kernel/src/chmboxes.c" 1
 462 0010 9FF021E3 		msr     CPSR_c, #0x9F
 463              	@ 0 "" 2
 464              		.loc 1 211 3 is_stmt 1 view .LVU154
 465              		.loc 1 211 14 view .LVU155
 466              		.loc 1 212 3 view .LVU156
 467              	.LVL36:
 468              		.arm
 469              		.syntax unified
 470              	.LBB24:
 471              	.LBI24:
 472              		.loc 1 236 7 view .LVU157
 473              	.LBB25:
 474              		.loc 1 237 3 view .LVU158
 475              		.loc 1 239 3 view .LVU159
 476              		.loc 1 239 21 view .LVU160
 477              		.loc 1 240 3 view .LVU161
 478              		.loc 1 240 44 view .LVU162
 479              		.loc 1 242 3 view .LVU163
 480              		.loc 1 242 12 is_stmt 0 view .LVU164
 481 0014 1C0080E2 		add	r0, r0, #28
 482              	.LVL37:
 483              		.loc 1 242 12 view .LVU165
 484 0018 FEFFFFEB 		bl	chSemWaitTimeoutS
 485              	.LVL38:
 486              		.loc 1 243 3 is_stmt 1 view .LVU166
 487              		.loc 1 243 6 is_stmt 0 view .LVU167
 488 001c 005050E2 		subs	r5, r0, #0
 489 0020 0B00001A 		bne	.L23
 490              	.LVL39:
 491              	.LBB26:
 492              	.LBI26:
 493              		.loc 1 236 7 is_stmt 1 view .LVU168
 494              	.LBB27:
 495              		.loc 1 244 5 view .LVU169
 496              		.loc 1 244 9 is_stmt 0 view .LVU170
 497 0024 0C3094E5 		ldr	r3, [r4, #12]
 498              		.loc 1 244 8 view .LVU171
 499 0028 002094E5 		ldr	r2, [r4]
 500              		.loc 1 244 9 view .LVU172
 501 002c 043043E2 		sub	r3, r3, #4
 502              		.loc 1 244 8 view .LVU173
 503 0030 020053E1 		cmp	r3, r2
 504 0034 0C3084E5 		str	r3, [r4, #12]
 505              		.loc 1 245 7 is_stmt 1 view .LVU174
 506              		.loc 1 246 5 view .LVU175
 507              		.loc 1 245 35 is_stmt 0 view .LVU176
 508 0038 04309435 		ldrcc	r3, [r4, #4]
 509              		.loc 1 247 5 view .LVU177
 510 003c 100084E2 		add	r0, r4, #16
 511              	.LVL40:
 512              		.loc 1 245 35 view .LVU178
 513 0040 04304332 		subcc	r3, r3, #4
ARM GAS  /tmp/ccHILlsE.s 			page 10


 514              		.loc 1 245 21 view .LVU179
 515 0044 0C308435 		strcc	r3, [r4, #12]
 516              		.loc 1 246 20 view .LVU180
 517 0048 006083E5 		str	r6, [r3]
 518              		.loc 1 247 5 is_stmt 1 view .LVU181
 519 004c FEFFFFEB 		bl	chSemSignalI
 520              	.LVL41:
 521              		.loc 1 248 5 view .LVU182
 522 0050 FEFFFFEB 		bl	chSchRescheduleS
 523              	.LVL42:
 524              	.L23:
 525              		.loc 1 248 5 is_stmt 0 view .LVU183
 526              	.LBE27:
 527              	.LBE26:
 528              		.loc 1 250 3 is_stmt 1 view .LVU184
 529              		.loc 1 250 3 is_stmt 0 view .LVU185
 530              	.LBE25:
 531              	.LBE24:
 532              		.loc 1 213 3 is_stmt 1 view .LVU186
 533              		.loc 1 213 3 view .LVU187
 534              		.syntax divided
 535              	@ 213 "../os/kernel/src/chmboxes.c" 1
 536 0054 1FF021E3 		msr     CPSR_c, #0x1F
 537              	@ 0 "" 2
 538              		.loc 1 213 16 view .LVU188
 539              		.loc 1 214 3 view .LVU189
 540              		.loc 1 215 1 is_stmt 0 view .LVU190
 541              		.arm
 542              		.syntax unified
 543 0058 0500A0E1 		mov	r0, r5
 544 005c 7080BDE8 		pop	{r4, r5, r6, pc}
 545              		.cfi_endproc
 546              	.LFE12:
 547              		.size	chMBPostAhead, .-chMBPostAhead
 548              		.section	.text.chMBPostAheadS,"ax",%progbits
 549              		.align	2
 550              		.global	chMBPostAheadS
 551              		.syntax unified
 552              		.arm
 553              		.fpu softvfp
 554              		.type	chMBPostAheadS, %function
 555              	chMBPostAheadS:
 556              	.LVL43:
 557              	.LFB13:
 558              		.loc 1 236 63 is_stmt 1 view -0
 559              		.cfi_startproc
 560              		@ args = 0, pretend = 0, frame = 0
 561              		@ frame_needed = 0, uses_anonymous_args = 0
 562              		.loc 1 236 63 is_stmt 0 view .LVU192
 563 0000 70402DE9 		push	{r4, r5, r6, lr}
 564              		.cfi_def_cfa_offset 16
 565              		.cfi_offset 4, -16
 566              		.cfi_offset 5, -12
 567              		.cfi_offset 6, -8
 568              		.cfi_offset 14, -4
 569              		.loc 1 236 63 view .LVU193
 570 0004 0040A0E1 		mov	r4, r0
ARM GAS  /tmp/ccHILlsE.s 			page 11


 571 0008 0160A0E1 		mov	r6, r1
 572              		.loc 1 242 12 view .LVU194
 573 000c 1C0080E2 		add	r0, r0, #28
 574              	.LVL44:
 575              		.loc 1 242 12 view .LVU195
 576 0010 0210A0E1 		mov	r1, r2
 577              	.LVL45:
 578              		.loc 1 237 3 is_stmt 1 view .LVU196
 579              		.loc 1 239 3 view .LVU197
 580              		.loc 1 239 21 view .LVU198
 581              		.loc 1 240 3 view .LVU199
 582              		.loc 1 240 44 view .LVU200
 583              		.loc 1 242 3 view .LVU201
 584              		.loc 1 242 12 is_stmt 0 view .LVU202
 585 0014 FEFFFFEB 		bl	chSemWaitTimeoutS
 586              	.LVL46:
 587              		.loc 1 243 3 is_stmt 1 view .LVU203
 588              		.loc 1 243 6 is_stmt 0 view .LVU204
 589 0018 005050E2 		subs	r5, r0, #0
 590 001c 0B00001A 		bne	.L26
 591              	.LVL47:
 592              	.LBB30:
 593              	.LBI30:
 594              		.loc 1 236 7 is_stmt 1 view .LVU205
 595              	.LBB31:
 596              		.loc 1 244 5 view .LVU206
 597              		.loc 1 244 9 is_stmt 0 view .LVU207
 598 0020 0C3094E5 		ldr	r3, [r4, #12]
 599              		.loc 1 244 8 view .LVU208
 600 0024 002094E5 		ldr	r2, [r4]
 601              		.loc 1 244 9 view .LVU209
 602 0028 043043E2 		sub	r3, r3, #4
 603              		.loc 1 244 8 view .LVU210
 604 002c 020053E1 		cmp	r3, r2
 605 0030 0C3084E5 		str	r3, [r4, #12]
 606              		.loc 1 245 7 is_stmt 1 view .LVU211
 607              		.loc 1 246 5 view .LVU212
 608              		.loc 1 245 35 is_stmt 0 view .LVU213
 609 0034 04309435 		ldrcc	r3, [r4, #4]
 610              		.loc 1 247 5 view .LVU214
 611 0038 100084E2 		add	r0, r4, #16
 612              	.LVL48:
 613              		.loc 1 245 35 view .LVU215
 614 003c 04304332 		subcc	r3, r3, #4
 615              		.loc 1 245 21 view .LVU216
 616 0040 0C308435 		strcc	r3, [r4, #12]
 617              		.loc 1 246 20 view .LVU217
 618 0044 006083E5 		str	r6, [r3]
 619              		.loc 1 247 5 is_stmt 1 view .LVU218
 620 0048 FEFFFFEB 		bl	chSemSignalI
 621              	.LVL49:
 622              		.loc 1 248 5 view .LVU219
 623 004c FEFFFFEB 		bl	chSchRescheduleS
 624              	.LVL50:
 625              		.loc 1 248 5 is_stmt 0 view .LVU220
 626              	.LBE31:
 627              	.LBE30:
ARM GAS  /tmp/ccHILlsE.s 			page 12


 628              		.loc 1 250 3 is_stmt 1 view .LVU221
 629              	.L26:
 630              		.loc 1 251 1 is_stmt 0 view .LVU222
 631 0050 0500A0E1 		mov	r0, r5
 632 0054 7080BDE8 		pop	{r4, r5, r6, pc}
 633              		.cfi_endproc
 634              	.LFE13:
 635              		.size	chMBPostAheadS, .-chMBPostAheadS
 636              		.section	.text.chMBPostAheadI,"ax",%progbits
 637              		.align	2
 638              		.global	chMBPostAheadI
 639              		.syntax unified
 640              		.arm
 641              		.fpu softvfp
 642              		.type	chMBPostAheadI, %function
 643              	chMBPostAheadI:
 644              	.LVL51:
 645              	.LFB14:
 646              		.loc 1 267 47 is_stmt 1 view -0
 647              		.cfi_startproc
 648              		@ args = 0, pretend = 0, frame = 0
 649              		@ frame_needed = 0, uses_anonymous_args = 0
 650              		.loc 1 269 3 view .LVU224
 651              		.loc 1 269 21 view .LVU225
 652              		.loc 1 270 3 view .LVU226
 653              		.loc 1 270 44 view .LVU227
 654              		.loc 1 272 3 view .LVU228
 655              		.loc 1 272 7 is_stmt 0 view .LVU229
 656 0000 242090E5 		ldr	r2, [r0, #36]
 657              		.loc 1 272 6 view .LVU230
 658 0004 000052E3 		cmp	r2, #0
 659 0008 0F0000DA 		ble	.L33
 660              		.loc 1 274 3 is_stmt 1 view .LVU231
 661              		.loc 1 275 7 is_stmt 0 view .LVU232
 662 000c 0C3090E5 		ldr	r3, [r0, #12]
 663              		.loc 1 275 6 view .LVU233
 664 0010 00C090E5 		ldr	ip, [r0]
 665              		.loc 1 275 7 view .LVU234
 666 0014 043043E2 		sub	r3, r3, #4
 667              		.loc 1 275 6 view .LVU235
 668 0018 0C0053E1 		cmp	r3, ip
 669              		.loc 1 267 47 view .LVU236
 670 001c 10402DE9 		push	{r4, lr}
 671              		.cfi_def_cfa_offset 8
 672              		.cfi_offset 4, -8
 673              		.cfi_offset 14, -4
 674              		.loc 1 275 6 view .LVU237
 675 0020 0C3080E5 		str	r3, [r0, #12]
 676              		.loc 1 276 33 view .LVU238
 677 0024 04309035 		ldrcc	r3, [r0, #4]
 678              		.loc 1 274 3 view .LVU239
 679 0028 012042E2 		sub	r2, r2, #1
 680              		.loc 1 276 33 view .LVU240
 681 002c 04304332 		subcc	r3, r3, #4
 682              		.loc 1 274 3 view .LVU241
 683 0030 242080E5 		str	r2, [r0, #36]
 684              		.loc 1 275 3 is_stmt 1 view .LVU242
ARM GAS  /tmp/ccHILlsE.s 			page 13


 685              		.loc 1 276 5 view .LVU243
 686              		.loc 1 277 3 view .LVU244
 687              		.loc 1 276 19 is_stmt 0 view .LVU245
 688 0034 0C308035 		strcc	r3, [r0, #12]
 689              		.loc 1 277 18 view .LVU246
 690 0038 001083E5 		str	r1, [r3]
 691              		.loc 1 278 3 is_stmt 1 view .LVU247
 692 003c 100080E2 		add	r0, r0, #16
 693              	.LVL52:
 694              		.loc 1 278 3 is_stmt 0 view .LVU248
 695 0040 FEFFFFEB 		bl	chSemSignalI
 696              	.LVL53:
 697              		.loc 1 279 3 is_stmt 1 view .LVU249
 698              		.loc 1 279 10 is_stmt 0 view .LVU250
 699 0044 0000A0E3 		mov	r0, #0
 700              		.loc 1 280 1 view .LVU251
 701 0048 1080BDE8 		pop	{r4, pc}
 702              	.LVL54:
 703              	.L33:
 704              		.cfi_def_cfa_offset 0
 705              		.cfi_restore 4
 706              		.cfi_restore 14
 707              		.loc 1 273 12 view .LVU252
 708 004c 0000E0E3 		mvn	r0, #0
 709              	.LVL55:
 710              		.loc 1 280 1 view .LVU253
 711 0050 1EFF2FE1 		bx	lr
 712              		.cfi_endproc
 713              	.LFE14:
 714              		.size	chMBPostAheadI, .-chMBPostAheadI
 715              		.section	.text.chMBFetch,"ax",%progbits
 716              		.align	2
 717              		.global	chMBFetch
 718              		.syntax unified
 719              		.arm
 720              		.fpu softvfp
 721              		.type	chMBFetch, %function
 722              	chMBFetch:
 723              	.LVL56:
 724              	.LFB15:
 725              		.loc 1 301 60 is_stmt 1 view -0
 726              		.cfi_startproc
 727              		@ args = 0, pretend = 0, frame = 0
 728              		@ frame_needed = 0, uses_anonymous_args = 0
 729              		.loc 1 301 60 is_stmt 0 view .LVU255
 730 0000 70402DE9 		push	{r4, r5, r6, lr}
 731              		.cfi_def_cfa_offset 16
 732              		.cfi_offset 4, -16
 733              		.cfi_offset 5, -12
 734              		.cfi_offset 6, -8
 735              		.cfi_offset 14, -4
 736              		.loc 1 301 60 view .LVU256
 737 0004 0160A0E1 		mov	r6, r1
 738              		.loc 1 302 3 is_stmt 1 view .LVU257
 739              		.loc 1 304 3 view .LVU258
 740              		.loc 1 301 60 is_stmt 0 view .LVU259
 741 0008 0040A0E1 		mov	r4, r0
ARM GAS  /tmp/ccHILlsE.s 			page 14


 742 000c 0210A0E1 		mov	r1, r2
 743              	.LVL57:
 744              		.loc 1 304 3 view .LVU260
 745              		.syntax divided
 746              	@ 304 "../os/kernel/src/chmboxes.c" 1
 747 0010 9FF021E3 		msr     CPSR_c, #0x9F
 748              	@ 0 "" 2
 749              		.loc 1 304 3 is_stmt 1 view .LVU261
 750              		.loc 1 304 14 view .LVU262
 751              		.loc 1 305 3 view .LVU263
 752              	.LVL58:
 753              		.arm
 754              		.syntax unified
 755              	.LBB36:
 756              	.LBI36:
 757              		.loc 1 329 7 view .LVU264
 758              	.LBB37:
 759              		.loc 1 330 3 view .LVU265
 760              		.loc 1 332 3 view .LVU266
 761              		.loc 1 332 21 view .LVU267
 762              		.loc 1 333 3 view .LVU268
 763              		.loc 1 333 60 view .LVU269
 764              		.loc 1 335 3 view .LVU270
 765              		.loc 1 335 12 is_stmt 0 view .LVU271
 766 0014 100080E2 		add	r0, r0, #16
 767              	.LVL59:
 768              		.loc 1 335 12 view .LVU272
 769 0018 FEFFFFEB 		bl	chSemWaitTimeoutS
 770              	.LVL60:
 771              		.loc 1 336 3 is_stmt 1 view .LVU273
 772              		.loc 1 336 6 is_stmt 0 view .LVU274
 773 001c 005050E2 		subs	r5, r0, #0
 774 0020 0B00001A 		bne	.L39
 775              	.LVL61:
 776              	.LBB38:
 777              	.LBI38:
 778              		.loc 1 329 7 is_stmt 1 view .LVU275
 779              	.LBB39:
 780              		.loc 1 337 5 view .LVU276
 781              		.loc 1 337 17 is_stmt 0 view .LVU277
 782 0024 0C2094E5 		ldr	r2, [r4, #12]
 783              		.loc 1 338 8 view .LVU278
 784 0028 041094E5 		ldr	r1, [r4, #4]
 785              		.loc 1 337 27 view .LVU279
 786 002c 043082E2 		add	r3, r2, #4
 787              		.loc 1 338 8 view .LVU280
 788 0030 010053E1 		cmp	r3, r1
 789              		.loc 1 337 13 view .LVU281
 790 0034 002092E5 		ldr	r2, [r2]
 791              		.loc 1 337 27 view .LVU282
 792 0038 0C3084E5 		str	r3, [r4, #12]
 793              		.loc 1 339 21 view .LVU283
 794 003c 00309425 		ldrcs	r3, [r4]
 795              		.loc 1 337 11 view .LVU284
 796 0040 002086E5 		str	r2, [r6]
 797              		.loc 1 338 5 is_stmt 1 view .LVU285
 798              		.loc 1 339 7 view .LVU286
ARM GAS  /tmp/ccHILlsE.s 			page 15


 799              		.loc 1 340 5 view .LVU287
 800 0044 1C0084E2 		add	r0, r4, #28
 801              	.LVL62:
 802              		.loc 1 339 21 is_stmt 0 view .LVU288
 803 0048 0C308425 		strcs	r3, [r4, #12]
 804              		.loc 1 340 5 view .LVU289
 805 004c FEFFFFEB 		bl	chSemSignalI
 806              	.LVL63:
 807              		.loc 1 341 5 is_stmt 1 view .LVU290
 808 0050 FEFFFFEB 		bl	chSchRescheduleS
 809              	.LVL64:
 810              	.L39:
 811              		.loc 1 341 5 is_stmt 0 view .LVU291
 812              	.LBE39:
 813              	.LBE38:
 814              		.loc 1 343 3 is_stmt 1 view .LVU292
 815              		.loc 1 343 3 is_stmt 0 view .LVU293
 816              	.LBE37:
 817              	.LBE36:
 818              		.loc 1 306 3 is_stmt 1 view .LVU294
 819              		.loc 1 306 3 view .LVU295
 820              		.syntax divided
 821              	@ 306 "../os/kernel/src/chmboxes.c" 1
 822 0054 1FF021E3 		msr     CPSR_c, #0x1F
 823              	@ 0 "" 2
 824              		.loc 1 306 16 view .LVU296
 825              		.loc 1 307 3 view .LVU297
 826              		.loc 1 308 1 is_stmt 0 view .LVU298
 827              		.arm
 828              		.syntax unified
 829 0058 0500A0E1 		mov	r0, r5
 830 005c 7080BDE8 		pop	{r4, r5, r6, pc}
 831              		.cfi_endproc
 832              	.LFE15:
 833              		.size	chMBFetch, .-chMBFetch
 834              		.section	.text.chMBFetchS,"ax",%progbits
 835              		.align	2
 836              		.global	chMBFetchS
 837              		.syntax unified
 838              		.arm
 839              		.fpu softvfp
 840              		.type	chMBFetchS, %function
 841              	chMBFetchS:
 842              	.LVL65:
 843              	.LFB16:
 844              		.loc 1 329 61 is_stmt 1 view -0
 845              		.cfi_startproc
 846              		@ args = 0, pretend = 0, frame = 0
 847              		@ frame_needed = 0, uses_anonymous_args = 0
 848              		.loc 1 329 61 is_stmt 0 view .LVU300
 849 0000 70402DE9 		push	{r4, r5, r6, lr}
 850              		.cfi_def_cfa_offset 16
 851              		.cfi_offset 4, -16
 852              		.cfi_offset 5, -12
 853              		.cfi_offset 6, -8
 854              		.cfi_offset 14, -4
 855              		.loc 1 329 61 view .LVU301
ARM GAS  /tmp/ccHILlsE.s 			page 16


 856 0004 0040A0E1 		mov	r4, r0
 857 0008 0160A0E1 		mov	r6, r1
 858              		.loc 1 335 12 view .LVU302
 859 000c 100080E2 		add	r0, r0, #16
 860              	.LVL66:
 861              		.loc 1 335 12 view .LVU303
 862 0010 0210A0E1 		mov	r1, r2
 863              	.LVL67:
 864              		.loc 1 330 3 is_stmt 1 view .LVU304
 865              		.loc 1 332 3 view .LVU305
 866              		.loc 1 332 21 view .LVU306
 867              		.loc 1 333 3 view .LVU307
 868              		.loc 1 333 60 view .LVU308
 869              		.loc 1 335 3 view .LVU309
 870              		.loc 1 335 12 is_stmt 0 view .LVU310
 871 0014 FEFFFFEB 		bl	chSemWaitTimeoutS
 872              	.LVL68:
 873              		.loc 1 336 3 is_stmt 1 view .LVU311
 874              		.loc 1 336 6 is_stmt 0 view .LVU312
 875 0018 005050E2 		subs	r5, r0, #0
 876 001c 0B00001A 		bne	.L42
 877              	.LVL69:
 878              	.LBB42:
 879              	.LBI42:
 880              		.loc 1 329 7 is_stmt 1 view .LVU313
 881              	.LBB43:
 882              		.loc 1 337 5 view .LVU314
 883              		.loc 1 337 17 is_stmt 0 view .LVU315
 884 0020 0C2094E5 		ldr	r2, [r4, #12]
 885              		.loc 1 338 8 view .LVU316
 886 0024 041094E5 		ldr	r1, [r4, #4]
 887              		.loc 1 337 27 view .LVU317
 888 0028 043082E2 		add	r3, r2, #4
 889              		.loc 1 338 8 view .LVU318
 890 002c 010053E1 		cmp	r3, r1
 891              		.loc 1 337 13 view .LVU319
 892 0030 002092E5 		ldr	r2, [r2]
 893              		.loc 1 337 27 view .LVU320
 894 0034 0C3084E5 		str	r3, [r4, #12]
 895              		.loc 1 339 21 view .LVU321
 896 0038 00309425 		ldrcs	r3, [r4]
 897              		.loc 1 337 11 view .LVU322
 898 003c 002086E5 		str	r2, [r6]
 899              		.loc 1 338 5 is_stmt 1 view .LVU323
 900              		.loc 1 339 7 view .LVU324
 901              		.loc 1 340 5 view .LVU325
 902 0040 1C0084E2 		add	r0, r4, #28
 903              	.LVL70:
 904              		.loc 1 339 21 is_stmt 0 view .LVU326
 905 0044 0C308425 		strcs	r3, [r4, #12]
 906              		.loc 1 340 5 view .LVU327
 907 0048 FEFFFFEB 		bl	chSemSignalI
 908              	.LVL71:
 909              		.loc 1 341 5 is_stmt 1 view .LVU328
 910 004c FEFFFFEB 		bl	chSchRescheduleS
 911              	.LVL72:
 912              		.loc 1 341 5 is_stmt 0 view .LVU329
ARM GAS  /tmp/ccHILlsE.s 			page 17


 913              	.LBE43:
 914              	.LBE42:
 915              		.loc 1 343 3 is_stmt 1 view .LVU330
 916              	.L42:
 917              		.loc 1 344 1 is_stmt 0 view .LVU331
 918 0050 0500A0E1 		mov	r0, r5
 919 0054 7080BDE8 		pop	{r4, r5, r6, pc}
 920              		.cfi_endproc
 921              	.LFE16:
 922              		.size	chMBFetchS, .-chMBFetchS
 923              		.section	.text.chMBFetchI,"ax",%progbits
 924              		.align	2
 925              		.global	chMBFetchI
 926              		.syntax unified
 927              		.arm
 928              		.fpu softvfp
 929              		.type	chMBFetchI, %function
 930              	chMBFetchI:
 931              	.LVL73:
 932              	.LFB17:
 933              		.loc 1 360 45 is_stmt 1 view -0
 934              		.cfi_startproc
 935              		@ args = 0, pretend = 0, frame = 0
 936              		@ frame_needed = 0, uses_anonymous_args = 0
 937              		.loc 1 362 3 view .LVU333
 938              		.loc 1 362 21 view .LVU334
 939              		.loc 1 363 3 view .LVU335
 940              		.loc 1 363 60 view .LVU336
 941              		.loc 1 365 3 view .LVU337
 942              		.loc 1 365 7 is_stmt 0 view .LVU338
 943 0000 183090E5 		ldr	r3, [r0, #24]
 944              		.loc 1 365 6 view .LVU339
 945 0004 000053E3 		cmp	r3, #0
 946 0008 0F0000DA 		ble	.L49
 947              		.loc 1 367 3 is_stmt 1 view .LVU340
 948 000c 012043E2 		sub	r2, r3, #1
 949              		.loc 1 368 15 is_stmt 0 view .LVU341
 950 0010 0C3090E5 		ldr	r3, [r0, #12]
 951              		.loc 1 369 6 view .LVU342
 952 0014 04C090E5 		ldr	ip, [r0, #4]
 953              		.loc 1 360 45 view .LVU343
 954 0018 10402DE9 		push	{r4, lr}
 955              		.cfi_def_cfa_offset 8
 956              		.cfi_offset 4, -8
 957              		.cfi_offset 14, -4
 958              		.loc 1 367 3 view .LVU344
 959 001c 182080E5 		str	r2, [r0, #24]
 960              		.loc 1 368 3 is_stmt 1 view .LVU345
 961              		.loc 1 368 11 is_stmt 0 view .LVU346
 962 0020 002093E5 		ldr	r2, [r3]
 963              		.loc 1 368 25 view .LVU347
 964 0024 043083E2 		add	r3, r3, #4
 965              		.loc 1 369 6 view .LVU348
 966 0028 0C0053E1 		cmp	r3, ip
 967              		.loc 1 368 25 view .LVU349
 968 002c 0C3080E5 		str	r3, [r0, #12]
 969              		.loc 1 370 19 view .LVU350
ARM GAS  /tmp/ccHILlsE.s 			page 18


 970 0030 00309025 		ldrcs	r3, [r0]
 971              		.loc 1 368 9 view .LVU351
 972 0034 002081E5 		str	r2, [r1]
 973              		.loc 1 369 3 is_stmt 1 view .LVU352
 974              		.loc 1 370 5 view .LVU353
 975              		.loc 1 371 3 view .LVU354
 976 0038 1C0080E2 		add	r0, r0, #28
 977              	.LVL74:
 978              		.loc 1 370 19 is_stmt 0 view .LVU355
 979 003c 10300025 		strcs	r3, [r0, #-16]
 980              		.loc 1 371 3 view .LVU356
 981 0040 FEFFFFEB 		bl	chSemSignalI
 982              	.LVL75:
 983              		.loc 1 372 3 is_stmt 1 view .LVU357
 984              		.loc 1 372 10 is_stmt 0 view .LVU358
 985 0044 0000A0E3 		mov	r0, #0
 986              		.loc 1 373 1 view .LVU359
 987 0048 1080BDE8 		pop	{r4, pc}
 988              	.LVL76:
 989              	.L49:
 990              		.cfi_def_cfa_offset 0
 991              		.cfi_restore 4
 992              		.cfi_restore 14
 993              		.loc 1 366 12 view .LVU360
 994 004c 0000E0E3 		mvn	r0, #0
 995              	.LVL77:
 996              		.loc 1 373 1 view .LVU361
 997 0050 1EFF2FE1 		bx	lr
 998              		.cfi_endproc
 999              	.LFE17:
 1000              		.size	chMBFetchI, .-chMBFetchI
 1001              		.text
 1002              	.Letext0:
 1003              		.file 2 "/usr/lib/gcc/arm-none-eabi/9.2.1/include/stdint.h"
 1004              		.file 3 "../os/ports/GCC/ARM/chtypes.h"
 1005              		.file 4 "../os/kernel/include/chlists.h"
 1006              		.file 5 "../os/kernel/include/chthreads.h"
 1007              		.file 6 "../os/ports/GCC/ARM/chcore.h"
 1008              		.file 7 "../os/kernel/include/chvt.h"
 1009              		.file 8 "../os/kernel/include/chschd.h"
 1010              		.file 9 "../os/kernel/include/chsem.h"
 1011              		.file 10 "../os/kernel/include/chmtx.h"
 1012              		.file 11 "../os/kernel/include/chmboxes.h"
 1013              		.file 12 "../os/kernel/include/chregistry.h"
 1014              		.file 13 "../os/kernel/include/ch.h"