ARM GAS  /tmp/ccHILlsE.s 			page 1


   1              		.cpu arm1176jz-s
   2              		.eabi_attribute 20, 1
   3              		.eabi_attribute 21, 1
   4              		.eabi_attribute 23, 3
   5              		.eabi_attribute 24, 1
   6              		.eabi_attribute 25, 1
   7              		.eabi_attribute 26, 1
   8              		.eabi_attribute 30, 2
   9              		.eabi_attribute 34, 1
  10              		.eabi_attribute 18, 4
  11              		.file	"chmboxes.c"
  12              		.text
  13              	.Ltext0:
  14              		.cfi_sections	.debug_frame
  15              		.section	.text.chMBInit,"ax",%progbits
  16              		.align	2
  17              		.global	chMBInit
  18              		.arch armv6kz
  19              		.syntax unified
  20              		.arm
  21              		.fpu softvfp
  22              		.type	chMBInit, %function
  23              	chMBInit:
  24              	.LVL0:
  25              	.LFB7:
  26              		.file 1 "../os/kernel/src/chmboxes.c"
  27              		.loc 1 65 50 view -0
  28              		.cfi_startproc
  29              		@ args = 0, pretend = 0, frame = 0
  30              		@ frame_needed = 0, uses_anonymous_args = 0
  31              		.loc 1 67 3 view .LVU1
  32              		.loc 1 67 68 view .LVU2
  33              		.loc 1 69 3 view .LVU3
  34              		.loc 1 65 50 is_stmt 0 view .LVU4
  35 0000 0130A0E1 		mov	r3, r1
  36 0004 10402DE9 		push	{r4, lr}
  37              		.cfi_def_cfa_offset 8
  38              		.cfi_offset 4, -8
  39              		.cfi_offset 14, -4
  40              		.loc 1 65 50 view .LVU5
  41 0008 0040A0E1 		mov	r4, r0
  42 000c 0210A0E1 		mov	r1, r2
  43              	.LVL1:
  44              		.loc 1 70 17 view .LVU6
  45 0010 022183E0 		add	r2, r3, r2, lsl #2
  46              	.LVL2:
  47              		.loc 1 69 50 view .LVU7
  48 0014 0C3080E5 		str	r3, [r0, #12]
  49              		.loc 1 69 34 view .LVU8
  50 0018 083080E5 		str	r3, [r0, #8]
  51              		.loc 1 69 18 view .LVU9
  52 001c 003080E5 		str	r3, [r0]
  53              		.loc 1 70 3 is_stmt 1 view .LVU10
  54              		.loc 1 70 15 is_stmt 0 view .LVU11
  55 0020 042080E5 		str	r2, [r0, #4]
  56              		.loc 1 71 3 is_stmt 1 view .LVU12
  57 0024 1C0080E2 		add	r0, r0, #28
ARM GAS  /tmp/ccHILlsE.s 			page 2


  58              	.LVL3:
  59              		.loc 1 71 3 is_stmt 0 view .LVU13
  60 0028 FEFFFFEB 		bl	chSemInit
  61              	.LVL4:
  62              		.loc 1 72 3 is_stmt 1 view .LVU14
  63 002c 100084E2 		add	r0, r4, #16
  64 0030 0010A0E3 		mov	r1, #0
  65              		.loc 1 73 1 is_stmt 0 view .LVU15
  66 0034 1040BDE8 		pop	{r4, lr}
  67              		.cfi_restore 14
  68              		.cfi_restore 4
  69              		.cfi_def_cfa_offset 0
  70              	.LVL5:
  71              		.loc 1 72 3 view .LVU16
  72 0038 FEFFFFEA 		b	chSemInit
  73              	.LVL6:
  74              		.loc 1 72 3 view .LVU17
  75              		.cfi_endproc
  76              	.LFE7:
  77              		.size	chMBInit, .-chMBInit
  78              		.section	.text.chMBReset,"ax",%progbits
  79              		.align	2
  80              		.global	chMBReset
  81              		.syntax unified
  82              		.arm
  83              		.fpu softvfp
  84              		.type	chMBReset, %function
  85              	chMBReset:
  86              	.LVL7:
  87              	.LFB8:
  88              		.loc 1 84 30 is_stmt 1 view -0
  89              		.cfi_startproc
  90              		@ args = 0, pretend = 0, frame = 0
  91              		@ frame_needed = 0, uses_anonymous_args = 0
  92              		.loc 1 86 3 view .LVU19
  93              		.loc 1 86 39 view .LVU20
  94              		.loc 1 88 3 view .LVU21
  95              		.loc 1 84 30 is_stmt 0 view .LVU22
  96 0000 10402DE9 		push	{r4, lr}
  97              		.cfi_def_cfa_offset 8
  98              		.cfi_offset 4, -8
  99              		.cfi_offset 14, -4
 100              		.loc 1 84 30 view .LVU23
 101 0004 0040A0E1 		mov	r4, r0
 102              		.loc 1 88 3 view .LVU24
 103              		.syntax divided
 104              	@ 88 "../os/kernel/src/chmboxes.c" 1
 105 0008 9FF021E3 		msr     CPSR_c, #0x9F
 106              	@ 0 "" 2
 107              		.loc 1 88 3 is_stmt 1 view .LVU25
 108              		.loc 1 88 14 view .LVU26
 109              		.loc 1 89 3 view .LVU27
 110              		.loc 1 89 38 is_stmt 0 view .LVU28
 111              		.arm
 112              		.syntax unified
 113 000c 003090E5 		ldr	r3, [r0]
 114              		.loc 1 90 46 view .LVU29
ARM GAS  /tmp/ccHILlsE.s 			page 3


 115 0010 041090E5 		ldr	r1, [r0, #4]
 116              		.loc 1 89 33 view .LVU30
 117 0014 0C3080E5 		str	r3, [r0, #12]
 118              		.loc 1 90 46 view .LVU31
 119 0018 031041E0 		sub	r1, r1, r3
 120              		.loc 1 89 17 view .LVU32
 121 001c 083080E5 		str	r3, [r0, #8]
 122              		.loc 1 90 3 is_stmt 1 view .LVU33
 123 0020 4111A0E1 		asr	r1, r1, #2
 124 0024 1C0080E2 		add	r0, r0, #28
 125              	.LVL8:
 126              		.loc 1 90 3 is_stmt 0 view .LVU34
 127 0028 FEFFFFEB 		bl	chSemResetI
 128              	.LVL9:
 129              		.loc 1 91 3 is_stmt 1 view .LVU35
 130 002c 0010A0E3 		mov	r1, #0
 131 0030 100084E2 		add	r0, r4, #16
 132 0034 FEFFFFEB 		bl	chSemResetI
 133              	.LVL10:
 134              		.loc 1 92 3 view .LVU36
 135 0038 FEFFFFEB 		bl	chSchRescheduleS
 136              	.LVL11:
 137              		.loc 1 93 3 view .LVU37
 138              		.loc 1 93 3 view .LVU38
 139              		.syntax divided
 140              	@ 93 "../os/kernel/src/chmboxes.c" 1
 141 003c 1FF021E3 		msr     CPSR_c, #0x1F
 142              	@ 0 "" 2
 143              		.loc 1 93 16 view .LVU39
 144              		.loc 1 94 1 is_stmt 0 view .LVU40
 145              		.arm
 146              		.syntax unified
 147 0040 1080BDE8 		pop	{r4, pc}
 148              		.cfi_endproc
 149              	.LFE8:
 150              		.size	chMBReset, .-chMBReset
 151              		.section	.text.chMBPost,"ax",%progbits
 152              		.align	2
 153              		.global	chMBPost
 154              		.syntax unified
 155              		.arm
 156              		.fpu softvfp
 157              		.type	chMBPost, %function
 158              	chMBPost:
 159              	.LVL12:
 160              	.LFB9:
 161              		.loc 1 115 57 is_stmt 1 view -0
 162              		.cfi_startproc
 163              		@ args = 0, pretend = 0, frame = 0
 164              		@ frame_needed = 0, uses_anonymous_args = 0
 165              		.loc 1 115 57 is_stmt 0 view .LVU42
 166 0000 70402DE9 		push	{r4, r5, r6, lr}
 167              		.cfi_def_cfa_offset 16
 168              		.cfi_offset 4, -16
 169              		.cfi_offset 5, -12
 170              		.cfi_offset 6, -8
 171              		.cfi_offset 14, -4
ARM GAS  /tmp/ccHILlsE.s 			page 4


 172              		.loc 1 115 57 view .LVU43
 173 0004 0160A0E1 		mov	r6, r1
 174              		.loc 1 116 3 is_stmt 1 view .LVU44
 175              		.loc 1 118 3 view .LVU45
 176              		.loc 1 115 57 is_stmt 0 view .LVU46
 177 0008 0040A0E1 		mov	r4, r0
 178 000c 0210A0E1 		mov	r1, r2
 179              	.LVL13:
 180              		.loc 1 118 3 view .LVU47
 181              		.syntax divided
 182              	@ 118 "../os/kernel/src/chmboxes.c" 1
 183 0010 9FF021E3 		msr     CPSR_c, #0x9F
 184              	@ 0 "" 2
 185              		.loc 1 118 3 is_stmt 1 view .LVU48
 186              		.loc 1 118 14 view .LVU49
 187              		.loc 1 119 3 view .LVU50
 188              	.LVL14:
 189              		.arm
 190              		.syntax unified
 191              	.LBB12:
 192              	.LBI12:
 193              		.loc 1 143 7 view .LVU51
 194              	.LBB13:
 195              		.loc 1 144 3 view .LVU52
 196              		.loc 1 146 3 view .LVU53
 197              		.loc 1 146 21 view .LVU54
 198              		.loc 1 147 3 view .LVU55
 199              		.loc 1 147 39 view .LVU56
 200              		.loc 1 149 3 view .LVU57
 201              		.loc 1 149 12 is_stmt 0 view .LVU58
 202 0014 1C0080E2 		add	r0, r0, #28
 203              	.LVL15:
 204              		.loc 1 149 12 view .LVU59
 205 0018 FEFFFFEB 		bl	chSemWaitTimeoutS
 206              	.LVL16:
 207              		.loc 1 150 3 is_stmt 1 view .LVU60
 208              		.loc 1 150 6 is_stmt 0 view .LVU61
 209 001c 005050E2 		subs	r5, r0, #0
 210 0020 0900001A 		bne	.L7
 211              	.LVL17:
 212              	.LBB14:
 213              	.LBI14:
 214              		.loc 1 143 7 is_stmt 1 view .LVU62
 215              	.LBB15:
 216              		.loc 1 151 5 view .LVU63
 217              		.loc 1 152 8 is_stmt 0 view .LVU64
 218 0024 0A0094E9 		ldmib	r4, {r1, r3}
 219              		.loc 1 151 19 view .LVU65
 220 0028 042083E2 		add	r2, r3, #4
 221              		.loc 1 152 8 view .LVU66
 222 002c 010052E1 		cmp	r2, r1
 223              		.loc 1 151 19 view .LVU67
 224 0030 082084E5 		str	r2, [r4, #8]
 225              		.loc 1 151 22 view .LVU68
 226 0034 006083E5 		str	r6, [r3]
 227              		.loc 1 152 5 is_stmt 1 view .LVU69
 228              		.loc 1 153 7 view .LVU70
ARM GAS  /tmp/ccHILlsE.s 			page 5


 229              		.loc 1 154 5 view .LVU71
 230              		.loc 1 153 21 is_stmt 0 view .LVU72
 231 0038 00309425 		ldrcs	r3, [r4]
 232              		.loc 1 154 5 view .LVU73
 233 003c 100084E2 		add	r0, r4, #16
 234              	.LVL18:
 235              		.loc 1 153 21 view .LVU74
 236 0040 08308425 		strcs	r3, [r4, #8]
 237              		.loc 1 154 5 view .LVU75
 238 0044 FEFFFFEB 		bl	chSemSignalI
 239              	.LVL19:
 240              		.loc 1 155 5 is_stmt 1 view .LVU76
 241 0048 FEFFFFEB 		bl	chSchRescheduleS
 242              	.LVL20:
 243              	.L7:
 244              		.loc 1 155 5 is_stmt 0 view .LVU77
 245              	.LBE15:
 246              	.LBE14:
 247              		.loc 1 157 3 is_stmt 1 view .LVU78
 248              		.loc 1 157 3 is_stmt 0 view .LVU79
 249              	.LBE13:
 250              	.LBE12:
 251              		.loc 1 120 3 is_stmt 1 view .LVU80
 252              		.loc 1 120 3 view .LVU81
 253              		.syntax divided
 254              	@ 120 "../os/kernel/src/chmboxes.c" 1
 255 004c 1FF021E3 		msr     CPSR_c, #0x1F
 256              	@ 0 "" 2
 257              		.loc 1 120 16 view .LVU82
 258              		.loc 1 121 3 view .LVU83
 259              		.loc 1 122 1 is_stmt 0 view .LVU84
 260              		.arm
 261              		.syntax unified
 262 0050 0500A0E1 		mov	r0, r5
 263 0054 7080BDE8 		pop	{r4, r5, r6, pc}
 264              		.cfi_endproc
 265              	.LFE9:
 266              		.size	chMBPost, .-chMBPost
 267              		.section	.text.chMBPostS,"ax",%progbits
 268              		.align	2
 269              		.global	chMBPostS
 270              		.syntax unified
 271              		.arm
 272              		.fpu softvfp
 273              		.type	chMBPostS, %function
 274              	chMBPostS:
 275              	.LVL21:
 276              	.LFB10:
 277              		.loc 1 143 58 is_stmt 1 view -0
 278              		.cfi_startproc
 279              		@ args = 0, pretend = 0, frame = 0
 280              		@ frame_needed = 0, uses_anonymous_args = 0
 281              		.loc 1 143 58 is_stmt 0 view .LVU86
 282 0000 70402DE9 		push	{r4, r5, r6, lr}
 283              		.cfi_def_cfa_offset 16
 284              		.cfi_offset 4, -16
 285              		.cfi_offset 5, -12
ARM GAS  /tmp/ccHILlsE.s 			page 6


 286              		.cfi_offset 6, -8
 287              		.cfi_offset 14, -4
 288              		.loc 1 143 58 view .LVU87
 289 0004 0040A0E1 		mov	r4, r0
 290 0008 0160A0E1 		mov	r6, r1
 291              		.loc 1 149 12 view .LVU88
 292 000c 1C0080E2 		add	r0, r0, #28
 293              	.LVL22:
 294              		.loc 1 149 12 view .LVU89
 295 0010 0210A0E1 		mov	r1, r2
 296              	.LVL23:
 297              		.loc 1 144 3 is_stmt 1 view .LVU90
 298              		.loc 1 146 3 view .LVU91
 299              		.loc 1 146 21 view .LVU92
 300              		.loc 1 147 3 view .LVU93
 301              		.loc 1 147 39 view .LVU94
 302              		.loc 1 149 3 view .LVU95
 303              		.loc 1 149 12 is_stmt 0 view .LVU96
 304 0014 FEFFFFEB 		bl	chSemWaitTimeoutS
 305              	.LVL24:
 306              		.loc 1 150 3 is_stmt 1 view .LVU97
 307              		.loc 1 150 6 is_stmt 0 view .LVU98
 308 0018 005050E2 		subs	r5, r0, #0
 309 001c 0900001A 		bne	.L10
 310              	.LVL25:
 311              	.LBB18:
 312              	.LBI18:
 313              		.loc 1 143 7 is_stmt 1 view .LVU99
 314              	.LBB19:
 315              		.loc 1 151 5 view .LVU100
 316              		.loc 1 152 8 is_stmt 0 view .LVU101
 317 0020 0A0094E9 		ldmib	r4, {r1, r3}
 318              		.loc 1 151 19 view .LVU102
 319 0024 042083E2 		add	r2, r3, #4
 320              		.loc 1 152 8 view .LVU103
 321 0028 010052E1 		cmp	r2, r1
 322              		.loc 1 151 19 view .LVU104
 323 002c 082084E5 		str	r2, [r4, #8]
 324              		.loc 1 151 22 view .LVU105
 325 0030 006083E5 		str	r6, [r3]
 326              		.loc 1 152 5 is_stmt 1 view .LVU106
 327              		.loc 1 153 7 view .LVU107
 328              		.loc 1 154 5 view .LVU108
 329              		.loc 1 153 21 is_stmt 0 view .LVU109
 330 0034 00309425 		ldrcs	r3, [r4]
 331              		.loc 1 154 5 view .LVU110
 332 0038 100084E2 		add	r0, r4, #16
 333              	.LVL26:
 334              		.loc 1 153 21 view .LVU111
 335 003c 08308425 		strcs	r3, [r4, #8]
 336              		.loc 1 154 5 view .LVU112
 337 0040 FEFFFFEB 		bl	chSemSignalI
 338              	.LVL27:
 339              		.loc 1 155 5 is_stmt 1 view .LVU113
 340 0044 FEFFFFEB 		bl	chSchRescheduleS
 341              	.LVL28:
 342              		.loc 1 155 5 is_stmt 0 view .LVU114
ARM GAS  /tmp/ccHILlsE.s 			page 7


 343              	.LBE19:
 344              	.LBE18:
 345              		.loc 1 157 3 is_stmt 1 view .LVU115
 346              	.L10:
 347              		.loc 1 158 1 is_stmt 0 view .LVU116
 348 0048 0500A0E1 		mov	r0, r5
 349 004c 7080BDE8 		pop	{r4, r5, r6, pc}
 350              		.cfi_endproc
 351              	.LFE10:
 352              		.size	chMBPostS, .-chMBPostS
 353              		.section	.text.chMBPostI,"ax",%progbits
 354              		.align	2
 355              		.global	chMBPostI
 356              		.syntax unified
 357              		.arm
 358              		.fpu softvfp
 359              		.type	chMBPostI, %function
 360              	chMBPostI:
 361              	.LVL29:
 362              	.LFB11:
 363              		.loc 1 174 42 is_stmt 1 view -0
 364              		.cfi_startproc
 365              		@ args = 0, pretend = 0, frame = 0
 366              		@ frame_needed = 0, uses_anonymous_args = 0
 367              		.loc 1 176 3 view .LVU118
 368              		.loc 1 176 21 view .LVU119
 369              		.loc 1 177 3 view .LVU120
 370              		.loc 1 177 39 view .LVU121
 371              		.loc 1 179 3 view .LVU122
 372              		.loc 1 179 7 is_stmt 0 view .LVU123
 373 0000 243090E5 		ldr	r3, [r0, #36]
 374              		.loc 1 179 6 view .LVU124
 375 0004 000053E3 		cmp	r3, #0
 376 0008 0E0000DA 		ble	.L17
 377              		.loc 1 181 3 is_stmt 1 view .LVU125
 378              		.loc 1 182 7 is_stmt 0 view .LVU126
 379 000c 082090E5 		ldr	r2, [r0, #8]
 380              		.loc 1 174 42 view .LVU127
 381 0010 10402DE9 		push	{r4, lr}
 382              		.cfi_def_cfa_offset 8
 383              		.cfi_offset 4, -8
 384              		.cfi_offset 14, -4
 385              		.loc 1 183 6 view .LVU128
 386 0014 04E090E5 		ldr	lr, [r0, #4]
 387              		.loc 1 182 17 view .LVU129
 388 0018 04C082E2 		add	ip, r2, #4
 389              		.loc 1 181 3 view .LVU130
 390 001c 013043E2 		sub	r3, r3, #1
 391              		.loc 1 183 6 view .LVU131
 392 0020 0E005CE1 		cmp	ip, lr
 393              		.loc 1 181 3 view .LVU132
 394 0024 243080E5 		str	r3, [r0, #36]
 395              		.loc 1 182 3 is_stmt 1 view .LVU133
 396              		.loc 1 184 19 is_stmt 0 view .LVU134
 397 0028 00309025 		ldrcs	r3, [r0]
 398              		.loc 1 182 17 view .LVU135
 399 002c 08C080E5 		str	ip, [r0, #8]
ARM GAS  /tmp/ccHILlsE.s 			page 8


 400              		.loc 1 182 20 view .LVU136
 401 0030 001082E5 		str	r1, [r2]
 402              		.loc 1 183 3 is_stmt 1 view .LVU137
 403              		.loc 1 184 5 view .LVU138
 404              		.loc 1 185 3 view .LVU139
 405 0034 100080E2 		add	r0, r0, #16
 406              	.LVL30:
 407              		.loc 1 184 19 is_stmt 0 view .LVU140
 408 0038 08300025 		strcs	r3, [r0, #-8]
 409              		.loc 1 185 3 view .LVU141
 410 003c FEFFFFEB 		bl	chSemSignalI
 411              	.LVL31:
 412              		.loc 1 186 3 is_stmt 1 view .LVU142
 413              		.loc 1 186 10 is_stmt 0 view .LVU143
 414 0040 0000A0E3 		mov	r0, #0
 415              		.loc 1 187 1 view .LVU144
 416 0044 1080BDE8 		pop	{r4, pc}
 417              	.LVL32:
 418              	.L17:
 419              		.cfi_def_cfa_offset 0
 420              		.cfi_restore 4
 421              		.cfi_restore 14
 422              		.loc 1 180 12 view .LVU145
 423 0048 0000E0E3 		mvn	r0, #0
 424              	.LVL33:
 425              		.loc 1 187 1 view .LVU146
 426 004c 1EFF2FE1 		bx	lr
 427              		.cfi_endproc
 428              	.LFE11:
 429              		.size	chMBPostI, .-chMBPostI
 430              		.section	.text.chMBPostAhead,"ax",%progbits
 431              		.align	2
 432              		.global	chMBPostAhead
 433              		.syntax unified
 434              		.arm
 435              		.fpu softvfp
 436              		.type	chMBPostAhead, %function
 437              	chMBPostAhead:
 438              	.LVL34:
 439              	.LFB12:
 440              		.loc 1 208 62 is_stmt 1 view -0
 441              		.cfi_startproc
 442              		@ args = 0, pretend = 0, frame = 0
 443              		@ frame_needed = 0, uses_anonymous_args = 0
 444              		.loc 1 208 62 is_stmt 0 view .LVU148
 445 0000 70402DE9 		push	{r4, r5, r6, lr}
 446              		.cfi_def_cfa_offset 16
 447              		.cfi_offset 4, -16
 448              		.cfi_offset 5, -12
 449              		.cfi_offset 6, -8
 450              		.cfi_offset 14, -4
 451              		.loc 1 208 62 view .LVU149
 452 0004 0160A0E1 		mov	r6, r1
 453              		.loc 1 209 3 is_stmt 1 view .LVU150
 454              		.loc 1 211 3 view .LVU151
 455              		.loc 1 208 62 is_stmt 0 view .LVU152
 456 0008 0040A0E1 		mov	r4, r0
ARM GAS  /tmp/ccHILlsE.s 			page 9


 457 000c 0210A0E1 		mov	r1, r2
 458              	.LVL35:
 459              		.loc 1 211 3 view .LVU153
 460              		.syntax divided
 461              	@ 211 "../os/kernel/src/chmboxes.c" 1
 462 0010 9FF021E3 		msr     CPSR_c, #0x9F
 463              	@ 0 "" 2
 464              		.loc 1 211 3 is_stmt 1 view .LVU154
 465              		.loc 1 211 14 view .LVU155
 466              		.loc 1 212 3 view .LVU156
 467              	.LVL36:
 468              		.arm
 469              		.syntax unified
 470              	.LBB24:
 471              	.LBI24:
 472              		.loc 1 236 7 view .LVU157
 473              	.LBB25:
 474              		.loc 1 237 3 view .LVU158
 475              		.loc 1 239 3 view .LVU159
 476              		.loc 1 239 21 view .LVU160
 477              		.loc 1 240 3 view .LVU161
 478              		.loc 1 240 44 view .LVU162
 479              		.loc 1 242 3 view .LVU163
 480              		.loc 1 242 12 is_stmt 0 view .LVU164
 481 0014 1C0080E2 		add	r0, r0, #28
 482              	.LVL37:
 483              		.loc 1 242 12 view .LVU165
 484 0018 FEFFFFEB 		bl	chSemWaitTimeoutS
 485              	.LVL38:
 486              		.loc 1 243 3 is_stmt 1 view .LVU166
 487              		.loc 1 243 6 is_stmt 0 view .LVU167
 488 001c 005050E2 		subs	r5, r0, #0
 489 0020 0B00001A 		bne	.L23
 490              	.LVL39:
 491              	.LBB26:
 492              	.LBI26:
 493              		.loc 1 236 7 is_stmt 1 view .LVU168
 494              	.LBB27:
 495              		.loc 1 244 5 view .LVU169
 496              		.loc 1 244 9 is_stmt 0 view .LVU170
 497 0024 0C3094E5 		ldr	r3, [r4, #12]
 498              		.loc 1 244 8 view .LVU171
 499 0028 002094E5 		ldr	r2, [r4]
 500              		.loc 1 244 9 view .LVU172
 501 002c 043043E2 		sub	r3, r3, #4
 502              		.loc 1 244 8 view .LVU173
 503 0030 020053E1 		cmp	r3, r2
 504 0034 0C3084E5 		str	r3, [r4, #12]
 505              		.loc 1 245 7 is_stmt 1 view .LVU174
 506              		.loc 1 246 5 view .LVU175
 507              		.loc 1 245 35 is_stmt 0 view .LVU176
 508 0038 04309435 		ldrcc	r3, [r4, #4]
 509              		.loc 1 247 5 view .LVU177
 510 003c 100084E2 		add	r0, r4, #16
 511              	.LVL40:
 512              		.loc 1 245 35 view .LVU178
 513 0040 04304332 		subcc	r3, r3, #4
ARM GAS  /tmp/ccHILlsE.s 			page 10


 514              		.loc 1 245 21 view .LVU179
 515 0044 0C308435 		strcc	r3, [r4, #12]
 516              		.loc 1 246 20 view .LVU180
 517 0048 006083E5 		str	r6, [r3]
 518              		.loc 1 247 5 is_stmt 1 view .LVU181
 519 004c FEFFFFEB 		bl	chSemSignalI
 520              	.LVL41:
 521              		.loc 1 248 5 view .LVU182
 522 0050 FEFFFFEB 		bl	chSchRescheduleS
 523              	.LVL42:
 524              	.L23:
 525              		.loc 1 248 5 is_stmt 0 view .LVU183
 526              	.LBE27:
 527              	.LBE26:
 528              		.loc 1 250 3 is_stmt 1 view .LVU184
 529              		.loc 1 250 3 is_stmt 0 view .LVU185
 530              	.LBE25:
 531              	.LBE24:
 532              		.loc 1 213 3 is_stmt 1 view .LVU186
 533              		.loc 1 213 3 view .LVU187
 534              		.syntax divided
 535              	@ 213 "../os/kernel/src/chmboxes.c" 1
 536 0054 1FF021E3 		msr     CPSR_c, #0x1F
 537              	@ 0 "" 2
 538              		.loc 1 213 16 view .LVU188
 539              		.loc 1 214 3 view .LVU189
 540              		.loc 1 215 1 is_stmt 0 view .LVU190
 541              		.arm
 542              		.syntax unified
 543 0058 0500A0E1 		mov	r0, r5
 544 005c 7080BDE8 		pop	{r4, r5, r6, pc}
 545              		.cfi_endproc
 546              	.LFE12:
 547              		.size	chMBPostAhead, .-chMBPostAhead
 548              		.section	.text.chMBPostAheadS,"ax",%progbits
 549              		.align	2
 550              		.global	chMBPostAheadS
 551              		.syntax unified
 552              		.arm
 553              		.fpu softvfp
 554              		.type	chMBPostAheadS, %function
 555              	chMBPostAheadS:
 556              	.LVL43:
 557              	.LFB13:
 558              		.loc 1 236 63 is_stmt 1 view -0
 559              		.cfi_startproc
 560              		@ args = 0, pretend = 0, frame = 0
 561              		@ frame_needed = 0, uses_anonymous_args = 0
 562              		.loc 1 236 63 is_stmt 0 view .LVU192
 563 0000 70402DE9 		push	{r4, r5, r6, lr}
 564              		.cfi_def_cfa_offset 16
 565              		.cfi_offset 4, -16
 566              		.cfi_offset 5, -12
 567              		.cfi_offset 6, -8
 568              		.cfi_offset 14, -4
 569              		.loc 1 236 63 view .LVU193
 570 0004 0040A0E1 		mov	r4, r0
ARM GAS  /tmp/ccHILlsE.s 			page 11


 571 0008 0160A0E1 		mov	r6, r1
 572              		.loc 1 242 12 view .LVU194
 573 000c 1C0080E2 		add	r0, r0, #28
 574              	.LVL44:
 575              		.loc 1 242 12 view .LVU195
 576 0010 0210A0E1 		mov	r1, r2
 577              	.LVL45:
 578              		.loc 1 237 3 is_stmt 1 view .LVU196
 579              		.loc 1 239 3 view .LVU197
 580              		.loc 1 239 21 view .LVU198
 581              		.loc 1 240 3 view .LVU199
 582              		.loc 1 240 44 view .LVU200
 583              		.loc 1 242 3 view .LVU201
 584              		.loc 1 242 12 is_stmt 0 view .LVU202
 585 0014 FEFFFFEB 		bl	chSemWaitTimeoutS
 586              	.LVL46:
 587              		.loc 1 243 3 is_stmt 1 view .LVU203
 588              		.loc 1 243 6 is_stmt 0 view .LVU204
 589 0018 005050E2 		subs	r5, r0, #0
 590 001c 0B00001A 		bne	.L26
 591              	.LVL47:
 592              	.LBB30:
 593              	.LBI30:
 594              		.loc 1 236 7 is_stmt 1 view .LVU205
 595              	.LBB31:
 596              		.loc 1 244 5 view .LVU206
 597              		.loc 1 244 9 is_stmt 0 view .LVU207
 598 0020 0C3094E5 		ldr	r3, [r4, #12]
 599              		.loc 1 244 8 view .LVU208
 600 0024 002094E5 		ldr	r2, [r4]
 601              		.loc 1 244 9 view .LVU209
 602 0028 043043E2 		sub	r3, r3, #4
 603              		.loc 1 244 8 view .LVU210
 604 002c 020053E1 		cmp	r3, r2
 605 0030 0C3084E5 		str	r3, [r4, #12]
 606              		.loc 1 245 7 is_stmt 1 view .LVU211
 607              		.loc 1 246 5 view .LVU212
 608              		.loc 1 245 35 is_stmt 0 view .LVU213
 609 0034 04309435 		ldrcc	r3, [r4, #4]
 610              		.loc 1 247 5 view .LVU214
 611 0038 100084E2 		add	r0, r4, #16
 612              	.LVL48:
 613              		.loc 1 245 35 view .LVU215
 614 003c 04304332 		subcc	r3, r3, #4
 615              		.loc 1 245 21 view .LVU216
 616 0040 0C308435 		strcc	r3, [r4, #12]
 617              		.loc 1 246 20 view .LVU217
 618 0044 006083E5 		str	r6, [r3]
 619              		.loc 1 247 5 is_stmt 1 view .LVU218
 620 0048 FEFFFFEB 		bl	chSemSignalI
 621              	.LVL49:
 622              		.loc 1 248 5 view .LVU219
 623 004c FEFFFFEB 		bl	chSchRescheduleS
 624              	.LVL50:
 625              		.loc 1 248 5 is_stmt 0 view .LVU220
 626              	.LBE31:
 627              	.LBE30:
ARM GAS  /tmp/ccHILlsE.s 			page 12


 628              		.loc 1 250 3 is_stmt 1 view .LVU221
 629              	.L26:
 630              		.loc 1 251 1 is_stmt 0 view .LVU222
 631 0050 0500A0E1 		mov	r0, r5
 632 0054 7080BDE8 		pop	{r4, r5, r6, pc}
 633              		.cfi_endproc
 634              	.LFE13:
 635              		.size	chMBPostAheadS, .-chMBPostAheadS
 636              		.section	.text.chMBPostAheadI,"ax",%progbits
 637              		.align	2
 638              		.global	chMBPostAheadI
 639              		.syntax unified
 640              		.arm
 641              		.fpu softvfp
 642              		.type	chMBPostAheadI, %function
 643              	chMBPostAheadI:
 644              	.LVL51:
 645              	.LFB14:
 646              		.loc 1 267 47 is_stmt 1 view -0
 647              		.cfi_startproc
 648              		@ args = 0, pretend = 0, frame = 0
 649              		@ frame_needed = 0, uses_anonymous_args = 0
 650              		.loc 1 269 3 view .LVU224
 651              		.loc 1 269 21 view .LVU225
 652              		.loc 1 270 3 view .LVU226
 653              		.loc 1 270 44 view .LVU227
 654              		.loc 1 272 3 view .LVU228
 655              		.loc 1 272 7 is_stmt 0 view .LVU229
 656 0000 242090E5 		ldr	r2, [r0, #36]
 657              		.loc 1 272 6 view .LVU230
 658 0004 000052E3 		cmp	r2, #0
 659 0008 0F0000DA 		ble	.L33
 660              		.loc 1 274 3 is_stmt 1 view .LVU231
 661              		.loc 1 275 7 is_stmt 0 view .LVU232
 662 000c 0C3090E5 		ldr	r3, [r0, #12]
 663              		.loc 1 275 6 view .LVU233
 664 0010 00C090E5 		ldr	ip, [r0]
 665              		.loc 1 275 7 view .LVU234
 666 0014 043043E2 		sub	r3, r3, #4
 667              		.loc 1 275 6 view .LVU235
 668 0018 0C0053E1 		cmp	r3, ip
 669              		.loc 1 267 47 view .LVU236
 670 001c 10402DE9 		push	{r4, lr}
 671              		.cfi_def_cfa_offset 8
 672              		.cfi_offset 4, -8
 673              		.cfi_offset 14, -4
 674              		.loc 1 275 6 view .LVU237
 675 0020 0C3080E5 		str	r3, [r0, #12]
 676              		.loc 1 276 33 view .LVU238
 677 0024 04309035 		ldrcc	r3, [r0, #4]
 678              		.loc 1 274 3 view .LVU239
 679 0028 012042E2 		sub	r2, r2, #1
 680              		.loc 1 276 33 view .LVU240
 681 002c 04304332 		subcc	r3, r3, #4
 682              		.loc 1 274 3 view .LVU241
 683 0030 242080E5 		str	r2, [r0, #36]
 684              		.loc 1 275 3 is_stmt 1 view .LVU242
ARM GAS  /tmp/ccHILlsE.s 			page 13


 685              		.loc 1 276 5 view .LVU243
 686              		.loc 1 277 3 view .LVU244
 687              		.loc 1 276 19 is_stmt 0 view .LVU245
 688 0034 0C308035 		strcc	r3, [r0, #12]
 689              		.loc 1 277 18 view .LVU246
 690 0038 001083E5 		str	r1, [r3]
 691              		.loc 1 278 3 is_stmt 1 view .LVU247
 692 003c 100080E2 		add	r0, r0, #16
 693              	.LVL52:
 694              		.loc 1 278 3 is_stmt 0 view .LVU248
 695 0040 FEFFFFEB 		bl	chSemSignalI
 696              	.LVL53:
 697              		.loc 1 279 3 is_stmt 1 view .LVU249
 698              		.loc 1 279 10 is_stmt 0 view .LVU250
 699 0044 0000A0E3 		mov	r0, #0
 700              		.loc 1 280 1 view .LVU251
 701 0048 1080BDE8 		pop	{r4, pc}
 702              	.LVL54:
 703              	.L33:
 704              		.cfi_def_cfa_offset 0
 705              		.cfi_restore 4
 706              		.cfi_restore 14
 707              		.loc 1 273 12 view .LVU252
 708 004c 0000E0E3 		mvn	r0, #0
 709              	.LVL55:
 710              		.loc 1 280 1 view .LVU253
 711 0050 1EFF2FE1 		bx	lr
 712              		.cfi_endproc
 713              	.LFE14:
 714              		.size	chMBPostAheadI, .-chMBPostAheadI
 715              		.section	.text.chMBFetch,"ax",%progbits
 716              		.align	2
 717              		.global	chMBFetch
 718              		.syntax unified
 719              		.arm
 720              		.fpu softvfp
 721              		.type	chMBFetch, %function
 722              	chMBFetch:
 723              	.LVL56:
 724              	.LFB15:
 725              		.loc 1 301 60 is_stmt 1 view -0
 726              		.cfi_startproc
 727              		@ args = 0, pretend = 0, frame = 0
 728              		@ frame_needed = 0, uses_anonymous_args = 0
 729              		.loc 1 301 60 is_stmt 0 view .LVU255
 730 0000 70402DE9 		push	{r4, r5, r6, lr}
 731              		.cfi_def_cfa_offset 16
 732              		.cfi_offset 4, -16
 733              		.cfi_offset 5, -12
 734              		.cfi_offset 6, -8
 735              		.cfi_offset 14, -4
 736              		.loc 1 301 60 view .LVU256
 737 0004 0160A0E1 		mov	r6, r1
 738              		.loc 1 302 3 is_stmt 1 view .LVU257
 739              		.loc 1 304 3 view .LVU258
 740              		.loc 1 301 60 is_stmt 0 view .LVU259
 741 0008 0040A0E1 		mov	r4, r0
ARM GAS  /tmp/ccHILlsE.s 			page 14


 742 000c 0210A0E1 		mov	r1, r2
 743              	.LVL57:
 744              		.loc 1 304 3 view .LVU260
 745              		.syntax divided
 746              	@ 304 "../os/kernel/src/chmboxes.c" 1
 747 0010 9FF021E3 		msr     CPSR_c, #0x9F
 748              	@ 0 "" 2
 749              		.loc 1 304 3 is_stmt 1 view .LVU261
 750              		.loc 1 304 14 view .LVU262
 751              		.loc 1 305 3 view .LVU263
 752              	.LVL58:
 753              		.arm
 754              		.syntax unified
 755              	.LBB36:
 756              	.LBI36:
 757              		.loc 1 329 7 view .LVU264
 758              	.LBB37:
 759              		.loc 1 330 3 view .LVU265
 760              		.loc 1 332 3 view .LVU266
 761              		.loc 1 332 21 view .LVU267
 762              		.loc 1 333 3 view .LVU268
 763              		.loc 1 333 60 view .LVU269
 764              		.loc 1 335 3 view .LVU270
 765              		.loc 1 335 12 is_stmt 0 view .LVU271
 766 0014 100080E2 		add	r0, r0, #16
 767              	.LVL59:
 768              		.loc 1 335 12 view .LVU272
 769 0018 FEFFFFEB 		bl	chSemWaitTimeoutS
 770              	.LVL60:
 771              		.loc 1 336 3 is_stmt 1 view .LVU273
 772              		.loc 1 336 6 is_stmt 0 view .LVU274
 773 001c 005050E2 		subs	r5, r0, #0
 774 0020 0B00001A 		bne	.L39
 775              	.LVL61:
 776              	.LBB38:
 777              	.LBI38:
 778              		.loc 1 329 7 is_stmt 1 view .LVU275
 779              	.LBB39:
 780              		.loc 1 337 5 view .LVU276
 781              		.loc 1 337 17 is_stmt 0 view .LVU277
 782 0024 0C2094E5 		ldr	r2, [r4, #12]
 783              		.loc 1 338 8 view .LVU278
 784 0028 041094E5 		ldr	r1, [r4, #4]
 785              		.loc 1 337 27 view .LVU279
 786 002c 043082E2 		add	r3, r2, #4
 787              		.loc 1 338 8 view .LVU280
 788 0030 010053E1 		cmp	r3, r1
 789              		.loc 1 337 13 view .LVU281
 790 0034 002092E5 		ldr	r2, [r2]
 791              		.loc 1 337 27 view .LVU282
 792 0038 0C3084E5 		str	r3, [r4, #12]
 793              		.loc 1 339 21 view .LVU283
 794 003c 00309425 		ldrcs	r3, [r4]
 795              		.loc 1 337 11 view .LVU284
 796 0040 002086E5 		str	r2, [r6]
 797              		.loc 1 338 5 is_stmt 1 view .LVU285
 798              		.loc 1 339 7 view .LVU286
ARM GAS  /tmp/ccHILlsE.s 			page 15


 799              		.loc 1 340 5 view .LVU287
 800 0044 1C0084E2 		add	r0, r4, #28
 801              	.LVL62:
 802              		.loc 1 339 21 is_stmt 0 view .LVU288
 803 0048 0C308425 		strcs	r3, [r4, #12]
 804              		.loc 1 340 5 view .LVU289
 805 004c FEFFFFEB 		bl	chSemSignalI
 806              	.LVL63:
 807              		.loc 1 341 5 is_stmt 1 view .LVU290
 808 0050 FEFFFFEB 		bl	chSchRescheduleS
 809              	.LVL64:
 810              	.L39:
 811              		.loc 1 341 5 is_stmt 0 view .LVU291
 812              	.LBE39:
 813              	.LBE38:
 814              		.loc 1 343 3 is_stmt 1 view .LVU292
 815              		.loc 1 343 3 is_stmt 0 view .LVU293
 816              	.LBE37:
 817              	.LBE36:
 818              		.loc 1 306 3 is_stmt 1 view .LVU294
 819              		.loc 1 306 3 view .LVU295
 820              		.syntax divided
 821              	@ 306 "../os/kernel/src/chmboxes.c" 1
 822 0054 1FF021E3 		msr     CPSR_c, #0x1F
 823              	@ 0 "" 2
 824              		.loc 1 306 16 view .LVU296
 825              		.loc 1 307 3 view .LVU297
 826              		.loc 1 308 1 is_stmt 0 view .LVU298
 827              		.arm
 828              		.syntax unified
 829 0058 0500A0E1 		mov	r0, r5
 830 005c 7080BDE8 		pop	{r4, r5, r6, pc}
 831              		.cfi_endproc
 832              	.LFE15:
 833              		.size	chMBFetch, .-chMBFetch
 834              		.section	.text.chMBFetchS,"ax",%progbits
 835              		.align	2
 836              		.global	chMBFetchS
 837              		.syntax unified
 838              		.arm
 839              		.fpu softvfp
 840              		.type	chMBFetchS, %function
 841              	chMBFetchS:
 842              	.LVL65:
 843              	.LFB16:
 844              		.loc 1 329 61 is_stmt 1 view -0
 845              		.cfi_startproc
 846              		@ args = 0, pretend = 0, frame = 0
 847              		@ frame_needed = 0, uses_anonymous_args = 0
 848              		.loc 1 329 61 is_stmt 0 view .LVU300
 849 0000 70402DE9 		push	{r4, r5, r6, lr}
 850              		.cfi_def_cfa_offset 16
 851              		.cfi_offset 4, -16
 852              		.cfi_offset 5, -12
 853              		.cfi_offset 6, -8
 854              		.cfi_offset 14, -4
 855              		.loc 1 329 61 view .LVU301
ARM GAS  /tmp/ccHILlsE.s 			page 16


 856 0004 0040A0E1 		mov	r4, r0
 857 0008 0160A0E1 		mov	r6, r1
 858              		.loc 1 335 12 view .LVU302
 859 000c 100080E2 		add	r0, r0, #16
 860              	.LVL66:
 861              		.loc 1 335 12 view .LVU303
 862 0010 0210A0E1 		mov	r1, r2
 863              	.LVL67:
 864              		.loc 1 330 3 is_stmt 1 view .LVU304
 865              		.loc 1 332 3 view .LVU305
 866              		.loc 1 332 21 view .LVU306
 867              		.loc 1 333 3 view .LVU307
 868              		.loc 1 333 60 view .LVU308
 869              		.loc 1 335 3 view .LVU309
 870              		.loc 1 335 12 is_stmt 0 view .LVU310
 871 0014 FEFFFFEB 		bl	chSemWaitTimeoutS
 872              	.LVL68:
 873              		.loc 1 336 3 is_stmt 1 view .LVU311
 874              		.loc 1 336 6 is_stmt 0 view .LVU312
 875 0018 005050E2 		subs	r5, r0, #0
 876 001c 0B00001A 		bne	.L42
 877              	.LVL69:
 878              	.LBB42:
 879              	.LBI42:
 880              		.loc 1 329 7 is_stmt 1 view .LVU313
 881              	.LBB43:
 882              		.loc 1 337 5 view .LVU314
 883              		.loc 1 337 17 is_stmt 0 view .LVU315
 884 0020 0C2094E5 		ldr	r2, [r4, #12]
 885              		.loc 1 338 8 view .LVU316
 886 0024 041094E5 		ldr	r1, [r4, #4]
 887              		.loc 1 337 27 view .LVU317
 888 0028 043082E2 		add	r3, r2, #4
 889              		.loc 1 338 8 view .LVU318
 890 002c 010053E1 		cmp	r3, r1
 891              		.loc 1 337 13 view .LVU319
 892 0030 002092E5 		ldr	r2, [r2]
 893              		.loc 1 337 27 view .LVU320
 894 0034 0C3084E5 		str	r3, [r4, #12]
 895              		.loc 1 339 21 view .LVU321
 896 0038 00309425 		ldrcs	r3, [r4]
 897              		.loc 1 337 11 view .LVU322
 898 003c 002086E5 		str	r2, [r6]
 899              		.loc 1 338 5 is_stmt 1 view .LVU323
 900              		.loc 1 339 7 view .LVU324
 901              		.loc 1 340 5 view .LVU325
 902 0040 1C0084E2 		add	r0, r4, #28
 903              	.LVL70:
 904              		.loc 1 339 21 is_stmt 0 view .LVU326
 905 0044 0C308425 		strcs	r3, [r4, #12]
 906              		.loc 1 340 5 view .LVU327
 907 0048 FEFFFFEB 		bl	chSemSignalI
 908              	.LVL71:
 909              		.loc 1 341 5 is_stmt 1 view .LVU328
 910 004c FEFFFFEB 		bl	chSchRescheduleS
 911              	.LVL72:
 912              		.loc 1 341 5 is_stmt 0 view .LVU329
ARM GAS  /tmp/ccHILlsE.s 			page 17


 913              	.LBE43:
 914              	.LBE42:
 915              		.loc 1 343 3 is_stmt 1 view .LVU330
 916              	.L42:
 917              		.loc 1 344 1 is_stmt 0 view .LVU331
 918 0050 0500A0E1 		mov	r0, r5
 919 0054 7080BDE8 		pop	{r4, r5, r6, pc}
 920              		.cfi_endproc
 921              	.LFE16:
 922              		.size	chMBFetchS, .-chMBFetchS
 923              		.section	.text.chMBFetchI,"ax",%progbits
 924              		.align	2
 925              		.global	chMBFetchI
 926              		.syntax unified
 927              		.arm
 928              		.fpu softvfp
 929              		.type	chMBFetchI, %function
 930              	chMBFetchI:
 931              	.LVL73:
 932              	.LFB17:
 933              		.loc 1 360 45 is_stmt 1 view -0
 934              		.cfi_startproc
 935              		@ args = 0, pretend = 0, frame = 0
 936              		@ frame_needed = 0, uses_anonymous_args = 0
 937              		.loc 1 362 3 view .LVU333
 938              		.loc 1 362 21 view .LVU334
 939              		.loc 1 363 3 view .LVU335
 940              		.loc 1 363 60 view .LVU336
 941              		.loc 1 365 3 view .LVU337
 942              		.loc 1 365 7 is_stmt 0 view .LVU338
 943 0000 183090E5 		ldr	r3, [r0, #24]
 944              		.loc 1 365 6 view .LVU339
 945 0004 000053E3 		cmp	r3, #0
 946 0008 0F0000DA 		ble	.L49
 947              		.loc 1 367 3 is_stmt 1 view .LVU340
 948 000c 012043E2 		sub	r2, r3, #1
 949              		.loc 1 368 15 is_stmt 0 view .LVU341
 950 0010 0C3090E5 		ldr	r3, [r0, #12]
 951              		.loc 1 369 6 view .LVU342
 952 0014 04C090E5 		ldr	ip, [r0, #4]
 953              		.loc 1 360 45 view .LVU343
 954 0018 10402DE9 		push	{r4, lr}
 955              		.cfi_def_cfa_offset 8
 956              		.cfi_offset 4, -8
 957              		.cfi_offset 14, -4
 958              		.loc 1 367 3 view .LVU344
 959 001c 182080E5 		str	r2, [r0, #24]
 960              		.loc 1 368 3 is_stmt 1 view .LVU345
 961              		.loc 1 368 11 is_stmt 0 view .LVU346
 962 0020 002093E5 		ldr	r2, [r3]
 963              		.loc 1 368 25 view .LVU347
 964 0024 043083E2 		add	r3, r3, #4
 965              		.loc 1 369 6 view .LVU348
 966 0028 0C0053E1 		cmp	r3, ip
 967              		.loc 1 368 25 view .LVU349
 968 002c 0C3080E5 		str	r3, [r0, #12]
 969              		.loc 1 370 19 view .LVU350
ARM GAS  /tmp/ccHILlsE.s 			page 18


 970 0030 00309025 		ldrcs	r3, [r0]
 971              		.loc 1 368 9 view .LVU351
 972 0034 002081E5 		str	r2, [r1]
 973              		.loc 1 369 3 is_stmt 1 view .LVU352
 974              		.loc 1 370 5 view .LVU353
 975              		.loc 1 371 3 view .LVU354
 976 0038 1C0080E2 		add	r0, r0, #28
 977              	.LVL74:
 978              		.loc 1 370 19 is_stmt 0 view .LVU355
 979 003c 10300025 		strcs	r3, [r0, #-16]
 980              		.loc 1 371 3 view .LVU356
 981 0040 FEFFFFEB 		bl	chSemSignalI
 982              	.LVL75:
 983              		.loc 1 372 3 is_stmt 1 view .LVU357
 984              		.loc 1 372 10 is_stmt 0 view .LVU358
 985 0044 0000A0E3 		mov	r0, #0
 986              		.loc 1 373 1 view .LVU359
 987 0048 1080BDE8 		pop	{r4, pc}
 988              	.LVL76:
 989              	.L49:
 990              		.cfi_def_cfa_offset 0
 991              		.cfi_restore 4
 992              		.cfi_restore 14
 993              		.loc 1 366 12 view .LVU360
 994 004c 0000E0E3 		mvn	r0, #0
 995              	.LVL77:
 996              		.loc 1 373 1 view .LVU361
 997 0050 1EFF2FE1 		bx	lr
 998              		.cfi_endproc
 999              	.LFE17:
 1000              		.size	chMBFetchI, .-chMBFetchI
 1001              		.text
 1002              	.Letext0:
 1003              		.file 2 "/usr/lib/gcc/arm-none-eabi/9.2.1/include/stdint.h"
 1004              		.file 3 "../os/ports/GCC/ARM/chtypes.h"
 1005              		.file 4 "../os/kernel/include/chlists.h"
 1006              		.file 5 "../os/kernel/include/chthreads.h"
 1007              		.file 6 "../os/ports/GCC/ARM/chcore.h"
 1008              		.file 7 "../os/kernel/include/chvt.h"
 1009              		.file 8 "../os/kernel/include/chschd.h"
 1010              		.file 9 "../os/kernel/include/chsem.h"
 1011              		.file 10 "../os/kernel/include/chmtx.h"
 1012              		.file 11 "../os/kernel/include/chmboxes.h"
 1013              		.file 12 "../os/kernel/include/chregistry.h"
 1014              		.file 13 "../os/kernel/include/ch.h"
 1015              		.section	.debug_info,"",%progbits
 1016              	.Ldebug_info0:
 1017 0000 B70F0000 		.4byte	0xfb7
 1018 0004 0400     		.2byte	0x4
 1019 0006 00000000 		.4byte	.Ldebug_abbrev0
 1020 000a 04       		.byte	0x4
 1021 000b 01       		.uleb128 0x1
 1022 000c 3C000000 		.4byte	.LASF123
 1023 0010 0C       		.byte	0xc
 1024 0011 13000000 		.4byte	.LASF124
 1025 0015 A9040000 		.4byte	.LASF125
 1026 0019 00000000 		.4byte	.Ldebug_ranges0+0
ARM GAS  /tmp/ccHILlsE.s 			page 19


 1027 001d 00000000 		.4byte	0
 1028 0021 00000000 		.4byte	.Ldebug_line0
 1029 0025 02       		.uleb128 0x2
 1030 0026 04       		.byte	0x4
 1031 0027 05       		.byte	0x5
 1032 0028 696E7400 		.ascii	"int\000"
 1033 002c 03       		.uleb128 0x3
 1034 002d 04       		.byte	0x4
 1035 002e 07       		.byte	0x7
 1036 002f 73020000 		.4byte	.LASF0
 1037 0033 03       		.uleb128 0x3
 1038 0034 01       		.byte	0x1
 1039 0035 06       		.byte	0x6
 1040 0036 C3010000 		.4byte	.LASF1
 1041 003a 03       		.uleb128 0x3
 1042 003b 02       		.byte	0x2
 1043 003c 05       		.byte	0x5
 1044 003d 03040000 		.4byte	.LASF2
 1045 0041 04       		.uleb128 0x4
 1046 0042 DC030000 		.4byte	.LASF5
 1047 0046 02       		.byte	0x2
 1048 0047 28       		.byte	0x28
 1049 0048 18       		.byte	0x18
 1050 0049 4D000000 		.4byte	0x4d
 1051 004d 03       		.uleb128 0x3
 1052 004e 04       		.byte	0x4
 1053 004f 05       		.byte	0x5
 1054 0050 FE010000 		.4byte	.LASF3
 1055 0054 03       		.uleb128 0x3
 1056 0055 08       		.byte	0x8
 1057 0056 05       		.byte	0x5
 1058 0057 B5010000 		.4byte	.LASF4
 1059 005b 04       		.uleb128 0x4
 1060 005c BE050000 		.4byte	.LASF6
 1061 0060 02       		.byte	0x2
 1062 0061 2E       		.byte	0x2e
 1063 0062 18       		.byte	0x18
 1064 0063 67000000 		.4byte	0x67
 1065 0067 03       		.uleb128 0x3
 1066 0068 01       		.byte	0x1
 1067 0069 08       		.byte	0x8
 1068 006a E4030000 		.4byte	.LASF7
 1069 006e 04       		.uleb128 0x4
 1070 006f 10020000 		.4byte	.LASF8
 1071 0073 02       		.byte	0x2
 1072 0074 31       		.byte	0x31
 1073 0075 19       		.byte	0x19
 1074 0076 7A000000 		.4byte	0x7a
 1075 007a 03       		.uleb128 0x3
 1076 007b 02       		.byte	0x2
 1077 007c 07       		.byte	0x7
 1078 007d CB020000 		.4byte	.LASF9
 1079 0081 04       		.uleb128 0x4
 1080 0082 7F040000 		.4byte	.LASF10
 1081 0086 02       		.byte	0x2
 1082 0087 34       		.byte	0x34
 1083 0088 19       		.byte	0x19
ARM GAS  /tmp/ccHILlsE.s 			page 20


 1084 0089 8D000000 		.4byte	0x8d
 1085 008d 03       		.uleb128 0x3
 1086 008e 04       		.byte	0x4
 1087 008f 07       		.byte	0x7
 1088 0090 88020000 		.4byte	.LASF11
 1089 0094 03       		.uleb128 0x3
 1090 0095 08       		.byte	0x8
 1091 0096 07       		.byte	0x7
 1092 0097 52010000 		.4byte	.LASF12
 1093 009b 04       		.uleb128 0x4
 1094 009c FA020000 		.4byte	.LASF13
 1095 00a0 03       		.byte	0x3
 1096 00a1 2A       		.byte	0x2a
 1097 00a2 19       		.byte	0x19
 1098 00a3 5B000000 		.4byte	0x5b
 1099 00a7 04       		.uleb128 0x4
 1100 00a8 07020000 		.4byte	.LASF14
 1101 00ac 03       		.byte	0x3
 1102 00ad 2B       		.byte	0x2b
 1103 00ae 19       		.byte	0x19
 1104 00af 5B000000 		.4byte	0x5b
 1105 00b3 04       		.uleb128 0x4
 1106 00b4 BA030000 		.4byte	.LASF15
 1107 00b8 03       		.byte	0x3
 1108 00b9 2C       		.byte	0x2c
 1109 00ba 19       		.byte	0x19
 1110 00bb 5B000000 		.4byte	0x5b
 1111 00bf 04       		.uleb128 0x4
 1112 00c0 F4010000 		.4byte	.LASF16
 1113 00c4 03       		.byte	0x3
 1114 00c5 2D       		.byte	0x2d
 1115 00c6 19       		.byte	0x19
 1116 00c7 5B000000 		.4byte	0x5b
 1117 00cb 04       		.uleb128 0x4
 1118 00cc D4030000 		.4byte	.LASF17
 1119 00d0 03       		.byte	0x3
 1120 00d1 2E       		.byte	0x2e
 1121 00d2 19       		.byte	0x19
 1122 00d3 81000000 		.4byte	0x81
 1123 00d7 04       		.uleb128 0x4
 1124 00d8 E9020000 		.4byte	.LASF18
 1125 00dc 03       		.byte	0x3
 1126 00dd 2F       		.byte	0x2f
 1127 00de 19       		.byte	0x19
 1128 00df 41000000 		.4byte	0x41
 1129 00e3 04       		.uleb128 0x4
 1130 00e4 0E030000 		.4byte	.LASF19
 1131 00e8 03       		.byte	0x3
 1132 00e9 31       		.byte	0x31
 1133 00ea 19       		.byte	0x19
 1134 00eb 81000000 		.4byte	0x81
 1135 00ef 04       		.uleb128 0x4
 1136 00f0 25050000 		.4byte	.LASF20
 1137 00f4 03       		.byte	0x3
 1138 00f5 33       		.byte	0x33
 1139 00f6 19       		.byte	0x19
 1140 00f7 81000000 		.4byte	0x81
ARM GAS  /tmp/ccHILlsE.s 			page 21


 1141 00fb 05       		.uleb128 0x5
 1142 00fc EF000000 		.4byte	0xef
 1143 0100 04       		.uleb128 0x4
 1144 0101 6D020000 		.4byte	.LASF21
 1145 0105 03       		.byte	0x3
 1146 0106 34       		.byte	0x34
 1147 0107 19       		.byte	0x19
 1148 0108 41000000 		.4byte	0x41
 1149 010c 04       		.uleb128 0x4
 1150 010d 60040000 		.4byte	.LASF22
 1151 0111 04       		.byte	0x4
 1152 0112 23       		.byte	0x23
 1153 0113 17       		.byte	0x17
 1154 0114 18010000 		.4byte	0x118
 1155 0118 06       		.uleb128 0x6
 1156 0119 60040000 		.4byte	.LASF22
 1157 011d 44       		.byte	0x44
 1158 011e 05       		.byte	0x5
 1159 011f 57       		.byte	0x57
 1160 0120 08       		.byte	0x8
 1161 0121 1D020000 		.4byte	0x21d
 1162 0125 07       		.uleb128 0x7
 1163 0126 39040000 		.4byte	.LASF23
 1164 012a 05       		.byte	0x5
 1165 012b 58       		.byte	0x58
 1166 012c 1A       		.byte	0x1a
 1167 012d 41020000 		.4byte	0x241
 1168 0131 00       		.byte	0
 1169 0132 07       		.uleb128 0x7
 1170 0133 CD030000 		.4byte	.LASF24
 1171 0137 05       		.byte	0x5
 1172 0138 5A       		.byte	0x5a
 1173 0139 1A       		.byte	0x1a
 1174 013a 41020000 		.4byte	0x241
 1175 013e 04       		.byte	0x4
 1176 013f 07       		.uleb128 0x7
 1177 0140 A1010000 		.4byte	.LASF25
 1178 0144 05       		.byte	0x5
 1179 0145 5C       		.byte	0x5c
 1180 0146 19       		.byte	0x19
 1181 0147 CB000000 		.4byte	0xcb
 1182 014b 08       		.byte	0x8
 1183 014c 07       		.uleb128 0x7
 1184 014d F9050000 		.4byte	.LASF26
 1185 0151 05       		.byte	0x5
 1186 0152 5D       		.byte	0x5d
 1187 0153 19       		.byte	0x19
 1188 0154 0C030000 		.4byte	0x30c
 1189 0158 0C       		.byte	0xc
 1190 0159 07       		.uleb128 0x7
 1191 015a 23020000 		.4byte	.LASF27
 1192 015e 05       		.byte	0x5
 1193 015f 5F       		.byte	0x5f
 1194 0160 1A       		.byte	0x1a
 1195 0161 41020000 		.4byte	0x241
 1196 0165 10       		.byte	0x10
 1197 0166 07       		.uleb128 0x7
ARM GAS  /tmp/ccHILlsE.s 			page 22


 1198 0167 76030000 		.4byte	.LASF28
 1199 016b 05       		.byte	0x5
 1200 016c 60       		.byte	0x60
 1201 016d 1A       		.byte	0x1a
 1202 016e 41020000 		.4byte	0x241
 1203 0172 14       		.byte	0x14
 1204 0173 07       		.uleb128 0x7
 1205 0174 CD050000 		.4byte	.LASF29
 1206 0178 05       		.byte	0x5
 1207 0179 67       		.byte	0x67
 1208 017a 1A       		.byte	0x1a
 1209 017b 90050000 		.4byte	0x590
 1210 017f 18       		.byte	0x18
 1211 0180 07       		.uleb128 0x7
 1212 0181 0D040000 		.4byte	.LASF30
 1213 0185 05       		.byte	0x5
 1214 0186 72       		.byte	0x72
 1215 0187 19       		.byte	0x19
 1216 0188 A7000000 		.4byte	0xa7
 1217 018c 1C       		.byte	0x1c
 1218 018d 07       		.uleb128 0x7
 1219 018e 4F040000 		.4byte	.LASF31
 1220 0192 05       		.byte	0x5
 1221 0193 76       		.byte	0x76
 1222 0194 19       		.byte	0x19
 1223 0195 9B000000 		.4byte	0x9b
 1224 0199 1D       		.byte	0x1d
 1225 019a 07       		.uleb128 0x7
 1226 019b 9B050000 		.4byte	.LASF32
 1227 019f 05       		.byte	0x5
 1228 01a0 7B       		.byte	0x7b
 1229 01a1 19       		.byte	0x19
 1230 01a2 B3000000 		.4byte	0xb3
 1231 01a6 1E       		.byte	0x1e
 1232 01a7 07       		.uleb128 0x7
 1233 01a8 15040000 		.4byte	.LASF33
 1234 01ac 05       		.byte	0x5
 1235 01ad 81       		.byte	0x81
 1236 01ae 19       		.byte	0x19
 1237 01af BF000000 		.4byte	0xbf
 1238 01b3 1F       		.byte	0x1f
 1239 01b4 07       		.uleb128 0x7
 1240 01b5 43050000 		.4byte	.LASF34
 1241 01b9 05       		.byte	0x5
 1242 01ba 88       		.byte	0x88
 1243 01bb 19       		.byte	0x19
 1244 01bc FB000000 		.4byte	0xfb
 1245 01c0 20       		.byte	0x20
 1246 01c1 08       		.uleb128 0x8
 1247 01c2 705F7500 		.ascii	"p_u\000"
 1248 01c6 05       		.byte	0x5
 1249 01c7 AD       		.byte	0xad
 1250 01c8 19       		.byte	0x19
 1251 01c9 56050000 		.4byte	0x556
 1252 01cd 24       		.byte	0x24
 1253 01ce 07       		.uleb128 0x7
 1254 01cf FF050000 		.4byte	.LASF35
ARM GAS  /tmp/ccHILlsE.s 			page 23


 1255 01d3 05       		.byte	0x5
 1256 01d4 B2       		.byte	0xb2
 1257 01d5 19       		.byte	0x19
 1258 01d6 6A020000 		.4byte	0x26a
 1259 01da 28       		.byte	0x28
 1260 01db 07       		.uleb128 0x7
 1261 01dc 5F050000 		.4byte	.LASF36
 1262 01e0 05       		.byte	0x5
 1263 01e1 B8       		.byte	0xb8
 1264 01e2 19       		.byte	0x19
 1265 01e3 47020000 		.4byte	0x247
 1266 01e7 2C       		.byte	0x2c
 1267 01e8 07       		.uleb128 0x7
 1268 01e9 0D000000 		.4byte	.LASF37
 1269 01ed 05       		.byte	0x5
 1270 01ee BC       		.byte	0xbc
 1271 01ef 19       		.byte	0x19
 1272 01f0 D7000000 		.4byte	0xd7
 1273 01f4 34       		.byte	0x34
 1274 01f5 07       		.uleb128 0x7
 1275 01f6 74040000 		.4byte	.LASF38
 1276 01fa 05       		.byte	0x5
 1277 01fb C2       		.byte	0xc2
 1278 01fc 19       		.byte	0x19
 1279 01fd E3000000 		.4byte	0xe3
 1280 0201 38       		.byte	0x38
 1281 0202 07       		.uleb128 0x7
 1282 0203 F9030000 		.4byte	.LASF39
 1283 0207 05       		.byte	0x5
 1284 0208 C9       		.byte	0xc9
 1285 0209 1A       		.byte	0x1a
 1286 020a A2050000 		.4byte	0x5a2
 1287 020e 3C       		.byte	0x3c
 1288 020f 07       		.uleb128 0x7
 1289 0210 2F050000 		.4byte	.LASF40
 1290 0214 05       		.byte	0x5
 1291 0215 CD       		.byte	0xcd
 1292 0216 19       		.byte	0x19
 1293 0217 CB000000 		.4byte	0xcb
 1294 021b 40       		.byte	0x40
 1295 021c 00       		.byte	0
 1296 021d 09       		.uleb128 0x9
 1297 021e 08       		.byte	0x8
 1298 021f 04       		.byte	0x4
 1299 0220 5A       		.byte	0x5a
 1300 0221 09       		.byte	0x9
 1301 0222 41020000 		.4byte	0x241
 1302 0226 07       		.uleb128 0x7
 1303 0227 39040000 		.4byte	.LASF23
 1304 022b 04       		.byte	0x4
 1305 022c 5B       		.byte	0x5b
 1306 022d 1A       		.byte	0x1a
 1307 022e 41020000 		.4byte	0x241
 1308 0232 00       		.byte	0
 1309 0233 07       		.uleb128 0x7
 1310 0234 CD030000 		.4byte	.LASF24
 1311 0238 04       		.byte	0x4
ARM GAS  /tmp/ccHILlsE.s 			page 24


 1312 0239 5D       		.byte	0x5d
 1313 023a 1A       		.byte	0x1a
 1314 023b 41020000 		.4byte	0x241
 1315 023f 04       		.byte	0x4
 1316 0240 00       		.byte	0
 1317 0241 0A       		.uleb128 0xa
 1318 0242 04       		.byte	0x4
 1319 0243 0C010000 		.4byte	0x10c
 1320 0247 04       		.uleb128 0x4
 1321 0248 84030000 		.4byte	.LASF41
 1322 024c 04       		.byte	0x4
 1323 024d 5F       		.byte	0x5f
 1324 024e 03       		.byte	0x3
 1325 024f 1D020000 		.4byte	0x21d
 1326 0253 09       		.uleb128 0x9
 1327 0254 04       		.byte	0x4
 1328 0255 04       		.byte	0x4
 1329 0256 64       		.byte	0x64
 1330 0257 09       		.byte	0x9
 1331 0258 6A020000 		.4byte	0x26a
 1332 025c 07       		.uleb128 0x7
 1333 025d 39040000 		.4byte	.LASF23
 1334 0261 04       		.byte	0x4
 1335 0262 66       		.byte	0x66
 1336 0263 16       		.byte	0x16
 1337 0264 41020000 		.4byte	0x241
 1338 0268 00       		.byte	0
 1339 0269 00       		.byte	0
 1340 026a 04       		.uleb128 0x4
 1341 026b 02030000 		.4byte	.LASF42
 1342 026f 04       		.byte	0x4
 1343 0270 69       		.byte	0x69
 1344 0271 03       		.byte	0x3
 1345 0272 53020000 		.4byte	0x253
 1346 0276 04       		.uleb128 0x4
 1347 0277 25030000 		.4byte	.LASF43
 1348 027b 06       		.byte	0x6
 1349 027c 9D       		.byte	0x9d
 1350 027d 12       		.byte	0x12
 1351 027e 81000000 		.4byte	0x81
 1352 0282 04       		.uleb128 0x4
 1353 0283 5C020000 		.4byte	.LASF44
 1354 0287 06       		.byte	0x6
 1355 0288 A2       		.byte	0xa2
 1356 0289 0F       		.byte	0xf
 1357 028a 8E020000 		.4byte	0x28e
 1358 028e 0B       		.uleb128 0xb
 1359 028f 04       		.byte	0x4
 1360 0290 06       		.uleb128 0x6
 1361 0291 58050000 		.4byte	.LASF45
 1362 0295 24       		.byte	0x24
 1363 0296 06       		.byte	0x6
 1364 0297 B9       		.byte	0xb9
 1365 0298 08       		.byte	0x8
 1366 0299 0C030000 		.4byte	0x30c
 1367 029d 08       		.uleb128 0x8
 1368 029e 723400   		.ascii	"r4\000"
ARM GAS  /tmp/ccHILlsE.s 			page 25


 1369 02a1 06       		.byte	0x6
 1370 02a2 BA       		.byte	0xba
 1371 02a3 11       		.byte	0x11
 1372 02a4 82020000 		.4byte	0x282
 1373 02a8 00       		.byte	0
 1374 02a9 08       		.uleb128 0x8
 1375 02aa 723500   		.ascii	"r5\000"
 1376 02ad 06       		.byte	0x6
 1377 02ae BB       		.byte	0xbb
 1378 02af 11       		.byte	0x11
 1379 02b0 82020000 		.4byte	0x282
 1380 02b4 04       		.byte	0x4
 1381 02b5 08       		.uleb128 0x8
 1382 02b6 723600   		.ascii	"r6\000"
 1383 02b9 06       		.byte	0x6
 1384 02ba BC       		.byte	0xbc
 1385 02bb 11       		.byte	0x11
 1386 02bc 82020000 		.4byte	0x282
 1387 02c0 08       		.byte	0x8
 1388 02c1 08       		.uleb128 0x8
 1389 02c2 723700   		.ascii	"r7\000"
 1390 02c5 06       		.byte	0x6
 1391 02c6 BD       		.byte	0xbd
 1392 02c7 11       		.byte	0x11
 1393 02c8 82020000 		.4byte	0x282
 1394 02cc 0C       		.byte	0xc
 1395 02cd 08       		.uleb128 0x8
 1396 02ce 723800   		.ascii	"r8\000"
 1397 02d1 06       		.byte	0x6
 1398 02d2 BE       		.byte	0xbe
 1399 02d3 11       		.byte	0x11
 1400 02d4 82020000 		.4byte	0x282
 1401 02d8 10       		.byte	0x10
 1402 02d9 08       		.uleb128 0x8
 1403 02da 723900   		.ascii	"r9\000"
 1404 02dd 06       		.byte	0x6
 1405 02de BF       		.byte	0xbf
 1406 02df 11       		.byte	0x11
 1407 02e0 82020000 		.4byte	0x282
 1408 02e4 14       		.byte	0x14
 1409 02e5 08       		.uleb128 0x8
 1410 02e6 72313000 		.ascii	"r10\000"
 1411 02ea 06       		.byte	0x6
 1412 02eb C0       		.byte	0xc0
 1413 02ec 11       		.byte	0x11
 1414 02ed 82020000 		.4byte	0x282
 1415 02f1 18       		.byte	0x18
 1416 02f2 08       		.uleb128 0x8
 1417 02f3 72313100 		.ascii	"r11\000"
 1418 02f7 06       		.byte	0x6
 1419 02f8 C1       		.byte	0xc1
 1420 02f9 11       		.byte	0x11
 1421 02fa 82020000 		.4byte	0x282
 1422 02fe 1C       		.byte	0x1c
 1423 02ff 08       		.uleb128 0x8
 1424 0300 6C7200   		.ascii	"lr\000"
 1425 0303 06       		.byte	0x6
ARM GAS  /tmp/ccHILlsE.s 			page 26


 1426 0304 C2       		.byte	0xc2
 1427 0305 11       		.byte	0x11
 1428 0306 82020000 		.4byte	0x282
 1429 030a 20       		.byte	0x20
 1430 030b 00       		.byte	0
 1431 030c 06       		.uleb128 0x6
 1432 030d C3020000 		.4byte	.LASF46
 1433 0311 04       		.byte	0x4
 1434 0312 06       		.byte	0x6
 1435 0313 CA       		.byte	0xca
 1436 0314 08       		.byte	0x8
 1437 0315 27030000 		.4byte	0x327
 1438 0319 08       		.uleb128 0x8
 1439 031a 72313300 		.ascii	"r13\000"
 1440 031e 06       		.byte	0x6
 1441 031f CB       		.byte	0xcb
 1442 0320 12       		.byte	0x12
 1443 0321 27030000 		.4byte	0x327
 1444 0325 00       		.byte	0
 1445 0326 00       		.byte	0
 1446 0327 0A       		.uleb128 0xa
 1447 0328 04       		.byte	0x4
 1448 0329 90020000 		.4byte	0x290
 1449 032d 04       		.uleb128 0x4
 1450 032e 3A050000 		.4byte	.LASF47
 1451 0332 07       		.byte	0x7
 1452 0333 4E       		.byte	0x4e
 1453 0334 10       		.byte	0x10
 1454 0335 39030000 		.4byte	0x339
 1455 0339 0A       		.uleb128 0xa
 1456 033a 04       		.byte	0x4
 1457 033b 3F030000 		.4byte	0x33f
 1458 033f 0C       		.uleb128 0xc
 1459 0340 4A030000 		.4byte	0x34a
 1460 0344 0D       		.uleb128 0xd
 1461 0345 8E020000 		.4byte	0x28e
 1462 0349 00       		.byte	0
 1463 034a 04       		.uleb128 0x4
 1464 034b 9C040000 		.4byte	.LASF48
 1465 034f 07       		.byte	0x7
 1466 0350 53       		.byte	0x53
 1467 0351 1D       		.byte	0x1d
 1468 0352 56030000 		.4byte	0x356
 1469 0356 06       		.uleb128 0x6
 1470 0357 9C040000 		.4byte	.LASF48
 1471 035b 14       		.byte	0x14
 1472 035c 07       		.byte	0x7
 1473 035d 5A       		.byte	0x5a
 1474 035e 08       		.byte	0x8
 1475 035f A5030000 		.4byte	0x3a5
 1476 0363 07       		.uleb128 0x7
 1477 0364 80020000 		.4byte	.LASF49
 1478 0368 07       		.byte	0x7
 1479 0369 5B       		.byte	0x5b
 1480 036a 1A       		.byte	0x1a
 1481 036b A5030000 		.4byte	0x3a5
 1482 036f 00       		.byte	0
ARM GAS  /tmp/ccHILlsE.s 			page 27


 1483 0370 07       		.uleb128 0x7
 1484 0371 65020000 		.4byte	.LASF50
 1485 0375 07       		.byte	0x7
 1486 0376 5D       		.byte	0x5d
 1487 0377 1A       		.byte	0x1a
 1488 0378 A5030000 		.4byte	0x3a5
 1489 037c 04       		.byte	0x4
 1490 037d 07       		.uleb128 0x7
 1491 037e 44030000 		.4byte	.LASF51
 1492 0382 07       		.byte	0x7
 1493 0383 5F       		.byte	0x5f
 1494 0384 19       		.byte	0x19
 1495 0385 EF000000 		.4byte	0xef
 1496 0389 08       		.byte	0x8
 1497 038a 07       		.uleb128 0x7
 1498 038b 4C030000 		.4byte	.LASF52
 1499 038f 07       		.byte	0x7
 1500 0390 60       		.byte	0x60
 1501 0391 19       		.byte	0x19
 1502 0392 2D030000 		.4byte	0x32d
 1503 0396 0C       		.byte	0xc
 1504 0397 07       		.uleb128 0x7
 1505 0398 74050000 		.4byte	.LASF53
 1506 039c 07       		.byte	0x7
 1507 039d 62       		.byte	0x62
 1508 039e 1A       		.byte	0x1a
 1509 039f 8E020000 		.4byte	0x28e
 1510 03a3 10       		.byte	0x10
 1511 03a4 00       		.byte	0
 1512 03a5 0A       		.uleb128 0xa
 1513 03a6 04       		.byte	0x4
 1514 03a7 4A030000 		.4byte	0x34a
 1515 03ab 09       		.uleb128 0x9
 1516 03ac 10       		.byte	0x10
 1517 03ad 07       		.byte	0x7
 1518 03ae 6C       		.byte	0x6c
 1519 03af 09       		.byte	0x9
 1520 03b0 E9030000 		.4byte	0x3e9
 1521 03b4 07       		.uleb128 0x7
 1522 03b5 80020000 		.4byte	.LASF49
 1523 03b9 07       		.byte	0x7
 1524 03ba 6D       		.byte	0x6d
 1525 03bb 1A       		.byte	0x1a
 1526 03bc A5030000 		.4byte	0x3a5
 1527 03c0 00       		.byte	0
 1528 03c1 07       		.uleb128 0x7
 1529 03c2 65020000 		.4byte	.LASF50
 1530 03c6 07       		.byte	0x7
 1531 03c7 6F       		.byte	0x6f
 1532 03c8 1A       		.byte	0x1a
 1533 03c9 A5030000 		.4byte	0x3a5
 1534 03cd 04       		.byte	0x4
 1535 03ce 07       		.uleb128 0x7
 1536 03cf 44030000 		.4byte	.LASF51
 1537 03d3 07       		.byte	0x7
 1538 03d4 71       		.byte	0x71
 1539 03d5 19       		.byte	0x19
ARM GAS  /tmp/ccHILlsE.s 			page 28


 1540 03d6 EF000000 		.4byte	0xef
 1541 03da 08       		.byte	0x8
 1542 03db 07       		.uleb128 0x7
 1543 03dc D4050000 		.4byte	.LASF54
 1544 03e0 07       		.byte	0x7
 1545 03e1 72       		.byte	0x72
 1546 03e2 19       		.byte	0x19
 1547 03e3 FB000000 		.4byte	0xfb
 1548 03e7 0C       		.byte	0xc
 1549 03e8 00       		.byte	0
 1550 03e9 04       		.uleb128 0x4
 1551 03ea EA050000 		.4byte	.LASF55
 1552 03ee 07       		.byte	0x7
 1553 03ef 73       		.byte	0x73
 1554 03f0 03       		.byte	0x3
 1555 03f1 AB030000 		.4byte	0x3ab
 1556 03f5 0E       		.uleb128 0xe
 1557 03f6 2A010000 		.4byte	.LASF63
 1558 03fa 07       		.byte	0x7
 1559 03fb D1       		.byte	0xd1
 1560 03fc 0F       		.byte	0xf
 1561 03fd E9030000 		.4byte	0x3e9
 1562 0401 09       		.uleb128 0x9
 1563 0402 1C       		.byte	0x1c
 1564 0403 08       		.byte	0x8
 1565 0404 57       		.byte	0x57
 1566 0405 09       		.byte	0x9
 1567 0406 59040000 		.4byte	0x459
 1568 040a 07       		.uleb128 0x7
 1569 040b 94040000 		.4byte	.LASF56
 1570 040f 08       		.byte	0x8
 1571 0410 58       		.byte	0x58
 1572 0411 19       		.byte	0x19
 1573 0412 47020000 		.4byte	0x247
 1574 0416 00       		.byte	0
 1575 0417 07       		.uleb128 0x7
 1576 0418 2B040000 		.4byte	.LASF57
 1577 041c 08       		.byte	0x8
 1578 041d 59       		.byte	0x59
 1579 041e 19       		.byte	0x19
 1580 041f CB000000 		.4byte	0xcb
 1581 0423 08       		.byte	0x8
 1582 0424 07       		.uleb128 0x7
 1583 0425 7E030000 		.4byte	.LASF58
 1584 0429 08       		.byte	0x8
 1585 042a 5B       		.byte	0x5b
 1586 042b 19       		.byte	0x19
 1587 042c 0C030000 		.4byte	0x30c
 1588 0430 0C       		.byte	0xc
 1589 0431 07       		.uleb128 0x7
 1590 0432 54020000 		.4byte	.LASF59
 1591 0436 08       		.byte	0x8
 1592 0437 5E       		.byte	0x5e
 1593 0438 1A       		.byte	0x1a
 1594 0439 41020000 		.4byte	0x241
 1595 043d 10       		.byte	0x10
 1596 043e 07       		.uleb128 0x7
ARM GAS  /tmp/ccHILlsE.s 			page 29


 1597 043f B2030000 		.4byte	.LASF60
 1598 0443 08       		.byte	0x8
 1599 0444 5F       		.byte	0x5f
 1600 0445 1A       		.byte	0x1a
 1601 0446 41020000 		.4byte	0x241
 1602 044a 14       		.byte	0x14
 1603 044b 07       		.uleb128 0x7
 1604 044c A8030000 		.4byte	.LASF61
 1605 0450 08       		.byte	0x8
 1606 0451 62       		.byte	0x62
 1607 0452 1A       		.byte	0x1a
 1608 0453 41020000 		.4byte	0x241
 1609 0457 18       		.byte	0x18
 1610 0458 00       		.byte	0
 1611 0459 04       		.uleb128 0x4
 1612 045a A2050000 		.4byte	.LASF62
 1613 045e 08       		.byte	0x8
 1614 045f 64       		.byte	0x64
 1615 0460 03       		.byte	0x3
 1616 0461 01040000 		.4byte	0x401
 1617 0465 0E       		.uleb128 0xe
 1618 0466 B8050000 		.4byte	.LASF64
 1619 046a 08       		.byte	0x8
 1620 046b 68       		.byte	0x68
 1621 046c 12       		.byte	0x12
 1622 046d 59040000 		.4byte	0x459
 1623 0471 06       		.uleb128 0x6
 1624 0472 7B050000 		.4byte	.LASF65
 1625 0476 0C       		.byte	0xc
 1626 0477 09       		.byte	0x9
 1627 0478 25       		.byte	0x25
 1628 0479 10       		.byte	0x10
 1629 047a 99040000 		.4byte	0x499
 1630 047e 07       		.uleb128 0x7
 1631 047f 3B020000 		.4byte	.LASF66
 1632 0483 09       		.byte	0x9
 1633 0484 26       		.byte	0x26
 1634 0485 19       		.byte	0x19
 1635 0486 47020000 		.4byte	0x247
 1636 048a 00       		.byte	0
 1637 048b 07       		.uleb128 0x7
 1638 048c BD020000 		.4byte	.LASF67
 1639 0490 09       		.byte	0x9
 1640 0491 28       		.byte	0x28
 1641 0492 19       		.byte	0x19
 1642 0493 00010000 		.4byte	0x100
 1643 0497 08       		.byte	0x8
 1644 0498 00       		.byte	0
 1645 0499 04       		.uleb128 0x4
 1646 049a 7B050000 		.4byte	.LASF65
 1647 049e 09       		.byte	0x9
 1648 049f 29       		.byte	0x29
 1649 04a0 03       		.byte	0x3
 1650 04a1 71040000 		.4byte	0x471
 1651 04a5 06       		.uleb128 0x6
 1652 04a6 1A030000 		.4byte	.LASF68
 1653 04aa 10       		.byte	0x10
ARM GAS  /tmp/ccHILlsE.s 			page 30


 1654 04ab 0A       		.byte	0xa
 1655 04ac 25       		.byte	0x25
 1656 04ad 10       		.byte	0x10
 1657 04ae DA040000 		.4byte	0x4da
 1658 04b2 07       		.uleb128 0x7
 1659 04b3 EC010000 		.4byte	.LASF69
 1660 04b7 0A       		.byte	0xa
 1661 04b8 26       		.byte	0x26
 1662 04b9 19       		.byte	0x19
 1663 04ba 47020000 		.4byte	0x247
 1664 04be 00       		.byte	0
 1665 04bf 07       		.uleb128 0x7
 1666 04c0 F1050000 		.4byte	.LASF70
 1667 04c4 0A       		.byte	0xa
 1668 04c5 28       		.byte	0x28
 1669 04c6 1A       		.byte	0x1a
 1670 04c7 41020000 		.4byte	0x241
 1671 04cb 08       		.byte	0x8
 1672 04cc 07       		.uleb128 0x7
 1673 04cd 1E050000 		.4byte	.LASF71
 1674 04d1 0A       		.byte	0xa
 1675 04d2 2A       		.byte	0x2a
 1676 04d3 1A       		.byte	0x1a
 1677 04d4 DA040000 		.4byte	0x4da
 1678 04d8 0C       		.byte	0xc
 1679 04d9 00       		.byte	0
 1680 04da 0A       		.uleb128 0xa
 1681 04db 04       		.byte	0x4
 1682 04dc A5040000 		.4byte	0x4a5
 1683 04e0 04       		.uleb128 0x4
 1684 04e1 1A030000 		.4byte	.LASF68
 1685 04e5 0A       		.byte	0xa
 1686 04e6 2C       		.byte	0x2c
 1687 04e7 03       		.byte	0x3
 1688 04e8 A5040000 		.4byte	0x4a5
 1689 04ec 09       		.uleb128 0x9
 1690 04ed 28       		.byte	0x28
 1691 04ee 0B       		.byte	0xb
 1692 04ef 2C       		.byte	0x2c
 1693 04f0 09       		.byte	0x9
 1694 04f1 44050000 		.4byte	0x544
 1695 04f5 07       		.uleb128 0x7
 1696 04f6 99030000 		.4byte	.LASF72
 1697 04fa 0B       		.byte	0xb
 1698 04fb 2D       		.byte	0x2d
 1699 04fc 1A       		.byte	0x1a
 1700 04fd 44050000 		.4byte	0x544
 1701 0501 00       		.byte	0
 1702 0502 07       		.uleb128 0x7
 1703 0503 F2030000 		.4byte	.LASF73
 1704 0507 0B       		.byte	0xb
 1705 0508 2F       		.byte	0x2f
 1706 0509 1A       		.byte	0x1a
 1707 050a 44050000 		.4byte	0x544
 1708 050e 04       		.byte	0x4
 1709 050f 07       		.uleb128 0x7
 1710 0510 98010000 		.4byte	.LASF74
ARM GAS  /tmp/ccHILlsE.s 			page 31


 1711 0514 0B       		.byte	0xb
 1712 0515 31       		.byte	0x31
 1713 0516 1A       		.byte	0x1a
 1714 0517 44050000 		.4byte	0x544
 1715 051b 08       		.byte	0x8
 1716 051c 07       		.uleb128 0x7
 1717 051d 17010000 		.4byte	.LASF75
 1718 0521 0B       		.byte	0xb
 1719 0522 32       		.byte	0x32
 1720 0523 1A       		.byte	0x1a
 1721 0524 44050000 		.4byte	0x544
 1722 0528 0C       		.byte	0xc
 1723 0529 07       		.uleb128 0x7
 1724 052a 85050000 		.4byte	.LASF76
 1725 052e 0B       		.byte	0xb
 1726 052f 33       		.byte	0x33
 1727 0530 19       		.byte	0x19
 1728 0531 99040000 		.4byte	0x499
 1729 0535 10       		.byte	0x10
 1730 0536 07       		.uleb128 0x7
 1731 0537 A3020000 		.4byte	.LASF77
 1732 053b 0B       		.byte	0xb
 1733 053c 35       		.byte	0x35
 1734 053d 19       		.byte	0x19
 1735 053e 99040000 		.4byte	0x499
 1736 0542 1C       		.byte	0x1c
 1737 0543 00       		.byte	0
 1738 0544 0A       		.uleb128 0xa
 1739 0545 04       		.byte	0x4
 1740 0546 D7000000 		.4byte	0xd7
 1741 054a 04       		.uleb128 0x4
 1742 054b 3B010000 		.4byte	.LASF78
 1743 054f 0B       		.byte	0xb
 1744 0550 37       		.byte	0x37
 1745 0551 03       		.byte	0x3
 1746 0552 EC040000 		.4byte	0x4ec
 1747 0556 0F       		.uleb128 0xf
 1748 0557 04       		.byte	0x4
 1749 0558 05       		.byte	0x5
 1750 0559 8F       		.byte	0x8f
 1751 055a 03       		.byte	0x3
 1752 055b 90050000 		.4byte	0x590
 1753 055f 10       		.uleb128 0x10
 1754 0560 10010000 		.4byte	.LASF79
 1755 0564 05       		.byte	0x5
 1756 0565 96       		.byte	0x96
 1757 0566 19       		.byte	0x19
 1758 0567 D7000000 		.4byte	0xd7
 1759 056b 10       		.uleb128 0x10
 1760 056c 77010000 		.4byte	.LASF80
 1761 0570 05       		.byte	0x5
 1762 0571 9D       		.byte	0x9d
 1763 0572 19       		.byte	0x19
 1764 0573 D7000000 		.4byte	0xd7
 1765 0577 10       		.uleb128 0x10
 1766 0578 C6050000 		.4byte	.LASF81
 1767 057c 05       		.byte	0x5
ARM GAS  /tmp/ccHILlsE.s 			page 32


 1768 057d A4       		.byte	0xa4
 1769 057e 1A       		.byte	0x1a
 1770 057f 8E020000 		.4byte	0x28e
 1771 0583 10       		.uleb128 0x10
 1772 0584 32040000 		.4byte	.LASF82
 1773 0588 05       		.byte	0x5
 1774 0589 AB       		.byte	0xab
 1775 058a 19       		.byte	0x19
 1776 058b E3000000 		.4byte	0xe3
 1777 058f 00       		.byte	0
 1778 0590 0A       		.uleb128 0xa
 1779 0591 04       		.byte	0x4
 1780 0592 9D050000 		.4byte	0x59d
 1781 0596 03       		.uleb128 0x3
 1782 0597 01       		.byte	0x1
 1783 0598 08       		.byte	0x8
 1784 0599 07050000 		.4byte	.LASF83
 1785 059d 11       		.uleb128 0x11
 1786 059e 96050000 		.4byte	0x596
 1787 05a2 0A       		.uleb128 0xa
 1788 05a3 04       		.byte	0x4
 1789 05a4 E0040000 		.4byte	0x4e0
 1790 05a8 09       		.uleb128 0x9
 1791 05a9 16       		.byte	0x16
 1792 05aa 0C       		.byte	0xc
 1793 05ab 25       		.byte	0x25
 1794 05ac 09       		.byte	0x9
 1795 05ad 9C060000 		.4byte	0x69c
 1796 05b1 07       		.uleb128 0x7
 1797 05b2 AF020000 		.4byte	.LASF84
 1798 05b6 0C       		.byte	0xc
 1799 05b7 26       		.byte	0x26
 1800 05b8 0D       		.byte	0xd
 1801 05b9 9C060000 		.4byte	0x69c
 1802 05bd 00       		.byte	0
 1803 05be 07       		.uleb128 0x7
 1804 05bf 30030000 		.4byte	.LASF85
 1805 05c3 0C       		.byte	0xc
 1806 05c4 27       		.byte	0x27
 1807 05c5 0D       		.byte	0xd
 1808 05c6 5B000000 		.4byte	0x5b
 1809 05ca 04       		.byte	0x4
 1810 05cb 07       		.uleb128 0x7
 1811 05cc 91030000 		.4byte	.LASF86
 1812 05d0 0C       		.byte	0xc
 1813 05d1 28       		.byte	0x28
 1814 05d2 0D       		.byte	0xd
 1815 05d3 5B000000 		.4byte	0x5b
 1816 05d7 05       		.byte	0x5
 1817 05d8 07       		.uleb128 0x7
 1818 05d9 DF050000 		.4byte	.LASF87
 1819 05dd 0C       		.byte	0xc
 1820 05de 29       		.byte	0x29
 1821 05df 0D       		.byte	0xd
 1822 05e0 6E000000 		.4byte	0x6e
 1823 05e4 06       		.byte	0x6
 1824 05e5 07       		.uleb128 0x7
ARM GAS  /tmp/ccHILlsE.s 			page 33


 1825 05e6 C2030000 		.4byte	.LASF88
 1826 05ea 0C       		.byte	0xc
 1827 05eb 2A       		.byte	0x2a
 1828 05ec 0D       		.byte	0xd
 1829 05ed 5B000000 		.4byte	0x5b
 1830 05f1 08       		.byte	0x8
 1831 05f2 07       		.uleb128 0x7
 1832 05f3 54030000 		.4byte	.LASF89
 1833 05f7 0C       		.byte	0xc
 1834 05f8 2B       		.byte	0x2b
 1835 05f9 0D       		.byte	0xd
 1836 05fa 5B000000 		.4byte	0x5b
 1837 05fe 09       		.byte	0x9
 1838 05ff 07       		.uleb128 0x7
 1839 0600 69010000 		.4byte	.LASF90
 1840 0604 0C       		.byte	0xc
 1841 0605 2C       		.byte	0x2c
 1842 0606 0D       		.byte	0xd
 1843 0607 5B000000 		.4byte	0x5b
 1844 060b 0A       		.byte	0xa
 1845 060c 07       		.uleb128 0x7
 1846 060d 88040000 		.4byte	.LASF91
 1847 0611 0C       		.byte	0xc
 1848 0612 2D       		.byte	0x2d
 1849 0613 0D       		.byte	0xd
 1850 0614 5B000000 		.4byte	0x5b
 1851 0618 0B       		.byte	0xb
 1852 0619 07       		.uleb128 0x7
 1853 061a 90050000 		.4byte	.LASF92
 1854 061e 0C       		.byte	0xc
 1855 061f 2E       		.byte	0x2e
 1856 0620 0D       		.byte	0xd
 1857 0621 5B000000 		.4byte	0x5b
 1858 0625 0C       		.byte	0xc
 1859 0626 07       		.uleb128 0x7
 1860 0627 67040000 		.4byte	.LASF93
 1861 062b 0C       		.byte	0xc
 1862 062c 2F       		.byte	0x2f
 1863 062d 0D       		.byte	0xd
 1864 062e 5B000000 		.4byte	0x5b
 1865 0632 0D       		.byte	0xd
 1866 0633 07       		.uleb128 0x7
 1867 0634 00000000 		.4byte	.LASF94
 1868 0638 0C       		.byte	0xc
 1869 0639 30       		.byte	0x30
 1870 063a 0D       		.byte	0xd
 1871 063b 5B000000 		.4byte	0x5b
 1872 063f 0E       		.byte	0xe
 1873 0640 07       		.uleb128 0x7
 1874 0641 6A030000 		.4byte	.LASF95
 1875 0645 0C       		.byte	0xc
 1876 0646 31       		.byte	0x31
 1877 0647 0D       		.byte	0xd
 1878 0648 5B000000 		.4byte	0x5b
 1879 064c 0F       		.byte	0xf
 1880 064d 07       		.uleb128 0x7
 1881 064e CF010000 		.4byte	.LASF96
ARM GAS  /tmp/ccHILlsE.s 			page 34


 1882 0652 0C       		.byte	0xc
 1883 0653 32       		.byte	0x32
 1884 0654 0D       		.byte	0xd
 1885 0655 5B000000 		.4byte	0x5b
 1886 0659 10       		.byte	0x10
 1887 065a 07       		.uleb128 0x7
 1888 065b A8010000 		.4byte	.LASF97
 1889 065f 0C       		.byte	0xc
 1890 0660 34       		.byte	0x34
 1891 0661 0D       		.byte	0xd
 1892 0662 5B000000 		.4byte	0x5b
 1893 0666 11       		.byte	0x11
 1894 0667 07       		.uleb128 0x7
 1895 0668 DF010000 		.4byte	.LASF98
 1896 066c 0C       		.byte	0xc
 1897 066d 35       		.byte	0x35
 1898 066e 0D       		.byte	0xd
 1899 066f 5B000000 		.4byte	0x5b
 1900 0673 12       		.byte	0x12
 1901 0674 07       		.uleb128 0x7
 1902 0675 38030000 		.4byte	.LASF99
 1903 0679 0C       		.byte	0xc
 1904 067a 36       		.byte	0x36
 1905 067b 0D       		.byte	0xd
 1906 067c 5B000000 		.4byte	0x5b
 1907 0680 13       		.byte	0x13
 1908 0681 07       		.uleb128 0x7
 1909 0682 40040000 		.4byte	.LASF100
 1910 0686 0C       		.byte	0xc
 1911 0687 37       		.byte	0x37
 1912 0688 0D       		.byte	0xd
 1913 0689 5B000000 		.4byte	0x5b
 1914 068d 14       		.byte	0x14
 1915 068e 07       		.uleb128 0x7
 1916 068f 1F040000 		.4byte	.LASF101
 1917 0693 0C       		.byte	0xc
 1918 0694 39       		.byte	0x39
 1919 0695 0D       		.byte	0xd
 1920 0696 5B000000 		.4byte	0x5b
 1921 069a 15       		.byte	0x15
 1922 069b 00       		.byte	0
 1923 069c 12       		.uleb128 0x12
 1924 069d 96050000 		.4byte	0x596
 1925 06a1 AC060000 		.4byte	0x6ac
 1926 06a5 13       		.uleb128 0x13
 1927 06a6 2C000000 		.4byte	0x2c
 1928 06aa 03       		.byte	0x3
 1929 06ab 00       		.byte	0
 1930 06ac 04       		.uleb128 0x4
 1931 06ad 19020000 		.4byte	.LASF102
 1932 06b1 0C       		.byte	0xc
 1933 06b2 3A       		.byte	0x3a
 1934 06b3 03       		.byte	0x3
 1935 06b4 A8050000 		.4byte	0x5a8
 1936 06b8 11       		.uleb128 0x11
 1937 06b9 AC060000 		.4byte	0x6ac
 1938 06bd 0E       		.uleb128 0xe
ARM GAS  /tmp/ccHILlsE.s 			page 35


 1939 06be 9A020000 		.4byte	.LASF103
 1940 06c2 0C       		.byte	0xc
 1941 06c3 77       		.byte	0x77
 1942 06c4 1D       		.byte	0x1d
 1943 06c5 B8060000 		.4byte	0x6b8
 1944 06c9 12       		.uleb128 0x12
 1945 06ca 76020000 		.4byte	0x276
 1946 06ce D9060000 		.4byte	0x6d9
 1947 06d2 13       		.uleb128 0x13
 1948 06d3 2C000000 		.4byte	0x2c
 1949 06d7 26       		.byte	0x26
 1950 06d8 00       		.byte	0
 1951 06d9 0E       		.uleb128 0xe
 1952 06da 2B020000 		.4byte	.LASF104
 1953 06de 0D       		.byte	0xd
 1954 06df 82       		.byte	0x82
 1955 06e0 08       		.byte	0x8
 1956 06e1 C9060000 		.4byte	0x6c9
 1957 06e5 14       		.uleb128 0x14
 1958 06e6 DE020000 		.4byte	.LASF107
 1959 06ea 01       		.byte	0x1
 1960 06eb 6801     		.2byte	0x168
 1961 06ed 07       		.byte	0x7
 1962 06ee D7000000 		.4byte	0xd7
 1963 06f2 00000000 		.4byte	.LFB17
 1964 06f6 54000000 		.4byte	.LFE17-.LFB17
 1965 06fa 01       		.uleb128 0x1
 1966 06fb 9C       		.byte	0x9c
 1967 06fc 3E070000 		.4byte	0x73e
 1968 0700 15       		.uleb128 0x15
 1969 0701 6D627000 		.ascii	"mbp\000"
 1970 0705 01       		.byte	0x1
 1971 0706 6801     		.2byte	0x168
 1972 0708 1B       		.byte	0x1b
 1973 0709 3E070000 		.4byte	0x73e
 1974 070d 0A000000 		.4byte	.LLST62
 1975 0711 00000000 		.4byte	.LVUS62
 1976 0715 16       		.uleb128 0x16
 1977 0716 20030000 		.4byte	.LASF105
 1978 071a 01       		.byte	0x1
 1979 071b 6801     		.2byte	0x168
 1980 071d 27       		.byte	0x27
 1981 071e 44050000 		.4byte	0x544
 1982 0722 57000000 		.4byte	.LLST63
 1983 0726 51000000 		.4byte	.LVUS63
 1984 072a 17       		.uleb128 0x17
 1985 072b 44000000 		.4byte	.LVL75
 1986 072f 7E0F0000 		.4byte	0xf7e
 1987 0733 18       		.uleb128 0x18
 1988 0734 01       		.uleb128 0x1
 1989 0735 50       		.byte	0x50
 1990 0736 05       		.uleb128 0x5
 1991 0737 F3       		.byte	0xf3
 1992 0738 01       		.uleb128 0x1
 1993 0739 50       		.byte	0x50
 1994 073a 23       		.byte	0x23
 1995 073b 1C       		.uleb128 0x1c
ARM GAS  /tmp/ccHILlsE.s 			page 36


 1996 073c 00       		.byte	0
 1997 073d 00       		.byte	0
 1998 073e 0A       		.uleb128 0xa
 1999 073f 04       		.byte	0x4
 2000 0740 4A050000 		.4byte	0x54a
 2001 0744 19       		.uleb128 0x19
 2002 0745 EF020000 		.4byte	.LASF110
 2003 0749 01       		.byte	0x1
 2004 074a 4901     		.2byte	0x149
 2005 074c 07       		.byte	0x7
 2006 074d D7000000 		.4byte	0xd7
 2007 0751 01       		.byte	0x1
 2008 0752 8B070000 		.4byte	0x78b
 2009 0756 1A       		.uleb128 0x1a
 2010 0757 6D627000 		.ascii	"mbp\000"
 2011 075b 01       		.byte	0x1
 2012 075c 4901     		.2byte	0x149
 2013 075e 1B       		.byte	0x1b
 2014 075f 3E070000 		.4byte	0x73e
 2015 0763 1B       		.uleb128 0x1b
 2016 0764 20030000 		.4byte	.LASF105
 2017 0768 01       		.byte	0x1
 2018 0769 4901     		.2byte	0x149
 2019 076b 27       		.byte	0x27
 2020 076c 44050000 		.4byte	0x544
 2021 0770 1B       		.uleb128 0x1b
 2022 0771 A3030000 		.4byte	.LASF106
 2023 0775 01       		.byte	0x1
 2024 0776 4901     		.2byte	0x149
 2025 0778 37       		.byte	0x37
 2026 0779 EF000000 		.4byte	0xef
 2027 077d 1C       		.uleb128 0x1c
 2028 077e 10010000 		.4byte	.LASF79
 2029 0782 01       		.byte	0x1
 2030 0783 4A01     		.2byte	0x14a
 2031 0785 09       		.byte	0x9
 2032 0786 D7000000 		.4byte	0xd7
 2033 078a 00       		.byte	0
 2034 078b 14       		.uleb128 0x14
 2035 078c 6A050000 		.4byte	.LASF108
 2036 0790 01       		.byte	0x1
 2037 0791 2D01     		.2byte	0x12d
 2038 0793 07       		.byte	0x7
 2039 0794 D7000000 		.4byte	0xd7
 2040 0798 00000000 		.4byte	.LFB15
 2041 079c 60000000 		.4byte	.LFE15-.LFB15
 2042 07a0 01       		.uleb128 0x1
 2043 07a1 9C       		.byte	0x9c
 2044 07a2 C1080000 		.4byte	0x8c1
 2045 07a6 15       		.uleb128 0x15
 2046 07a7 6D627000 		.ascii	"mbp\000"
 2047 07ab 01       		.byte	0x1
 2048 07ac 2D01     		.2byte	0x12d
 2049 07ae 1A       		.byte	0x1a
 2050 07af 3E070000 		.4byte	0x73e
 2051 07b3 87000000 		.4byte	.LLST44
 2052 07b7 83000000 		.4byte	.LVUS44
ARM GAS  /tmp/ccHILlsE.s 			page 37


 2053 07bb 16       		.uleb128 0x16
 2054 07bc 20030000 		.4byte	.LASF105
 2055 07c0 01       		.byte	0x1
 2056 07c1 2D01     		.2byte	0x12d
 2057 07c3 26       		.byte	0x26
 2058 07c4 44050000 		.4byte	0x544
 2059 07c8 A9000000 		.4byte	.LLST45
 2060 07cc A5000000 		.4byte	.LVUS45
 2061 07d0 16       		.uleb128 0x16
 2062 07d1 A3030000 		.4byte	.LASF106
 2063 07d5 01       		.byte	0x1
 2064 07d6 2D01     		.2byte	0x12d
 2065 07d8 36       		.byte	0x36
 2066 07d9 EF000000 		.4byte	0xef
 2067 07dd CB000000 		.4byte	.LLST46
 2068 07e1 C7000000 		.4byte	.LVUS46
 2069 07e5 1D       		.uleb128 0x1d
 2070 07e6 10010000 		.4byte	.LASF79
 2071 07ea 01       		.byte	0x1
 2072 07eb 2E01     		.2byte	0x12e
 2073 07ed 09       		.byte	0x9
 2074 07ee D7000000 		.4byte	0xd7
 2075 07f2 EE000000 		.4byte	.LLST47
 2076 07f6 EC000000 		.4byte	.LVUS47
 2077 07fa 1E       		.uleb128 0x1e
 2078 07fb 44070000 		.4byte	0x744
 2079 07ff 14000000 		.4byte	.LBI36
 2080 0803 03       		.byte	.LVU264
 2081 0804 14000000 		.4byte	.LBB36
 2082 0808 40000000 		.4byte	.LBE36-.LBB36
 2083 080c 01       		.byte	0x1
 2084 080d 3101     		.2byte	0x131
 2085 080f 0C       		.byte	0xc
 2086 0810 1F       		.uleb128 0x1f
 2087 0811 70070000 		.4byte	0x770
 2088 0815 05010000 		.4byte	.LLST48
 2089 0819 01010000 		.4byte	.LVUS48
 2090 081d 1F       		.uleb128 0x1f
 2091 081e 63070000 		.4byte	0x763
 2092 0822 28010000 		.4byte	.LLST49
 2093 0826 26010000 		.4byte	.LVUS49
 2094 082a 1F       		.uleb128 0x1f
 2095 082b 56070000 		.4byte	0x756
 2096 082f 3F010000 		.4byte	.LLST50
 2097 0833 3B010000 		.4byte	.LVUS50
 2098 0837 20       		.uleb128 0x20
 2099 0838 7D070000 		.4byte	0x77d
 2100 083c 61010000 		.4byte	.LLST51
 2101 0840 5D010000 		.4byte	.LVUS51
 2102 0844 21       		.uleb128 0x21
 2103 0845 44070000 		.4byte	0x744
 2104 0849 24000000 		.4byte	.LBI38
 2105 084d 00       		.byte	.LVU275
 2106 084e 24000000 		.4byte	.LBB38
 2107 0852 30000000 		.4byte	.LBE38-.LBB38
 2108 0856 01       		.byte	0x1
 2109 0857 4901     		.2byte	0x149
ARM GAS  /tmp/ccHILlsE.s 			page 38


 2110 0859 07       		.byte	0x7
 2111 085a A8080000 		.4byte	0x8a8
 2112 085e 1F       		.uleb128 0x1f
 2113 085f 70070000 		.4byte	0x770
 2114 0863 81010000 		.4byte	.LLST52
 2115 0867 7F010000 		.4byte	.LVUS52
 2116 086b 1F       		.uleb128 0x1f
 2117 086c 63070000 		.4byte	0x763
 2118 0870 99010000 		.4byte	.LLST53
 2119 0874 97010000 		.4byte	.LVUS53
 2120 0878 1F       		.uleb128 0x1f
 2121 0879 56070000 		.4byte	0x756
 2122 087d AE010000 		.4byte	.LLST54
 2123 0881 AC010000 		.4byte	.LVUS54
 2124 0885 22       		.uleb128 0x22
 2125 0886 7D070000 		.4byte	0x77d
 2126 088a 23       		.uleb128 0x23
 2127 088b 50000000 		.4byte	.LVL63
 2128 088f 7E0F0000 		.4byte	0xf7e
 2129 0893 9E080000 		.4byte	0x89e
 2130 0897 18       		.uleb128 0x18
 2131 0898 01       		.uleb128 0x1
 2132 0899 50       		.byte	0x50
 2133 089a 02       		.uleb128 0x2
 2134 089b 74       		.byte	0x74
 2135 089c 1C       		.sleb128 28
 2136 089d 00       		.byte	0
 2137 089e 24       		.uleb128 0x24
 2138 089f 54000000 		.4byte	.LVL64
 2139 08a3 8A0F0000 		.4byte	0xf8a
 2140 08a7 00       		.byte	0
 2141 08a8 17       		.uleb128 0x17
 2142 08a9 1C000000 		.4byte	.LVL60
 2143 08ad 960F0000 		.4byte	0xf96
 2144 08b1 18       		.uleb128 0x18
 2145 08b2 01       		.uleb128 0x1
 2146 08b3 50       		.byte	0x50
 2147 08b4 02       		.uleb128 0x2
 2148 08b5 74       		.byte	0x74
 2149 08b6 10       		.sleb128 16
 2150 08b7 18       		.uleb128 0x18
 2151 08b8 01       		.uleb128 0x1
 2152 08b9 51       		.byte	0x51
 2153 08ba 03       		.uleb128 0x3
 2154 08bb F3       		.byte	0xf3
 2155 08bc 01       		.uleb128 0x1
 2156 08bd 52       		.byte	0x52
 2157 08be 00       		.byte	0
 2158 08bf 00       		.byte	0
 2159 08c0 00       		.byte	0
 2160 08c1 14       		.uleb128 0x14
 2161 08c2 43010000 		.4byte	.LASF109
 2162 08c6 01       		.byte	0x1
 2163 08c7 0B01     		.2byte	0x10b
 2164 08c9 07       		.byte	0x7
 2165 08ca D7000000 		.4byte	0xd7
 2166 08ce 00000000 		.4byte	.LFB14
ARM GAS  /tmp/ccHILlsE.s 			page 39


 2167 08d2 54000000 		.4byte	.LFE14-.LFB14
 2168 08d6 01       		.uleb128 0x1
 2169 08d7 9C       		.byte	0x9c
 2170 08d8 1A090000 		.4byte	0x91a
 2171 08dc 15       		.uleb128 0x15
 2172 08dd 6D627000 		.ascii	"mbp\000"
 2173 08e1 01       		.byte	0x1
 2174 08e2 0B01     		.2byte	0x10b
 2175 08e4 1F       		.byte	0x1f
 2176 08e5 3E070000 		.4byte	0x73e
 2177 08e9 CB010000 		.4byte	.LLST42
 2178 08ed C1010000 		.4byte	.LVUS42
 2179 08f1 15       		.uleb128 0x15
 2180 08f2 6D736700 		.ascii	"msg\000"
 2181 08f6 01       		.byte	0x1
 2182 08f7 0B01     		.2byte	0x10b
 2183 08f9 2A       		.byte	0x2a
 2184 08fa D7000000 		.4byte	0xd7
 2185 08fe 18020000 		.4byte	.LLST43
 2186 0902 12020000 		.4byte	.LVUS43
 2187 0906 17       		.uleb128 0x17
 2188 0907 44000000 		.4byte	.LVL53
 2189 090b 7E0F0000 		.4byte	0xf7e
 2190 090f 18       		.uleb128 0x18
 2191 0910 01       		.uleb128 0x1
 2192 0911 50       		.byte	0x50
 2193 0912 05       		.uleb128 0x5
 2194 0913 F3       		.byte	0xf3
 2195 0914 01       		.uleb128 0x1
 2196 0915 50       		.byte	0x50
 2197 0916 23       		.byte	0x23
 2198 0917 10       		.uleb128 0x10
 2199 0918 00       		.byte	0
 2200 0919 00       		.byte	0
 2201 091a 25       		.uleb128 0x25
 2202 091b 89010000 		.4byte	.LASF111
 2203 091f 01       		.byte	0x1
 2204 0920 EC       		.byte	0xec
 2205 0921 07       		.byte	0x7
 2206 0922 D7000000 		.4byte	0xd7
 2207 0926 01       		.byte	0x1
 2208 0927 5C090000 		.4byte	0x95c
 2209 092b 26       		.uleb128 0x26
 2210 092c 6D627000 		.ascii	"mbp\000"
 2211 0930 01       		.byte	0x1
 2212 0931 EC       		.byte	0xec
 2213 0932 1F       		.byte	0x1f
 2214 0933 3E070000 		.4byte	0x73e
 2215 0937 26       		.uleb128 0x26
 2216 0938 6D736700 		.ascii	"msg\000"
 2217 093c 01       		.byte	0x1
 2218 093d EC       		.byte	0xec
 2219 093e 2A       		.byte	0x2a
 2220 093f D7000000 		.4byte	0xd7
 2221 0943 27       		.uleb128 0x27
 2222 0944 A3030000 		.4byte	.LASF106
 2223 0948 01       		.byte	0x1
ARM GAS  /tmp/ccHILlsE.s 			page 40


 2224 0949 EC       		.byte	0xec
 2225 094a 39       		.byte	0x39
 2226 094b EF000000 		.4byte	0xef
 2227 094f 28       		.uleb128 0x28
 2228 0950 10010000 		.4byte	.LASF79
 2229 0954 01       		.byte	0x1
 2230 0955 ED       		.byte	0xed
 2231 0956 09       		.byte	0x9
 2232 0957 D7000000 		.4byte	0xd7
 2233 095b 00       		.byte	0
 2234 095c 29       		.uleb128 0x29
 2235 095d 4A050000 		.4byte	.LASF112
 2236 0961 01       		.byte	0x1
 2237 0962 D0       		.byte	0xd0
 2238 0963 07       		.byte	0x7
 2239 0964 D7000000 		.4byte	0xd7
 2240 0968 00000000 		.4byte	.LFB12
 2241 096c 60000000 		.4byte	.LFE12-.LFB12
 2242 0970 01       		.uleb128 0x1
 2243 0971 9C       		.byte	0x9c
 2244 0972 8B0A0000 		.4byte	0xa8b
 2245 0976 2A       		.uleb128 0x2a
 2246 0977 6D627000 		.ascii	"mbp\000"
 2247 097b 01       		.byte	0x1
 2248 097c D0       		.byte	0xd0
 2249 097d 1E       		.byte	0x1e
 2250 097e 3E070000 		.4byte	0x73e
 2251 0982 48020000 		.4byte	.LLST24
 2252 0986 44020000 		.4byte	.LVUS24
 2253 098a 2A       		.uleb128 0x2a
 2254 098b 6D736700 		.ascii	"msg\000"
 2255 098f 01       		.byte	0x1
 2256 0990 D0       		.byte	0xd0
 2257 0991 29       		.byte	0x29
 2258 0992 D7000000 		.4byte	0xd7
 2259 0996 6A020000 		.4byte	.LLST25
 2260 099a 66020000 		.4byte	.LVUS25
 2261 099e 2B       		.uleb128 0x2b
 2262 099f A3030000 		.4byte	.LASF106
 2263 09a3 01       		.byte	0x1
 2264 09a4 D0       		.byte	0xd0
 2265 09a5 38       		.byte	0x38
 2266 09a6 EF000000 		.4byte	0xef
 2267 09aa 8C020000 		.4byte	.LLST26
 2268 09ae 88020000 		.4byte	.LVUS26
 2269 09b2 2C       		.uleb128 0x2c
 2270 09b3 10010000 		.4byte	.LASF79
 2271 09b7 01       		.byte	0x1
 2272 09b8 D1       		.byte	0xd1
 2273 09b9 09       		.byte	0x9
 2274 09ba D7000000 		.4byte	0xd7
 2275 09be AF020000 		.4byte	.LLST27
 2276 09c2 AD020000 		.4byte	.LVUS27
 2277 09c6 2D       		.uleb128 0x2d
 2278 09c7 1A090000 		.4byte	0x91a
 2279 09cb 14000000 		.4byte	.LBI24
 2280 09cf 03       		.byte	.LVU157
ARM GAS  /tmp/ccHILlsE.s 			page 41


 2281 09d0 14000000 		.4byte	.LBB24
 2282 09d4 40000000 		.4byte	.LBE24-.LBB24
 2283 09d8 01       		.byte	0x1
 2284 09d9 D4       		.byte	0xd4
 2285 09da 0C       		.byte	0xc
 2286 09db 1F       		.uleb128 0x1f
 2287 09dc 43090000 		.4byte	0x943
 2288 09e0 C6020000 		.4byte	.LLST28
 2289 09e4 C2020000 		.4byte	.LVUS28
 2290 09e8 1F       		.uleb128 0x1f
 2291 09e9 37090000 		.4byte	0x937
 2292 09ed E9020000 		.4byte	.LLST29
 2293 09f1 E7020000 		.4byte	.LVUS29
 2294 09f5 1F       		.uleb128 0x1f
 2295 09f6 2B090000 		.4byte	0x92b
 2296 09fa 00030000 		.4byte	.LLST30
 2297 09fe FC020000 		.4byte	.LVUS30
 2298 0a02 20       		.uleb128 0x20
 2299 0a03 4F090000 		.4byte	0x94f
 2300 0a07 22030000 		.4byte	.LLST31
 2301 0a0b 1E030000 		.4byte	.LVUS31
 2302 0a0f 2E       		.uleb128 0x2e
 2303 0a10 1A090000 		.4byte	0x91a
 2304 0a14 24000000 		.4byte	.LBI26
 2305 0a18 00       		.byte	.LVU168
 2306 0a19 24000000 		.4byte	.LBB26
 2307 0a1d 30000000 		.4byte	.LBE26-.LBB26
 2308 0a21 01       		.byte	0x1
 2309 0a22 EC       		.byte	0xec
 2310 0a23 07       		.byte	0x7
 2311 0a24 720A0000 		.4byte	0xa72
 2312 0a28 1F       		.uleb128 0x1f
 2313 0a29 43090000 		.4byte	0x943
 2314 0a2d 42030000 		.4byte	.LLST32
 2315 0a31 40030000 		.4byte	.LVUS32
 2316 0a35 1F       		.uleb128 0x1f
 2317 0a36 37090000 		.4byte	0x937
 2318 0a3a 5A030000 		.4byte	.LLST33
 2319 0a3e 58030000 		.4byte	.LVUS33
 2320 0a42 1F       		.uleb128 0x1f
 2321 0a43 2B090000 		.4byte	0x92b
 2322 0a47 6F030000 		.4byte	.LLST34
 2323 0a4b 6D030000 		.4byte	.LVUS34
 2324 0a4f 22       		.uleb128 0x22
 2325 0a50 4F090000 		.4byte	0x94f
 2326 0a54 23       		.uleb128 0x23
 2327 0a55 50000000 		.4byte	.LVL41
 2328 0a59 7E0F0000 		.4byte	0xf7e
 2329 0a5d 680A0000 		.4byte	0xa68
 2330 0a61 18       		.uleb128 0x18
 2331 0a62 01       		.uleb128 0x1
 2332 0a63 50       		.byte	0x50
 2333 0a64 02       		.uleb128 0x2
 2334 0a65 74       		.byte	0x74
 2335 0a66 10       		.sleb128 16
 2336 0a67 00       		.byte	0
 2337 0a68 24       		.uleb128 0x24
ARM GAS  /tmp/ccHILlsE.s 			page 42


 2338 0a69 54000000 		.4byte	.LVL42
 2339 0a6d 8A0F0000 		.4byte	0xf8a
 2340 0a71 00       		.byte	0
 2341 0a72 17       		.uleb128 0x17
 2342 0a73 1C000000 		.4byte	.LVL38
 2343 0a77 960F0000 		.4byte	0xf96
 2344 0a7b 18       		.uleb128 0x18
 2345 0a7c 01       		.uleb128 0x1
 2346 0a7d 50       		.byte	0x50
 2347 0a7e 02       		.uleb128 0x2
 2348 0a7f 74       		.byte	0x74
 2349 0a80 1C       		.sleb128 28
 2350 0a81 18       		.uleb128 0x18
 2351 0a82 01       		.uleb128 0x1
 2352 0a83 51       		.byte	0x51
 2353 0a84 03       		.uleb128 0x3
 2354 0a85 F3       		.byte	0xf3
 2355 0a86 01       		.uleb128 0x1
 2356 0a87 52       		.byte	0x52
 2357 0a88 00       		.byte	0
 2358 0a89 00       		.byte	0
 2359 0a8a 00       		.byte	0
 2360 0a8b 29       		.uleb128 0x29
 2361 0a8c 20010000 		.4byte	.LASF113
 2362 0a90 01       		.byte	0x1
 2363 0a91 AE       		.byte	0xae
 2364 0a92 07       		.byte	0x7
 2365 0a93 D7000000 		.4byte	0xd7
 2366 0a97 00000000 		.4byte	.LFB11
 2367 0a9b 50000000 		.4byte	.LFE11-.LFB11
 2368 0a9f 01       		.uleb128 0x1
 2369 0aa0 9C       		.byte	0x9c
 2370 0aa1 E10A0000 		.4byte	0xae1
 2371 0aa5 2A       		.uleb128 0x2a
 2372 0aa6 6D627000 		.ascii	"mbp\000"
 2373 0aaa 01       		.byte	0x1
 2374 0aab AE       		.byte	0xae
 2375 0aac 1A       		.byte	0x1a
 2376 0aad 3E070000 		.4byte	0x73e
 2377 0ab1 8C030000 		.4byte	.LLST22
 2378 0ab5 82030000 		.4byte	.LVUS22
 2379 0ab9 2A       		.uleb128 0x2a
 2380 0aba 6D736700 		.ascii	"msg\000"
 2381 0abe 01       		.byte	0x1
 2382 0abf AE       		.byte	0xae
 2383 0ac0 25       		.byte	0x25
 2384 0ac1 D7000000 		.4byte	0xd7
 2385 0ac5 D9030000 		.4byte	.LLST23
 2386 0ac9 D3030000 		.4byte	.LVUS23
 2387 0acd 17       		.uleb128 0x17
 2388 0ace 40000000 		.4byte	.LVL31
 2389 0ad2 7E0F0000 		.4byte	0xf7e
 2390 0ad6 18       		.uleb128 0x18
 2391 0ad7 01       		.uleb128 0x1
 2392 0ad8 50       		.byte	0x50
 2393 0ad9 05       		.uleb128 0x5
 2394 0ada F3       		.byte	0xf3
ARM GAS  /tmp/ccHILlsE.s 			page 43


 2395 0adb 01       		.uleb128 0x1
 2396 0adc 50       		.byte	0x50
 2397 0add 23       		.byte	0x23
 2398 0ade 10       		.uleb128 0x10
 2399 0adf 00       		.byte	0
 2400 0ae0 00       		.byte	0
 2401 0ae1 25       		.uleb128 0x25
 2402 0ae2 31010000 		.4byte	.LASF114
 2403 0ae6 01       		.byte	0x1
 2404 0ae7 8F       		.byte	0x8f
 2405 0ae8 07       		.byte	0x7
 2406 0ae9 D7000000 		.4byte	0xd7
 2407 0aed 01       		.byte	0x1
 2408 0aee 230B0000 		.4byte	0xb23
 2409 0af2 26       		.uleb128 0x26
 2410 0af3 6D627000 		.ascii	"mbp\000"
 2411 0af7 01       		.byte	0x1
 2412 0af8 8F       		.byte	0x8f
 2413 0af9 1A       		.byte	0x1a
 2414 0afa 3E070000 		.4byte	0x73e
 2415 0afe 26       		.uleb128 0x26
 2416 0aff 6D736700 		.ascii	"msg\000"
 2417 0b03 01       		.byte	0x1
 2418 0b04 8F       		.byte	0x8f
 2419 0b05 25       		.byte	0x25
 2420 0b06 D7000000 		.4byte	0xd7
 2421 0b0a 27       		.uleb128 0x27
 2422 0b0b A3030000 		.4byte	.LASF106
 2423 0b0f 01       		.byte	0x1
 2424 0b10 8F       		.byte	0x8f
 2425 0b11 34       		.byte	0x34
 2426 0b12 EF000000 		.4byte	0xef
 2427 0b16 28       		.uleb128 0x28
 2428 0b17 10010000 		.4byte	.LASF79
 2429 0b1b 01       		.byte	0x1
 2430 0b1c 90       		.byte	0x90
 2431 0b1d 09       		.byte	0x9
 2432 0b1e D7000000 		.4byte	0xd7
 2433 0b22 00       		.byte	0
 2434 0b23 29       		.uleb128 0x29
 2435 0b24 57040000 		.4byte	.LASF115
 2436 0b28 01       		.byte	0x1
 2437 0b29 73       		.byte	0x73
 2438 0b2a 07       		.byte	0x7
 2439 0b2b D7000000 		.4byte	0xd7
 2440 0b2f 00000000 		.4byte	.LFB9
 2441 0b33 58000000 		.4byte	.LFE9-.LFB9
 2442 0b37 01       		.uleb128 0x1
 2443 0b38 9C       		.byte	0x9c
 2444 0b39 520C0000 		.4byte	0xc52
 2445 0b3d 2A       		.uleb128 0x2a
 2446 0b3e 6D627000 		.ascii	"mbp\000"
 2447 0b42 01       		.byte	0x1
 2448 0b43 73       		.byte	0x73
 2449 0b44 19       		.byte	0x19
 2450 0b45 3E070000 		.4byte	0x73e
 2451 0b49 09040000 		.4byte	.LLST4
ARM GAS  /tmp/ccHILlsE.s 			page 44


 2452 0b4d 05040000 		.4byte	.LVUS4
 2453 0b51 2A       		.uleb128 0x2a
 2454 0b52 6D736700 		.ascii	"msg\000"
 2455 0b56 01       		.byte	0x1
 2456 0b57 73       		.byte	0x73
 2457 0b58 24       		.byte	0x24
 2458 0b59 D7000000 		.4byte	0xd7
 2459 0b5d 2B040000 		.4byte	.LLST5
 2460 0b61 27040000 		.4byte	.LVUS5
 2461 0b65 2B       		.uleb128 0x2b
 2462 0b66 A3030000 		.4byte	.LASF106
 2463 0b6a 01       		.byte	0x1
 2464 0b6b 73       		.byte	0x73
 2465 0b6c 33       		.byte	0x33
 2466 0b6d EF000000 		.4byte	0xef
 2467 0b71 4D040000 		.4byte	.LLST6
 2468 0b75 49040000 		.4byte	.LVUS6
 2469 0b79 2C       		.uleb128 0x2c
 2470 0b7a 10010000 		.4byte	.LASF79
 2471 0b7e 01       		.byte	0x1
 2472 0b7f 74       		.byte	0x74
 2473 0b80 09       		.byte	0x9
 2474 0b81 D7000000 		.4byte	0xd7
 2475 0b85 70040000 		.4byte	.LLST7
 2476 0b89 6E040000 		.4byte	.LVUS7
 2477 0b8d 2D       		.uleb128 0x2d
 2478 0b8e E10A0000 		.4byte	0xae1
 2479 0b92 14000000 		.4byte	.LBI12
 2480 0b96 03       		.byte	.LVU51
 2481 0b97 14000000 		.4byte	.LBB12
 2482 0b9b 38000000 		.4byte	.LBE12-.LBB12
 2483 0b9f 01       		.byte	0x1
 2484 0ba0 77       		.byte	0x77
 2485 0ba1 0C       		.byte	0xc
 2486 0ba2 1F       		.uleb128 0x1f
 2487 0ba3 0A0B0000 		.4byte	0xb0a
 2488 0ba7 87040000 		.4byte	.LLST8
 2489 0bab 83040000 		.4byte	.LVUS8
 2490 0baf 1F       		.uleb128 0x1f
 2491 0bb0 FE0A0000 		.4byte	0xafe
 2492 0bb4 AA040000 		.4byte	.LLST9
 2493 0bb8 A8040000 		.4byte	.LVUS9
 2494 0bbc 1F       		.uleb128 0x1f
 2495 0bbd F20A0000 		.4byte	0xaf2
 2496 0bc1 C1040000 		.4byte	.LLST10
 2497 0bc5 BD040000 		.4byte	.LVUS10
 2498 0bc9 20       		.uleb128 0x20
 2499 0bca 160B0000 		.4byte	0xb16
 2500 0bce E3040000 		.4byte	.LLST11
 2501 0bd2 DF040000 		.4byte	.LVUS11
 2502 0bd6 2E       		.uleb128 0x2e
 2503 0bd7 E10A0000 		.4byte	0xae1
 2504 0bdb 24000000 		.4byte	.LBI14
 2505 0bdf 00       		.byte	.LVU62
 2506 0be0 24000000 		.4byte	.LBB14
 2507 0be4 28000000 		.4byte	.LBE14-.LBB14
 2508 0be8 01       		.byte	0x1
ARM GAS  /tmp/ccHILlsE.s 			page 45


 2509 0be9 8F       		.byte	0x8f
 2510 0bea 07       		.byte	0x7
 2511 0beb 390C0000 		.4byte	0xc39
 2512 0bef 1F       		.uleb128 0x1f
 2513 0bf0 0A0B0000 		.4byte	0xb0a
 2514 0bf4 03050000 		.4byte	.LLST12
 2515 0bf8 01050000 		.4byte	.LVUS12
 2516 0bfc 1F       		.uleb128 0x1f
 2517 0bfd FE0A0000 		.4byte	0xafe
 2518 0c01 1B050000 		.4byte	.LLST13
 2519 0c05 19050000 		.4byte	.LVUS13
 2520 0c09 1F       		.uleb128 0x1f
 2521 0c0a F20A0000 		.4byte	0xaf2
 2522 0c0e 30050000 		.4byte	.LLST14
 2523 0c12 2E050000 		.4byte	.LVUS14
 2524 0c16 22       		.uleb128 0x22
 2525 0c17 160B0000 		.4byte	0xb16
 2526 0c1b 23       		.uleb128 0x23
 2527 0c1c 48000000 		.4byte	.LVL19
 2528 0c20 7E0F0000 		.4byte	0xf7e
 2529 0c24 2F0C0000 		.4byte	0xc2f
 2530 0c28 18       		.uleb128 0x18
 2531 0c29 01       		.uleb128 0x1
 2532 0c2a 50       		.byte	0x50
 2533 0c2b 02       		.uleb128 0x2
 2534 0c2c 74       		.byte	0x74
 2535 0c2d 10       		.sleb128 16
 2536 0c2e 00       		.byte	0
 2537 0c2f 24       		.uleb128 0x24
 2538 0c30 4C000000 		.4byte	.LVL20
 2539 0c34 8A0F0000 		.4byte	0xf8a
 2540 0c38 00       		.byte	0
 2541 0c39 17       		.uleb128 0x17
 2542 0c3a 1C000000 		.4byte	.LVL16
 2543 0c3e 960F0000 		.4byte	0xf96
 2544 0c42 18       		.uleb128 0x18
 2545 0c43 01       		.uleb128 0x1
 2546 0c44 50       		.byte	0x50
 2547 0c45 02       		.uleb128 0x2
 2548 0c46 74       		.byte	0x74
 2549 0c47 1C       		.sleb128 28
 2550 0c48 18       		.uleb128 0x18
 2551 0c49 01       		.uleb128 0x1
 2552 0c4a 51       		.byte	0x51
 2553 0c4b 03       		.uleb128 0x3
 2554 0c4c F3       		.byte	0xf3
 2555 0c4d 01       		.uleb128 0x1
 2556 0c4e 52       		.byte	0x52
 2557 0c4f 00       		.byte	0
 2558 0c50 00       		.byte	0
 2559 0c51 00       		.byte	0
 2560 0c52 2F       		.uleb128 0x2f
 2561 0c53 60030000 		.4byte	.LASF116
 2562 0c57 01       		.byte	0x1
 2563 0c58 54       		.byte	0x54
 2564 0c59 06       		.byte	0x6
 2565 0c5a 00000000 		.4byte	.LFB8
ARM GAS  /tmp/ccHILlsE.s 			page 46


 2566 0c5e 44000000 		.4byte	.LFE8-.LFB8
 2567 0c62 01       		.uleb128 0x1
 2568 0c63 9C       		.byte	0x9c
 2569 0c64 B30C0000 		.4byte	0xcb3
 2570 0c68 2A       		.uleb128 0x2a
 2571 0c69 6D627000 		.ascii	"mbp\000"
 2572 0c6d 01       		.byte	0x1
 2573 0c6e 54       		.byte	0x54
 2574 0c6f 19       		.byte	0x19
 2575 0c70 3E070000 		.4byte	0x73e
 2576 0c74 47050000 		.4byte	.LLST3
 2577 0c78 43050000 		.4byte	.LVUS3
 2578 0c7c 23       		.uleb128 0x23
 2579 0c7d 2C000000 		.4byte	.LVL9
 2580 0c81 A20F0000 		.4byte	0xfa2
 2581 0c85 900C0000 		.4byte	0xc90
 2582 0c89 18       		.uleb128 0x18
 2583 0c8a 01       		.uleb128 0x1
 2584 0c8b 50       		.byte	0x50
 2585 0c8c 02       		.uleb128 0x2
 2586 0c8d 74       		.byte	0x74
 2587 0c8e 1C       		.sleb128 28
 2588 0c8f 00       		.byte	0
 2589 0c90 23       		.uleb128 0x23
 2590 0c91 38000000 		.4byte	.LVL10
 2591 0c95 A20F0000 		.4byte	0xfa2
 2592 0c99 A90C0000 		.4byte	0xca9
 2593 0c9d 18       		.uleb128 0x18
 2594 0c9e 01       		.uleb128 0x1
 2595 0c9f 50       		.byte	0x50
 2596 0ca0 02       		.uleb128 0x2
 2597 0ca1 74       		.byte	0x74
 2598 0ca2 10       		.sleb128 16
 2599 0ca3 18       		.uleb128 0x18
 2600 0ca4 01       		.uleb128 0x1
 2601 0ca5 51       		.byte	0x51
 2602 0ca6 01       		.uleb128 0x1
 2603 0ca7 30       		.byte	0x30
 2604 0ca8 00       		.byte	0
 2605 0ca9 24       		.uleb128 0x24
 2606 0caa 3C000000 		.4byte	.LVL11
 2607 0cae 8A0F0000 		.4byte	0xf8a
 2608 0cb2 00       		.byte	0
 2609 0cb3 2F       		.uleb128 0x2f
 2610 0cb4 80010000 		.4byte	.LASF117
 2611 0cb8 01       		.byte	0x1
 2612 0cb9 41       		.byte	0x41
 2613 0cba 06       		.byte	0x6
 2614 0cbb 00000000 		.4byte	.LFB7
 2615 0cbf 3C000000 		.4byte	.LFE7-.LFB7
 2616 0cc3 01       		.uleb128 0x1
 2617 0cc4 9C       		.byte	0x9c
 2618 0cc5 370D0000 		.4byte	0xd37
 2619 0cc9 2A       		.uleb128 0x2a
 2620 0cca 6D627000 		.ascii	"mbp\000"
 2621 0cce 01       		.byte	0x1
 2622 0ccf 41       		.byte	0x41
ARM GAS  /tmp/ccHILlsE.s 			page 47


 2623 0cd0 18       		.byte	0x18
 2624 0cd1 3E070000 		.4byte	0x73e
 2625 0cd5 6D050000 		.4byte	.LLST0
 2626 0cd9 65050000 		.4byte	.LVUS0
 2627 0cdd 2A       		.uleb128 0x2a
 2628 0cde 62756600 		.ascii	"buf\000"
 2629 0ce2 01       		.byte	0x1
 2630 0ce3 41       		.byte	0x41
 2631 0ce4 24       		.byte	0x24
 2632 0ce5 44050000 		.4byte	0x544
 2633 0ce9 AC050000 		.4byte	.LLST1
 2634 0ced A6050000 		.4byte	.LVUS1
 2635 0cf1 2A       		.uleb128 0x2a
 2636 0cf2 6E00     		.ascii	"n\000"
 2637 0cf4 01       		.byte	0x1
 2638 0cf5 41       		.byte	0x41
 2639 0cf6 2F       		.byte	0x2f
 2640 0cf7 00010000 		.4byte	0x100
 2641 0cfb DE050000 		.4byte	.LLST2
 2642 0cff D8050000 		.4byte	.LVUS2
 2643 0d03 23       		.uleb128 0x23
 2644 0d04 2C000000 		.4byte	.LVL4
 2645 0d08 AE0F0000 		.4byte	0xfae
 2646 0d0c 1E0D0000 		.4byte	0xd1e
 2647 0d10 18       		.uleb128 0x18
 2648 0d11 01       		.uleb128 0x1
 2649 0d12 50       		.byte	0x50
 2650 0d13 02       		.uleb128 0x2
 2651 0d14 74       		.byte	0x74
 2652 0d15 1C       		.sleb128 28
 2653 0d16 18       		.uleb128 0x18
 2654 0d17 01       		.uleb128 0x1
 2655 0d18 51       		.byte	0x51
 2656 0d19 03       		.uleb128 0x3
 2657 0d1a F3       		.byte	0xf3
 2658 0d1b 01       		.uleb128 0x1
 2659 0d1c 52       		.byte	0x52
 2660 0d1d 00       		.byte	0
 2661 0d1e 30       		.uleb128 0x30
 2662 0d1f 3C000000 		.4byte	.LVL6
 2663 0d23 AE0F0000 		.4byte	0xfae
 2664 0d27 18       		.uleb128 0x18
 2665 0d28 01       		.uleb128 0x1
 2666 0d29 50       		.byte	0x50
 2667 0d2a 05       		.uleb128 0x5
 2668 0d2b F3       		.byte	0xf3
 2669 0d2c 01       		.uleb128 0x1
 2670 0d2d 50       		.byte	0x50
 2671 0d2e 23       		.byte	0x23
 2672 0d2f 10       		.uleb128 0x10
 2673 0d30 18       		.uleb128 0x18
 2674 0d31 01       		.uleb128 0x1
 2675 0d32 51       		.byte	0x51
 2676 0d33 01       		.uleb128 0x1
 2677 0d34 30       		.byte	0x30
 2678 0d35 00       		.byte	0
 2679 0d36 00       		.byte	0
ARM GAS  /tmp/ccHILlsE.s 			page 48


 2680 0d37 31       		.uleb128 0x31
 2681 0d38 E10A0000 		.4byte	0xae1
 2682 0d3c 00000000 		.4byte	.LFB10
 2683 0d40 50000000 		.4byte	.LFE10-.LFB10
 2684 0d44 01       		.uleb128 0x1
 2685 0d45 9C       		.byte	0x9c
 2686 0d46 F90D0000 		.4byte	0xdf9
 2687 0d4a 1F       		.uleb128 0x1f
 2688 0d4b F20A0000 		.4byte	0xaf2
 2689 0d4f 0E060000 		.4byte	.LLST15
 2690 0d53 0A060000 		.4byte	.LVUS15
 2691 0d57 1F       		.uleb128 0x1f
 2692 0d58 FE0A0000 		.4byte	0xafe
 2693 0d5c 30060000 		.4byte	.LLST16
 2694 0d60 2C060000 		.4byte	.LVUS16
 2695 0d64 1F       		.uleb128 0x1f
 2696 0d65 0A0B0000 		.4byte	0xb0a
 2697 0d69 52060000 		.4byte	.LLST17
 2698 0d6d 4E060000 		.4byte	.LVUS17
 2699 0d71 20       		.uleb128 0x20
 2700 0d72 160B0000 		.4byte	0xb16
 2701 0d76 77060000 		.4byte	.LLST18
 2702 0d7a 73060000 		.4byte	.LVUS18
 2703 0d7e 2E       		.uleb128 0x2e
 2704 0d7f E10A0000 		.4byte	0xae1
 2705 0d83 20000000 		.4byte	.LBI18
 2706 0d87 00       		.byte	.LVU99
 2707 0d88 20000000 		.4byte	.LBB18
 2708 0d8c 28000000 		.4byte	.LBE18-.LBB18
 2709 0d90 01       		.byte	0x1
 2710 0d91 8F       		.byte	0x8f
 2711 0d92 07       		.byte	0x7
 2712 0d93 E10D0000 		.4byte	0xde1
 2713 0d97 1F       		.uleb128 0x1f
 2714 0d98 0A0B0000 		.4byte	0xb0a
 2715 0d9c 97060000 		.4byte	.LLST19
 2716 0da0 95060000 		.4byte	.LVUS19
 2717 0da4 1F       		.uleb128 0x1f
 2718 0da5 FE0A0000 		.4byte	0xafe
 2719 0da9 AF060000 		.4byte	.LLST20
 2720 0dad AD060000 		.4byte	.LVUS20
 2721 0db1 1F       		.uleb128 0x1f
 2722 0db2 F20A0000 		.4byte	0xaf2
 2723 0db6 C4060000 		.4byte	.LLST21
 2724 0dba C2060000 		.4byte	.LVUS21
 2725 0dbe 22       		.uleb128 0x22
 2726 0dbf 160B0000 		.4byte	0xb16
 2727 0dc3 23       		.uleb128 0x23
 2728 0dc4 44000000 		.4byte	.LVL27
 2729 0dc8 7E0F0000 		.4byte	0xf7e
 2730 0dcc D70D0000 		.4byte	0xdd7
 2731 0dd0 18       		.uleb128 0x18
 2732 0dd1 01       		.uleb128 0x1
 2733 0dd2 50       		.byte	0x50
 2734 0dd3 02       		.uleb128 0x2
 2735 0dd4 74       		.byte	0x74
 2736 0dd5 10       		.sleb128 16
ARM GAS  /tmp/ccHILlsE.s 			page 49


 2737 0dd6 00       		.byte	0
 2738 0dd7 24       		.uleb128 0x24
 2739 0dd8 48000000 		.4byte	.LVL28
 2740 0ddc 8A0F0000 		.4byte	0xf8a
 2741 0de0 00       		.byte	0
 2742 0de1 17       		.uleb128 0x17
 2743 0de2 18000000 		.4byte	.LVL24
 2744 0de6 960F0000 		.4byte	0xf96
 2745 0dea 18       		.uleb128 0x18
 2746 0deb 01       		.uleb128 0x1
 2747 0dec 50       		.byte	0x50
 2748 0ded 02       		.uleb128 0x2
 2749 0dee 74       		.byte	0x74
 2750 0def 1C       		.sleb128 28
 2751 0df0 18       		.uleb128 0x18
 2752 0df1 01       		.uleb128 0x1
 2753 0df2 51       		.byte	0x51
 2754 0df3 03       		.uleb128 0x3
 2755 0df4 F3       		.byte	0xf3
 2756 0df5 01       		.uleb128 0x1
 2757 0df6 52       		.byte	0x52
 2758 0df7 00       		.byte	0
 2759 0df8 00       		.byte	0
 2760 0df9 31       		.uleb128 0x31
 2761 0dfa 1A090000 		.4byte	0x91a
 2762 0dfe 00000000 		.4byte	.LFB13
 2763 0e02 58000000 		.4byte	.LFE13-.LFB13
 2764 0e06 01       		.uleb128 0x1
 2765 0e07 9C       		.byte	0x9c
 2766 0e08 BB0E0000 		.4byte	0xebb
 2767 0e0c 1F       		.uleb128 0x1f
 2768 0e0d 2B090000 		.4byte	0x92b
 2769 0e11 DB060000 		.4byte	.LLST35
 2770 0e15 D7060000 		.4byte	.LVUS35
 2771 0e19 1F       		.uleb128 0x1f
 2772 0e1a 37090000 		.4byte	0x937
 2773 0e1e FD060000 		.4byte	.LLST36
 2774 0e22 F9060000 		.4byte	.LVUS36
 2775 0e26 1F       		.uleb128 0x1f
 2776 0e27 43090000 		.4byte	0x943
 2777 0e2b 1F070000 		.4byte	.LLST37
 2778 0e2f 1B070000 		.4byte	.LVUS37
 2779 0e33 20       		.uleb128 0x20
 2780 0e34 4F090000 		.4byte	0x94f
 2781 0e38 44070000 		.4byte	.LLST38
 2782 0e3c 40070000 		.4byte	.LVUS38
 2783 0e40 2E       		.uleb128 0x2e
 2784 0e41 1A090000 		.4byte	0x91a
 2785 0e45 20000000 		.4byte	.LBI30
 2786 0e49 00       		.byte	.LVU205
 2787 0e4a 20000000 		.4byte	.LBB30
 2788 0e4e 30000000 		.4byte	.LBE30-.LBB30
 2789 0e52 01       		.byte	0x1
 2790 0e53 EC       		.byte	0xec
 2791 0e54 07       		.byte	0x7
 2792 0e55 A30E0000 		.4byte	0xea3
 2793 0e59 1F       		.uleb128 0x1f
ARM GAS  /tmp/ccHILlsE.s 			page 50


 2794 0e5a 43090000 		.4byte	0x943
 2795 0e5e 64070000 		.4byte	.LLST39
 2796 0e62 62070000 		.4byte	.LVUS39
 2797 0e66 1F       		.uleb128 0x1f
 2798 0e67 37090000 		.4byte	0x937
 2799 0e6b 7C070000 		.4byte	.LLST40
 2800 0e6f 7A070000 		.4byte	.LVUS40
 2801 0e73 1F       		.uleb128 0x1f
 2802 0e74 2B090000 		.4byte	0x92b
 2803 0e78 91070000 		.4byte	.LLST41
 2804 0e7c 8F070000 		.4byte	.LVUS41
 2805 0e80 22       		.uleb128 0x22
 2806 0e81 4F090000 		.4byte	0x94f
 2807 0e85 23       		.uleb128 0x23
 2808 0e86 4C000000 		.4byte	.LVL49
 2809 0e8a 7E0F0000 		.4byte	0xf7e
 2810 0e8e 990E0000 		.4byte	0xe99
 2811 0e92 18       		.uleb128 0x18
 2812 0e93 01       		.uleb128 0x1
 2813 0e94 50       		.byte	0x50
 2814 0e95 02       		.uleb128 0x2
 2815 0e96 74       		.byte	0x74
 2816 0e97 10       		.sleb128 16
 2817 0e98 00       		.byte	0
 2818 0e99 24       		.uleb128 0x24
 2819 0e9a 50000000 		.4byte	.LVL50
 2820 0e9e 8A0F0000 		.4byte	0xf8a
 2821 0ea2 00       		.byte	0
 2822 0ea3 17       		.uleb128 0x17
 2823 0ea4 18000000 		.4byte	.LVL46
 2824 0ea8 960F0000 		.4byte	0xf96
 2825 0eac 18       		.uleb128 0x18
 2826 0ead 01       		.uleb128 0x1
 2827 0eae 50       		.byte	0x50
 2828 0eaf 02       		.uleb128 0x2
 2829 0eb0 74       		.byte	0x74
 2830 0eb1 1C       		.sleb128 28
 2831 0eb2 18       		.uleb128 0x18
 2832 0eb3 01       		.uleb128 0x1
 2833 0eb4 51       		.byte	0x51
 2834 0eb5 03       		.uleb128 0x3
 2835 0eb6 F3       		.byte	0xf3
 2836 0eb7 01       		.uleb128 0x1
 2837 0eb8 52       		.byte	0x52
 2838 0eb9 00       		.byte	0
 2839 0eba 00       		.byte	0
 2840 0ebb 31       		.uleb128 0x31
 2841 0ebc 44070000 		.4byte	0x744
 2842 0ec0 00000000 		.4byte	.LFB16
 2843 0ec4 58000000 		.4byte	.LFE16-.LFB16
 2844 0ec8 01       		.uleb128 0x1
 2845 0ec9 9C       		.byte	0x9c
 2846 0eca 7E0F0000 		.4byte	0xf7e
 2847 0ece 1F       		.uleb128 0x1f
 2848 0ecf 56070000 		.4byte	0x756
 2849 0ed3 A8070000 		.4byte	.LLST55
 2850 0ed7 A4070000 		.4byte	.LVUS55
ARM GAS  /tmp/ccHILlsE.s 			page 51


 2851 0edb 1F       		.uleb128 0x1f
 2852 0edc 63070000 		.4byte	0x763
 2853 0ee0 CA070000 		.4byte	.LLST56
 2854 0ee4 C6070000 		.4byte	.LVUS56
 2855 0ee8 1F       		.uleb128 0x1f
 2856 0ee9 70070000 		.4byte	0x770
 2857 0eed EC070000 		.4byte	.LLST57
 2858 0ef1 E8070000 		.4byte	.LVUS57
 2859 0ef5 20       		.uleb128 0x20
 2860 0ef6 7D070000 		.4byte	0x77d
 2861 0efa 11080000 		.4byte	.LLST58
 2862 0efe 0D080000 		.4byte	.LVUS58
 2863 0f02 21       		.uleb128 0x21
 2864 0f03 44070000 		.4byte	0x744
 2865 0f07 20000000 		.4byte	.LBI42
 2866 0f0b 00       		.byte	.LVU313
 2867 0f0c 20000000 		.4byte	.LBB42
 2868 0f10 30000000 		.4byte	.LBE42-.LBB42
 2869 0f14 01       		.byte	0x1
 2870 0f15 4901     		.2byte	0x149
 2871 0f17 07       		.byte	0x7
 2872 0f18 660F0000 		.4byte	0xf66
 2873 0f1c 1F       		.uleb128 0x1f
 2874 0f1d 70070000 		.4byte	0x770
 2875 0f21 31080000 		.4byte	.LLST59
 2876 0f25 2F080000 		.4byte	.LVUS59
 2877 0f29 1F       		.uleb128 0x1f
 2878 0f2a 63070000 		.4byte	0x763
 2879 0f2e 49080000 		.4byte	.LLST60
 2880 0f32 47080000 		.4byte	.LVUS60
 2881 0f36 1F       		.uleb128 0x1f
 2882 0f37 56070000 		.4byte	0x756
 2883 0f3b 5E080000 		.4byte	.LLST61
 2884 0f3f 5C080000 		.4byte	.LVUS61
 2885 0f43 22       		.uleb128 0x22
 2886 0f44 7D070000 		.4byte	0x77d
 2887 0f48 23       		.uleb128 0x23
 2888 0f49 4C000000 		.4byte	.LVL71
 2889 0f4d 7E0F0000 		.4byte	0xf7e
 2890 0f51 5C0F0000 		.4byte	0xf5c
 2891 0f55 18       		.uleb128 0x18
 2892 0f56 01       		.uleb128 0x1
 2893 0f57 50       		.byte	0x50
 2894 0f58 02       		.uleb128 0x2
 2895 0f59 74       		.byte	0x74
 2896 0f5a 1C       		.sleb128 28
 2897 0f5b 00       		.byte	0
 2898 0f5c 24       		.uleb128 0x24
 2899 0f5d 50000000 		.4byte	.LVL72
 2900 0f61 8A0F0000 		.4byte	0xf8a
 2901 0f65 00       		.byte	0
 2902 0f66 17       		.uleb128 0x17
 2903 0f67 18000000 		.4byte	.LVL68
 2904 0f6b 960F0000 		.4byte	0xf96
 2905 0f6f 18       		.uleb128 0x18
 2906 0f70 01       		.uleb128 0x1
 2907 0f71 50       		.byte	0x50
ARM GAS  /tmp/ccHILlsE.s 			page 52


 2908 0f72 02       		.uleb128 0x2
 2909 0f73 74       		.byte	0x74
 2910 0f74 10       		.sleb128 16
 2911 0f75 18       		.uleb128 0x18
 2912 0f76 01       		.uleb128 0x1
 2913 0f77 51       		.byte	0x51
 2914 0f78 03       		.uleb128 0x3
 2915 0f79 F3       		.byte	0xf3
 2916 0f7a 01       		.uleb128 0x1
 2917 0f7b 52       		.byte	0x52
 2918 0f7c 00       		.byte	0
 2919 0f7d 00       		.byte	0
 2920 0f7e 32       		.uleb128 0x32
 2921 0f7f 2F000000 		.4byte	.LASF118
 2922 0f83 2F000000 		.4byte	.LASF118
 2923 0f87 09       		.byte	0x9
 2924 0f88 36       		.byte	0x36
 2925 0f89 08       		.byte	0x8
 2926 0f8a 32       		.uleb128 0x32
 2927 0f8b 43020000 		.4byte	.LASF119
 2928 0f8f 43020000 		.4byte	.LASF119
 2929 0f93 08       		.byte	0x8
 2930 0f94 95       		.byte	0x95
 2931 0f95 08       		.byte	0x8
 2932 0f96 32       		.uleb128 0x32
 2933 0f97 0C050000 		.4byte	.LASF120
 2934 0f9b 0C050000 		.4byte	.LASF120
 2935 0f9f 09       		.byte	0x9
 2936 0fa0 34       		.byte	0x34
 2937 0fa1 09       		.byte	0x9
 2938 0fa2 32       		.uleb128 0x32
 2939 0fa3 AC050000 		.4byte	.LASF121
 2940 0fa7 AC050000 		.4byte	.LASF121
 2941 0fab 09       		.byte	0x9
 2942 0fac 30       		.byte	0x30
 2943 0fad 08       		.byte	0x8
 2944 0fae 32       		.uleb128 0x32
 2945 0faf 09060000 		.4byte	.LASF122
 2946 0fb3 09060000 		.4byte	.LASF122
 2947 0fb7 09       		.byte	0x9
 2948 0fb8 2E       		.byte	0x2e
 2949 0fb9 08       		.byte	0x8
 2950 0fba 00       		.byte	0
 2951              		.section	.debug_abbrev,"",%progbits
 2952              	.Ldebug_abbrev0:
 2953 0000 01       		.uleb128 0x1
 2954 0001 11       		.uleb128 0x11
 2955 0002 01       		.byte	0x1
 2956 0003 25       		.uleb128 0x25
 2957 0004 0E       		.uleb128 0xe
 2958 0005 13       		.uleb128 0x13
 2959 0006 0B       		.uleb128 0xb
 2960 0007 03       		.uleb128 0x3
 2961 0008 0E       		.uleb128 0xe
 2962 0009 1B       		.uleb128 0x1b
 2963 000a 0E       		.uleb128 0xe
 2964 000b 55       		.uleb128 0x55
ARM GAS  /tmp/ccHILlsE.s 			page 53


 2965 000c 17       		.uleb128 0x17
 2966 000d 11       		.uleb128 0x11
 2967 000e 01       		.uleb128 0x1
 2968 000f 10       		.uleb128 0x10
 2969 0010 17       		.uleb128 0x17
 2970 0011 00       		.byte	0
 2971 0012 00       		.byte	0
 2972 0013 02       		.uleb128 0x2
 2973 0014 24       		.uleb128 0x24
 2974 0015 00       		.byte	0
 2975 0016 0B       		.uleb128 0xb
 2976 0017 0B       		.uleb128 0xb
 2977 0018 3E       		.uleb128 0x3e
 2978 0019 0B       		.uleb128 0xb
 2979 001a 03       		.uleb128 0x3
 2980 001b 08       		.uleb128 0x8
 2981 001c 00       		.byte	0
 2982 001d 00       		.byte	0
 2983 001e 03       		.uleb128 0x3
 2984 001f 24       		.uleb128 0x24
 2985 0020 00       		.byte	0
 2986 0021 0B       		.uleb128 0xb
 2987 0022 0B       		.uleb128 0xb
 2988 0023 3E       		.uleb128 0x3e
 2989 0024 0B       		.uleb128 0xb
 2990 0025 03       		.uleb128 0x3
 2991 0026 0E       		.uleb128 0xe
 2992 0027 00       		.byte	0
 2993 0028 00       		.byte	0
 2994 0029 04       		.uleb128 0x4
 2995 002a 16       		.uleb128 0x16
 2996 002b 00       		.byte	0
 2997 002c 03       		.uleb128 0x3
 2998 002d 0E       		.uleb128 0xe
 2999 002e 3A       		.uleb128 0x3a
 3000 002f 0B       		.uleb128 0xb
 3001 0030 3B       		.uleb128 0x3b
 3002 0031 0B       		.uleb128 0xb
 3003 0032 39       		.uleb128 0x39
 3004 0033 0B       		.uleb128 0xb
 3005 0034 49       		.uleb128 0x49
 3006 0035 13       		.uleb128 0x13
 3007 0036 00       		.byte	0
 3008 0037 00       		.byte	0
 3009 0038 05       		.uleb128 0x5
 3010 0039 35       		.uleb128 0x35
 3011 003a 00       		.byte	0
 3012 003b 49       		.uleb128 0x49
 3013 003c 13       		.uleb128 0x13
 3014 003d 00       		.byte	0
 3015 003e 00       		.byte	0
 3016 003f 06       		.uleb128 0x6
 3017 0040 13       		.uleb128 0x13
 3018 0041 01       		.byte	0x1
 3019 0042 03       		.uleb128 0x3
 3020 0043 0E       		.uleb128 0xe
 3021 0044 0B       		.uleb128 0xb
ARM GAS  /tmp/ccHILlsE.s 			page 54


 3022 0045 0B       		.uleb128 0xb
 3023 0046 3A       		.uleb128 0x3a
 3024 0047 0B       		.uleb128 0xb
 3025 0048 3B       		.uleb128 0x3b
 3026 0049 0B       		.uleb128 0xb
 3027 004a 39       		.uleb128 0x39
 3028 004b 0B       		.uleb128 0xb
 3029 004c 01       		.uleb128 0x1
 3030 004d 13       		.uleb128 0x13
 3031 004e 00       		.byte	0
 3032 004f 00       		.byte	0
 3033 0050 07       		.uleb128 0x7
 3034 0051 0D       		.uleb128 0xd
 3035 0052 00       		.byte	0
 3036 0053 03       		.uleb128 0x3
 3037 0054 0E       		.uleb128 0xe
 3038 0055 3A       		.uleb128 0x3a
 3039 0056 0B       		.uleb128 0xb
 3040 0057 3B       		.uleb128 0x3b
 3041 0058 0B       		.uleb128 0xb
 3042 0059 39       		.uleb128 0x39
 3043 005a 0B       		.uleb128 0xb
 3044 005b 49       		.uleb128 0x49
 3045 005c 13       		.uleb128 0x13
 3046 005d 38       		.uleb128 0x38
 3047 005e 0B       		.uleb128 0xb
 3048 005f 00       		.byte	0
 3049 0060 00       		.byte	0
 3050 0061 08       		.uleb128 0x8
 3051 0062 0D       		.uleb128 0xd
 3052 0063 00       		.byte	0
 3053 0064 03       		.uleb128 0x3
 3054 0065 08       		.uleb128 0x8
 3055 0066 3A       		.uleb128 0x3a
 3056 0067 0B       		.uleb128 0xb
 3057 0068 3B       		.uleb128 0x3b
 3058 0069 0B       		.uleb128 0xb
 3059 006a 39       		.uleb128 0x39
 3060 006b 0B       		.uleb128 0xb
 3061 006c 49       		.uleb128 0x49
 3062 006d 13       		.uleb128 0x13
 3063 006e 38       		.uleb128 0x38
 3064 006f 0B       		.uleb128 0xb
 3065 0070 00       		.byte	0
 3066 0071 00       		.byte	0
 3067 0072 09       		.uleb128 0x9
 3068 0073 13       		.uleb128 0x13
 3069 0074 01       		.byte	0x1
 3070 0075 0B       		.uleb128 0xb
 3071 0076 0B       		.uleb128 0xb
 3072 0077 3A       		.uleb128 0x3a
 3073 0078 0B       		.uleb128 0xb
 3074 0079 3B       		.uleb128 0x3b
 3075 007a 0B       		.uleb128 0xb
 3076 007b 39       		.uleb128 0x39
 3077 007c 0B       		.uleb128 0xb
 3078 007d 01       		.uleb128 0x1
ARM GAS  /tmp/ccHILlsE.s 			page 55


 3079 007e 13       		.uleb128 0x13
 3080 007f 00       		.byte	0
 3081 0080 00       		.byte	0
 3082 0081 0A       		.uleb128 0xa
 3083 0082 0F       		.uleb128 0xf
 3084 0083 00       		.byte	0
 3085 0084 0B       		.uleb128 0xb
 3086 0085 0B       		.uleb128 0xb
 3087 0086 49       		.uleb128 0x49
 3088 0087 13       		.uleb128 0x13
 3089 0088 00       		.byte	0
 3090 0089 00       		.byte	0
 3091 008a 0B       		.uleb128 0xb
 3092 008b 0F       		.uleb128 0xf
 3093 008c 00       		.byte	0
 3094 008d 0B       		.uleb128 0xb
 3095 008e 0B       		.uleb128 0xb
 3096 008f 00       		.byte	0
 3097 0090 00       		.byte	0
 3098 0091 0C       		.uleb128 0xc
 3099 0092 15       		.uleb128 0x15
 3100 0093 01       		.byte	0x1
 3101 0094 27       		.uleb128 0x27
 3102 0095 19       		.uleb128 0x19
 3103 0096 01       		.uleb128 0x1
 3104 0097 13       		.uleb128 0x13
 3105 0098 00       		.byte	0
 3106 0099 00       		.byte	0
 3107 009a 0D       		.uleb128 0xd
 3108 009b 05       		.uleb128 0x5
 3109 009c 00       		.byte	0
 3110 009d 49       		.uleb128 0x49
 3111 009e 13       		.uleb128 0x13
 3112 009f 00       		.byte	0
 3113 00a0 00       		.byte	0
 3114 00a1 0E       		.uleb128 0xe
 3115 00a2 34       		.uleb128 0x34
 3116 00a3 00       		.byte	0
 3117 00a4 03       		.uleb128 0x3
 3118 00a5 0E       		.uleb128 0xe
 3119 00a6 3A       		.uleb128 0x3a
 3120 00a7 0B       		.uleb128 0xb
 3121 00a8 3B       		.uleb128 0x3b
 3122 00a9 0B       		.uleb128 0xb
 3123 00aa 39       		.uleb128 0x39
 3124 00ab 0B       		.uleb128 0xb
 3125 00ac 49       		.uleb128 0x49
 3126 00ad 13       		.uleb128 0x13
 3127 00ae 3F       		.uleb128 0x3f
 3128 00af 19       		.uleb128 0x19
 3129 00b0 3C       		.uleb128 0x3c
 3130 00b1 19       		.uleb128 0x19
 3131 00b2 00       		.byte	0
 3132 00b3 00       		.byte	0
 3133 00b4 0F       		.uleb128 0xf
 3134 00b5 17       		.uleb128 0x17
 3135 00b6 01       		.byte	0x1
ARM GAS  /tmp/ccHILlsE.s 			page 56


 3136 00b7 0B       		.uleb128 0xb
 3137 00b8 0B       		.uleb128 0xb
 3138 00b9 3A       		.uleb128 0x3a
 3139 00ba 0B       		.uleb128 0xb
 3140 00bb 3B       		.uleb128 0x3b
 3141 00bc 0B       		.uleb128 0xb
 3142 00bd 39       		.uleb128 0x39
 3143 00be 0B       		.uleb128 0xb
 3144 00bf 01       		.uleb128 0x1
 3145 00c0 13       		.uleb128 0x13
 3146 00c1 00       		.byte	0
 3147 00c2 00       		.byte	0
 3148 00c3 10       		.uleb128 0x10
 3149 00c4 0D       		.uleb128 0xd
 3150 00c5 00       		.byte	0
 3151 00c6 03       		.uleb128 0x3
 3152 00c7 0E       		.uleb128 0xe
 3153 00c8 3A       		.uleb128 0x3a
 3154 00c9 0B       		.uleb128 0xb
 3155 00ca 3B       		.uleb128 0x3b
 3156 00cb 0B       		.uleb128 0xb
 3157 00cc 39       		.uleb128 0x39
 3158 00cd 0B       		.uleb128 0xb
 3159 00ce 49       		.uleb128 0x49
 3160 00cf 13       		.uleb128 0x13
 3161 00d0 00       		.byte	0
 3162 00d1 00       		.byte	0
 3163 00d2 11       		.uleb128 0x11
 3164 00d3 26       		.uleb128 0x26
 3165 00d4 00       		.byte	0
 3166 00d5 49       		.uleb128 0x49
 3167 00d6 13       		.uleb128 0x13
 3168 00d7 00       		.byte	0
 3169 00d8 00       		.byte	0
 3170 00d9 12       		.uleb128 0x12
 3171 00da 01       		.uleb128 0x1
 3172 00db 01       		.byte	0x1
 3173 00dc 49       		.uleb128 0x49
 3174 00dd 13       		.uleb128 0x13
 3175 00de 01       		.uleb128 0x1
 3176 00df 13       		.uleb128 0x13
 3177 00e0 00       		.byte	0
 3178 00e1 00       		.byte	0
 3179 00e2 13       		.uleb128 0x13
 3180 00e3 21       		.uleb128 0x21
 3181 00e4 00       		.byte	0
 3182 00e5 49       		.uleb128 0x49
 3183 00e6 13       		.uleb128 0x13
 3184 00e7 2F       		.uleb128 0x2f
 3185 00e8 0B       		.uleb128 0xb
 3186 00e9 00       		.byte	0
 3187 00ea 00       		.byte	0
 3188 00eb 14       		.uleb128 0x14
 3189 00ec 2E       		.uleb128 0x2e
 3190 00ed 01       		.byte	0x1
 3191 00ee 3F       		.uleb128 0x3f
 3192 00ef 19       		.uleb128 0x19
ARM GAS  /tmp/ccHILlsE.s 			page 57


 3193 00f0 03       		.uleb128 0x3
 3194 00f1 0E       		.uleb128 0xe
 3195 00f2 3A       		.uleb128 0x3a
 3196 00f3 0B       		.uleb128 0xb
 3197 00f4 3B       		.uleb128 0x3b
 3198 00f5 05       		.uleb128 0x5
 3199 00f6 39       		.uleb128 0x39
 3200 00f7 0B       		.uleb128 0xb
 3201 00f8 27       		.uleb128 0x27
 3202 00f9 19       		.uleb128 0x19
 3203 00fa 49       		.uleb128 0x49
 3204 00fb 13       		.uleb128 0x13
 3205 00fc 11       		.uleb128 0x11
 3206 00fd 01       		.uleb128 0x1
 3207 00fe 12       		.uleb128 0x12
 3208 00ff 06       		.uleb128 0x6
 3209 0100 40       		.uleb128 0x40
 3210 0101 18       		.uleb128 0x18
 3211 0102 9742     		.uleb128 0x2117
 3212 0104 19       		.uleb128 0x19
 3213 0105 01       		.uleb128 0x1
 3214 0106 13       		.uleb128 0x13
 3215 0107 00       		.byte	0
 3216 0108 00       		.byte	0
 3217 0109 15       		.uleb128 0x15
 3218 010a 05       		.uleb128 0x5
 3219 010b 00       		.byte	0
 3220 010c 03       		.uleb128 0x3
 3221 010d 08       		.uleb128 0x8
 3222 010e 3A       		.uleb128 0x3a
 3223 010f 0B       		.uleb128 0xb
 3224 0110 3B       		.uleb128 0x3b
 3225 0111 05       		.uleb128 0x5
 3226 0112 39       		.uleb128 0x39
 3227 0113 0B       		.uleb128 0xb
 3228 0114 49       		.uleb128 0x49
 3229 0115 13       		.uleb128 0x13
 3230 0116 02       		.uleb128 0x2
 3231 0117 17       		.uleb128 0x17
 3232 0118 B742     		.uleb128 0x2137
 3233 011a 17       		.uleb128 0x17
 3234 011b 00       		.byte	0
 3235 011c 00       		.byte	0
 3236 011d 16       		.uleb128 0x16
 3237 011e 05       		.uleb128 0x5
 3238 011f 00       		.byte	0
 3239 0120 03       		.uleb128 0x3
 3240 0121 0E       		.uleb128 0xe
 3241 0122 3A       		.uleb128 0x3a
 3242 0123 0B       		.uleb128 0xb
 3243 0124 3B       		.uleb128 0x3b
 3244 0125 05       		.uleb128 0x5
 3245 0126 39       		.uleb128 0x39
 3246 0127 0B       		.uleb128 0xb
 3247 0128 49       		.uleb128 0x49
 3248 0129 13       		.uleb128 0x13
 3249 012a 02       		.uleb128 0x2
ARM GAS  /tmp/ccHILlsE.s 			page 58


 3250 012b 17       		.uleb128 0x17
 3251 012c B742     		.uleb128 0x2137
 3252 012e 17       		.uleb128 0x17
 3253 012f 00       		.byte	0
 3254 0130 00       		.byte	0
 3255 0131 17       		.uleb128 0x17
 3256 0132 898201   		.uleb128 0x4109
 3257 0135 01       		.byte	0x1
 3258 0136 11       		.uleb128 0x11
 3259 0137 01       		.uleb128 0x1
 3260 0138 31       		.uleb128 0x31
 3261 0139 13       		.uleb128 0x13
 3262 013a 00       		.byte	0
 3263 013b 00       		.byte	0
 3264 013c 18       		.uleb128 0x18
 3265 013d 8A8201   		.uleb128 0x410a
 3266 0140 00       		.byte	0
 3267 0141 02       		.uleb128 0x2
 3268 0142 18       		.uleb128 0x18
 3269 0143 9142     		.uleb128 0x2111
 3270 0145 18       		.uleb128 0x18
 3271 0146 00       		.byte	0
 3272 0147 00       		.byte	0
 3273 0148 19       		.uleb128 0x19
 3274 0149 2E       		.uleb128 0x2e
 3275 014a 01       		.byte	0x1
 3276 014b 3F       		.uleb128 0x3f
 3277 014c 19       		.uleb128 0x19
 3278 014d 03       		.uleb128 0x3
 3279 014e 0E       		.uleb128 0xe
 3280 014f 3A       		.uleb128 0x3a
 3281 0150 0B       		.uleb128 0xb
 3282 0151 3B       		.uleb128 0x3b
 3283 0152 05       		.uleb128 0x5
 3284 0153 39       		.uleb128 0x39
 3285 0154 0B       		.uleb128 0xb
 3286 0155 27       		.uleb128 0x27
 3287 0156 19       		.uleb128 0x19
 3288 0157 49       		.uleb128 0x49
 3289 0158 13       		.uleb128 0x13
 3290 0159 20       		.uleb128 0x20
 3291 015a 0B       		.uleb128 0xb
 3292 015b 01       		.uleb128 0x1
 3293 015c 13       		.uleb128 0x13
 3294 015d 00       		.byte	0
 3295 015e 00       		.byte	0
 3296 015f 1A       		.uleb128 0x1a
 3297 0160 05       		.uleb128 0x5
 3298 0161 00       		.byte	0
 3299 0162 03       		.uleb128 0x3
 3300 0163 08       		.uleb128 0x8
 3301 0164 3A       		.uleb128 0x3a
 3302 0165 0B       		.uleb128 0xb
 3303 0166 3B       		.uleb128 0x3b
 3304 0167 05       		.uleb128 0x5
 3305 0168 39       		.uleb128 0x39
 3306 0169 0B       		.uleb128 0xb
ARM GAS  /tmp/ccHILlsE.s 			page 59


 3307 016a 49       		.uleb128 0x49
 3308 016b 13       		.uleb128 0x13
 3309 016c 00       		.byte	0
 3310 016d 00       		.byte	0
 3311 016e 1B       		.uleb128 0x1b
 3312 016f 05       		.uleb128 0x5
 3313 0170 00       		.byte	0
 3314 0171 03       		.uleb128 0x3
 3315 0172 0E       		.uleb128 0xe
 3316 0173 3A       		.uleb128 0x3a
 3317 0174 0B       		.uleb128 0xb
 3318 0175 3B       		.uleb128 0x3b
 3319 0176 05       		.uleb128 0x5
 3320 0177 39       		.uleb128 0x39
 3321 0178 0B       		.uleb128 0xb
 3322 0179 49       		.uleb128 0x49
 3323 017a 13       		.uleb128 0x13
 3324 017b 00       		.byte	0
 3325 017c 00       		.byte	0
 3326 017d 1C       		.uleb128 0x1c
 3327 017e 34       		.uleb128 0x34
 3328 017f 00       		.byte	0
 3329 0180 03       		.uleb128 0x3
 3330 0181 0E       		.uleb128 0xe
 3331 0182 3A       		.uleb128 0x3a
 3332 0183 0B       		.uleb128 0xb
 3333 0184 3B       		.uleb128 0x3b
 3334 0185 05       		.uleb128 0x5
 3335 0186 39       		.uleb128 0x39
 3336 0187 0B       		.uleb128 0xb
 3337 0188 49       		.uleb128 0x49
 3338 0189 13       		.uleb128 0x13
 3339 018a 00       		.byte	0
 3340 018b 00       		.byte	0
 3341 018c 1D       		.uleb128 0x1d
 3342 018d 34       		.uleb128 0x34
 3343 018e 00       		.byte	0
 3344 018f 03       		.uleb128 0x3
 3345 0190 0E       		.uleb128 0xe
 3346 0191 3A       		.uleb128 0x3a
 3347 0192 0B       		.uleb128 0xb
 3348 0193 3B       		.uleb128 0x3b
 3349 0194 05       		.uleb128 0x5
 3350 0195 39       		.uleb128 0x39
 3351 0196 0B       		.uleb128 0xb
 3352 0197 49       		.uleb128 0x49
 3353 0198 13       		.uleb128 0x13
 3354 0199 02       		.uleb128 0x2
 3355 019a 17       		.uleb128 0x17
 3356 019b B742     		.uleb128 0x2137
 3357 019d 17       		.uleb128 0x17
 3358 019e 00       		.byte	0
 3359 019f 00       		.byte	0
 3360 01a0 1E       		.uleb128 0x1e
 3361 01a1 1D       		.uleb128 0x1d
 3362 01a2 01       		.byte	0x1
 3363 01a3 31       		.uleb128 0x31
ARM GAS  /tmp/ccHILlsE.s 			page 60


 3364 01a4 13       		.uleb128 0x13
 3365 01a5 52       		.uleb128 0x52
 3366 01a6 01       		.uleb128 0x1
 3367 01a7 B842     		.uleb128 0x2138
 3368 01a9 0B       		.uleb128 0xb
 3369 01aa 11       		.uleb128 0x11
 3370 01ab 01       		.uleb128 0x1
 3371 01ac 12       		.uleb128 0x12
 3372 01ad 06       		.uleb128 0x6
 3373 01ae 58       		.uleb128 0x58
 3374 01af 0B       		.uleb128 0xb
 3375 01b0 59       		.uleb128 0x59
 3376 01b1 05       		.uleb128 0x5
 3377 01b2 57       		.uleb128 0x57
 3378 01b3 0B       		.uleb128 0xb
 3379 01b4 00       		.byte	0
 3380 01b5 00       		.byte	0
 3381 01b6 1F       		.uleb128 0x1f
 3382 01b7 05       		.uleb128 0x5
 3383 01b8 00       		.byte	0
 3384 01b9 31       		.uleb128 0x31
 3385 01ba 13       		.uleb128 0x13
 3386 01bb 02       		.uleb128 0x2
 3387 01bc 17       		.uleb128 0x17
 3388 01bd B742     		.uleb128 0x2137
 3389 01bf 17       		.uleb128 0x17
 3390 01c0 00       		.byte	0
 3391 01c1 00       		.byte	0
 3392 01c2 20       		.uleb128 0x20
 3393 01c3 34       		.uleb128 0x34
 3394 01c4 00       		.byte	0
 3395 01c5 31       		.uleb128 0x31
 3396 01c6 13       		.uleb128 0x13
 3397 01c7 02       		.uleb128 0x2
 3398 01c8 17       		.uleb128 0x17
 3399 01c9 B742     		.uleb128 0x2137
 3400 01cb 17       		.uleb128 0x17
 3401 01cc 00       		.byte	0
 3402 01cd 00       		.byte	0
 3403 01ce 21       		.uleb128 0x21
 3404 01cf 1D       		.uleb128 0x1d
 3405 01d0 01       		.byte	0x1
 3406 01d1 31       		.uleb128 0x31
 3407 01d2 13       		.uleb128 0x13
 3408 01d3 52       		.uleb128 0x52
 3409 01d4 01       		.uleb128 0x1
 3410 01d5 B842     		.uleb128 0x2138
 3411 01d7 0B       		.uleb128 0xb
 3412 01d8 11       		.uleb128 0x11
 3413 01d9 01       		.uleb128 0x1
 3414 01da 12       		.uleb128 0x12
 3415 01db 06       		.uleb128 0x6
 3416 01dc 58       		.uleb128 0x58
 3417 01dd 0B       		.uleb128 0xb
 3418 01de 59       		.uleb128 0x59
 3419 01df 05       		.uleb128 0x5
 3420 01e0 57       		.uleb128 0x57
ARM GAS  /tmp/ccHILlsE.s 			page 61


 3421 01e1 0B       		.uleb128 0xb
 3422 01e2 01       		.uleb128 0x1
 3423 01e3 13       		.uleb128 0x13
 3424 01e4 00       		.byte	0
 3425 01e5 00       		.byte	0
 3426 01e6 22       		.uleb128 0x22
 3427 01e7 34       		.uleb128 0x34
 3428 01e8 00       		.byte	0
 3429 01e9 31       		.uleb128 0x31
 3430 01ea 13       		.uleb128 0x13
 3431 01eb 00       		.byte	0
 3432 01ec 00       		.byte	0
 3433 01ed 23       		.uleb128 0x23
 3434 01ee 898201   		.uleb128 0x4109
 3435 01f1 01       		.byte	0x1
 3436 01f2 11       		.uleb128 0x11
 3437 01f3 01       		.uleb128 0x1
 3438 01f4 31       		.uleb128 0x31
 3439 01f5 13       		.uleb128 0x13
 3440 01f6 01       		.uleb128 0x1
 3441 01f7 13       		.uleb128 0x13
 3442 01f8 00       		.byte	0
 3443 01f9 00       		.byte	0
 3444 01fa 24       		.uleb128 0x24
 3445 01fb 898201   		.uleb128 0x4109
 3446 01fe 00       		.byte	0
 3447 01ff 11       		.uleb128 0x11
 3448 0200 01       		.uleb128 0x1
 3449 0201 31       		.uleb128 0x31
 3450 0202 13       		.uleb128 0x13
 3451 0203 00       		.byte	0
 3452 0204 00       		.byte	0
 3453 0205 25       		.uleb128 0x25
 3454 0206 2E       		.uleb128 0x2e
 3455 0207 01       		.byte	0x1
 3456 0208 3F       		.uleb128 0x3f
 3457 0209 19       		.uleb128 0x19
 3458 020a 03       		.uleb128 0x3
 3459 020b 0E       		.uleb128 0xe
 3460 020c 3A       		.uleb128 0x3a
 3461 020d 0B       		.uleb128 0xb
 3462 020e 3B       		.uleb128 0x3b
 3463 020f 0B       		.uleb128 0xb
 3464 0210 39       		.uleb128 0x39
 3465 0211 0B       		.uleb128 0xb
 3466 0212 27       		.uleb128 0x27
 3467 0213 19       		.uleb128 0x19
 3468 0214 49       		.uleb128 0x49
 3469 0215 13       		.uleb128 0x13
 3470 0216 20       		.uleb128 0x20
 3471 0217 0B       		.uleb128 0xb
 3472 0218 01       		.uleb128 0x1
 3473 0219 13       		.uleb128 0x13
 3474 021a 00       		.byte	0
 3475 021b 00       		.byte	0
 3476 021c 26       		.uleb128 0x26
 3477 021d 05       		.uleb128 0x5
ARM GAS  /tmp/ccHILlsE.s 			page 62


 3478 021e 00       		.byte	0
 3479 021f 03       		.uleb128 0x3
 3480 0220 08       		.uleb128 0x8
 3481 0221 3A       		.uleb128 0x3a
 3482 0222 0B       		.uleb128 0xb
 3483 0223 3B       		.uleb128 0x3b
 3484 0224 0B       		.uleb128 0xb
 3485 0225 39       		.uleb128 0x39
 3486 0226 0B       		.uleb128 0xb
 3487 0227 49       		.uleb128 0x49
 3488 0228 13       		.uleb128 0x13
 3489 0229 00       		.byte	0
 3490 022a 00       		.byte	0
 3491 022b 27       		.uleb128 0x27
 3492 022c 05       		.uleb128 0x5
 3493 022d 00       		.byte	0
 3494 022e 03       		.uleb128 0x3
 3495 022f 0E       		.uleb128 0xe
 3496 0230 3A       		.uleb128 0x3a
 3497 0231 0B       		.uleb128 0xb
 3498 0232 3B       		.uleb128 0x3b
 3499 0233 0B       		.uleb128 0xb
 3500 0234 39       		.uleb128 0x39
 3501 0235 0B       		.uleb128 0xb
 3502 0236 49       		.uleb128 0x49
 3503 0237 13       		.uleb128 0x13
 3504 0238 00       		.byte	0
 3505 0239 00       		.byte	0
 3506 023a 28       		.uleb128 0x28
 3507 023b 34       		.uleb128 0x34
 3508 023c 00       		.byte	0
 3509 023d 03       		.uleb128 0x3
 3510 023e 0E       		.uleb128 0xe
 3511 023f 3A       		.uleb128 0x3a
 3512 0240 0B       		.uleb128 0xb
 3513 0241 3B       		.uleb128 0x3b
 3514 0242 0B       		.uleb128 0xb
 3515 0243 39       		.uleb128 0x39
 3516 0244 0B       		.uleb128 0xb
 3517 0245 49       		.uleb128 0x49
 3518 0246 13       		.uleb128 0x13
 3519 0247 00       		.byte	0
 3520 0248 00       		.byte	0
 3521 0249 29       		.uleb128 0x29
 3522 024a 2E       		.uleb128 0x2e
 3523 024b 01       		.byte	0x1
 3524 024c 3F       		.uleb128 0x3f
 3525 024d 19       		.uleb128 0x19
 3526 024e 03       		.uleb128 0x3
 3527 024f 0E       		.uleb128 0xe
 3528 0250 3A       		.uleb128 0x3a
 3529 0251 0B       		.uleb128 0xb
 3530 0252 3B       		.uleb128 0x3b
 3531 0253 0B       		.uleb128 0xb
 3532 0254 39       		.uleb128 0x39
 3533 0255 0B       		.uleb128 0xb
 3534 0256 27       		.uleb128 0x27
ARM GAS  /tmp/ccHILlsE.s 			page 63


 3535 0257 19       		.uleb128 0x19
 3536 0258 49       		.uleb128 0x49
 3537 0259 13       		.uleb128 0x13
 3538 025a 11       		.uleb128 0x11
 3539 025b 01       		.uleb128 0x1
 3540 025c 12       		.uleb128 0x12
 3541 025d 06       		.uleb128 0x6
 3542 025e 40       		.uleb128 0x40
 3543 025f 18       		.uleb128 0x18
 3544 0260 9742     		.uleb128 0x2117
 3545 0262 19       		.uleb128 0x19
 3546 0263 01       		.uleb128 0x1
 3547 0264 13       		.uleb128 0x13
 3548 0265 00       		.byte	0
 3549 0266 00       		.byte	0
 3550 0267 2A       		.uleb128 0x2a
 3551 0268 05       		.uleb128 0x5
 3552 0269 00       		.byte	0
 3553 026a 03       		.uleb128 0x3
 3554 026b 08       		.uleb128 0x8
 3555 026c 3A       		.uleb128 0x3a
 3556 026d 0B       		.uleb128 0xb
 3557 026e 3B       		.uleb128 0x3b
 3558 026f 0B       		.uleb128 0xb
 3559 0270 39       		.uleb128 0x39
 3560 0271 0B       		.uleb128 0xb
 3561 0272 49       		.uleb128 0x49
 3562 0273 13       		.uleb128 0x13
 3563 0274 02       		.uleb128 0x2
 3564 0275 17       		.uleb128 0x17
 3565 0276 B742     		.uleb128 0x2137
 3566 0278 17       		.uleb128 0x17
 3567 0279 00       		.byte	0
 3568 027a 00       		.byte	0
 3569 027b 2B       		.uleb128 0x2b
 3570 027c 05       		.uleb128 0x5
 3571 027d 00       		.byte	0
 3572 027e 03       		.uleb128 0x3
 3573 027f 0E       		.uleb128 0xe
 3574 0280 3A       		.uleb128 0x3a
 3575 0281 0B       		.uleb128 0xb
 3576 0282 3B       		.uleb128 0x3b
 3577 0283 0B       		.uleb128 0xb
 3578 0284 39       		.uleb128 0x39
 3579 0285 0B       		.uleb128 0xb
 3580 0286 49       		.uleb128 0x49
 3581 0287 13       		.uleb128 0x13
 3582 0288 02       		.uleb128 0x2
 3583 0289 17       		.uleb128 0x17
 3584 028a B742     		.uleb128 0x2137
 3585 028c 17       		.uleb128 0x17
 3586 028d 00       		.byte	0
 3587 028e 00       		.byte	0
 3588 028f 2C       		.uleb128 0x2c
 3589 0290 34       		.uleb128 0x34
 3590 0291 00       		.byte	0
 3591 0292 03       		.uleb128 0x3
ARM GAS  /tmp/ccHILlsE.s 			page 64


 3592 0293 0E       		.uleb128 0xe
 3593 0294 3A       		.uleb128 0x3a
 3594 0295 0B       		.uleb128 0xb
 3595 0296 3B       		.uleb128 0x3b
 3596 0297 0B       		.uleb128 0xb
 3597 0298 39       		.uleb128 0x39
 3598 0299 0B       		.uleb128 0xb
 3599 029a 49       		.uleb128 0x49
 3600 029b 13       		.uleb128 0x13
 3601 029c 02       		.uleb128 0x2
 3602 029d 17       		.uleb128 0x17
 3603 029e B742     		.uleb128 0x2137
 3604 02a0 17       		.uleb128 0x17
 3605 02a1 00       		.byte	0
 3606 02a2 00       		.byte	0
 3607 02a3 2D       		.uleb128 0x2d
 3608 02a4 1D       		.uleb128 0x1d
 3609 02a5 01       		.byte	0x1
 3610 02a6 31       		.uleb128 0x31
 3611 02a7 13       		.uleb128 0x13
 3612 02a8 52       		.uleb128 0x52
 3613 02a9 01       		.uleb128 0x1
 3614 02aa B842     		.uleb128 0x2138
 3615 02ac 0B       		.uleb128 0xb
 3616 02ad 11       		.uleb128 0x11
 3617 02ae 01       		.uleb128 0x1
 3618 02af 12       		.uleb128 0x12
 3619 02b0 06       		.uleb128 0x6
 3620 02b1 58       		.uleb128 0x58
 3621 02b2 0B       		.uleb128 0xb
 3622 02b3 59       		.uleb128 0x59
 3623 02b4 0B       		.uleb128 0xb
 3624 02b5 57       		.uleb128 0x57
 3625 02b6 0B       		.uleb128 0xb
 3626 02b7 00       		.byte	0
 3627 02b8 00       		.byte	0
 3628 02b9 2E       		.uleb128 0x2e
 3629 02ba 1D       		.uleb128 0x1d
 3630 02bb 01       		.byte	0x1
 3631 02bc 31       		.uleb128 0x31
 3632 02bd 13       		.uleb128 0x13
 3633 02be 52       		.uleb128 0x52
 3634 02bf 01       		.uleb128 0x1
 3635 02c0 B842     		.uleb128 0x2138
 3636 02c2 0B       		.uleb128 0xb
 3637 02c3 11       		.uleb128 0x11
 3638 02c4 01       		.uleb128 0x1
 3639 02c5 12       		.uleb128 0x12
 3640 02c6 06       		.uleb128 0x6
 3641 02c7 58       		.uleb128 0x58
 3642 02c8 0B       		.uleb128 0xb
 3643 02c9 59       		.uleb128 0x59
 3644 02ca 0B       		.uleb128 0xb
 3645 02cb 57       		.uleb128 0x57
 3646 02cc 0B       		.uleb128 0xb
 3647 02cd 01       		.uleb128 0x1
 3648 02ce 13       		.uleb128 0x13
ARM GAS  /tmp/ccHILlsE.s 			page 65


 3649 02cf 00       		.byte	0
 3650 02d0 00       		.byte	0
 3651 02d1 2F       		.uleb128 0x2f
 3652 02d2 2E       		.uleb128 0x2e
 3653 02d3 01       		.byte	0x1
 3654 02d4 3F       		.uleb128 0x3f
 3655 02d5 19       		.uleb128 0x19
 3656 02d6 03       		.uleb128 0x3
 3657 02d7 0E       		.uleb128 0xe
 3658 02d8 3A       		.uleb128 0x3a
 3659 02d9 0B       		.uleb128 0xb
 3660 02da 3B       		.uleb128 0x3b
 3661 02db 0B       		.uleb128 0xb
 3662 02dc 39       		.uleb128 0x39
 3663 02dd 0B       		.uleb128 0xb
 3664 02de 27       		.uleb128 0x27
 3665 02df 19       		.uleb128 0x19
 3666 02e0 11       		.uleb128 0x11
 3667 02e1 01       		.uleb128 0x1
 3668 02e2 12       		.uleb128 0x12
 3669 02e3 06       		.uleb128 0x6
 3670 02e4 40       		.uleb128 0x40
 3671 02e5 18       		.uleb128 0x18
 3672 02e6 9742     		.uleb128 0x2117
 3673 02e8 19       		.uleb128 0x19
 3674 02e9 01       		.uleb128 0x1
 3675 02ea 13       		.uleb128 0x13
 3676 02eb 00       		.byte	0
 3677 02ec 00       		.byte	0
 3678 02ed 30       		.uleb128 0x30
 3679 02ee 898201   		.uleb128 0x4109
 3680 02f1 01       		.byte	0x1
 3681 02f2 11       		.uleb128 0x11
 3682 02f3 01       		.uleb128 0x1
 3683 02f4 9542     		.uleb128 0x2115
 3684 02f6 19       		.uleb128 0x19
 3685 02f7 31       		.uleb128 0x31
 3686 02f8 13       		.uleb128 0x13
 3687 02f9 00       		.byte	0
 3688 02fa 00       		.byte	0
 3689 02fb 31       		.uleb128 0x31
 3690 02fc 2E       		.uleb128 0x2e
 3691 02fd 01       		.byte	0x1
 3692 02fe 31       		.uleb128 0x31
 3693 02ff 13       		.uleb128 0x13
 3694 0300 11       		.uleb128 0x11
 3695 0301 01       		.uleb128 0x1
 3696 0302 12       		.uleb128 0x12
 3697 0303 06       		.uleb128 0x6
 3698 0304 40       		.uleb128 0x40
 3699 0305 18       		.uleb128 0x18
 3700 0306 9742     		.uleb128 0x2117
 3701 0308 19       		.uleb128 0x19
 3702 0309 01       		.uleb128 0x1
 3703 030a 13       		.uleb128 0x13
 3704 030b 00       		.byte	0
 3705 030c 00       		.byte	0
ARM GAS  /tmp/ccHILlsE.s 			page 66


 3706 030d 32       		.uleb128 0x32
 3707 030e 2E       		.uleb128 0x2e
 3708 030f 00       		.byte	0
 3709 0310 3F       		.uleb128 0x3f
 3710 0311 19       		.uleb128 0x19
 3711 0312 3C       		.uleb128 0x3c
 3712 0313 19       		.uleb128 0x19
 3713 0314 6E       		.uleb128 0x6e
 3714 0315 0E       		.uleb128 0xe
 3715 0316 03       		.uleb128 0x3
 3716 0317 0E       		.uleb128 0xe
 3717 0318 3A       		.uleb128 0x3a
 3718 0319 0B       		.uleb128 0xb
 3719 031a 3B       		.uleb128 0x3b
 3720 031b 0B       		.uleb128 0xb
 3721 031c 39       		.uleb128 0x39
 3722 031d 0B       		.uleb128 0xb
 3723 031e 00       		.byte	0
 3724 031f 00       		.byte	0
 3725 0320 00       		.byte	0
 3726              		.section	.debug_loc,"",%progbits
 3727              	.Ldebug_loc0:
 3728              	.LVUS62:
 3729 0000 00       		.uleb128 0
 3730 0001 00       		.uleb128 .LVU355
 3731 0002 00       		.uleb128 .LVU355
 3732 0003 00       		.uleb128 .LVU357
 3733 0004 00       		.uleb128 .LVU357
 3734 0005 00       		.uleb128 .LVU360
 3735 0006 00       		.uleb128 .LVU360
 3736 0007 00       		.uleb128 .LVU361
 3737 0008 00       		.uleb128 .LVU361
 3738 0009 00       		.uleb128 0
 3739              	.LLST62:
 3740 000a 00000000 		.4byte	.LVL73
 3741 000e 3C000000 		.4byte	.LVL74
 3742 0012 0100     		.2byte	0x1
 3743 0014 50       		.byte	0x50
 3744 0015 3C000000 		.4byte	.LVL74
 3745 0019 43000000 		.4byte	.LVL75-1
 3746 001d 0300     		.2byte	0x3
 3747 001f 70       		.byte	0x70
 3748 0020 64       		.sleb128 -28
 3749 0021 9F       		.byte	0x9f
 3750 0022 43000000 		.4byte	.LVL75-1
 3751 0026 4C000000 		.4byte	.LVL76
 3752 002a 0400     		.2byte	0x4
 3753 002c F3       		.byte	0xf3
 3754 002d 01       		.uleb128 0x1
 3755 002e 50       		.byte	0x50
 3756 002f 9F       		.byte	0x9f
 3757 0030 4C000000 		.4byte	.LVL76
 3758 0034 50000000 		.4byte	.LVL77
 3759 0038 0100     		.2byte	0x1
 3760 003a 50       		.byte	0x50
 3761 003b 50000000 		.4byte	.LVL77
 3762 003f 54000000 		.4byte	.LFE17
ARM GAS  /tmp/ccHILlsE.s 			page 67


 3763 0043 0400     		.2byte	0x4
 3764 0045 F3       		.byte	0xf3
 3765 0046 01       		.uleb128 0x1
 3766 0047 50       		.byte	0x50
 3767 0048 9F       		.byte	0x9f
 3768 0049 00000000 		.4byte	0
 3769 004d 00000000 		.4byte	0
 3770              	.LVUS63:
 3771 0051 00       		.uleb128 0
 3772 0052 00       		.uleb128 .LVU357
 3773 0053 00       		.uleb128 .LVU357
 3774 0054 00       		.uleb128 .LVU360
 3775 0055 00       		.uleb128 .LVU360
 3776 0056 00       		.uleb128 0
 3777              	.LLST63:
 3778 0057 00000000 		.4byte	.LVL73
 3779 005b 43000000 		.4byte	.LVL75-1
 3780 005f 0100     		.2byte	0x1
 3781 0061 51       		.byte	0x51
 3782 0062 43000000 		.4byte	.LVL75-1
 3783 0066 4C000000 		.4byte	.LVL76
 3784 006a 0400     		.2byte	0x4
 3785 006c F3       		.byte	0xf3
 3786 006d 01       		.uleb128 0x1
 3787 006e 51       		.byte	0x51
 3788 006f 9F       		.byte	0x9f
 3789 0070 4C000000 		.4byte	.LVL76
 3790 0074 54000000 		.4byte	.LFE17
 3791 0078 0100     		.2byte	0x1
 3792 007a 51       		.byte	0x51
 3793 007b 00000000 		.4byte	0
 3794 007f 00000000 		.4byte	0
 3795              	.LVUS44:
 3796 0083 00       		.uleb128 0
 3797 0084 00       		.uleb128 .LVU272
 3798 0085 00       		.uleb128 .LVU272
 3799 0086 00       		.uleb128 0
 3800              	.LLST44:
 3801 0087 00000000 		.4byte	.LVL56
 3802 008b 18000000 		.4byte	.LVL59
 3803 008f 0100     		.2byte	0x1
 3804 0091 50       		.byte	0x50
 3805 0092 18000000 		.4byte	.LVL59
 3806 0096 60000000 		.4byte	.LFE15
 3807 009a 0100     		.2byte	0x1
 3808 009c 54       		.byte	0x54
 3809 009d 00000000 		.4byte	0
 3810 00a1 00000000 		.4byte	0
 3811              	.LVUS45:
 3812 00a5 00       		.uleb128 0
 3813 00a6 00       		.uleb128 .LVU260
 3814 00a7 00       		.uleb128 .LVU260
 3815 00a8 00       		.uleb128 0
 3816              	.LLST45:
 3817 00a9 00000000 		.4byte	.LVL56
 3818 00ad 10000000 		.4byte	.LVL57
 3819 00b1 0100     		.2byte	0x1
ARM GAS  /tmp/ccHILlsE.s 			page 68


 3820 00b3 51       		.byte	0x51
 3821 00b4 10000000 		.4byte	.LVL57
 3822 00b8 60000000 		.4byte	.LFE15
 3823 00bc 0100     		.2byte	0x1
 3824 00be 56       		.byte	0x56
 3825 00bf 00000000 		.4byte	0
 3826 00c3 00000000 		.4byte	0
 3827              	.LVUS46:
 3828 00c7 00       		.uleb128 0
 3829 00c8 00       		.uleb128 .LVU273
 3830 00c9 00       		.uleb128 .LVU273
 3831 00ca 00       		.uleb128 0
 3832              	.LLST46:
 3833 00cb 00000000 		.4byte	.LVL56
 3834 00cf 1B000000 		.4byte	.LVL60-1
 3835 00d3 0100     		.2byte	0x1
 3836 00d5 52       		.byte	0x52
 3837 00d6 1B000000 		.4byte	.LVL60-1
 3838 00da 60000000 		.4byte	.LFE15
 3839 00de 0400     		.2byte	0x4
 3840 00e0 F3       		.byte	0xf3
 3841 00e1 01       		.uleb128 0x1
 3842 00e2 52       		.byte	0x52
 3843 00e3 9F       		.byte	0x9f
 3844 00e4 00000000 		.4byte	0
 3845 00e8 00000000 		.4byte	0
 3846              	.LVUS47:
 3847 00ec 02       		.uleb128 .LVU293
 3848 00ed 00       		.uleb128 0
 3849              	.LLST47:
 3850 00ee 54000000 		.4byte	.LVL64
 3851 00f2 60000000 		.4byte	.LFE15
 3852 00f6 0100     		.2byte	0x1
 3853 00f8 55       		.byte	0x55
 3854 00f9 00000000 		.4byte	0
 3855 00fd 00000000 		.4byte	0
 3856              	.LVUS48:
 3857 0101 03       		.uleb128 .LVU264
 3858 0102 00       		.uleb128 .LVU273
 3859 0103 00       		.uleb128 .LVU273
 3860 0104 02       		.uleb128 .LVU293
 3861              	.LLST48:
 3862 0105 14000000 		.4byte	.LVL58
 3863 0109 1B000000 		.4byte	.LVL60-1
 3864 010d 0100     		.2byte	0x1
 3865 010f 52       		.byte	0x52
 3866 0110 1B000000 		.4byte	.LVL60-1
 3867 0114 54000000 		.4byte	.LVL64
 3868 0118 0400     		.2byte	0x4
 3869 011a F3       		.byte	0xf3
 3870 011b 01       		.uleb128 0x1
 3871 011c 52       		.byte	0x52
 3872 011d 9F       		.byte	0x9f
 3873 011e 00000000 		.4byte	0
 3874 0122 00000000 		.4byte	0
 3875              	.LVUS49:
 3876 0126 03       		.uleb128 .LVU264
ARM GAS  /tmp/ccHILlsE.s 			page 69


 3877 0127 02       		.uleb128 .LVU293
 3878              	.LLST49:
 3879 0128 14000000 		.4byte	.LVL58
 3880 012c 54000000 		.4byte	.LVL64
 3881 0130 0100     		.2byte	0x1
 3882 0132 56       		.byte	0x56
 3883 0133 00000000 		.4byte	0
 3884 0137 00000000 		.4byte	0
 3885              	.LVUS50:
 3886 013b 03       		.uleb128 .LVU264
 3887 013c 00       		.uleb128 .LVU272
 3888 013d 00       		.uleb128 .LVU272
 3889 013e 02       		.uleb128 .LVU293
 3890              	.LLST50:
 3891 013f 14000000 		.4byte	.LVL58
 3892 0143 18000000 		.4byte	.LVL59
 3893 0147 0100     		.2byte	0x1
 3894 0149 50       		.byte	0x50
 3895 014a 18000000 		.4byte	.LVL59
 3896 014e 54000000 		.4byte	.LVL64
 3897 0152 0100     		.2byte	0x1
 3898 0154 54       		.byte	0x54
 3899 0155 00000000 		.4byte	0
 3900 0159 00000000 		.4byte	0
 3901              	.LVUS51:
 3902 015d 00       		.uleb128 .LVU273
 3903 015e 00       		.uleb128 .LVU288
 3904 015f 00       		.uleb128 .LVU288
 3905 0160 02       		.uleb128 .LVU293
 3906              	.LLST51:
 3907 0161 1C000000 		.4byte	.LVL60
 3908 0165 48000000 		.4byte	.LVL62
 3909 0169 0100     		.2byte	0x1
 3910 016b 50       		.byte	0x50
 3911 016c 48000000 		.4byte	.LVL62
 3912 0170 54000000 		.4byte	.LVL64
 3913 0174 0100     		.2byte	0x1
 3914 0176 55       		.byte	0x55
 3915 0177 00000000 		.4byte	0
 3916 017b 00000000 		.4byte	0
 3917              	.LVUS52:
 3918 017f 01       		.uleb128 .LVU276
 3919 0180 00       		.uleb128 .LVU291
 3920              	.LLST52:
 3921 0181 24000000 		.4byte	.LVL61
 3922 0185 54000000 		.4byte	.LVL64
 3923 0189 0400     		.2byte	0x4
 3924 018b F3       		.byte	0xf3
 3925 018c 01       		.uleb128 0x1
 3926 018d 52       		.byte	0x52
 3927 018e 9F       		.byte	0x9f
 3928 018f 00000000 		.4byte	0
 3929 0193 00000000 		.4byte	0
 3930              	.LVUS53:
 3931 0197 00       		.uleb128 .LVU275
 3932 0198 00       		.uleb128 .LVU291
 3933              	.LLST53:
ARM GAS  /tmp/ccHILlsE.s 			page 70


 3934 0199 24000000 		.4byte	.LVL61
 3935 019d 54000000 		.4byte	.LVL64
 3936 01a1 0100     		.2byte	0x1
 3937 01a3 56       		.byte	0x56
 3938 01a4 00000000 		.4byte	0
 3939 01a8 00000000 		.4byte	0
 3940              	.LVUS54:
 3941 01ac 00       		.uleb128 .LVU275
 3942 01ad 00       		.uleb128 .LVU291
 3943              	.LLST54:
 3944 01ae 24000000 		.4byte	.LVL61
 3945 01b2 54000000 		.4byte	.LVL64
 3946 01b6 0100     		.2byte	0x1
 3947 01b8 54       		.byte	0x54
 3948 01b9 00000000 		.4byte	0
 3949 01bd 00000000 		.4byte	0
 3950              	.LVUS42:
 3951 01c1 00       		.uleb128 0
 3952 01c2 00       		.uleb128 .LVU248
 3953 01c3 00       		.uleb128 .LVU248
 3954 01c4 00       		.uleb128 .LVU249
 3955 01c5 00       		.uleb128 .LVU249
 3956 01c6 00       		.uleb128 .LVU252
 3957 01c7 00       		.uleb128 .LVU252
 3958 01c8 00       		.uleb128 .LVU253
 3959 01c9 00       		.uleb128 .LVU253
 3960 01ca 00       		.uleb128 0
 3961              	.LLST42:
 3962 01cb 00000000 		.4byte	.LVL51
 3963 01cf 40000000 		.4byte	.LVL52
 3964 01d3 0100     		.2byte	0x1
 3965 01d5 50       		.byte	0x50
 3966 01d6 40000000 		.4byte	.LVL52
 3967 01da 43000000 		.4byte	.LVL53-1
 3968 01de 0300     		.2byte	0x3
 3969 01e0 70       		.byte	0x70
 3970 01e1 70       		.sleb128 -16
 3971 01e2 9F       		.byte	0x9f
 3972 01e3 43000000 		.4byte	.LVL53-1
 3973 01e7 4C000000 		.4byte	.LVL54
 3974 01eb 0400     		.2byte	0x4
 3975 01ed F3       		.byte	0xf3
 3976 01ee 01       		.uleb128 0x1
 3977 01ef 50       		.byte	0x50
 3978 01f0 9F       		.byte	0x9f
 3979 01f1 4C000000 		.4byte	.LVL54
 3980 01f5 50000000 		.4byte	.LVL55
 3981 01f9 0100     		.2byte	0x1
 3982 01fb 50       		.byte	0x50
 3983 01fc 50000000 		.4byte	.LVL55
 3984 0200 54000000 		.4byte	.LFE14
 3985 0204 0400     		.2byte	0x4
 3986 0206 F3       		.byte	0xf3
 3987 0207 01       		.uleb128 0x1
 3988 0208 50       		.byte	0x50
 3989 0209 9F       		.byte	0x9f
 3990 020a 00000000 		.4byte	0
ARM GAS  /tmp/ccHILlsE.s 			page 71


 3991 020e 00000000 		.4byte	0
 3992              	.LVUS43:
 3993 0212 00       		.uleb128 0
 3994 0213 00       		.uleb128 .LVU249
 3995 0214 00       		.uleb128 .LVU249
 3996 0215 00       		.uleb128 .LVU252
 3997 0216 00       		.uleb128 .LVU252
 3998 0217 00       		.uleb128 0
 3999              	.LLST43:
 4000 0218 00000000 		.4byte	.LVL51
 4001 021c 43000000 		.4byte	.LVL53-1
 4002 0220 0100     		.2byte	0x1
 4003 0222 51       		.byte	0x51
 4004 0223 43000000 		.4byte	.LVL53-1
 4005 0227 4C000000 		.4byte	.LVL54
 4006 022b 0400     		.2byte	0x4
 4007 022d F3       		.byte	0xf3
 4008 022e 01       		.uleb128 0x1
 4009 022f 51       		.byte	0x51
 4010 0230 9F       		.byte	0x9f
 4011 0231 4C000000 		.4byte	.LVL54
 4012 0235 54000000 		.4byte	.LFE14
 4013 0239 0100     		.2byte	0x1
 4014 023b 51       		.byte	0x51
 4015 023c 00000000 		.4byte	0
 4016 0240 00000000 		.4byte	0
 4017              	.LVUS24:
 4018 0244 00       		.uleb128 0
 4019 0245 00       		.uleb128 .LVU165
 4020 0246 00       		.uleb128 .LVU165
 4021 0247 00       		.uleb128 0
 4022              	.LLST24:
 4023 0248 00000000 		.4byte	.LVL34
 4024 024c 18000000 		.4byte	.LVL37
 4025 0250 0100     		.2byte	0x1
 4026 0252 50       		.byte	0x50
 4027 0253 18000000 		.4byte	.LVL37
 4028 0257 60000000 		.4byte	.LFE12
 4029 025b 0100     		.2byte	0x1
 4030 025d 54       		.byte	0x54
 4031 025e 00000000 		.4byte	0
 4032 0262 00000000 		.4byte	0
 4033              	.LVUS25:
 4034 0266 00       		.uleb128 0
 4035 0267 00       		.uleb128 .LVU153
 4036 0268 00       		.uleb128 .LVU153
 4037 0269 00       		.uleb128 0
 4038              	.LLST25:
 4039 026a 00000000 		.4byte	.LVL34
 4040 026e 10000000 		.4byte	.LVL35
 4041 0272 0100     		.2byte	0x1
 4042 0274 51       		.byte	0x51
 4043 0275 10000000 		.4byte	.LVL35
 4044 0279 60000000 		.4byte	.LFE12
 4045 027d 0100     		.2byte	0x1
 4046 027f 56       		.byte	0x56
 4047 0280 00000000 		.4byte	0
ARM GAS  /tmp/ccHILlsE.s 			page 72


 4048 0284 00000000 		.4byte	0
 4049              	.LVUS26:
 4050 0288 00       		.uleb128 0
 4051 0289 00       		.uleb128 .LVU166
 4052 028a 00       		.uleb128 .LVU166
 4053 028b 00       		.uleb128 0
 4054              	.LLST26:
 4055 028c 00000000 		.4byte	.LVL34
 4056 0290 1B000000 		.4byte	.LVL38-1
 4057 0294 0100     		.2byte	0x1
 4058 0296 52       		.byte	0x52
 4059 0297 1B000000 		.4byte	.LVL38-1
 4060 029b 60000000 		.4byte	.LFE12
 4061 029f 0400     		.2byte	0x4
 4062 02a1 F3       		.byte	0xf3
 4063 02a2 01       		.uleb128 0x1
 4064 02a3 52       		.byte	0x52
 4065 02a4 9F       		.byte	0x9f
 4066 02a5 00000000 		.4byte	0
 4067 02a9 00000000 		.4byte	0
 4068              	.LVUS27:
 4069 02ad 02       		.uleb128 .LVU185
 4070 02ae 00       		.uleb128 0
 4071              	.LLST27:
 4072 02af 54000000 		.4byte	.LVL42
 4073 02b3 60000000 		.4byte	.LFE12
 4074 02b7 0100     		.2byte	0x1
 4075 02b9 55       		.byte	0x55
 4076 02ba 00000000 		.4byte	0
 4077 02be 00000000 		.4byte	0
 4078              	.LVUS28:
 4079 02c2 03       		.uleb128 .LVU157
 4080 02c3 00       		.uleb128 .LVU166
 4081 02c4 00       		.uleb128 .LVU166
 4082 02c5 02       		.uleb128 .LVU185
 4083              	.LLST28:
 4084 02c6 14000000 		.4byte	.LVL36
 4085 02ca 1B000000 		.4byte	.LVL38-1
 4086 02ce 0100     		.2byte	0x1
 4087 02d0 52       		.byte	0x52
 4088 02d1 1B000000 		.4byte	.LVL38-1
 4089 02d5 54000000 		.4byte	.LVL42
 4090 02d9 0400     		.2byte	0x4
 4091 02db F3       		.byte	0xf3
 4092 02dc 01       		.uleb128 0x1
 4093 02dd 52       		.byte	0x52
 4094 02de 9F       		.byte	0x9f
 4095 02df 00000000 		.4byte	0
 4096 02e3 00000000 		.4byte	0
 4097              	.LVUS29:
 4098 02e7 03       		.uleb128 .LVU157
 4099 02e8 02       		.uleb128 .LVU185
 4100              	.LLST29:
 4101 02e9 14000000 		.4byte	.LVL36
 4102 02ed 54000000 		.4byte	.LVL42
 4103 02f1 0100     		.2byte	0x1
 4104 02f3 56       		.byte	0x56
ARM GAS  /tmp/ccHILlsE.s 			page 73


 4105 02f4 00000000 		.4byte	0
 4106 02f8 00000000 		.4byte	0
 4107              	.LVUS30:
 4108 02fc 03       		.uleb128 .LVU157
 4109 02fd 00       		.uleb128 .LVU165
 4110 02fe 00       		.uleb128 .LVU165
 4111 02ff 02       		.uleb128 .LVU185
 4112              	.LLST30:
 4113 0300 14000000 		.4byte	.LVL36
 4114 0304 18000000 		.4byte	.LVL37
 4115 0308 0100     		.2byte	0x1
 4116 030a 50       		.byte	0x50
 4117 030b 18000000 		.4byte	.LVL37
 4118 030f 54000000 		.4byte	.LVL42
 4119 0313 0100     		.2byte	0x1
 4120 0315 54       		.byte	0x54
 4121 0316 00000000 		.4byte	0
 4122 031a 00000000 		.4byte	0
 4123              	.LVUS31:
 4124 031e 00       		.uleb128 .LVU166
 4125 031f 00       		.uleb128 .LVU178
 4126 0320 00       		.uleb128 .LVU178
 4127 0321 02       		.uleb128 .LVU185
 4128              	.LLST31:
 4129 0322 1C000000 		.4byte	.LVL38
 4130 0326 40000000 		.4byte	.LVL40
 4131 032a 0100     		.2byte	0x1
 4132 032c 50       		.byte	0x50
 4133 032d 40000000 		.4byte	.LVL40
 4134 0331 54000000 		.4byte	.LVL42
 4135 0335 0100     		.2byte	0x1
 4136 0337 55       		.byte	0x55
 4137 0338 00000000 		.4byte	0
 4138 033c 00000000 		.4byte	0
 4139              	.LVUS32:
 4140 0340 01       		.uleb128 .LVU169
 4141 0341 00       		.uleb128 .LVU183
 4142              	.LLST32:
 4143 0342 24000000 		.4byte	.LVL39
 4144 0346 54000000 		.4byte	.LVL42
 4145 034a 0400     		.2byte	0x4
 4146 034c F3       		.byte	0xf3
 4147 034d 01       		.uleb128 0x1
 4148 034e 52       		.byte	0x52
 4149 034f 9F       		.byte	0x9f
 4150 0350 00000000 		.4byte	0
 4151 0354 00000000 		.4byte	0
 4152              	.LVUS33:
 4153 0358 00       		.uleb128 .LVU168
 4154 0359 00       		.uleb128 .LVU183
 4155              	.LLST33:
 4156 035a 24000000 		.4byte	.LVL39
 4157 035e 54000000 		.4byte	.LVL42
 4158 0362 0100     		.2byte	0x1
 4159 0364 56       		.byte	0x56
 4160 0365 00000000 		.4byte	0
 4161 0369 00000000 		.4byte	0
ARM GAS  /tmp/ccHILlsE.s 			page 74


 4162              	.LVUS34:
 4163 036d 00       		.uleb128 .LVU168
 4164 036e 00       		.uleb128 .LVU183
 4165              	.LLST34:
 4166 036f 24000000 		.4byte	.LVL39
 4167 0373 54000000 		.4byte	.LVL42
 4168 0377 0100     		.2byte	0x1
 4169 0379 54       		.byte	0x54
 4170 037a 00000000 		.4byte	0
 4171 037e 00000000 		.4byte	0
 4172              	.LVUS22:
 4173 0382 00       		.uleb128 0
 4174 0383 00       		.uleb128 .LVU140
 4175 0384 00       		.uleb128 .LVU140
 4176 0385 00       		.uleb128 .LVU142
 4177 0386 00       		.uleb128 .LVU142
 4178 0387 00       		.uleb128 .LVU145
 4179 0388 00       		.uleb128 .LVU145
 4180 0389 00       		.uleb128 .LVU146
 4181 038a 00       		.uleb128 .LVU146
 4182 038b 00       		.uleb128 0
 4183              	.LLST22:
 4184 038c 00000000 		.4byte	.LVL29
 4185 0390 38000000 		.4byte	.LVL30
 4186 0394 0100     		.2byte	0x1
 4187 0396 50       		.byte	0x50
 4188 0397 38000000 		.4byte	.LVL30
 4189 039b 3F000000 		.4byte	.LVL31-1
 4190 039f 0300     		.2byte	0x3
 4191 03a1 70       		.byte	0x70
 4192 03a2 70       		.sleb128 -16
 4193 03a3 9F       		.byte	0x9f
 4194 03a4 3F000000 		.4byte	.LVL31-1
 4195 03a8 48000000 		.4byte	.LVL32
 4196 03ac 0400     		.2byte	0x4
 4197 03ae F3       		.byte	0xf3
 4198 03af 01       		.uleb128 0x1
 4199 03b0 50       		.byte	0x50
 4200 03b1 9F       		.byte	0x9f
 4201 03b2 48000000 		.4byte	.LVL32
 4202 03b6 4C000000 		.4byte	.LVL33
 4203 03ba 0100     		.2byte	0x1
 4204 03bc 50       		.byte	0x50
 4205 03bd 4C000000 		.4byte	.LVL33
 4206 03c1 50000000 		.4byte	.LFE11
 4207 03c5 0400     		.2byte	0x4
 4208 03c7 F3       		.byte	0xf3
 4209 03c8 01       		.uleb128 0x1
 4210 03c9 50       		.byte	0x50
 4211 03ca 9F       		.byte	0x9f
 4212 03cb 00000000 		.4byte	0
 4213 03cf 00000000 		.4byte	0
 4214              	.LVUS23:
 4215 03d3 00       		.uleb128 0
 4216 03d4 00       		.uleb128 .LVU142
 4217 03d5 00       		.uleb128 .LVU142
 4218 03d6 00       		.uleb128 .LVU145
ARM GAS  /tmp/ccHILlsE.s 			page 75


 4219 03d7 00       		.uleb128 .LVU145
 4220 03d8 00       		.uleb128 0
 4221              	.LLST23:
 4222 03d9 00000000 		.4byte	.LVL29
 4223 03dd 3F000000 		.4byte	.LVL31-1
 4224 03e1 0100     		.2byte	0x1
 4225 03e3 51       		.byte	0x51
 4226 03e4 3F000000 		.4byte	.LVL31-1
 4227 03e8 48000000 		.4byte	.LVL32
 4228 03ec 0400     		.2byte	0x4
 4229 03ee F3       		.byte	0xf3
 4230 03ef 01       		.uleb128 0x1
 4231 03f0 51       		.byte	0x51
 4232 03f1 9F       		.byte	0x9f
 4233 03f2 48000000 		.4byte	.LVL32
 4234 03f6 50000000 		.4byte	.LFE11
 4235 03fa 0100     		.2byte	0x1
 4236 03fc 51       		.byte	0x51
 4237 03fd 00000000 		.4byte	0
 4238 0401 00000000 		.4byte	0
 4239              	.LVUS4:
 4240 0405 00       		.uleb128 0
 4241 0406 00       		.uleb128 .LVU59
 4242 0407 00       		.uleb128 .LVU59
 4243 0408 00       		.uleb128 0
 4244              	.LLST4:
 4245 0409 00000000 		.4byte	.LVL12
 4246 040d 18000000 		.4byte	.LVL15
 4247 0411 0100     		.2byte	0x1
 4248 0413 50       		.byte	0x50
 4249 0414 18000000 		.4byte	.LVL15
 4250 0418 58000000 		.4byte	.LFE9
 4251 041c 0100     		.2byte	0x1
 4252 041e 54       		.byte	0x54
 4253 041f 00000000 		.4byte	0
 4254 0423 00000000 		.4byte	0
 4255              	.LVUS5:
 4256 0427 00       		.uleb128 0
 4257 0428 00       		.uleb128 .LVU47
 4258 0429 00       		.uleb128 .LVU47
 4259 042a 00       		.uleb128 0
 4260              	.LLST5:
 4261 042b 00000000 		.4byte	.LVL12
 4262 042f 10000000 		.4byte	.LVL13
 4263 0433 0100     		.2byte	0x1
 4264 0435 51       		.byte	0x51
 4265 0436 10000000 		.4byte	.LVL13
 4266 043a 58000000 		.4byte	.LFE9
 4267 043e 0100     		.2byte	0x1
 4268 0440 56       		.byte	0x56
 4269 0441 00000000 		.4byte	0
 4270 0445 00000000 		.4byte	0
 4271              	.LVUS6:
 4272 0449 00       		.uleb128 0
 4273 044a 00       		.uleb128 .LVU60
 4274 044b 00       		.uleb128 .LVU60
 4275 044c 00       		.uleb128 0
ARM GAS  /tmp/ccHILlsE.s 			page 76


 4276              	.LLST6:
 4277 044d 00000000 		.4byte	.LVL12
 4278 0451 1B000000 		.4byte	.LVL16-1
 4279 0455 0100     		.2byte	0x1
 4280 0457 52       		.byte	0x52
 4281 0458 1B000000 		.4byte	.LVL16-1
 4282 045c 58000000 		.4byte	.LFE9
 4283 0460 0400     		.2byte	0x4
 4284 0462 F3       		.byte	0xf3
 4285 0463 01       		.uleb128 0x1
 4286 0464 52       		.byte	0x52
 4287 0465 9F       		.byte	0x9f
 4288 0466 00000000 		.4byte	0
 4289 046a 00000000 		.4byte	0
 4290              	.LVUS7:
 4291 046e 02       		.uleb128 .LVU79
 4292 046f 00       		.uleb128 0
 4293              	.LLST7:
 4294 0470 4C000000 		.4byte	.LVL20
 4295 0474 58000000 		.4byte	.LFE9
 4296 0478 0100     		.2byte	0x1
 4297 047a 55       		.byte	0x55
 4298 047b 00000000 		.4byte	0
 4299 047f 00000000 		.4byte	0
 4300              	.LVUS8:
 4301 0483 03       		.uleb128 .LVU51
 4302 0484 00       		.uleb128 .LVU60
 4303 0485 00       		.uleb128 .LVU60
 4304 0486 02       		.uleb128 .LVU79
 4305              	.LLST8:
 4306 0487 14000000 		.4byte	.LVL14
 4307 048b 1B000000 		.4byte	.LVL16-1
 4308 048f 0100     		.2byte	0x1
 4309 0491 52       		.byte	0x52
 4310 0492 1B000000 		.4byte	.LVL16-1
 4311 0496 4C000000 		.4byte	.LVL20
 4312 049a 0400     		.2byte	0x4
 4313 049c F3       		.byte	0xf3
 4314 049d 01       		.uleb128 0x1
 4315 049e 52       		.byte	0x52
 4316 049f 9F       		.byte	0x9f
 4317 04a0 00000000 		.4byte	0
 4318 04a4 00000000 		.4byte	0
 4319              	.LVUS9:
 4320 04a8 03       		.uleb128 .LVU51
 4321 04a9 02       		.uleb128 .LVU79
 4322              	.LLST9:
 4323 04aa 14000000 		.4byte	.LVL14
 4324 04ae 4C000000 		.4byte	.LVL20
 4325 04b2 0100     		.2byte	0x1
 4326 04b4 56       		.byte	0x56
 4327 04b5 00000000 		.4byte	0
 4328 04b9 00000000 		.4byte	0
 4329              	.LVUS10:
 4330 04bd 03       		.uleb128 .LVU51
 4331 04be 00       		.uleb128 .LVU59
 4332 04bf 00       		.uleb128 .LVU59
ARM GAS  /tmp/ccHILlsE.s 			page 77


 4333 04c0 02       		.uleb128 .LVU79
 4334              	.LLST10:
 4335 04c1 14000000 		.4byte	.LVL14
 4336 04c5 18000000 		.4byte	.LVL15
 4337 04c9 0100     		.2byte	0x1
 4338 04cb 50       		.byte	0x50
 4339 04cc 18000000 		.4byte	.LVL15
 4340 04d0 4C000000 		.4byte	.LVL20
 4341 04d4 0100     		.2byte	0x1
 4342 04d6 54       		.byte	0x54
 4343 04d7 00000000 		.4byte	0
 4344 04db 00000000 		.4byte	0
 4345              	.LVUS11:
 4346 04df 00       		.uleb128 .LVU60
 4347 04e0 00       		.uleb128 .LVU74
 4348 04e1 00       		.uleb128 .LVU74
 4349 04e2 02       		.uleb128 .LVU79
 4350              	.LLST11:
 4351 04e3 1C000000 		.4byte	.LVL16
 4352 04e7 40000000 		.4byte	.LVL18
 4353 04eb 0100     		.2byte	0x1
 4354 04ed 50       		.byte	0x50
 4355 04ee 40000000 		.4byte	.LVL18
 4356 04f2 4C000000 		.4byte	.LVL20
 4357 04f6 0100     		.2byte	0x1
 4358 04f8 55       		.byte	0x55
 4359 04f9 00000000 		.4byte	0
 4360 04fd 00000000 		.4byte	0
 4361              	.LVUS12:
 4362 0501 01       		.uleb128 .LVU63
 4363 0502 00       		.uleb128 .LVU77
 4364              	.LLST12:
 4365 0503 24000000 		.4byte	.LVL17
 4366 0507 4C000000 		.4byte	.LVL20
 4367 050b 0400     		.2byte	0x4
 4368 050d F3       		.byte	0xf3
 4369 050e 01       		.uleb128 0x1
 4370 050f 52       		.byte	0x52
 4371 0510 9F       		.byte	0x9f
 4372 0511 00000000 		.4byte	0
 4373 0515 00000000 		.4byte	0
 4374              	.LVUS13:
 4375 0519 00       		.uleb128 .LVU62
 4376 051a 00       		.uleb128 .LVU77
 4377              	.LLST13:
 4378 051b 24000000 		.4byte	.LVL17
 4379 051f 4C000000 		.4byte	.LVL20
 4380 0523 0100     		.2byte	0x1
 4381 0525 56       		.byte	0x56
 4382 0526 00000000 		.4byte	0
 4383 052a 00000000 		.4byte	0
 4384              	.LVUS14:
 4385 052e 00       		.uleb128 .LVU62
 4386 052f 00       		.uleb128 .LVU77
 4387              	.LLST14:
 4388 0530 24000000 		.4byte	.LVL17
 4389 0534 4C000000 		.4byte	.LVL20
ARM GAS  /tmp/ccHILlsE.s 			page 78


 4390 0538 0100     		.2byte	0x1
 4391 053a 54       		.byte	0x54
 4392 053b 00000000 		.4byte	0
 4393 053f 00000000 		.4byte	0
 4394              	.LVUS3:
 4395 0543 00       		.uleb128 0
 4396 0544 00       		.uleb128 .LVU34
 4397 0545 00       		.uleb128 .LVU34
 4398 0546 00       		.uleb128 0
 4399              	.LLST3:
 4400 0547 00000000 		.4byte	.LVL7
 4401 054b 28000000 		.4byte	.LVL8
 4402 054f 0100     		.2byte	0x1
 4403 0551 50       		.byte	0x50
 4404 0552 28000000 		.4byte	.LVL8
 4405 0556 44000000 		.4byte	.LFE8
 4406 055a 0100     		.2byte	0x1
 4407 055c 54       		.byte	0x54
 4408 055d 00000000 		.4byte	0
 4409 0561 00000000 		.4byte	0
 4410              	.LVUS0:
 4411 0565 00       		.uleb128 0
 4412 0566 00       		.uleb128 .LVU13
 4413 0567 00       		.uleb128 .LVU13
 4414 0568 00       		.uleb128 .LVU16
 4415 0569 00       		.uleb128 .LVU16
 4416 056a 00       		.uleb128 .LVU17
 4417 056b 00       		.uleb128 .LVU17
 4418 056c 00       		.uleb128 0
 4419              	.LLST0:
 4420 056d 00000000 		.4byte	.LVL0
 4421 0571 28000000 		.4byte	.LVL3
 4422 0575 0100     		.2byte	0x1
 4423 0577 50       		.byte	0x50
 4424 0578 28000000 		.4byte	.LVL3
 4425 057c 38000000 		.4byte	.LVL5
 4426 0580 0100     		.2byte	0x1
 4427 0582 54       		.byte	0x54
 4428 0583 38000000 		.4byte	.LVL5
 4429 0587 3B000000 		.4byte	.LVL6-1
 4430 058b 0300     		.2byte	0x3
 4431 058d 70       		.byte	0x70
 4432 058e 70       		.sleb128 -16
 4433 058f 9F       		.byte	0x9f
 4434 0590 3B000000 		.4byte	.LVL6-1
 4435 0594 3C000000 		.4byte	.LFE7
 4436 0598 0400     		.2byte	0x4
 4437 059a F3       		.byte	0xf3
 4438 059b 01       		.uleb128 0x1
 4439 059c 50       		.byte	0x50
 4440 059d 9F       		.byte	0x9f
 4441 059e 00000000 		.4byte	0
 4442 05a2 00000000 		.4byte	0
 4443              	.LVUS1:
 4444 05a6 00       		.uleb128 0
 4445 05a7 00       		.uleb128 .LVU6
 4446 05a8 00       		.uleb128 .LVU6
ARM GAS  /tmp/ccHILlsE.s 			page 79


 4447 05a9 00       		.uleb128 .LVU14
 4448 05aa 00       		.uleb128 .LVU14
 4449 05ab 00       		.uleb128 0
 4450              	.LLST1:
 4451 05ac 00000000 		.4byte	.LVL0
 4452 05b0 10000000 		.4byte	.LVL1
 4453 05b4 0100     		.2byte	0x1
 4454 05b6 51       		.byte	0x51
 4455 05b7 10000000 		.4byte	.LVL1
 4456 05bb 2B000000 		.4byte	.LVL4-1
 4457 05bf 0100     		.2byte	0x1
 4458 05c1 53       		.byte	0x53
 4459 05c2 2B000000 		.4byte	.LVL4-1
 4460 05c6 3C000000 		.4byte	.LFE7
 4461 05ca 0400     		.2byte	0x4
 4462 05cc F3       		.byte	0xf3
 4463 05cd 01       		.uleb128 0x1
 4464 05ce 51       		.byte	0x51
 4465 05cf 9F       		.byte	0x9f
 4466 05d0 00000000 		.4byte	0
 4467 05d4 00000000 		.4byte	0
 4468              	.LVUS2:
 4469 05d8 00       		.uleb128 0
 4470 05d9 00       		.uleb128 .LVU7
 4471 05da 00       		.uleb128 .LVU7
 4472 05db 00       		.uleb128 .LVU14
 4473 05dc 00       		.uleb128 .LVU14
 4474 05dd 00       		.uleb128 0
 4475              	.LLST2:
 4476 05de 00000000 		.4byte	.LVL0
 4477 05e2 14000000 		.4byte	.LVL2
 4478 05e6 0100     		.2byte	0x1
 4479 05e8 52       		.byte	0x52
 4480 05e9 14000000 		.4byte	.LVL2
 4481 05ed 2B000000 		.4byte	.LVL4-1
 4482 05f1 0100     		.2byte	0x1
 4483 05f3 51       		.byte	0x51
 4484 05f4 2B000000 		.4byte	.LVL4-1
 4485 05f8 3C000000 		.4byte	.LFE7
 4486 05fc 0400     		.2byte	0x4
 4487 05fe F3       		.byte	0xf3
 4488 05ff 01       		.uleb128 0x1
 4489 0600 52       		.byte	0x52
 4490 0601 9F       		.byte	0x9f
 4491 0602 00000000 		.4byte	0
 4492 0606 00000000 		.4byte	0
 4493              	.LVUS15:
 4494 060a 00       		.uleb128 0
 4495 060b 00       		.uleb128 .LVU89
 4496 060c 00       		.uleb128 .LVU89
 4497 060d 00       		.uleb128 0
 4498              	.LLST15:
 4499 060e 00000000 		.4byte	.LVL21
 4500 0612 10000000 		.4byte	.LVL22
 4501 0616 0100     		.2byte	0x1
 4502 0618 50       		.byte	0x50
 4503 0619 10000000 		.4byte	.LVL22
ARM GAS  /tmp/ccHILlsE.s 			page 80


 4504 061d 50000000 		.4byte	.LFE10
 4505 0621 0100     		.2byte	0x1
 4506 0623 54       		.byte	0x54
 4507 0624 00000000 		.4byte	0
 4508 0628 00000000 		.4byte	0
 4509              	.LVUS16:
 4510 062c 00       		.uleb128 0
 4511 062d 00       		.uleb128 .LVU90
 4512 062e 00       		.uleb128 .LVU90
 4513 062f 00       		.uleb128 0
 4514              	.LLST16:
 4515 0630 00000000 		.4byte	.LVL21
 4516 0634 14000000 		.4byte	.LVL23
 4517 0638 0100     		.2byte	0x1
 4518 063a 51       		.byte	0x51
 4519 063b 14000000 		.4byte	.LVL23
 4520 063f 50000000 		.4byte	.LFE10
 4521 0643 0100     		.2byte	0x1
 4522 0645 56       		.byte	0x56
 4523 0646 00000000 		.4byte	0
 4524 064a 00000000 		.4byte	0
 4525              	.LVUS17:
 4526 064e 00       		.uleb128 0
 4527 064f 00       		.uleb128 .LVU97
 4528 0650 00       		.uleb128 .LVU97
 4529 0651 00       		.uleb128 0
 4530              	.LLST17:
 4531 0652 00000000 		.4byte	.LVL21
 4532 0656 17000000 		.4byte	.LVL24-1
 4533 065a 0100     		.2byte	0x1
 4534 065c 52       		.byte	0x52
 4535 065d 17000000 		.4byte	.LVL24-1
 4536 0661 50000000 		.4byte	.LFE10
 4537 0665 0400     		.2byte	0x4
 4538 0667 F3       		.byte	0xf3
 4539 0668 01       		.uleb128 0x1
 4540 0669 52       		.byte	0x52
 4541 066a 9F       		.byte	0x9f
 4542 066b 00000000 		.4byte	0
 4543 066f 00000000 		.4byte	0
 4544              	.LVUS18:
 4545 0673 00       		.uleb128 .LVU97
 4546 0674 00       		.uleb128 .LVU111
 4547 0675 00       		.uleb128 .LVU111
 4548 0676 00       		.uleb128 0
 4549              	.LLST18:
 4550 0677 18000000 		.4byte	.LVL24
 4551 067b 3C000000 		.4byte	.LVL26
 4552 067f 0100     		.2byte	0x1
 4553 0681 50       		.byte	0x50
 4554 0682 3C000000 		.4byte	.LVL26
 4555 0686 50000000 		.4byte	.LFE10
 4556 068a 0100     		.2byte	0x1
 4557 068c 55       		.byte	0x55
 4558 068d 00000000 		.4byte	0
 4559 0691 00000000 		.4byte	0
 4560              	.LVUS19:
ARM GAS  /tmp/ccHILlsE.s 			page 81


 4561 0695 01       		.uleb128 .LVU100
 4562 0696 00       		.uleb128 .LVU114
 4563              	.LLST19:
 4564 0697 20000000 		.4byte	.LVL25
 4565 069b 48000000 		.4byte	.LVL28
 4566 069f 0400     		.2byte	0x4
 4567 06a1 F3       		.byte	0xf3
 4568 06a2 01       		.uleb128 0x1
 4569 06a3 52       		.byte	0x52
 4570 06a4 9F       		.byte	0x9f
 4571 06a5 00000000 		.4byte	0
 4572 06a9 00000000 		.4byte	0
 4573              	.LVUS20:
 4574 06ad 00       		.uleb128 .LVU99
 4575 06ae 00       		.uleb128 .LVU114
 4576              	.LLST20:
 4577 06af 20000000 		.4byte	.LVL25
 4578 06b3 48000000 		.4byte	.LVL28
 4579 06b7 0100     		.2byte	0x1
 4580 06b9 56       		.byte	0x56
 4581 06ba 00000000 		.4byte	0
 4582 06be 00000000 		.4byte	0
 4583              	.LVUS21:
 4584 06c2 00       		.uleb128 .LVU99
 4585 06c3 00       		.uleb128 .LVU114
 4586              	.LLST21:
 4587 06c4 20000000 		.4byte	.LVL25
 4588 06c8 48000000 		.4byte	.LVL28
 4589 06cc 0100     		.2byte	0x1
 4590 06ce 54       		.byte	0x54
 4591 06cf 00000000 		.4byte	0
 4592 06d3 00000000 		.4byte	0
 4593              	.LVUS35:
 4594 06d7 00       		.uleb128 0
 4595 06d8 00       		.uleb128 .LVU195
 4596 06d9 00       		.uleb128 .LVU195
 4597 06da 00       		.uleb128 0
 4598              	.LLST35:
 4599 06db 00000000 		.4byte	.LVL43
 4600 06df 10000000 		.4byte	.LVL44
 4601 06e3 0100     		.2byte	0x1
 4602 06e5 50       		.byte	0x50
 4603 06e6 10000000 		.4byte	.LVL44
 4604 06ea 58000000 		.4byte	.LFE13
 4605 06ee 0100     		.2byte	0x1
 4606 06f0 54       		.byte	0x54
 4607 06f1 00000000 		.4byte	0
 4608 06f5 00000000 		.4byte	0
 4609              	.LVUS36:
 4610 06f9 00       		.uleb128 0
 4611 06fa 00       		.uleb128 .LVU196
 4612 06fb 00       		.uleb128 .LVU196
 4613 06fc 00       		.uleb128 0
 4614              	.LLST36:
 4615 06fd 00000000 		.4byte	.LVL43
 4616 0701 14000000 		.4byte	.LVL45
 4617 0705 0100     		.2byte	0x1
ARM GAS  /tmp/ccHILlsE.s 			page 82


 4618 0707 51       		.byte	0x51
 4619 0708 14000000 		.4byte	.LVL45
 4620 070c 58000000 		.4byte	.LFE13
 4621 0710 0100     		.2byte	0x1
 4622 0712 56       		.byte	0x56
 4623 0713 00000000 		.4byte	0
 4624 0717 00000000 		.4byte	0
 4625              	.LVUS37:
 4626 071b 00       		.uleb128 0
 4627 071c 00       		.uleb128 .LVU203
 4628 071d 00       		.uleb128 .LVU203
 4629 071e 00       		.uleb128 0
 4630              	.LLST37:
 4631 071f 00000000 		.4byte	.LVL43
 4632 0723 17000000 		.4byte	.LVL46-1
 4633 0727 0100     		.2byte	0x1
 4634 0729 52       		.byte	0x52
 4635 072a 17000000 		.4byte	.LVL46-1
 4636 072e 58000000 		.4byte	.LFE13
 4637 0732 0400     		.2byte	0x4
 4638 0734 F3       		.byte	0xf3
 4639 0735 01       		.uleb128 0x1
 4640 0736 52       		.byte	0x52
 4641 0737 9F       		.byte	0x9f
 4642 0738 00000000 		.4byte	0
 4643 073c 00000000 		.4byte	0
 4644              	.LVUS38:
 4645 0740 00       		.uleb128 .LVU203
 4646 0741 00       		.uleb128 .LVU215
 4647 0742 00       		.uleb128 .LVU215
 4648 0743 00       		.uleb128 0
 4649              	.LLST38:
 4650 0744 18000000 		.4byte	.LVL46
 4651 0748 3C000000 		.4byte	.LVL48
 4652 074c 0100     		.2byte	0x1
 4653 074e 50       		.byte	0x50
 4654 074f 3C000000 		.4byte	.LVL48
 4655 0753 58000000 		.4byte	.LFE13
 4656 0757 0100     		.2byte	0x1
 4657 0759 55       		.byte	0x55
 4658 075a 00000000 		.4byte	0
 4659 075e 00000000 		.4byte	0
 4660              	.LVUS39:
 4661 0762 01       		.uleb128 .LVU206
 4662 0763 00       		.uleb128 .LVU220
 4663              	.LLST39:
 4664 0764 20000000 		.4byte	.LVL47
 4665 0768 50000000 		.4byte	.LVL50
 4666 076c 0400     		.2byte	0x4
 4667 076e F3       		.byte	0xf3
 4668 076f 01       		.uleb128 0x1
 4669 0770 52       		.byte	0x52
 4670 0771 9F       		.byte	0x9f
 4671 0772 00000000 		.4byte	0
 4672 0776 00000000 		.4byte	0
 4673              	.LVUS40:
 4674 077a 00       		.uleb128 .LVU205
ARM GAS  /tmp/ccHILlsE.s 			page 83


 4675 077b 00       		.uleb128 .LVU220
 4676              	.LLST40:
 4677 077c 20000000 		.4byte	.LVL47
 4678 0780 50000000 		.4byte	.LVL50
 4679 0784 0100     		.2byte	0x1
 4680 0786 56       		.byte	0x56
 4681 0787 00000000 		.4byte	0
 4682 078b 00000000 		.4byte	0
 4683              	.LVUS41:
 4684 078f 00       		.uleb128 .LVU205
 4685 0790 00       		.uleb128 .LVU220
 4686              	.LLST41:
 4687 0791 20000000 		.4byte	.LVL47
 4688 0795 50000000 		.4byte	.LVL50
 4689 0799 0100     		.2byte	0x1
 4690 079b 54       		.byte	0x54
 4691 079c 00000000 		.4byte	0
 4692 07a0 00000000 		.4byte	0
 4693              	.LVUS55:
 4694 07a4 00       		.uleb128 0
 4695 07a5 00       		.uleb128 .LVU303
 4696 07a6 00       		.uleb128 .LVU303
 4697 07a7 00       		.uleb128 0
 4698              	.LLST55:
 4699 07a8 00000000 		.4byte	.LVL65
 4700 07ac 10000000 		.4byte	.LVL66
 4701 07b0 0100     		.2byte	0x1
 4702 07b2 50       		.byte	0x50
 4703 07b3 10000000 		.4byte	.LVL66
 4704 07b7 58000000 		.4byte	.LFE16
 4705 07bb 0100     		.2byte	0x1
 4706 07bd 54       		.byte	0x54
 4707 07be 00000000 		.4byte	0
 4708 07c2 00000000 		.4byte	0
 4709              	.LVUS56:
 4710 07c6 00       		.uleb128 0
 4711 07c7 00       		.uleb128 .LVU304
 4712 07c8 00       		.uleb128 .LVU304
 4713 07c9 00       		.uleb128 0
 4714              	.LLST56:
 4715 07ca 00000000 		.4byte	.LVL65
 4716 07ce 14000000 		.4byte	.LVL67
 4717 07d2 0100     		.2byte	0x1
 4718 07d4 51       		.byte	0x51
 4719 07d5 14000000 		.4byte	.LVL67
 4720 07d9 58000000 		.4byte	.LFE16
 4721 07dd 0100     		.2byte	0x1
 4722 07df 56       		.byte	0x56
 4723 07e0 00000000 		.4byte	0
 4724 07e4 00000000 		.4byte	0
 4725              	.LVUS57:
 4726 07e8 00       		.uleb128 0
 4727 07e9 00       		.uleb128 .LVU311
 4728 07ea 00       		.uleb128 .LVU311
 4729 07eb 00       		.uleb128 0
 4730              	.LLST57:
 4731 07ec 00000000 		.4byte	.LVL65
ARM GAS  /tmp/ccHILlsE.s 			page 84


 4732 07f0 17000000 		.4byte	.LVL68-1
 4733 07f4 0100     		.2byte	0x1
 4734 07f6 52       		.byte	0x52
 4735 07f7 17000000 		.4byte	.LVL68-1
 4736 07fb 58000000 		.4byte	.LFE16
 4737 07ff 0400     		.2byte	0x4
 4738 0801 F3       		.byte	0xf3
 4739 0802 01       		.uleb128 0x1
 4740 0803 52       		.byte	0x52
 4741 0804 9F       		.byte	0x9f
 4742 0805 00000000 		.4byte	0
 4743 0809 00000000 		.4byte	0
 4744              	.LVUS58:
 4745 080d 00       		.uleb128 .LVU311
 4746 080e 00       		.uleb128 .LVU326
 4747 080f 00       		.uleb128 .LVU326
 4748 0810 00       		.uleb128 0
 4749              	.LLST58:
 4750 0811 18000000 		.4byte	.LVL68
 4751 0815 44000000 		.4byte	.LVL70
 4752 0819 0100     		.2byte	0x1
 4753 081b 50       		.byte	0x50
 4754 081c 44000000 		.4byte	.LVL70
 4755 0820 58000000 		.4byte	.LFE16
 4756 0824 0100     		.2byte	0x1
 4757 0826 55       		.byte	0x55
 4758 0827 00000000 		.4byte	0
 4759 082b 00000000 		.4byte	0
 4760              	.LVUS59:
 4761 082f 01       		.uleb128 .LVU314
 4762 0830 00       		.uleb128 .LVU329
 4763              	.LLST59:
 4764 0831 20000000 		.4byte	.LVL69
 4765 0835 50000000 		.4byte	.LVL72
 4766 0839 0400     		.2byte	0x4
 4767 083b F3       		.byte	0xf3
 4768 083c 01       		.uleb128 0x1
 4769 083d 52       		.byte	0x52
 4770 083e 9F       		.byte	0x9f
 4771 083f 00000000 		.4byte	0
 4772 0843 00000000 		.4byte	0
 4773              	.LVUS60:
 4774 0847 00       		.uleb128 .LVU313
 4775 0848 00       		.uleb128 .LVU329
 4776              	.LLST60:
 4777 0849 20000000 		.4byte	.LVL69
 4778 084d 50000000 		.4byte	.LVL72
 4779 0851 0100     		.2byte	0x1
 4780 0853 56       		.byte	0x56
 4781 0854 00000000 		.4byte	0
 4782 0858 00000000 		.4byte	0
 4783              	.LVUS61:
 4784 085c 00       		.uleb128 .LVU313
 4785 085d 00       		.uleb128 .LVU329
 4786              	.LLST61:
 4787 085e 20000000 		.4byte	.LVL69
 4788 0862 50000000 		.4byte	.LVL72
ARM GAS  /tmp/ccHILlsE.s 			page 85


 4789 0866 0100     		.2byte	0x1
 4790 0868 54       		.byte	0x54
 4791 0869 00000000 		.4byte	0
 4792 086d 00000000 		.4byte	0
 4793              		.section	.debug_aranges,"",%progbits
 4794 0000 6C000000 		.4byte	0x6c
 4795 0004 0200     		.2byte	0x2
 4796 0006 00000000 		.4byte	.Ldebug_info0
 4797 000a 04       		.byte	0x4
 4798 000b 00       		.byte	0
 4799 000c 0000     		.2byte	0
 4800 000e 0000     		.2byte	0
 4801 0010 00000000 		.4byte	.LFB7
 4802 0014 3C000000 		.4byte	.LFE7-.LFB7
 4803 0018 00000000 		.4byte	.LFB8
 4804 001c 44000000 		.4byte	.LFE8-.LFB8
 4805 0020 00000000 		.4byte	.LFB9
 4806 0024 58000000 		.4byte	.LFE9-.LFB9
 4807 0028 00000000 		.4byte	.LFB10
 4808 002c 50000000 		.4byte	.LFE10-.LFB10
 4809 0030 00000000 		.4byte	.LFB11
 4810 0034 50000000 		.4byte	.LFE11-.LFB11
 4811 0038 00000000 		.4byte	.LFB12
 4812 003c 60000000 		.4byte	.LFE12-.LFB12
 4813 0040 00000000 		.4byte	.LFB13
 4814 0044 58000000 		.4byte	.LFE13-.LFB13
 4815 0048 00000000 		.4byte	.LFB14
 4816 004c 54000000 		.4byte	.LFE14-.LFB14
 4817 0050 00000000 		.4byte	.LFB15
 4818 0054 60000000 		.4byte	.LFE15-.LFB15
 4819 0058 00000000 		.4byte	.LFB16
 4820 005c 58000000 		.4byte	.LFE16-.LFB16
 4821 0060 00000000 		.4byte	.LFB17
 4822 0064 54000000 		.4byte	.LFE17-.LFB17
 4823 0068 00000000 		.4byte	0
 4824 006c 00000000 		.4byte	0
 4825              		.section	.debug_ranges,"",%progbits
 4826              	.Ldebug_ranges0:
 4827 0000 00000000 		.4byte	.LFB7
 4828 0004 3C000000 		.4byte	.LFE7
 4829 0008 00000000 		.4byte	.LFB8
 4830 000c 44000000 		.4byte	.LFE8
 4831 0010 00000000 		.4byte	.LFB9
 4832 0014 58000000 		.4byte	.LFE9
 4833 0018 00000000 		.4byte	.LFB10
 4834 001c 50000000 		.4byte	.LFE10
 4835 0020 00000000 		.4byte	.LFB11
 4836 0024 50000000 		.4byte	.LFE11
 4837 0028 00000000 		.4byte	.LFB12
 4838 002c 60000000 		.4byte	.LFE12
 4839 0030 00000000 		.4byte	.LFB13
 4840 0034 58000000 		.4byte	.LFE13
 4841 0038 00000000 		.4byte	.LFB14
 4842 003c 54000000 		.4byte	.LFE14
 4843 0040 00000000 		.4byte	.LFB15
 4844 0044 60000000 		.4byte	.LFE15
 4845 0048 00000000 		.4byte	.LFB16
ARM GAS  /tmp/ccHILlsE.s 			page 86


 4846 004c 58000000 		.4byte	.LFE16
 4847 0050 00000000 		.4byte	.LFB17
 4848 0054 54000000 		.4byte	.LFE17
 4849 0058 00000000 		.4byte	0
 4850 005c 00000000 		.4byte	0
 4851              		.section	.debug_line,"",%progbits
 4852              	.Ldebug_line0:
 4853 0000 1D060000 		.section	.debug_str,"MS",%progbits,1
 4853      03001701 
 4853      00000201 
 4853      FB0E0D00 
 4853      01010101 
 4854              	.LASF94:
 4855 0000 63665F6F 		.ascii	"cf_off_older\000"
 4855      66665F6F 
 4855      6C646572 
 4855      00
 4856              	.LASF37:
 4857 000d 705F6D73 		.ascii	"p_msg\000"
 4857      6700
 4858              	.LASF124:
 4859 0013 2E2E2F6F 		.ascii	"../os/kernel/src/chmboxes.c\000"
 4859      732F6B65 
 4859      726E656C 
 4859      2F737263 
 4859      2F63686D 
 4860              	.LASF118:
 4861 002f 63685365 		.ascii	"chSemSignalI\000"
 4861      6D536967 
 4861      6E616C49 
 4861      00
 4862              	.LASF123:
 4863 003c 474E5520 		.ascii	"GNU C17 9.2.1 20191025 (release) [ARM/arm-9-branch "
 4863      43313720 
 4863      392E322E 
 4863      31203230 
 4863      31393130 
 4864 006f 72657669 		.ascii	"revision 277599] -mcpu=arm1176jz-s -mno-thumb-inter"
 4864      73696F6E 
 4864      20323737 
 4864      3539395D 
 4864      202D6D63 
 4865 00a2 776F726B 		.ascii	"work -mfloat-abi=soft -marm -march=armv6kz -ggdb -O"
 4865      202D6D66 
 4865      6C6F6174 
 4865      2D616269 
 4865      3D736F66 
 4866 00d5 32202D66 		.ascii	"2 -fomit-frame-pointer -ffunction-sections -fdata-s"
 4866      6F6D6974 
 4866      2D667261 
 4866      6D652D70 
 4866      6F696E74 
 4867 0108 65637469 		.ascii	"ections\000"
 4867      6F6E7300 
 4868              	.LASF79:
 4869 0110 7264796D 		.ascii	"rdymsg\000"
 4869      736700
ARM GAS  /tmp/ccHILlsE.s 			page 87


 4870              	.LASF75:
 4871 0117 6D625F72 		.ascii	"mb_rdptr\000"
 4871      64707472 
 4871      00
 4872              	.LASF113:
 4873 0120 63684D42 		.ascii	"chMBPostI\000"
 4873      506F7374 
 4873      4900
 4874              	.LASF63:
 4875 012a 76746C69 		.ascii	"vtlist\000"
 4875      737400
 4876              	.LASF114:
 4877 0131 63684D42 		.ascii	"chMBPostS\000"
 4877      506F7374 
 4877      5300
 4878              	.LASF78:
 4879 013b 4D61696C 		.ascii	"Mailbox\000"
 4879      626F7800 
 4880              	.LASF109:
 4881 0143 63684D42 		.ascii	"chMBPostAheadI\000"
 4881      506F7374 
 4881      41686561 
 4881      644900
 4882              	.LASF12:
 4883 0152 6C6F6E67 		.ascii	"long long unsigned int\000"
 4883      206C6F6E 
 4883      6720756E 
 4883      7369676E 
 4883      65642069 
 4884              	.LASF90:
 4885 0169 63685F74 		.ascii	"ch_threadsize\000"
 4885      68726561 
 4885      6473697A 
 4885      6500
 4886              	.LASF80:
 4887 0177 65786974 		.ascii	"exitcode\000"
 4887      636F6465 
 4887      00
 4888              	.LASF117:
 4889 0180 63684D42 		.ascii	"chMBInit\000"
 4889      496E6974 
 4889      00
 4890              	.LASF111:
 4891 0189 63684D42 		.ascii	"chMBPostAheadS\000"
 4891      506F7374 
 4891      41686561 
 4891      645300
 4892              	.LASF74:
 4893 0198 6D625F77 		.ascii	"mb_wrptr\000"
 4893      72707472 
 4893      00
 4894              	.LASF25:
 4895 01a1 705F7072 		.ascii	"p_prio\000"
 4895      696F00
 4896              	.LASF97:
 4897 01a8 63665F6F 		.ascii	"cf_off_state\000"
 4897      66665F73 
ARM GAS  /tmp/ccHILlsE.s 			page 88


 4897      74617465 
 4897      00
 4898              	.LASF4:
 4899 01b5 6C6F6E67 		.ascii	"long long int\000"
 4899      206C6F6E 
 4899      6720696E 
 4899      7400
 4900              	.LASF1:
 4901 01c3 7369676E 		.ascii	"signed char\000"
 4901      65642063 
 4901      68617200 
 4902              	.LASF96:
 4903 01cf 63665F6F 		.ascii	"cf_off_stklimit\000"
 4903      66665F73 
 4903      746B6C69 
 4903      6D697400 
 4904              	.LASF98:
 4905 01df 63665F6F 		.ascii	"cf_off_flags\000"
 4905      66665F66 
 4905      6C616773 
 4905      00
 4906              	.LASF69:
 4907 01ec 6D5F7175 		.ascii	"m_queue\000"
 4907      65756500 
 4908              	.LASF16:
 4909 01f4 74736C69 		.ascii	"tslices_t\000"
 4909      6365735F 
 4909      7400
 4910              	.LASF3:
 4911 01fe 6C6F6E67 		.ascii	"long int\000"
 4911      20696E74 
 4911      00
 4912              	.LASF14:
 4913 0207 74737461 		.ascii	"tstate_t\000"
 4913      74655F74 
 4913      00
 4914              	.LASF8:
 4915 0210 75696E74 		.ascii	"uint16_t\000"
 4915      31365F74 
 4915      00
 4916              	.LASF102:
 4917 0219 63686465 		.ascii	"chdebug_t\000"
 4917      6275675F 
 4917      7400
 4918              	.LASF27:
 4919 0223 705F6E65 		.ascii	"p_newer\000"
 4919      77657200 
 4920              	.LASF104:
 4921 022b 5F69646C 		.ascii	"_idle_thread_wa\000"
 4921      655F7468 
 4921      72656164 
 4921      5F776100 
 4922              	.LASF66:
 4923 023b 735F7175 		.ascii	"s_queue\000"
 4923      65756500 
 4924              	.LASF119:
 4925 0243 63685363 		.ascii	"chSchRescheduleS\000"
ARM GAS  /tmp/ccHILlsE.s 			page 89


 4925      68526573 
 4925      63686564 
 4925      756C6553 
 4925      00
 4926              	.LASF59:
 4927 0254 725F6E65 		.ascii	"r_newer\000"
 4927      77657200 
 4928              	.LASF44:
 4929 025c 72656761 		.ascii	"regarm_t\000"
 4929      726D5F74 
 4929      00
 4930              	.LASF50:
 4931 0265 76745F70 		.ascii	"vt_prev\000"
 4931      72657600 
 4932              	.LASF21:
 4933 026d 636E745F 		.ascii	"cnt_t\000"
 4933      7400
 4934              	.LASF0:
 4935 0273 756E7369 		.ascii	"unsigned int\000"
 4935      676E6564 
 4935      20696E74 
 4935      00
 4936              	.LASF49:
 4937 0280 76745F6E 		.ascii	"vt_next\000"
 4937      65787400 
 4938              	.LASF11:
 4939 0288 6C6F6E67 		.ascii	"long unsigned int\000"
 4939      20756E73 
 4939      69676E65 
 4939      6420696E 
 4939      7400
 4940              	.LASF103:
 4941 029a 63685F64 		.ascii	"ch_debug\000"
 4941      65627567 
 4941      00
 4942              	.LASF77:
 4943 02a3 6D625F65 		.ascii	"mb_emptysem\000"
 4943      6D707479 
 4943      73656D00 
 4944              	.LASF84:
 4945 02af 63685F69 		.ascii	"ch_identifier\000"
 4945      64656E74 
 4945      69666965 
 4945      7200
 4946              	.LASF67:
 4947 02bd 735F636E 		.ascii	"s_cnt\000"
 4947      7400
 4948              	.LASF46:
 4949 02c3 636F6E74 		.ascii	"context\000"
 4949      65787400 
 4950              	.LASF9:
 4951 02cb 73686F72 		.ascii	"short unsigned int\000"
 4951      7420756E 
 4951      7369676E 
 4951      65642069 
 4951      6E7400
 4952              	.LASF107:
ARM GAS  /tmp/ccHILlsE.s 			page 90


 4953 02de 63684D42 		.ascii	"chMBFetchI\000"
 4953      46657463 
 4953      684900
 4954              	.LASF18:
 4955 02e9 6D73675F 		.ascii	"msg_t\000"
 4955      7400
 4956              	.LASF110:
 4957 02ef 63684D42 		.ascii	"chMBFetchS\000"
 4957      46657463 
 4957      685300
 4958              	.LASF13:
 4959 02fa 746D6F64 		.ascii	"tmode_t\000"
 4959      655F7400 
 4960              	.LASF42:
 4961 0302 54687265 		.ascii	"ThreadsList\000"
 4961      6164734C 
 4961      69737400 
 4962              	.LASF19:
 4963 030e 6576656E 		.ascii	"eventmask_t\000"
 4963      746D6173 
 4963      6B5F7400 
 4964              	.LASF68:
 4965 031a 4D757465 		.ascii	"Mutex\000"
 4965      7800
 4966              	.LASF105:
 4967 0320 6D736770 		.ascii	"msgp\000"
 4967      00
 4968              	.LASF43:
 4969 0325 73746B61 		.ascii	"stkalign_t\000"
 4969      6C69676E 
 4969      5F7400
 4970              	.LASF85:
 4971 0330 63685F7A 		.ascii	"ch_zero\000"
 4971      65726F00 
 4972              	.LASF99:
 4973 0338 63665F6F 		.ascii	"cf_off_refs\000"
 4973      66665F72 
 4973      65667300 
 4974              	.LASF51:
 4975 0344 76745F74 		.ascii	"vt_time\000"
 4975      696D6500 
 4976              	.LASF52:
 4977 034c 76745F66 		.ascii	"vt_func\000"
 4977      756E6300 
 4978              	.LASF89:
 4979 0354 63685F74 		.ascii	"ch_timesize\000"
 4979      696D6573 
 4979      697A6500 
 4980              	.LASF116:
 4981 0360 63684D42 		.ascii	"chMBReset\000"
 4981      52657365 
 4981      7400
 4982              	.LASF95:
 4983 036a 63665F6F 		.ascii	"cf_off_name\000"
 4983      66665F6E 
 4983      616D6500 
 4984              	.LASF28:
ARM GAS  /tmp/ccHILlsE.s 			page 91


 4985 0376 705F6F6C 		.ascii	"p_older\000"
 4985      64657200 
 4986              	.LASF58:
 4987 037e 725F6374 		.ascii	"r_ctx\000"
 4987      7800
 4988              	.LASF41:
 4989 0384 54687265 		.ascii	"ThreadsQueue\000"
 4989      61647351 
 4989      75657565 
 4989      00
 4990              	.LASF86:
 4991 0391 63685F73 		.ascii	"ch_size\000"
 4991      697A6500 
 4992              	.LASF72:
 4993 0399 6D625F62 		.ascii	"mb_buffer\000"
 4993      75666665 
 4993      7200
 4994              	.LASF106:
 4995 03a3 74696D65 		.ascii	"time\000"
 4995      00
 4996              	.LASF61:
 4997 03a8 725F6375 		.ascii	"r_current\000"
 4997      7272656E 
 4997      7400
 4998              	.LASF60:
 4999 03b2 725F6F6C 		.ascii	"r_older\000"
 4999      64657200 
 5000              	.LASF15:
 5001 03ba 74726566 		.ascii	"trefs_t\000"
 5001      735F7400 
 5002              	.LASF88:
 5003 03c2 63685F70 		.ascii	"ch_ptrsize\000"
 5003      74727369 
 5003      7A6500
 5004              	.LASF24:
 5005 03cd 705F7072 		.ascii	"p_prev\000"
 5005      657600
 5006              	.LASF17:
 5007 03d4 74707269 		.ascii	"tprio_t\000"
 5007      6F5F7400 
 5008              	.LASF5:
 5009 03dc 696E7433 		.ascii	"int32_t\000"
 5009      325F7400 
 5010              	.LASF7:
 5011 03e4 756E7369 		.ascii	"unsigned char\000"
 5011      676E6564 
 5011      20636861 
 5011      7200
 5012              	.LASF73:
 5013 03f2 6D625F74 		.ascii	"mb_top\000"
 5013      6F7000
 5014              	.LASF39:
 5015 03f9 705F6D74 		.ascii	"p_mtxlist\000"
 5015      786C6973 
 5015      7400
 5016              	.LASF2:
 5017 0403 73686F72 		.ascii	"short int\000"
ARM GAS  /tmp/ccHILlsE.s 			page 92


 5017      7420696E 
 5017      7400
 5018              	.LASF30:
 5019 040d 705F7374 		.ascii	"p_state\000"
 5019      61746500 
 5020              	.LASF33:
 5021 0415 705F7072 		.ascii	"p_preempt\000"
 5021      65656D70 
 5021      7400
 5022              	.LASF101:
 5023 041f 63665F6F 		.ascii	"cf_off_time\000"
 5023      66665F74 
 5023      696D6500 
 5024              	.LASF57:
 5025 042b 725F7072 		.ascii	"r_prio\000"
 5025      696F00
 5026              	.LASF82:
 5027 0432 65776D61 		.ascii	"ewmask\000"
 5027      736B00
 5028              	.LASF23:
 5029 0439 705F6E65 		.ascii	"p_next\000"
 5029      787400
 5030              	.LASF100:
 5031 0440 63665F6F 		.ascii	"cf_off_preempt\000"
 5031      66665F70 
 5031      7265656D 
 5031      707400
 5032              	.LASF31:
 5033 044f 705F666C 		.ascii	"p_flags\000"
 5033      61677300 
 5034              	.LASF115:
 5035 0457 63684D42 		.ascii	"chMBPost\000"
 5035      506F7374 
 5035      00
 5036              	.LASF22:
 5037 0460 54687265 		.ascii	"Thread\000"
 5037      616400
 5038              	.LASF93:
 5039 0467 63665F6F 		.ascii	"cf_off_newer\000"
 5039      66665F6E 
 5039      65776572 
 5039      00
 5040              	.LASF38:
 5041 0474 705F6570 		.ascii	"p_epending\000"
 5041      656E6469 
 5041      6E6700
 5042              	.LASF10:
 5043 047f 75696E74 		.ascii	"uint32_t\000"
 5043      33325F74 
 5043      00
 5044              	.LASF91:
 5045 0488 63665F6F 		.ascii	"cf_off_prio\000"
 5045      66665F70 
 5045      72696F00 
 5046              	.LASF56:
 5047 0494 725F7175 		.ascii	"r_queue\000"
 5047      65756500 
ARM GAS  /tmp/ccHILlsE.s 			page 93


 5048              	.LASF48:
 5049 049c 56697274 		.ascii	"VirtualTimer\000"
 5049      75616C54 
 5049      696D6572 
 5049      00
 5050              	.LASF125:
 5051 04a9 2F686F6D 		.ascii	"/home/taskman/arduino/embedded-wind-turbine/Data_Co"
 5051      652F7461 
 5051      736B6D61 
 5051      6E2F6172 
 5051      6475696E 
 5052 04dc 6C6C6563 		.ascii	"llector/raspberry/compiler/ChibiOS-RPi/led\000"
 5052      746F722F 
 5052      72617370 
 5052      62657272 
 5052      792F636F 
 5053              	.LASF83:
 5054 0507 63686172 		.ascii	"char\000"
 5054      00
 5055              	.LASF120:
 5056 050c 63685365 		.ascii	"chSemWaitTimeoutS\000"
 5056      6D576169 
 5056      7454696D 
 5056      656F7574 
 5056      5300
 5057              	.LASF71:
 5058 051e 6D5F6E65 		.ascii	"m_next\000"
 5058      787400
 5059              	.LASF20:
 5060 0525 73797374 		.ascii	"systime_t\000"
 5060      696D655F 
 5060      7400
 5061              	.LASF40:
 5062 052f 705F7265 		.ascii	"p_realprio\000"
 5062      616C7072 
 5062      696F00
 5063              	.LASF47:
 5064 053a 76746675 		.ascii	"vtfunc_t\000"
 5064      6E635F74 
 5064      00
 5065              	.LASF34:
 5066 0543 705F7469 		.ascii	"p_time\000"
 5066      6D6500
 5067              	.LASF112:
 5068 054a 63684D42 		.ascii	"chMBPostAhead\000"
 5068      506F7374 
 5068      41686561 
 5068      6400
 5069              	.LASF45:
 5070 0558 696E7463 		.ascii	"intctx\000"
 5070      747800
 5071              	.LASF36:
 5072 055f 705F6D73 		.ascii	"p_msgqueue\000"
 5072      67717565 
 5072      756500
 5073              	.LASF108:
 5074 056a 63684D42 		.ascii	"chMBFetch\000"
ARM GAS  /tmp/ccHILlsE.s 			page 94


 5074      46657463 
 5074      6800
 5075              	.LASF53:
 5076 0574 76745F70 		.ascii	"vt_par\000"
 5076      617200
 5077              	.LASF65:
 5078 057b 53656D61 		.ascii	"Semaphore\000"
 5078      70686F72 
 5078      6500
 5079              	.LASF76:
 5080 0585 6D625F66 		.ascii	"mb_fullsem\000"
 5080      756C6C73 
 5080      656D00
 5081              	.LASF92:
 5082 0590 63665F6F 		.ascii	"cf_off_ctx\000"
 5082      66665F63 
 5082      747800
 5083              	.LASF32:
 5084 059b 705F7265 		.ascii	"p_refs\000"
 5084      667300
 5085              	.LASF62:
 5086 05a2 52656164 		.ascii	"ReadyList\000"
 5086      794C6973 
 5086      7400
 5087              	.LASF121:
 5088 05ac 63685365 		.ascii	"chSemResetI\000"
 5088      6D526573 
 5088      65744900 
 5089              	.LASF64:
 5090 05b8 726C6973 		.ascii	"rlist\000"
 5090      7400
 5091              	.LASF6:
 5092 05be 75696E74 		.ascii	"uint8_t\000"
 5092      385F7400 
 5093              	.LASF81:
 5094 05c6 77746F62 		.ascii	"wtobjp\000"
 5094      6A7000
 5095              	.LASF29:
 5096 05cd 705F6E61 		.ascii	"p_name\000"
 5096      6D6500
 5097              	.LASF54:
 5098 05d4 76745F73 		.ascii	"vt_systime\000"
 5098      79737469 
 5098      6D6500
 5099              	.LASF87:
 5100 05df 63685F76 		.ascii	"ch_version\000"
 5100      65727369 
 5100      6F6E00
 5101              	.LASF55:
 5102 05ea 56544C69 		.ascii	"VTList\000"
 5102      737400
 5103              	.LASF70:
 5104 05f1 6D5F6F77 		.ascii	"m_owner\000"
 5104      6E657200 
 5105              	.LASF26:
 5106 05f9 705F6374 		.ascii	"p_ctx\000"
 5106      7800
ARM GAS  /tmp/ccHILlsE.s 			page 95


 5107              	.LASF35:
 5108 05ff 705F7761 		.ascii	"p_waiting\000"
 5108      6974696E 
 5108      6700
 5109              	.LASF122:
 5110 0609 63685365 		.ascii	"chSemInit\000"
 5110      6D496E69 
 5110      7400
 5111              		.ident	"GCC: (15:9-2019-q4-0ubuntu1) 9.2.1 20191025 (release) [ARM/arm-9-branch revision 277599]"
ARM GAS  /tmp/ccHILlsE.s 			page 96


DEFINED SYMBOLS
                            *ABS*:0000000000000000 chmboxes.c
     /tmp/ccHILlsE.s:16     .text.chMBInit:0000000000000000 $a
     /tmp/ccHILlsE.s:23     .text.chMBInit:0000000000000000 chMBInit
     /tmp/ccHILlsE.s:79     .text.chMBReset:0000000000000000 $a
     /tmp/ccHILlsE.s:85     .text.chMBReset:0000000000000000 chMBReset
     /tmp/ccHILlsE.s:152    .text.chMBPost:0000000000000000 $a
     /tmp/ccHILlsE.s:158    .text.chMBPost:0000000000000000 chMBPost
     /tmp/ccHILlsE.s:268    .text.chMBPostS:0000000000000000 $a
     /tmp/ccHILlsE.s:274    .text.chMBPostS:0000000000000000 chMBPostS
     /tmp/ccHILlsE.s:354    .text.chMBPostI:0000000000000000 $a
     /tmp/ccHILlsE.s:360    .text.chMBPostI:0000000000000000 chMBPostI
     /tmp/ccHILlsE.s:431    .text.chMBPostAhead:0000000000000000 $a
     /tmp/ccHILlsE.s:437    .text.chMBPostAhead:0000000000000000 chMBPostAhead
     /tmp/ccHILlsE.s:549    .text.chMBPostAheadS:0000000000000000 $a
     /tmp/ccHILlsE.s:555    .text.chMBPostAheadS:0000000000000000 chMBPostAheadS
     /tmp/ccHILlsE.s:637    .text.chMBPostAheadI:0000000000000000 $a
     /tmp/ccHILlsE.s:643    .text.chMBPostAheadI:0000000000000000 chMBPostAheadI
     /tmp/ccHILlsE.s:716    .text.chMBFetch:0000000000000000 $a
     /tmp/ccHILlsE.s:722    .text.chMBFetch:0000000000000000 chMBFetch
     /tmp/ccHILlsE.s:835    .text.chMBFetchS:0000000000000000 $a
     /tmp/ccHILlsE.s:841    .text.chMBFetchS:0000000000000000 chMBFetchS
     /tmp/ccHILlsE.s:924    .text.chMBFetchI:0000000000000000 $a
     /tmp/ccHILlsE.s:930    .text.chMBFetchI:0000000000000000 chMBFetchI

UNDEFINED SYMBOLS
chSemInit
chSemResetI
chSchRescheduleS
chSemWaitTimeoutS
chSemSignalI
