ARM GAS  /tmp/ccbfMh9b.s 			page 1


   1              		.cpu arm1176jz-s
   2              		.eabi_attribute 20, 1
   3              		.eabi_attribute 21, 1
   4              		.eabi_attribute 23, 3
   5              		.eabi_attribute 24, 1
   6              		.eabi_attribute 25, 1
   7              		.eabi_attribute 26, 1
   8              		.eabi_attribute 30, 2
   9              		.eabi_attribute 34, 1
  10              		.eabi_attribute 18, 4
  11              		.file	"chmemcore.c"
  12              		.text
  13              	.Ltext0:
  14              		.cfi_sections	.debug_frame
  15              		.section	.text._core_init,"ax",%progbits
  16              		.align	2
  17              		.global	_core_init
  18              		.arch armv6kz
  19              		.syntax unified
  20              		.arm
  21              		.fpu softvfp
  22              		.type	_core_init, %function
  23              	_core_init:
  24              	.LFB7:
  25              		.file 1 "../os/kernel/src/chmemcore.c"
  26              		.loc 1 59 23 view -0
  27              		.cfi_startproc
  28              		@ args = 0, pretend = 0, frame = 0
  29              		@ frame_needed = 0, uses_anonymous_args = 0
  30              		@ link register save eliminated.
  31              		.loc 1 61 3 view .LVU1
  32              		.loc 1 62 3 view .LVU2
  33              		.loc 1 63 3 view .LVU3
  34              		.loc 1 63 24 is_stmt 0 view .LVU4
  35 0000 1C209FE5 		ldr	r2, .L3
  36              		.loc 1 64 23 view .LVU5
  37 0004 1C309FE5 		ldr	r3, .L3+4
  38              		.loc 1 63 11 view .LVU6
  39 0008 1C009FE5 		ldr	r0, .L3+8
  40              		.loc 1 64 10 view .LVU7
  41 000c 1C109FE5 		ldr	r1, .L3+12
  42              		.loc 1 63 24 view .LVU8
  43 0010 0320C2E3 		bic	r2, r2, #3
  44              		.loc 1 64 23 view .LVU9
  45 0014 0330C3E3 		bic	r3, r3, #3
  46              		.loc 1 63 11 view .LVU10
  47 0018 002080E5 		str	r2, [r0]
  48              		.loc 1 64 3 is_stmt 1 view .LVU11
  49              		.loc 1 64 10 is_stmt 0 view .LVU12
  50 001c 003081E5 		str	r3, [r1]
  51              		.loc 1 70 1 view .LVU13
  52 0020 1EFF2FE1 		bx	lr
  53              	.L4:
  54              		.align	2
  55              	.L3:
  56 0024 03000000 		.word	__heap_base__+3
  57 0028 00000000 		.word	__heap_end__
ARM GAS  /tmp/ccbfMh9b.s 			page 2


  58 002c 00000000 		.word	.LANCHOR0
  59 0030 00000000 		.word	.LANCHOR1
  60              		.cfi_endproc
  61              	.LFE7:
  62              		.size	_core_init, .-_core_init
  63              		.section	.text.chCoreAlloc,"ax",%progbits
  64              		.align	2
  65              		.global	chCoreAlloc
  66              		.syntax unified
  67              		.arm
  68              		.fpu softvfp
  69              		.type	chCoreAlloc, %function
  70              	chCoreAlloc:
  71              	.LVL0:
  72              	.LFB8:
  73              		.loc 1 84 32 is_stmt 1 view -0
  74              		.cfi_startproc
  75              		@ args = 0, pretend = 0, frame = 0
  76              		@ frame_needed = 0, uses_anonymous_args = 0
  77              		@ link register save eliminated.
  78              		.loc 1 85 3 view .LVU15
  79              		.loc 1 87 3 view .LVU16
  80              		.loc 1 84 32 is_stmt 0 view .LVU17
  81 0000 0030A0E1 		mov	r3, r0
  82              		.loc 1 87 3 view .LVU18
  83              		.syntax divided
  84              	@ 87 "../os/kernel/src/chmemcore.c" 1
  85 0004 9FF021E3 		msr     CPSR_c, #0x9F
  86              	@ 0 "" 2
  87              		.loc 1 87 3 is_stmt 1 view .LVU19
  88              		.loc 1 87 14 view .LVU20
  89              		.loc 1 88 3 view .LVU21
  90              	.LVL1:
  91              		.arm
  92              		.syntax unified
  93              	.LBB4:
  94              	.LBI4:
  95              		.loc 1 105 7 view .LVU22
  96              	.LBB5:
  97              		.loc 1 106 3 view .LVU23
  98              		.loc 1 108 3 view .LVU24
  99              		.loc 1 108 21 view .LVU25
 100              		.loc 1 110 3 view .LVU26
 101              		.loc 1 111 23 is_stmt 0 view .LVU27
 102 0008 2C109FE5 		ldr	r1, .L8
 103 000c 2C209FE5 		ldr	r2, .L8+4
 104 0010 000091E5 		ldr	r0, [r1]
 105              	.LVL2:
 106              		.loc 1 111 23 view .LVU28
 107 0014 002092E5 		ldr	r2, [r2]
 108              		.loc 1 110 10 view .LVU29
 109 0018 033083E2 		add	r3, r3, #3
 110              	.LVL3:
 111              		.loc 1 110 8 view .LVU30
 112 001c 0330C3E3 		bic	r3, r3, #3
 113              	.LVL4:
 114              		.loc 1 111 3 is_stmt 1 view .LVU31
ARM GAS  /tmp/ccbfMh9b.s 			page 3


 115              		.loc 1 111 23 is_stmt 0 view .LVU32
 116 0020 002042E0 		sub	r2, r2, r0
 117              		.loc 1 111 6 view .LVU33
 118 0024 020053E1 		cmp	r3, r2
 119              		.loc 1 113 3 is_stmt 1 view .LVU34
 120              	.LVL5:
 121              		.loc 1 114 3 view .LVU35
 122              		.loc 1 114 11 is_stmt 0 view .LVU36
 123 0028 03308090 		addls	r3, r0, r3
 124              	.LVL6:
 125              		.loc 1 112 12 view .LVU37
 126 002c 0000A083 		movhi	r0, #0
 127              	.LVL7:
 128              		.loc 1 114 11 view .LVU38
 129 0030 00308195 		strls	r3, [r1]
 130              	.LVL8:
 131              		.loc 1 115 3 is_stmt 1 view .LVU39
 132              		.loc 1 115 3 is_stmt 0 view .LVU40
 133              	.LBE5:
 134              	.LBE4:
 135              		.loc 1 89 3 is_stmt 1 view .LVU41
 136              		.loc 1 89 3 view .LVU42
 137              		.syntax divided
 138              	@ 89 "../os/kernel/src/chmemcore.c" 1
 139 0034 1FF021E3 		msr     CPSR_c, #0x1F
 140              	@ 0 "" 2
 141              		.loc 1 89 16 view .LVU43
 142              		.loc 1 90 3 view .LVU44
 143              		.loc 1 91 1 is_stmt 0 view .LVU45
 144              		.arm
 145              		.syntax unified
 146 0038 1EFF2FE1 		bx	lr
 147              	.L9:
 148              		.align	2
 149              	.L8:
 150 003c 00000000 		.word	.LANCHOR0
 151 0040 00000000 		.word	.LANCHOR1
 152              		.cfi_endproc
 153              	.LFE8:
 154              		.size	chCoreAlloc, .-chCoreAlloc
 155              		.section	.text.chCoreAllocI,"ax",%progbits
 156              		.align	2
 157              		.global	chCoreAllocI
 158              		.syntax unified
 159              		.arm
 160              		.fpu softvfp
 161              		.type	chCoreAllocI, %function
 162              	chCoreAllocI:
 163              	.LVL9:
 164              	.LFB9:
 165              		.loc 1 105 33 is_stmt 1 view -0
 166              		.cfi_startproc
 167              		@ args = 0, pretend = 0, frame = 0
 168              		@ frame_needed = 0, uses_anonymous_args = 0
 169              		@ link register save eliminated.
 170              		.loc 1 106 3 view .LVU47
 171              		.loc 1 108 3 view .LVU48
ARM GAS  /tmp/ccbfMh9b.s 			page 4


 172              		.loc 1 108 21 view .LVU49
 173              		.loc 1 110 3 view .LVU50
 174              		.loc 1 105 33 is_stmt 0 view .LVU51
 175 0000 0030A0E1 		mov	r3, r0
 176              		.loc 1 111 23 view .LVU52
 177 0004 28109FE5 		ldr	r1, .L13
 178 0008 28209FE5 		ldr	r2, .L13+4
 179 000c 000091E5 		ldr	r0, [r1]
 180              	.LVL10:
 181              		.loc 1 111 23 view .LVU53
 182 0010 002092E5 		ldr	r2, [r2]
 183              		.loc 1 110 10 view .LVU54
 184 0014 033083E2 		add	r3, r3, #3
 185              	.LVL11:
 186              		.loc 1 110 8 view .LVU55
 187 0018 0330C3E3 		bic	r3, r3, #3
 188              	.LVL12:
 189              		.loc 1 111 3 is_stmt 1 view .LVU56
 190              		.loc 1 111 23 is_stmt 0 view .LVU57
 191 001c 002042E0 		sub	r2, r2, r0
 192              		.loc 1 111 6 view .LVU58
 193 0020 030052E1 		cmp	r2, r3
 194              		.loc 1 113 3 is_stmt 1 view .LVU59
 195              	.LVL13:
 196              		.loc 1 114 3 view .LVU60
 197              		.loc 1 114 11 is_stmt 0 view .LVU61
 198 0024 03308020 		addcs	r3, r0, r3
 199              	.LVL14:
 200              		.loc 1 114 11 view .LVU62
 201 0028 00308125 		strcs	r3, [r1]
 202              		.loc 1 115 3 is_stmt 1 view .LVU63
 203              		.loc 1 112 12 is_stmt 0 view .LVU64
 204 002c 0000A033 		movcc	r0, #0
 205              	.LVL15:
 206              		.loc 1 116 1 view .LVU65
 207 0030 1EFF2FE1 		bx	lr
 208              	.L14:
 209              		.align	2
 210              	.L13:
 211 0034 00000000 		.word	.LANCHOR0
 212 0038 00000000 		.word	.LANCHOR1
 213              		.cfi_endproc
 214              	.LFE9:
 215              		.size	chCoreAllocI, .-chCoreAllocI
 216              		.section	.text.chCoreStatus,"ax",%progbits
 217              		.align	2
 218              		.global	chCoreStatus
 219              		.syntax unified
 220              		.arm
 221              		.fpu softvfp
 222              		.type	chCoreStatus, %function
 223              	chCoreStatus:
 224              	.LFB10:
 225              		.loc 1 125 27 is_stmt 1 view -0
 226              		.cfi_startproc
 227              		@ args = 0, pretend = 0, frame = 0
 228              		@ frame_needed = 0, uses_anonymous_args = 0
ARM GAS  /tmp/ccbfMh9b.s 			page 5


 229              		@ link register save eliminated.
 230              		.loc 1 127 3 view .LVU67
 231              		.loc 1 127 26 is_stmt 0 view .LVU68
 232 0000 10209FE5 		ldr	r2, .L16
 233 0004 10309FE5 		ldr	r3, .L16+4
 234 0008 000092E5 		ldr	r0, [r2]
 235 000c 003093E5 		ldr	r3, [r3]
 236              		.loc 1 128 1 view .LVU69
 237 0010 030040E0 		sub	r0, r0, r3
 238 0014 1EFF2FE1 		bx	lr
 239              	.L17:
 240              		.align	2
 241              	.L16:
 242 0018 00000000 		.word	.LANCHOR1
 243 001c 00000000 		.word	.LANCHOR0
 244              		.cfi_endproc
 245              	.LFE10:
 246              		.size	chCoreStatus, .-chCoreStatus
 247              		.section	.bss.endmem,"aw",%nobits
 248              		.align	2
 249              		.set	.LANCHOR1,. + 0
 250              		.type	endmem, %object
 251              		.size	endmem, 4
 252              	endmem:
 253 0000 00000000 		.space	4
 254              		.section	.bss.nextmem,"aw",%nobits
 255              		.align	2
 256              		.set	.LANCHOR0,. + 0
 257              		.type	nextmem, %object
 258              		.size	nextmem, 4
 259              	nextmem:
 260 0000 00000000 		.space	4
 261              		.text
 262              	.Letext0:
 263              		.file 2 "/usr/lib/gcc/arm-none-eabi/9.2.1/include/stddef.h"
 264              		.file 3 "/usr/lib/gcc/arm-none-eabi/9.2.1/include/stdint.h"
 265              		.file 4 "../os/ports/GCC/ARM/chtypes.h"
 266              		.file 5 "../os/kernel/include/chlists.h"
 267              		.file 6 "../os/kernel/include/chthreads.h"
 268              		.file 7 "../os/ports/GCC/ARM/chcore.h"
 269              		.file 8 "../os/kernel/include/chvt.h"
 270              		.file 9 "../os/kernel/include/chschd.h"
 271              		.file 10 "../os/kernel/include/chmtx.h"
 272              		.file 11 "../os/kernel/include/chregistry.h"
 273              		.file 12 "../os/kernel/include/ch.h"
 274              		.section	.debug_info,"",%progbits
 275              	.Ldebug_info0:
 276 0000 81070000 		.4byte	0x781
 277 0004 0400     		.2byte	0x4
 278 0006 00000000 		.4byte	.Ldebug_abbrev0
 279 000a 04       		.byte	0x4
 280 000b 01       		.uleb128 0x1
 281 000c 13000000 		.4byte	.LASF99
 282 0010 0C       		.byte	0xc
 283 0011 7A010000 		.4byte	.LASF100
 284 0015 17040000 		.4byte	.LASF101
 285 0019 00000000 		.4byte	.Ldebug_ranges0+0
ARM GAS  /tmp/ccbfMh9b.s 			page 6


 286 001d 00000000 		.4byte	0
 287 0021 00000000 		.4byte	.Ldebug_line0
 288 0025 02       		.uleb128 0x2
 289 0026 04       		.byte	0x4
 290 0027 05       		.byte	0x5
 291 0028 696E7400 		.ascii	"int\000"
 292 002c 03       		.uleb128 0x3
 293 002d 19020000 		.4byte	.LASF3
 294 0031 02       		.byte	0x2
 295 0032 D1       		.byte	0xd1
 296 0033 17       		.byte	0x17
 297 0034 38000000 		.4byte	0x38
 298 0038 04       		.uleb128 0x4
 299 0039 04       		.byte	0x4
 300 003a 07       		.byte	0x7
 301 003b 20020000 		.4byte	.LASF0
 302 003f 04       		.uleb128 0x4
 303 0040 01       		.byte	0x1
 304 0041 06       		.byte	0x6
 305 0042 5E010000 		.4byte	.LASF1
 306 0046 04       		.uleb128 0x4
 307 0047 02       		.byte	0x2
 308 0048 05       		.byte	0x5
 309 0049 7A030000 		.4byte	.LASF2
 310 004d 03       		.uleb128 0x3
 311 004e 4F030000 		.4byte	.LASF4
 312 0052 03       		.byte	0x3
 313 0053 28       		.byte	0x28
 314 0054 18       		.byte	0x18
 315 0055 59000000 		.4byte	0x59
 316 0059 04       		.uleb128 0x4
 317 005a 04       		.byte	0x4
 318 005b 05       		.byte	0x5
 319 005c B6010000 		.4byte	.LASF5
 320 0060 04       		.uleb128 0x4
 321 0061 08       		.byte	0x8
 322 0062 05       		.byte	0x5
 323 0063 50010000 		.4byte	.LASF6
 324 0067 03       		.uleb128 0x3
 325 0068 04050000 		.4byte	.LASF7
 326 006c 03       		.byte	0x3
 327 006d 2E       		.byte	0x2e
 328 006e 18       		.byte	0x18
 329 006f 73000000 		.4byte	0x73
 330 0073 04       		.uleb128 0x4
 331 0074 01       		.byte	0x1
 332 0075 08       		.byte	0x8
 333 0076 57030000 		.4byte	.LASF8
 334 007a 03       		.uleb128 0x3
 335 007b C8010000 		.4byte	.LASF9
 336 007f 03       		.byte	0x3
 337 0080 31       		.byte	0x31
 338 0081 19       		.byte	0x19
 339 0082 86000000 		.4byte	0x86
 340 0086 04       		.uleb128 0x4
 341 0087 02       		.byte	0x2
 342 0088 07       		.byte	0x7
ARM GAS  /tmp/ccbfMh9b.s 			page 7


 343 0089 6B020000 		.4byte	.LASF10
 344 008d 03       		.uleb128 0x3
 345 008e ED030000 		.4byte	.LASF11
 346 0092 03       		.byte	0x3
 347 0093 34       		.byte	0x34
 348 0094 19       		.byte	0x19
 349 0095 99000000 		.4byte	0x99
 350 0099 04       		.uleb128 0x4
 351 009a 04       		.byte	0x4
 352 009b 07       		.byte	0x7
 353 009c 35020000 		.4byte	.LASF12
 354 00a0 04       		.uleb128 0x4
 355 00a1 08       		.byte	0x8
 356 00a2 07       		.byte	0x7
 357 00a3 01010000 		.4byte	.LASF13
 358 00a7 03       		.uleb128 0x3
 359 00a8 84020000 		.4byte	.LASF14
 360 00ac 04       		.byte	0x4
 361 00ad 2A       		.byte	0x2a
 362 00ae 19       		.byte	0x19
 363 00af 67000000 		.4byte	0x67
 364 00b3 03       		.uleb128 0x3
 365 00b4 BF010000 		.4byte	.LASF15
 366 00b8 04       		.byte	0x4
 367 00b9 2B       		.byte	0x2b
 368 00ba 19       		.byte	0x19
 369 00bb 67000000 		.4byte	0x67
 370 00bf 03       		.uleb128 0x3
 371 00c0 2D030000 		.4byte	.LASF16
 372 00c4 04       		.byte	0x4
 373 00c5 2C       		.byte	0x2c
 374 00c6 19       		.byte	0x19
 375 00c7 67000000 		.4byte	0x67
 376 00cb 03       		.uleb128 0x3
 377 00cc AC010000 		.4byte	.LASF17
 378 00d0 04       		.byte	0x4
 379 00d1 2D       		.byte	0x2d
 380 00d2 19       		.byte	0x19
 381 00d3 67000000 		.4byte	0x67
 382 00d7 03       		.uleb128 0x3
 383 00d8 47030000 		.4byte	.LASF18
 384 00dc 04       		.byte	0x4
 385 00dd 2E       		.byte	0x2e
 386 00de 19       		.byte	0x19
 387 00df 8D000000 		.4byte	0x8d
 388 00e3 03       		.uleb128 0x3
 389 00e4 7E020000 		.4byte	.LASF19
 390 00e8 04       		.byte	0x4
 391 00e9 2F       		.byte	0x2f
 392 00ea 19       		.byte	0x19
 393 00eb 4D000000 		.4byte	0x4d
 394 00ef 03       		.uleb128 0x3
 395 00f0 98020000 		.4byte	.LASF20
 396 00f4 04       		.byte	0x4
 397 00f5 31       		.byte	0x31
 398 00f6 19       		.byte	0x19
 399 00f7 8D000000 		.4byte	0x8d
ARM GAS  /tmp/ccbfMh9b.s 			page 8


 400 00fb 03       		.uleb128 0x3
 401 00fc 96040000 		.4byte	.LASF21
 402 0100 04       		.byte	0x4
 403 0101 33       		.byte	0x33
 404 0102 19       		.byte	0x19
 405 0103 8D000000 		.4byte	0x8d
 406 0107 05       		.uleb128 0x5
 407 0108 FB000000 		.4byte	0xfb
 408 010c 03       		.uleb128 0x3
 409 010d CE030000 		.4byte	.LASF22
 410 0111 05       		.byte	0x5
 411 0112 23       		.byte	0x23
 412 0113 17       		.byte	0x17
 413 0114 18010000 		.4byte	0x118
 414 0118 06       		.uleb128 0x6
 415 0119 CE030000 		.4byte	.LASF22
 416 011d 44       		.byte	0x44
 417 011e 06       		.byte	0x6
 418 011f 57       		.byte	0x57
 419 0120 08       		.byte	0x8
 420 0121 1D020000 		.4byte	0x21d
 421 0125 07       		.uleb128 0x7
 422 0126 B0030000 		.4byte	.LASF23
 423 012a 06       		.byte	0x6
 424 012b 58       		.byte	0x58
 425 012c 1A       		.byte	0x1a
 426 012d 41020000 		.4byte	0x241
 427 0131 00       		.byte	0
 428 0132 07       		.uleb128 0x7
 429 0133 40030000 		.4byte	.LASF24
 430 0137 06       		.byte	0x6
 431 0138 5A       		.byte	0x5a
 432 0139 1A       		.byte	0x1a
 433 013a 41020000 		.4byte	0x241
 434 013e 04       		.byte	0x4
 435 013f 07       		.uleb128 0x7
 436 0140 3C010000 		.4byte	.LASF25
 437 0144 06       		.byte	0x6
 438 0145 5C       		.byte	0x5c
 439 0146 19       		.byte	0x19
 440 0147 D7000000 		.4byte	0xd7
 441 014b 08       		.byte	0x8
 442 014c 07       		.uleb128 0x7
 443 014d 3F050000 		.4byte	.LASF26
 444 0151 06       		.byte	0x6
 445 0152 5D       		.byte	0x5d
 446 0153 19       		.byte	0x19
 447 0154 0C030000 		.4byte	0x30c
 448 0158 0C       		.byte	0xc
 449 0159 07       		.uleb128 0x7
 450 015a DB010000 		.4byte	.LASF27
 451 015e 06       		.byte	0x6
 452 015f 5F       		.byte	0x5f
 453 0160 1A       		.byte	0x1a
 454 0161 41020000 		.4byte	0x241
 455 0165 10       		.byte	0x10
 456 0166 07       		.uleb128 0x7
ARM GAS  /tmp/ccbfMh9b.s 			page 9


 457 0167 F8020000 		.4byte	.LASF28
 458 016b 06       		.byte	0x6
 459 016c 60       		.byte	0x60
 460 016d 1A       		.byte	0x1a
 461 016e 41020000 		.4byte	0x241
 462 0172 14       		.byte	0x14
 463 0173 07       		.uleb128 0x7
 464 0174 13050000 		.4byte	.LASF29
 465 0178 06       		.byte	0x6
 466 0179 67       		.byte	0x67
 467 017a 1A       		.byte	0x1a
 468 017b F2040000 		.4byte	0x4f2
 469 017f 18       		.byte	0x18
 470 0180 07       		.uleb128 0x7
 471 0181 84030000 		.4byte	.LASF30
 472 0185 06       		.byte	0x6
 473 0186 72       		.byte	0x72
 474 0187 19       		.byte	0x19
 475 0188 B3000000 		.4byte	0xb3
 476 018c 1C       		.byte	0x1c
 477 018d 07       		.uleb128 0x7
 478 018e C6030000 		.4byte	.LASF31
 479 0192 06       		.byte	0x6
 480 0193 76       		.byte	0x76
 481 0194 19       		.byte	0x19
 482 0195 A7000000 		.4byte	0xa7
 483 0199 1D       		.byte	0x1d
 484 019a 07       		.uleb128 0x7
 485 019b ED040000 		.4byte	.LASF32
 486 019f 06       		.byte	0x6
 487 01a0 7B       		.byte	0x7b
 488 01a1 19       		.byte	0x19
 489 01a2 BF000000 		.4byte	0xbf
 490 01a6 1E       		.byte	0x1e
 491 01a7 07       		.uleb128 0x7
 492 01a8 8C030000 		.4byte	.LASF33
 493 01ac 06       		.byte	0x6
 494 01ad 81       		.byte	0x81
 495 01ae 19       		.byte	0x19
 496 01af CB000000 		.4byte	0xcb
 497 01b3 1F       		.byte	0x1f
 498 01b4 07       		.uleb128 0x7
 499 01b5 B4040000 		.4byte	.LASF34
 500 01b9 06       		.byte	0x6
 501 01ba 88       		.byte	0x88
 502 01bb 19       		.byte	0x19
 503 01bc 07010000 		.4byte	0x107
 504 01c0 20       		.byte	0x20
 505 01c1 08       		.uleb128 0x8
 506 01c2 705F7500 		.ascii	"p_u\000"
 507 01c6 06       		.byte	0x6
 508 01c7 AD       		.byte	0xad
 509 01c8 19       		.byte	0x19
 510 01c9 B8040000 		.4byte	0x4b8
 511 01cd 24       		.byte	0x24
 512 01ce 07       		.uleb128 0x7
 513 01cf 45050000 		.4byte	.LASF35
ARM GAS  /tmp/ccbfMh9b.s 			page 10


 514 01d3 06       		.byte	0x6
 515 01d4 B2       		.byte	0xb2
 516 01d5 19       		.byte	0x19
 517 01d6 6A020000 		.4byte	0x26a
 518 01da 28       		.byte	0x28
 519 01db 07       		.uleb128 0x7
 520 01dc C2040000 		.4byte	.LASF36
 521 01e0 06       		.byte	0x6
 522 01e1 B8       		.byte	0xb8
 523 01e2 19       		.byte	0x19
 524 01e3 47020000 		.4byte	0x247
 525 01e7 2C       		.byte	0x2c
 526 01e8 07       		.uleb128 0x7
 527 01e9 0D000000 		.4byte	.LASF37
 528 01ed 06       		.byte	0x6
 529 01ee BC       		.byte	0xbc
 530 01ef 19       		.byte	0x19
 531 01f0 E3000000 		.4byte	0xe3
 532 01f4 34       		.byte	0x34
 533 01f5 07       		.uleb128 0x7
 534 01f6 E2030000 		.4byte	.LASF38
 535 01fa 06       		.byte	0x6
 536 01fb C2       		.byte	0xc2
 537 01fc 19       		.byte	0x19
 538 01fd EF000000 		.4byte	0xef
 539 0201 38       		.byte	0x38
 540 0202 07       		.uleb128 0x7
 541 0203 70030000 		.4byte	.LASF39
 542 0207 06       		.byte	0x6
 543 0208 C9       		.byte	0xc9
 544 0209 1A       		.byte	0x1a
 545 020a 04050000 		.4byte	0x504
 546 020e 3C       		.byte	0x3c
 547 020f 07       		.uleb128 0x7
 548 0210 A0040000 		.4byte	.LASF40
 549 0214 06       		.byte	0x6
 550 0215 CD       		.byte	0xcd
 551 0216 19       		.byte	0x19
 552 0217 D7000000 		.4byte	0xd7
 553 021b 40       		.byte	0x40
 554 021c 00       		.byte	0
 555 021d 09       		.uleb128 0x9
 556 021e 08       		.byte	0x8
 557 021f 05       		.byte	0x5
 558 0220 5A       		.byte	0x5a
 559 0221 09       		.byte	0x9
 560 0222 41020000 		.4byte	0x241
 561 0226 07       		.uleb128 0x7
 562 0227 B0030000 		.4byte	.LASF23
 563 022b 05       		.byte	0x5
 564 022c 5B       		.byte	0x5b
 565 022d 1A       		.byte	0x1a
 566 022e 41020000 		.4byte	0x241
 567 0232 00       		.byte	0
 568 0233 07       		.uleb128 0x7
 569 0234 40030000 		.4byte	.LASF24
 570 0238 05       		.byte	0x5
ARM GAS  /tmp/ccbfMh9b.s 			page 11


 571 0239 5D       		.byte	0x5d
 572 023a 1A       		.byte	0x1a
 573 023b 41020000 		.4byte	0x241
 574 023f 04       		.byte	0x4
 575 0240 00       		.byte	0
 576 0241 0A       		.uleb128 0xa
 577 0242 04       		.byte	0x4
 578 0243 0C010000 		.4byte	0x10c
 579 0247 03       		.uleb128 0x3
 580 0248 06030000 		.4byte	.LASF41
 581 024c 05       		.byte	0x5
 582 024d 5F       		.byte	0x5f
 583 024e 03       		.byte	0x3
 584 024f 1D020000 		.4byte	0x21d
 585 0253 09       		.uleb128 0x9
 586 0254 04       		.byte	0x4
 587 0255 05       		.byte	0x5
 588 0256 64       		.byte	0x64
 589 0257 09       		.byte	0x9
 590 0258 6A020000 		.4byte	0x26a
 591 025c 07       		.uleb128 0x7
 592 025d B0030000 		.4byte	.LASF23
 593 0261 05       		.byte	0x5
 594 0262 66       		.byte	0x66
 595 0263 16       		.byte	0x16
 596 0264 41020000 		.4byte	0x241
 597 0268 00       		.byte	0
 598 0269 00       		.byte	0
 599 026a 03       		.uleb128 0x3
 600 026b 8C020000 		.4byte	.LASF42
 601 026f 05       		.byte	0x5
 602 0270 69       		.byte	0x69
 603 0271 03       		.byte	0x3
 604 0272 53020000 		.4byte	0x253
 605 0276 03       		.uleb128 0x3
 606 0277 B1020000 		.4byte	.LASF43
 607 027b 07       		.byte	0x7
 608 027c 9D       		.byte	0x9d
 609 027d 12       		.byte	0x12
 610 027e 8D000000 		.4byte	0x8d
 611 0282 03       		.uleb128 0x3
 612 0283 08020000 		.4byte	.LASF44
 613 0287 07       		.byte	0x7
 614 0288 A2       		.byte	0xa2
 615 0289 0F       		.byte	0xf
 616 028a 8E020000 		.4byte	0x28e
 617 028e 0B       		.uleb128 0xb
 618 028f 04       		.byte	0x4
 619 0290 06       		.uleb128 0x6
 620 0291 BB040000 		.4byte	.LASF45
 621 0295 24       		.byte	0x24
 622 0296 07       		.byte	0x7
 623 0297 B9       		.byte	0xb9
 624 0298 08       		.byte	0x8
 625 0299 0C030000 		.4byte	0x30c
 626 029d 08       		.uleb128 0x8
 627 029e 723400   		.ascii	"r4\000"
ARM GAS  /tmp/ccbfMh9b.s 			page 12


 628 02a1 07       		.byte	0x7
 629 02a2 BA       		.byte	0xba
 630 02a3 11       		.byte	0x11
 631 02a4 82020000 		.4byte	0x282
 632 02a8 00       		.byte	0
 633 02a9 08       		.uleb128 0x8
 634 02aa 723500   		.ascii	"r5\000"
 635 02ad 07       		.byte	0x7
 636 02ae BB       		.byte	0xbb
 637 02af 11       		.byte	0x11
 638 02b0 82020000 		.4byte	0x282
 639 02b4 04       		.byte	0x4
 640 02b5 08       		.uleb128 0x8
 641 02b6 723600   		.ascii	"r6\000"
 642 02b9 07       		.byte	0x7
 643 02ba BC       		.byte	0xbc
 644 02bb 11       		.byte	0x11
 645 02bc 82020000 		.4byte	0x282
 646 02c0 08       		.byte	0x8
 647 02c1 08       		.uleb128 0x8
 648 02c2 723700   		.ascii	"r7\000"
 649 02c5 07       		.byte	0x7
 650 02c6 BD       		.byte	0xbd
 651 02c7 11       		.byte	0x11
 652 02c8 82020000 		.4byte	0x282
 653 02cc 0C       		.byte	0xc
 654 02cd 08       		.uleb128 0x8
 655 02ce 723800   		.ascii	"r8\000"
 656 02d1 07       		.byte	0x7
 657 02d2 BE       		.byte	0xbe
 658 02d3 11       		.byte	0x11
 659 02d4 82020000 		.4byte	0x282
 660 02d8 10       		.byte	0x10
 661 02d9 08       		.uleb128 0x8
 662 02da 723900   		.ascii	"r9\000"
 663 02dd 07       		.byte	0x7
 664 02de BF       		.byte	0xbf
 665 02df 11       		.byte	0x11
 666 02e0 82020000 		.4byte	0x282
 667 02e4 14       		.byte	0x14
 668 02e5 08       		.uleb128 0x8
 669 02e6 72313000 		.ascii	"r10\000"
 670 02ea 07       		.byte	0x7
 671 02eb C0       		.byte	0xc0
 672 02ec 11       		.byte	0x11
 673 02ed 82020000 		.4byte	0x282
 674 02f1 18       		.byte	0x18
 675 02f2 08       		.uleb128 0x8
 676 02f3 72313100 		.ascii	"r11\000"
 677 02f7 07       		.byte	0x7
 678 02f8 C1       		.byte	0xc1
 679 02f9 11       		.byte	0x11
 680 02fa 82020000 		.4byte	0x282
 681 02fe 1C       		.byte	0x1c
 682 02ff 08       		.uleb128 0x8
 683 0300 6C7200   		.ascii	"lr\000"
 684 0303 07       		.byte	0x7
ARM GAS  /tmp/ccbfMh9b.s 			page 13


 685 0304 C2       		.byte	0xc2
 686 0305 11       		.byte	0x11
 687 0306 82020000 		.4byte	0x282
 688 030a 20       		.byte	0x20
 689 030b 00       		.byte	0
 690 030c 06       		.uleb128 0x6
 691 030d 5E020000 		.4byte	.LASF46
 692 0311 04       		.byte	0x4
 693 0312 07       		.byte	0x7
 694 0313 CA       		.byte	0xca
 695 0314 08       		.byte	0x8
 696 0315 27030000 		.4byte	0x327
 697 0319 08       		.uleb128 0x8
 698 031a 72313300 		.ascii	"r13\000"
 699 031e 07       		.byte	0x7
 700 031f CB       		.byte	0xcb
 701 0320 12       		.byte	0x12
 702 0321 27030000 		.4byte	0x327
 703 0325 00       		.byte	0
 704 0326 00       		.byte	0
 705 0327 0A       		.uleb128 0xa
 706 0328 04       		.byte	0x4
 707 0329 90020000 		.4byte	0x290
 708 032d 03       		.uleb128 0x3
 709 032e AB040000 		.4byte	.LASF47
 710 0332 08       		.byte	0x8
 711 0333 4E       		.byte	0x4e
 712 0334 10       		.byte	0x10
 713 0335 39030000 		.4byte	0x339
 714 0339 0A       		.uleb128 0xa
 715 033a 04       		.byte	0x4
 716 033b 3F030000 		.4byte	0x33f
 717 033f 0C       		.uleb128 0xc
 718 0340 4A030000 		.4byte	0x34a
 719 0344 0D       		.uleb128 0xd
 720 0345 8E020000 		.4byte	0x28e
 721 0349 00       		.byte	0
 722 034a 03       		.uleb128 0x3
 723 034b 0A040000 		.4byte	.LASF48
 724 034f 08       		.byte	0x8
 725 0350 53       		.byte	0x53
 726 0351 1D       		.byte	0x1d
 727 0352 56030000 		.4byte	0x356
 728 0356 06       		.uleb128 0x6
 729 0357 0A040000 		.4byte	.LASF48
 730 035b 14       		.byte	0x14
 731 035c 08       		.byte	0x8
 732 035d 5A       		.byte	0x5a
 733 035e 08       		.byte	0x8
 734 035f A5030000 		.4byte	0x3a5
 735 0363 07       		.uleb128 0x7
 736 0364 2D020000 		.4byte	.LASF49
 737 0368 08       		.byte	0x8
 738 0369 5B       		.byte	0x5b
 739 036a 1A       		.byte	0x1a
 740 036b A5030000 		.4byte	0x3a5
 741 036f 00       		.byte	0
ARM GAS  /tmp/ccbfMh9b.s 			page 14


 742 0370 07       		.uleb128 0x7
 743 0371 11020000 		.4byte	.LASF50
 744 0375 08       		.byte	0x8
 745 0376 5D       		.byte	0x5d
 746 0377 1A       		.byte	0x1a
 747 0378 A5030000 		.4byte	0x3a5
 748 037c 04       		.byte	0x4
 749 037d 07       		.uleb128 0x7
 750 037e D0020000 		.4byte	.LASF51
 751 0382 08       		.byte	0x8
 752 0383 5F       		.byte	0x5f
 753 0384 19       		.byte	0x19
 754 0385 FB000000 		.4byte	0xfb
 755 0389 08       		.byte	0x8
 756 038a 07       		.uleb128 0x7
 757 038b D8020000 		.4byte	.LASF52
 758 038f 08       		.byte	0x8
 759 0390 60       		.byte	0x60
 760 0391 19       		.byte	0x19
 761 0392 2D030000 		.4byte	0x32d
 762 0396 0C       		.byte	0xc
 763 0397 07       		.uleb128 0x7
 764 0398 CD040000 		.4byte	.LASF53
 765 039c 08       		.byte	0x8
 766 039d 62       		.byte	0x62
 767 039e 1A       		.byte	0x1a
 768 039f 8E020000 		.4byte	0x28e
 769 03a3 10       		.byte	0x10
 770 03a4 00       		.byte	0
 771 03a5 0A       		.uleb128 0xa
 772 03a6 04       		.byte	0x4
 773 03a7 4A030000 		.4byte	0x34a
 774 03ab 09       		.uleb128 0x9
 775 03ac 10       		.byte	0x10
 776 03ad 08       		.byte	0x8
 777 03ae 6C       		.byte	0x6c
 778 03af 09       		.byte	0x9
 779 03b0 E9030000 		.4byte	0x3e9
 780 03b4 07       		.uleb128 0x7
 781 03b5 2D020000 		.4byte	.LASF49
 782 03b9 08       		.byte	0x8
 783 03ba 6D       		.byte	0x6d
 784 03bb 1A       		.byte	0x1a
 785 03bc A5030000 		.4byte	0x3a5
 786 03c0 00       		.byte	0
 787 03c1 07       		.uleb128 0x7
 788 03c2 11020000 		.4byte	.LASF50
 789 03c6 08       		.byte	0x8
 790 03c7 6F       		.byte	0x6f
 791 03c8 1A       		.byte	0x1a
 792 03c9 A5030000 		.4byte	0x3a5
 793 03cd 04       		.byte	0x4
 794 03ce 07       		.uleb128 0x7
 795 03cf D0020000 		.4byte	.LASF51
 796 03d3 08       		.byte	0x8
 797 03d4 71       		.byte	0x71
 798 03d5 19       		.byte	0x19
ARM GAS  /tmp/ccbfMh9b.s 			page 15


 799 03d6 FB000000 		.4byte	0xfb
 800 03da 08       		.byte	0x8
 801 03db 07       		.uleb128 0x7
 802 03dc 1A050000 		.4byte	.LASF54
 803 03e0 08       		.byte	0x8
 804 03e1 72       		.byte	0x72
 805 03e2 19       		.byte	0x19
 806 03e3 07010000 		.4byte	0x107
 807 03e7 0C       		.byte	0xc
 808 03e8 00       		.byte	0
 809 03e9 03       		.uleb128 0x3
 810 03ea 30050000 		.4byte	.LASF55
 811 03ee 08       		.byte	0x8
 812 03ef 73       		.byte	0x73
 813 03f0 03       		.byte	0x3
 814 03f1 AB030000 		.4byte	0x3ab
 815 03f5 0E       		.uleb128 0xe
 816 03f6 FA000000 		.4byte	.LASF63
 817 03fa 08       		.byte	0x8
 818 03fb D1       		.byte	0xd1
 819 03fc 0F       		.byte	0xf
 820 03fd E9030000 		.4byte	0x3e9
 821 0401 09       		.uleb128 0x9
 822 0402 1C       		.byte	0x1c
 823 0403 09       		.byte	0x9
 824 0404 57       		.byte	0x57
 825 0405 09       		.byte	0x9
 826 0406 59040000 		.4byte	0x459
 827 040a 07       		.uleb128 0x7
 828 040b 02040000 		.4byte	.LASF56
 829 040f 09       		.byte	0x9
 830 0410 58       		.byte	0x58
 831 0411 19       		.byte	0x19
 832 0412 47020000 		.4byte	0x247
 833 0416 00       		.byte	0
 834 0417 07       		.uleb128 0x7
 835 0418 A2030000 		.4byte	.LASF57
 836 041c 09       		.byte	0x9
 837 041d 59       		.byte	0x59
 838 041e 19       		.byte	0x19
 839 041f D7000000 		.4byte	0xd7
 840 0423 08       		.byte	0x8
 841 0424 07       		.uleb128 0x7
 842 0425 00030000 		.4byte	.LASF58
 843 0429 09       		.byte	0x9
 844 042a 5B       		.byte	0x5b
 845 042b 19       		.byte	0x19
 846 042c 0C030000 		.4byte	0x30c
 847 0430 0C       		.byte	0xc
 848 0431 07       		.uleb128 0x7
 849 0432 00020000 		.4byte	.LASF59
 850 0436 09       		.byte	0x9
 851 0437 5E       		.byte	0x5e
 852 0438 1A       		.byte	0x1a
 853 0439 41020000 		.4byte	0x241
 854 043d 10       		.byte	0x10
 855 043e 07       		.uleb128 0x7
ARM GAS  /tmp/ccbfMh9b.s 			page 16


 856 043f 25030000 		.4byte	.LASF60
 857 0443 09       		.byte	0x9
 858 0444 5F       		.byte	0x5f
 859 0445 1A       		.byte	0x1a
 860 0446 41020000 		.4byte	0x241
 861 044a 14       		.byte	0x14
 862 044b 07       		.uleb128 0x7
 863 044c 1B030000 		.4byte	.LASF61
 864 0450 09       		.byte	0x9
 865 0451 62       		.byte	0x62
 866 0452 1A       		.byte	0x1a
 867 0453 41020000 		.4byte	0x241
 868 0457 18       		.byte	0x18
 869 0458 00       		.byte	0
 870 0459 03       		.uleb128 0x3
 871 045a F4040000 		.4byte	.LASF62
 872 045e 09       		.byte	0x9
 873 045f 64       		.byte	0x64
 874 0460 03       		.byte	0x3
 875 0461 01040000 		.4byte	0x401
 876 0465 0E       		.uleb128 0xe
 877 0466 FE040000 		.4byte	.LASF64
 878 046a 09       		.byte	0x9
 879 046b 68       		.byte	0x68
 880 046c 12       		.byte	0x12
 881 046d 59040000 		.4byte	0x459
 882 0471 06       		.uleb128 0x6
 883 0472 AB020000 		.4byte	.LASF65
 884 0476 10       		.byte	0x10
 885 0477 0A       		.byte	0xa
 886 0478 25       		.byte	0x25
 887 0479 10       		.byte	0x10
 888 047a A6040000 		.4byte	0x4a6
 889 047e 07       		.uleb128 0x7
 890 047f A4010000 		.4byte	.LASF66
 891 0483 0A       		.byte	0xa
 892 0484 26       		.byte	0x26
 893 0485 19       		.byte	0x19
 894 0486 47020000 		.4byte	0x247
 895 048a 00       		.byte	0
 896 048b 07       		.uleb128 0x7
 897 048c 37050000 		.4byte	.LASF67
 898 0490 0A       		.byte	0xa
 899 0491 28       		.byte	0x28
 900 0492 1A       		.byte	0x1a
 901 0493 41020000 		.4byte	0x241
 902 0497 08       		.byte	0x8
 903 0498 07       		.uleb128 0x7
 904 0499 8F040000 		.4byte	.LASF68
 905 049d 0A       		.byte	0xa
 906 049e 2A       		.byte	0x2a
 907 049f 1A       		.byte	0x1a
 908 04a0 A6040000 		.4byte	0x4a6
 909 04a4 0C       		.byte	0xc
 910 04a5 00       		.byte	0
 911 04a6 0A       		.uleb128 0xa
 912 04a7 04       		.byte	0x4
ARM GAS  /tmp/ccbfMh9b.s 			page 17


 913 04a8 71040000 		.4byte	0x471
 914 04ac 03       		.uleb128 0x3
 915 04ad AB020000 		.4byte	.LASF65
 916 04b1 0A       		.byte	0xa
 917 04b2 2C       		.byte	0x2c
 918 04b3 03       		.byte	0x3
 919 04b4 71040000 		.4byte	0x471
 920 04b8 0F       		.uleb128 0xf
 921 04b9 04       		.byte	0x4
 922 04ba 06       		.byte	0x6
 923 04bb 8F       		.byte	0x8f
 924 04bc 03       		.byte	0x3
 925 04bd F2040000 		.4byte	0x4f2
 926 04c1 10       		.uleb128 0x10
 927 04c2 E7000000 		.4byte	.LASF69
 928 04c6 06       		.byte	0x6
 929 04c7 96       		.byte	0x96
 930 04c8 19       		.byte	0x19
 931 04c9 E3000000 		.4byte	0xe3
 932 04cd 10       		.uleb128 0x10
 933 04ce 26010000 		.4byte	.LASF70
 934 04d2 06       		.byte	0x6
 935 04d3 9D       		.byte	0x9d
 936 04d4 19       		.byte	0x19
 937 04d5 E3000000 		.4byte	0xe3
 938 04d9 10       		.uleb128 0x10
 939 04da 0C050000 		.4byte	.LASF71
 940 04de 06       		.byte	0x6
 941 04df A4       		.byte	0xa4
 942 04e0 1A       		.byte	0x1a
 943 04e1 8E020000 		.4byte	0x28e
 944 04e5 10       		.uleb128 0x10
 945 04e6 A9030000 		.4byte	.LASF72
 946 04ea 06       		.byte	0x6
 947 04eb AB       		.byte	0xab
 948 04ec 19       		.byte	0x19
 949 04ed EF000000 		.4byte	0xef
 950 04f1 00       		.byte	0
 951 04f2 0A       		.uleb128 0xa
 952 04f3 04       		.byte	0x4
 953 04f4 FF040000 		.4byte	0x4ff
 954 04f8 04       		.uleb128 0x4
 955 04f9 01       		.byte	0x1
 956 04fa 08       		.byte	0x8
 957 04fb 82040000 		.4byte	.LASF73
 958 04ff 11       		.uleb128 0x11
 959 0500 F8040000 		.4byte	0x4f8
 960 0504 0A       		.uleb128 0xa
 961 0505 04       		.byte	0x4
 962 0506 AC040000 		.4byte	0x4ac
 963 050a 09       		.uleb128 0x9
 964 050b 16       		.byte	0x16
 965 050c 0B       		.byte	0xb
 966 050d 25       		.byte	0x25
 967 050e 09       		.byte	0x9
 968 050f FE050000 		.4byte	0x5fe
 969 0513 07       		.uleb128 0x7
ARM GAS  /tmp/ccbfMh9b.s 			page 18


 970 0514 50020000 		.4byte	.LASF74
 971 0518 0B       		.byte	0xb
 972 0519 26       		.byte	0x26
 973 051a 0D       		.byte	0xd
 974 051b FE050000 		.4byte	0x5fe
 975 051f 00       		.byte	0
 976 0520 07       		.uleb128 0x7
 977 0521 BC020000 		.4byte	.LASF75
 978 0525 0B       		.byte	0xb
 979 0526 27       		.byte	0x27
 980 0527 0D       		.byte	0xd
 981 0528 67000000 		.4byte	0x67
 982 052c 04       		.byte	0x4
 983 052d 07       		.uleb128 0x7
 984 052e 13030000 		.4byte	.LASF76
 985 0532 0B       		.byte	0xb
 986 0533 28       		.byte	0x28
 987 0534 0D       		.byte	0xd
 988 0535 67000000 		.4byte	0x67
 989 0539 05       		.byte	0x5
 990 053a 07       		.uleb128 0x7
 991 053b 25050000 		.4byte	.LASF77
 992 053f 0B       		.byte	0xb
 993 0540 29       		.byte	0x29
 994 0541 0D       		.byte	0xd
 995 0542 7A000000 		.4byte	0x7a
 996 0546 06       		.byte	0x6
 997 0547 07       		.uleb128 0x7
 998 0548 35030000 		.4byte	.LASF78
 999 054c 0B       		.byte	0xb
 1000 054d 2A       		.byte	0x2a
 1001 054e 0D       		.byte	0xd
 1002 054f 67000000 		.4byte	0x67
 1003 0553 08       		.byte	0x8
 1004 0554 07       		.uleb128 0x7
 1005 0555 E0020000 		.4byte	.LASF79
 1006 0559 0B       		.byte	0xb
 1007 055a 2B       		.byte	0x2b
 1008 055b 0D       		.byte	0xd
 1009 055c 67000000 		.4byte	0x67
 1010 0560 09       		.byte	0x9
 1011 0561 07       		.uleb128 0x7
 1012 0562 18010000 		.4byte	.LASF80
 1013 0566 0B       		.byte	0xb
 1014 0567 2C       		.byte	0x2c
 1015 0568 0D       		.byte	0xd
 1016 0569 67000000 		.4byte	0x67
 1017 056d 0A       		.byte	0xa
 1018 056e 07       		.uleb128 0x7
 1019 056f F6030000 		.4byte	.LASF81
 1020 0573 0B       		.byte	0xb
 1021 0574 2D       		.byte	0x2d
 1022 0575 0D       		.byte	0xd
 1023 0576 67000000 		.4byte	0x67
 1024 057a 0B       		.byte	0xb
 1025 057b 07       		.uleb128 0x7
 1026 057c E2040000 		.4byte	.LASF82
ARM GAS  /tmp/ccbfMh9b.s 			page 19


 1027 0580 0B       		.byte	0xb
 1028 0581 2E       		.byte	0x2e
 1029 0582 0D       		.byte	0xd
 1030 0583 67000000 		.4byte	0x67
 1031 0587 0C       		.byte	0xc
 1032 0588 07       		.uleb128 0x7
 1033 0589 D5030000 		.4byte	.LASF83
 1034 058d 0B       		.byte	0xb
 1035 058e 2F       		.byte	0x2f
 1036 058f 0D       		.byte	0xd
 1037 0590 67000000 		.4byte	0x67
 1038 0594 0D       		.byte	0xd
 1039 0595 07       		.uleb128 0x7
 1040 0596 00000000 		.4byte	.LASF84
 1041 059a 0B       		.byte	0xb
 1042 059b 30       		.byte	0x30
 1043 059c 0D       		.byte	0xd
 1044 059d 67000000 		.4byte	0x67
 1045 05a1 0E       		.byte	0xe
 1046 05a2 07       		.uleb128 0x7
 1047 05a3 EC020000 		.4byte	.LASF85
 1048 05a7 0B       		.byte	0xb
 1049 05a8 31       		.byte	0x31
 1050 05a9 0D       		.byte	0xd
 1051 05aa 67000000 		.4byte	0x67
 1052 05ae 0F       		.byte	0xf
 1053 05af 07       		.uleb128 0x7
 1054 05b0 6A010000 		.4byte	.LASF86
 1055 05b4 0B       		.byte	0xb
 1056 05b5 32       		.byte	0x32
 1057 05b6 0D       		.byte	0xd
 1058 05b7 67000000 		.4byte	0x67
 1059 05bb 10       		.byte	0x10
 1060 05bc 07       		.uleb128 0x7
 1061 05bd 43010000 		.4byte	.LASF87
 1062 05c1 0B       		.byte	0xb
 1063 05c2 34       		.byte	0x34
 1064 05c3 0D       		.byte	0xd
 1065 05c4 67000000 		.4byte	0x67
 1066 05c8 11       		.byte	0x11
 1067 05c9 07       		.uleb128 0x7
 1068 05ca 97010000 		.4byte	.LASF88
 1069 05ce 0B       		.byte	0xb
 1070 05cf 35       		.byte	0x35
 1071 05d0 0D       		.byte	0xd
 1072 05d1 67000000 		.4byte	0x67
 1073 05d5 12       		.byte	0x12
 1074 05d6 07       		.uleb128 0x7
 1075 05d7 C4020000 		.4byte	.LASF89
 1076 05db 0B       		.byte	0xb
 1077 05dc 36       		.byte	0x36
 1078 05dd 0D       		.byte	0xd
 1079 05de 67000000 		.4byte	0x67
 1080 05e2 13       		.byte	0x13
 1081 05e3 07       		.uleb128 0x7
 1082 05e4 B7030000 		.4byte	.LASF90
 1083 05e8 0B       		.byte	0xb
ARM GAS  /tmp/ccbfMh9b.s 			page 20


 1084 05e9 37       		.byte	0x37
 1085 05ea 0D       		.byte	0xd
 1086 05eb 67000000 		.4byte	0x67
 1087 05ef 14       		.byte	0x14
 1088 05f0 07       		.uleb128 0x7
 1089 05f1 96030000 		.4byte	.LASF91
 1090 05f5 0B       		.byte	0xb
 1091 05f6 39       		.byte	0x39
 1092 05f7 0D       		.byte	0xd
 1093 05f8 67000000 		.4byte	0x67
 1094 05fc 15       		.byte	0x15
 1095 05fd 00       		.byte	0
 1096 05fe 12       		.uleb128 0x12
 1097 05ff F8040000 		.4byte	0x4f8
 1098 0603 0E060000 		.4byte	0x60e
 1099 0607 13       		.uleb128 0x13
 1100 0608 38000000 		.4byte	0x38
 1101 060c 03       		.byte	0x3
 1102 060d 00       		.byte	0
 1103 060e 03       		.uleb128 0x3
 1104 060f D1010000 		.4byte	.LASF92
 1105 0613 0B       		.byte	0xb
 1106 0614 3A       		.byte	0x3a
 1107 0615 03       		.byte	0x3
 1108 0616 0A050000 		.4byte	0x50a
 1109 061a 11       		.uleb128 0x11
 1110 061b 0E060000 		.4byte	0x60e
 1111 061f 0E       		.uleb128 0xe
 1112 0620 47020000 		.4byte	.LASF93
 1113 0624 0B       		.byte	0xb
 1114 0625 77       		.byte	0x77
 1115 0626 1D       		.byte	0x1d
 1116 0627 1A060000 		.4byte	0x61a
 1117 062b 0A       		.uleb128 0xa
 1118 062c 04       		.byte	0x4
 1119 062d 67000000 		.4byte	0x67
 1120 0631 12       		.uleb128 0x12
 1121 0632 76020000 		.4byte	0x276
 1122 0636 41060000 		.4byte	0x641
 1123 063a 13       		.uleb128 0x13
 1124 063b 38000000 		.4byte	0x38
 1125 063f 26       		.byte	0x26
 1126 0640 00       		.byte	0
 1127 0641 0E       		.uleb128 0xe
 1128 0642 E3010000 		.4byte	.LASF94
 1129 0646 0C       		.byte	0xc
 1130 0647 82       		.byte	0x82
 1131 0648 08       		.byte	0x8
 1132 0649 31060000 		.4byte	0x631
 1133 064d 14       		.uleb128 0x14
 1134 064e 87040000 		.4byte	.LASF95
 1135 0652 01       		.byte	0x1
 1136 0653 33       		.byte	0x33
 1137 0654 11       		.byte	0x11
 1138 0655 2B060000 		.4byte	0x62b
 1139 0659 05       		.uleb128 0x5
 1140 065a 03       		.byte	0x3
ARM GAS  /tmp/ccbfMh9b.s 			page 21


 1141 065b 00000000 		.4byte	nextmem
 1142 065f 14       		.uleb128 0x14
 1143 0660 A4020000 		.4byte	.LASF96
 1144 0664 01       		.byte	0x1
 1145 0665 34       		.byte	0x34
 1146 0666 11       		.byte	0x11
 1147 0667 2B060000 		.4byte	0x62b
 1148 066b 05       		.uleb128 0x5
 1149 066c 03       		.byte	0x3
 1150 066d 00000000 		.4byte	endmem
 1151 0671 15       		.uleb128 0x15
 1152 0672 75040000 		.4byte	.LASF102
 1153 0676 01       		.byte	0x1
 1154 0677 7D       		.byte	0x7d
 1155 0678 08       		.byte	0x8
 1156 0679 2C000000 		.4byte	0x2c
 1157 067d 00000000 		.4byte	.LFB10
 1158 0681 20000000 		.4byte	.LFE10-.LFB10
 1159 0685 01       		.uleb128 0x1
 1160 0686 9C       		.byte	0x9c
 1161 0687 16       		.uleb128 0x16
 1162 0688 F3010000 		.4byte	.LASF103
 1163 068c 01       		.byte	0x1
 1164 068d 69       		.byte	0x69
 1165 068e 07       		.byte	0x7
 1166 068f 8E020000 		.4byte	0x28e
 1167 0693 01       		.byte	0x1
 1168 0694 AF060000 		.4byte	0x6af
 1169 0698 17       		.uleb128 0x17
 1170 0699 66020000 		.4byte	.LASF104
 1171 069d 01       		.byte	0x1
 1172 069e 69       		.byte	0x69
 1173 069f 1B       		.byte	0x1b
 1174 06a0 2C000000 		.4byte	0x2c
 1175 06a4 18       		.uleb128 0x18
 1176 06a5 7000     		.ascii	"p\000"
 1177 06a7 01       		.byte	0x1
 1178 06a8 6A       		.byte	0x6a
 1179 06a9 09       		.byte	0x9
 1180 06aa 8E020000 		.4byte	0x28e
 1181 06ae 00       		.byte	0
 1182 06af 19       		.uleb128 0x19
 1183 06b0 EE000000 		.4byte	.LASF105
 1184 06b4 01       		.byte	0x1
 1185 06b5 54       		.byte	0x54
 1186 06b6 07       		.byte	0x7
 1187 06b7 8E020000 		.4byte	0x28e
 1188 06bb 00000000 		.4byte	.LFB8
 1189 06bf 44000000 		.4byte	.LFE8-.LFB8
 1190 06c3 01       		.uleb128 0x1
 1191 06c4 9C       		.byte	0x9c
 1192 06c5 20070000 		.4byte	0x720
 1193 06c9 1A       		.uleb128 0x1a
 1194 06ca 66020000 		.4byte	.LASF104
 1195 06ce 01       		.byte	0x1
 1196 06cf 54       		.byte	0x54
 1197 06d0 1A       		.byte	0x1a
ARM GAS  /tmp/ccbfMh9b.s 			page 22


 1198 06d1 2C000000 		.4byte	0x2c
 1199 06d5 08000000 		.4byte	.LLST0
 1200 06d9 00000000 		.4byte	.LVUS0
 1201 06dd 1B       		.uleb128 0x1b
 1202 06de 7000     		.ascii	"p\000"
 1203 06e0 01       		.byte	0x1
 1204 06e1 55       		.byte	0x55
 1205 06e2 09       		.byte	0x9
 1206 06e3 8E020000 		.4byte	0x28e
 1207 06e7 43000000 		.4byte	.LLST1
 1208 06eb 41000000 		.4byte	.LVUS1
 1209 06ef 1C       		.uleb128 0x1c
 1210 06f0 87060000 		.4byte	0x687
 1211 06f4 08000000 		.4byte	.LBI4
 1212 06f8 03       		.byte	.LVU22
 1213 06f9 08000000 		.4byte	.LBB4
 1214 06fd 2C000000 		.4byte	.LBE4-.LBB4
 1215 0701 01       		.byte	0x1
 1216 0702 58       		.byte	0x58
 1217 0703 07       		.byte	0x7
 1218 0704 1D       		.uleb128 0x1d
 1219 0705 98060000 		.4byte	0x698
 1220 0709 60000000 		.4byte	.LLST2
 1221 070d 56000000 		.4byte	.LVUS2
 1222 0711 1E       		.uleb128 0x1e
 1223 0712 A4060000 		.4byte	0x6a4
 1224 0716 AD000000 		.4byte	.LLST3
 1225 071a A9000000 		.4byte	.LVUS3
 1226 071e 00       		.byte	0
 1227 071f 00       		.byte	0
 1228 0720 1F       		.uleb128 0x1f
 1229 0721 65030000 		.4byte	.LASF106
 1230 0725 01       		.byte	0x1
 1231 0726 3B       		.byte	0x3b
 1232 0727 06       		.byte	0x6
 1233 0728 00000000 		.4byte	.LFB7
 1234 072c 34000000 		.4byte	.LFE7-.LFB7
 1235 0730 01       		.uleb128 0x1
 1236 0731 9C       		.byte	0x9c
 1237 0732 4F070000 		.4byte	0x74f
 1238 0736 0E       		.uleb128 0xe
 1239 0737 D4040000 		.4byte	.LASF97
 1240 073b 01       		.byte	0x1
 1241 073c 3D       		.byte	0x3d
 1242 073d 12       		.byte	0x12
 1243 073e 4F070000 		.4byte	0x74f
 1244 0742 0E       		.uleb128 0xe
 1245 0743 2F010000 		.4byte	.LASF98
 1246 0747 01       		.byte	0x1
 1247 0748 3E       		.byte	0x3e
 1248 0749 12       		.byte	0x12
 1249 074a 4F070000 		.4byte	0x74f
 1250 074e 00       		.byte	0
 1251 074f 12       		.uleb128 0x12
 1252 0750 67000000 		.4byte	0x67
 1253 0754 5A070000 		.4byte	0x75a
 1254 0758 20       		.uleb128 0x20
ARM GAS  /tmp/ccbfMh9b.s 			page 23


 1255 0759 00       		.byte	0
 1256 075a 21       		.uleb128 0x21
 1257 075b 87060000 		.4byte	0x687
 1258 075f 00000000 		.4byte	.LFB9
 1259 0763 3C000000 		.4byte	.LFE9-.LFB9
 1260 0767 01       		.uleb128 0x1
 1261 0768 9C       		.byte	0x9c
 1262 0769 1D       		.uleb128 0x1d
 1263 076a 98060000 		.4byte	0x698
 1264 076e D9000000 		.4byte	.LLST4
 1265 0772 CF000000 		.4byte	.LVUS4
 1266 0776 1E       		.uleb128 0x1e
 1267 0777 A4060000 		.4byte	0x6a4
 1268 077b 24010000 		.4byte	.LLST5
 1269 077f 22010000 		.4byte	.LVUS5
 1270 0783 00       		.byte	0
 1271 0784 00       		.byte	0
 1272              		.section	.debug_abbrev,"",%progbits
 1273              	.Ldebug_abbrev0:
 1274 0000 01       		.uleb128 0x1
 1275 0001 11       		.uleb128 0x11
 1276 0002 01       		.byte	0x1
 1277 0003 25       		.uleb128 0x25
 1278 0004 0E       		.uleb128 0xe
 1279 0005 13       		.uleb128 0x13
 1280 0006 0B       		.uleb128 0xb
 1281 0007 03       		.uleb128 0x3
 1282 0008 0E       		.uleb128 0xe
 1283 0009 1B       		.uleb128 0x1b
 1284 000a 0E       		.uleb128 0xe
 1285 000b 55       		.uleb128 0x55
 1286 000c 17       		.uleb128 0x17
 1287 000d 11       		.uleb128 0x11
 1288 000e 01       		.uleb128 0x1
 1289 000f 10       		.uleb128 0x10
 1290 0010 17       		.uleb128 0x17
 1291 0011 00       		.byte	0
 1292 0012 00       		.byte	0
 1293 0013 02       		.uleb128 0x2
 1294 0014 24       		.uleb128 0x24
 1295 0015 00       		.byte	0
 1296 0016 0B       		.uleb128 0xb
 1297 0017 0B       		.uleb128 0xb
 1298 0018 3E       		.uleb128 0x3e
 1299 0019 0B       		.uleb128 0xb
 1300 001a 03       		.uleb128 0x3
 1301 001b 08       		.uleb128 0x8
 1302 001c 00       		.byte	0
 1303 001d 00       		.byte	0
 1304 001e 03       		.uleb128 0x3
 1305 001f 16       		.uleb128 0x16
 1306 0020 00       		.byte	0
 1307 0021 03       		.uleb128 0x3
 1308 0022 0E       		.uleb128 0xe
 1309 0023 3A       		.uleb128 0x3a
 1310 0024 0B       		.uleb128 0xb
 1311 0025 3B       		.uleb128 0x3b
ARM GAS  /tmp/ccbfMh9b.s 			page 24


 1312 0026 0B       		.uleb128 0xb
 1313 0027 39       		.uleb128 0x39
 1314 0028 0B       		.uleb128 0xb
 1315 0029 49       		.uleb128 0x49
 1316 002a 13       		.uleb128 0x13
 1317 002b 00       		.byte	0
 1318 002c 00       		.byte	0
 1319 002d 04       		.uleb128 0x4
 1320 002e 24       		.uleb128 0x24
 1321 002f 00       		.byte	0
 1322 0030 0B       		.uleb128 0xb
 1323 0031 0B       		.uleb128 0xb
 1324 0032 3E       		.uleb128 0x3e
 1325 0033 0B       		.uleb128 0xb
 1326 0034 03       		.uleb128 0x3
 1327 0035 0E       		.uleb128 0xe
 1328 0036 00       		.byte	0
 1329 0037 00       		.byte	0
 1330 0038 05       		.uleb128 0x5
 1331 0039 35       		.uleb128 0x35
 1332 003a 00       		.byte	0
 1333 003b 49       		.uleb128 0x49
 1334 003c 13       		.uleb128 0x13
 1335 003d 00       		.byte	0
 1336 003e 00       		.byte	0
 1337 003f 06       		.uleb128 0x6
 1338 0040 13       		.uleb128 0x13
 1339 0041 01       		.byte	0x1
 1340 0042 03       		.uleb128 0x3
 1341 0043 0E       		.uleb128 0xe
 1342 0044 0B       		.uleb128 0xb
 1343 0045 0B       		.uleb128 0xb
 1344 0046 3A       		.uleb128 0x3a
 1345 0047 0B       		.uleb128 0xb
 1346 0048 3B       		.uleb128 0x3b
 1347 0049 0B       		.uleb128 0xb
 1348 004a 39       		.uleb128 0x39
 1349 004b 0B       		.uleb128 0xb
 1350 004c 01       		.uleb128 0x1
 1351 004d 13       		.uleb128 0x13
 1352 004e 00       		.byte	0
 1353 004f 00       		.byte	0
 1354 0050 07       		.uleb128 0x7
 1355 0051 0D       		.uleb128 0xd
 1356 0052 00       		.byte	0
 1357 0053 03       		.uleb128 0x3
 1358 0054 0E       		.uleb128 0xe
 1359 0055 3A       		.uleb128 0x3a
 1360 0056 0B       		.uleb128 0xb
 1361 0057 3B       		.uleb128 0x3b
 1362 0058 0B       		.uleb128 0xb
 1363 0059 39       		.uleb128 0x39
 1364 005a 0B       		.uleb128 0xb
 1365 005b 49       		.uleb128 0x49
 1366 005c 13       		.uleb128 0x13
 1367 005d 38       		.uleb128 0x38
 1368 005e 0B       		.uleb128 0xb
ARM GAS  /tmp/ccbfMh9b.s 			page 25


 1369 005f 00       		.byte	0
 1370 0060 00       		.byte	0
 1371 0061 08       		.uleb128 0x8
 1372 0062 0D       		.uleb128 0xd
 1373 0063 00       		.byte	0
 1374 0064 03       		.uleb128 0x3
 1375 0065 08       		.uleb128 0x8
 1376 0066 3A       		.uleb128 0x3a
 1377 0067 0B       		.uleb128 0xb
 1378 0068 3B       		.uleb128 0x3b
 1379 0069 0B       		.uleb128 0xb
 1380 006a 39       		.uleb128 0x39
 1381 006b 0B       		.uleb128 0xb
 1382 006c 49       		.uleb128 0x49
 1383 006d 13       		.uleb128 0x13
 1384 006e 38       		.uleb128 0x38
 1385 006f 0B       		.uleb128 0xb
 1386 0070 00       		.byte	0
 1387 0071 00       		.byte	0
 1388 0072 09       		.uleb128 0x9
 1389 0073 13       		.uleb128 0x13
 1390 0074 01       		.byte	0x1
 1391 0075 0B       		.uleb128 0xb
 1392 0076 0B       		.uleb128 0xb
 1393 0077 3A       		.uleb128 0x3a
 1394 0078 0B       		.uleb128 0xb
 1395 0079 3B       		.uleb128 0x3b
 1396 007a 0B       		.uleb128 0xb
 1397 007b 39       		.uleb128 0x39
 1398 007c 0B       		.uleb128 0xb
 1399 007d 01       		.uleb128 0x1
 1400 007e 13       		.uleb128 0x13
 1401 007f 00       		.byte	0
 1402 0080 00       		.byte	0
 1403 0081 0A       		.uleb128 0xa
 1404 0082 0F       		.uleb128 0xf
 1405 0083 00       		.byte	0
 1406 0084 0B       		.uleb128 0xb
 1407 0085 0B       		.uleb128 0xb
 1408 0086 49       		.uleb128 0x49
 1409 0087 13       		.uleb128 0x13
 1410 0088 00       		.byte	0
 1411 0089 00       		.byte	0
 1412 008a 0B       		.uleb128 0xb
 1413 008b 0F       		.uleb128 0xf
 1414 008c 00       		.byte	0
 1415 008d 0B       		.uleb128 0xb
 1416 008e 0B       		.uleb128 0xb
 1417 008f 00       		.byte	0
 1418 0090 00       		.byte	0
 1419 0091 0C       		.uleb128 0xc
 1420 0092 15       		.uleb128 0x15
 1421 0093 01       		.byte	0x1
 1422 0094 27       		.uleb128 0x27
 1423 0095 19       		.uleb128 0x19
 1424 0096 01       		.uleb128 0x1
 1425 0097 13       		.uleb128 0x13
ARM GAS  /tmp/ccbfMh9b.s 			page 26


 1426 0098 00       		.byte	0
 1427 0099 00       		.byte	0
 1428 009a 0D       		.uleb128 0xd
 1429 009b 05       		.uleb128 0x5
 1430 009c 00       		.byte	0
 1431 009d 49       		.uleb128 0x49
 1432 009e 13       		.uleb128 0x13
 1433 009f 00       		.byte	0
 1434 00a0 00       		.byte	0
 1435 00a1 0E       		.uleb128 0xe
 1436 00a2 34       		.uleb128 0x34
 1437 00a3 00       		.byte	0
 1438 00a4 03       		.uleb128 0x3
 1439 00a5 0E       		.uleb128 0xe
 1440 00a6 3A       		.uleb128 0x3a
 1441 00a7 0B       		.uleb128 0xb
 1442 00a8 3B       		.uleb128 0x3b
 1443 00a9 0B       		.uleb128 0xb
 1444 00aa 39       		.uleb128 0x39
 1445 00ab 0B       		.uleb128 0xb
 1446 00ac 49       		.uleb128 0x49
 1447 00ad 13       		.uleb128 0x13
 1448 00ae 3F       		.uleb128 0x3f
 1449 00af 19       		.uleb128 0x19
 1450 00b0 3C       		.uleb128 0x3c
 1451 00b1 19       		.uleb128 0x19
 1452 00b2 00       		.byte	0
 1453 00b3 00       		.byte	0
 1454 00b4 0F       		.uleb128 0xf
 1455 00b5 17       		.uleb128 0x17
 1456 00b6 01       		.byte	0x1
 1457 00b7 0B       		.uleb128 0xb
 1458 00b8 0B       		.uleb128 0xb
 1459 00b9 3A       		.uleb128 0x3a
 1460 00ba 0B       		.uleb128 0xb
 1461 00bb 3B       		.uleb128 0x3b
 1462 00bc 0B       		.uleb128 0xb
 1463 00bd 39       		.uleb128 0x39
 1464 00be 0B       		.uleb128 0xb
 1465 00bf 01       		.uleb128 0x1
 1466 00c0 13       		.uleb128 0x13
 1467 00c1 00       		.byte	0
 1468 00c2 00       		.byte	0
 1469 00c3 10       		.uleb128 0x10
 1470 00c4 0D       		.uleb128 0xd
 1471 00c5 00       		.byte	0
 1472 00c6 03       		.uleb128 0x3
 1473 00c7 0E       		.uleb128 0xe
 1474 00c8 3A       		.uleb128 0x3a
 1475 00c9 0B       		.uleb128 0xb
 1476 00ca 3B       		.uleb128 0x3b
 1477 00cb 0B       		.uleb128 0xb
 1478 00cc 39       		.uleb128 0x39
 1479 00cd 0B       		.uleb128 0xb
 1480 00ce 49       		.uleb128 0x49
 1481 00cf 13       		.uleb128 0x13
 1482 00d0 00       		.byte	0
ARM GAS  /tmp/ccbfMh9b.s 			page 27


 1483 00d1 00       		.byte	0
 1484 00d2 11       		.uleb128 0x11
 1485 00d3 26       		.uleb128 0x26
 1486 00d4 00       		.byte	0
 1487 00d5 49       		.uleb128 0x49
 1488 00d6 13       		.uleb128 0x13
 1489 00d7 00       		.byte	0
 1490 00d8 00       		.byte	0
 1491 00d9 12       		.uleb128 0x12
 1492 00da 01       		.uleb128 0x1
 1493 00db 01       		.byte	0x1
 1494 00dc 49       		.uleb128 0x49
 1495 00dd 13       		.uleb128 0x13
 1496 00de 01       		.uleb128 0x1
 1497 00df 13       		.uleb128 0x13
 1498 00e0 00       		.byte	0
 1499 00e1 00       		.byte	0
 1500 00e2 13       		.uleb128 0x13
 1501 00e3 21       		.uleb128 0x21
 1502 00e4 00       		.byte	0
 1503 00e5 49       		.uleb128 0x49
 1504 00e6 13       		.uleb128 0x13
 1505 00e7 2F       		.uleb128 0x2f
 1506 00e8 0B       		.uleb128 0xb
 1507 00e9 00       		.byte	0
 1508 00ea 00       		.byte	0
 1509 00eb 14       		.uleb128 0x14
 1510 00ec 34       		.uleb128 0x34
 1511 00ed 00       		.byte	0
 1512 00ee 03       		.uleb128 0x3
 1513 00ef 0E       		.uleb128 0xe
 1514 00f0 3A       		.uleb128 0x3a
 1515 00f1 0B       		.uleb128 0xb
 1516 00f2 3B       		.uleb128 0x3b
 1517 00f3 0B       		.uleb128 0xb
 1518 00f4 39       		.uleb128 0x39
 1519 00f5 0B       		.uleb128 0xb
 1520 00f6 49       		.uleb128 0x49
 1521 00f7 13       		.uleb128 0x13
 1522 00f8 02       		.uleb128 0x2
 1523 00f9 18       		.uleb128 0x18
 1524 00fa 00       		.byte	0
 1525 00fb 00       		.byte	0
 1526 00fc 15       		.uleb128 0x15
 1527 00fd 2E       		.uleb128 0x2e
 1528 00fe 00       		.byte	0
 1529 00ff 3F       		.uleb128 0x3f
 1530 0100 19       		.uleb128 0x19
 1531 0101 03       		.uleb128 0x3
 1532 0102 0E       		.uleb128 0xe
 1533 0103 3A       		.uleb128 0x3a
 1534 0104 0B       		.uleb128 0xb
 1535 0105 3B       		.uleb128 0x3b
 1536 0106 0B       		.uleb128 0xb
 1537 0107 39       		.uleb128 0x39
 1538 0108 0B       		.uleb128 0xb
 1539 0109 27       		.uleb128 0x27
ARM GAS  /tmp/ccbfMh9b.s 			page 28


 1540 010a 19       		.uleb128 0x19
 1541 010b 49       		.uleb128 0x49
 1542 010c 13       		.uleb128 0x13
 1543 010d 11       		.uleb128 0x11
 1544 010e 01       		.uleb128 0x1
 1545 010f 12       		.uleb128 0x12
 1546 0110 06       		.uleb128 0x6
 1547 0111 40       		.uleb128 0x40
 1548 0112 18       		.uleb128 0x18
 1549 0113 9742     		.uleb128 0x2117
 1550 0115 19       		.uleb128 0x19
 1551 0116 00       		.byte	0
 1552 0117 00       		.byte	0
 1553 0118 16       		.uleb128 0x16
 1554 0119 2E       		.uleb128 0x2e
 1555 011a 01       		.byte	0x1
 1556 011b 3F       		.uleb128 0x3f
 1557 011c 19       		.uleb128 0x19
 1558 011d 03       		.uleb128 0x3
 1559 011e 0E       		.uleb128 0xe
 1560 011f 3A       		.uleb128 0x3a
 1561 0120 0B       		.uleb128 0xb
 1562 0121 3B       		.uleb128 0x3b
 1563 0122 0B       		.uleb128 0xb
 1564 0123 39       		.uleb128 0x39
 1565 0124 0B       		.uleb128 0xb
 1566 0125 27       		.uleb128 0x27
 1567 0126 19       		.uleb128 0x19
 1568 0127 49       		.uleb128 0x49
 1569 0128 13       		.uleb128 0x13
 1570 0129 20       		.uleb128 0x20
 1571 012a 0B       		.uleb128 0xb
 1572 012b 01       		.uleb128 0x1
 1573 012c 13       		.uleb128 0x13
 1574 012d 00       		.byte	0
 1575 012e 00       		.byte	0
 1576 012f 17       		.uleb128 0x17
 1577 0130 05       		.uleb128 0x5
 1578 0131 00       		.byte	0
 1579 0132 03       		.uleb128 0x3
 1580 0133 0E       		.uleb128 0xe
 1581 0134 3A       		.uleb128 0x3a
 1582 0135 0B       		.uleb128 0xb
 1583 0136 3B       		.uleb128 0x3b
 1584 0137 0B       		.uleb128 0xb
 1585 0138 39       		.uleb128 0x39
 1586 0139 0B       		.uleb128 0xb
 1587 013a 49       		.uleb128 0x49
 1588 013b 13       		.uleb128 0x13
 1589 013c 00       		.byte	0
 1590 013d 00       		.byte	0
 1591 013e 18       		.uleb128 0x18
 1592 013f 34       		.uleb128 0x34
 1593 0140 00       		.byte	0
 1594 0141 03       		.uleb128 0x3
 1595 0142 08       		.uleb128 0x8
 1596 0143 3A       		.uleb128 0x3a
ARM GAS  /tmp/ccbfMh9b.s 			page 29


 1597 0144 0B       		.uleb128 0xb
 1598 0145 3B       		.uleb128 0x3b
 1599 0146 0B       		.uleb128 0xb
 1600 0147 39       		.uleb128 0x39
 1601 0148 0B       		.uleb128 0xb
 1602 0149 49       		.uleb128 0x49
 1603 014a 13       		.uleb128 0x13
 1604 014b 00       		.byte	0
 1605 014c 00       		.byte	0
 1606 014d 19       		.uleb128 0x19
 1607 014e 2E       		.uleb128 0x2e
 1608 014f 01       		.byte	0x1
 1609 0150 3F       		.uleb128 0x3f
 1610 0151 19       		.uleb128 0x19
 1611 0152 03       		.uleb128 0x3
 1612 0153 0E       		.uleb128 0xe
 1613 0154 3A       		.uleb128 0x3a
 1614 0155 0B       		.uleb128 0xb
 1615 0156 3B       		.uleb128 0x3b
 1616 0157 0B       		.uleb128 0xb
 1617 0158 39       		.uleb128 0x39
 1618 0159 0B       		.uleb128 0xb
 1619 015a 27       		.uleb128 0x27
 1620 015b 19       		.uleb128 0x19
 1621 015c 49       		.uleb128 0x49
 1622 015d 13       		.uleb128 0x13
 1623 015e 11       		.uleb128 0x11
 1624 015f 01       		.uleb128 0x1
 1625 0160 12       		.uleb128 0x12
 1626 0161 06       		.uleb128 0x6
 1627 0162 40       		.uleb128 0x40
 1628 0163 18       		.uleb128 0x18
 1629 0164 9742     		.uleb128 0x2117
 1630 0166 19       		.uleb128 0x19
 1631 0167 01       		.uleb128 0x1
 1632 0168 13       		.uleb128 0x13
 1633 0169 00       		.byte	0
 1634 016a 00       		.byte	0
 1635 016b 1A       		.uleb128 0x1a
 1636 016c 05       		.uleb128 0x5
 1637 016d 00       		.byte	0
 1638 016e 03       		.uleb128 0x3
 1639 016f 0E       		.uleb128 0xe
 1640 0170 3A       		.uleb128 0x3a
 1641 0171 0B       		.uleb128 0xb
 1642 0172 3B       		.uleb128 0x3b
 1643 0173 0B       		.uleb128 0xb
 1644 0174 39       		.uleb128 0x39
 1645 0175 0B       		.uleb128 0xb
 1646 0176 49       		.uleb128 0x49
 1647 0177 13       		.uleb128 0x13
 1648 0178 02       		.uleb128 0x2
 1649 0179 17       		.uleb128 0x17
 1650 017a B742     		.uleb128 0x2137
 1651 017c 17       		.uleb128 0x17
 1652 017d 00       		.byte	0
 1653 017e 00       		.byte	0
ARM GAS  /tmp/ccbfMh9b.s 			page 30


 1654 017f 1B       		.uleb128 0x1b
 1655 0180 34       		.uleb128 0x34
 1656 0181 00       		.byte	0
 1657 0182 03       		.uleb128 0x3
 1658 0183 08       		.uleb128 0x8
 1659 0184 3A       		.uleb128 0x3a
 1660 0185 0B       		.uleb128 0xb
 1661 0186 3B       		.uleb128 0x3b
 1662 0187 0B       		.uleb128 0xb
 1663 0188 39       		.uleb128 0x39
 1664 0189 0B       		.uleb128 0xb
 1665 018a 49       		.uleb128 0x49
 1666 018b 13       		.uleb128 0x13
 1667 018c 02       		.uleb128 0x2
 1668 018d 17       		.uleb128 0x17
 1669 018e B742     		.uleb128 0x2137
 1670 0190 17       		.uleb128 0x17
 1671 0191 00       		.byte	0
 1672 0192 00       		.byte	0
 1673 0193 1C       		.uleb128 0x1c
 1674 0194 1D       		.uleb128 0x1d
 1675 0195 01       		.byte	0x1
 1676 0196 31       		.uleb128 0x31
 1677 0197 13       		.uleb128 0x13
 1678 0198 52       		.uleb128 0x52
 1679 0199 01       		.uleb128 0x1
 1680 019a B842     		.uleb128 0x2138
 1681 019c 0B       		.uleb128 0xb
 1682 019d 11       		.uleb128 0x11
 1683 019e 01       		.uleb128 0x1
 1684 019f 12       		.uleb128 0x12
 1685 01a0 06       		.uleb128 0x6
 1686 01a1 58       		.uleb128 0x58
 1687 01a2 0B       		.uleb128 0xb
 1688 01a3 59       		.uleb128 0x59
 1689 01a4 0B       		.uleb128 0xb
 1690 01a5 57       		.uleb128 0x57
 1691 01a6 0B       		.uleb128 0xb
 1692 01a7 00       		.byte	0
 1693 01a8 00       		.byte	0
 1694 01a9 1D       		.uleb128 0x1d
 1695 01aa 05       		.uleb128 0x5
 1696 01ab 00       		.byte	0
 1697 01ac 31       		.uleb128 0x31
 1698 01ad 13       		.uleb128 0x13
 1699 01ae 02       		.uleb128 0x2
 1700 01af 17       		.uleb128 0x17
 1701 01b0 B742     		.uleb128 0x2137
 1702 01b2 17       		.uleb128 0x17
 1703 01b3 00       		.byte	0
 1704 01b4 00       		.byte	0
 1705 01b5 1E       		.uleb128 0x1e
 1706 01b6 34       		.uleb128 0x34
 1707 01b7 00       		.byte	0
 1708 01b8 31       		.uleb128 0x31
 1709 01b9 13       		.uleb128 0x13
 1710 01ba 02       		.uleb128 0x2
ARM GAS  /tmp/ccbfMh9b.s 			page 31


 1711 01bb 17       		.uleb128 0x17
 1712 01bc B742     		.uleb128 0x2137
 1713 01be 17       		.uleb128 0x17
 1714 01bf 00       		.byte	0
 1715 01c0 00       		.byte	0
 1716 01c1 1F       		.uleb128 0x1f
 1717 01c2 2E       		.uleb128 0x2e
 1718 01c3 01       		.byte	0x1
 1719 01c4 3F       		.uleb128 0x3f
 1720 01c5 19       		.uleb128 0x19
 1721 01c6 03       		.uleb128 0x3
 1722 01c7 0E       		.uleb128 0xe
 1723 01c8 3A       		.uleb128 0x3a
 1724 01c9 0B       		.uleb128 0xb
 1725 01ca 3B       		.uleb128 0x3b
 1726 01cb 0B       		.uleb128 0xb
 1727 01cc 39       		.uleb128 0x39
 1728 01cd 0B       		.uleb128 0xb
 1729 01ce 27       		.uleb128 0x27
 1730 01cf 19       		.uleb128 0x19
 1731 01d0 11       		.uleb128 0x11
 1732 01d1 01       		.uleb128 0x1
 1733 01d2 12       		.uleb128 0x12
 1734 01d3 06       		.uleb128 0x6
 1735 01d4 40       		.uleb128 0x40
 1736 01d5 18       		.uleb128 0x18
 1737 01d6 9742     		.uleb128 0x2117
 1738 01d8 19       		.uleb128 0x19
 1739 01d9 01       		.uleb128 0x1
 1740 01da 13       		.uleb128 0x13
 1741 01db 00       		.byte	0
 1742 01dc 00       		.byte	0
 1743 01dd 20       		.uleb128 0x20
 1744 01de 21       		.uleb128 0x21
 1745 01df 00       		.byte	0
 1746 01e0 00       		.byte	0
 1747 01e1 00       		.byte	0
 1748 01e2 21       		.uleb128 0x21
 1749 01e3 2E       		.uleb128 0x2e
 1750 01e4 01       		.byte	0x1
 1751 01e5 31       		.uleb128 0x31
 1752 01e6 13       		.uleb128 0x13
 1753 01e7 11       		.uleb128 0x11
 1754 01e8 01       		.uleb128 0x1
 1755 01e9 12       		.uleb128 0x12
 1756 01ea 06       		.uleb128 0x6
 1757 01eb 40       		.uleb128 0x40
 1758 01ec 18       		.uleb128 0x18
 1759 01ed 9742     		.uleb128 0x2117
 1760 01ef 19       		.uleb128 0x19
 1761 01f0 00       		.byte	0
 1762 01f1 00       		.byte	0
 1763 01f2 00       		.byte	0
 1764              		.section	.debug_loc,"",%progbits
 1765              	.Ldebug_loc0:
 1766              	.LVUS0:
 1767 0000 00       		.uleb128 0
ARM GAS  /tmp/ccbfMh9b.s 			page 32


 1768 0001 00       		.uleb128 .LVU28
 1769 0002 00       		.uleb128 .LVU28
 1770 0003 00       		.uleb128 .LVU30
 1771 0004 00       		.uleb128 .LVU30
 1772 0005 00       		.uleb128 .LVU31
 1773 0006 00       		.uleb128 .LVU31
 1774 0007 00       		.uleb128 0
 1775              	.LLST0:
 1776 0008 00000000 		.4byte	.LVL0
 1777 000c 14000000 		.4byte	.LVL2
 1778 0010 0100     		.2byte	0x1
 1779 0012 50       		.byte	0x50
 1780 0013 14000000 		.4byte	.LVL2
 1781 0017 1C000000 		.4byte	.LVL3
 1782 001b 0100     		.2byte	0x1
 1783 001d 53       		.byte	0x53
 1784 001e 1C000000 		.4byte	.LVL3
 1785 0022 20000000 		.4byte	.LVL4
 1786 0026 0300     		.2byte	0x3
 1787 0028 73       		.byte	0x73
 1788 0029 7D       		.sleb128 -3
 1789 002a 9F       		.byte	0x9f
 1790 002b 20000000 		.4byte	.LVL4
 1791 002f 44000000 		.4byte	.LFE8
 1792 0033 0400     		.2byte	0x4
 1793 0035 F3       		.byte	0xf3
 1794 0036 01       		.uleb128 0x1
 1795 0037 50       		.byte	0x50
 1796 0038 9F       		.byte	0x9f
 1797 0039 00000000 		.4byte	0
 1798 003d 00000000 		.4byte	0
 1799              	.LVUS1:
 1800 0041 01       		.uleb128 .LVU40
 1801 0042 00       		.uleb128 0
 1802              	.LLST1:
 1803 0043 34000000 		.4byte	.LVL8
 1804 0047 44000000 		.4byte	.LFE8
 1805 004b 0100     		.2byte	0x1
 1806 004d 50       		.byte	0x50
 1807 004e 00000000 		.4byte	0
 1808 0052 00000000 		.4byte	0
 1809              	.LVUS2:
 1810 0056 03       		.uleb128 .LVU22
 1811 0057 00       		.uleb128 .LVU28
 1812 0058 00       		.uleb128 .LVU28
 1813 0059 00       		.uleb128 .LVU30
 1814 005a 00       		.uleb128 .LVU30
 1815 005b 00       		.uleb128 .LVU31
 1816 005c 00       		.uleb128 .LVU31
 1817 005d 00       		.uleb128 .LVU37
 1818 005e 00       		.uleb128 .LVU37
 1819 005f 01       		.uleb128 .LVU40
 1820              	.LLST2:
 1821 0060 08000000 		.4byte	.LVL1
 1822 0064 14000000 		.4byte	.LVL2
 1823 0068 0100     		.2byte	0x1
 1824 006a 50       		.byte	0x50
ARM GAS  /tmp/ccbfMh9b.s 			page 33


 1825 006b 14000000 		.4byte	.LVL2
 1826 006f 1C000000 		.4byte	.LVL3
 1827 0073 0100     		.2byte	0x1
 1828 0075 53       		.byte	0x53
 1829 0076 1C000000 		.4byte	.LVL3
 1830 007a 20000000 		.4byte	.LVL4
 1831 007e 0300     		.2byte	0x3
 1832 0080 73       		.byte	0x73
 1833 0081 7D       		.sleb128 -3
 1834 0082 9F       		.byte	0x9f
 1835 0083 20000000 		.4byte	.LVL4
 1836 0087 2C000000 		.4byte	.LVL6
 1837 008b 0100     		.2byte	0x1
 1838 008d 53       		.byte	0x53
 1839 008e 2C000000 		.4byte	.LVL6
 1840 0092 34000000 		.4byte	.LVL8
 1841 0096 0900     		.2byte	0x9
 1842 0098 F3       		.byte	0xf3
 1843 0099 01       		.uleb128 0x1
 1844 009a 50       		.byte	0x50
 1845 009b 23       		.byte	0x23
 1846 009c 03       		.uleb128 0x3
 1847 009d 09       		.byte	0x9
 1848 009e FC       		.byte	0xfc
 1849 009f 1A       		.byte	0x1a
 1850 00a0 9F       		.byte	0x9f
 1851 00a1 00000000 		.4byte	0
 1852 00a5 00000000 		.4byte	0
 1853              	.LVUS3:
 1854 00a9 01       		.uleb128 .LVU35
 1855 00aa 00       		.uleb128 .LVU38
 1856 00ab 00       		.uleb128 .LVU38
 1857 00ac 00       		.uleb128 .LVU39
 1858              	.LLST3:
 1859 00ad 28000000 		.4byte	.LVL5
 1860 00b1 30000000 		.4byte	.LVL7
 1861 00b5 0100     		.2byte	0x1
 1862 00b7 50       		.byte	0x50
 1863 00b8 30000000 		.4byte	.LVL7
 1864 00bc 34000000 		.4byte	.LVL8
 1865 00c0 0500     		.2byte	0x5
 1866 00c2 03       		.byte	0x3
 1867 00c3 00000000 		.4byte	nextmem
 1868 00c7 00000000 		.4byte	0
 1869 00cb 00000000 		.4byte	0
 1870              	.LVUS4:
 1871 00cf 00       		.uleb128 0
 1872 00d0 00       		.uleb128 .LVU53
 1873 00d1 00       		.uleb128 .LVU53
 1874 00d2 00       		.uleb128 .LVU55
 1875 00d3 00       		.uleb128 .LVU55
 1876 00d4 00       		.uleb128 .LVU56
 1877 00d5 00       		.uleb128 .LVU56
 1878 00d6 00       		.uleb128 .LVU62
 1879 00d7 00       		.uleb128 .LVU62
 1880 00d8 00       		.uleb128 0
 1881              	.LLST4:
ARM GAS  /tmp/ccbfMh9b.s 			page 34


 1882 00d9 00000000 		.4byte	.LVL9
 1883 00dd 10000000 		.4byte	.LVL10
 1884 00e1 0100     		.2byte	0x1
 1885 00e3 50       		.byte	0x50
 1886 00e4 10000000 		.4byte	.LVL10
 1887 00e8 18000000 		.4byte	.LVL11
 1888 00ec 0100     		.2byte	0x1
 1889 00ee 53       		.byte	0x53
 1890 00ef 18000000 		.4byte	.LVL11
 1891 00f3 1C000000 		.4byte	.LVL12
 1892 00f7 0300     		.2byte	0x3
 1893 00f9 73       		.byte	0x73
 1894 00fa 7D       		.sleb128 -3
 1895 00fb 9F       		.byte	0x9f
 1896 00fc 1C000000 		.4byte	.LVL12
 1897 0100 28000000 		.4byte	.LVL14
 1898 0104 0100     		.2byte	0x1
 1899 0106 53       		.byte	0x53
 1900 0107 28000000 		.4byte	.LVL14
 1901 010b 3C000000 		.4byte	.LFE9
 1902 010f 0900     		.2byte	0x9
 1903 0111 F3       		.byte	0xf3
 1904 0112 01       		.uleb128 0x1
 1905 0113 50       		.byte	0x50
 1906 0114 23       		.byte	0x23
 1907 0115 03       		.uleb128 0x3
 1908 0116 09       		.byte	0x9
 1909 0117 FC       		.byte	0xfc
 1910 0118 1A       		.byte	0x1a
 1911 0119 9F       		.byte	0x9f
 1912 011a 00000000 		.4byte	0
 1913 011e 00000000 		.4byte	0
 1914              	.LVUS5:
 1915 0122 01       		.uleb128 .LVU60
 1916 0123 00       		.uleb128 .LVU65
 1917              	.LLST5:
 1918 0124 24000000 		.4byte	.LVL13
 1919 0128 30000000 		.4byte	.LVL15
 1920 012c 0100     		.2byte	0x1
 1921 012e 50       		.byte	0x50
 1922 012f 00000000 		.4byte	0
 1923 0133 00000000 		.4byte	0
 1924              		.section	.debug_aranges,"",%progbits
 1925 0000 34000000 		.4byte	0x34
 1926 0004 0200     		.2byte	0x2
 1927 0006 00000000 		.4byte	.Ldebug_info0
 1928 000a 04       		.byte	0x4
 1929 000b 00       		.byte	0
 1930 000c 0000     		.2byte	0
 1931 000e 0000     		.2byte	0
 1932 0010 00000000 		.4byte	.LFB7
 1933 0014 34000000 		.4byte	.LFE7-.LFB7
 1934 0018 00000000 		.4byte	.LFB8
 1935 001c 44000000 		.4byte	.LFE8-.LFB8
 1936 0020 00000000 		.4byte	.LFB9
 1937 0024 3C000000 		.4byte	.LFE9-.LFB9
 1938 0028 00000000 		.4byte	.LFB10
ARM GAS  /tmp/ccbfMh9b.s 			page 35


 1939 002c 20000000 		.4byte	.LFE10-.LFB10
 1940 0030 00000000 		.4byte	0
 1941 0034 00000000 		.4byte	0
 1942              		.section	.debug_ranges,"",%progbits
 1943              	.Ldebug_ranges0:
 1944 0000 00000000 		.4byte	.LFB7
 1945 0004 34000000 		.4byte	.LFE7
 1946 0008 00000000 		.4byte	.LFB8
 1947 000c 44000000 		.4byte	.LFE8
 1948 0010 00000000 		.4byte	.LFB9
 1949 0014 3C000000 		.4byte	.LFE9
 1950 0018 00000000 		.4byte	.LFB10
 1951 001c 20000000 		.4byte	.LFE10
 1952 0020 00000000 		.4byte	0
 1953 0024 00000000 		.4byte	0
 1954              		.section	.debug_line,"",%progbits
 1955              	.Ldebug_line0:
 1956 0000 1C020000 		.section	.debug_str,"MS",%progbits,1
 1956      03000B01 
 1956      00000201 
 1956      FB0E0D00 
 1956      01010101 
 1957              	.LASF84:
 1958 0000 63665F6F 		.ascii	"cf_off_older\000"
 1958      66665F6F 
 1958      6C646572 
 1958      00
 1959              	.LASF37:
 1960 000d 705F6D73 		.ascii	"p_msg\000"
 1960      6700
 1961              	.LASF99:
 1962 0013 474E5520 		.ascii	"GNU C17 9.2.1 20191025 (release) [ARM/arm-9-branch "
 1962      43313720 
 1962      392E322E 
 1962      31203230 
 1962      31393130 
 1963 0046 72657669 		.ascii	"revision 277599] -mcpu=arm1176jz-s -mno-thumb-inter"
 1963      73696F6E 
 1963      20323737 
 1963      3539395D 
 1963      202D6D63 
 1964 0079 776F726B 		.ascii	"work -mfloat-abi=soft -marm -march=armv6kz -ggdb -O"
 1964      202D6D66 
 1964      6C6F6174 
 1964      2D616269 
 1964      3D736F66 
 1965 00ac 32202D66 		.ascii	"2 -fomit-frame-pointer -ffunction-sections -fdata-s"
 1965      6F6D6974 
 1965      2D667261 
 1965      6D652D70 
 1965      6F696E74 
 1966 00df 65637469 		.ascii	"ections\000"
 1966      6F6E7300 
 1967              	.LASF69:
 1968 00e7 7264796D 		.ascii	"rdymsg\000"
 1968      736700
 1969              	.LASF105:
ARM GAS  /tmp/ccbfMh9b.s 			page 36


 1970 00ee 6368436F 		.ascii	"chCoreAlloc\000"
 1970      7265416C 
 1970      6C6F6300 
 1971              	.LASF63:
 1972 00fa 76746C69 		.ascii	"vtlist\000"
 1972      737400
 1973              	.LASF13:
 1974 0101 6C6F6E67 		.ascii	"long long unsigned int\000"
 1974      206C6F6E 
 1974      6720756E 
 1974      7369676E 
 1974      65642069 
 1975              	.LASF80:
 1976 0118 63685F74 		.ascii	"ch_threadsize\000"
 1976      68726561 
 1976      6473697A 
 1976      6500
 1977              	.LASF70:
 1978 0126 65786974 		.ascii	"exitcode\000"
 1978      636F6465 
 1978      00
 1979              	.LASF98:
 1980 012f 5F5F6865 		.ascii	"__heap_end__\000"
 1980      61705F65 
 1980      6E645F5F 
 1980      00
 1981              	.LASF25:
 1982 013c 705F7072 		.ascii	"p_prio\000"
 1982      696F00
 1983              	.LASF87:
 1984 0143 63665F6F 		.ascii	"cf_off_state\000"
 1984      66665F73 
 1984      74617465 
 1984      00
 1985              	.LASF6:
 1986 0150 6C6F6E67 		.ascii	"long long int\000"
 1986      206C6F6E 
 1986      6720696E 
 1986      7400
 1987              	.LASF1:
 1988 015e 7369676E 		.ascii	"signed char\000"
 1988      65642063 
 1988      68617200 
 1989              	.LASF86:
 1990 016a 63665F6F 		.ascii	"cf_off_stklimit\000"
 1990      66665F73 
 1990      746B6C69 
 1990      6D697400 
 1991              	.LASF100:
 1992 017a 2E2E2F6F 		.ascii	"../os/kernel/src/chmemcore.c\000"
 1992      732F6B65 
 1992      726E656C 
 1992      2F737263 
 1992      2F63686D 
 1993              	.LASF88:
 1994 0197 63665F6F 		.ascii	"cf_off_flags\000"
 1994      66665F66 
ARM GAS  /tmp/ccbfMh9b.s 			page 37


 1994      6C616773 
 1994      00
 1995              	.LASF66:
 1996 01a4 6D5F7175 		.ascii	"m_queue\000"
 1996      65756500 
 1997              	.LASF17:
 1998 01ac 74736C69 		.ascii	"tslices_t\000"
 1998      6365735F 
 1998      7400
 1999              	.LASF5:
 2000 01b6 6C6F6E67 		.ascii	"long int\000"
 2000      20696E74 
 2000      00
 2001              	.LASF15:
 2002 01bf 74737461 		.ascii	"tstate_t\000"
 2002      74655F74 
 2002      00
 2003              	.LASF9:
 2004 01c8 75696E74 		.ascii	"uint16_t\000"
 2004      31365F74 
 2004      00
 2005              	.LASF92:
 2006 01d1 63686465 		.ascii	"chdebug_t\000"
 2006      6275675F 
 2006      7400
 2007              	.LASF27:
 2008 01db 705F6E65 		.ascii	"p_newer\000"
 2008      77657200 
 2009              	.LASF94:
 2010 01e3 5F69646C 		.ascii	"_idle_thread_wa\000"
 2010      655F7468 
 2010      72656164 
 2010      5F776100 
 2011              	.LASF103:
 2012 01f3 6368436F 		.ascii	"chCoreAllocI\000"
 2012      7265416C 
 2012      6C6F6349 
 2012      00
 2013              	.LASF59:
 2014 0200 725F6E65 		.ascii	"r_newer\000"
 2014      77657200 
 2015              	.LASF44:
 2016 0208 72656761 		.ascii	"regarm_t\000"
 2016      726D5F74 
 2016      00
 2017              	.LASF50:
 2018 0211 76745F70 		.ascii	"vt_prev\000"
 2018      72657600 
 2019              	.LASF3:
 2020 0219 73697A65 		.ascii	"size_t\000"
 2020      5F7400
 2021              	.LASF0:
 2022 0220 756E7369 		.ascii	"unsigned int\000"
 2022      676E6564 
 2022      20696E74 
 2022      00
 2023              	.LASF49:
ARM GAS  /tmp/ccbfMh9b.s 			page 38


 2024 022d 76745F6E 		.ascii	"vt_next\000"
 2024      65787400 
 2025              	.LASF12:
 2026 0235 6C6F6E67 		.ascii	"long unsigned int\000"
 2026      20756E73 
 2026      69676E65 
 2026      6420696E 
 2026      7400
 2027              	.LASF93:
 2028 0247 63685F64 		.ascii	"ch_debug\000"
 2028      65627567 
 2028      00
 2029              	.LASF74:
 2030 0250 63685F69 		.ascii	"ch_identifier\000"
 2030      64656E74 
 2030      69666965 
 2030      7200
 2031              	.LASF46:
 2032 025e 636F6E74 		.ascii	"context\000"
 2032      65787400 
 2033              	.LASF104:
 2034 0266 73697A65 		.ascii	"size\000"
 2034      00
 2035              	.LASF10:
 2036 026b 73686F72 		.ascii	"short unsigned int\000"
 2036      7420756E 
 2036      7369676E 
 2036      65642069 
 2036      6E7400
 2037              	.LASF19:
 2038 027e 6D73675F 		.ascii	"msg_t\000"
 2038      7400
 2039              	.LASF14:
 2040 0284 746D6F64 		.ascii	"tmode_t\000"
 2040      655F7400 
 2041              	.LASF42:
 2042 028c 54687265 		.ascii	"ThreadsList\000"
 2042      6164734C 
 2042      69737400 
 2043              	.LASF20:
 2044 0298 6576656E 		.ascii	"eventmask_t\000"
 2044      746D6173 
 2044      6B5F7400 
 2045              	.LASF96:
 2046 02a4 656E646D 		.ascii	"endmem\000"
 2046      656D00
 2047              	.LASF65:
 2048 02ab 4D757465 		.ascii	"Mutex\000"
 2048      7800
 2049              	.LASF43:
 2050 02b1 73746B61 		.ascii	"stkalign_t\000"
 2050      6C69676E 
 2050      5F7400
 2051              	.LASF75:
 2052 02bc 63685F7A 		.ascii	"ch_zero\000"
 2052      65726F00 
 2053              	.LASF89:
ARM GAS  /tmp/ccbfMh9b.s 			page 39


 2054 02c4 63665F6F 		.ascii	"cf_off_refs\000"
 2054      66665F72 
 2054      65667300 
 2055              	.LASF51:
 2056 02d0 76745F74 		.ascii	"vt_time\000"
 2056      696D6500 
 2057              	.LASF52:
 2058 02d8 76745F66 		.ascii	"vt_func\000"
 2058      756E6300 
 2059              	.LASF79:
 2060 02e0 63685F74 		.ascii	"ch_timesize\000"
 2060      696D6573 
 2060      697A6500 
 2061              	.LASF85:
 2062 02ec 63665F6F 		.ascii	"cf_off_name\000"
 2062      66665F6E 
 2062      616D6500 
 2063              	.LASF28:
 2064 02f8 705F6F6C 		.ascii	"p_older\000"
 2064      64657200 
 2065              	.LASF58:
 2066 0300 725F6374 		.ascii	"r_ctx\000"
 2066      7800
 2067              	.LASF41:
 2068 0306 54687265 		.ascii	"ThreadsQueue\000"
 2068      61647351 
 2068      75657565 
 2068      00
 2069              	.LASF76:
 2070 0313 63685F73 		.ascii	"ch_size\000"
 2070      697A6500 
 2071              	.LASF61:
 2072 031b 725F6375 		.ascii	"r_current\000"
 2072      7272656E 
 2072      7400
 2073              	.LASF60:
 2074 0325 725F6F6C 		.ascii	"r_older\000"
 2074      64657200 
 2075              	.LASF16:
 2076 032d 74726566 		.ascii	"trefs_t\000"
 2076      735F7400 
 2077              	.LASF78:
 2078 0335 63685F70 		.ascii	"ch_ptrsize\000"
 2078      74727369 
 2078      7A6500
 2079              	.LASF24:
 2080 0340 705F7072 		.ascii	"p_prev\000"
 2080      657600
 2081              	.LASF18:
 2082 0347 74707269 		.ascii	"tprio_t\000"
 2082      6F5F7400 
 2083              	.LASF4:
 2084 034f 696E7433 		.ascii	"int32_t\000"
 2084      325F7400 
 2085              	.LASF8:
 2086 0357 756E7369 		.ascii	"unsigned char\000"
 2086      676E6564 
ARM GAS  /tmp/ccbfMh9b.s 			page 40


 2086      20636861 
 2086      7200
 2087              	.LASF106:
 2088 0365 5F636F72 		.ascii	"_core_init\000"
 2088      655F696E 
 2088      697400
 2089              	.LASF39:
 2090 0370 705F6D74 		.ascii	"p_mtxlist\000"
 2090      786C6973 
 2090      7400
 2091              	.LASF2:
 2092 037a 73686F72 		.ascii	"short int\000"
 2092      7420696E 
 2092      7400
 2093              	.LASF30:
 2094 0384 705F7374 		.ascii	"p_state\000"
 2094      61746500 
 2095              	.LASF33:
 2096 038c 705F7072 		.ascii	"p_preempt\000"
 2096      65656D70 
 2096      7400
 2097              	.LASF91:
 2098 0396 63665F6F 		.ascii	"cf_off_time\000"
 2098      66665F74 
 2098      696D6500 
 2099              	.LASF57:
 2100 03a2 725F7072 		.ascii	"r_prio\000"
 2100      696F00
 2101              	.LASF72:
 2102 03a9 65776D61 		.ascii	"ewmask\000"
 2102      736B00
 2103              	.LASF23:
 2104 03b0 705F6E65 		.ascii	"p_next\000"
 2104      787400
 2105              	.LASF90:
 2106 03b7 63665F6F 		.ascii	"cf_off_preempt\000"
 2106      66665F70 
 2106      7265656D 
 2106      707400
 2107              	.LASF31:
 2108 03c6 705F666C 		.ascii	"p_flags\000"
 2108      61677300 
 2109              	.LASF22:
 2110 03ce 54687265 		.ascii	"Thread\000"
 2110      616400
 2111              	.LASF83:
 2112 03d5 63665F6F 		.ascii	"cf_off_newer\000"
 2112      66665F6E 
 2112      65776572 
 2112      00
 2113              	.LASF38:
 2114 03e2 705F6570 		.ascii	"p_epending\000"
 2114      656E6469 
 2114      6E6700
 2115              	.LASF11:
 2116 03ed 75696E74 		.ascii	"uint32_t\000"
 2116      33325F74 
ARM GAS  /tmp/ccbfMh9b.s 			page 41


 2116      00
 2117              	.LASF81:
 2118 03f6 63665F6F 		.ascii	"cf_off_prio\000"
 2118      66665F70 
 2118      72696F00 
 2119              	.LASF56:
 2120 0402 725F7175 		.ascii	"r_queue\000"
 2120      65756500 
 2121              	.LASF48:
 2122 040a 56697274 		.ascii	"VirtualTimer\000"
 2122      75616C54 
 2122      696D6572 
 2122      00
 2123              	.LASF101:
 2124 0417 2F686F6D 		.ascii	"/home/taskman/arduino/embedded-wind-turbine/Data_Co"
 2124      652F7461 
 2124      736B6D61 
 2124      6E2F6172 
 2124      6475696E 
 2125 044a 6C6C6563 		.ascii	"llector/raspberry/compiler/ChibiOS-RPi/led\000"
 2125      746F722F 
 2125      72617370 
 2125      62657272 
 2125      792F636F 
 2126              	.LASF102:
 2127 0475 6368436F 		.ascii	"chCoreStatus\000"
 2127      72655374 
 2127      61747573 
 2127      00
 2128              	.LASF73:
 2129 0482 63686172 		.ascii	"char\000"
 2129      00
 2130              	.LASF95:
 2131 0487 6E657874 		.ascii	"nextmem\000"
 2131      6D656D00 
 2132              	.LASF68:
 2133 048f 6D5F6E65 		.ascii	"m_next\000"
 2133      787400
 2134              	.LASF21:
 2135 0496 73797374 		.ascii	"systime_t\000"
 2135      696D655F 
 2135      7400
 2136              	.LASF40:
 2137 04a0 705F7265 		.ascii	"p_realprio\000"
 2137      616C7072 
 2137      696F00
 2138              	.LASF47:
 2139 04ab 76746675 		.ascii	"vtfunc_t\000"
 2139      6E635F74 
 2139      00
 2140              	.LASF34:
 2141 04b4 705F7469 		.ascii	"p_time\000"
 2141      6D6500
 2142              	.LASF45:
 2143 04bb 696E7463 		.ascii	"intctx\000"
 2143      747800
 2144              	.LASF36:
ARM GAS  /tmp/ccbfMh9b.s 			page 42


 2145 04c2 705F6D73 		.ascii	"p_msgqueue\000"
 2145      67717565 
 2145      756500
 2146              	.LASF53:
 2147 04cd 76745F70 		.ascii	"vt_par\000"
 2147      617200
 2148              	.LASF97:
 2149 04d4 5F5F6865 		.ascii	"__heap_base__\000"
 2149      61705F62 
 2149      6173655F 
 2149      5F00
 2150              	.LASF82:
 2151 04e2 63665F6F 		.ascii	"cf_off_ctx\000"
 2151      66665F63 
 2151      747800
 2152              	.LASF32:
 2153 04ed 705F7265 		.ascii	"p_refs\000"
 2153      667300
 2154              	.LASF62:
 2155 04f4 52656164 		.ascii	"ReadyList\000"
 2155      794C6973 
 2155      7400
 2156              	.LASF64:
 2157 04fe 726C6973 		.ascii	"rlist\000"
 2157      7400
 2158              	.LASF7:
 2159 0504 75696E74 		.ascii	"uint8_t\000"
 2159      385F7400 
 2160              	.LASF71:
 2161 050c 77746F62 		.ascii	"wtobjp\000"
 2161      6A7000
 2162              	.LASF29:
 2163 0513 705F6E61 		.ascii	"p_name\000"
 2163      6D6500
 2164              	.LASF54:
 2165 051a 76745F73 		.ascii	"vt_systime\000"
 2165      79737469 
 2165      6D6500
 2166              	.LASF77:
 2167 0525 63685F76 		.ascii	"ch_version\000"
 2167      65727369 
 2167      6F6E00
 2168              	.LASF55:
 2169 0530 56544C69 		.ascii	"VTList\000"
 2169      737400
 2170              	.LASF67:
 2171 0537 6D5F6F77 		.ascii	"m_owner\000"
 2171      6E657200 
 2172              	.LASF26:
 2173 053f 705F6374 		.ascii	"p_ctx\000"
 2173      7800
 2174              	.LASF35:
 2175 0545 705F7761 		.ascii	"p_waiting\000"
 2175      6974696E 
 2175      6700
 2176              		.ident	"GCC: (15:9-2019-q4-0ubuntu1) 9.2.1 20191025 (release) [ARM/arm-9-branch revision 277599]"
ARM GAS  /tmp/ccbfMh9b.s 			page 43


DEFINED SYMBOLS
                            *ABS*:0000000000000000 chmemcore.c
     /tmp/ccbfMh9b.s:16     .text._core_init:0000000000000000 $a
     /tmp/ccbfMh9b.s:23     .text._core_init:0000000000000000 _core_init
     /tmp/ccbfMh9b.s:56     .text._core_init:0000000000000024 $d
     /tmp/ccbfMh9b.s:64     .text.chCoreAlloc:0000000000000000 $a
     /tmp/ccbfMh9b.s:70     .text.chCoreAlloc:0000000000000000 chCoreAlloc
     /tmp/ccbfMh9b.s:150    .text.chCoreAlloc:000000000000003c $d
     /tmp/ccbfMh9b.s:156    .text.chCoreAllocI:0000000000000000 $a
     /tmp/ccbfMh9b.s:162    .text.chCoreAllocI:0000000000000000 chCoreAllocI
     /tmp/ccbfMh9b.s:211    .text.chCoreAllocI:0000000000000034 $d
     /tmp/ccbfMh9b.s:217    .text.chCoreStatus:0000000000000000 $a
     /tmp/ccbfMh9b.s:223    .text.chCoreStatus:0000000000000000 chCoreStatus
     /tmp/ccbfMh9b.s:242    .text.chCoreStatus:0000000000000018 $d
     /tmp/ccbfMh9b.s:248    .bss.endmem:0000000000000000 $d
     /tmp/ccbfMh9b.s:252    .bss.endmem:0000000000000000 endmem
     /tmp/ccbfMh9b.s:255    .bss.nextmem:0000000000000000 $d
     /tmp/ccbfMh9b.s:259    .bss.nextmem:0000000000000000 nextmem

UNDEFINED SYMBOLS
__heap_base__
__heap_end__
