ARM GAS  /tmp/ccKrtkMt.s 			page 1


   1              		.cpu arm1176jz-s
   2              		.eabi_attribute 20, 1
   3              		.eabi_attribute 21, 1
   4              		.eabi_attribute 23, 3
   5              		.eabi_attribute 24, 1
   6              		.eabi_attribute 25, 1
   7              		.eabi_attribute 26, 1
   8              		.eabi_attribute 30, 2
   9              		.eabi_attribute 34, 1
  10              		.eabi_attribute 18, 4
  11              		.file	"chmtx.c"
  12              		.text
  13              	.Ltext0:
  14              		.cfi_sections	.debug_frame
  15              		.section	.text.chMtxInit,"ax",%progbits
  16              		.align	2
  17              		.global	chMtxInit
  18              		.arch armv6kz
  19              		.syntax unified
  20              		.arm
  21              		.fpu softvfp
  22              		.type	chMtxInit, %function
  23              	chMtxInit:
  24              	.LVL0:
  25              	.LFB7:
  26              		.file 1 "../os/kernel/src/chmtx.c"
  27              		.loc 1 79 27 view -0
  28              		.cfi_startproc
  29              		@ args = 0, pretend = 0, frame = 0
  30              		@ frame_needed = 0, uses_anonymous_args = 0
  31              		@ link register save eliminated.
  32              		.loc 1 81 3 view .LVU1
  33              		.loc 1 81 38 view .LVU2
  34              		.loc 1 83 3 view .LVU3
  35              		.loc 1 84 15 is_stmt 0 view .LVU4
  36 0000 0030A0E3 		mov	r3, #0
  37              		.loc 1 83 3 view .LVU5
  38 0004 040080E5 		str	r0, [r0, #4]
  39 0008 000080E5 		str	r0, [r0]
  40              		.loc 1 83 27 is_stmt 1 view .LVU6
  41              		.loc 1 84 3 view .LVU7
  42              		.loc 1 84 15 is_stmt 0 view .LVU8
  43 000c 083080E5 		str	r3, [r0, #8]
  44              		.loc 1 85 1 view .LVU9
  45 0010 1EFF2FE1 		bx	lr
  46              		.cfi_endproc
  47              	.LFE7:
  48              		.size	chMtxInit, .-chMtxInit
  49              		.section	.text.chMtxLockS,"ax",%progbits
  50              		.align	2
  51              		.global	chMtxLockS
  52              		.syntax unified
  53              		.arm
  54              		.fpu softvfp
  55              		.type	chMtxLockS, %function
  56              	chMtxLockS:
  57              	.LVL1:
ARM GAS  /tmp/ccKrtkMt.s 			page 2


  58              	.LFB9:
  59              		.loc 1 114 28 is_stmt 1 view -0
  60              		.cfi_startproc
  61              		@ args = 0, pretend = 0, frame = 0
  62              		@ frame_needed = 0, uses_anonymous_args = 0
  63              		.loc 1 115 3 view .LVU11
  64              		.loc 1 114 28 is_stmt 0 view .LVU12
  65 0000 70402DE9 		push	{r4, r5, r6, lr}
  66              		.cfi_def_cfa_offset 16
  67              		.cfi_offset 4, -16
  68              		.cfi_offset 5, -12
  69              		.cfi_offset 6, -8
  70              		.cfi_offset 14, -4
  71              		.loc 1 114 28 view .LVU13
  72 0004 0050A0E1 		mov	r5, r0
  73              		.loc 1 121 9 view .LVU14
  74 0008 080090E5 		ldr	r0, [r0, #8]
  75              	.LVL2:
  76              		.loc 1 115 11 view .LVU15
  77 000c 64319FE5 		ldr	r3, .L30
  78              		.loc 1 121 6 view .LVU16
  79 0010 000050E3 		cmp	r0, #0
  80              		.loc 1 115 11 view .LVU17
  81 0014 184093E5 		ldr	r4, [r3, #24]
  82              	.LVL3:
  83              		.loc 1 117 3 is_stmt 1 view .LVU18
  84              		.loc 1 117 21 view .LVU19
  85              		.loc 1 118 3 view .LVU20
  86              		.loc 1 118 39 view .LVU21
  87              		.loc 1 121 3 view .LVU22
  88              		.loc 1 121 6 is_stmt 0 view .LVU23
  89 0018 1E00000A 		beq	.L25
  90              	.LVL4:
  91              	.LBB27:
  92              		.loc 1 128 11 is_stmt 1 view .LVU24
  93              		.loc 1 128 28 is_stmt 0 view .LVU25
  94 001c 082094E5 		ldr	r2, [r4, #8]
  95              		.loc 1 128 11 view .LVU26
  96 0020 083090E5 		ldr	r3, [r0, #8]
  97 0024 020053E1 		cmp	r3, r2
  98 0028 0700002A 		bcs	.L9
  99              	.L12:
 100              		.loc 1 130 7 is_stmt 1 view .LVU27
 101              		.loc 1 132 17 is_stmt 0 view .LVU28
 102 002c 1C30D0E5 		ldrb	r3, [r0, #28]	@ zero_extendqisi2
 103              		.loc 1 130 18 view .LVU29
 104 0030 082080E5 		str	r2, [r0, #8]
 105              		.loc 1 132 7 is_stmt 1 view .LVU30
 106 0034 040053E3 		cmp	r3, #4
 107 0038 3500000A 		beq	.L6
 108              		.loc 1 132 7 is_stmt 0 view .LVU31
 109 003c 050053E3 		cmp	r3, #5
 110 0040 1F00000A 		beq	.L7
 111 0044 000053E3 		cmp	r3, #0
 112 0048 1700000A 		beq	.L26
 113              	.LVL5:
 114              	.L9:
ARM GAS  /tmp/ccKrtkMt.s 			page 3


 115              		.loc 1 166 5 is_stmt 1 view .LVU32
 116              	.LBB28:
 117              	.LBI28:
 118              		.file 2 "../os/kernel/include/chinline.h"
 119              		.loc 2 34 20 view .LVU33
 120              	.LBB29:
 121              		.loc 2 36 3 view .LVU34
 122              		.loc 2 36 11 is_stmt 0 view .LVU35
 123 004c 0530A0E1 		mov	r3, r5
 124 0050 030000EA 		b	.L17
 125              	.LVL6:
 126              	.L27:
 127              		.loc 2 39 34 view .LVU36
 128 0054 081093E5 		ldr	r1, [r3, #8]
 129 0058 082094E5 		ldr	r2, [r4, #8]
 130 005c 020051E1 		cmp	r1, r2
 131 0060 0200003A 		bcc	.L16
 132              	.L17:
 133              		.loc 2 37 3 is_stmt 1 view .LVU37
 134              		.loc 2 38 5 view .LVU38
 135              		.loc 2 38 8 is_stmt 0 view .LVU39
 136 0064 003093E5 		ldr	r3, [r3]
 137              	.LVL7:
 138              		.loc 2 39 11 is_stmt 1 view .LVU40
 139              		.loc 2 39 3 is_stmt 0 view .LVU41
 140 0068 030055E1 		cmp	r5, r3
 141 006c F8FFFF1A 		bne	.L27
 142              	.L16:
 143              		.loc 2 40 3 is_stmt 1 view .LVU42
 144              		.loc 2 41 18 is_stmt 0 view .LVU43
 145 0070 042093E5 		ldr	r2, [r3, #4]
 146              		.loc 2 40 14 view .LVU44
 147 0074 003084E5 		str	r3, [r4]
 148              		.loc 2 41 3 is_stmt 1 view .LVU45
 149              		.loc 2 41 14 is_stmt 0 view .LVU46
 150 0078 042084E5 		str	r2, [r4, #4]
 151              		.loc 2 42 3 is_stmt 1 view .LVU47
 152              		.loc 2 42 35 is_stmt 0 view .LVU48
 153 007c 044083E5 		str	r4, [r3, #4]
 154              		.loc 2 42 22 view .LVU49
 155 0080 043094E5 		ldr	r3, [r4, #4]
 156              	.LVL8:
 157              		.loc 2 42 22 view .LVU50
 158              	.LBE29:
 159              	.LBE28:
 160              		.loc 1 168 5 view .LVU51
 161 0084 0400A0E3 		mov	r0, #4
 162              	.LBB31:
 163              	.LBB30:
 164              		.loc 2 42 22 view .LVU52
 165 0088 004083E5 		str	r4, [r3]
 166              	.LVL9:
 167              		.loc 2 42 22 view .LVU53
 168              	.LBE30:
 169              	.LBE31:
 170              		.loc 1 167 5 is_stmt 1 view .LVU54
 171              		.loc 1 167 21 is_stmt 0 view .LVU55
ARM GAS  /tmp/ccKrtkMt.s 			page 4


 172 008c 245084E5 		str	r5, [r4, #36]
 173              		.loc 1 168 5 is_stmt 1 view .LVU56
 174              	.LBE27:
 175              		.loc 1 180 1 is_stmt 0 view .LVU57
 176 0090 7040BDE8 		pop	{r4, r5, r6, lr}
 177              		.cfi_remember_state
 178              		.cfi_restore 14
 179              		.cfi_restore 6
 180              		.cfi_restore 5
 181              		.cfi_restore 4
 182              		.cfi_def_cfa_offset 0
 183              	.LVL10:
 184              	.LBB54:
 185              		.loc 1 168 5 view .LVU58
 186 0094 FEFFFFEA 		b	chSchGoSleepS
 187              	.LVL11:
 188              	.L25:
 189              		.cfi_restore_state
 190              		.loc 1 168 5 view .LVU59
 191              	.LBE54:
 192              		.loc 1 176 5 is_stmt 1 view .LVU60
 193              		.loc 1 177 16 is_stmt 0 view .LVU61
 194 0098 3C3094E5 		ldr	r3, [r4, #60]
 195              		.loc 1 176 17 view .LVU62
 196 009c 084085E5 		str	r4, [r5, #8]
 197              		.loc 1 177 5 is_stmt 1 view .LVU63
 198              		.loc 1 177 16 is_stmt 0 view .LVU64
 199 00a0 0C3085E5 		str	r3, [r5, #12]
 200              		.loc 1 178 5 is_stmt 1 view .LVU65
 201              		.loc 1 178 20 is_stmt 0 view .LVU66
 202 00a4 3C5084E5 		str	r5, [r4, #60]
 203              		.loc 1 180 1 view .LVU67
 204 00a8 7080BDE8 		pop	{r4, r5, r6, pc}
 205              	.LVL12:
 206              	.L26:
 207              	.LBB55:
 208              		.loc 1 160 9 is_stmt 1 view .LVU68
 209              	.LBB32:
 210              	.LBI32:
 211              		.loc 2 66 23 view .LVU69
 212              	.LBB33:
 213              		.loc 2 68 3 view .LVU70
 214              		.loc 2 68 5 is_stmt 0 view .LVU71
 215 00ac 042090E5 		ldr	r2, [r0, #4]
 216              		.loc 2 68 26 view .LVU72
 217 00b0 003090E5 		ldr	r3, [r0]
 218              		.loc 2 68 22 view .LVU73
 219 00b4 003082E5 		str	r3, [r2]
 220              		.loc 2 69 3 is_stmt 1 view .LVU74
 221              		.loc 2 69 22 is_stmt 0 view .LVU75
 222 00b8 042083E5 		str	r2, [r3, #4]
 223              		.loc 2 70 3 is_stmt 1 view .LVU76
 224              	.LVL13:
 225              		.loc 2 70 3 is_stmt 0 view .LVU77
 226              	.LBE33:
 227              	.LBE32:
 228              		.loc 1 160 9 view .LVU78
ARM GAS  /tmp/ccKrtkMt.s 			page 5


 229 00bc FEFFFFEB 		bl	chSchReadyI
 230              	.LVL14:
 231              		.loc 1 161 9 is_stmt 1 view .LVU79
 232 00c0 E1FFFFEA 		b	.L9
 233              	.LVL15:
 234              	.L7:
 235              		.loc 1 151 9 view .LVU80
 236              	.LBB34:
 237              	.LBI34:
 238              		.loc 2 66 23 view .LVU81
 239              	.LBB35:
 240              		.loc 2 68 3 view .LVU82
 241              	.LBE35:
 242              	.LBE34:
 243              		.loc 1 151 57 is_stmt 0 view .LVU83
 244 00c4 24C090E5 		ldr	ip, [r0, #36]
 245              	.LBB38:
 246              	.LBB36:
 247              		.loc 2 68 5 view .LVU84
 248 00c8 04E090E5 		ldr	lr, [r0, #4]
 249              		.loc 2 68 26 view .LVU85
 250 00cc 001090E5 		ldr	r1, [r0]
 251              	.LBE36:
 252              	.LBE38:
 253              	.LBB39:
 254              	.LBB40:
 255              		.loc 2 36 11 view .LVU86
 256 00d0 0C30A0E1 		mov	r3, ip
 257              	.LBE40:
 258              	.LBE39:
 259              	.LBB42:
 260              	.LBB37:
 261              		.loc 2 68 22 view .LVU87
 262 00d4 00108EE5 		str	r1, [lr]
 263              		.loc 2 69 3 is_stmt 1 view .LVU88
 264              		.loc 2 69 22 is_stmt 0 view .LVU89
 265 00d8 04E081E5 		str	lr, [r1, #4]
 266              		.loc 2 70 3 is_stmt 1 view .LVU90
 267              	.LVL16:
 268              		.loc 2 70 3 is_stmt 0 view .LVU91
 269              	.LBE37:
 270              	.LBE42:
 271              	.LBB43:
 272              	.LBI39:
 273              		.loc 2 34 20 is_stmt 1 view .LVU92
 274 00dc 020000EA 		b	.L14
 275              	.LVL17:
 276              	.L28:
 277              	.LBB41:
 278              		.loc 2 39 34 is_stmt 0 view .LVU93
 279 00e0 081093E5 		ldr	r1, [r3, #8]
 280 00e4 010052E1 		cmp	r2, r1
 281 00e8 0200008A 		bhi	.L13
 282              	.LVL18:
 283              	.L14:
 284              		.loc 2 37 3 is_stmt 1 view .LVU94
 285              		.loc 2 38 5 view .LVU95
ARM GAS  /tmp/ccKrtkMt.s 			page 6


 286              		.loc 2 38 8 is_stmt 0 view .LVU96
 287 00ec 003093E5 		ldr	r3, [r3]
 288              	.LVL19:
 289              		.loc 2 39 11 is_stmt 1 view .LVU97
 290              		.loc 2 39 3 is_stmt 0 view .LVU98
 291 00f0 03005CE1 		cmp	ip, r3
 292 00f4 F9FFFF1A 		bne	.L28
 293              	.L13:
 294              		.loc 2 40 3 is_stmt 1 view .LVU99
 295              		.loc 2 41 18 is_stmt 0 view .LVU100
 296 00f8 042093E5 		ldr	r2, [r3, #4]
 297              		.loc 2 40 14 view .LVU101
 298 00fc 003080E5 		str	r3, [r0]
 299              		.loc 2 41 3 is_stmt 1 view .LVU102
 300              		.loc 2 41 14 is_stmt 0 view .LVU103
 301 0100 042080E5 		str	r2, [r0, #4]
 302              		.loc 2 42 3 is_stmt 1 view .LVU104
 303              		.loc 2 42 35 is_stmt 0 view .LVU105
 304 0104 040083E5 		str	r0, [r3, #4]
 305              		.loc 2 42 22 view .LVU106
 306 0108 043090E5 		ldr	r3, [r0, #4]
 307              	.LVL20:
 308              		.loc 2 42 22 view .LVU107
 309 010c 000083E5 		str	r0, [r3]
 310              	.LVL21:
 311              		.loc 2 43 1 view .LVU108
 312 0110 CDFFFFEA 		b	.L9
 313              	.LVL22:
 314              	.L6:
 315              		.loc 2 43 1 view .LVU109
 316              	.LBE41:
 317              	.LBE43:
 318              		.loc 1 135 9 is_stmt 1 view .LVU110
 319              	.LBB44:
 320              	.LBI44:
 321              		.loc 2 66 23 view .LVU111
 322              	.LBB45:
 323              		.loc 2 68 3 view .LVU112
 324              	.LBE45:
 325              	.LBE44:
 326              		.loc 1 135 57 is_stmt 0 view .LVU113
 327 0114 24C090E5 		ldr	ip, [r0, #36]
 328              	.LBB48:
 329              	.LBB46:
 330              		.loc 2 68 5 view .LVU114
 331 0118 04E090E5 		ldr	lr, [r0, #4]
 332              		.loc 2 68 26 view .LVU115
 333 011c 001090E5 		ldr	r1, [r0]
 334              	.LBE46:
 335              	.LBE48:
 336              		.loc 1 135 57 view .LVU116
 337 0120 0C30A0E1 		mov	r3, ip
 338              	.LBB49:
 339              	.LBB47:
 340              		.loc 2 68 22 view .LVU117
 341 0124 00108EE5 		str	r1, [lr]
 342              		.loc 2 69 3 is_stmt 1 view .LVU118
ARM GAS  /tmp/ccKrtkMt.s 			page 7


 343              		.loc 2 69 22 is_stmt 0 view .LVU119
 344 0128 04E081E5 		str	lr, [r1, #4]
 345              		.loc 2 70 3 is_stmt 1 view .LVU120
 346              	.LVL23:
 347              		.loc 2 70 3 is_stmt 0 view .LVU121
 348              	.LBE47:
 349              	.LBE49:
 350              	.LBB50:
 351              	.LBI50:
 352              		.loc 2 34 20 is_stmt 1 view .LVU122
 353 012c 020000EA 		b	.L11
 354              	.LVL24:
 355              	.L29:
 356              	.LBB51:
 357              		.loc 2 39 34 is_stmt 0 view .LVU123
 358 0130 081093E5 		ldr	r1, [r3, #8]
 359 0134 010052E1 		cmp	r2, r1
 360 0138 0200008A 		bhi	.L10
 361              	.LVL25:
 362              	.L11:
 363              		.loc 2 37 3 is_stmt 1 view .LVU124
 364              		.loc 2 38 5 view .LVU125
 365              		.loc 2 38 8 is_stmt 0 view .LVU126
 366 013c 003093E5 		ldr	r3, [r3]
 367              	.LVL26:
 368              		.loc 2 39 11 is_stmt 1 view .LVU127
 369              		.loc 2 39 3 is_stmt 0 view .LVU128
 370 0140 03005CE1 		cmp	ip, r3
 371 0144 F9FFFF1A 		bne	.L29
 372              	.L10:
 373              		.loc 2 40 3 is_stmt 1 view .LVU129
 374              		.loc 2 41 18 is_stmt 0 view .LVU130
 375 0148 042093E5 		ldr	r2, [r3, #4]
 376              		.loc 2 40 14 view .LVU131
 377 014c 003080E5 		str	r3, [r0]
 378              		.loc 2 41 3 is_stmt 1 view .LVU132
 379              		.loc 2 41 14 is_stmt 0 view .LVU133
 380 0150 042080E5 		str	r2, [r0, #4]
 381              		.loc 2 42 3 is_stmt 1 view .LVU134
 382              		.loc 2 42 35 is_stmt 0 view .LVU135
 383 0154 040083E5 		str	r0, [r3, #4]
 384              		.loc 2 42 22 view .LVU136
 385 0158 043090E5 		ldr	r3, [r0, #4]
 386              	.LVL27:
 387              		.loc 2 42 22 view .LVU137
 388              	.LBE51:
 389              	.LBE50:
 390              		.loc 1 128 28 view .LVU138
 391 015c 082094E5 		ldr	r2, [r4, #8]
 392              	.LBB53:
 393              	.LBB52:
 394              		.loc 2 42 22 view .LVU139
 395 0160 000083E5 		str	r0, [r3]
 396              	.LVL28:
 397              		.loc 2 42 22 view .LVU140
 398              	.LBE52:
 399              	.LBE53:
ARM GAS  /tmp/ccKrtkMt.s 			page 8


 400              		.loc 1 136 9 is_stmt 1 view .LVU141
 401              		.loc 1 136 12 is_stmt 0 view .LVU142
 402 0164 08009CE5 		ldr	r0, [ip, #8]
 403              	.LVL29:
 404              		.loc 1 137 9 is_stmt 1 view .LVU143
 405              		.loc 1 128 11 view .LVU144
 406 0168 083090E5 		ldr	r3, [r0, #8]
 407 016c 020053E1 		cmp	r3, r2
 408 0170 ADFFFF3A 		bcc	.L12
 409 0174 B4FFFFEA 		b	.L9
 410              	.L31:
 411              		.align	2
 412              	.L30:
 413 0178 00000000 		.word	rlist
 414              	.LBE55:
 415              		.cfi_endproc
 416              	.LFE9:
 417              		.size	chMtxLockS, .-chMtxLockS
 418              		.section	.text.chMtxLock,"ax",%progbits
 419              		.align	2
 420              		.global	chMtxLock
 421              		.syntax unified
 422              		.arm
 423              		.fpu softvfp
 424              		.type	chMtxLock, %function
 425              	chMtxLock:
 426              	.LVL30:
 427              	.LFB8:
 428              		.loc 1 96 27 view -0
 429              		.cfi_startproc
 430              		@ args = 0, pretend = 0, frame = 0
 431              		@ frame_needed = 0, uses_anonymous_args = 0
 432              		.loc 1 98 3 view .LVU146
 433              		.loc 1 96 27 is_stmt 0 view .LVU147
 434 0000 10402DE9 		push	{r4, lr}
 435              		.cfi_def_cfa_offset 8
 436              		.cfi_offset 4, -8
 437              		.cfi_offset 14, -4
 438              		.loc 1 98 3 view .LVU148
 439              		.syntax divided
 440              	@ 98 "../os/kernel/src/chmtx.c" 1
 441 0004 9FF021E3 		msr     CPSR_c, #0x9F
 442              	@ 0 "" 2
 443              		.loc 1 98 3 is_stmt 1 view .LVU149
 444              		.loc 1 98 14 view .LVU150
 445              		.loc 1 100 3 view .LVU151
 446              		.arm
 447              		.syntax unified
 448 0008 FEFFFFEB 		bl	chMtxLockS
 449              	.LVL31:
 450              		.loc 1 102 3 view .LVU152
 451              		.loc 1 102 3 view .LVU153
 452              		.syntax divided
 453              	@ 102 "../os/kernel/src/chmtx.c" 1
 454 000c 1FF021E3 		msr     CPSR_c, #0x1F
 455              	@ 0 "" 2
 456              		.loc 1 102 16 view .LVU154
ARM GAS  /tmp/ccKrtkMt.s 			page 9


 457              		.loc 1 103 1 is_stmt 0 view .LVU155
 458              		.arm
 459              		.syntax unified
 460 0010 1080BDE8 		pop	{r4, pc}
 461              		.cfi_endproc
 462              	.LFE8:
 463              		.size	chMtxLock, .-chMtxLock
 464              		.section	.text.chMtxTryLock,"ax",%progbits
 465              		.align	2
 466              		.global	chMtxTryLock
 467              		.syntax unified
 468              		.arm
 469              		.fpu softvfp
 470              		.type	chMtxTryLock, %function
 471              	chMtxTryLock:
 472              	.LVL32:
 473              	.LFB10:
 474              		.loc 1 199 32 is_stmt 1 view -0
 475              		.cfi_startproc
 476              		@ args = 0, pretend = 0, frame = 0
 477              		@ frame_needed = 0, uses_anonymous_args = 0
 478              		@ link register save eliminated.
 479              		.loc 1 200 3 view .LVU157
 480              		.loc 1 202 3 view .LVU158
 481              		.loc 1 199 32 is_stmt 0 view .LVU159
 482 0000 0030A0E1 		mov	r3, r0
 483              		.loc 1 202 3 view .LVU160
 484              		.syntax divided
 485              	@ 202 "../os/kernel/src/chmtx.c" 1
 486 0004 9FF021E3 		msr     CPSR_c, #0x9F
 487              	@ 0 "" 2
 488              		.loc 1 202 3 is_stmt 1 view .LVU161
 489              		.loc 1 202 14 view .LVU162
 490              		.loc 1 204 3 view .LVU163
 491              	.LVL33:
 492              		.arm
 493              		.syntax unified
 494              	.LBB60:
 495              	.LBI60:
 496              		.loc 1 227 8 view .LVU164
 497              	.LBB61:
 498              		.loc 1 229 3 view .LVU165
 499              		.loc 1 229 21 view .LVU166
 500              		.loc 1 230 3 view .LVU167
 501              		.loc 1 230 42 view .LVU168
 502              		.loc 1 232 3 view .LVU169
 503              		.loc 1 232 6 is_stmt 0 view .LVU170
 504 0008 082090E5 		ldr	r2, [r0, #8]
 505 000c 000052E3 		cmp	r2, #0
 506              	.LVL34:
 507              	.LBB62:
 508              	.LBI62:
 509              		.loc 1 227 8 is_stmt 1 view .LVU171
 510              	.LBB63:
 511              		.loc 1 234 3 view .LVU172
 512              		.loc 1 234 17 is_stmt 0 view .LVU173
 513 0010 20209F05 		ldreq	r2, .L37
ARM GAS  /tmp/ccKrtkMt.s 			page 10


 514              		.loc 1 236 20 view .LVU174
 515 0014 0100A003 		moveq	r0, #1
 516              	.LVL35:
 517              		.loc 1 234 17 view .LVU175
 518 0018 18209205 		ldreq	r2, [r2, #24]
 519              	.LBE63:
 520              	.LBE62:
 521              		.loc 1 233 12 view .LVU176
 522 001c 0000A013 		movne	r0, #0
 523              	.LBB65:
 524              	.LBB64:
 525              		.loc 1 235 14 view .LVU177
 526 0020 3C109205 		ldreq	r1, [r2, #60]
 527              		.loc 1 234 15 view .LVU178
 528 0024 08208305 		streq	r2, [r3, #8]
 529              		.loc 1 235 3 is_stmt 1 view .LVU179
 530              		.loc 1 235 14 is_stmt 0 view .LVU180
 531 0028 0C108305 		streq	r1, [r3, #12]
 532              		.loc 1 236 3 is_stmt 1 view .LVU181
 533              		.loc 1 236 20 is_stmt 0 view .LVU182
 534 002c 3C308205 		streq	r3, [r2, #60]
 535              		.loc 1 237 3 is_stmt 1 view .LVU183
 536              	.LVL36:
 537              		.loc 1 237 3 is_stmt 0 view .LVU184
 538              	.LBE64:
 539              	.LBE65:
 540              	.LBE61:
 541              	.LBE60:
 542              		.loc 1 206 3 is_stmt 1 view .LVU185
 543              		.loc 1 206 3 view .LVU186
 544              		.syntax divided
 545              	@ 206 "../os/kernel/src/chmtx.c" 1
 546 0030 1FF021E3 		msr     CPSR_c, #0x1F
 547              	@ 0 "" 2
 548              		.loc 1 206 16 view .LVU187
 549              		.loc 1 207 3 view .LVU188
 550              		.loc 1 208 1 is_stmt 0 view .LVU189
 551              		.arm
 552              		.syntax unified
 553 0034 1EFF2FE1 		bx	lr
 554              	.L38:
 555              		.align	2
 556              	.L37:
 557 0038 00000000 		.word	rlist
 558              		.cfi_endproc
 559              	.LFE10:
 560              		.size	chMtxTryLock, .-chMtxTryLock
 561              		.section	.text.chMtxTryLockS,"ax",%progbits
 562              		.align	2
 563              		.global	chMtxTryLockS
 564              		.syntax unified
 565              		.arm
 566              		.fpu softvfp
 567              		.type	chMtxTryLockS, %function
 568              	chMtxTryLockS:
 569              	.LVL37:
 570              	.LFB11:
ARM GAS  /tmp/ccKrtkMt.s 			page 11


 571              		.loc 1 227 33 is_stmt 1 view -0
 572              		.cfi_startproc
 573              		@ args = 0, pretend = 0, frame = 0
 574              		@ frame_needed = 0, uses_anonymous_args = 0
 575              		@ link register save eliminated.
 576              		.loc 1 229 3 view .LVU191
 577              		.loc 1 229 21 view .LVU192
 578              		.loc 1 230 3 view .LVU193
 579              		.loc 1 230 42 view .LVU194
 580              		.loc 1 232 3 view .LVU195
 581              		.loc 1 227 33 is_stmt 0 view .LVU196
 582 0000 0030A0E1 		mov	r3, r0
 583              		.loc 1 232 6 view .LVU197
 584 0004 082090E5 		ldr	r2, [r0, #8]
 585 0008 000052E3 		cmp	r2, #0
 586              	.LVL38:
 587              	.LBB68:
 588              	.LBI68:
 589              		.loc 1 227 8 is_stmt 1 view .LVU198
 590              	.LBB69:
 591              		.loc 1 234 3 view .LVU199
 592              		.loc 1 234 17 is_stmt 0 view .LVU200
 593 000c 1C209F05 		ldreq	r2, .L42
 594              		.loc 1 236 20 view .LVU201
 595 0010 0100A003 		moveq	r0, #1
 596              	.LVL39:
 597              		.loc 1 234 17 view .LVU202
 598 0014 18209205 		ldreq	r2, [r2, #24]
 599              	.LBE69:
 600              	.LBE68:
 601              		.loc 1 233 12 view .LVU203
 602 0018 0000A013 		movne	r0, #0
 603              	.LBB71:
 604              	.LBB70:
 605              		.loc 1 235 14 view .LVU204
 606 001c 3C109205 		ldreq	r1, [r2, #60]
 607              		.loc 1 234 15 view .LVU205
 608 0020 08208305 		streq	r2, [r3, #8]
 609              		.loc 1 235 3 is_stmt 1 view .LVU206
 610              		.loc 1 235 14 is_stmt 0 view .LVU207
 611 0024 0C108305 		streq	r1, [r3, #12]
 612              		.loc 1 236 3 is_stmt 1 view .LVU208
 613              		.loc 1 236 20 is_stmt 0 view .LVU209
 614 0028 3C308205 		streq	r3, [r2, #60]
 615              		.loc 1 237 3 is_stmt 1 view .LVU210
 616              	.LVL40:
 617              		.loc 1 237 3 is_stmt 0 view .LVU211
 618              	.LBE70:
 619              	.LBE71:
 620              		.loc 1 238 1 view .LVU212
 621 002c 1EFF2FE1 		bx	lr
 622              	.L43:
 623              		.align	2
 624              	.L42:
 625 0030 00000000 		.word	rlist
 626              		.cfi_endproc
 627              	.LFE11:
ARM GAS  /tmp/ccKrtkMt.s 			page 12


 628              		.size	chMtxTryLockS, .-chMtxTryLockS
 629              		.section	.text.chMtxUnlock,"ax",%progbits
 630              		.align	2
 631              		.global	chMtxUnlock
 632              		.syntax unified
 633              		.arm
 634              		.fpu softvfp
 635              		.type	chMtxUnlock, %function
 636              	chMtxUnlock:
 637              	.LFB12:
 638              		.loc 1 250 26 is_stmt 1 view -0
 639              		.cfi_startproc
 640              		@ args = 0, pretend = 0, frame = 0
 641              		@ frame_needed = 0, uses_anonymous_args = 0
 642              		.loc 1 251 3 view .LVU214
 643              		.loc 1 251 11 is_stmt 0 view .LVU215
 644 0000 90309FE5 		ldr	r3, .L55
 645              		.loc 1 250 26 view .LVU216
 646 0004 10402DE9 		push	{r4, lr}
 647              		.cfi_def_cfa_offset 8
 648              		.cfi_offset 4, -8
 649              		.cfi_offset 14, -4
 650              		.loc 1 251 11 view .LVU217
 651 0008 18C093E5 		ldr	ip, [r3, #24]
 652              	.LVL41:
 653              		.loc 1 252 3 is_stmt 1 view .LVU218
 654              		.loc 1 254 3 view .LVU219
 655              		.syntax divided
 656              	@ 254 "../os/kernel/src/chmtx.c" 1
 657 000c 9FF021E3 		msr     CPSR_c, #0x9F
 658              	@ 0 "" 2
 659              		.loc 1 254 3 view .LVU220
 660              		.loc 1 254 14 view .LVU221
 661              		.loc 1 255 3 view .LVU222
 662              		.arm
 663              		.syntax unified
 664 0010 3C409CE5 		ldr	r4, [ip, #60]
 665              		.loc 1 257 42 view .LVU223
 666              		.loc 1 258 3 view .LVU224
 667              		.loc 1 260 35 view .LVU225
 668              		.loc 1 263 3 view .LVU226
 669              	.LVL42:
 670              		.loc 1 264 3 view .LVU227
 671              		.loc 1 266 7 is_stmt 0 view .LVU228
 672 0014 000094E5 		ldr	r0, [r4]
 673              		.loc 1 264 23 view .LVU229
 674 0018 0C3094E5 		ldr	r3, [r4, #12]
 675              		.loc 1 266 6 view .LVU230
 676 001c 040050E1 		cmp	r0, r4
 677              		.loc 1 264 18 view .LVU231
 678 0020 3C308CE5 		str	r3, [ip, #60]
 679              		.loc 1 266 3 is_stmt 1 view .LVU232
 680              		.loc 1 266 6 is_stmt 0 view .LVU233
 681 0024 1800000A 		beq	.L45
 682              	.LBB72:
 683              		.loc 1 267 5 is_stmt 1 view .LVU234
 684              		.loc 1 271 5 view .LVU235
ARM GAS  /tmp/ccKrtkMt.s 			page 13


 685              		.loc 1 273 11 is_stmt 0 view .LVU236
 686 0028 000053E3 		cmp	r3, #0
 687              		.loc 1 271 13 view .LVU237
 688 002c 40109CE5 		ldr	r1, [ip, #64]
 689              	.LVL43:
 690              		.loc 1 272 5 is_stmt 1 view .LVU238
 691              		.loc 1 273 5 view .LVU239
 692              		.loc 1 273 11 view .LVU240
 693 0030 0800000A 		beq	.L46
 694              	.L48:
 695              		.loc 1 277 7 view .LVU241
 696              		.loc 1 277 11 is_stmt 0 view .LVU242
 697 0034 002093E5 		ldr	r2, [r3]
 698              		.loc 1 277 10 view .LVU243
 699 0038 030052E1 		cmp	r2, r3
 700 003c 0200000A 		beq	.L47
 701              		.loc 1 277 10 view .LVU244
 702 0040 082092E5 		ldr	r2, [r2, #8]
 703 0044 020051E1 		cmp	r1, r2
 704 0048 0210A031 		movcc	r1, r2
 705              	.LVL44:
 706              	.L47:
 707              		.loc 1 279 7 is_stmt 1 view .LVU245
 708              		.loc 1 279 10 is_stmt 0 view .LVU246
 709 004c 0C3093E5 		ldr	r3, [r3, #12]
 710              	.LVL45:
 711              		.loc 1 273 11 is_stmt 1 view .LVU247
 712 0050 000053E3 		cmp	r3, #0
 713 0054 F6FFFF1A 		bne	.L48
 714              	.L46:
 715              		.loc 1 283 5 view .LVU248
 716              		.loc 1 288 17 is_stmt 0 view .LVU249
 717 0058 3C2090E5 		ldr	r2, [r0, #60]
 718              	.LBB73:
 719              	.LBB74:
 720              		.loc 2 55 20 view .LVU250
 721 005c 003090E5 		ldr	r3, [r0]
 722              	.LVL46:
 723              		.loc 2 55 20 view .LVU251
 724              	.LBE74:
 725              	.LBE73:
 726              		.loc 1 283 17 view .LVU252
 727 0060 08108CE5 		str	r1, [ip, #8]
 728              		.loc 1 286 5 is_stmt 1 view .LVU253
 729              	.LVL47:
 730              	.LBB77:
 731              	.LBI73:
 732              		.loc 2 52 23 view .LVU254
 733              	.LBB75:
 734              		.loc 2 53 3 view .LVU255
 735              		.loc 2 55 3 view .LVU256
 736              		.loc 2 55 16 is_stmt 0 view .LVU257
 737 0064 003084E5 		str	r3, [r4]
 738              	.LBE75:
 739              	.LBE77:
 740              		.loc 1 290 5 view .LVU258
 741 0068 0010A0E3 		mov	r1, #0
ARM GAS  /tmp/ccKrtkMt.s 			page 14


 742              	.LVL48:
 743              	.LBB78:
 744              	.LBB76:
 745              		.loc 2 55 38 view .LVU259
 746 006c 044083E5 		str	r4, [r3, #4]
 747              		.loc 2 56 3 is_stmt 1 view .LVU260
 748              	.LVL49:
 749              		.loc 2 56 3 is_stmt 0 view .LVU261
 750              	.LBE76:
 751              	.LBE78:
 752              		.loc 1 287 5 is_stmt 1 view .LVU262
 753              		.loc 1 287 18 is_stmt 0 view .LVU263
 754 0070 080084E5 		str	r0, [r4, #8]
 755              		.loc 1 288 5 is_stmt 1 view .LVU264
 756              		.loc 1 288 17 is_stmt 0 view .LVU265
 757 0074 0C2084E5 		str	r2, [r4, #12]
 758              		.loc 1 289 5 is_stmt 1 view .LVU266
 759              		.loc 1 289 19 is_stmt 0 view .LVU267
 760 0078 3C4080E5 		str	r4, [r0, #60]
 761              		.loc 1 290 5 is_stmt 1 view .LVU268
 762 007c FEFFFFEB 		bl	chSchWakeupS
 763              	.LVL50:
 764              	.L49:
 765              		.loc 1 290 5 is_stmt 0 view .LVU269
 766              	.LBE72:
 767              		.loc 1 294 3 is_stmt 1 view .LVU270
 768              		.loc 1 294 3 view .LVU271
 769              		.syntax divided
 770              	@ 294 "../os/kernel/src/chmtx.c" 1
 771 0080 1FF021E3 		msr     CPSR_c, #0x1F
 772              	@ 0 "" 2
 773              		.loc 1 294 16 view .LVU272
 774              		.loc 1 295 3 view .LVU273
 775              		.loc 1 296 1 is_stmt 0 view .LVU274
 776              		.arm
 777              		.syntax unified
 778 0084 0400A0E1 		mov	r0, r4
 779 0088 1080BDE8 		pop	{r4, pc}
 780              	.LVL51:
 781              	.L45:
 782              		.loc 1 293 5 is_stmt 1 view .LVU275
 783              		.loc 1 293 18 is_stmt 0 view .LVU276
 784 008c 0030A0E3 		mov	r3, #0
 785 0090 083084E5 		str	r3, [r4, #8]
 786 0094 F9FFFFEA 		b	.L49
 787              	.L56:
 788              		.align	2
 789              	.L55:
 790 0098 00000000 		.word	rlist
 791              		.cfi_endproc
 792              	.LFE12:
 793              		.size	chMtxUnlock, .-chMtxUnlock
 794              		.section	.text.chMtxUnlockS,"ax",%progbits
 795              		.align	2
 796              		.global	chMtxUnlockS
 797              		.syntax unified
 798              		.arm
ARM GAS  /tmp/ccKrtkMt.s 			page 15


 799              		.fpu softvfp
 800              		.type	chMtxUnlockS, %function
 801              	chMtxUnlockS:
 802              	.LFB13:
 803              		.loc 1 310 27 is_stmt 1 view -0
 804              		.cfi_startproc
 805              		@ args = 0, pretend = 0, frame = 0
 806              		@ frame_needed = 0, uses_anonymous_args = 0
 807              		.loc 1 311 3 view .LVU278
 808              		.loc 1 311 11 is_stmt 0 view .LVU279
 809 0000 88309FE5 		ldr	r3, .L68
 810              		.loc 1 310 27 view .LVU280
 811 0004 10402DE9 		push	{r4, lr}
 812              		.cfi_def_cfa_offset 8
 813              		.cfi_offset 4, -8
 814              		.cfi_offset 14, -4
 815              		.loc 1 311 11 view .LVU281
 816 0008 18C093E5 		ldr	ip, [r3, #24]
 817              	.LVL52:
 818              		.loc 1 312 3 is_stmt 1 view .LVU282
 819              		.loc 1 314 3 view .LVU283
 820              		.loc 1 314 21 view .LVU284
 821              		.loc 1 315 3 view .LVU285
 822 000c 3C409CE5 		ldr	r4, [ip, #60]
 823              		.loc 1 317 42 view .LVU286
 824              		.loc 1 318 3 view .LVU287
 825              		.loc 1 320 35 view .LVU288
 826              		.loc 1 324 3 view .LVU289
 827              	.LVL53:
 828              		.loc 1 325 3 view .LVU290
 829              		.loc 1 327 7 is_stmt 0 view .LVU291
 830 0010 000094E5 		ldr	r0, [r4]
 831              		.loc 1 325 23 view .LVU292
 832 0014 0C3094E5 		ldr	r3, [r4, #12]
 833              		.loc 1 327 6 view .LVU293
 834 0018 040050E1 		cmp	r0, r4
 835              		.loc 1 325 18 view .LVU294
 836 001c 3C308CE5 		str	r3, [ip, #60]
 837              		.loc 1 327 3 is_stmt 1 view .LVU295
 838              		.loc 1 327 6 is_stmt 0 view .LVU296
 839 0020 1600000A 		beq	.L58
 840              	.LBB79:
 841              		.loc 1 328 5 is_stmt 1 view .LVU297
 842              		.loc 1 332 5 view .LVU298
 843              		.loc 1 334 11 is_stmt 0 view .LVU299
 844 0024 000053E3 		cmp	r3, #0
 845              		.loc 1 332 13 view .LVU300
 846 0028 40109CE5 		ldr	r1, [ip, #64]
 847              	.LVL54:
 848              		.loc 1 333 5 is_stmt 1 view .LVU301
 849              		.loc 1 334 5 view .LVU302
 850              		.loc 1 334 11 view .LVU303
 851 002c 0800000A 		beq	.L59
 852              	.L61:
 853              		.loc 1 338 7 view .LVU304
 854              		.loc 1 338 11 is_stmt 0 view .LVU305
 855 0030 002093E5 		ldr	r2, [r3]
ARM GAS  /tmp/ccKrtkMt.s 			page 16


 856              		.loc 1 338 10 view .LVU306
 857 0034 030052E1 		cmp	r2, r3
 858 0038 0200000A 		beq	.L60
 859              		.loc 1 338 10 view .LVU307
 860 003c 082092E5 		ldr	r2, [r2, #8]
 861 0040 020051E1 		cmp	r1, r2
 862 0044 0210A031 		movcc	r1, r2
 863              	.LVL55:
 864              	.L60:
 865              		.loc 1 340 7 is_stmt 1 view .LVU308
 866              		.loc 1 340 10 is_stmt 0 view .LVU309
 867 0048 0C3093E5 		ldr	r3, [r3, #12]
 868              	.LVL56:
 869              		.loc 1 334 11 is_stmt 1 view .LVU310
 870 004c 000053E3 		cmp	r3, #0
 871 0050 F6FFFF1A 		bne	.L61
 872              	.L59:
 873              		.loc 1 342 5 view .LVU311
 874              		.loc 1 347 17 is_stmt 0 view .LVU312
 875 0054 3C2090E5 		ldr	r2, [r0, #60]
 876              	.LBB80:
 877              	.LBB81:
 878              		.loc 2 55 20 view .LVU313
 879 0058 003090E5 		ldr	r3, [r0]
 880              	.LVL57:
 881              		.loc 2 55 20 view .LVU314
 882              	.LBE81:
 883              	.LBE80:
 884              		.loc 1 342 17 view .LVU315
 885 005c 08108CE5 		str	r1, [ip, #8]
 886              		.loc 1 345 5 is_stmt 1 view .LVU316
 887              	.LVL58:
 888              	.LBB83:
 889              	.LBI80:
 890              		.loc 2 52 23 view .LVU317
 891              	.LBB82:
 892              		.loc 2 53 3 view .LVU318
 893              		.loc 2 55 3 view .LVU319
 894              		.loc 2 55 16 is_stmt 0 view .LVU320
 895 0060 003084E5 		str	r3, [r4]
 896              		.loc 2 55 38 view .LVU321
 897 0064 044083E5 		str	r4, [r3, #4]
 898              		.loc 2 56 3 is_stmt 1 view .LVU322
 899              	.LVL59:
 900              		.loc 2 56 3 is_stmt 0 view .LVU323
 901              	.LBE82:
 902              	.LBE83:
 903              		.loc 1 346 5 is_stmt 1 view .LVU324
 904              		.loc 1 346 18 is_stmt 0 view .LVU325
 905 0068 080084E5 		str	r0, [r4, #8]
 906              		.loc 1 347 5 is_stmt 1 view .LVU326
 907              		.loc 1 347 17 is_stmt 0 view .LVU327
 908 006c 0C2084E5 		str	r2, [r4, #12]
 909              		.loc 1 348 5 is_stmt 1 view .LVU328
 910              		.loc 1 348 19 is_stmt 0 view .LVU329
 911 0070 3C4080E5 		str	r4, [r0, #60]
 912              		.loc 1 349 5 is_stmt 1 view .LVU330
ARM GAS  /tmp/ccKrtkMt.s 			page 17


 913 0074 FEFFFFEB 		bl	chSchReadyI
 914              	.LVL60:
 915              		.loc 1 349 5 is_stmt 0 view .LVU331
 916              	.LBE79:
 917              		.loc 1 354 1 view .LVU332
 918 0078 0400A0E1 		mov	r0, r4
 919 007c 1080BDE8 		pop	{r4, pc}
 920              	.LVL61:
 921              	.L58:
 922              		.loc 1 352 5 is_stmt 1 view .LVU333
 923              		.loc 1 352 18 is_stmt 0 view .LVU334
 924 0080 0030A0E3 		mov	r3, #0
 925              		.loc 1 354 1 view .LVU335
 926 0084 0400A0E1 		mov	r0, r4
 927              		.loc 1 352 18 view .LVU336
 928 0088 083084E5 		str	r3, [r4, #8]
 929              		.loc 1 353 3 is_stmt 1 view .LVU337
 930              		.loc 1 354 1 is_stmt 0 view .LVU338
 931 008c 1080BDE8 		pop	{r4, pc}
 932              	.L69:
 933              		.align	2
 934              	.L68:
 935 0090 00000000 		.word	rlist
 936              		.cfi_endproc
 937              	.LFE13:
 938              		.size	chMtxUnlockS, .-chMtxUnlockS
 939              		.section	.text.chMtxUnlockAll,"ax",%progbits
 940              		.align	2
 941              		.global	chMtxUnlockAll
 942              		.syntax unified
 943              		.arm
 944              		.fpu softvfp
 945              		.type	chMtxUnlockAll, %function
 946              	chMtxUnlockAll:
 947              	.LFB14:
 948              		.loc 1 367 27 is_stmt 1 view -0
 949              		.cfi_startproc
 950              		@ args = 0, pretend = 0, frame = 0
 951              		@ frame_needed = 0, uses_anonymous_args = 0
 952              		.loc 1 368 3 view .LVU340
 953              		.loc 1 368 11 is_stmt 0 view .LVU341
 954 0000 70309FE5 		ldr	r3, .L80
 955              		.loc 1 367 27 view .LVU342
 956 0004 70402DE9 		push	{r4, r5, r6, lr}
 957              		.cfi_def_cfa_offset 16
 958              		.cfi_offset 4, -16
 959              		.cfi_offset 5, -12
 960              		.cfi_offset 6, -8
 961              		.cfi_offset 14, -4
 962              		.loc 1 368 11 view .LVU343
 963 0008 184093E5 		ldr	r4, [r3, #24]
 964              	.LVL62:
 965              		.loc 1 370 3 is_stmt 1 view .LVU344
 966              		.syntax divided
 967              	@ 370 "../os/kernel/src/chmtx.c" 1
 968 000c 9FF021E3 		msr     CPSR_c, #0x9F
 969              	@ 0 "" 2
ARM GAS  /tmp/ccKrtkMt.s 			page 18


 970              		.loc 1 370 3 view .LVU345
 971              		.loc 1 370 14 view .LVU346
 972              		.loc 1 371 3 view .LVU347
 973              		.loc 1 371 10 is_stmt 0 view .LVU348
 974              		.arm
 975              		.syntax unified
 976 0010 3C3094E5 		ldr	r3, [r4, #60]
 977              		.loc 1 371 6 view .LVU349
 978 0014 000053E3 		cmp	r3, #0
 979 0018 1400000A 		beq	.L71
 980              	.LBB84:
 981              		.loc 1 383 22 view .LVU350
 982 001c 0050A0E3 		mov	r5, #0
 983              	.L74:
 984              		.loc 1 383 22 view .LVU351
 985              	.LBE84:
 986              		.loc 1 372 5 is_stmt 1 view .LVU352
 987              	.LBB94:
 988              		.loc 1 373 7 view .LVU353
 989              	.LVL63:
 990              		.loc 1 374 7 view .LVU354
 991              	.LBB85:
 992              		.loc 1 376 9 view .LVU355
 993              	.LBB86:
 994              	.LBI86:
 995              		.loc 2 52 23 view .LVU356
 996              	.LBB87:
 997              		.loc 2 53 3 view .LVU357
 998              	.LBE87:
 999              	.LBE86:
 1000              	.LBE85:
 1001              		.loc 1 383 9 view .LVU358
 1002              		.loc 1 375 11 is_stmt 0 view .LVU359
 1003 0020 000093E5 		ldr	r0, [r3]
 1004              	.LVL64:
 1005              	.LBB92:
 1006              	.LBB90:
 1007              	.LBB88:
 1008              		.loc 2 55 3 is_stmt 1 view .LVU360
 1009              	.LBE88:
 1010              	.LBE90:
 1011              	.LBE92:
 1012              		.loc 1 374 27 is_stmt 0 view .LVU361
 1013 0024 0C2093E5 		ldr	r2, [r3, #12]
 1014              		.loc 1 375 10 view .LVU362
 1015 0028 030050E1 		cmp	r0, r3
 1016              		.loc 1 374 22 view .LVU363
 1017 002c 3C2084E5 		str	r2, [r4, #60]
 1018              	.LVL65:
 1019              		.loc 1 375 7 is_stmt 1 view .LVU364
 1020              		.loc 1 383 22 is_stmt 0 view .LVU365
 1021 0030 08508305 		streq	r5, [r3, #8]
 1022 0034 0230A001 		moveq	r3, r2
 1023              	.LVL66:
 1024              		.loc 1 375 10 view .LVU366
 1025 0038 0700000A 		beq	.L73
 1026              	.LBB93:
ARM GAS  /tmp/ccKrtkMt.s 			page 19


 1027              		.loc 1 378 21 view .LVU367
 1028 003c 3C1090E5 		ldr	r1, [r0, #60]
 1029              	.LBB91:
 1030              	.LBB89:
 1031              		.loc 2 55 20 view .LVU368
 1032 0040 002090E5 		ldr	r2, [r0]
 1033              		.loc 2 55 16 view .LVU369
 1034 0044 002083E5 		str	r2, [r3]
 1035              		.loc 2 55 38 view .LVU370
 1036 0048 043082E5 		str	r3, [r2, #4]
 1037              		.loc 2 56 3 is_stmt 1 view .LVU371
 1038              	.LVL67:
 1039              		.loc 2 56 3 is_stmt 0 view .LVU372
 1040              	.LBE89:
 1041              	.LBE91:
 1042              		.loc 1 377 9 is_stmt 1 view .LVU373
 1043              		.loc 1 378 21 is_stmt 0 view .LVU374
 1044 004c F800C3E1 		strd	r0, [r3, #8]
 1045              		.loc 1 379 9 is_stmt 1 view .LVU375
 1046              		.loc 1 379 23 is_stmt 0 view .LVU376
 1047 0050 3C3080E5 		str	r3, [r0, #60]
 1048              		.loc 1 380 9 is_stmt 1 view .LVU377
 1049 0054 FEFFFFEB 		bl	chSchReadyI
 1050              	.LVL68:
 1051              		.loc 1 380 9 is_stmt 0 view .LVU378
 1052 0058 3C3094E5 		ldr	r3, [r4, #60]
 1053              	.L73:
 1054              		.loc 1 380 9 view .LVU379
 1055              	.LBE93:
 1056              	.LBE94:
 1057              		.loc 1 384 13 is_stmt 1 view .LVU380
 1058              		.loc 1 384 5 is_stmt 0 view .LVU381
 1059 005c 000053E3 		cmp	r3, #0
 1060 0060 EEFFFF1A 		bne	.L74
 1061              		.loc 1 385 5 is_stmt 1 view .LVU382
 1062              		.loc 1 385 17 is_stmt 0 view .LVU383
 1063 0064 403094E5 		ldr	r3, [r4, #64]
 1064 0068 083084E5 		str	r3, [r4, #8]
 1065              		.loc 1 386 5 is_stmt 1 view .LVU384
 1066 006c FEFFFFEB 		bl	chSchRescheduleS
 1067              	.LVL69:
 1068              	.L71:
 1069              		.loc 1 388 3 view .LVU385
 1070              		.loc 1 388 3 view .LVU386
 1071              		.syntax divided
 1072              	@ 388 "../os/kernel/src/chmtx.c" 1
 1073 0070 1FF021E3 		msr     CPSR_c, #0x1F
 1074              	@ 0 "" 2
 1075              		.loc 1 388 16 view .LVU387
 1076              		.loc 1 389 1 is_stmt 0 view .LVU388
 1077              		.arm
 1078              		.syntax unified
 1079 0074 7080BDE8 		pop	{r4, r5, r6, pc}
 1080              	.L81:
 1081              		.align	2
 1082              	.L80:
 1083 0078 00000000 		.word	rlist
ARM GAS  /tmp/ccKrtkMt.s 			page 20


 1084              		.cfi_endproc
 1085              	.LFE14:
 1086              		.size	chMtxUnlockAll, .-chMtxUnlockAll
 1087              		.text
 1088              	.Letext0:
 1089              		.file 3 "/usr/lib/gcc/arm-none-eabi/9.2.1/include/stdint.h"
 1090              		.file 4 "../os/ports/GCC/ARM/chtypes.h"
 1091              		.file 5 "../os/kernel/include/chlists.h"
 1092              		.file 6 "../os/kernel/include/chthreads.h"
 1093              		.file 7 "../os/ports/GCC/ARM/chcore.h"
 1094              		.file 8 "../os/kernel/include/chvt.h"
 1095              		.file 9 "../os/kernel/include/chschd.h"
 1096              		.file 10 "../os/kernel/include/chmtx.h"
 1097              		.file 11 "../os/kernel/include/chregistry.h"
 1098              		.file 12 "../os/kernel/include/ch.h"