ARM GAS  /tmp/cc7Piq4n.s 			page 1


   1              		.cpu arm1176jz-s
   2              		.eabi_attribute 20, 1
   3              		.eabi_attribute 21, 1
   4              		.eabi_attribute 23, 3
   5              		.eabi_attribute 24, 1
   6              		.eabi_attribute 25, 1
   7              		.eabi_attribute 26, 1
   8              		.eabi_attribute 30, 2
   9              		.eabi_attribute 34, 1
  10              		.eabi_attribute 18, 4
  11              		.file	"chprintf.c"
  12              		.text
  13              	.Ltext0:
  14              		.cfi_sections	.debug_frame
  15              		.section	.rodata.chprintf.str1.4,"aMS",%progbits,1
  16              		.align	2
  17              	.LC0:
  18 0000 286E756C 		.ascii	"(null)\000"
  18      6C2900
  19              		.global	__aeabi_d2f
  20              		.global	__aeabi_fcmplt
  21              		.global	__aeabi_f2d
  22              		.global	__aeabi_f2iz
  23              		.global	__aeabi_i2d
  24              		.global	__aeabi_dsub
  25              		.global	__aeabi_dmul
  26              		.global	__aeabi_d2iz
  27              		.global	__aeabi_uidivmod
  28              		.section	.text.chprintf,"ax",%progbits
  29              		.align	2
  30              		.global	chprintf
  31              		.arch armv6kz
  32              		.syntax unified
  33              		.arm
  34              		.fpu softvfp
  35              		.type	chprintf, %function
  36              	chprintf:
  37              	.LVL0:
  38              	.LFB10:
  39              		.file 1 "../os/various/chprintf.c"
  40              		.loc 1 112 64 view -0
  41              		.cfi_startproc
  42              		@ args = 4, pretend = 12, frame = 40
  43              		@ frame_needed = 0, uses_anonymous_args = 1
  44              		.loc 1 113 3 view .LVU1
  45              		.loc 1 114 3 view .LVU2
  46              		.loc 1 115 3 view .LVU3
  47              		.loc 1 116 3 view .LVU4
  48              		.loc 1 117 3 view .LVU5
  49              		.loc 1 119 3 view .LVU6
  50              		.loc 1 120 3 view .LVU7
  51              		.loc 1 125 3 view .LVU8
  52              		.loc 1 112 64 is_stmt 0 view .LVU9
  53 0000 0E002DE9 		push	{r1, r2, r3}
  54              		.cfi_def_cfa_offset 12
  55              		.cfi_offset 1, -12
  56              		.cfi_offset 2, -8
ARM GAS  /tmp/cc7Piq4n.s 			page 2


  57              		.cfi_offset 3, -4
  58 0004 F04F2DE9 		push	{r4, r5, r6, r7, r8, r9, r10, fp, lr}
  59              		.cfi_def_cfa_offset 48
  60              		.cfi_offset 4, -48
  61              		.cfi_offset 5, -44
  62              		.cfi_offset 6, -40
  63              		.cfi_offset 7, -36
  64              		.cfi_offset 8, -32
  65              		.cfi_offset 9, -28
  66              		.cfi_offset 10, -24
  67              		.cfi_offset 11, -20
  68              		.cfi_offset 14, -16
  69 0008 28D04DE2 		sub	sp, sp, #40
  70              		.cfi_def_cfa_offset 88
  71              		.loc 1 112 64 view .LVU10
  72 000c 4C809DE5 		ldr	r8, [sp, #76]
  73              		.loc 1 125 3 view .LVU11
  74 0010 50308DE2 		add	r3, sp, #80
  75              		.loc 1 127 13 view .LVU12
  76 0014 0820A0E1 		mov	r2, r8
  77              		.loc 1 127 7 view .LVU13
  78 0018 0110D2E4 		ldrb	r1, [r2], #1	@ zero_extendqisi2
  79              		.loc 1 125 3 view .LVU14
  80 001c 0C308DE5 		str	r3, [sp, #12]
  81              	.LVL1:
  82              		.loc 1 126 3 is_stmt 1 view .LVU15
  83              		.loc 1 127 5 view .LVU16
  84              		.loc 1 128 5 view .LVU17
  85              		.loc 1 128 8 is_stmt 0 view .LVU18
  86 0020 000051E3 		cmp	r1, #0
  87 0024 A900000A 		beq	.L1
  88 0028 0050A0E1 		mov	r5, r0
  89 002c 080000EA 		b	.L2
  90              	.LVL2:
  91              	.L121:
  92              		.loc 1 133 7 is_stmt 1 view .LVU19
  93 0030 003095E5 		ldr	r3, [r5]
  94 0034 0500A0E1 		mov	r0, r5
  95 0038 083093E5 		ldr	r3, [r3, #8]
  96              		.loc 1 134 7 is_stmt 0 view .LVU20
  97 003c 0280A0E1 		mov	r8, r2
  98              		.loc 1 133 7 view .LVU21
  99 0040 33FF2FE1 		blx	r3
 100              	.LVL3:
 101              		.loc 1 134 7 is_stmt 1 view .LVU22
 102              	.L5:
 103              		.loc 1 126 3 view .LVU23
 104              		.loc 1 127 5 view .LVU24
 105              		.loc 1 127 13 is_stmt 0 view .LVU25
 106 0044 0820A0E1 		mov	r2, r8
 107              	.LVL4:
 108              		.loc 1 127 7 view .LVU26
 109 0048 0110D2E4 		ldrb	r1, [r2], #1	@ zero_extendqisi2
 110              	.LVL5:
 111              		.loc 1 128 5 is_stmt 1 view .LVU27
 112              		.loc 1 128 8 is_stmt 0 view .LVU28
 113 004c 000051E3 		cmp	r1, #0
ARM GAS  /tmp/cc7Piq4n.s 			page 3


 114 0050 9E00000A 		beq	.L1
 115              	.LVL6:
 116              	.L2:
 117              		.loc 1 132 5 is_stmt 1 view .LVU29
 118              		.loc 1 132 8 is_stmt 0 view .LVU30
 119 0054 250051E3 		cmp	r1, #37
 120 0058 F4FFFF1A 		bne	.L121
 121              		.loc 1 136 5 is_stmt 1 view .LVU31
 122              	.LVL7:
 123              		.loc 1 137 5 view .LVU32
 124              		.loc 1 138 5 view .LVU33
 125              		.loc 1 139 5 view .LVU34
 126              		.loc 1 143 12 is_stmt 0 view .LVU35
 127 005c 00C0A0E3 		mov	ip, #0
 128              		.loc 1 139 8 view .LVU36
 129 0060 0130D8E5 		ldrb	r3, [r8, #1]	@ zero_extendqisi2
 130              		.loc 1 148 11 view .LVU37
 131 0064 0C40A0E1 		mov	r4, ip
 132              		.loc 1 139 8 view .LVU38
 133 0068 2D0053E3 		cmp	r3, #45
 134              		.loc 1 140 7 is_stmt 1 view .LVU39
 135              		.loc 1 140 10 is_stmt 0 view .LVU40
 136 006c 02208802 		addeq	r2, r8, #2
 137              	.LVL8:
 138              		.loc 1 141 7 is_stmt 1 view .LVU41
 139              		.loc 1 144 9 is_stmt 0 view .LVU42
 140 0070 0010D2E5 		ldrb	r1, [r2]	@ zero_extendqisi2
 141              	.LVL9:
 142              		.loc 1 141 18 view .LVU43
 143 0074 0170A003 		moveq	r7, #1
 144              		.loc 1 138 16 view .LVU44
 145 0078 0070A013 		movne	r7, #0
 146              	.LVL10:
 147              		.loc 1 143 5 is_stmt 1 view .LVU45
 148              		.loc 1 144 5 view .LVU46
 149              		.loc 1 145 7 view .LVU47
 150              		.loc 1 146 7 view .LVU48
 151              		.loc 1 144 8 is_stmt 0 view .LVU49
 152 007c 2E0051E3 		cmp	r1, #46
 153 0080 0110D205 		ldrbeq	r1, [r2, #1]	@ zero_extendqisi2
 154              		.loc 1 145 10 view .LVU50
 155 0084 01208202 		addeq	r2, r2, #1
 156              	.LVL11:
 157              		.loc 1 146 14 view .LVU51
 158 0088 3090A003 		moveq	r9, #48
 159              		.loc 1 143 12 view .LVU52
 160 008c 2090A013 		movne	r9, #32
 161              	.LVL12:
 162              		.loc 1 148 5 is_stmt 1 view .LVU53
 163              		.loc 1 148 5 is_stmt 0 view .LVU54
 164 0090 0C009DE5 		ldr	r0, [sp, #12]
 165 0094 012082E2 		add	r2, r2, #1
 166              	.LVL13:
 167              		.loc 1 148 5 view .LVU55
 168 0098 040000EA 		b	.L10
 169              	.LVL14:
 170              	.L122:
ARM GAS  /tmp/cc7Piq4n.s 			page 4


 171              		.loc 1 154 11 view .LVU56
 172 009c 01C0A0E3 		mov	ip, #1
 173 00a0 043090E4 		ldr	r3, [r0], #4
 174 00a4 7330EFE6 		uxtb	r3, r3
 175              	.LVL15:
 176              	.L8:
 177              		.loc 1 157 7 is_stmt 1 view .LVU57
 178 00a8 0110D2E4 		ldrb	r1, [r2], #1	@ zero_extendqisi2
 179              	.LVL16:
 180              		.loc 1 157 13 is_stmt 0 view .LVU58
 181 00ac 8E4083E0 		add	r4, r3, lr, lsl #1
 182              	.LVL17:
 183              		.loc 1 149 11 is_stmt 1 view .LVU59
 184              	.L10:
 185              		.loc 1 149 5 view .LVU60
 186              		.loc 1 150 7 view .LVU61
 187              		.loc 1 153 12 view .LVU62
 188              		.loc 1 154 9 view .LVU63
 189              		.loc 1 151 20 is_stmt 0 view .LVU64
 190 00b0 303041E2 		sub	r3, r1, #48
 191 00b4 7330EFE6 		uxtb	r3, r3
 192              		.loc 1 151 10 view .LVU65
 193 00b8 090053E3 		cmp	r3, #9
 194              		.loc 1 150 15 view .LVU66
 195 00bc 0280A0E1 		mov	r8, r2
 196              	.LVL18:
 197              		.loc 1 151 7 is_stmt 1 view .LVU67
 198              		.loc 1 157 21 is_stmt 0 view .LVU68
 199 00c0 04E184E0 		add	lr, r4, r4, lsl #2
 200              		.loc 1 151 10 view .LVU69
 201 00c4 F7FFFF9A 		bls	.L8
 202              		.loc 1 153 15 view .LVU70
 203 00c8 2A0051E3 		cmp	r1, #42
 204 00cc F2FFFF0A 		beq	.L122
 205 00d0 00005CE3 		cmp	ip, #0
 206 00d4 0C008D15 		strne	r0, [sp, #12]
 207              	.LVL19:
 208              		.loc 1 159 5 is_stmt 1 view .LVU71
 209              		.loc 1 160 5 view .LVU72
 210              		.loc 1 160 8 is_stmt 0 view .LVU73
 211 00d8 2E0051E3 		cmp	r1, #46
 212              		.loc 1 159 15 view .LVU74
 213 00dc 0020A013 		movne	r2, #0
 214              	.LVL20:
 215              		.loc 1 160 8 view .LVU75
 216 00e0 2F01000A 		beq	.L123
 217              	.LVL21:
 218              	.L12:
 219              		.loc 1 174 5 is_stmt 1 view .LVU76
 220              		.loc 1 174 8 is_stmt 0 view .LVU77
 221 00e4 DF3001E2 		and	r3, r1, #223
 222 00e8 4C0053E3 		cmp	r3, #76
 223 00ec 3C00001A 		bne	.L17
 224              		.loc 1 175 7 is_stmt 1 view .LVU78
 225              	.LVL22:
 226              		.loc 1 176 7 view .LVU79
 227              		.loc 1 176 11 is_stmt 0 view .LVU80
ARM GAS  /tmp/cc7Piq4n.s 			page 5


 228 00f0 0030D8E5 		ldrb	r3, [r8]	@ zero_extendqisi2
 229              		.loc 1 176 10 view .LVU81
 230 00f4 000053E3 		cmp	r3, #0
 231              		.loc 1 177 17 view .LVU82
 232 00f8 0310A011 		movne	r1, r3
 233              	.LVL23:
 234              		.loc 1 177 17 view .LVU83
 235 00fc 443041E2 		sub	r3, r1, #68
 236 0100 01808812 		addne	r8, r8, #1
 237              	.LVL24:
 238              		.loc 1 183 5 is_stmt 1 view .LVU84
 239 0104 340053E3 		cmp	r3, #52
 240 0108 03F19F97 		ldrls	pc, [pc, r3, asl #2]
 241 010c 730000EA 		b	.L19
 242              	.L64:
 243 0110 14070000 		.word	.L35
 244 0114 E0020000 		.word	.L19
 245 0118 E0020000 		.word	.L19
 246 011c E0020000 		.word	.L19
 247 0120 E0020000 		.word	.L19
 248 0124 E0020000 		.word	.L19
 249 0128 E0020000 		.word	.L19
 250 012c E0020000 		.word	.L19
 251 0130 E0020000 		.word	.L19
 252 0134 E0020000 		.word	.L19
 253 0138 E0020000 		.word	.L19
 254 013c 28070000 		.word	.L66
 255 0140 E0020000 		.word	.L19
 256 0144 E0020000 		.word	.L19
 257 0148 E0020000 		.word	.L19
 258 014c E0020000 		.word	.L19
 259 0150 E0020000 		.word	.L19
 260 0154 70070000 		.word	.L65
 261 0158 E0020000 		.word	.L19
 262 015c E0020000 		.word	.L19
 263 0160 48070000 		.word	.L82
 264 0164 E0020000 		.word	.L19
 265 0168 E0020000 		.word	.L19
 266 016c E0020000 		.word	.L19
 267 0170 E0020000 		.word	.L19
 268 0174 E0020000 		.word	.L19
 269 0178 E0020000 		.word	.L19
 270 017c E0020000 		.word	.L19
 271 0180 E0020000 		.word	.L19
 272 0184 E0020000 		.word	.L19
 273 0188 E0020000 		.word	.L19
 274 018c 4C050000 		.word	.L27
 275 0190 14070000 		.word	.L35
 276 0194 E0020000 		.word	.L19
 277 0198 B8030000 		.word	.L25
 278 019c E0020000 		.word	.L19
 279 01a0 E0020000 		.word	.L19
 280 01a4 E0020000 		.word	.L19
 281 01a8 E0020000 		.word	.L19
 282 01ac E0020000 		.word	.L19
 283 01b0 E0020000 		.word	.L19
 284 01b4 E0020000 		.word	.L19
ARM GAS  /tmp/cc7Piq4n.s 			page 6


 285 01b8 E0020000 		.word	.L19
 286 01bc 28070000 		.word	.L66
 287 01c0 E0020000 		.word	.L19
 288 01c4 E0020000 		.word	.L19
 289 01c8 E0020000 		.word	.L19
 290 01cc 5C030000 		.word	.L23
 291 01d0 E0020000 		.word	.L19
 292 01d4 70070000 		.word	.L65
 293 01d8 E0020000 		.word	.L19
 294 01dc E0020000 		.word	.L19
 295 01e0 48070000 		.word	.L82
 296              	.LVL25:
 297              	.L17:
 298              		.loc 1 180 7 view .LVU85
 299              		.loc 1 180 28 is_stmt 0 view .LVU86
 300 01e4 413041E2 		sub	r3, r1, #65
 301 01e8 440041E2 		sub	r0, r1, #68
 302 01ec 7330EFE6 		uxtb	r3, r3
 303              	.LVL26:
 304              		.loc 1 183 5 is_stmt 1 view .LVU87
 305 01f0 340050E3 		cmp	r0, #52
 306 01f4 00F19F97 		ldrls	pc, [pc, r0, asl #2]
 307 01f8 380000EA 		b	.L19
 308              	.L21:
 309 01fc 04060000 		.word	.L26
 310 0200 E0020000 		.word	.L19
 311 0204 E0020000 		.word	.L19
 312 0208 E0020000 		.word	.L19
 313 020c E0020000 		.word	.L19
 314 0210 E0020000 		.word	.L19
 315 0214 E0020000 		.word	.L19
 316 0218 E0020000 		.word	.L19
 317 021c E0020000 		.word	.L19
 318 0220 E0020000 		.word	.L19
 319 0224 E0020000 		.word	.L19
 320 0228 94060000 		.word	.L24
 321 022c E0020000 		.word	.L19
 322 0230 E0020000 		.word	.L19
 323 0234 E0020000 		.word	.L19
 324 0238 E0020000 		.word	.L19
 325 023c E0020000 		.word	.L19
 326 0240 40070000 		.word	.L76
 327 0244 E0020000 		.word	.L19
 328 0248 E0020000 		.word	.L19
 329 024c 78070000 		.word	.L20
 330 0250 E0020000 		.word	.L19
 331 0254 E0020000 		.word	.L19
 332 0258 E0020000 		.word	.L19
 333 025c E0020000 		.word	.L19
 334 0260 E0020000 		.word	.L19
 335 0264 E0020000 		.word	.L19
 336 0268 E0020000 		.word	.L19
 337 026c E0020000 		.word	.L19
 338 0270 E0020000 		.word	.L19
 339 0274 E0020000 		.word	.L19
 340 0278 4C050000 		.word	.L27
 341 027c 04060000 		.word	.L26
ARM GAS  /tmp/cc7Piq4n.s 			page 7


 342 0280 E0020000 		.word	.L19
 343 0284 B8030000 		.word	.L25
 344 0288 E0020000 		.word	.L19
 345 028c E0020000 		.word	.L19
 346 0290 E0020000 		.word	.L19
 347 0294 E0020000 		.word	.L19
 348 0298 E0020000 		.word	.L19
 349 029c E0020000 		.word	.L19
 350 02a0 E0020000 		.word	.L19
 351 02a4 E0020000 		.word	.L19
 352 02a8 94060000 		.word	.L24
 353 02ac E0020000 		.word	.L19
 354 02b0 E0020000 		.word	.L19
 355 02b4 E0020000 		.word	.L19
 356 02b8 5C030000 		.word	.L23
 357 02bc E0020000 		.word	.L19
 358 02c0 40070000 		.word	.L76
 359 02c4 E0020000 		.word	.L19
 360 02c8 E0020000 		.word	.L19
 361 02cc 78070000 		.word	.L20
 362              	.LVL27:
 363              	.L1:
 364              		.loc 1 263 1 is_stmt 0 view .LVU88
 365 02d0 28D08DE2 		add	sp, sp, #40
 366              		.cfi_remember_state
 367              		.cfi_def_cfa_offset 48
 368              		@ sp needed
 369 02d4 F04FBDE8 		pop	{r4, r5, r6, r7, r8, r9, r10, fp, lr}
 370              		.cfi_restore 14
 371              		.cfi_restore 11
 372              		.cfi_restore 10
 373              		.cfi_restore 9
 374              		.cfi_restore 8
 375              		.cfi_restore 7
 376              		.cfi_restore 6
 377              		.cfi_restore 5
 378              		.cfi_restore 4
 379              		.cfi_def_cfa_offset 12
 380 02d8 0CD08DE2 		add	sp, sp, #12
 381              		.cfi_restore 3
 382              		.cfi_restore 2
 383              		.cfi_restore 1
 384              		.cfi_def_cfa_offset 0
 385 02dc 1EFF2FE1 		bx	lr
 386              	.LVL28:
 387              	.L19:
 388              		.cfi_restore_state
 389              		.loc 1 238 7 is_stmt 1 view .LVU89
 390              		.loc 1 238 12 is_stmt 0 view .LVU90
 391 02e0 1010CDE5 		strb	r1, [sp, #16]
 392              		.loc 1 239 7 is_stmt 1 view .LVU91
 393              	.LVL29:
 394              	.L28:
 395              		.loc 1 241 5 view .LVU92
 396              		.loc 1 242 5 view .LVU93
 397              		.loc 1 244 8 is_stmt 0 view .LVU94
 398 02e4 000057E3 		cmp	r7, #0
ARM GAS  /tmp/cc7Piq4n.s 			page 8


 399              		.loc 1 242 16 view .LVU95
 400 02e8 01A044E2 		sub	r10, r4, #1
 401              	.LVL30:
 402              		.loc 1 255 11 view .LVU96
 403 02ec 0070A013 		movne	r7, #0
 404 02f0 CAAFCAE1 		bic	r10, r10, r10, asr #31
 405              	.LVL31:
 406              		.loc 1 244 5 is_stmt 1 view .LVU97
 407              		.loc 1 244 8 is_stmt 0 view .LVU98
 408 02f4 10608D12 		addne	r6, sp, #16
 409 02f8 0400001A 		bne	.L68
 410              		.loc 1 245 7 is_stmt 1 view .LVU99
 411              		.loc 1 246 8 is_stmt 0 view .LVU100
 412 02fc 010054E3 		cmp	r4, #1
 413              		.loc 1 245 13 view .LVU101
 414 0300 00A06AE2 		rsb	r10, r10, #0
 415              	.LVL32:
 416              		.loc 1 246 5 is_stmt 1 view .LVU102
 417              		.loc 1 246 8 is_stmt 0 view .LVU103
 418 0304 10608DD2 		addle	r6, sp, #16
 419              		.loc 1 245 13 view .LVU104
 420 0308 07A0A0D1 		movle	r10, r7
 421              	.LVL33:
 422              		.loc 1 246 8 view .LVU105
 423 030c 950000CA 		bgt	.L124
 424              	.LVL34:
 425              	.L68:
 426              		.loc 1 246 8 view .LVU106
 427 0310 077086E0 		add	r7, r6, r7
 428              	.L60:
 429              	.LVL35:
 430              		.loc 1 256 7 is_stmt 1 view .LVU107
 431              		.loc 1 256 7 is_stmt 0 view .LVU108
 432 0314 003095E5 		ldr	r3, [r5]
 433 0318 0110D6E4 		ldrb	r1, [r6], #1	@ zero_extendqisi2
 434              	.LVL36:
 435              		.loc 1 256 7 view .LVU109
 436 031c 083093E5 		ldr	r3, [r3, #8]
 437 0320 0500A0E1 		mov	r0, r5
 438 0324 33FF2FE1 		blx	r3
 439              	.LVL37:
 440              		.loc 1 255 11 is_stmt 1 view .LVU110
 441              		.loc 1 255 11 is_stmt 0 view .LVU111
 442 0328 063047E0 		sub	r3, r7, r6
 443 032c 000053E3 		cmp	r3, #0
 444 0330 F7FFFFAA 		bge	.L60
 445              	.LVL38:
 446              	.L61:
 447              		.loc 1 258 11 is_stmt 1 view .LVU112
 448 0334 00005AE3 		cmp	r10, #0
 449 0338 41FFFF0A 		beq	.L5
 450              	.L63:
 451              		.loc 1 259 7 view .LVU113
 452 033c 003095E5 		ldr	r3, [r5]
 453 0340 0910A0E1 		mov	r1, r9
 454 0344 0500A0E1 		mov	r0, r5
 455 0348 083093E5 		ldr	r3, [r3, #8]
ARM GAS  /tmp/cc7Piq4n.s 			page 9


 456 034c 33FF2FE1 		blx	r3
 457              	.LVL39:
 458              		.loc 1 260 7 view .LVU114
 459              		.loc 1 258 11 view .LVU115
 460 0350 01A05AE2 		subs	r10, r10, #1
 461              	.LVL40:
 462              		.loc 1 258 11 is_stmt 0 view .LVU116
 463 0354 F8FFFF1A 		bne	.L63
 464 0358 39FFFFEA 		b	.L5
 465              	.LVL41:
 466              	.L23:
 467              		.loc 1 189 7 is_stmt 1 view .LVU117
 468              		.loc 1 190 7 view .LVU118
 469              		.loc 1 190 14 is_stmt 0 view .LVU119
 470 035c 0C309DE5 		ldr	r3, [sp, #12]
 471 0360 006093E5 		ldr	r6, [r3]
 472 0364 043083E2 		add	r3, r3, #4
 473              		.loc 1 190 10 view .LVU120
 474 0368 000056E3 		cmp	r6, #0
 475              		.loc 1 190 14 view .LVU121
 476 036c 0C308DE5 		str	r3, [sp, #12]
 477              	.LVL42:
 478              		.loc 1 190 10 view .LVU122
 479 0370 9E00000A 		beq	.L29
 480              		.loc 1 193 19 view .LVU123
 481 0374 34149FE5 		ldr	r1, .L131
 482              	.LVL43:
 483              		.loc 1 193 19 view .LVU124
 484 0378 0030D6E5 		ldrb	r3, [r6]	@ zero_extendqisi2
 485              	.LVL44:
 486              		.loc 1 192 7 is_stmt 1 view .LVU125
 487              		.loc 1 193 19 is_stmt 0 view .LVU126
 488 037c 000052E3 		cmp	r2, #0
 489 0380 0120A001 		moveq	r2, r1
 490              	.LVL45:
 491              		.loc 1 194 19 is_stmt 1 view .LVU127
 492              		.loc 1 194 7 is_stmt 0 view .LVU128
 493 0384 000053E3 		cmp	r3, #0
 494 0388 FE00000A 		beq	.L125
 495              	.LVL46:
 496              	.L70:
 497              		.loc 1 159 15 view .LVU129
 498 038c 06B0A0E1 		mov	fp, r6
 499 0390 030000EA 		b	.L33
 500              	.LVL47:
 501              	.L126:
 502              		.loc 1 159 15 view .LVU130
 503 0394 0B30E0E1 		mvn	r3, fp
 504 0398 033086E0 		add	r3, r6, r3
 505              		.loc 1 194 22 discriminator 3 view .LVU131
 506 039c 020073E1 		cmn	r3, r2
 507 03a0 0200004A 		bmi	.L77
 508              	.LVL48:
 509              	.L33:
 510              		.loc 1 195 9 is_stmt 1 discriminator 4 view .LVU132
 511              		.loc 1 194 45 discriminator 4 view .LVU133
 512              		.loc 1 194 19 discriminator 4 view .LVU134
ARM GAS  /tmp/cc7Piq4n.s 			page 10


 513              		.loc 1 194 7 is_stmt 0 discriminator 4 view .LVU135
 514 03a4 0130FBE5 		ldrb	r3, [fp, #1]!	@ zero_extendqisi2
 515              	.LVL49:
 516              		.loc 1 194 7 discriminator 4 view .LVU136
 517 03a8 000053E3 		cmp	r3, #0
 518 03ac F8FFFF1A 		bne	.L126
 519              	.L77:
 520              		.loc 1 189 14 view .LVU137
 521 03b0 2090A0E3 		mov	r9, #32
 522 03b4 570000EA 		b	.L32
 523              	.LVL50:
 524              	.L25:
 525              		.loc 1 211 7 is_stmt 1 view .LVU138
 526              		.loc 1 211 19 is_stmt 0 view .LVU139
 527 03b8 0C309DE5 		ldr	r3, [sp, #12]
 528 03bc 073083E2 		add	r3, r3, #7
 529 03c0 0730C3E3 		bic	r3, r3, #7
 530 03c4 082083E2 		add	r2, r3, #8
 531              	.LVL51:
 532              		.loc 1 211 9 view .LVU140
 533 03c8 D000C3E1 		ldrd	r0, [r3]
 534              		.loc 1 211 19 view .LVU141
 535 03cc 0C208DE5 		str	r2, [sp, #12]
 536              		.loc 1 211 9 view .LVU142
 537 03d0 FEFFFFEB 		bl	__aeabi_d2f
 538              	.LVL52:
 539              		.loc 1 212 10 view .LVU143
 540 03d4 0010A0E3 		mov	r1, #0
 541              		.loc 1 211 9 view .LVU144
 542 03d8 00B0A0E1 		mov	fp, r0
 543              	.LVL53:
 544              		.loc 1 212 7 is_stmt 1 view .LVU145
 545              		.loc 1 212 10 is_stmt 0 view .LVU146
 546 03dc FEFFFFEB 		bl	__aeabi_fcmplt
 547              	.LVL54:
 548              		.loc 1 212 10 view .LVU147
 549 03e0 000050E3 		cmp	r0, #0
 550              		.loc 1 213 9 is_stmt 1 view .LVU148
 551              	.LVL55:
 552              		.loc 1 213 14 is_stmt 0 view .LVU149
 553 03e4 2D30A013 		movne	r3, #45
 554              		.loc 1 214 11 view .LVU150
 555 03e8 02B18B12 		addne	fp, fp, #-2147483648
 556              	.LVL56:
 557              		.loc 1 136 7 view .LVU151
 558 03ec 10608D02 		addeq	r6, sp, #16
 559              		.loc 1 216 11 view .LVU152
 560 03f0 0B00A0E1 		mov	r0, fp
 561              		.loc 1 136 7 view .LVU153
 562 03f4 06A0A001 		moveq	r10, r6
 563              		.loc 1 213 14 view .LVU154
 564 03f8 1030CD15 		strbne	r3, [sp, #16]
 565              		.loc 1 214 9 is_stmt 1 view .LVU155
 566              	.LVL57:
 567              		.loc 1 213 11 is_stmt 0 view .LVU156
 568 03fc 11A08D12 		addne	r10, sp, #17
 569 0400 10608D12 		addne	r6, sp, #16
ARM GAS  /tmp/cc7Piq4n.s 			page 11


 570              	.LVL58:
 571              		.loc 1 216 7 is_stmt 1 view .LVU157
 572              		.loc 1 216 11 is_stmt 0 view .LVU158
 573 0404 FEFFFFEB 		bl	__aeabi_f2d
 574              	.LVL59:
 575              		.loc 1 216 11 view .LVU159
 576 0408 0020A0E1 		mov	r2, r0
 577 040c 0130A0E1 		mov	r3, r1
 578              	.LBB26:
 579              	.LBB27:
 580              		.loc 1 83 5 view .LVU160
 581 0410 0B00A0E1 		mov	r0, fp
 582              	.LBE27:
 583              	.LBE26:
 584              		.loc 1 216 11 view .LVU161
 585 0414 F020CDE1 		strd	r2, [sp]
 586              	.LVL60:
 587              	.LBB37:
 588              	.LBI26:
 589              		.loc 1 79 14 is_stmt 1 view .LVU162
 590              	.LBB36:
 591              		.loc 1 80 3 view .LVU163
 592              		.loc 1 81 3 view .LVU164
 593              		.loc 1 83 3 view .LVU165
 594              		.loc 1 83 5 is_stmt 0 view .LVU166
 595 0418 FEFFFFEB 		bl	__aeabi_f2iz
 596              	.LVL61:
 597              		.loc 1 84 3 is_stmt 1 view .LVU167
 598              	.LBB28:
 599              	.LBI28:
 600              		.loc 1 40 14 view .LVU168
 601              	.LBB29:
 602              		.loc 1 44 3 view .LVU169
 603              		.loc 1 45 3 view .LVU170
 604              		.loc 1 46 3 view .LVU171
 605              		.loc 1 48 3 view .LVU172
 606              		.loc 1 49 3 view .LVU173
 607              		.loc 1 55 3 view .LVU174
 608              		.loc 1 55 5 is_stmt 0 view .LVU175
 609 041c 0BC08AE2 		add	ip, r10, #11
 610              	.LVL62:
 611              		.loc 1 48 5 view .LVU176
 612 0420 0020A0E1 		mov	r2, r0
 613              		.loc 1 55 5 view .LVU177
 614 0424 0CE0A0E1 		mov	lr, ip
 615              	.LVL63:
 616              	.L42:
 617              		.loc 1 56 3 is_stmt 1 view .LVU178
 618              		.loc 1 57 5 view .LVU179
 619              		.loc 1 57 17 is_stmt 0 view .LVU180
 620 0428 84339FE5 		ldr	r3, .L131+4
 621              		.loc 1 63 3 view .LVU181
 622 042c 090052E3 		cmp	r2, #9
 623              		.loc 1 57 17 view .LVU182
 624 0430 931283E0 		umull	r1, r3, r3, r2
 625 0434 A331A0E1 		lsr	r3, r3, #3
 626 0438 0310A0E1 		mov	r1, r3
ARM GAS  /tmp/cc7Piq4n.s 			page 12


 627 043c 033183E0 		add	r3, r3, r3, lsl #2
 628 0440 833042E0 		sub	r3, r2, r3, lsl #1
 629              	.LVL64:
 630              		.loc 1 58 5 is_stmt 1 view .LVU183
 631              		.loc 1 59 5 view .LVU184
 632              		.loc 1 61 5 view .LVU185
 633              		.loc 1 58 7 is_stmt 0 view .LVU186
 634 0444 303083E2 		add	r3, r3, #48
 635              	.LVL65:
 636              		.loc 1 61 10 view .LVU187
 637 0448 7330EFE6 		uxtb	r3, r3
 638              	.LVL66:
 639              		.loc 1 62 7 view .LVU188
 640 044c 0120A0E1 		mov	r2, r1
 641              	.LVL67:
 642              		.loc 1 61 10 view .LVU189
 643 0450 01306EE5 		strb	r3, [lr, #-1]!
 644              	.LVL68:
 645              		.loc 1 62 5 is_stmt 1 view .LVU190
 646              		.loc 1 63 11 view .LVU191
 647              		.loc 1 63 3 is_stmt 0 view .LVU192
 648 0454 F3FFFF8A 		bhi	.L42
 649              		.loc 1 65 3 is_stmt 1 view .LVU193
 650              		.loc 1 65 5 is_stmt 0 view .LVU194
 651 0458 0EC04CE0 		sub	ip, ip, lr
 652              	.LVL69:
 653              		.loc 1 65 5 view .LVU195
 654 045c 0E10A0E1 		mov	r1, lr
 655              	.LVL70:
 656              		.loc 1 65 5 view .LVU196
 657 0460 0A20A0E1 		mov	r2, r10
 658              	.LVL71:
 659              		.loc 1 65 5 view .LVU197
 660 0464 0CE08AE0 		add	lr, r10, ip
 661              	.LVL72:
 662              		.loc 1 65 5 view .LVU198
 663 0468 000000EA 		b	.L44
 664              	.LVL73:
 665              	.L127:
 666              		.loc 1 65 5 view .LVU199
 667 046c 0130F1E5 		ldrb	r3, [r1, #1]!	@ zero_extendqisi2
 668              	.L44:
 669              		.loc 1 66 3 is_stmt 1 view .LVU200
 670              		.loc 1 67 5 view .LVU201
 671              	.LVL74:
 672              		.loc 1 67 10 is_stmt 0 view .LVU202
 673 0470 0130C2E4 		strb	r3, [r2], #1
 674              	.LVL75:
 675              		.loc 1 68 9 is_stmt 1 view .LVU203
 676              		.loc 1 68 3 is_stmt 0 view .LVU204
 677 0474 0E0052E1 		cmp	r2, lr
 678 0478 FBFFFF1A 		bne	.L127
 679              	.LBE29:
 680              	.LBE28:
 681              		.loc 1 85 8 view .LVU205
 682 047c 2E30A0E3 		mov	r3, #46
 683 0480 01C04CE2 		sub	ip, ip, #1
ARM GAS  /tmp/cc7Piq4n.s 			page 13


 684 0484 0030C2E5 		strb	r3, [r2]
 685 0488 0CA08AE0 		add	r10, r10, ip
 686              	.LVL76:
 687              	.LBB31:
 688              	.LBB30:
 689              		.loc 1 70 3 is_stmt 1 view .LVU206
 690              		.loc 1 70 3 is_stmt 0 view .LVU207
 691              	.LBE30:
 692              	.LBE31:
 693              		.loc 1 85 3 is_stmt 1 view .LVU208
 694              		.loc 1 86 12 is_stmt 0 view .LVU209
 695 048c FEFFFFEB 		bl	__aeabi_i2d
 696              	.LVL77:
 697              		.loc 1 86 12 view .LVU210
 698 0490 0020A0E1 		mov	r2, r0
 699 0494 0130A0E1 		mov	r3, r1
 700 0498 D000CDE1 		ldrd	r0, [sp]
 701 049c FEFFFFEB 		bl	__aeabi_dsub
 702              	.LVL78:
 703              		.loc 1 86 17 view .LVU211
 704 04a0 0020A0E3 		mov	r2, #0
 705 04a4 0C339FE5 		ldr	r3, .L131+8
 706 04a8 FEFFFFEB 		bl	__aeabi_dmul
 707              	.LVL79:
 708              		.loc 1 86 5 view .LVU212
 709 04ac FEFFFFEB 		bl	__aeabi_d2iz
 710              	.LVL80:
 711              	.LBB32:
 712              	.LBB33:
 713              		.loc 1 55 5 view .LVU213
 714 04b0 0D208AE2 		add	r2, r10, #13
 715 04b4 0210A0E1 		mov	r1, r2
 716              	.LBE33:
 717              	.LBE32:
 718              		.loc 1 85 5 view .LVU214
 719 04b8 02B08AE2 		add	fp, r10, #2
 720              	.LVL81:
 721              		.loc 1 86 3 is_stmt 1 view .LVU215
 722              		.loc 1 87 3 view .LVU216
 723              	.LBB35:
 724              	.LBI32:
 725              		.loc 1 40 14 view .LVU217
 726              	.LBB34:
 727              		.loc 1 44 3 view .LVU218
 728              		.loc 1 45 3 view .LVU219
 729              		.loc 1 46 3 view .LVU220
 730              		.loc 1 48 3 view .LVU221
 731              		.loc 1 49 3 view .LVU222
 732              		.loc 1 52 5 view .LVU223
 733              		.loc 1 55 3 view .LVU224
 734              		.loc 1 55 3 is_stmt 0 view .LVU225
 735 04bc 08E08AE2 		add	lr, r10, #8
 736              	.LVL82:
 737              	.L45:
 738              		.loc 1 56 3 is_stmt 1 view .LVU226
 739              		.loc 1 57 5 view .LVU227
 740              		.loc 1 57 17 is_stmt 0 view .LVU228
ARM GAS  /tmp/cc7Piq4n.s 			page 14


 741 04c0 EC329FE5 		ldr	r3, .L131+4
 742 04c4 93C083E0 		umull	ip, r3, r3, r0
 743 04c8 A331A0E1 		lsr	r3, r3, #3
 744 04cc 03C0A0E1 		mov	ip, r3
 745 04d0 033183E0 		add	r3, r3, r3, lsl #2
 746 04d4 833040E0 		sub	r3, r0, r3, lsl #1
 747              	.LVL83:
 748              		.loc 1 58 5 is_stmt 1 view .LVU229
 749              		.loc 1 59 5 view .LVU230
 750              		.loc 1 61 5 view .LVU231
 751              		.loc 1 58 7 is_stmt 0 view .LVU232
 752 04d8 303083E2 		add	r3, r3, #48
 753              	.LVL84:
 754              		.loc 1 61 10 view .LVU233
 755 04dc 7330EFE6 		uxtb	r3, r3
 756              	.LVL85:
 757              		.loc 1 61 10 view .LVU234
 758 04e0 013061E5 		strb	r3, [r1, #-1]!
 759              	.LVL86:
 760              		.loc 1 62 5 is_stmt 1 view .LVU235
 761              		.loc 1 63 3 is_stmt 0 view .LVU236
 762 04e4 0E0051E1 		cmp	r1, lr
 763              		.loc 1 62 7 view .LVU237
 764 04e8 0C00A0E1 		mov	r0, ip
 765              	.LVL87:
 766              		.loc 1 63 11 is_stmt 1 view .LVU238
 767              		.loc 1 63 3 is_stmt 0 view .LVU239
 768 04ec F3FFFF1A 		bne	.L45
 769              		.loc 1 65 3 is_stmt 1 view .LVU240
 770              	.LVL88:
 771              		.loc 1 65 5 is_stmt 0 view .LVU241
 772 04f0 012042E0 		sub	r2, r2, r1
 773              	.LVL89:
 774              		.loc 1 65 5 view .LVU242
 775 04f4 02C082E2 		add	ip, r2, #2
 776 04f8 0B00A0E1 		mov	r0, fp
 777 04fc 0CA08AE0 		add	r10, r10, ip
 778              	.LVL90:
 779              		.loc 1 65 5 view .LVU243
 780 0500 000000EA 		b	.L47
 781              	.LVL91:
 782              	.L46:
 783              		.loc 1 65 5 view .LVU244
 784 0504 0130F1E5 		ldrb	r3, [r1, #1]!	@ zero_extendqisi2
 785              	.LVL92:
 786              	.L47:
 787              		.loc 1 66 3 is_stmt 1 view .LVU245
 788              		.loc 1 67 5 view .LVU246
 789              		.loc 1 67 10 is_stmt 0 view .LVU247
 790 0508 0130C0E4 		strb	r3, [r0], #1
 791              	.LVL93:
 792              		.loc 1 68 9 is_stmt 1 view .LVU248
 793              		.loc 1 68 3 is_stmt 0 view .LVU249
 794 050c 0A0050E1 		cmp	r0, r10
 795 0510 FBFFFF1A 		bne	.L46
 796 0514 02B08BE0 		add	fp, fp, r2
 797              	.LVL94:
ARM GAS  /tmp/cc7Piq4n.s 			page 15


 798              	.L32:
 799              		.loc 1 68 3 view .LVU250
 800              	.LBE34:
 801              	.LBE35:
 802              	.LBE36:
 803              	.LBE37:
 804              		.loc 1 241 5 is_stmt 1 view .LVU251
 805              		.loc 1 241 7 is_stmt 0 view .LVU252
 806 0518 06B04BE0 		sub	fp, fp, r6
 807              	.LVL95:
 808              		.loc 1 242 5 is_stmt 1 view .LVU253
 809              		.loc 1 242 16 is_stmt 0 view .LVU254
 810 051c 0B4044E0 		sub	r4, r4, fp
 811              	.LVL96:
 812              		.loc 1 244 8 view .LVU255
 813 0520 000057E3 		cmp	r7, #0
 814 0524 C4AFC4E1 		bic	r10, r4, r4, asr #31
 815              	.LVL97:
 816              		.loc 1 244 5 is_stmt 1 view .LVU256
 817 0528 01704B12 		subne	r7, fp, #1
 818              		.loc 1 244 8 is_stmt 0 view .LVU257
 819 052c 0300001A 		bne	.L56
 820              	.LVL98:
 821              		.loc 1 246 8 view .LVU258
 822 0530 000054E3 		cmp	r4, #0
 823 0534 01704BE2 		sub	r7, fp, #1
 824              	.LVL99:
 825              		.loc 1 245 7 is_stmt 1 view .LVU259
 826              		.loc 1 245 13 is_stmt 0 view .LVU260
 827 0538 00A06AE2 		rsb	r10, r10, #0
 828              	.LVL100:
 829              		.loc 1 246 5 is_stmt 1 view .LVU261
 830              		.loc 1 246 8 is_stmt 0 view .LVU262
 831 053c 0A0000CA 		bgt	.L72
 832              	.LVL101:
 833              	.L56:
 834              		.loc 1 255 11 is_stmt 1 view .LVU263
 835 0540 000057E3 		cmp	r7, #0
 836 0544 71FFFFAA 		bge	.L68
 837              		.loc 1 255 11 is_stmt 0 view .LVU264
 838 0548 79FFFFEA 		b	.L61
 839              	.LVL102:
 840              	.L27:
 841              		.loc 1 185 7 is_stmt 1 view .LVU265
 842              		.loc 1 186 7 view .LVU266
 843              		.loc 1 186 14 is_stmt 0 view .LVU267
 844 054c 0C309DE5 		ldr	r3, [sp, #12]
 845              		.loc 1 185 14 view .LVU268
 846 0550 2090A0E3 		mov	r9, #32
 847              		.loc 1 186 12 view .LVU269
 848 0554 002093E5 		ldr	r2, [r3]
 849              	.LVL103:
 850              		.loc 1 186 14 view .LVU270
 851 0558 043083E2 		add	r3, r3, #4
 852              		.loc 1 186 12 view .LVU271
 853 055c 1020CDE5 		strb	r2, [sp, #16]
 854              		.loc 1 186 14 view .LVU272
ARM GAS  /tmp/cc7Piq4n.s 			page 16


 855 0560 0C308DE5 		str	r3, [sp, #12]
 856              	.LVL104:
 857              		.loc 1 187 7 is_stmt 1 view .LVU273
 858 0564 5EFFFFEA 		b	.L28
 859              	.LVL105:
 860              	.L124:
 861              		.loc 1 246 8 is_stmt 0 view .LVU274
 862 0568 10608DE2 		add	r6, sp, #16
 863              	.LVL106:
 864              	.L72:
 865              		.loc 1 247 7 is_stmt 1 view .LVU275
 866              		.loc 1 247 10 is_stmt 0 view .LVU276
 867 056c 0030D6E5 		ldrb	r3, [r6]	@ zero_extendqisi2
 868              		.loc 1 247 21 view .LVU277
 869 0570 2D0053E3 		cmp	r3, #45
 870 0574 30005903 		cmpeq	r9, #48
 871 0578 7400000A 		beq	.L128
 872              	.LVL107:
 873              	.L58:
 874              		.loc 1 251 7 is_stmt 1 discriminator 1 view .LVU278
 875              		.loc 1 252 9 discriminator 1 view .LVU279
 876 057c 003095E5 		ldr	r3, [r5]
 877 0580 0910A0E1 		mov	r1, r9
 878 0584 0500A0E1 		mov	r0, r5
 879 0588 083093E5 		ldr	r3, [r3, #8]
 880 058c 33FF2FE1 		blx	r3
 881              	.LVL108:
 882              		.loc 1 253 13 discriminator 1 view .LVU280
 883              		.loc 1 253 7 is_stmt 0 discriminator 1 view .LVU281
 884 0590 01A09AE2 		adds	r10, r10, #1
 885              	.LVL109:
 886              		.loc 1 253 7 discriminator 1 view .LVU282
 887 0594 F8FFFF1A 		bne	.L58
 888              	.LVL110:
 889              		.loc 1 255 11 is_stmt 1 view .LVU283
 890 0598 000057E3 		cmp	r7, #0
 891 059c 5BFFFFAA 		bge	.L68
 892 05a0 A7FEFFEA 		b	.L5
 893              	.LVL111:
 894              	.L123:
 895              		.loc 1 160 8 is_stmt 0 view .LVU284
 896 05a4 00E0A0E3 		mov	lr, #0
 897 05a8 0C009DE5 		ldr	r0, [sp, #12]
 898              		.loc 1 159 15 view .LVU285
 899 05ac 0E20A0E1 		mov	r2, lr
 900 05b0 030000EA 		b	.L15
 901              	.LVL112:
 902              	.L129:
 903              		.loc 1 166 13 view .LVU286
 904 05b4 01E0A0E3 		mov	lr, #1
 905 05b8 043090E4 		ldr	r3, [r0], #4
 906 05bc 7330EFE6 		uxtb	r3, r3
 907              	.LVL113:
 908              	.L13:
 909              		.loc 1 169 9 is_stmt 1 view .LVU287
 910              		.loc 1 170 9 view .LVU288
 911              		.loc 1 170 19 is_stmt 0 view .LVU289
ARM GAS  /tmp/cc7Piq4n.s 			page 17


 912 05c0 8C2083E0 		add	r2, r3, ip, lsl #1
 913              	.LVL114:
 914              		.loc 1 161 13 is_stmt 1 view .LVU290
 915              	.L15:
 916              		.loc 1 161 7 view .LVU291
 917              		.loc 1 162 9 view .LVU292
 918              		.loc 1 165 14 view .LVU293
 919              		.loc 1 166 11 view .LVU294
 920              		.loc 1 162 11 is_stmt 0 view .LVU295
 921 05c4 0110D8E4 		ldrb	r1, [r8], #1	@ zero_extendqisi2
 922              	.LVL115:
 923              		.loc 1 163 9 is_stmt 1 view .LVU296
 924              		.loc 1 169 19 is_stmt 0 view .LVU297
 925 05c8 02C182E0 		add	ip, r2, r2, lsl #2
 926              		.loc 1 163 22 view .LVU298
 927 05cc 303041E2 		sub	r3, r1, #48
 928 05d0 7330EFE6 		uxtb	r3, r3
 929              		.loc 1 163 12 view .LVU299
 930 05d4 090053E3 		cmp	r3, #9
 931 05d8 F8FFFF9A 		bls	.L13
 932              		.loc 1 165 17 view .LVU300
 933 05dc 2A0051E3 		cmp	r1, #42
 934 05e0 F3FFFF0A 		beq	.L129
 935 05e4 00005EE3 		cmp	lr, #0
 936 05e8 0C008D15 		strne	r0, [sp, #12]
 937 05ec BCFEFFEA 		b	.L12
 938              	.LVL116:
 939              	.L29:
 940              		.loc 1 192 7 is_stmt 1 view .LVU301
 941              		.loc 1 192 10 is_stmt 0 view .LVU302
 942 05f0 000052E3 		cmp	r2, #0
 943 05f4 6100001A 		bne	.L85
 944              		.loc 1 193 19 view .LVU303
 945 05f8 B0219FE5 		ldr	r2, .L131
 946              	.LVL117:
 947              		.loc 1 191 11 view .LVU304
 948 05fc B8619FE5 		ldr	r6, .L131+12
 949 0600 61FFFFEA 		b	.L70
 950              	.LVL118:
 951              	.L26:
 952              		.loc 1 199 7 is_stmt 1 view .LVU305
 953              		.loc 1 199 10 is_stmt 0 view .LVU306
 954 0604 190053E3 		cmp	r3, #25
 955 0608 4100009A 		bls	.L35
 956              		.loc 1 202 9 is_stmt 1 view .LVU307
 957              		.loc 1 202 11 is_stmt 0 view .LVU308
 958 060c 0C309DE5 		ldr	r3, [sp, #12]
 959              	.LVL119:
 960              		.loc 1 202 11 view .LVU309
 961 0610 042083E2 		add	r2, r3, #4
 962              	.LVL120:
 963              		.loc 1 202 11 view .LVU310
 964 0614 001093E5 		ldr	r1, [r3]
 965              	.LVL121:
 966              		.loc 1 202 11 view .LVU311
 967 0618 0C208DE5 		str	r2, [sp, #12]
 968              	.LVL122:
ARM GAS  /tmp/cc7Piq4n.s 			page 18


 969              	.L36:
 970              		.loc 1 203 7 is_stmt 1 view .LVU312
 971              		.loc 1 203 10 is_stmt 0 view .LVU313
 972 061c 000051E3 		cmp	r1, #0
 973              		.loc 1 204 9 is_stmt 1 view .LVU314
 974              	.LVL123:
 975              		.loc 1 136 7 is_stmt 0 view .LVU315
 976 0620 10608DA2 		addge	r6, sp, #16
 977 0624 06C0A0A1 		movge	ip, r6
 978              		.loc 1 204 11 view .LVU316
 979 0628 11C08DB2 		addlt	ip, sp, #17
 980              		.loc 1 204 14 view .LVU317
 981 062c 2D30A0B3 		movlt	r3, #45
 982              	.LBB38:
 983              	.LBB39:
 984              	.LBB40:
 985              		.loc 1 55 5 view .LVU318
 986 0630 0B208CE2 		add	r2, ip, #11
 987 0634 0200A0E1 		mov	r0, r2
 988              	.LBE40:
 989              	.LBE39:
 990              	.LBE38:
 991              		.loc 1 205 11 view .LVU319
 992 0638 001061B2 		rsblt	r1, r1, #0
 993              	.LVL124:
 994              		.loc 1 204 14 view .LVU320
 995 063c 1030CDB5 		strblt	r3, [sp, #16]
 996              		.loc 1 205 9 is_stmt 1 view .LVU321
 997              	.LVL125:
 998              		.loc 1 205 9 is_stmt 0 view .LVU322
 999 0640 10608DB2 		addlt	r6, sp, #16
 1000              	.LVL126:
 1001              		.loc 1 207 7 is_stmt 1 view .LVU323
 1002              	.LBB43:
 1003              	.LBI38:
 1004              		.loc 1 73 14 view .LVU324
 1005              	.LBE43:
 1006              		.loc 1 75 3 view .LVU325
 1007              	.LBB44:
 1008              	.LBB42:
 1009              	.LBI39:
 1010              		.loc 1 40 14 view .LVU326
 1011              	.LBB41:
 1012              		.loc 1 44 3 view .LVU327
 1013              		.loc 1 45 3 view .LVU328
 1014              		.loc 1 46 3 view .LVU329
 1015              		.loc 1 48 3 view .LVU330
 1016              		.loc 1 49 3 view .LVU331
 1017              		.loc 1 55 3 view .LVU332
 1018              	.L38:
 1019              		.loc 1 56 3 view .LVU333
 1020              		.loc 1 57 5 view .LVU334
 1021              		.loc 1 57 17 is_stmt 0 view .LVU335
 1022 0644 68319FE5 		ldr	r3, .L131+4
 1023              		.loc 1 63 3 view .LVU336
 1024 0648 090051E3 		cmp	r1, #9
 1025              		.loc 1 57 17 view .LVU337
ARM GAS  /tmp/cc7Piq4n.s 			page 19


 1026 064c 93E183E0 		umull	lr, r3, r3, r1
 1027 0650 A331A0E1 		lsr	r3, r3, #3
 1028 0654 03E0A0E1 		mov	lr, r3
 1029 0658 033183E0 		add	r3, r3, r3, lsl #2
 1030 065c 833041E0 		sub	r3, r1, r3, lsl #1
 1031              	.LVL127:
 1032              		.loc 1 58 5 is_stmt 1 view .LVU338
 1033              		.loc 1 59 5 view .LVU339
 1034              		.loc 1 61 5 view .LVU340
 1035              		.loc 1 58 7 is_stmt 0 view .LVU341
 1036 0660 303083E2 		add	r3, r3, #48
 1037              	.LVL128:
 1038              		.loc 1 61 10 view .LVU342
 1039 0664 7330EFE6 		uxtb	r3, r3
 1040              	.LVL129:
 1041              		.loc 1 62 7 view .LVU343
 1042 0668 0E10A0E1 		mov	r1, lr
 1043              	.LVL130:
 1044              		.loc 1 61 10 view .LVU344
 1045 066c 013060E5 		strb	r3, [r0, #-1]!
 1046              	.LVL131:
 1047              		.loc 1 62 5 is_stmt 1 view .LVU345
 1048              		.loc 1 63 11 view .LVU346
 1049              		.loc 1 63 3 is_stmt 0 view .LVU347
 1050 0670 F3FFFFCA 		bgt	.L38
 1051              		.loc 1 65 3 is_stmt 1 view .LVU348
 1052              	.LVL132:
 1053              		.loc 1 65 5 is_stmt 0 view .LVU349
 1054 0674 00B042E0 		sub	fp, r2, r0
 1055 0678 0BB08CE0 		add	fp, ip, fp
 1056 067c 000000EA 		b	.L39
 1057              	.LVL133:
 1058              	.L130:
 1059              		.loc 1 65 5 view .LVU350
 1060 0680 0130F0E5 		ldrb	r3, [r0, #1]!	@ zero_extendqisi2
 1061              	.L39:
 1062              		.loc 1 66 3 is_stmt 1 view .LVU351
 1063              		.loc 1 67 5 view .LVU352
 1064              	.LVL134:
 1065              		.loc 1 67 10 is_stmt 0 view .LVU353
 1066 0684 0130CCE4 		strb	r3, [ip], #1
 1067              	.LVL135:
 1068              		.loc 1 68 9 is_stmt 1 view .LVU354
 1069              		.loc 1 68 3 is_stmt 0 view .LVU355
 1070 0688 0B005CE1 		cmp	ip, fp
 1071 068c FBFFFF1A 		bne	.L130
 1072 0690 A0FFFFEA 		b	.L32
 1073              	.LVL136:
 1074              	.L24:
 1075              		.loc 1 68 3 view .LVU356
 1076              	.LBE41:
 1077              	.LBE42:
 1078              	.LBE44:
 1079              		.loc 1 180 28 view .LVU357
 1080 0694 0860A0E3 		mov	r6, #8
 1081              	.L22:
 1082              	.LVL137:
ARM GAS  /tmp/cc7Piq4n.s 			page 20


 1083              		.loc 1 231 7 is_stmt 1 view .LVU358
 1084              		.loc 1 231 10 is_stmt 0 view .LVU359
 1085 0698 190053E3 		cmp	r3, #25
 1086 069c 2200009A 		bls	.L49
 1087              		.loc 1 234 9 is_stmt 1 view .LVU360
 1088              		.loc 1 234 11 is_stmt 0 view .LVU361
 1089 06a0 0C309DE5 		ldr	r3, [sp, #12]
 1090              	.LVL138:
 1091              		.loc 1 234 11 view .LVU362
 1092 06a4 042083E2 		add	r2, r3, #4
 1093              	.LVL139:
 1094              		.loc 1 234 11 view .LVU363
 1095 06a8 000093E5 		ldr	r0, [r3]
 1096 06ac 0C208DE5 		str	r2, [sp, #12]
 1097              	.LVL140:
 1098              	.L50:
 1099              		.loc 1 235 7 is_stmt 1 view .LVU364
 1100              	.LBB45:
 1101              	.LBI45:
 1102              		.loc 1 73 14 view .LVU365
 1103              	.LBE45:
 1104              		.loc 1 75 3 view .LVU366
 1105              	.LBB48:
 1106              	.LBB46:
 1107              	.LBI46:
 1108              		.loc 1 40 14 view .LVU367
 1109              	.LBB47:
 1110              		.loc 1 44 3 view .LVU368
 1111              		.loc 1 45 3 view .LVU369
 1112              		.loc 1 46 3 view .LVU370
 1113              		.loc 1 48 3 view .LVU371
 1114              		.loc 1 49 3 view .LVU372
 1115              		.loc 1 55 3 view .LVU373
 1116              		.loc 1 55 5 is_stmt 0 view .LVU374
 1117 06b0 1BB08DE2 		add	fp, sp, #27
 1118              	.LVL141:
 1119              		.loc 1 55 5 view .LVU375
 1120 06b4 000000EA 		b	.L52
 1121              	.LVL142:
 1122              	.L81:
 1123              		.loc 1 55 5 view .LVU376
 1124 06b8 01B0A0E1 		mov	fp, r1
 1125              	.LVL143:
 1126              	.L52:
 1127              		.loc 1 56 3 is_stmt 1 view .LVU377
 1128              		.loc 1 57 5 view .LVU378
 1129 06bc 0610A0E1 		mov	r1, r6
 1130              		.loc 1 57 17 is_stmt 0 view .LVU379
 1131 06c0 00A0A0E1 		mov	r10, r0
 1132 06c4 FEFFFFEB 		bl	__aeabi_uidivmod
 1133              	.LVL144:
 1134              		.loc 1 60 7 is_stmt 1 view .LVU380
 1135              		.loc 1 58 5 view .LVU381
 1136              		.loc 1 58 7 is_stmt 0 view .LVU382
 1137 06c8 303081E2 		add	r3, r1, #48
 1138              	.LVL145:
 1139              		.loc 1 59 5 is_stmt 1 view .LVU383
ARM GAS  /tmp/cc7Piq4n.s 			page 21


 1140              		.loc 1 59 8 is_stmt 0 view .LVU384
 1141 06cc 390053E3 		cmp	r3, #57
 1142              		.loc 1 60 9 view .LVU385
 1143 06d0 373081C2 		addgt	r3, r1, #55
 1144              	.LVL146:
 1145              		.loc 1 61 5 is_stmt 1 view .LVU386
 1146              		.loc 1 61 10 is_stmt 0 view .LVU387
 1147 06d4 7330EFE6 		uxtb	r3, r3
 1148              	.LVL147:
 1149              		.loc 1 63 3 view .LVU388
 1150 06d8 06005AE1 		cmp	r10, r6
 1151              	.LVL148:
 1152              		.loc 1 61 10 view .LVU389
 1153 06dc 01304BE5 		strb	r3, [fp, #-1]
 1154 06e0 01104BE2 		sub	r1, fp, #1
 1155              	.LVL149:
 1156              		.loc 1 62 5 is_stmt 1 view .LVU390
 1157              		.loc 1 63 11 view .LVU391
 1158              		.loc 1 63 3 is_stmt 0 view .LVU392
 1159 06e4 F3FFFF2A 		bcs	.L81
 1160              		.loc 1 65 3 is_stmt 1 view .LVU393
 1161              	.LVL150:
 1162              		.loc 1 65 5 is_stmt 0 view .LVU394
 1163 06e8 10608DE2 		add	r6, sp, #16
 1164              	.LVL151:
 1165              		.loc 1 65 5 view .LVU395
 1166 06ec 1B008DE2 		add	r0, sp, #27
 1167              	.LVL152:
 1168              		.loc 1 65 5 view .LVU396
 1169 06f0 0620A0E1 		mov	r2, r6
 1170 06f4 01A040E0 		sub	r10, r0, r1
 1171 06f8 000000EA 		b	.L54
 1172              	.LVL153:
 1173              	.L53:
 1174              		.loc 1 65 5 view .LVU397
 1175 06fc 0130DBE4 		ldrb	r3, [fp], #1	@ zero_extendqisi2
 1176              	.LVL154:
 1177              	.L54:
 1178              		.loc 1 66 3 is_stmt 1 view .LVU398
 1179              		.loc 1 67 5 view .LVU399
 1180              		.loc 1 68 3 is_stmt 0 view .LVU400
 1181 0700 0B0050E1 		cmp	r0, fp
 1182              		.loc 1 67 10 view .LVU401
 1183 0704 0130C2E4 		strb	r3, [r2], #1
 1184              	.LVL155:
 1185              		.loc 1 68 9 is_stmt 1 view .LVU402
 1186              		.loc 1 68 3 is_stmt 0 view .LVU403
 1187 0708 FBFFFF1A 		bne	.L53
 1188 070c 0AB086E0 		add	fp, r6, r10
 1189 0710 80FFFFEA 		b	.L32
 1190              	.LVL156:
 1191              	.L35:
 1192              		.loc 1 68 3 view .LVU404
 1193              	.LBE47:
 1194              	.LBE46:
 1195              	.LBE48:
 1196              		.loc 1 200 9 is_stmt 1 view .LVU405
ARM GAS  /tmp/cc7Piq4n.s 			page 22


 1197              		.loc 1 200 11 is_stmt 0 view .LVU406
 1198 0714 0C309DE5 		ldr	r3, [sp, #12]
 1199 0718 042083E2 		add	r2, r3, #4
 1200              	.LVL157:
 1201              		.loc 1 200 11 view .LVU407
 1202 071c 001093E5 		ldr	r1, [r3]
 1203              	.LVL158:
 1204              		.loc 1 200 11 view .LVU408
 1205 0720 0C208DE5 		str	r2, [sp, #12]
 1206 0724 BCFFFFEA 		b	.L36
 1207              	.LVL159:
 1208              	.L66:
 1209              		.loc 1 231 7 is_stmt 1 view .LVU409
 1210              		.loc 1 180 28 is_stmt 0 view .LVU410
 1211 0728 0860A0E3 		mov	r6, #8
 1212              	.LVL160:
 1213              	.L49:
 1214              		.loc 1 232 9 is_stmt 1 view .LVU411
 1215              		.loc 1 232 11 is_stmt 0 view .LVU412
 1216 072c 0C309DE5 		ldr	r3, [sp, #12]
 1217 0730 042083E2 		add	r2, r3, #4
 1218              	.LVL161:
 1219              		.loc 1 232 11 view .LVU413
 1220 0734 000093E5 		ldr	r0, [r3]
 1221 0738 0C208DE5 		str	r2, [sp, #12]
 1222 073c DBFFFFEA 		b	.L50
 1223              	.LVL162:
 1224              	.L76:
 1225              		.loc 1 180 28 view .LVU414
 1226 0740 0A60A0E3 		mov	r6, #10
 1227 0744 D3FFFFEA 		b	.L22
 1228              	.LVL163:
 1229              	.L82:
 1230              		.loc 1 180 28 view .LVU415
 1231 0748 1060A0E3 		mov	r6, #16
 1232 074c F6FFFFEA 		b	.L49
 1233              	.LVL164:
 1234              	.L128:
 1235              		.loc 1 248 9 is_stmt 1 view .LVU416
 1236 0750 003095E5 		ldr	r3, [r5]
 1237 0754 2D10A0E3 		mov	r1, #45
 1238 0758 0500A0E1 		mov	r0, r5
 1239 075c 083093E5 		ldr	r3, [r3, #8]
 1240 0760 016086E2 		add	r6, r6, #1
 1241              	.LVL165:
 1242              		.loc 1 248 9 is_stmt 0 view .LVU417
 1243 0764 017047E2 		sub	r7, r7, #1
 1244 0768 33FF2FE1 		blx	r3
 1245              	.LVL166:
 1246              		.loc 1 249 9 is_stmt 1 view .LVU418
 1247 076c 82FFFFEA 		b	.L58
 1248              	.LVL167:
 1249              	.L65:
 1250              		.loc 1 180 28 is_stmt 0 view .LVU419
 1251 0770 0A60A0E3 		mov	r6, #10
 1252 0774 ECFFFFEA 		b	.L49
 1253              	.LVL168:
ARM GAS  /tmp/cc7Piq4n.s 			page 23


 1254              	.L20:
 1255              		.loc 1 180 28 view .LVU420
 1256 0778 1060A0E3 		mov	r6, #16
 1257 077c C5FFFFEA 		b	.L22
 1258              	.LVL169:
 1259              	.L85:
 1260              		.loc 1 191 11 view .LVU421
 1261 0780 34609FE5 		ldr	r6, .L131+12
 1262 0784 00FFFFEA 		b	.L70
 1263              	.LVL170:
 1264              	.L125:
 1265              		.loc 1 241 5 is_stmt 1 view .LVU422
 1266              		.loc 1 242 5 view .LVU423
 1267              		.loc 1 244 5 view .LVU424
 1268              		.loc 1 244 8 is_stmt 0 view .LVU425
 1269 0788 000057E3 		cmp	r7, #0
 1270 078c 04A0A011 		movne	r10, r4
 1271              		.loc 1 189 14 view .LVU426
 1272 0790 2090A013 		movne	r9, #32
 1273              		.loc 1 244 8 view .LVU427
 1274 0794 E6FEFF1A 		bne	.L61
 1275              		.loc 1 245 7 is_stmt 1 view .LVU428
 1276              		.loc 1 246 8 is_stmt 0 view .LVU429
 1277 0798 000054E3 		cmp	r4, #0
 1278              		.loc 1 245 13 view .LVU430
 1279 079c 00A064E2 		rsb	r10, r4, #0
 1280              	.LVL171:
 1281              		.loc 1 246 5 is_stmt 1 view .LVU431
 1282              		.loc 1 246 8 is_stmt 0 view .LVU432
 1283 07a0 27FEFF0A 		beq	.L5
 1284              		.loc 1 189 14 view .LVU433
 1285 07a4 2090A0E3 		mov	r9, #32
 1286              	.LVL172:
 1287              		.loc 1 246 8 view .LVU434
 1288 07a8 0070E0E3 		mvn	r7, #0
 1289 07ac 72FFFFEA 		b	.L58
 1290              	.L132:
 1291              		.align	2
 1292              	.L131:
 1293 07b0 FF7F0000 		.word	32767
 1294 07b4 CDCCCCCC 		.word	-858993459
 1295 07b8 006AF840 		.word	1090021888
 1296 07bc 00000000 		.word	.LC0
 1297              		.cfi_endproc
 1298              	.LFE10:
 1299              		.size	chprintf, .-chprintf
 1300              		.text
 1301              	.Letext0:
 1302              		.file 2 "/usr/lib/gcc/arm-none-eabi/9.2.1/include/stdarg.h"
 1303              		.file 3 "/usr/lib/gcc/arm-none-eabi/9.2.1/include/stddef.h"
 1304              		.file 4 "/usr/lib/gcc/arm-none-eabi/9.2.1/include/stdint.h"
 1305              		.file 5 "../os/ports/GCC/ARM/chtypes.h"
 1306              		.file 6 "../os/kernel/include/chlists.h"
 1307              		.file 7 "../os/kernel/include/chthreads.h"
 1308              		.file 8 "../os/ports/GCC/ARM/chcore.h"
 1309              		.file 9 "../os/kernel/include/chvt.h"
 1310              		.file 10 "../os/kernel/include/chschd.h"
ARM GAS  /tmp/cc7Piq4n.s 			page 24


 1311              		.file 11 "../os/kernel/include/chmtx.h"
 1312              		.file 12 "../os/kernel/include/chregistry.h"
 1313              		.file 13 "../os/kernel/include/chstreams.h"
 1314              		.file 14 "../os/kernel/include/ch.h"
 1315              		.file 15 "<built-in>"