ARM GAS  /tmp/cc6V3eFT.s 			page 1


   1              		.cpu arm1176jz-s
   2              		.eabi_attribute 20, 1
   3              		.eabi_attribute 21, 1
   4              		.eabi_attribute 23, 3
   5              		.eabi_attribute 24, 1
   6              		.eabi_attribute 25, 1
   7              		.eabi_attribute 26, 1
   8              		.eabi_attribute 30, 2
   9              		.eabi_attribute 34, 1
  10              		.eabi_attribute 18, 4
  11              		.file	"chqueues.c"
  12              		.text
  13              	.Ltext0:
  14              		.cfi_sections	.debug_frame
  15              		.section	.text.qwait,"ax",%progbits
  16              		.align	2
  17              		.arch armv6kz
  18              		.syntax unified
  19              		.arm
  20              		.fpu softvfp
  21              		.type	qwait, %function
  22              	qwait:
  23              	.LVL0:
  24              	.LFB7:
  25              		.file 1 "../os/kernel/src/chqueues.c"
  26              		.loc 1 63 54 view -0
  27              		.cfi_startproc
  28              		@ args = 0, pretend = 0, frame = 0
  29              		@ frame_needed = 0, uses_anonymous_args = 0
  30              		@ link register save eliminated.
  31              		.loc 1 65 3 view .LVU1
  32              		.loc 1 65 6 is_stmt 0 view .LVU2
  33 0000 000051E3 		cmp	r1, #0
  34              		.loc 1 63 54 view .LVU3
  35 0004 0030A0E1 		mov	r3, r0
  36              		.loc 1 65 6 view .LVU4
  37 0008 0800000A 		beq	.L2
  38              		.loc 1 67 3 is_stmt 1 view .LVU5
  39 000c 24209FE5 		ldr	r2, .L4
  40              	.LBB12:
  41              	.LBB13:
  42              		.file 2 "../os/kernel/include/chinline.h"
  43              		.loc 2 48 19 is_stmt 0 view .LVU6
  44 0010 04C090E5 		ldr	ip, [r0, #4]
  45              	.LBE13:
  46              	.LBE12:
  47              		.loc 1 67 3 view .LVU7
  48 0014 182092E5 		ldr	r2, [r2, #24]
  49              		.loc 1 69 10 view .LVU8
  50 0018 0D00A0E3 		mov	r0, #13
  51              	.LVL1:
  52              	.LBB16:
  53              	.LBB14:
  54              		.loc 2 48 14 view .LVU9
  55 001c 081082E8 		stm	r2, {r3, ip}
  56              	.LBE14:
  57              	.LBE16:
ARM GAS  /tmp/cc6V3eFT.s 			page 2


  58              		.loc 1 67 21 view .LVU10
  59 0020 243082E5 		str	r3, [r2, #36]
  60              		.loc 1 68 3 is_stmt 1 view .LVU11
  61              	.LVL2:
  62              	.LBB17:
  63              	.LBI12:
  64              		.loc 2 45 20 view .LVU12
  65              	.LBB15:
  66              		.loc 2 47 3 view .LVU13
  67              		.loc 2 49 3 view .LVU14
  68              		.loc 2 49 36 is_stmt 0 view .LVU15
  69 0024 042083E5 		str	r2, [r3, #4]
  70              		.loc 2 49 22 view .LVU16
  71 0028 00208CE5 		str	r2, [ip]
  72              	.LVL3:
  73              		.loc 2 49 22 view .LVU17
  74              	.LBE15:
  75              	.LBE17:
  76              		.loc 1 69 3 is_stmt 1 view .LVU18
  77              		.loc 1 69 10 is_stmt 0 view .LVU19
  78 002c FEFFFFEA 		b	chSchGoSleepTimeoutS
  79              	.LVL4:
  80              	.L2:
  81              		.loc 1 70 1 view .LVU20
  82 0030 0000E0E3 		mvn	r0, #0
  83              	.LVL5:
  84              		.loc 1 70 1 view .LVU21
  85 0034 1EFF2FE1 		bx	lr
  86              	.L5:
  87              		.align	2
  88              	.L4:
  89 0038 00000000 		.word	rlist
  90              		.cfi_endproc
  91              	.LFE7:
  92              		.size	qwait, .-qwait
  93              		.section	.text.chIQInit,"ax",%progbits
  94              		.align	2
  95              		.global	chIQInit
  96              		.syntax unified
  97              		.arm
  98              		.fpu softvfp
  99              		.type	chIQInit, %function
 100              	chIQInit:
 101              	.LVL6:
 102              	.LFB8:
 103              		.loc 1 89 27 is_stmt 1 view -0
 104              		.cfi_startproc
 105              		@ args = 4, pretend = 0, frame = 0
 106              		@ frame_needed = 0, uses_anonymous_args = 0
 107              		.loc 1 91 3 view .LVU23
 108              		.loc 1 89 27 is_stmt 0 view .LVU24
 109 0000 04E02DE5 		str	lr, [sp, #-4]!
 110              		.cfi_def_cfa_offset 4
 111              		.cfi_offset 14, -4
 112              		.loc 1 92 18 view .LVU25
 113 0004 00E0A0E3 		mov	lr, #0
 114              		.loc 1 89 27 view .LVU26
ARM GAS  /tmp/cc6V3eFT.s 			page 3


 115 0008 04C09DE5 		ldr	ip, [sp, #4]
 116              		.loc 1 94 19 view .LVU27
 117 000c 022081E0 		add	r2, r1, r2
 118              	.LVL7:
 119              		.loc 1 91 3 view .LVU28
 120 0010 040080E5 		str	r0, [r0, #4]
 121 0014 000080E5 		str	r0, [r0]
 122              		.loc 1 91 30 is_stmt 1 view .LVU29
 123              		.loc 1 92 3 view .LVU30
 124              		.loc 1 93 47 is_stmt 0 view .LVU31
 125 0018 141080E5 		str	r1, [r0, #20]
 126              		.loc 1 93 32 view .LVU32
 127 001c 181080E5 		str	r1, [r0, #24]
 128              		.loc 1 93 17 view .LVU33
 129 0020 0C1080E5 		str	r1, [r0, #12]
 130              		.loc 1 94 14 view .LVU34
 131 0024 102080E5 		str	r2, [r0, #16]
 132              		.loc 1 95 17 view .LVU35
 133 0028 1C3080E5 		str	r3, [r0, #28]
 134              		.loc 1 92 18 view .LVU36
 135 002c 08E080E5 		str	lr, [r0, #8]
 136              		.loc 1 93 3 is_stmt 1 view .LVU37
 137              		.loc 1 94 3 view .LVU38
 138              		.loc 1 95 3 view .LVU39
 139              		.loc 1 96 3 view .LVU40
 140              		.loc 1 96 15 is_stmt 0 view .LVU41
 141 0030 20C080E5 		str	ip, [r0, #32]
 142              		.loc 1 97 1 view .LVU42
 143 0034 04F09DE4 		ldr	pc, [sp], #4
 144              		.cfi_endproc
 145              	.LFE8:
 146              		.size	chIQInit, .-chIQInit
 147              		.section	.text.chIQResetI,"ax",%progbits
 148              		.align	2
 149              		.global	chIQResetI
 150              		.syntax unified
 151              		.arm
 152              		.fpu softvfp
 153              		.type	chIQResetI, %function
 154              	chIQResetI:
 155              	.LVL8:
 156              	.LFB9:
 157              		.loc 1 110 34 is_stmt 1 view -0
 158              		.cfi_startproc
 159              		@ args = 0, pretend = 0, frame = 0
 160              		@ frame_needed = 0, uses_anonymous_args = 0
 161              		.loc 1 112 3 view .LVU44
 162              		.loc 1 112 21 view .LVU45
 163              		.loc 1 114 3 view .LVU46
 164              		.loc 1 115 18 is_stmt 0 view .LVU47
 165 0000 0010A0E3 		mov	r1, #0
 166              		.loc 1 116 10 view .LVU48
 167 0004 003090E5 		ldr	r3, [r0]
 168              		.loc 1 114 36 view .LVU49
 169 0008 0C2090E5 		ldr	r2, [r0, #12]
 170              		.loc 1 116 9 view .LVU50
 171 000c 030050E1 		cmp	r0, r3
ARM GAS  /tmp/cc6V3eFT.s 			page 4


 172              		.loc 1 115 18 view .LVU51
 173 0010 081080E5 		str	r1, [r0, #8]
 174              		.loc 1 114 31 view .LVU52
 175 0014 142080E5 		str	r2, [r0, #20]
 176              		.loc 1 114 16 view .LVU53
 177 0018 182080E5 		str	r2, [r0, #24]
 178              		.loc 1 115 3 is_stmt 1 view .LVU54
 179              		.loc 1 116 3 view .LVU55
 180              		.loc 1 116 9 view .LVU56
 181 001c 1EFF2F01 		bxeq	lr
 182              		.loc 1 110 34 is_stmt 0 view .LVU57
 183 0020 70402DE9 		push	{r4, r5, r6, lr}
 184              		.cfi_def_cfa_offset 16
 185              		.cfi_offset 4, -16
 186              		.cfi_offset 5, -12
 187              		.cfi_offset 6, -8
 188              		.cfi_offset 14, -4
 189 0024 0040A0E1 		mov	r4, r0
 190              		.loc 1 117 59 view .LVU58
 191 0028 0150E0E3 		mvn	r5, #1
 192              	.LVL9:
 193              	.L10:
 194              		.loc 1 117 5 is_stmt 1 view .LVU59
 195              	.LBB18:
 196              	.LBI18:
 197              		.loc 2 52 23 view .LVU60
 198              	.LBB19:
 199              		.loc 2 53 3 view .LVU61
 200              		.loc 2 55 3 view .LVU62
 201              		.loc 2 55 20 is_stmt 0 view .LVU63
 202 002c 002093E5 		ldr	r2, [r3]
 203              	.LBE19:
 204              	.LBE18:
 205              		.loc 1 117 5 view .LVU64
 206 0030 0300A0E1 		mov	r0, r3
 207              	.LBB21:
 208              	.LBB20:
 209              		.loc 2 55 16 view .LVU65
 210 0034 002084E5 		str	r2, [r4]
 211              		.loc 2 55 38 view .LVU66
 212 0038 044082E5 		str	r4, [r2, #4]
 213              		.loc 2 56 3 is_stmt 1 view .LVU67
 214              	.LVL10:
 215              		.loc 2 56 3 is_stmt 0 view .LVU68
 216              	.LBE20:
 217              	.LBE21:
 218              		.loc 1 117 5 view .LVU69
 219 003c FEFFFFEB 		bl	chSchReadyI
 220              	.LVL11:
 221              		.loc 1 116 10 view .LVU70
 222 0040 003094E5 		ldr	r3, [r4]
 223              		.loc 1 117 59 view .LVU71
 224 0044 245080E5 		str	r5, [r0, #36]
 225              		.loc 1 116 9 is_stmt 1 view .LVU72
 226 0048 040053E1 		cmp	r3, r4
 227 004c F6FFFF1A 		bne	.L10
 228 0050 7080BDE8 		pop	{r4, r5, r6, pc}
ARM GAS  /tmp/cc6V3eFT.s 			page 5


 229              		.cfi_endproc
 230              	.LFE9:
 231              		.size	chIQResetI, .-chIQResetI
 232              		.section	.text.chIQPutI,"ax",%progbits
 233              		.align	2
 234              		.global	chIQPutI
 235              		.syntax unified
 236              		.arm
 237              		.fpu softvfp
 238              		.type	chIQPutI, %function
 239              	chIQPutI:
 240              	.LVL12:
 241              	.LFB10:
 242              		.loc 1 133 44 view -0
 243              		.cfi_startproc
 244              		@ args = 0, pretend = 0, frame = 0
 245              		@ frame_needed = 0, uses_anonymous_args = 0
 246              		.loc 1 135 3 view .LVU74
 247              		.loc 1 135 21 view .LVU75
 248              		.loc 1 137 3 view .LVU76
 249              		.loc 1 133 44 is_stmt 0 view .LVU77
 250 0000 0030A0E1 		mov	r3, r0
 251              		.loc 1 137 7 view .LVU78
 252 0004 140090E5 		ldr	r0, [r0, #20]
 253              	.LVL13:
 254              		.loc 1 137 6 view .LVU79
 255 0008 182093E5 		ldr	r2, [r3, #24]
 256 000c 020050E1 		cmp	r0, r2
 257              		.loc 1 137 7 view .LVU80
 258 0010 082093E5 		ldr	r2, [r3, #8]
 259              		.loc 1 137 6 view .LVU81
 260 0014 1800000A 		beq	.L17
 261              	.L18:
 262              		.loc 1 140 3 is_stmt 1 view .LVU82
 263              		.loc 1 140 17 is_stmt 0 view .LVU83
 264 0018 012082E2 		add	r2, r2, #1
 265              		.loc 1 141 16 view .LVU84
 266 001c 01C080E2 		add	ip, r0, #1
 267 0020 14C083E5 		str	ip, [r3, #20]
 268              		.loc 1 140 17 view .LVU85
 269 0024 082083E5 		str	r2, [r3, #8]
 270              		.loc 1 141 3 is_stmt 1 view .LVU86
 271              		.loc 1 141 19 is_stmt 0 view .LVU87
 272 0028 0010C0E5 		strb	r1, [r0]
 273              		.loc 1 142 3 is_stmt 1 view .LVU88
 274              		.loc 1 142 6 is_stmt 0 view .LVU89
 275 002c 102093E5 		ldr	r2, [r3, #16]
 276 0030 141093E5 		ldr	r1, [r3, #20]
 277              	.LVL14:
 278              		.loc 1 145 7 view .LVU90
 279 0034 000093E5 		ldr	r0, [r3]
 280              	.LVL15:
 281              		.loc 1 142 6 view .LVU91
 282 0038 020051E1 		cmp	r1, r2
 283              		.loc 1 143 5 is_stmt 1 view .LVU92
 284              		.loc 1 143 18 is_stmt 0 view .LVU93
 285 003c 0C209325 		ldrcs	r2, [r3, #12]
ARM GAS  /tmp/cc6V3eFT.s 			page 6


 286 0040 14208325 		strcs	r2, [r3, #20]
 287              	.LVL16:
 288              		.loc 1 145 3 is_stmt 1 view .LVU94
 289              		.loc 1 145 6 is_stmt 0 view .LVU95
 290 0044 030050E1 		cmp	r0, r3
 291 0048 0900000A 		beq	.L22
 292              		.loc 1 146 5 is_stmt 1 view .LVU96
 293              	.LVL17:
 294              	.LBB22:
 295              	.LBI22:
 296              		.loc 2 52 23 view .LVU97
 297              	.LBB23:
 298              		.loc 2 53 3 view .LVU98
 299              		.loc 2 55 3 view .LVU99
 300              		.loc 2 55 20 is_stmt 0 view .LVU100
 301 004c 002090E5 		ldr	r2, [r0]
 302              	.LBE23:
 303              	.LBE22:
 304              		.loc 1 133 44 view .LVU101
 305 0050 10402DE9 		push	{r4, lr}
 306              		.cfi_def_cfa_offset 8
 307              		.cfi_offset 4, -8
 308              		.cfi_offset 14, -4
 309              	.LBB25:
 310              	.LBB24:
 311              		.loc 2 55 16 view .LVU102
 312 0054 002083E5 		str	r2, [r3]
 313              		.loc 2 55 38 view .LVU103
 314 0058 043082E5 		str	r3, [r2, #4]
 315              		.loc 2 56 3 is_stmt 1 view .LVU104
 316              	.LVL18:
 317              		.loc 2 56 3 is_stmt 0 view .LVU105
 318              	.LBE24:
 319              	.LBE25:
 320              		.loc 1 146 5 view .LVU106
 321 005c FEFFFFEB 		bl	chSchReadyI
 322              	.LVL19:
 323              		.loc 1 146 59 view .LVU107
 324 0060 0020A0E3 		mov	r2, #0
 325              		.loc 1 146 5 view .LVU108
 326 0064 0030A0E1 		mov	r3, r0
 327              		.loc 1 148 10 view .LVU109
 328 0068 0200A0E1 		mov	r0, r2
 329              		.loc 1 146 59 view .LVU110
 330 006c 242083E5 		str	r2, [r3, #36]
 331              		.loc 1 149 1 view .LVU111
 332 0070 1080BDE8 		pop	{r4, pc}
 333              	.LVL20:
 334              	.L22:
 335              		.cfi_def_cfa_offset 0
 336              		.cfi_restore 4
 337              		.cfi_restore 14
 338              		.loc 1 148 10 view .LVU112
 339 0074 0000A0E3 		mov	r0, #0
 340              		.loc 1 149 1 view .LVU113
 341 0078 1EFF2FE1 		bx	lr
 342              	.LVL21:
ARM GAS  /tmp/cc6V3eFT.s 			page 7


 343              	.L17:
 344              		.loc 1 137 7 discriminator 1 view .LVU114
 345 007c 000052E3 		cmp	r2, #0
 346 0080 E4FFFF0A 		beq	.L18
 347              		.loc 1 138 12 view .LVU115
 348 0084 0300E0E3 		mvn	r0, #3
 349 0088 1EFF2FE1 		bx	lr
 350              		.cfi_endproc
 351              	.LFE10:
 352              		.size	chIQPutI, .-chIQPutI
 353              		.section	.text.chIQGetTimeout,"ax",%progbits
 354              		.align	2
 355              		.global	chIQGetTimeout
 356              		.syntax unified
 357              		.arm
 358              		.fpu softvfp
 359              		.type	chIQGetTimeout, %function
 360              	chIQGetTimeout:
 361              	.LVL22:
 362              	.LFB11:
 363              		.loc 1 171 55 is_stmt 1 view -0
 364              		.cfi_startproc
 365              		@ args = 0, pretend = 0, frame = 0
 366              		@ frame_needed = 0, uses_anonymous_args = 0
 367              		.loc 1 172 3 view .LVU117
 368              		.loc 1 174 3 view .LVU118
 369              		.loc 1 171 55 is_stmt 0 view .LVU119
 370 0000 70402DE9 		push	{r4, r5, r6, lr}
 371              		.cfi_def_cfa_offset 16
 372              		.cfi_offset 4, -16
 373              		.cfi_offset 5, -12
 374              		.cfi_offset 6, -8
 375              		.cfi_offset 14, -4
 376              		.loc 1 171 55 view .LVU120
 377 0004 0150A0E1 		mov	r5, r1
 378 0008 0040A0E1 		mov	r4, r0
 379              		.loc 1 174 3 view .LVU121
 380              		.syntax divided
 381              	@ 174 "../os/kernel/src/chqueues.c" 1
 382 000c 9FF021E3 		msr     CPSR_c, #0x9F
 383              	@ 0 "" 2
 384              		.loc 1 174 3 is_stmt 1 view .LVU122
 385              		.loc 1 174 14 view .LVU123
 386              		.loc 1 175 3 view .LVU124
 387              		.loc 1 175 10 is_stmt 0 view .LVU125
 388              		.arm
 389              		.syntax unified
 390 0010 1C3090E5 		ldr	r3, [r0, #28]
 391              		.loc 1 175 6 view .LVU126
 392 0014 000053E3 		cmp	r3, #0
 393 0018 0600000A 		beq	.L29
 394              		.loc 1 176 5 is_stmt 1 view .LVU127
 395 001c 33FF2FE1 		blx	r3
 396              	.LVL23:
 397              		.loc 1 176 5 is_stmt 0 view .LVU128
 398 0020 040000EA 		b	.L29
 399              	.L31:
ARM GAS  /tmp/cc6V3eFT.s 			page 8


 400              	.LBB26:
 401              		.loc 1 180 16 view .LVU129
 402 0024 0510A0E1 		mov	r1, r5
 403 0028 0400A0E1 		mov	r0, r4
 404 002c FEFFFFEB 		bl	qwait
 405              	.LVL24:
 406              		.loc 1 180 8 view .LVU130
 407 0030 000050E3 		cmp	r0, #0
 408              		.loc 1 180 8 view .LVU131
 409 0034 0C0000BA 		blt	.L32
 410              	.LVL25:
 411              	.L29:
 412              		.loc 1 179 5 is_stmt 1 view .LVU132
 413              		.loc 1 180 5 view .LVU133
 414              	.LBE26:
 415              		.loc 1 178 9 view .LVU134
 416              		.loc 1 178 10 is_stmt 0 view .LVU135
 417 0038 083094E5 		ldr	r3, [r4, #8]
 418              		.loc 1 178 9 view .LVU136
 419 003c 000053E3 		cmp	r3, #0
 420 0040 F7FFFF0A 		beq	.L31
 421              		.loc 1 186 3 is_stmt 1 view .LVU137
 422              		.loc 1 187 11 is_stmt 0 view .LVU138
 423 0044 182094E5 		ldr	r2, [r4, #24]
 424              		.loc 1 188 6 view .LVU139
 425 0048 100094E5 		ldr	r0, [r4, #16]
 426              		.loc 1 187 20 view .LVU140
 427 004c 011082E2 		add	r1, r2, #1
 428              		.loc 1 186 17 view .LVU141
 429 0050 013043E2 		sub	r3, r3, #1
 430              		.loc 1 188 6 view .LVU142
 431 0054 000051E1 		cmp	r1, r0
 432              		.loc 1 186 17 view .LVU143
 433 0058 083084E5 		str	r3, [r4, #8]
 434              		.loc 1 187 3 is_stmt 1 view .LVU144
 435              		.loc 1 189 18 is_stmt 0 view .LVU145
 436 005c 0C309425 		ldrcs	r3, [r4, #12]
 437              		.loc 1 187 20 view .LVU146
 438 0060 181084E5 		str	r1, [r4, #24]
 439              		.loc 1 187 5 view .LVU147
 440 0064 0000D2E5 		ldrb	r0, [r2]	@ zero_extendqisi2
 441              	.LVL26:
 442              		.loc 1 188 3 is_stmt 1 view .LVU148
 443              		.loc 1 189 5 view .LVU149
 444              		.loc 1 189 18 is_stmt 0 view .LVU150
 445 0068 18308425 		strcs	r3, [r4, #24]
 446              	.LVL27:
 447              	.L32:
 448              		.loc 1 191 3 is_stmt 1 view .LVU151
 449              		.loc 1 191 3 view .LVU152
 450              		.syntax divided
 451              	@ 191 "../os/kernel/src/chqueues.c" 1
 452 006c 1FF021E3 		msr     CPSR_c, #0x1F
 453              	@ 0 "" 2
 454              		.loc 1 191 16 view .LVU153
 455              		.loc 1 192 3 view .LVU154
 456              		.loc 1 193 1 is_stmt 0 view .LVU155
ARM GAS  /tmp/cc6V3eFT.s 			page 9


 457              		.arm
 458              		.syntax unified
 459 0070 7080BDE8 		pop	{r4, r5, r6, pc}
 460              		.cfi_endproc
 461              	.LFE11:
 462              		.size	chIQGetTimeout, .-chIQGetTimeout
 463              		.section	.text.chIQReadTimeout,"ax",%progbits
 464              		.align	2
 465              		.global	chIQReadTimeout
 466              		.syntax unified
 467              		.arm
 468              		.fpu softvfp
 469              		.type	chIQReadTimeout, %function
 470              	chIQReadTimeout:
 471              	.LVL28:
 472              	.LFB12:
 473              		.loc 1 220 50 is_stmt 1 view -0
 474              		.cfi_startproc
 475              		@ args = 0, pretend = 0, frame = 0
 476              		@ frame_needed = 0, uses_anonymous_args = 0
 477              		.loc 1 221 3 view .LVU157
 478              		.loc 1 220 50 is_stmt 0 view .LVU158
 479 0000 F0472DE9 		push	{r4, r5, r6, r7, r8, r9, r10, lr}
 480              		.cfi_def_cfa_offset 32
 481              		.cfi_offset 4, -32
 482              		.cfi_offset 5, -28
 483              		.cfi_offset 6, -24
 484              		.cfi_offset 7, -20
 485              		.cfi_offset 8, -16
 486              		.cfi_offset 9, -12
 487              		.cfi_offset 10, -8
 488              		.cfi_offset 14, -4
 489              		.loc 1 220 50 view .LVU159
 490 0004 0040A0E1 		mov	r4, r0
 491 0008 0170A0E1 		mov	r7, r1
 492 000c 0290A0E1 		mov	r9, r2
 493 0010 0350A0E1 		mov	r5, r3
 494              		.loc 1 221 13 view .LVU160
 495 0014 1C8090E5 		ldr	r8, [r0, #28]
 496              	.LVL29:
 497              		.loc 1 222 3 is_stmt 1 view .LVU161
 498              		.loc 1 224 3 view .LVU162
 499              		.loc 1 224 39 view .LVU163
 500              		.loc 1 226 3 view .LVU164
 501              		.syntax divided
 502              	@ 226 "../os/kernel/src/chqueues.c" 1
 503 0018 9FF021E3 		msr     CPSR_c, #0x9F
 504              	@ 0 "" 2
 505              		.loc 1 222 10 is_stmt 0 view .LVU165
 506              		.arm
 507              		.syntax unified
 508 001c 0060A0E3 		mov	r6, #0
 509              	.LVL30:
 510              	.L44:
 511              		.loc 1 226 3 is_stmt 1 discriminator 1 view .LVU166
 512              		.loc 1 226 14 discriminator 1 view .LVU167
 513              		.loc 1 227 3 discriminator 1 view .LVU168
ARM GAS  /tmp/cc6V3eFT.s 			page 10


 514              		.loc 1 228 5 discriminator 1 view .LVU169
 515              		.loc 1 228 8 is_stmt 0 discriminator 1 view .LVU170
 516 0020 000058E3 		cmp	r8, #0
 517 0024 0700000A 		beq	.L40
 518              		.loc 1 229 7 is_stmt 1 view .LVU171
 519 0028 0400A0E1 		mov	r0, r4
 520 002c 38FF2FE1 		blx	r8
 521              	.LVL31:
 522 0030 040000EA 		b	.L40
 523              	.L42:
 524              		.loc 1 232 11 is_stmt 0 view .LVU172
 525 0034 0510A0E1 		mov	r1, r5
 526 0038 0400A0E1 		mov	r0, r4
 527 003c FEFFFFEB 		bl	qwait
 528              	.LVL32:
 529              		.loc 1 232 10 view .LVU173
 530 0040 000050E3 		cmp	r0, #0
 531 0044 1400001A 		bne	.L51
 532              	.L40:
 533              		.loc 1 232 7 is_stmt 1 view .LVU174
 534              		.loc 1 231 11 view .LVU175
 535              		.loc 1 231 12 is_stmt 0 view .LVU176
 536 0048 080094E5 		ldr	r0, [r4, #8]
 537              		.loc 1 231 11 view .LVU177
 538 004c 000050E3 		cmp	r0, #0
 539 0050 F7FFFF0A 		beq	.L42
 540              		.loc 1 238 5 is_stmt 1 view .LVU178
 541              		.loc 1 239 17 is_stmt 0 view .LVU179
 542 0054 183094E5 		ldr	r3, [r4, #24]
 543              		.loc 1 238 19 view .LVU180
 544 0058 010040E2 		sub	r0, r0, #1
 545              		.loc 1 239 26 view .LVU181
 546 005c 012083E2 		add	r2, r3, #1
 547 0060 182084E5 		str	r2, [r4, #24]
 548              		.loc 1 238 19 view .LVU182
 549 0064 080084E5 		str	r0, [r4, #8]
 550              		.loc 1 239 5 is_stmt 1 view .LVU183
 551              	.LVL33:
 552              		.loc 1 239 13 is_stmt 0 view .LVU184
 553 0068 0030D3E5 		ldrb	r3, [r3]	@ zero_extendqisi2
 554              		.loc 1 239 11 view .LVU185
 555 006c 0130C7E4 		strb	r3, [r7], #1
 556              	.LVL34:
 557              		.loc 1 240 5 is_stmt 1 view .LVU186
 558              		.loc 1 240 8 is_stmt 0 view .LVU187
 559 0070 103094E5 		ldr	r3, [r4, #16]
 560 0074 182094E5 		ldr	r2, [r4, #24]
 561 0078 030052E1 		cmp	r2, r3
 562              		.loc 1 241 7 is_stmt 1 view .LVU188
 563              		.loc 1 241 20 is_stmt 0 view .LVU189
 564 007c 0C309425 		ldrcs	r3, [r4, #12]
 565 0080 18308425 		strcs	r3, [r4, #24]
 566              		.loc 1 243 5 is_stmt 1 view .LVU190
 567              		.loc 1 243 5 view .LVU191
 568              		.syntax divided
 569              	@ 243 "../os/kernel/src/chqueues.c" 1
 570 0084 1FF021E3 		msr     CPSR_c, #0x1F
ARM GAS  /tmp/cc6V3eFT.s 			page 11


 571              	@ 0 "" 2
 572              		.loc 1 243 18 view .LVU192
 573              		.loc 1 244 5 view .LVU193
 574              		.loc 1 244 6 is_stmt 0 view .LVU194
 575              		.arm
 576              		.syntax unified
 577 0088 016086E2 		add	r6, r6, #1
 578              	.LVL35:
 579              		.loc 1 245 5 is_stmt 1 view .LVU195
 580              		.loc 1 245 8 is_stmt 0 view .LVU196
 581 008c 060059E1 		cmp	r9, r6
 582 0090 0200000A 		beq	.L38
 583              		.loc 1 248 5 is_stmt 1 view .LVU197
 584              		.syntax divided
 585              	@ 248 "../os/kernel/src/chqueues.c" 1
 586 0094 9FF021E3 		msr     CPSR_c, #0x9F
 587              	@ 0 "" 2
 588              		.loc 1 248 5 view .LVU198
 589              		.loc 1 248 16 view .LVU199
 590              		.loc 1 227 9 view .LVU200
 591              		.loc 1 228 8 is_stmt 0 view .LVU201
 592              		.arm
 593              		.syntax unified
 594 0098 E0FFFFEA 		b	.L44
 595              	.LVL36:
 596              	.L51:
 597              		.loc 1 233 9 is_stmt 1 view .LVU202
 598              		.loc 1 233 9 view .LVU203
 599              		.syntax divided
 600              	@ 233 "../os/kernel/src/chqueues.c" 1
 601 009c 1FF021E3 		msr     CPSR_c, #0x1F
 602              	@ 0 "" 2
 603              		.loc 1 233 22 view .LVU204
 604              		.loc 1 234 9 view .LVU205
 605              		.arm
 606              		.syntax unified
 607              	.L38:
 608              		.loc 1 250 1 is_stmt 0 view .LVU206
 609 00a0 0600A0E1 		mov	r0, r6
 610 00a4 F087BDE8 		pop	{r4, r5, r6, r7, r8, r9, r10, pc}
 611              		.cfi_endproc
 612              	.LFE12:
 613              		.size	chIQReadTimeout, .-chIQReadTimeout
 614              		.section	.text.chOQInit,"ax",%progbits
 615              		.align	2
 616              		.global	chOQInit
 617              		.syntax unified
 618              		.arm
 619              		.fpu softvfp
 620              		.type	chOQInit, %function
 621              	chOQInit:
 622              	.LVL37:
 623              	.LFB13:
 624              		.loc 1 269 27 is_stmt 1 view -0
 625              		.cfi_startproc
 626              		@ args = 4, pretend = 0, frame = 0
 627              		@ frame_needed = 0, uses_anonymous_args = 0
ARM GAS  /tmp/cc6V3eFT.s 			page 12


 628              		.loc 1 271 3 view .LVU208
 629              		.loc 1 269 27 is_stmt 0 view .LVU209
 630 0000 04E02DE5 		str	lr, [sp, #-4]!
 631              		.cfi_def_cfa_offset 4
 632              		.cfi_offset 14, -4
 633              		.loc 1 269 27 view .LVU210
 634 0004 04C09DE5 		ldr	ip, [sp, #4]
 635              		.loc 1 274 19 view .LVU211
 636 0008 02E081E0 		add	lr, r1, r2
 637              		.loc 1 271 3 view .LVU212
 638 000c 040080E5 		str	r0, [r0, #4]
 639 0010 000080E5 		str	r0, [r0]
 640              		.loc 1 271 30 is_stmt 1 view .LVU213
 641              		.loc 1 272 3 view .LVU214
 642              		.loc 1 272 18 is_stmt 0 view .LVU215
 643 0014 082080E5 		str	r2, [r0, #8]
 644              		.loc 1 273 3 is_stmt 1 view .LVU216
 645              		.loc 1 274 14 is_stmt 0 view .LVU217
 646 0018 10E080E5 		str	lr, [r0, #16]
 647              		.loc 1 273 47 view .LVU218
 648 001c 141080E5 		str	r1, [r0, #20]
 649              		.loc 1 273 32 view .LVU219
 650 0020 181080E5 		str	r1, [r0, #24]
 651              		.loc 1 273 17 view .LVU220
 652 0024 0C1080E5 		str	r1, [r0, #12]
 653              		.loc 1 274 3 is_stmt 1 view .LVU221
 654              		.loc 1 275 3 view .LVU222
 655              		.loc 1 275 17 is_stmt 0 view .LVU223
 656 0028 1C3080E5 		str	r3, [r0, #28]
 657              		.loc 1 276 3 is_stmt 1 view .LVU224
 658              		.loc 1 276 15 is_stmt 0 view .LVU225
 659 002c 20C080E5 		str	ip, [r0, #32]
 660              		.loc 1 277 1 view .LVU226
 661 0030 04F09DE4 		ldr	pc, [sp], #4
 662              		.cfi_endproc
 663              	.LFE13:
 664              		.size	chOQInit, .-chOQInit
 665              		.section	.text.chOQResetI,"ax",%progbits
 666              		.align	2
 667              		.global	chOQResetI
 668              		.syntax unified
 669              		.arm
 670              		.fpu softvfp
 671              		.type	chOQResetI, %function
 672              	chOQResetI:
 673              	.LVL38:
 674              	.LFB14:
 675              		.loc 1 290 35 is_stmt 1 view -0
 676              		.cfi_startproc
 677              		@ args = 0, pretend = 0, frame = 0
 678              		@ frame_needed = 0, uses_anonymous_args = 0
 679              		.loc 1 292 3 view .LVU228
 680              		.loc 1 292 21 view .LVU229
 681              		.loc 1 294 3 view .LVU230
 682              		.loc 1 294 36 is_stmt 0 view .LVU231
 683 0000 0C1090E5 		ldr	r1, [r0, #12]
 684              		.loc 1 295 20 view .LVU232
ARM GAS  /tmp/cc6V3eFT.s 			page 13


 685 0004 102090E5 		ldr	r2, [r0, #16]
 686              		.loc 1 296 10 view .LVU233
 687 0008 003090E5 		ldr	r3, [r0]
 688              		.loc 1 295 20 view .LVU234
 689 000c 012042E0 		sub	r2, r2, r1
 690              		.loc 1 296 9 view .LVU235
 691 0010 030050E1 		cmp	r0, r3
 692              		.loc 1 294 31 view .LVU236
 693 0014 141080E5 		str	r1, [r0, #20]
 694              		.loc 1 294 16 view .LVU237
 695 0018 181080E5 		str	r1, [r0, #24]
 696              		.loc 1 295 3 is_stmt 1 view .LVU238
 697              		.loc 1 295 18 is_stmt 0 view .LVU239
 698 001c 082080E5 		str	r2, [r0, #8]
 699              		.loc 1 296 3 is_stmt 1 view .LVU240
 700              		.loc 1 296 9 view .LVU241
 701 0020 1EFF2F01 		bxeq	lr
 702              		.loc 1 290 35 is_stmt 0 view .LVU242
 703 0024 70402DE9 		push	{r4, r5, r6, lr}
 704              		.cfi_def_cfa_offset 16
 705              		.cfi_offset 4, -16
 706              		.cfi_offset 5, -12
 707              		.cfi_offset 6, -8
 708              		.cfi_offset 14, -4
 709 0028 0040A0E1 		mov	r4, r0
 710              		.loc 1 297 59 view .LVU243
 711 002c 0150E0E3 		mvn	r5, #1
 712              	.LVL39:
 713              	.L56:
 714              		.loc 1 297 5 is_stmt 1 view .LVU244
 715              	.LBB27:
 716              	.LBI27:
 717              		.loc 2 52 23 view .LVU245
 718              	.LBB28:
 719              		.loc 2 53 3 view .LVU246
 720              		.loc 2 55 3 view .LVU247
 721              		.loc 2 55 20 is_stmt 0 view .LVU248
 722 0030 002093E5 		ldr	r2, [r3]
 723              	.LBE28:
 724              	.LBE27:
 725              		.loc 1 297 5 view .LVU249
 726 0034 0300A0E1 		mov	r0, r3
 727              	.LBB30:
 728              	.LBB29:
 729              		.loc 2 55 16 view .LVU250
 730 0038 002084E5 		str	r2, [r4]
 731              		.loc 2 55 38 view .LVU251
 732 003c 044082E5 		str	r4, [r2, #4]
 733              		.loc 2 56 3 is_stmt 1 view .LVU252
 734              	.LVL40:
 735              		.loc 2 56 3 is_stmt 0 view .LVU253
 736              	.LBE29:
 737              	.LBE30:
 738              		.loc 1 297 5 view .LVU254
 739 0040 FEFFFFEB 		bl	chSchReadyI
 740              	.LVL41:
 741              		.loc 1 296 10 view .LVU255
ARM GAS  /tmp/cc6V3eFT.s 			page 14


 742 0044 003094E5 		ldr	r3, [r4]
 743              		.loc 1 297 59 view .LVU256
 744 0048 245080E5 		str	r5, [r0, #36]
 745              		.loc 1 296 9 is_stmt 1 view .LVU257
 746 004c 040053E1 		cmp	r3, r4
 747 0050 F6FFFF1A 		bne	.L56
 748 0054 7080BDE8 		pop	{r4, r5, r6, pc}
 749              		.cfi_endproc
 750              	.LFE14:
 751              		.size	chOQResetI, .-chOQResetI
 752              		.section	.text.chOQPutTimeout,"ax",%progbits
 753              		.align	2
 754              		.global	chOQPutTimeout
 755              		.syntax unified
 756              		.arm
 757              		.fpu softvfp
 758              		.type	chOQPutTimeout, %function
 759              	chOQPutTimeout:
 760              	.LVL42:
 761              	.LFB15:
 762              		.loc 1 322 67 view -0
 763              		.cfi_startproc
 764              		@ args = 0, pretend = 0, frame = 0
 765              		@ frame_needed = 0, uses_anonymous_args = 0
 766              		.loc 1 324 3 view .LVU259
 767              		.loc 1 322 67 is_stmt 0 view .LVU260
 768 0000 70402DE9 		push	{r4, r5, r6, lr}
 769              		.cfi_def_cfa_offset 16
 770              		.cfi_offset 4, -16
 771              		.cfi_offset 5, -12
 772              		.cfi_offset 6, -8
 773              		.cfi_offset 14, -4
 774              		.loc 1 322 67 view .LVU261
 775 0004 0040A0E1 		mov	r4, r0
 776 0008 0160A0E1 		mov	r6, r1
 777 000c 0250A0E1 		mov	r5, r2
 778              		.loc 1 324 3 view .LVU262
 779              		.syntax divided
 780              	@ 324 "../os/kernel/src/chqueues.c" 1
 781 0010 9FF021E3 		msr     CPSR_c, #0x9F
 782              	@ 0 "" 2
 783              		.loc 1 324 3 is_stmt 1 view .LVU263
 784              		.loc 1 324 14 view .LVU264
 785              		.loc 1 325 3 view .LVU265
 786              		.loc 1 325 9 is_stmt 0 view .LVU266
 787              		.arm
 788              		.syntax unified
 789 0014 040000EA 		b	.L63
 790              	.LVL43:
 791              	.L65:
 792              	.LBB31:
 793              		.loc 1 328 16 view .LVU267
 794 0018 0510A0E1 		mov	r1, r5
 795 001c 0400A0E1 		mov	r0, r4
 796 0020 FEFFFFEB 		bl	qwait
 797              	.LVL44:
 798              		.loc 1 328 8 view .LVU268
ARM GAS  /tmp/cc6V3eFT.s 			page 15


 799 0024 000050E3 		cmp	r0, #0
 800              		.loc 1 328 8 view .LVU269
 801 0028 150000BA 		blt	.L73
 802              	.LVL45:
 803              	.L63:
 804              		.loc 1 326 5 is_stmt 1 view .LVU270
 805              		.loc 1 328 5 view .LVU271
 806              	.LBE31:
 807              		.loc 1 325 9 view .LVU272
 808              		.loc 1 325 10 is_stmt 0 view .LVU273
 809 002c 083094E5 		ldr	r3, [r4, #8]
 810              		.loc 1 325 9 view .LVU274
 811 0030 000053E3 		cmp	r3, #0
 812 0034 F7FFFF0A 		beq	.L65
 813              		.loc 1 334 3 is_stmt 1 view .LVU275
 814              		.loc 1 335 7 is_stmt 0 view .LVU276
 815 0038 142094E5 		ldr	r2, [r4, #20]
 816              		.loc 1 334 17 view .LVU277
 817 003c 013043E2 		sub	r3, r3, #1
 818              		.loc 1 335 16 view .LVU278
 819 0040 011082E2 		add	r1, r2, #1
 820 0044 141084E5 		str	r1, [r4, #20]
 821              		.loc 1 334 17 view .LVU279
 822 0048 083084E5 		str	r3, [r4, #8]
 823              		.loc 1 335 3 is_stmt 1 view .LVU280
 824              		.loc 1 335 19 is_stmt 0 view .LVU281
 825 004c 0060C2E5 		strb	r6, [r2]
 826              		.loc 1 336 3 is_stmt 1 view .LVU282
 827              		.loc 1 336 6 is_stmt 0 view .LVU283
 828 0050 103094E5 		ldr	r3, [r4, #16]
 829 0054 142094E5 		ldr	r2, [r4, #20]
 830 0058 030052E1 		cmp	r2, r3
 831              		.loc 1 337 5 is_stmt 1 view .LVU284
 832              		.loc 1 337 18 is_stmt 0 view .LVU285
 833 005c 0C309425 		ldrcs	r3, [r4, #12]
 834 0060 14308425 		strcs	r3, [r4, #20]
 835              		.loc 1 339 3 is_stmt 1 view .LVU286
 836              		.loc 1 339 10 is_stmt 0 view .LVU287
 837 0064 1C3094E5 		ldr	r3, [r4, #28]
 838              		.loc 1 339 6 view .LVU288
 839 0068 000053E3 		cmp	r3, #0
 840 006c 0100000A 		beq	.L67
 841              		.loc 1 340 5 is_stmt 1 view .LVU289
 842 0070 0400A0E1 		mov	r0, r4
 843 0074 33FF2FE1 		blx	r3
 844              	.LVL46:
 845              	.L67:
 846              		.loc 1 342 3 view .LVU290
 847              		.loc 1 342 3 view .LVU291
 848              		.syntax divided
 849              	@ 342 "../os/kernel/src/chqueues.c" 1
 850 0078 1FF021E3 		msr     CPSR_c, #0x1F
 851              	@ 0 "" 2
 852              		.loc 1 342 16 view .LVU292
 853              		.loc 1 343 3 view .LVU293
 854              		.loc 1 343 10 is_stmt 0 view .LVU294
 855              		.arm
ARM GAS  /tmp/cc6V3eFT.s 			page 16


 856              		.syntax unified
 857 007c 0000A0E3 		mov	r0, #0
 858              		.loc 1 344 1 view .LVU295
 859 0080 7080BDE8 		pop	{r4, r5, r6, pc}
 860              	.LVL47:
 861              	.L73:
 862              	.LBB32:
 863              		.loc 1 329 7 is_stmt 1 view .LVU296
 864              		.loc 1 329 7 view .LVU297
 865              		.syntax divided
 866              	@ 329 "../os/kernel/src/chqueues.c" 1
 867 0084 1FF021E3 		msr     CPSR_c, #0x1F
 868              	@ 0 "" 2
 869              		.loc 1 329 20 view .LVU298
 870              		.loc 1 330 7 view .LVU299
 871              		.loc 1 330 14 is_stmt 0 view .LVU300
 872              		.arm
 873              		.syntax unified
 874 0088 7080BDE8 		pop	{r4, r5, r6, pc}
 875              	.LBE32:
 876              		.cfi_endproc
 877              	.LFE15:
 878              		.size	chOQPutTimeout, .-chOQPutTimeout
 879              		.section	.text.chOQGetI,"ax",%progbits
 880              		.align	2
 881              		.global	chOQGetI
 882              		.syntax unified
 883              		.arm
 884              		.fpu softvfp
 885              		.type	chOQGetI, %function
 886              	chOQGetI:
 887              	.LVL48:
 888              	.LFB16:
 889              		.loc 1 356 34 is_stmt 1 view -0
 890              		.cfi_startproc
 891              		@ args = 0, pretend = 0, frame = 0
 892              		@ frame_needed = 0, uses_anonymous_args = 0
 893              		.loc 1 357 3 view .LVU302
 894              		.loc 1 359 3 view .LVU303
 895              		.loc 1 359 21 view .LVU304
 896              		.loc 1 361 3 view .LVU305
 897              		.loc 1 361 6 is_stmt 0 view .LVU306
 898 0000 142090E5 		ldr	r2, [r0, #20]
 899              		.loc 1 361 7 view .LVU307
 900 0004 181090E5 		ldr	r1, [r0, #24]
 901              		.loc 1 356 34 view .LVU308
 902 0008 0030A0E1 		mov	r3, r0
 903              		.loc 1 361 6 view .LVU309
 904 000c 010052E1 		cmp	r2, r1
 905              		.loc 1 361 7 view .LVU310
 906 0010 082090E5 		ldr	r2, [r0, #8]
 907              		.loc 1 361 6 view .LVU311
 908 0014 1400000A 		beq	.L75
 909              	.L76:
 910              		.loc 1 364 3 is_stmt 1 view .LVU312
 911              		.loc 1 356 34 is_stmt 0 view .LVU313
 912 0018 10402DE9 		push	{r4, lr}
ARM GAS  /tmp/cc6V3eFT.s 			page 17


 913              		.cfi_def_cfa_offset 8
 914              		.cfi_offset 4, -8
 915              		.cfi_offset 14, -4
 916              		.loc 1 366 6 view .LVU314
 917 001c 10C093E5 		ldr	ip, [r3, #16]
 918              		.loc 1 365 20 view .LVU315
 919 0020 010081E2 		add	r0, r1, #1
 920              	.LVL49:
 921              		.loc 1 366 6 view .LVU316
 922 0024 0C0050E1 		cmp	r0, ip
 923              		.loc 1 364 17 view .LVU317
 924 0028 012082E2 		add	r2, r2, #1
 925              		.loc 1 365 20 view .LVU318
 926 002c 180083E5 		str	r0, [r3, #24]
 927              		.loc 1 364 17 view .LVU319
 928 0030 082083E5 		str	r2, [r3, #8]
 929              		.loc 1 365 3 is_stmt 1 view .LVU320
 930              		.loc 1 369 7 is_stmt 0 view .LVU321
 931 0034 000093E5 		ldr	r0, [r3]
 932              		.loc 1 367 18 view .LVU322
 933 0038 0C209325 		ldrcs	r2, [r3, #12]
 934              		.loc 1 365 5 view .LVU323
 935 003c 0040D1E5 		ldrb	r4, [r1]	@ zero_extendqisi2
 936              	.LVL50:
 937              		.loc 1 366 3 is_stmt 1 view .LVU324
 938              		.loc 1 367 5 view .LVU325
 939              		.loc 1 367 18 is_stmt 0 view .LVU326
 940 0040 18208325 		strcs	r2, [r3, #24]
 941              		.loc 1 369 3 is_stmt 1 view .LVU327
 942              		.loc 1 369 6 is_stmt 0 view .LVU328
 943 0044 030050E1 		cmp	r0, r3
 944 0048 0500000A 		beq	.L79
 945              		.loc 1 370 5 is_stmt 1 view .LVU329
 946              	.LVL51:
 947              	.LBB33:
 948              	.LBI33:
 949              		.loc 2 52 23 view .LVU330
 950              	.LBB34:
 951              		.loc 2 53 3 view .LVU331
 952              		.loc 2 55 3 view .LVU332
 953              		.loc 2 55 20 is_stmt 0 view .LVU333
 954 004c 002090E5 		ldr	r2, [r0]
 955              		.loc 2 55 16 view .LVU334
 956 0050 002083E5 		str	r2, [r3]
 957              		.loc 2 55 38 view .LVU335
 958 0054 043082E5 		str	r3, [r2, #4]
 959              		.loc 2 56 3 is_stmt 1 view .LVU336
 960              	.LVL52:
 961              		.loc 2 56 3 is_stmt 0 view .LVU337
 962              	.LBE34:
 963              	.LBE33:
 964              		.loc 1 370 5 view .LVU338
 965 0058 FEFFFFEB 		bl	chSchReadyI
 966              	.LVL53:
 967              		.loc 1 370 59 view .LVU339
 968 005c 0030A0E3 		mov	r3, #0
 969 0060 243080E5 		str	r3, [r0, #36]
ARM GAS  /tmp/cc6V3eFT.s 			page 18


 970              	.L79:
 971              		.loc 1 372 3 is_stmt 1 view .LVU340
 972              		.loc 1 372 10 is_stmt 0 view .LVU341
 973 0064 0400A0E1 		mov	r0, r4
 974              		.loc 1 373 1 view .LVU342
 975 0068 1080BDE8 		pop	{r4, pc}
 976              	.LVL54:
 977              	.L75:
 978              		.cfi_def_cfa_offset 0
 979              		.cfi_restore 4
 980              		.cfi_restore 14
 981              		.loc 1 361 7 discriminator 1 view .LVU343
 982 006c 000052E3 		cmp	r2, #0
 983 0070 E8FFFF0A 		beq	.L76
 984              		.loc 1 362 12 view .LVU344
 985 0074 0200E0E3 		mvn	r0, #2
 986              	.LVL55:
 987              		.loc 1 373 1 view .LVU345
 988 0078 1EFF2FE1 		bx	lr
 989              		.cfi_endproc
 990              	.LFE16:
 991              		.size	chOQGetI, .-chOQGetI
 992              		.section	.text.chOQWriteTimeout,"ax",%progbits
 993              		.align	2
 994              		.global	chOQWriteTimeout
 995              		.syntax unified
 996              		.arm
 997              		.fpu softvfp
 998              		.type	chOQWriteTimeout, %function
 999              	chOQWriteTimeout:
 1000              	.LVL56:
 1001              	.LFB17:
 1002              		.loc 1 400 51 is_stmt 1 view -0
 1003              		.cfi_startproc
 1004              		@ args = 0, pretend = 0, frame = 0
 1005              		@ frame_needed = 0, uses_anonymous_args = 0
 1006              		.loc 1 401 3 view .LVU347
 1007              		.loc 1 400 51 is_stmt 0 view .LVU348
 1008 0000 F0472DE9 		push	{r4, r5, r6, r7, r8, r9, r10, lr}
 1009              		.cfi_def_cfa_offset 32
 1010              		.cfi_offset 4, -32
 1011              		.cfi_offset 5, -28
 1012              		.cfi_offset 6, -24
 1013              		.cfi_offset 7, -20
 1014              		.cfi_offset 8, -16
 1015              		.cfi_offset 9, -12
 1016              		.cfi_offset 10, -8
 1017              		.cfi_offset 14, -4
 1018              		.loc 1 400 51 view .LVU349
 1019 0004 0040A0E1 		mov	r4, r0
 1020 0008 0150A0E1 		mov	r5, r1
 1021 000c 0260A0E1 		mov	r6, r2
 1022 0010 0390A0E1 		mov	r9, r3
 1023              		.loc 1 401 13 view .LVU350
 1024 0014 1C8090E5 		ldr	r8, [r0, #28]
 1025              	.LVL57:
 1026              		.loc 1 402 3 is_stmt 1 view .LVU351
ARM GAS  /tmp/cc6V3eFT.s 			page 19


 1027              		.loc 1 404 3 view .LVU352
 1028              		.loc 1 404 40 view .LVU353
 1029              		.loc 1 406 3 view .LVU354
 1030              		.syntax divided
 1031              	@ 406 "../os/kernel/src/chqueues.c" 1
 1032 0018 9FF021E3 		msr     CPSR_c, #0x9F
 1033              	@ 0 "" 2
 1034              		.loc 1 402 10 is_stmt 0 view .LVU355
 1035              		.arm
 1036              		.syntax unified
 1037 001c 0070A0E3 		mov	r7, #0
 1038              	.LVL58:
 1039              	.L85:
 1040              		.loc 1 408 11 is_stmt 1 view .LVU356
 1041              		.loc 1 414 5 view .LVU357
 1042              		.loc 1 419 5 view .LVU358
 1043              		.loc 1 420 7 view .LVU359
 1044              		.loc 1 408 12 is_stmt 0 view .LVU360
 1045 0020 080094E5 		ldr	r0, [r4, #8]
 1046              		.loc 1 408 11 view .LVU361
 1047 0024 000050E3 		cmp	r0, #0
 1048              		.loc 1 414 19 view .LVU362
 1049 0028 013040E2 		sub	r3, r0, #1
 1050              		.loc 1 408 11 view .LVU363
 1051 002c 1700000A 		beq	.L88
 1052              	.L101:
 1053              		.loc 1 417 7 is_stmt 1 view .LVU364
 1054              		.loc 1 415 9 is_stmt 0 view .LVU365
 1055 0030 142094E5 		ldr	r2, [r4, #20]
 1056              		.loc 1 414 19 view .LVU366
 1057 0034 083084E5 		str	r3, [r4, #8]
 1058              		.loc 1 415 5 is_stmt 1 view .LVU367
 1059              	.LVL59:
 1060              		.loc 1 415 18 is_stmt 0 view .LVU368
 1061 0038 013082E2 		add	r3, r2, #1
 1062 003c 143084E5 		str	r3, [r4, #20]
 1063              		.loc 1 415 23 view .LVU369
 1064 0040 0130D5E4 		ldrb	r3, [r5], #1	@ zero_extendqisi2
 1065              	.LVL60:
 1066              		.loc 1 415 21 view .LVU370
 1067 0044 0030C2E5 		strb	r3, [r2]
 1068              		.loc 1 416 5 is_stmt 1 view .LVU371
 1069              		.loc 1 416 8 is_stmt 0 view .LVU372
 1070 0048 103094E5 		ldr	r3, [r4, #16]
 1071 004c 142094E5 		ldr	r2, [r4, #20]
 1072 0050 030052E1 		cmp	r2, r3
 1073              		.loc 1 417 20 view .LVU373
 1074 0054 0C309425 		ldrcs	r3, [r4, #12]
 1075 0058 14308425 		strcs	r3, [r4, #20]
 1076              		.loc 1 419 8 view .LVU374
 1077 005c 000058E3 		cmp	r8, #0
 1078 0060 0100000A 		beq	.L90
 1079              		.loc 1 420 7 view .LVU375
 1080 0064 0400A0E1 		mov	r0, r4
 1081 0068 38FF2FE1 		blx	r8
 1082              	.LVL61:
 1083              	.L90:
ARM GAS  /tmp/cc6V3eFT.s 			page 20


 1084              		.loc 1 422 5 is_stmt 1 view .LVU376
 1085              		.loc 1 422 5 view .LVU377
 1086              		.syntax divided
 1087              	@ 422 "../os/kernel/src/chqueues.c" 1
 1088 006c 1FF021E3 		msr     CPSR_c, #0x1F
 1089              	@ 0 "" 2
 1090              		.loc 1 422 18 view .LVU378
 1091              		.loc 1 423 5 view .LVU379
 1092              		.loc 1 426 5 view .LVU380
 1093              		.loc 1 424 8 is_stmt 0 view .LVU381
 1094              		.arm
 1095              		.syntax unified
 1096 0070 016056E2 		subs	r6, r6, #1
 1097              	.LVL62:
 1098              		.loc 1 423 6 view .LVU382
 1099 0074 017087E2 		add	r7, r7, #1
 1100              	.LVL63:
 1101              		.loc 1 424 5 is_stmt 1 view .LVU383
 1102              		.loc 1 424 8 is_stmt 0 view .LVU384
 1103 0078 0A00000A 		beq	.L84
 1104              		.loc 1 426 5 view .LVU385
 1105              		.syntax divided
 1106              	@ 426 "../os/kernel/src/chqueues.c" 1
 1107 007c 9FF021E3 		msr     CPSR_c, #0x9F
 1108              	@ 0 "" 2
 1109              		.loc 1 426 5 is_stmt 1 view .LVU386
 1110              		.loc 1 426 16 view .LVU387
 1111              		.loc 1 407 9 view .LVU388
 1112              	.LVL64:
 1113              		.loc 1 408 11 view .LVU389
 1114              		.loc 1 414 5 view .LVU390
 1115              		.loc 1 419 5 view .LVU391
 1116              		.loc 1 420 7 view .LVU392
 1117              		.loc 1 408 12 is_stmt 0 view .LVU393
 1118              		.arm
 1119              		.syntax unified
 1120 0080 080094E5 		ldr	r0, [r4, #8]
 1121              		.loc 1 408 11 view .LVU394
 1122 0084 000050E3 		cmp	r0, #0
 1123              		.loc 1 414 19 view .LVU395
 1124 0088 013040E2 		sub	r3, r0, #1
 1125              		.loc 1 408 11 view .LVU396
 1126 008c E7FFFF1A 		bne	.L101
 1127              	.L88:
 1128              		.loc 1 409 7 is_stmt 1 view .LVU397
 1129              		.loc 1 409 11 is_stmt 0 view .LVU398
 1130 0090 0910A0E1 		mov	r1, r9
 1131 0094 0400A0E1 		mov	r0, r4
 1132 0098 FEFFFFEB 		bl	qwait
 1133              	.LVL65:
 1134              		.loc 1 409 10 view .LVU399
 1135 009c 000050E3 		cmp	r0, #0
 1136 00a0 DEFFFF0A 		beq	.L85
 1137              		.loc 1 410 9 is_stmt 1 view .LVU400
 1138              		.loc 1 410 9 view .LVU401
 1139              		.syntax divided
 1140              	@ 410 "../os/kernel/src/chqueues.c" 1
ARM GAS  /tmp/cc6V3eFT.s 			page 21


 1141 00a4 1FF021E3 		msr     CPSR_c, #0x1F
 1142              	@ 0 "" 2
 1143              		.loc 1 410 22 view .LVU402
 1144              		.loc 1 411 9 view .LVU403
 1145              	.LVL66:
 1146              		.arm
 1147              		.syntax unified
 1148              	.L84:
 1149              		.loc 1 428 1 is_stmt 0 view .LVU404
 1150 00a8 0700A0E1 		mov	r0, r7
 1151 00ac F087BDE8 		pop	{r4, r5, r6, r7, r8, r9, r10, pc}
 1152              		.cfi_endproc
 1153              	.LFE17:
 1154              		.size	chOQWriteTimeout, .-chOQWriteTimeout
 1155              		.text
 1156              	.Letext0:
 1157              		.file 3 "/usr/lib/gcc/arm-none-eabi/9.2.1/include/stddef.h"
 1158              		.file 4 "/usr/lib/gcc/arm-none-eabi/9.2.1/include/stdint.h"
 1159              		.file 5 "../os/ports/GCC/ARM/chtypes.h"
 1160              		.file 6 "../os/kernel/include/chlists.h"
 1161              		.file 7 "../os/kernel/include/chthreads.h"
 1162              		.file 8 "../os/ports/GCC/ARM/chcore.h"
 1163              		.file 9 "../os/kernel/include/chvt.h"
 1164              		.file 10 "../os/kernel/include/chschd.h"
 1165              		.file 11 "../os/kernel/include/chmtx.h"
 1166              		.file 12 "../os/kernel/include/chregistry.h"
 1167              		.file 13 "../os/kernel/include/chqueues.h"
 1168              		.file 14 "../os/kernel/include/ch.h"
 1169              		.section	.debug_info,"",%progbits
 1170              	.Ldebug_info0:
 1171 0000 650D0000 		.4byte	0xd65
 1172 0004 0400     		.2byte	0x4
 1173 0006 00000000 		.4byte	.Ldebug_abbrev0
 1174 000a 04       		.byte	0x4
 1175 000b 01       		.uleb128 0x1
 1176 000c 27000000 		.4byte	.LASF125
 1177 0010 0C       		.byte	0xc
 1178 0011 97050000 		.4byte	.LASF126
 1179 0015 B0040000 		.4byte	.LASF127
 1180 0019 80000000 		.4byte	.Ldebug_ranges0+0x80
 1181 001d 00000000 		.4byte	0
 1182 0021 00000000 		.4byte	.Ldebug_line0
 1183 0025 02       		.uleb128 0x2
 1184 0026 04       		.byte	0x4
 1185 0027 05       		.byte	0x5
 1186 0028 696E7400 		.ascii	"int\000"
 1187 002c 03       		.uleb128 0x3
 1188 002d 4C020000 		.4byte	.LASF3
 1189 0031 03       		.byte	0x3
 1190 0032 D1       		.byte	0xd1
 1191 0033 17       		.byte	0x17
 1192 0034 38000000 		.4byte	0x38
 1193 0038 04       		.uleb128 0x4
 1194 0039 04       		.byte	0x4
 1195 003a 07       		.byte	0x7
 1196 003b 5C020000 		.4byte	.LASF0
 1197 003f 04       		.uleb128 0x4
ARM GAS  /tmp/cc6V3eFT.s 			page 22


 1198 0040 01       		.byte	0x1
 1199 0041 06       		.byte	0x6
 1200 0042 8E010000 		.4byte	.LASF1
 1201 0046 04       		.uleb128 0x4
 1202 0047 02       		.byte	0x2
 1203 0048 05       		.byte	0x5
 1204 0049 0E040000 		.4byte	.LASF2
 1205 004d 03       		.uleb128 0x3
 1206 004e EE030000 		.4byte	.LASF4
 1207 0052 04       		.byte	0x4
 1208 0053 28       		.byte	0x28
 1209 0054 18       		.byte	0x18
 1210 0055 59000000 		.4byte	0x59
 1211 0059 04       		.uleb128 0x4
 1212 005a 04       		.byte	0x4
 1213 005b 05       		.byte	0x5
 1214 005c DF010000 		.4byte	.LASF5
 1215 0060 04       		.uleb128 0x4
 1216 0061 08       		.byte	0x8
 1217 0062 05       		.byte	0x5
 1218 0063 80010000 		.4byte	.LASF6
 1219 0067 03       		.uleb128 0x3
 1220 0068 C2050000 		.4byte	.LASF7
 1221 006c 04       		.byte	0x4
 1222 006d 2E       		.byte	0x2e
 1223 006e 18       		.byte	0x18
 1224 006f 78000000 		.4byte	0x78
 1225 0073 05       		.uleb128 0x5
 1226 0074 67000000 		.4byte	0x67
 1227 0078 04       		.uleb128 0x4
 1228 0079 01       		.byte	0x1
 1229 007a 08       		.byte	0x8
 1230 007b F6030000 		.4byte	.LASF8
 1231 007f 03       		.uleb128 0x3
 1232 0080 03020000 		.4byte	.LASF9
 1233 0084 04       		.byte	0x4
 1234 0085 31       		.byte	0x31
 1235 0086 19       		.byte	0x19
 1236 0087 8B000000 		.4byte	0x8b
 1237 008b 04       		.uleb128 0x4
 1238 008c 02       		.byte	0x2
 1239 008d 07       		.byte	0x7
 1240 008e B2020000 		.4byte	.LASF10
 1241 0092 03       		.uleb128 0x3
 1242 0093 86040000 		.4byte	.LASF11
 1243 0097 04       		.byte	0x4
 1244 0098 34       		.byte	0x34
 1245 0099 19       		.byte	0x19
 1246 009a 9E000000 		.4byte	0x9e
 1247 009e 04       		.uleb128 0x4
 1248 009f 04       		.byte	0x4
 1249 00a0 07       		.byte	0x7
 1250 00a1 7C020000 		.4byte	.LASF12
 1251 00a5 04       		.uleb128 0x4
 1252 00a6 08       		.byte	0x8
 1253 00a7 07       		.byte	0x7
 1254 00a8 34010000 		.4byte	.LASF13
ARM GAS  /tmp/cc6V3eFT.s 			page 23


 1255 00ac 03       		.uleb128 0x3
 1256 00ad B7010000 		.4byte	.LASF14
 1257 00b1 05       		.byte	0x5
 1258 00b2 29       		.byte	0x29
 1259 00b3 19       		.byte	0x19
 1260 00b4 4D000000 		.4byte	0x4d
 1261 00b8 03       		.uleb128 0x3
 1262 00b9 D8020000 		.4byte	.LASF15
 1263 00bd 05       		.byte	0x5
 1264 00be 2A       		.byte	0x2a
 1265 00bf 19       		.byte	0x19
 1266 00c0 67000000 		.4byte	0x67
 1267 00c4 03       		.uleb128 0x3
 1268 00c5 E8010000 		.4byte	.LASF16
 1269 00c9 05       		.byte	0x5
 1270 00ca 2B       		.byte	0x2b
 1271 00cb 19       		.byte	0x19
 1272 00cc 67000000 		.4byte	0x67
 1273 00d0 03       		.uleb128 0x3
 1274 00d1 BA030000 		.4byte	.LASF17
 1275 00d5 05       		.byte	0x5
 1276 00d6 2C       		.byte	0x2c
 1277 00d7 19       		.byte	0x19
 1278 00d8 67000000 		.4byte	0x67
 1279 00dc 03       		.uleb128 0x3
 1280 00dd C6010000 		.4byte	.LASF18
 1281 00e1 05       		.byte	0x5
 1282 00e2 2D       		.byte	0x2d
 1283 00e3 19       		.byte	0x19
 1284 00e4 67000000 		.4byte	0x67
 1285 00e8 03       		.uleb128 0x3
 1286 00e9 DE030000 		.4byte	.LASF19
 1287 00ed 05       		.byte	0x5
 1288 00ee 2E       		.byte	0x2e
 1289 00ef 19       		.byte	0x19
 1290 00f0 92000000 		.4byte	0x92
 1291 00f4 03       		.uleb128 0x3
 1292 00f5 C5020000 		.4byte	.LASF20
 1293 00f9 05       		.byte	0x5
 1294 00fa 2F       		.byte	0x2f
 1295 00fb 19       		.byte	0x19
 1296 00fc 4D000000 		.4byte	0x4d
 1297 0100 03       		.uleb128 0x3
 1298 0101 EC020000 		.4byte	.LASF21
 1299 0105 05       		.byte	0x5
 1300 0106 31       		.byte	0x31
 1301 0107 19       		.byte	0x19
 1302 0108 92000000 		.4byte	0x92
 1303 010c 03       		.uleb128 0x3
 1304 010d 32050000 		.4byte	.LASF22
 1305 0111 05       		.byte	0x5
 1306 0112 33       		.byte	0x33
 1307 0113 19       		.byte	0x19
 1308 0114 92000000 		.4byte	0x92
 1309 0118 06       		.uleb128 0x6
 1310 0119 0C010000 		.4byte	0x10c
 1311 011d 03       		.uleb128 0x3
ARM GAS  /tmp/cc6V3eFT.s 			page 24


 1312 011e 67040000 		.4byte	.LASF23
 1313 0122 06       		.byte	0x6
 1314 0123 23       		.byte	0x23
 1315 0124 17       		.byte	0x17
 1316 0125 29010000 		.4byte	0x129
 1317 0129 07       		.uleb128 0x7
 1318 012a 67040000 		.4byte	.LASF23
 1319 012e 44       		.byte	0x44
 1320 012f 07       		.byte	0x7
 1321 0130 57       		.byte	0x57
 1322 0131 08       		.byte	0x8
 1323 0132 2E020000 		.4byte	0x22e
 1324 0136 08       		.uleb128 0x8
 1325 0137 44040000 		.4byte	.LASF24
 1326 013b 07       		.byte	0x7
 1327 013c 58       		.byte	0x58
 1328 013d 1A       		.byte	0x1a
 1329 013e 52020000 		.4byte	0x252
 1330 0142 00       		.byte	0
 1331 0143 08       		.uleb128 0x8
 1332 0144 D7030000 		.4byte	.LASF25
 1333 0148 07       		.byte	0x7
 1334 0149 5A       		.byte	0x5a
 1335 014a 1A       		.byte	0x1a
 1336 014b 52020000 		.4byte	0x252
 1337 014f 04       		.byte	0x4
 1338 0150 08       		.uleb128 0x8
 1339 0151 62010000 		.4byte	.LASF26
 1340 0155 07       		.byte	0x7
 1341 0156 5C       		.byte	0x5c
 1342 0157 19       		.byte	0x19
 1343 0158 E8000000 		.4byte	0xe8
 1344 015c 08       		.byte	0x8
 1345 015d 08       		.uleb128 0x8
 1346 015e 19060000 		.4byte	.LASF27
 1347 0162 07       		.byte	0x7
 1348 0163 5D       		.byte	0x5d
 1349 0164 19       		.byte	0x19
 1350 0165 1D030000 		.4byte	0x31d
 1351 0169 0C       		.byte	0xc
 1352 016a 08       		.uleb128 0x8
 1353 016b 16020000 		.4byte	.LASF28
 1354 016f 07       		.byte	0x7
 1355 0170 5F       		.byte	0x5f
 1356 0171 1A       		.byte	0x1a
 1357 0172 52020000 		.4byte	0x252
 1358 0176 10       		.byte	0x10
 1359 0177 08       		.uleb128 0x8
 1360 0178 78030000 		.4byte	.LASF29
 1361 017c 07       		.byte	0x7
 1362 017d 60       		.byte	0x60
 1363 017e 1A       		.byte	0x1a
 1364 017f 52020000 		.4byte	0x252
 1365 0183 14       		.byte	0x14
 1366 0184 08       		.uleb128 0x8
 1367 0185 D1050000 		.4byte	.LASF30
 1368 0189 07       		.byte	0x7
ARM GAS  /tmp/cc6V3eFT.s 			page 25


 1369 018a 67       		.byte	0x67
 1370 018b 1A       		.byte	0x1a
 1371 018c 03050000 		.4byte	0x503
 1372 0190 18       		.byte	0x18
 1373 0191 08       		.uleb128 0x8
 1374 0192 18040000 		.4byte	.LASF31
 1375 0196 07       		.byte	0x7
 1376 0197 72       		.byte	0x72
 1377 0198 19       		.byte	0x19
 1378 0199 C4000000 		.4byte	0xc4
 1379 019d 1C       		.byte	0x1c
 1380 019e 08       		.uleb128 0x8
 1381 019f 5F040000 		.4byte	.LASF32
 1382 01a3 07       		.byte	0x7
 1383 01a4 76       		.byte	0x76
 1384 01a5 19       		.byte	0x19
 1385 01a6 B8000000 		.4byte	0xb8
 1386 01aa 1D       		.byte	0x1d
 1387 01ab 08       		.uleb128 0x8
 1388 01ac 86050000 		.4byte	.LASF33
 1389 01b0 07       		.byte	0x7
 1390 01b1 7B       		.byte	0x7b
 1391 01b2 19       		.byte	0x19
 1392 01b3 D0000000 		.4byte	0xd0
 1393 01b7 1E       		.byte	0x1e
 1394 01b8 08       		.uleb128 0x8
 1395 01b9 20040000 		.4byte	.LASF34
 1396 01bd 07       		.byte	0x7
 1397 01be 81       		.byte	0x81
 1398 01bf 19       		.byte	0x19
 1399 01c0 DC000000 		.4byte	0xdc
 1400 01c4 1F       		.byte	0x1f
 1401 01c5 08       		.uleb128 0x8
 1402 01c6 5B050000 		.4byte	.LASF35
 1403 01ca 07       		.byte	0x7
 1404 01cb 88       		.byte	0x88
 1405 01cc 19       		.byte	0x19
 1406 01cd 18010000 		.4byte	0x118
 1407 01d1 20       		.byte	0x20
 1408 01d2 09       		.uleb128 0x9
 1409 01d3 705F7500 		.ascii	"p_u\000"
 1410 01d7 07       		.byte	0x7
 1411 01d8 AD       		.byte	0xad
 1412 01d9 19       		.byte	0x19
 1413 01da C9040000 		.4byte	0x4c9
 1414 01de 24       		.byte	0x24
 1415 01df 08       		.uleb128 0x8
 1416 01e0 1F060000 		.4byte	.LASF36
 1417 01e4 07       		.byte	0x7
 1418 01e5 B2       		.byte	0xb2
 1419 01e6 19       		.byte	0x19
 1420 01e7 7B020000 		.4byte	0x27b
 1421 01eb 28       		.byte	0x28
 1422 01ec 08       		.uleb128 0x8
 1423 01ed 69050000 		.4byte	.LASF37
 1424 01f1 07       		.byte	0x7
 1425 01f2 B8       		.byte	0xb8
ARM GAS  /tmp/cc6V3eFT.s 			page 26


 1426 01f3 19       		.byte	0x19
 1427 01f4 58020000 		.4byte	0x258
 1428 01f8 2C       		.byte	0x2c
 1429 01f9 08       		.uleb128 0x8
 1430 01fa 1C000000 		.4byte	.LASF38
 1431 01fe 07       		.byte	0x7
 1432 01ff BC       		.byte	0xbc
 1433 0200 19       		.byte	0x19
 1434 0201 F4000000 		.4byte	0xf4
 1435 0205 34       		.byte	0x34
 1436 0206 08       		.uleb128 0x8
 1437 0207 7B040000 		.4byte	.LASF39
 1438 020b 07       		.byte	0x7
 1439 020c C2       		.byte	0xc2
 1440 020d 19       		.byte	0x19
 1441 020e 00010000 		.4byte	0x100
 1442 0212 38       		.byte	0x38
 1443 0213 08       		.uleb128 0x8
 1444 0214 04040000 		.4byte	.LASF40
 1445 0218 07       		.byte	0x7
 1446 0219 C9       		.byte	0xc9
 1447 021a 1A       		.byte	0x1a
 1448 021b 15050000 		.4byte	0x515
 1449 021f 3C       		.byte	0x3c
 1450 0220 08       		.uleb128 0x8
 1451 0221 3C050000 		.4byte	.LASF41
 1452 0225 07       		.byte	0x7
 1453 0226 CD       		.byte	0xcd
 1454 0227 19       		.byte	0x19
 1455 0228 E8000000 		.4byte	0xe8
 1456 022c 40       		.byte	0x40
 1457 022d 00       		.byte	0
 1458 022e 0A       		.uleb128 0xa
 1459 022f 08       		.byte	0x8
 1460 0230 06       		.byte	0x6
 1461 0231 5A       		.byte	0x5a
 1462 0232 09       		.byte	0x9
 1463 0233 52020000 		.4byte	0x252
 1464 0237 08       		.uleb128 0x8
 1465 0238 44040000 		.4byte	.LASF24
 1466 023c 06       		.byte	0x6
 1467 023d 5B       		.byte	0x5b
 1468 023e 1A       		.byte	0x1a
 1469 023f 52020000 		.4byte	0x252
 1470 0243 00       		.byte	0
 1471 0244 08       		.uleb128 0x8
 1472 0245 D7030000 		.4byte	.LASF25
 1473 0249 06       		.byte	0x6
 1474 024a 5D       		.byte	0x5d
 1475 024b 1A       		.byte	0x1a
 1476 024c 52020000 		.4byte	0x252
 1477 0250 04       		.byte	0x4
 1478 0251 00       		.byte	0
 1479 0252 0B       		.uleb128 0xb
 1480 0253 04       		.byte	0x4
 1481 0254 1D010000 		.4byte	0x11d
 1482 0258 03       		.uleb128 0x3
ARM GAS  /tmp/cc6V3eFT.s 			page 27


 1483 0259 8E030000 		.4byte	.LASF42
 1484 025d 06       		.byte	0x6
 1485 025e 5F       		.byte	0x5f
 1486 025f 03       		.byte	0x3
 1487 0260 2E020000 		.4byte	0x22e
 1488 0264 0A       		.uleb128 0xa
 1489 0265 04       		.byte	0x4
 1490 0266 06       		.byte	0x6
 1491 0267 64       		.byte	0x64
 1492 0268 09       		.byte	0x9
 1493 0269 7B020000 		.4byte	0x27b
 1494 026d 08       		.uleb128 0x8
 1495 026e 44040000 		.4byte	.LASF24
 1496 0272 06       		.byte	0x6
 1497 0273 66       		.byte	0x66
 1498 0274 16       		.byte	0x16
 1499 0275 52020000 		.4byte	0x252
 1500 0279 00       		.byte	0
 1501 027a 00       		.byte	0
 1502 027b 03       		.uleb128 0x3
 1503 027c E0020000 		.4byte	.LASF43
 1504 0280 06       		.byte	0x6
 1505 0281 69       		.byte	0x69
 1506 0282 03       		.byte	0x3
 1507 0283 64020000 		.4byte	0x264
 1508 0287 03       		.uleb128 0x3
 1509 0288 16030000 		.4byte	.LASF44
 1510 028c 08       		.byte	0x8
 1511 028d 9D       		.byte	0x9d
 1512 028e 12       		.byte	0x12
 1513 028f 92000000 		.4byte	0x92
 1514 0293 03       		.uleb128 0x3
 1515 0294 36020000 		.4byte	.LASF45
 1516 0298 08       		.byte	0x8
 1517 0299 A2       		.byte	0xa2
 1518 029a 0F       		.byte	0xf
 1519 029b 9F020000 		.4byte	0x29f
 1520 029f 0C       		.uleb128 0xc
 1521 02a0 04       		.byte	0x4
 1522 02a1 07       		.uleb128 0x7
 1523 02a2 62050000 		.4byte	.LASF46
 1524 02a6 24       		.byte	0x24
 1525 02a7 08       		.byte	0x8
 1526 02a8 B9       		.byte	0xb9
 1527 02a9 08       		.byte	0x8
 1528 02aa 1D030000 		.4byte	0x31d
 1529 02ae 09       		.uleb128 0x9
 1530 02af 723400   		.ascii	"r4\000"
 1531 02b2 08       		.byte	0x8
 1532 02b3 BA       		.byte	0xba
 1533 02b4 11       		.byte	0x11
 1534 02b5 93020000 		.4byte	0x293
 1535 02b9 00       		.byte	0
 1536 02ba 09       		.uleb128 0x9
 1537 02bb 723500   		.ascii	"r5\000"
 1538 02be 08       		.byte	0x8
 1539 02bf BB       		.byte	0xbb
ARM GAS  /tmp/cc6V3eFT.s 			page 28


 1540 02c0 11       		.byte	0x11
 1541 02c1 93020000 		.4byte	0x293
 1542 02c5 04       		.byte	0x4
 1543 02c6 09       		.uleb128 0x9
 1544 02c7 723600   		.ascii	"r6\000"
 1545 02ca 08       		.byte	0x8
 1546 02cb BC       		.byte	0xbc
 1547 02cc 11       		.byte	0x11
 1548 02cd 93020000 		.4byte	0x293
 1549 02d1 08       		.byte	0x8
 1550 02d2 09       		.uleb128 0x9
 1551 02d3 723700   		.ascii	"r7\000"
 1552 02d6 08       		.byte	0x8
 1553 02d7 BD       		.byte	0xbd
 1554 02d8 11       		.byte	0x11
 1555 02d9 93020000 		.4byte	0x293
 1556 02dd 0C       		.byte	0xc
 1557 02de 09       		.uleb128 0x9
 1558 02df 723800   		.ascii	"r8\000"
 1559 02e2 08       		.byte	0x8
 1560 02e3 BE       		.byte	0xbe
 1561 02e4 11       		.byte	0x11
 1562 02e5 93020000 		.4byte	0x293
 1563 02e9 10       		.byte	0x10
 1564 02ea 09       		.uleb128 0x9
 1565 02eb 723900   		.ascii	"r9\000"
 1566 02ee 08       		.byte	0x8
 1567 02ef BF       		.byte	0xbf
 1568 02f0 11       		.byte	0x11
 1569 02f1 93020000 		.4byte	0x293
 1570 02f5 14       		.byte	0x14
 1571 02f6 09       		.uleb128 0x9
 1572 02f7 72313000 		.ascii	"r10\000"
 1573 02fb 08       		.byte	0x8
 1574 02fc C0       		.byte	0xc0
 1575 02fd 11       		.byte	0x11
 1576 02fe 93020000 		.4byte	0x293
 1577 0302 18       		.byte	0x18
 1578 0303 09       		.uleb128 0x9
 1579 0304 72313100 		.ascii	"r11\000"
 1580 0308 08       		.byte	0x8
 1581 0309 C1       		.byte	0xc1
 1582 030a 11       		.byte	0x11
 1583 030b 93020000 		.4byte	0x293
 1584 030f 1C       		.byte	0x1c
 1585 0310 09       		.uleb128 0x9
 1586 0311 6C7200   		.ascii	"lr\000"
 1587 0314 08       		.byte	0x8
 1588 0315 C2       		.byte	0xc2
 1589 0316 11       		.byte	0x11
 1590 0317 93020000 		.4byte	0x293
 1591 031b 20       		.byte	0x20
 1592 031c 00       		.byte	0
 1593 031d 07       		.uleb128 0x7
 1594 031e A5020000 		.4byte	.LASF47
 1595 0322 04       		.byte	0x4
 1596 0323 08       		.byte	0x8
ARM GAS  /tmp/cc6V3eFT.s 			page 29


 1597 0324 CA       		.byte	0xca
 1598 0325 08       		.byte	0x8
 1599 0326 38030000 		.4byte	0x338
 1600 032a 09       		.uleb128 0x9
 1601 032b 72313300 		.ascii	"r13\000"
 1602 032f 08       		.byte	0x8
 1603 0330 CB       		.byte	0xcb
 1604 0331 12       		.byte	0x12
 1605 0332 38030000 		.4byte	0x338
 1606 0336 00       		.byte	0
 1607 0337 00       		.byte	0
 1608 0338 0B       		.uleb128 0xb
 1609 0339 04       		.byte	0x4
 1610 033a A1020000 		.4byte	0x2a1
 1611 033e 03       		.uleb128 0x3
 1612 033f 47050000 		.4byte	.LASF48
 1613 0343 09       		.byte	0x9
 1614 0344 4E       		.byte	0x4e
 1615 0345 10       		.byte	0x10
 1616 0346 4A030000 		.4byte	0x34a
 1617 034a 0B       		.uleb128 0xb
 1618 034b 04       		.byte	0x4
 1619 034c 50030000 		.4byte	0x350
 1620 0350 0D       		.uleb128 0xd
 1621 0351 5B030000 		.4byte	0x35b
 1622 0355 0E       		.uleb128 0xe
 1623 0356 9F020000 		.4byte	0x29f
 1624 035a 00       		.byte	0
 1625 035b 03       		.uleb128 0x3
 1626 035c A3040000 		.4byte	.LASF49
 1627 0360 09       		.byte	0x9
 1628 0361 53       		.byte	0x53
 1629 0362 1D       		.byte	0x1d
 1630 0363 67030000 		.4byte	0x367
 1631 0367 07       		.uleb128 0x7
 1632 0368 A3040000 		.4byte	.LASF49
 1633 036c 14       		.byte	0x14
 1634 036d 09       		.byte	0x9
 1635 036e 5A       		.byte	0x5a
 1636 036f 08       		.byte	0x8
 1637 0370 B6030000 		.4byte	0x3b6
 1638 0374 08       		.uleb128 0x8
 1639 0375 69020000 		.4byte	.LASF50
 1640 0379 09       		.byte	0x9
 1641 037a 5B       		.byte	0x5b
 1642 037b 1A       		.byte	0x1a
 1643 037c B6030000 		.4byte	0x3b6
 1644 0380 00       		.byte	0
 1645 0381 08       		.uleb128 0x8
 1646 0382 3F020000 		.4byte	.LASF51
 1647 0386 09       		.byte	0x9
 1648 0387 5D       		.byte	0x5d
 1649 0388 1A       		.byte	0x1a
 1650 0389 B6030000 		.4byte	0x3b6
 1651 038d 04       		.byte	0x4
 1652 038e 08       		.uleb128 0x8
 1653 038f 46030000 		.4byte	.LASF52
ARM GAS  /tmp/cc6V3eFT.s 			page 30


 1654 0393 09       		.byte	0x9
 1655 0394 5F       		.byte	0x5f
 1656 0395 19       		.byte	0x19
 1657 0396 0C010000 		.4byte	0x10c
 1658 039a 08       		.byte	0x8
 1659 039b 08       		.uleb128 0x8
 1660 039c 58030000 		.4byte	.LASF53
 1661 03a0 09       		.byte	0x9
 1662 03a1 60       		.byte	0x60
 1663 03a2 19       		.byte	0x19
 1664 03a3 3E030000 		.4byte	0x33e
 1665 03a7 0C       		.byte	0xc
 1666 03a8 08       		.uleb128 0x8
 1667 03a9 74050000 		.4byte	.LASF54
 1668 03ad 09       		.byte	0x9
 1669 03ae 62       		.byte	0x62
 1670 03af 1A       		.byte	0x1a
 1671 03b0 9F020000 		.4byte	0x29f
 1672 03b4 10       		.byte	0x10
 1673 03b5 00       		.byte	0
 1674 03b6 0B       		.uleb128 0xb
 1675 03b7 04       		.byte	0x4
 1676 03b8 5B030000 		.4byte	0x35b
 1677 03bc 0A       		.uleb128 0xa
 1678 03bd 10       		.byte	0x10
 1679 03be 09       		.byte	0x9
 1680 03bf 6C       		.byte	0x6c
 1681 03c0 09       		.byte	0x9
 1682 03c1 FA030000 		.4byte	0x3fa
 1683 03c5 08       		.uleb128 0x8
 1684 03c6 69020000 		.4byte	.LASF50
 1685 03ca 09       		.byte	0x9
 1686 03cb 6D       		.byte	0x6d
 1687 03cc 1A       		.byte	0x1a
 1688 03cd B6030000 		.4byte	0x3b6
 1689 03d1 00       		.byte	0
 1690 03d2 08       		.uleb128 0x8
 1691 03d3 3F020000 		.4byte	.LASF51
 1692 03d7 09       		.byte	0x9
 1693 03d8 6F       		.byte	0x6f
 1694 03d9 1A       		.byte	0x1a
 1695 03da B6030000 		.4byte	0x3b6
 1696 03de 04       		.byte	0x4
 1697 03df 08       		.uleb128 0x8
 1698 03e0 46030000 		.4byte	.LASF52
 1699 03e4 09       		.byte	0x9
 1700 03e5 71       		.byte	0x71
 1701 03e6 19       		.byte	0x19
 1702 03e7 0C010000 		.4byte	0x10c
 1703 03eb 08       		.byte	0x8
 1704 03ec 08       		.uleb128 0x8
 1705 03ed D8050000 		.4byte	.LASF55
 1706 03f1 09       		.byte	0x9
 1707 03f2 72       		.byte	0x72
 1708 03f3 19       		.byte	0x19
 1709 03f4 18010000 		.4byte	0x118
 1710 03f8 0C       		.byte	0xc
ARM GAS  /tmp/cc6V3eFT.s 			page 31


 1711 03f9 00       		.byte	0
 1712 03fa 03       		.uleb128 0x3
 1713 03fb 03060000 		.4byte	.LASF56
 1714 03ff 09       		.byte	0x9
 1715 0400 73       		.byte	0x73
 1716 0401 03       		.byte	0x3
 1717 0402 BC030000 		.4byte	0x3bc
 1718 0406 0F       		.uleb128 0xf
 1719 0407 17010000 		.4byte	.LASF64
 1720 040b 09       		.byte	0x9
 1721 040c D1       		.byte	0xd1
 1722 040d 0F       		.byte	0xf
 1723 040e FA030000 		.4byte	0x3fa
 1724 0412 0A       		.uleb128 0xa
 1725 0413 1C       		.byte	0x1c
 1726 0414 0A       		.byte	0xa
 1727 0415 57       		.byte	0x57
 1728 0416 09       		.byte	0x9
 1729 0417 6A040000 		.4byte	0x46a
 1730 041b 08       		.uleb128 0x8
 1731 041c 9B040000 		.4byte	.LASF57
 1732 0420 0A       		.byte	0xa
 1733 0421 58       		.byte	0x58
 1734 0422 19       		.byte	0x19
 1735 0423 58020000 		.4byte	0x258
 1736 0427 00       		.byte	0
 1737 0428 08       		.uleb128 0x8
 1738 0429 36040000 		.4byte	.LASF58
 1739 042d 0A       		.byte	0xa
 1740 042e 59       		.byte	0x59
 1741 042f 19       		.byte	0x19
 1742 0430 E8000000 		.4byte	0xe8
 1743 0434 08       		.byte	0x8
 1744 0435 08       		.uleb128 0x8
 1745 0436 88030000 		.4byte	.LASF59
 1746 043a 0A       		.byte	0xa
 1747 043b 5B       		.byte	0x5b
 1748 043c 19       		.byte	0x19
 1749 043d 1D030000 		.4byte	0x31d
 1750 0441 0C       		.byte	0xc
 1751 0442 08       		.uleb128 0x8
 1752 0443 2E020000 		.4byte	.LASF60
 1753 0447 0A       		.byte	0xa
 1754 0448 5E       		.byte	0x5e
 1755 0449 1A       		.byte	0x1a
 1756 044a 52020000 		.4byte	0x252
 1757 044e 10       		.byte	0x10
 1758 044f 08       		.uleb128 0x8
 1759 0450 B2030000 		.4byte	.LASF61
 1760 0454 0A       		.byte	0xa
 1761 0455 5F       		.byte	0x5f
 1762 0456 1A       		.byte	0x1a
 1763 0457 52020000 		.4byte	0x252
 1764 045b 14       		.byte	0x14
 1765 045c 08       		.uleb128 0x8
 1766 045d A8030000 		.4byte	.LASF62
 1767 0461 0A       		.byte	0xa
ARM GAS  /tmp/cc6V3eFT.s 			page 32


 1768 0462 62       		.byte	0x62
 1769 0463 1A       		.byte	0x1a
 1770 0464 52020000 		.4byte	0x252
 1771 0468 18       		.byte	0x18
 1772 0469 00       		.byte	0
 1773 046a 03       		.uleb128 0x3
 1774 046b 8D050000 		.4byte	.LASF63
 1775 046f 0A       		.byte	0xa
 1776 0470 64       		.byte	0x64
 1777 0471 03       		.byte	0x3
 1778 0472 12040000 		.4byte	0x412
 1779 0476 0F       		.uleb128 0xf
 1780 0477 BC050000 		.4byte	.LASF65
 1781 047b 0A       		.byte	0xa
 1782 047c 68       		.byte	0x68
 1783 047d 12       		.byte	0x12
 1784 047e 6A040000 		.4byte	0x46a
 1785 0482 07       		.uleb128 0x7
 1786 0483 03030000 		.4byte	.LASF66
 1787 0487 10       		.byte	0x10
 1788 0488 0B       		.byte	0xb
 1789 0489 25       		.byte	0x25
 1790 048a 10       		.byte	0x10
 1791 048b B7040000 		.4byte	0x4b7
 1792 048f 08       		.uleb128 0x8
 1793 0490 BE010000 		.4byte	.LASF67
 1794 0494 0B       		.byte	0xb
 1795 0495 26       		.byte	0x26
 1796 0496 19       		.byte	0x19
 1797 0497 58020000 		.4byte	0x258
 1798 049b 00       		.byte	0
 1799 049c 08       		.uleb128 0x8
 1800 049d 11060000 		.4byte	.LASF68
 1801 04a1 0B       		.byte	0xb
 1802 04a2 28       		.byte	0x28
 1803 04a3 1A       		.byte	0x1a
 1804 04a4 52020000 		.4byte	0x252
 1805 04a8 08       		.byte	0x8
 1806 04a9 08       		.uleb128 0x8
 1807 04aa 2B050000 		.4byte	.LASF69
 1808 04ae 0B       		.byte	0xb
 1809 04af 2A       		.byte	0x2a
 1810 04b0 1A       		.byte	0x1a
 1811 04b1 B7040000 		.4byte	0x4b7
 1812 04b5 0C       		.byte	0xc
 1813 04b6 00       		.byte	0
 1814 04b7 0B       		.uleb128 0xb
 1815 04b8 04       		.byte	0x4
 1816 04b9 82040000 		.4byte	0x482
 1817 04bd 03       		.uleb128 0x3
 1818 04be 03030000 		.4byte	.LASF66
 1819 04c2 0B       		.byte	0xb
 1820 04c3 2C       		.byte	0x2c
 1821 04c4 03       		.byte	0x3
 1822 04c5 82040000 		.4byte	0x482
 1823 04c9 10       		.uleb128 0x10
 1824 04ca 04       		.byte	0x4
ARM GAS  /tmp/cc6V3eFT.s 			page 33


 1825 04cb 07       		.byte	0x7
 1826 04cc 8F       		.byte	0x8f
 1827 04cd 03       		.byte	0x3
 1828 04ce 03050000 		.4byte	0x503
 1829 04d2 11       		.uleb128 0x11
 1830 04d3 FB000000 		.4byte	.LASF70
 1831 04d7 07       		.byte	0x7
 1832 04d8 96       		.byte	0x96
 1833 04d9 19       		.byte	0x19
 1834 04da F4000000 		.4byte	0xf4
 1835 04de 11       		.uleb128 0x11
 1836 04df 59010000 		.4byte	.LASF71
 1837 04e3 07       		.byte	0x7
 1838 04e4 9D       		.byte	0x9d
 1839 04e5 19       		.byte	0x19
 1840 04e6 F4000000 		.4byte	0xf4
 1841 04ea 11       		.uleb128 0x11
 1842 04eb CA050000 		.4byte	.LASF72
 1843 04ef 07       		.byte	0x7
 1844 04f0 A4       		.byte	0xa4
 1845 04f1 1A       		.byte	0x1a
 1846 04f2 9F020000 		.4byte	0x29f
 1847 04f6 11       		.uleb128 0x11
 1848 04f7 3D040000 		.4byte	.LASF73
 1849 04fb 07       		.byte	0x7
 1850 04fc AB       		.byte	0xab
 1851 04fd 19       		.byte	0x19
 1852 04fe 00010000 		.4byte	0x100
 1853 0502 00       		.byte	0
 1854 0503 0B       		.uleb128 0xb
 1855 0504 04       		.byte	0x4
 1856 0505 10050000 		.4byte	0x510
 1857 0509 04       		.uleb128 0x4
 1858 050a 01       		.byte	0x1
 1859 050b 08       		.byte	0x8
 1860 050c 0E050000 		.4byte	.LASF74
 1861 0510 05       		.uleb128 0x5
 1862 0511 09050000 		.4byte	0x509
 1863 0515 0B       		.uleb128 0xb
 1864 0516 04       		.byte	0x4
 1865 0517 BD040000 		.4byte	0x4bd
 1866 051b 0A       		.uleb128 0xa
 1867 051c 16       		.byte	0x16
 1868 051d 0C       		.byte	0xc
 1869 051e 25       		.byte	0x25
 1870 051f 09       		.byte	0x9
 1871 0520 0F060000 		.4byte	0x60f
 1872 0524 08       		.uleb128 0x8
 1873 0525 97020000 		.4byte	.LASF75
 1874 0529 0C       		.byte	0xc
 1875 052a 26       		.byte	0x26
 1876 052b 0D       		.byte	0xd
 1877 052c 0F060000 		.4byte	0x60f
 1878 0530 00       		.byte	0
 1879 0531 08       		.uleb128 0x8
 1880 0532 32030000 		.4byte	.LASF76
 1881 0536 0C       		.byte	0xc
ARM GAS  /tmp/cc6V3eFT.s 			page 34


 1882 0537 27       		.byte	0x27
 1883 0538 0D       		.byte	0xd
 1884 0539 67000000 		.4byte	0x67
 1885 053d 04       		.byte	0x4
 1886 053e 08       		.uleb128 0x8
 1887 053f 9B030000 		.4byte	.LASF77
 1888 0543 0C       		.byte	0xc
 1889 0544 28       		.byte	0x28
 1890 0545 0D       		.byte	0xd
 1891 0546 67000000 		.4byte	0x67
 1892 054a 05       		.byte	0x5
 1893 054b 08       		.uleb128 0x8
 1894 054c F8050000 		.4byte	.LASF78
 1895 0550 0C       		.byte	0xc
 1896 0551 29       		.byte	0x29
 1897 0552 0D       		.byte	0xd
 1898 0553 7F000000 		.4byte	0x7f
 1899 0557 06       		.byte	0x6
 1900 0558 08       		.uleb128 0x8
 1901 0559 C2030000 		.4byte	.LASF79
 1902 055d 0C       		.byte	0xc
 1903 055e 2A       		.byte	0x2a
 1904 055f 0D       		.byte	0xd
 1905 0560 67000000 		.4byte	0x67
 1906 0564 08       		.byte	0x8
 1907 0565 08       		.uleb128 0x8
 1908 0566 60030000 		.4byte	.LASF80
 1909 056a 0C       		.byte	0xc
 1910 056b 2B       		.byte	0x2b
 1911 056c 0D       		.byte	0xd
 1912 056d 67000000 		.4byte	0x67
 1913 0571 09       		.byte	0x9
 1914 0572 08       		.uleb128 0x8
 1915 0573 4B010000 		.4byte	.LASF81
 1916 0577 0C       		.byte	0xc
 1917 0578 2C       		.byte	0x2c
 1918 0579 0D       		.byte	0xd
 1919 057a 67000000 		.4byte	0x67
 1920 057e 0A       		.byte	0xa
 1921 057f 08       		.uleb128 0x8
 1922 0580 8F040000 		.4byte	.LASF82
 1923 0584 0C       		.byte	0xc
 1924 0585 2D       		.byte	0x2d
 1925 0586 0D       		.byte	0xd
 1926 0587 67000000 		.4byte	0x67
 1927 058b 0B       		.byte	0xb
 1928 058c 08       		.uleb128 0x8
 1929 058d 7B050000 		.4byte	.LASF83
 1930 0591 0C       		.byte	0xc
 1931 0592 2E       		.byte	0x2e
 1932 0593 0D       		.byte	0xd
 1933 0594 67000000 		.4byte	0x67
 1934 0598 0C       		.byte	0xc
 1935 0599 08       		.uleb128 0x8
 1936 059a 6E040000 		.4byte	.LASF84
 1937 059e 0C       		.byte	0xc
 1938 059f 2F       		.byte	0x2f
ARM GAS  /tmp/cc6V3eFT.s 			page 35


 1939 05a0 0D       		.byte	0xd
 1940 05a1 67000000 		.4byte	0x67
 1941 05a5 0D       		.byte	0xd
 1942 05a6 08       		.uleb128 0x8
 1943 05a7 0F000000 		.4byte	.LASF85
 1944 05ab 0C       		.byte	0xc
 1945 05ac 30       		.byte	0x30
 1946 05ad 0D       		.byte	0xd
 1947 05ae 67000000 		.4byte	0x67
 1948 05b2 0E       		.byte	0xe
 1949 05b3 08       		.uleb128 0x8
 1950 05b4 6C030000 		.4byte	.LASF86
 1951 05b8 0C       		.byte	0xc
 1952 05b9 31       		.byte	0x31
 1953 05ba 0D       		.byte	0xd
 1954 05bb 67000000 		.4byte	0x67
 1955 05bf 0F       		.byte	0xf
 1956 05c0 08       		.uleb128 0x8
 1957 05c1 9A010000 		.4byte	.LASF87
 1958 05c5 0C       		.byte	0xc
 1959 05c6 32       		.byte	0x32
 1960 05c7 0D       		.byte	0xd
 1961 05c8 67000000 		.4byte	0x67
 1962 05cc 10       		.byte	0x10
 1963 05cd 08       		.uleb128 0x8
 1964 05ce 69010000 		.4byte	.LASF88
 1965 05d2 0C       		.byte	0xc
 1966 05d3 34       		.byte	0x34
 1967 05d4 0D       		.byte	0xd
 1968 05d5 67000000 		.4byte	0x67
 1969 05d9 11       		.byte	0x11
 1970 05da 08       		.uleb128 0x8
 1971 05db AA010000 		.4byte	.LASF89
 1972 05df 0C       		.byte	0xc
 1973 05e0 35       		.byte	0x35
 1974 05e1 0D       		.byte	0xd
 1975 05e2 67000000 		.4byte	0x67
 1976 05e6 12       		.byte	0x12
 1977 05e7 08       		.uleb128 0x8
 1978 05e8 3A030000 		.4byte	.LASF90
 1979 05ec 0C       		.byte	0xc
 1980 05ed 36       		.byte	0x36
 1981 05ee 0D       		.byte	0xd
 1982 05ef 67000000 		.4byte	0x67
 1983 05f3 13       		.byte	0x13
 1984 05f4 08       		.uleb128 0x8
 1985 05f5 50040000 		.4byte	.LASF91
 1986 05f9 0C       		.byte	0xc
 1987 05fa 37       		.byte	0x37
 1988 05fb 0D       		.byte	0xd
 1989 05fc 67000000 		.4byte	0x67
 1990 0600 14       		.byte	0x14
 1991 0601 08       		.uleb128 0x8
 1992 0602 2A040000 		.4byte	.LASF92
 1993 0606 0C       		.byte	0xc
 1994 0607 39       		.byte	0x39
 1995 0608 0D       		.byte	0xd
ARM GAS  /tmp/cc6V3eFT.s 			page 36


 1996 0609 67000000 		.4byte	0x67
 1997 060d 15       		.byte	0x15
 1998 060e 00       		.byte	0
 1999 060f 12       		.uleb128 0x12
 2000 0610 09050000 		.4byte	0x509
 2001 0614 1F060000 		.4byte	0x61f
 2002 0618 13       		.uleb128 0x13
 2003 0619 38000000 		.4byte	0x38
 2004 061d 03       		.byte	0x3
 2005 061e 00       		.byte	0
 2006 061f 03       		.uleb128 0x3
 2007 0620 0C020000 		.4byte	.LASF93
 2008 0624 0C       		.byte	0xc
 2009 0625 3A       		.byte	0x3a
 2010 0626 03       		.byte	0x3
 2011 0627 1B050000 		.4byte	0x51b
 2012 062b 05       		.uleb128 0x5
 2013 062c 1F060000 		.4byte	0x61f
 2014 0630 0F       		.uleb128 0xf
 2015 0631 8E020000 		.4byte	.LASF94
 2016 0635 0C       		.byte	0xc
 2017 0636 77       		.byte	0x77
 2018 0637 1D       		.byte	0x1d
 2019 0638 2B060000 		.4byte	0x62b
 2020 063c 03       		.uleb128 0x3
 2021 063d 09030000 		.4byte	.LASF95
 2022 0641 0D       		.byte	0xd
 2023 0642 30       		.byte	0x30
 2024 0643 1D       		.byte	0x1d
 2025 0644 48060000 		.4byte	0x648
 2026 0648 07       		.uleb128 0x7
 2027 0649 09030000 		.4byte	.LASF95
 2028 064d 24       		.byte	0x24
 2029 064e 0D       		.byte	0xd
 2030 064f 3E       		.byte	0x3e
 2031 0650 08       		.byte	0x8
 2032 0651 BE060000 		.4byte	0x6be
 2033 0655 08       		.uleb128 0x8
 2034 0656 76010000 		.4byte	.LASF96
 2035 065a 0D       		.byte	0xd
 2036 065b 3F       		.byte	0x3f
 2037 065c 19       		.byte	0x19
 2038 065d 58020000 		.4byte	0x258
 2039 0661 00       		.byte	0
 2040 0662 08       		.uleb128 0x8
 2041 0663 4E030000 		.4byte	.LASF97
 2042 0667 0D       		.byte	0xd
 2043 0668 40       		.byte	0x40
 2044 0669 19       		.byte	0x19
 2045 066a 2C000000 		.4byte	0x2c
 2046 066e 08       		.byte	0x8
 2047 066f 08       		.uleb128 0x8
 2048 0670 FA010000 		.4byte	.LASF98
 2049 0674 0D       		.byte	0xd
 2050 0675 41       		.byte	0x41
 2051 0676 1A       		.byte	0x1a
 2052 0677 E1060000 		.4byte	0x6e1
ARM GAS  /tmp/cc6V3eFT.s 			page 37


 2053 067b 0C       		.byte	0xc
 2054 067c 08       		.uleb128 0x8
 2055 067d 2E010000 		.4byte	.LASF99
 2056 0681 0D       		.byte	0xd
 2057 0682 42       		.byte	0x42
 2058 0683 1A       		.byte	0x1a
 2059 0684 E1060000 		.4byte	0x6e1
 2060 0688 10       		.byte	0x10
 2061 0689 08       		.uleb128 0x8
 2062 068a 80030000 		.4byte	.LASF100
 2063 068e 0D       		.byte	0xd
 2064 068f 44       		.byte	0x44
 2065 0690 1A       		.byte	0x1a
 2066 0691 E1060000 		.4byte	0x6e1
 2067 0695 14       		.byte	0x14
 2068 0696 08       		.uleb128 0x8
 2069 0697 E6030000 		.4byte	.LASF101
 2070 069b 0D       		.byte	0xd
 2071 069c 45       		.byte	0x45
 2072 069d 1A       		.byte	0x1a
 2073 069e E1060000 		.4byte	0x6e1
 2074 06a2 18       		.byte	0x18
 2075 06a3 08       		.uleb128 0x8
 2076 06a4 B3050000 		.4byte	.LASF102
 2077 06a8 0D       		.byte	0xd
 2078 06a9 46       		.byte	0x46
 2079 06aa 19       		.byte	0x19
 2080 06ab BE060000 		.4byte	0x6be
 2081 06af 1C       		.byte	0x1c
 2082 06b0 08       		.uleb128 0x8
 2083 06b1 0A060000 		.4byte	.LASF103
 2084 06b5 0D       		.byte	0xd
 2085 06b6 47       		.byte	0x47
 2086 06b7 1A       		.byte	0x1a
 2087 06b8 9F020000 		.4byte	0x29f
 2088 06bc 20       		.byte	0x20
 2089 06bd 00       		.byte	0
 2090 06be 03       		.uleb128 0x3
 2091 06bf CD030000 		.4byte	.LASF104
 2092 06c3 0D       		.byte	0xd
 2093 06c4 33       		.byte	0x33
 2094 06c5 10       		.byte	0x10
 2095 06c6 CA060000 		.4byte	0x6ca
 2096 06ca 0B       		.uleb128 0xb
 2097 06cb 04       		.byte	0x4
 2098 06cc D0060000 		.4byte	0x6d0
 2099 06d0 0D       		.uleb128 0xd
 2100 06d1 DB060000 		.4byte	0x6db
 2101 06d5 0E       		.uleb128 0xe
 2102 06d6 DB060000 		.4byte	0x6db
 2103 06da 00       		.byte	0
 2104 06db 0B       		.uleb128 0xb
 2105 06dc 04       		.byte	0x4
 2106 06dd 3C060000 		.4byte	0x63c
 2107 06e1 0B       		.uleb128 0xb
 2108 06e2 04       		.byte	0x4
 2109 06e3 67000000 		.4byte	0x67
ARM GAS  /tmp/cc6V3eFT.s 			page 38


 2110 06e7 03       		.uleb128 0x3
 2111 06e8 F8020000 		.4byte	.LASF105
 2112 06ec 0D       		.byte	0xd
 2113 06ed 7B       		.byte	0x7b
 2114 06ee 16       		.byte	0x16
 2115 06ef 3C060000 		.4byte	0x63c
 2116 06f3 03       		.uleb128 0x3
 2117 06f4 0B010000 		.4byte	.LASF106
 2118 06f8 0D       		.byte	0xd
 2119 06f9 EE       		.byte	0xee
 2120 06fa 16       		.byte	0x16
 2121 06fb 3C060000 		.4byte	0x63c
 2122 06ff 0B       		.uleb128 0xb
 2123 0700 04       		.byte	0x4
 2124 0701 73000000 		.4byte	0x73
 2125 0705 12       		.uleb128 0x12
 2126 0706 87020000 		.4byte	0x287
 2127 070a 15070000 		.4byte	0x715
 2128 070e 13       		.uleb128 0x13
 2129 070f 38000000 		.4byte	0x38
 2130 0713 26       		.byte	0x26
 2131 0714 00       		.byte	0
 2132 0715 0F       		.uleb128 0xf
 2133 0716 1E020000 		.4byte	.LASF107
 2134 071a 0E       		.byte	0xe
 2135 071b 82       		.byte	0x82
 2136 071c 08       		.byte	0x8
 2137 071d 05070000 		.4byte	0x705
 2138 0721 14       		.uleb128 0x14
 2139 0722 21030000 		.4byte	.LASF109
 2140 0726 01       		.byte	0x1
 2141 0727 8F01     		.2byte	0x18f
 2142 0729 08       		.byte	0x8
 2143 072a 2C000000 		.4byte	0x2c
 2144 072e 00000000 		.4byte	.LFB17
 2145 0732 B0000000 		.4byte	.LFE17-.LFB17
 2146 0736 01       		.uleb128 0x1
 2147 0737 9C       		.byte	0x9c
 2148 0738 DF070000 		.4byte	0x7df
 2149 073c 15       		.uleb128 0x15
 2150 073d 6F717000 		.ascii	"oqp\000"
 2151 0741 01       		.byte	0x1
 2152 0742 8F01     		.2byte	0x18f
 2153 0744 26       		.byte	0x26
 2154 0745 DF070000 		.4byte	0x7df
 2155 0749 04000000 		.4byte	.LLST33
 2156 074d 00000000 		.4byte	.LVUS33
 2157 0751 15       		.uleb128 0x15
 2158 0752 627000   		.ascii	"bp\000"
 2159 0755 01       		.byte	0x1
 2160 0756 8F01     		.2byte	0x18f
 2161 0758 3A       		.byte	0x3a
 2162 0759 FF060000 		.4byte	0x6ff
 2163 075d 2A000000 		.4byte	.LLST34
 2164 0761 22000000 		.4byte	.LVUS34
 2165 0765 15       		.uleb128 0x15
 2166 0766 6E00     		.ascii	"n\000"
ARM GAS  /tmp/cc6V3eFT.s 			page 39


 2167 0768 01       		.byte	0x1
 2168 0769 9001     		.2byte	0x190
 2169 076b 20       		.byte	0x20
 2170 076c 2C000000 		.4byte	0x2c
 2171 0770 68000000 		.4byte	.LLST35
 2172 0774 60000000 		.4byte	.LVUS35
 2173 0778 16       		.uleb128 0x16
 2174 0779 A3030000 		.4byte	.LASF108
 2175 077d 01       		.byte	0x1
 2176 077e 9001     		.2byte	0x190
 2177 0780 2D       		.byte	0x2d
 2178 0781 0C010000 		.4byte	0x10c
 2179 0785 A2000000 		.4byte	.LLST36
 2180 0789 9E000000 		.4byte	.LVUS36
 2181 078d 17       		.uleb128 0x17
 2182 078e 6E667900 		.ascii	"nfy\000"
 2183 0792 01       		.byte	0x1
 2184 0793 9101     		.2byte	0x191
 2185 0795 0D       		.byte	0xd
 2186 0796 BE060000 		.4byte	0x6be
 2187 079a C2000000 		.4byte	.LLST37
 2188 079e C0000000 		.4byte	.LVUS37
 2189 07a2 17       		.uleb128 0x17
 2190 07a3 7700     		.ascii	"w\000"
 2191 07a5 01       		.byte	0x1
 2192 07a6 9201     		.2byte	0x192
 2193 07a8 0A       		.byte	0xa
 2194 07a9 2C000000 		.4byte	0x2c
 2195 07ad D9000000 		.4byte	.LLST38
 2196 07b1 D5000000 		.4byte	.LVUS38
 2197 07b5 18       		.uleb128 0x18
 2198 07b6 6C000000 		.4byte	.LVL61
 2199 07ba 02       		.uleb128 0x2
 2200 07bb 78       		.byte	0x78
 2201 07bc 00       		.sleb128 0
 2202 07bd C8070000 		.4byte	0x7c8
 2203 07c1 19       		.uleb128 0x19
 2204 07c2 01       		.uleb128 0x1
 2205 07c3 50       		.byte	0x50
 2206 07c4 02       		.uleb128 0x2
 2207 07c5 74       		.byte	0x74
 2208 07c6 00       		.sleb128 0
 2209 07c7 00       		.byte	0
 2210 07c8 1A       		.uleb128 0x1a
 2211 07c9 9C000000 		.4byte	.LVL65
 2212 07cd 740C0000 		.4byte	0xc74
 2213 07d1 19       		.uleb128 0x19
 2214 07d2 01       		.uleb128 0x1
 2215 07d3 50       		.byte	0x50
 2216 07d4 02       		.uleb128 0x2
 2217 07d5 74       		.byte	0x74
 2218 07d6 00       		.sleb128 0
 2219 07d7 19       		.uleb128 0x19
 2220 07d8 01       		.uleb128 0x1
 2221 07d9 51       		.byte	0x51
 2222 07da 02       		.uleb128 0x2
 2223 07db 79       		.byte	0x79
ARM GAS  /tmp/cc6V3eFT.s 			page 40


 2224 07dc 00       		.sleb128 0
 2225 07dd 00       		.byte	0
 2226 07de 00       		.byte	0
 2227 07df 0B       		.uleb128 0xb
 2228 07e0 04       		.byte	0x4
 2229 07e1 F3060000 		.4byte	0x6f3
 2230 07e5 14       		.uleb128 0x14
 2231 07e6 F1010000 		.4byte	.LASF110
 2232 07ea 01       		.byte	0x1
 2233 07eb 6401     		.2byte	0x164
 2234 07ed 07       		.byte	0x7
 2235 07ee F4000000 		.4byte	0xf4
 2236 07f2 00000000 		.4byte	.LFB16
 2237 07f6 7C000000 		.4byte	.LFE16-.LFB16
 2238 07fa 01       		.uleb128 0x1
 2239 07fb 9C       		.byte	0x9c
 2240 07fc 67080000 		.4byte	0x867
 2241 0800 15       		.uleb128 0x15
 2242 0801 6F717000 		.ascii	"oqp\000"
 2243 0805 01       		.byte	0x1
 2244 0806 6401     		.2byte	0x164
 2245 0808 1D       		.byte	0x1d
 2246 0809 DF070000 		.4byte	0x7df
 2247 080d 02010000 		.4byte	.LLST29
 2248 0811 F8000000 		.4byte	.LVUS29
 2249 0815 17       		.uleb128 0x17
 2250 0816 6200     		.ascii	"b\000"
 2251 0818 01       		.byte	0x1
 2252 0819 6501     		.2byte	0x165
 2253 081b 0B       		.byte	0xb
 2254 081c 67000000 		.4byte	0x67
 2255 0820 46010000 		.4byte	.LLST30
 2256 0824 44010000 		.4byte	.LVUS30
 2257 0828 1B       		.uleb128 0x1b
 2258 0829 FC0C0000 		.4byte	0xcfc
 2259 082d 4C000000 		.4byte	.LBI33
 2260 0831 01       		.byte	.LVU330
 2261 0832 4C000000 		.4byte	.LBB33
 2262 0836 0C000000 		.4byte	.LBE33-.LBB33
 2263 083a 01       		.byte	0x1
 2264 083b 7201     		.2byte	0x172
 2265 083d 05       		.byte	0x5
 2266 083e 5D080000 		.4byte	0x85d
 2267 0842 1C       		.uleb128 0x1c
 2268 0843 0D0D0000 		.4byte	0xd0d
 2269 0847 5B010000 		.4byte	.LLST31
 2270 084b 59010000 		.4byte	.LVUS31
 2271 084f 1D       		.uleb128 0x1d
 2272 0850 190D0000 		.4byte	0xd19
 2273 0854 70010000 		.4byte	.LLST32
 2274 0858 6E010000 		.4byte	.LVUS32
 2275 085c 00       		.byte	0
 2276 085d 1E       		.uleb128 0x1e
 2277 085e 5C000000 		.4byte	.LVL53
 2278 0862 500D0000 		.4byte	0xd50
 2279 0866 00       		.byte	0
 2280 0867 14       		.uleb128 0x14
ARM GAS  /tmp/cc6V3eFT.s 			page 41


 2281 0868 00000000 		.4byte	.LASF111
 2282 086c 01       		.byte	0x1
 2283 086d 4201     		.2byte	0x142
 2284 086f 07       		.byte	0x7
 2285 0870 F4000000 		.4byte	0xf4
 2286 0874 00000000 		.4byte	.LFB15
 2287 0878 8C000000 		.4byte	.LFE15-.LFB15
 2288 087c 01       		.uleb128 0x1
 2289 087d 9C       		.byte	0x9c
 2290 087e 01090000 		.4byte	0x901
 2291 0882 15       		.uleb128 0x15
 2292 0883 6F717000 		.ascii	"oqp\000"
 2293 0887 01       		.byte	0x1
 2294 0888 4201     		.2byte	0x142
 2295 088a 23       		.byte	0x23
 2296 088b DF070000 		.4byte	0x7df
 2297 088f 87010000 		.4byte	.LLST25
 2298 0893 83010000 		.4byte	.LVUS25
 2299 0897 15       		.uleb128 0x15
 2300 0898 6200     		.ascii	"b\000"
 2301 089a 01       		.byte	0x1
 2302 089b 4201     		.2byte	0x142
 2303 089d 30       		.byte	0x30
 2304 089e 67000000 		.4byte	0x67
 2305 08a2 A9010000 		.4byte	.LLST26
 2306 08a6 A5010000 		.4byte	.LVUS26
 2307 08aa 16       		.uleb128 0x16
 2308 08ab A3030000 		.4byte	.LASF108
 2309 08af 01       		.byte	0x1
 2310 08b0 4201     		.2byte	0x142
 2311 08b2 3D       		.byte	0x3d
 2312 08b3 0C010000 		.4byte	0x10c
 2313 08b7 CE010000 		.4byte	.LLST27
 2314 08bb CA010000 		.4byte	.LVUS27
 2315 08bf 1F       		.uleb128 0x1f
 2316 08c0 68000000 		.4byte	.Ldebug_ranges0+0x68
 2317 08c4 F4080000 		.4byte	0x8f4
 2318 08c8 17       		.uleb128 0x17
 2319 08c9 6D736700 		.ascii	"msg\000"
 2320 08cd 01       		.byte	0x1
 2321 08ce 4601     		.2byte	0x146
 2322 08d0 0B       		.byte	0xb
 2323 08d1 F4000000 		.4byte	0xf4
 2324 08d5 F0010000 		.4byte	.LLST28
 2325 08d9 EC010000 		.4byte	.LVUS28
 2326 08dd 1A       		.uleb128 0x1a
 2327 08de 24000000 		.4byte	.LVL44
 2328 08e2 740C0000 		.4byte	0xc74
 2329 08e6 19       		.uleb128 0x19
 2330 08e7 01       		.uleb128 0x1
 2331 08e8 50       		.byte	0x50
 2332 08e9 02       		.uleb128 0x2
 2333 08ea 74       		.byte	0x74
 2334 08eb 00       		.sleb128 0
 2335 08ec 19       		.uleb128 0x19
 2336 08ed 01       		.uleb128 0x1
 2337 08ee 51       		.byte	0x51
ARM GAS  /tmp/cc6V3eFT.s 			page 42


 2338 08ef 02       		.uleb128 0x2
 2339 08f0 75       		.byte	0x75
 2340 08f1 00       		.sleb128 0
 2341 08f2 00       		.byte	0
 2342 08f3 00       		.byte	0
 2343 08f4 20       		.uleb128 0x20
 2344 08f5 78000000 		.4byte	.LVL46
 2345 08f9 19       		.uleb128 0x19
 2346 08fa 01       		.uleb128 0x1
 2347 08fb 50       		.byte	0x50
 2348 08fc 02       		.uleb128 0x2
 2349 08fd 74       		.byte	0x74
 2350 08fe 00       		.sleb128 0
 2351 08ff 00       		.byte	0
 2352 0900 00       		.byte	0
 2353 0901 21       		.uleb128 0x21
 2354 0902 50050000 		.4byte	.LASF112
 2355 0906 01       		.byte	0x1
 2356 0907 2201     		.2byte	0x122
 2357 0909 06       		.byte	0x6
 2358 090a 00000000 		.4byte	.LFB14
 2359 090e 58000000 		.4byte	.LFE14-.LFB14
 2360 0912 01       		.uleb128 0x1
 2361 0913 9C       		.byte	0x9c
 2362 0914 6E090000 		.4byte	0x96e
 2363 0918 15       		.uleb128 0x15
 2364 0919 6F717000 		.ascii	"oqp\000"
 2365 091d 01       		.byte	0x1
 2366 091e 2201     		.2byte	0x122
 2367 0920 1E       		.byte	0x1e
 2368 0921 DF070000 		.4byte	0x7df
 2369 0925 12020000 		.4byte	.LLST22
 2370 0929 0E020000 		.4byte	.LVUS22
 2371 092d 22       		.uleb128 0x22
 2372 092e FC0C0000 		.4byte	0xcfc
 2373 0932 30000000 		.4byte	.LBI27
 2374 0936 01       		.byte	.LVU245
 2375 0937 50000000 		.4byte	.Ldebug_ranges0+0x50
 2376 093b 01       		.byte	0x1
 2377 093c 2901     		.2byte	0x129
 2378 093e 05       		.byte	0x5
 2379 093f 64090000 		.4byte	0x964
 2380 0943 1C       		.uleb128 0x1c
 2381 0944 0D0D0000 		.4byte	0xd0d
 2382 0948 32020000 		.4byte	.LLST23
 2383 094c 30020000 		.4byte	.LVUS23
 2384 0950 23       		.uleb128 0x23
 2385 0951 50000000 		.4byte	.Ldebug_ranges0+0x50
 2386 0955 1D       		.uleb128 0x1d
 2387 0956 190D0000 		.4byte	0xd19
 2388 095a 47020000 		.4byte	.LLST24
 2389 095e 45020000 		.4byte	.LVUS24
 2390 0962 00       		.byte	0
 2391 0963 00       		.byte	0
 2392 0964 1E       		.uleb128 0x1e
 2393 0965 44000000 		.4byte	.LVL41
 2394 0969 500D0000 		.4byte	0xd50
ARM GAS  /tmp/cc6V3eFT.s 			page 43


 2395 096d 00       		.byte	0
 2396 096e 21       		.uleb128 0x21
 2397 096f D6010000 		.4byte	.LASF113
 2398 0973 01       		.byte	0x1
 2399 0974 0C01     		.2byte	0x10c
 2400 0976 06       		.byte	0x6
 2401 0977 00000000 		.4byte	.LFB13
 2402 097b 34000000 		.4byte	.LFE13-.LFB13
 2403 097f 01       		.uleb128 0x1
 2404 0980 9C       		.byte	0x9c
 2405 0981 D1090000 		.4byte	0x9d1
 2406 0985 24       		.uleb128 0x24
 2407 0986 6F717000 		.ascii	"oqp\000"
 2408 098a 01       		.byte	0x1
 2409 098b 0C01     		.2byte	0x10c
 2410 098d 1C       		.byte	0x1c
 2411 098e DF070000 		.4byte	0x7df
 2412 0992 01       		.uleb128 0x1
 2413 0993 50       		.byte	0x50
 2414 0994 24       		.uleb128 0x24
 2415 0995 627000   		.ascii	"bp\000"
 2416 0998 01       		.byte	0x1
 2417 0999 0C01     		.2byte	0x10c
 2418 099b 2A       		.byte	0x2a
 2419 099c E1060000 		.4byte	0x6e1
 2420 09a0 01       		.uleb128 0x1
 2421 09a1 51       		.byte	0x51
 2422 09a2 25       		.uleb128 0x25
 2423 09a3 AD020000 		.4byte	.LASF114
 2424 09a7 01       		.byte	0x1
 2425 09a8 0C01     		.2byte	0x10c
 2426 09aa 35       		.byte	0x35
 2427 09ab 2C000000 		.4byte	0x2c
 2428 09af 01       		.uleb128 0x1
 2429 09b0 52       		.byte	0x52
 2430 09b1 25       		.uleb128 0x25
 2431 09b2 22000000 		.4byte	.LASF115
 2432 09b6 01       		.byte	0x1
 2433 09b7 0C01     		.2byte	0x10c
 2434 09b9 45       		.byte	0x45
 2435 09ba BE060000 		.4byte	0x6be
 2436 09be 01       		.uleb128 0x1
 2437 09bf 53       		.byte	0x53
 2438 09c0 25       		.uleb128 0x25
 2439 09c1 47020000 		.4byte	.LASF116
 2440 09c5 01       		.byte	0x1
 2441 09c6 0D01     		.2byte	0x10d
 2442 09c8 15       		.byte	0x15
 2443 09c9 9F020000 		.4byte	0x29f
 2444 09cd 02       		.uleb128 0x2
 2445 09ce 91       		.byte	0x91
 2446 09cf 00       		.sleb128 0
 2447 09d0 00       		.byte	0
 2448 09d1 26       		.uleb128 0x26
 2449 09d2 1E010000 		.4byte	.LASF117
 2450 09d6 01       		.byte	0x1
 2451 09d7 DB       		.byte	0xdb
ARM GAS  /tmp/cc6V3eFT.s 			page 44


 2452 09d8 08       		.byte	0x8
 2453 09d9 2C000000 		.4byte	0x2c
 2454 09dd 00000000 		.4byte	.LFB12
 2455 09e1 A8000000 		.4byte	.LFE12-.LFB12
 2456 09e5 01       		.uleb128 0x1
 2457 09e6 9C       		.byte	0x9c
 2458 09e7 880A0000 		.4byte	0xa88
 2459 09eb 27       		.uleb128 0x27
 2460 09ec 69717000 		.ascii	"iqp\000"
 2461 09f0 01       		.byte	0x1
 2462 09f1 DB       		.byte	0xdb
 2463 09f2 24       		.byte	0x24
 2464 09f3 880A0000 		.4byte	0xa88
 2465 09f7 5E020000 		.4byte	.LLST16
 2466 09fb 5A020000 		.4byte	.LVUS16
 2467 09ff 27       		.uleb128 0x27
 2468 0a00 627000   		.ascii	"bp\000"
 2469 0a03 01       		.byte	0x1
 2470 0a04 DB       		.byte	0xdb
 2471 0a05 32       		.byte	0x32
 2472 0a06 E1060000 		.4byte	0x6e1
 2473 0a0a 84020000 		.4byte	.LLST17
 2474 0a0e 7C020000 		.4byte	.LVUS17
 2475 0a12 27       		.uleb128 0x27
 2476 0a13 6E00     		.ascii	"n\000"
 2477 0a15 01       		.byte	0x1
 2478 0a16 DC       		.byte	0xdc
 2479 0a17 1F       		.byte	0x1f
 2480 0a18 2C000000 		.4byte	0x2c
 2481 0a1c BE020000 		.4byte	.LLST18
 2482 0a20 BA020000 		.4byte	.LVUS18
 2483 0a24 28       		.uleb128 0x28
 2484 0a25 A3030000 		.4byte	.LASF108
 2485 0a29 01       		.byte	0x1
 2486 0a2a DC       		.byte	0xdc
 2487 0a2b 2C       		.byte	0x2c
 2488 0a2c 0C010000 		.4byte	0x10c
 2489 0a30 E5020000 		.4byte	.LLST19
 2490 0a34 E1020000 		.4byte	.LVUS19
 2491 0a38 29       		.uleb128 0x29
 2492 0a39 6E667900 		.ascii	"nfy\000"
 2493 0a3d 01       		.byte	0x1
 2494 0a3e DD       		.byte	0xdd
 2495 0a3f 0D       		.byte	0xd
 2496 0a40 BE060000 		.4byte	0x6be
 2497 0a44 05030000 		.4byte	.LLST20
 2498 0a48 03030000 		.4byte	.LVUS20
 2499 0a4c 29       		.uleb128 0x29
 2500 0a4d 7200     		.ascii	"r\000"
 2501 0a4f 01       		.byte	0x1
 2502 0a50 DE       		.byte	0xde
 2503 0a51 0A       		.byte	0xa
 2504 0a52 2C000000 		.4byte	0x2c
 2505 0a56 1C030000 		.4byte	.LLST21
 2506 0a5a 18030000 		.4byte	.LVUS21
 2507 0a5e 18       		.uleb128 0x18
 2508 0a5f 30000000 		.4byte	.LVL31
ARM GAS  /tmp/cc6V3eFT.s 			page 45


 2509 0a63 02       		.uleb128 0x2
 2510 0a64 78       		.byte	0x78
 2511 0a65 00       		.sleb128 0
 2512 0a66 710A0000 		.4byte	0xa71
 2513 0a6a 19       		.uleb128 0x19
 2514 0a6b 01       		.uleb128 0x1
 2515 0a6c 50       		.byte	0x50
 2516 0a6d 02       		.uleb128 0x2
 2517 0a6e 74       		.byte	0x74
 2518 0a6f 00       		.sleb128 0
 2519 0a70 00       		.byte	0
 2520 0a71 1A       		.uleb128 0x1a
 2521 0a72 40000000 		.4byte	.LVL32
 2522 0a76 740C0000 		.4byte	0xc74
 2523 0a7a 19       		.uleb128 0x19
 2524 0a7b 01       		.uleb128 0x1
 2525 0a7c 50       		.byte	0x50
 2526 0a7d 02       		.uleb128 0x2
 2527 0a7e 74       		.byte	0x74
 2528 0a7f 00       		.sleb128 0
 2529 0a80 19       		.uleb128 0x19
 2530 0a81 01       		.uleb128 0x1
 2531 0a82 51       		.byte	0x51
 2532 0a83 02       		.uleb128 0x2
 2533 0a84 75       		.byte	0x75
 2534 0a85 00       		.sleb128 0
 2535 0a86 00       		.byte	0
 2536 0a87 00       		.byte	0
 2537 0a88 0B       		.uleb128 0xb
 2538 0a89 04       		.byte	0x4
 2539 0a8a E7060000 		.4byte	0x6e7
 2540 0a8e 26       		.uleb128 0x26
 2541 0a8f 29060000 		.4byte	.LASF118
 2542 0a93 01       		.byte	0x1
 2543 0a94 AB       		.byte	0xab
 2544 0a95 07       		.byte	0x7
 2545 0a96 F4000000 		.4byte	0xf4
 2546 0a9a 00000000 		.4byte	.LFB11
 2547 0a9e 74000000 		.4byte	.LFE11-.LFB11
 2548 0aa2 01       		.uleb128 0x1
 2549 0aa3 9C       		.byte	0x9c
 2550 0aa4 270B0000 		.4byte	0xb27
 2551 0aa8 27       		.uleb128 0x27
 2552 0aa9 69717000 		.ascii	"iqp\000"
 2553 0aad 01       		.byte	0x1
 2554 0aae AB       		.byte	0xab
 2555 0aaf 22       		.byte	0x22
 2556 0ab0 880A0000 		.4byte	0xa88
 2557 0ab4 3F030000 		.4byte	.LLST12
 2558 0ab8 3B030000 		.4byte	.LVUS12
 2559 0abc 28       		.uleb128 0x28
 2560 0abd A3030000 		.4byte	.LASF108
 2561 0ac1 01       		.byte	0x1
 2562 0ac2 AB       		.byte	0xab
 2563 0ac3 31       		.byte	0x31
 2564 0ac4 0C010000 		.4byte	0x10c
 2565 0ac8 61030000 		.4byte	.LLST13
ARM GAS  /tmp/cc6V3eFT.s 			page 46


 2566 0acc 5D030000 		.4byte	.LVUS13
 2567 0ad0 29       		.uleb128 0x29
 2568 0ad1 6200     		.ascii	"b\000"
 2569 0ad3 01       		.byte	0x1
 2570 0ad4 AC       		.byte	0xac
 2571 0ad5 0B       		.byte	0xb
 2572 0ad6 67000000 		.4byte	0x67
 2573 0ada 81030000 		.4byte	.LLST14
 2574 0ade 7F030000 		.4byte	.LVUS14
 2575 0ae2 2A       		.uleb128 0x2a
 2576 0ae3 24000000 		.4byte	.LBB26
 2577 0ae7 14000000 		.4byte	.LBE26-.LBB26
 2578 0aeb 1A0B0000 		.4byte	0xb1a
 2579 0aef 29       		.uleb128 0x29
 2580 0af0 6D736700 		.ascii	"msg\000"
 2581 0af4 01       		.byte	0x1
 2582 0af5 B3       		.byte	0xb3
 2583 0af6 0B       		.byte	0xb
 2584 0af7 F4000000 		.4byte	0xf4
 2585 0afb 96030000 		.4byte	.LLST15
 2586 0aff 94030000 		.4byte	.LVUS15
 2587 0b03 1A       		.uleb128 0x1a
 2588 0b04 30000000 		.4byte	.LVL24
 2589 0b08 740C0000 		.4byte	0xc74
 2590 0b0c 19       		.uleb128 0x19
 2591 0b0d 01       		.uleb128 0x1
 2592 0b0e 50       		.byte	0x50
 2593 0b0f 02       		.uleb128 0x2
 2594 0b10 74       		.byte	0x74
 2595 0b11 00       		.sleb128 0
 2596 0b12 19       		.uleb128 0x19
 2597 0b13 01       		.uleb128 0x1
 2598 0b14 51       		.byte	0x51
 2599 0b15 02       		.uleb128 0x2
 2600 0b16 75       		.byte	0x75
 2601 0b17 00       		.sleb128 0
 2602 0b18 00       		.byte	0
 2603 0b19 00       		.byte	0
 2604 0b1a 20       		.uleb128 0x20
 2605 0b1b 20000000 		.4byte	.LVL23
 2606 0b1f 19       		.uleb128 0x19
 2607 0b20 01       		.uleb128 0x1
 2608 0b21 50       		.byte	0x50
 2609 0b22 02       		.uleb128 0x2
 2610 0b23 74       		.byte	0x74
 2611 0b24 00       		.sleb128 0
 2612 0b25 00       		.byte	0
 2613 0b26 00       		.byte	0
 2614 0b27 26       		.uleb128 0x26
 2615 0b28 53020000 		.4byte	.LASF119
 2616 0b2c 01       		.byte	0x1
 2617 0b2d 85       		.byte	0x85
 2618 0b2e 07       		.byte	0x7
 2619 0b2f F4000000 		.4byte	0xf4
 2620 0b33 00000000 		.4byte	.LFB10
 2621 0b37 8C000000 		.4byte	.LFE10-.LFB10
 2622 0b3b 01       		.uleb128 0x1
ARM GAS  /tmp/cc6V3eFT.s 			page 47


 2623 0b3c 9C       		.byte	0x9c
 2624 0b3d A70B0000 		.4byte	0xba7
 2625 0b41 27       		.uleb128 0x27
 2626 0b42 69717000 		.ascii	"iqp\000"
 2627 0b46 01       		.byte	0x1
 2628 0b47 85       		.byte	0x85
 2629 0b48 1C       		.byte	0x1c
 2630 0b49 880A0000 		.4byte	0xa88
 2631 0b4d B1030000 		.4byte	.LLST8
 2632 0b51 A9030000 		.4byte	.LVUS8
 2633 0b55 27       		.uleb128 0x27
 2634 0b56 6200     		.ascii	"b\000"
 2635 0b58 01       		.byte	0x1
 2636 0b59 85       		.byte	0x85
 2637 0b5a 29       		.byte	0x29
 2638 0b5b 67000000 		.4byte	0x67
 2639 0b5f F2030000 		.4byte	.LLST9
 2640 0b63 E8030000 		.4byte	.LVUS9
 2641 0b67 2B       		.uleb128 0x2b
 2642 0b68 FC0C0000 		.4byte	0xcfc
 2643 0b6c 4C000000 		.4byte	.LBI22
 2644 0b70 01       		.byte	.LVU97
 2645 0b71 38000000 		.4byte	.Ldebug_ranges0+0x38
 2646 0b75 01       		.byte	0x1
 2647 0b76 92       		.byte	0x92
 2648 0b77 05       		.byte	0x5
 2649 0b78 9D0B0000 		.4byte	0xb9d
 2650 0b7c 1C       		.uleb128 0x1c
 2651 0b7d 0D0D0000 		.4byte	0xd0d
 2652 0b81 38040000 		.4byte	.LLST10
 2653 0b85 36040000 		.4byte	.LVUS10
 2654 0b89 23       		.uleb128 0x23
 2655 0b8a 38000000 		.4byte	.Ldebug_ranges0+0x38
 2656 0b8e 1D       		.uleb128 0x1d
 2657 0b8f 190D0000 		.4byte	0xd19
 2658 0b93 4D040000 		.4byte	.LLST11
 2659 0b97 4B040000 		.4byte	.LVUS11
 2660 0b9b 00       		.byte	0
 2661 0b9c 00       		.byte	0
 2662 0b9d 1E       		.uleb128 0x1e
 2663 0b9e 60000000 		.4byte	.LVL19
 2664 0ba2 500D0000 		.4byte	0xd50
 2665 0ba6 00       		.byte	0
 2666 0ba7 2C       		.uleb128 0x2c
 2667 0ba8 71020000 		.4byte	.LASF120
 2668 0bac 01       		.byte	0x1
 2669 0bad 6E       		.byte	0x6e
 2670 0bae 06       		.byte	0x6
 2671 0baf 00000000 		.4byte	.LFB9
 2672 0bb3 54000000 		.4byte	.LFE9-.LFB9
 2673 0bb7 01       		.uleb128 0x1
 2674 0bb8 9C       		.byte	0x9c
 2675 0bb9 110C0000 		.4byte	0xc11
 2676 0bbd 27       		.uleb128 0x27
 2677 0bbe 69717000 		.ascii	"iqp\000"
 2678 0bc2 01       		.byte	0x1
 2679 0bc3 6E       		.byte	0x6e
ARM GAS  /tmp/cc6V3eFT.s 			page 48


 2680 0bc4 1D       		.byte	0x1d
 2681 0bc5 880A0000 		.4byte	0xa88
 2682 0bc9 64040000 		.4byte	.LLST5
 2683 0bcd 60040000 		.4byte	.LVUS5
 2684 0bd1 2B       		.uleb128 0x2b
 2685 0bd2 FC0C0000 		.4byte	0xcfc
 2686 0bd6 2C000000 		.4byte	.LBI18
 2687 0bda 01       		.byte	.LVU60
 2688 0bdb 20000000 		.4byte	.Ldebug_ranges0+0x20
 2689 0bdf 01       		.byte	0x1
 2690 0be0 75       		.byte	0x75
 2691 0be1 05       		.byte	0x5
 2692 0be2 070C0000 		.4byte	0xc07
 2693 0be6 1C       		.uleb128 0x1c
 2694 0be7 0D0D0000 		.4byte	0xd0d
 2695 0beb 84040000 		.4byte	.LLST6
 2696 0bef 82040000 		.4byte	.LVUS6
 2697 0bf3 23       		.uleb128 0x23
 2698 0bf4 20000000 		.4byte	.Ldebug_ranges0+0x20
 2699 0bf8 1D       		.uleb128 0x1d
 2700 0bf9 190D0000 		.4byte	0xd19
 2701 0bfd 99040000 		.4byte	.LLST7
 2702 0c01 97040000 		.4byte	.LVUS7
 2703 0c05 00       		.byte	0
 2704 0c06 00       		.byte	0
 2705 0c07 1E       		.uleb128 0x1e
 2706 0c08 40000000 		.4byte	.LVL11
 2707 0c0c 500D0000 		.4byte	0xd50
 2708 0c10 00       		.byte	0
 2709 0c11 2C       		.uleb128 0x2c
 2710 0c12 02010000 		.4byte	.LASF121
 2711 0c16 01       		.byte	0x1
 2712 0c17 58       		.byte	0x58
 2713 0c18 06       		.byte	0x6
 2714 0c19 00000000 		.4byte	.LFB8
 2715 0c1d 38000000 		.4byte	.LFE8-.LFB8
 2716 0c21 01       		.uleb128 0x1
 2717 0c22 9C       		.byte	0x9c
 2718 0c23 740C0000 		.4byte	0xc74
 2719 0c27 2D       		.uleb128 0x2d
 2720 0c28 69717000 		.ascii	"iqp\000"
 2721 0c2c 01       		.byte	0x1
 2722 0c2d 58       		.byte	0x58
 2723 0c2e 1B       		.byte	0x1b
 2724 0c2f 880A0000 		.4byte	0xa88
 2725 0c33 01       		.uleb128 0x1
 2726 0c34 50       		.byte	0x50
 2727 0c35 2D       		.uleb128 0x2d
 2728 0c36 627000   		.ascii	"bp\000"
 2729 0c39 01       		.byte	0x1
 2730 0c3a 58       		.byte	0x58
 2731 0c3b 29       		.byte	0x29
 2732 0c3c E1060000 		.4byte	0x6e1
 2733 0c40 01       		.uleb128 0x1
 2734 0c41 51       		.byte	0x51
 2735 0c42 28       		.uleb128 0x28
 2736 0c43 AD020000 		.4byte	.LASF114
ARM GAS  /tmp/cc6V3eFT.s 			page 49


 2737 0c47 01       		.byte	0x1
 2738 0c48 58       		.byte	0x58
 2739 0c49 34       		.byte	0x34
 2740 0c4a 2C000000 		.4byte	0x2c
 2741 0c4e B0040000 		.4byte	.LLST4
 2742 0c52 AC040000 		.4byte	.LVUS4
 2743 0c56 2E       		.uleb128 0x2e
 2744 0c57 4B040000 		.4byte	.LASF122
 2745 0c5b 01       		.byte	0x1
 2746 0c5c 58       		.byte	0x58
 2747 0c5d 44       		.byte	0x44
 2748 0c5e BE060000 		.4byte	0x6be
 2749 0c62 01       		.uleb128 0x1
 2750 0c63 53       		.byte	0x53
 2751 0c64 2E       		.uleb128 0x2e
 2752 0c65 47020000 		.4byte	.LASF116
 2753 0c69 01       		.byte	0x1
 2754 0c6a 59       		.byte	0x59
 2755 0c6b 15       		.byte	0x15
 2756 0c6c 9F020000 		.4byte	0x29f
 2757 0c70 02       		.uleb128 0x2
 2758 0c71 91       		.byte	0x91
 2759 0c72 00       		.sleb128 0
 2760 0c73 00       		.byte	0
 2761 0c74 2F       		.uleb128 0x2f
 2762 0c75 D0010000 		.4byte	.LASF128
 2763 0c79 01       		.byte	0x1
 2764 0c7a 3F       		.byte	0x3f
 2765 0c7b 0E       		.byte	0xe
 2766 0c7c F4000000 		.4byte	0xf4
 2767 0c80 00000000 		.4byte	.LFB7
 2768 0c84 3C000000 		.4byte	.LFE7-.LFB7
 2769 0c88 01       		.uleb128 0x1
 2770 0c89 9C       		.byte	0x9c
 2771 0c8a FC0C0000 		.4byte	0xcfc
 2772 0c8e 27       		.uleb128 0x27
 2773 0c8f 717000   		.ascii	"qp\000"
 2774 0c92 01       		.byte	0x1
 2775 0c93 3F       		.byte	0x3f
 2776 0c94 22       		.byte	0x22
 2777 0c95 DB060000 		.4byte	0x6db
 2778 0c99 DB040000 		.4byte	.LLST0
 2779 0c9d D1040000 		.4byte	.LVUS0
 2780 0ca1 28       		.uleb128 0x28
 2781 0ca2 A3030000 		.4byte	.LASF108
 2782 0ca6 01       		.byte	0x1
 2783 0ca7 3F       		.byte	0x3f
 2784 0ca8 30       		.byte	0x30
 2785 0ca9 0C010000 		.4byte	0x10c
 2786 0cad 23050000 		.4byte	.LLST1
 2787 0cb1 1D050000 		.4byte	.LVUS1
 2788 0cb5 2B       		.uleb128 0x2b
 2789 0cb6 2B0D0000 		.4byte	0xd2b
 2790 0cba 24000000 		.4byte	.LBI12
 2791 0cbe 01       		.byte	.LVU12
 2792 0cbf 00000000 		.4byte	.Ldebug_ranges0+0
 2793 0cc3 01       		.byte	0x1
ARM GAS  /tmp/cc6V3eFT.s 			page 50


 2794 0cc4 44       		.byte	0x44
 2795 0cc5 03       		.byte	0x3
 2796 0cc6 E50C0000 		.4byte	0xce5
 2797 0cca 1C       		.uleb128 0x1c
 2798 0ccb 430D0000 		.4byte	0xd43
 2799 0ccf 51050000 		.4byte	.LLST2
 2800 0cd3 4F050000 		.4byte	.LVUS2
 2801 0cd7 1C       		.uleb128 0x1c
 2802 0cd8 380D0000 		.4byte	0xd38
 2803 0cdc 66050000 		.4byte	.LLST3
 2804 0ce0 64050000 		.4byte	.LVUS3
 2805 0ce4 00       		.byte	0
 2806 0ce5 30       		.uleb128 0x30
 2807 0ce6 30000000 		.4byte	.LVL4
 2808 0cea 5C0D0000 		.4byte	0xd5c
 2809 0cee 19       		.uleb128 0x19
 2810 0cef 01       		.uleb128 0x1
 2811 0cf0 50       		.byte	0x50
 2812 0cf1 01       		.uleb128 0x1
 2813 0cf2 3D       		.byte	0x3d
 2814 0cf3 19       		.uleb128 0x19
 2815 0cf4 01       		.uleb128 0x1
 2816 0cf5 51       		.byte	0x51
 2817 0cf6 03       		.uleb128 0x3
 2818 0cf7 F3       		.byte	0xf3
 2819 0cf8 01       		.uleb128 0x1
 2820 0cf9 51       		.byte	0x51
 2821 0cfa 00       		.byte	0
 2822 0cfb 00       		.byte	0
 2823 0cfc 31       		.uleb128 0x31
 2824 0cfd 13050000 		.4byte	.LASF129
 2825 0d01 02       		.byte	0x2
 2826 0d02 34       		.byte	0x34
 2827 0d03 17       		.byte	0x17
 2828 0d04 52020000 		.4byte	0x252
 2829 0d08 03       		.byte	0x3
 2830 0d09 250D0000 		.4byte	0xd25
 2831 0d0d 32       		.uleb128 0x32
 2832 0d0e 74717000 		.ascii	"tqp\000"
 2833 0d12 02       		.byte	0x2
 2834 0d13 34       		.byte	0x34
 2835 0d14 31       		.byte	0x31
 2836 0d15 250D0000 		.4byte	0xd25
 2837 0d19 33       		.uleb128 0x33
 2838 0d1a 747000   		.ascii	"tp\000"
 2839 0d1d 02       		.byte	0x2
 2840 0d1e 35       		.byte	0x35
 2841 0d1f 0B       		.byte	0xb
 2842 0d20 52020000 		.4byte	0x252
 2843 0d24 00       		.byte	0
 2844 0d25 0B       		.uleb128 0xb
 2845 0d26 04       		.byte	0x4
 2846 0d27 58020000 		.4byte	0x258
 2847 0d2b 34       		.uleb128 0x34
 2848 0d2c CB020000 		.4byte	.LASF130
 2849 0d30 02       		.byte	0x2
 2850 0d31 2D       		.byte	0x2d
ARM GAS  /tmp/cc6V3eFT.s 			page 51


 2851 0d32 14       		.byte	0x14
 2852 0d33 03       		.byte	0x3
 2853 0d34 500D0000 		.4byte	0xd50
 2854 0d38 32       		.uleb128 0x32
 2855 0d39 747000   		.ascii	"tp\000"
 2856 0d3c 02       		.byte	0x2
 2857 0d3d 2D       		.byte	0x2d
 2858 0d3e 29       		.byte	0x29
 2859 0d3f 52020000 		.4byte	0x252
 2860 0d43 32       		.uleb128 0x32
 2861 0d44 74717000 		.ascii	"tqp\000"
 2862 0d48 02       		.byte	0x2
 2863 0d49 2D       		.byte	0x2d
 2864 0d4a 3B       		.byte	0x3b
 2865 0d4b 250D0000 		.4byte	0xd25
 2866 0d4f 00       		.byte	0
 2867 0d50 35       		.uleb128 0x35
 2868 0d51 1F050000 		.4byte	.LASF123
 2869 0d55 1F050000 		.4byte	.LASF123
 2870 0d59 0A       		.byte	0xa
 2871 0d5a 89       		.byte	0x89
 2872 0d5b 0B       		.byte	0xb
 2873 0d5c 35       		.uleb128 0x35
 2874 0d5d E3050000 		.4byte	.LASF124
 2875 0d61 E3050000 		.4byte	.LASF124
 2876 0d65 0A       		.byte	0xa
 2877 0d66 8F       		.byte	0x8f
 2878 0d67 09       		.byte	0x9
 2879 0d68 00       		.byte	0
 2880              		.section	.debug_abbrev,"",%progbits
 2881              	.Ldebug_abbrev0:
 2882 0000 01       		.uleb128 0x1
 2883 0001 11       		.uleb128 0x11
 2884 0002 01       		.byte	0x1
 2885 0003 25       		.uleb128 0x25
 2886 0004 0E       		.uleb128 0xe
 2887 0005 13       		.uleb128 0x13
 2888 0006 0B       		.uleb128 0xb
 2889 0007 03       		.uleb128 0x3
 2890 0008 0E       		.uleb128 0xe
 2891 0009 1B       		.uleb128 0x1b
 2892 000a 0E       		.uleb128 0xe
 2893 000b 55       		.uleb128 0x55
 2894 000c 17       		.uleb128 0x17
 2895 000d 11       		.uleb128 0x11
 2896 000e 01       		.uleb128 0x1
 2897 000f 10       		.uleb128 0x10
 2898 0010 17       		.uleb128 0x17
 2899 0011 00       		.byte	0
 2900 0012 00       		.byte	0
 2901 0013 02       		.uleb128 0x2
 2902 0014 24       		.uleb128 0x24
 2903 0015 00       		.byte	0
 2904 0016 0B       		.uleb128 0xb
 2905 0017 0B       		.uleb128 0xb
 2906 0018 3E       		.uleb128 0x3e
 2907 0019 0B       		.uleb128 0xb
ARM GAS  /tmp/cc6V3eFT.s 			page 52


 2908 001a 03       		.uleb128 0x3
 2909 001b 08       		.uleb128 0x8
 2910 001c 00       		.byte	0
 2911 001d 00       		.byte	0
 2912 001e 03       		.uleb128 0x3
 2913 001f 16       		.uleb128 0x16
 2914 0020 00       		.byte	0
 2915 0021 03       		.uleb128 0x3
 2916 0022 0E       		.uleb128 0xe
 2917 0023 3A       		.uleb128 0x3a
 2918 0024 0B       		.uleb128 0xb
 2919 0025 3B       		.uleb128 0x3b
 2920 0026 0B       		.uleb128 0xb
 2921 0027 39       		.uleb128 0x39
 2922 0028 0B       		.uleb128 0xb
 2923 0029 49       		.uleb128 0x49
 2924 002a 13       		.uleb128 0x13
 2925 002b 00       		.byte	0
 2926 002c 00       		.byte	0
 2927 002d 04       		.uleb128 0x4
 2928 002e 24       		.uleb128 0x24
 2929 002f 00       		.byte	0
 2930 0030 0B       		.uleb128 0xb
 2931 0031 0B       		.uleb128 0xb
 2932 0032 3E       		.uleb128 0x3e
 2933 0033 0B       		.uleb128 0xb
 2934 0034 03       		.uleb128 0x3
 2935 0035 0E       		.uleb128 0xe
 2936 0036 00       		.byte	0
 2937 0037 00       		.byte	0
 2938 0038 05       		.uleb128 0x5
 2939 0039 26       		.uleb128 0x26
 2940 003a 00       		.byte	0
 2941 003b 49       		.uleb128 0x49
 2942 003c 13       		.uleb128 0x13
 2943 003d 00       		.byte	0
 2944 003e 00       		.byte	0
 2945 003f 06       		.uleb128 0x6
 2946 0040 35       		.uleb128 0x35
 2947 0041 00       		.byte	0
 2948 0042 49       		.uleb128 0x49
 2949 0043 13       		.uleb128 0x13
 2950 0044 00       		.byte	0
 2951 0045 00       		.byte	0
 2952 0046 07       		.uleb128 0x7
 2953 0047 13       		.uleb128 0x13
 2954 0048 01       		.byte	0x1
 2955 0049 03       		.uleb128 0x3
 2956 004a 0E       		.uleb128 0xe
 2957 004b 0B       		.uleb128 0xb
 2958 004c 0B       		.uleb128 0xb
 2959 004d 3A       		.uleb128 0x3a
 2960 004e 0B       		.uleb128 0xb
 2961 004f 3B       		.uleb128 0x3b
 2962 0050 0B       		.uleb128 0xb
 2963 0051 39       		.uleb128 0x39
 2964 0052 0B       		.uleb128 0xb
ARM GAS  /tmp/cc6V3eFT.s 			page 53


 2965 0053 01       		.uleb128 0x1
 2966 0054 13       		.uleb128 0x13
 2967 0055 00       		.byte	0
 2968 0056 00       		.byte	0
 2969 0057 08       		.uleb128 0x8
 2970 0058 0D       		.uleb128 0xd
 2971 0059 00       		.byte	0
 2972 005a 03       		.uleb128 0x3
 2973 005b 0E       		.uleb128 0xe
 2974 005c 3A       		.uleb128 0x3a
 2975 005d 0B       		.uleb128 0xb
 2976 005e 3B       		.uleb128 0x3b
 2977 005f 0B       		.uleb128 0xb
 2978 0060 39       		.uleb128 0x39
 2979 0061 0B       		.uleb128 0xb
 2980 0062 49       		.uleb128 0x49
 2981 0063 13       		.uleb128 0x13
 2982 0064 38       		.uleb128 0x38
 2983 0065 0B       		.uleb128 0xb
 2984 0066 00       		.byte	0
 2985 0067 00       		.byte	0
 2986 0068 09       		.uleb128 0x9
 2987 0069 0D       		.uleb128 0xd
 2988 006a 00       		.byte	0
 2989 006b 03       		.uleb128 0x3
 2990 006c 08       		.uleb128 0x8
 2991 006d 3A       		.uleb128 0x3a
 2992 006e 0B       		.uleb128 0xb
 2993 006f 3B       		.uleb128 0x3b
 2994 0070 0B       		.uleb128 0xb
 2995 0071 39       		.uleb128 0x39
 2996 0072 0B       		.uleb128 0xb
 2997 0073 49       		.uleb128 0x49
 2998 0074 13       		.uleb128 0x13
 2999 0075 38       		.uleb128 0x38
 3000 0076 0B       		.uleb128 0xb
 3001 0077 00       		.byte	0
 3002 0078 00       		.byte	0
 3003 0079 0A       		.uleb128 0xa
 3004 007a 13       		.uleb128 0x13
 3005 007b 01       		.byte	0x1
 3006 007c 0B       		.uleb128 0xb
 3007 007d 0B       		.uleb128 0xb
 3008 007e 3A       		.uleb128 0x3a
 3009 007f 0B       		.uleb128 0xb
 3010 0080 3B       		.uleb128 0x3b
 3011 0081 0B       		.uleb128 0xb
 3012 0082 39       		.uleb128 0x39
 3013 0083 0B       		.uleb128 0xb
 3014 0084 01       		.uleb128 0x1
 3015 0085 13       		.uleb128 0x13
 3016 0086 00       		.byte	0
 3017 0087 00       		.byte	0
 3018 0088 0B       		.uleb128 0xb
 3019 0089 0F       		.uleb128 0xf
 3020 008a 00       		.byte	0
 3021 008b 0B       		.uleb128 0xb
ARM GAS  /tmp/cc6V3eFT.s 			page 54


 3022 008c 0B       		.uleb128 0xb
 3023 008d 49       		.uleb128 0x49
 3024 008e 13       		.uleb128 0x13
 3025 008f 00       		.byte	0
 3026 0090 00       		.byte	0
 3027 0091 0C       		.uleb128 0xc
 3028 0092 0F       		.uleb128 0xf
 3029 0093 00       		.byte	0
 3030 0094 0B       		.uleb128 0xb
 3031 0095 0B       		.uleb128 0xb
 3032 0096 00       		.byte	0
 3033 0097 00       		.byte	0
 3034 0098 0D       		.uleb128 0xd
 3035 0099 15       		.uleb128 0x15
 3036 009a 01       		.byte	0x1
 3037 009b 27       		.uleb128 0x27
 3038 009c 19       		.uleb128 0x19
 3039 009d 01       		.uleb128 0x1
 3040 009e 13       		.uleb128 0x13
 3041 009f 00       		.byte	0
 3042 00a0 00       		.byte	0
 3043 00a1 0E       		.uleb128 0xe
 3044 00a2 05       		.uleb128 0x5
 3045 00a3 00       		.byte	0
 3046 00a4 49       		.uleb128 0x49
 3047 00a5 13       		.uleb128 0x13
 3048 00a6 00       		.byte	0
 3049 00a7 00       		.byte	0
 3050 00a8 0F       		.uleb128 0xf
 3051 00a9 34       		.uleb128 0x34
 3052 00aa 00       		.byte	0
 3053 00ab 03       		.uleb128 0x3
 3054 00ac 0E       		.uleb128 0xe
 3055 00ad 3A       		.uleb128 0x3a
 3056 00ae 0B       		.uleb128 0xb
 3057 00af 3B       		.uleb128 0x3b
 3058 00b0 0B       		.uleb128 0xb
 3059 00b1 39       		.uleb128 0x39
 3060 00b2 0B       		.uleb128 0xb
 3061 00b3 49       		.uleb128 0x49
 3062 00b4 13       		.uleb128 0x13
 3063 00b5 3F       		.uleb128 0x3f
 3064 00b6 19       		.uleb128 0x19
 3065 00b7 3C       		.uleb128 0x3c
 3066 00b8 19       		.uleb128 0x19
 3067 00b9 00       		.byte	0
 3068 00ba 00       		.byte	0
 3069 00bb 10       		.uleb128 0x10
 3070 00bc 17       		.uleb128 0x17
 3071 00bd 01       		.byte	0x1
 3072 00be 0B       		.uleb128 0xb
 3073 00bf 0B       		.uleb128 0xb
 3074 00c0 3A       		.uleb128 0x3a
 3075 00c1 0B       		.uleb128 0xb
 3076 00c2 3B       		.uleb128 0x3b
 3077 00c3 0B       		.uleb128 0xb
 3078 00c4 39       		.uleb128 0x39
ARM GAS  /tmp/cc6V3eFT.s 			page 55


 3079 00c5 0B       		.uleb128 0xb
 3080 00c6 01       		.uleb128 0x1
 3081 00c7 13       		.uleb128 0x13
 3082 00c8 00       		.byte	0
 3083 00c9 00       		.byte	0
 3084 00ca 11       		.uleb128 0x11
 3085 00cb 0D       		.uleb128 0xd
 3086 00cc 00       		.byte	0
 3087 00cd 03       		.uleb128 0x3
 3088 00ce 0E       		.uleb128 0xe
 3089 00cf 3A       		.uleb128 0x3a
 3090 00d0 0B       		.uleb128 0xb
 3091 00d1 3B       		.uleb128 0x3b
 3092 00d2 0B       		.uleb128 0xb
 3093 00d3 39       		.uleb128 0x39
 3094 00d4 0B       		.uleb128 0xb
 3095 00d5 49       		.uleb128 0x49
 3096 00d6 13       		.uleb128 0x13
 3097 00d7 00       		.byte	0
 3098 00d8 00       		.byte	0
 3099 00d9 12       		.uleb128 0x12
 3100 00da 01       		.uleb128 0x1
 3101 00db 01       		.byte	0x1
 3102 00dc 49       		.uleb128 0x49
 3103 00dd 13       		.uleb128 0x13
 3104 00de 01       		.uleb128 0x1
 3105 00df 13       		.uleb128 0x13
 3106 00e0 00       		.byte	0
 3107 00e1 00       		.byte	0
 3108 00e2 13       		.uleb128 0x13
 3109 00e3 21       		.uleb128 0x21
 3110 00e4 00       		.byte	0
 3111 00e5 49       		.uleb128 0x49
 3112 00e6 13       		.uleb128 0x13
 3113 00e7 2F       		.uleb128 0x2f
 3114 00e8 0B       		.uleb128 0xb
 3115 00e9 00       		.byte	0
 3116 00ea 00       		.byte	0
 3117 00eb 14       		.uleb128 0x14
 3118 00ec 2E       		.uleb128 0x2e
 3119 00ed 01       		.byte	0x1
 3120 00ee 3F       		.uleb128 0x3f
 3121 00ef 19       		.uleb128 0x19
 3122 00f0 03       		.uleb128 0x3
 3123 00f1 0E       		.uleb128 0xe
 3124 00f2 3A       		.uleb128 0x3a
 3125 00f3 0B       		.uleb128 0xb
 3126 00f4 3B       		.uleb128 0x3b
 3127 00f5 05       		.uleb128 0x5
 3128 00f6 39       		.uleb128 0x39
 3129 00f7 0B       		.uleb128 0xb
 3130 00f8 27       		.uleb128 0x27
 3131 00f9 19       		.uleb128 0x19
 3132 00fa 49       		.uleb128 0x49
 3133 00fb 13       		.uleb128 0x13
 3134 00fc 11       		.uleb128 0x11
 3135 00fd 01       		.uleb128 0x1
ARM GAS  /tmp/cc6V3eFT.s 			page 56


 3136 00fe 12       		.uleb128 0x12
 3137 00ff 06       		.uleb128 0x6
 3138 0100 40       		.uleb128 0x40
 3139 0101 18       		.uleb128 0x18
 3140 0102 9742     		.uleb128 0x2117
 3141 0104 19       		.uleb128 0x19
 3142 0105 01       		.uleb128 0x1
 3143 0106 13       		.uleb128 0x13
 3144 0107 00       		.byte	0
 3145 0108 00       		.byte	0
 3146 0109 15       		.uleb128 0x15
 3147 010a 05       		.uleb128 0x5
 3148 010b 00       		.byte	0
 3149 010c 03       		.uleb128 0x3
 3150 010d 08       		.uleb128 0x8
 3151 010e 3A       		.uleb128 0x3a
 3152 010f 0B       		.uleb128 0xb
 3153 0110 3B       		.uleb128 0x3b
 3154 0111 05       		.uleb128 0x5
 3155 0112 39       		.uleb128 0x39
 3156 0113 0B       		.uleb128 0xb
 3157 0114 49       		.uleb128 0x49
 3158 0115 13       		.uleb128 0x13
 3159 0116 02       		.uleb128 0x2
 3160 0117 17       		.uleb128 0x17
 3161 0118 B742     		.uleb128 0x2137
 3162 011a 17       		.uleb128 0x17
 3163 011b 00       		.byte	0
 3164 011c 00       		.byte	0
 3165 011d 16       		.uleb128 0x16
 3166 011e 05       		.uleb128 0x5
 3167 011f 00       		.byte	0
 3168 0120 03       		.uleb128 0x3
 3169 0121 0E       		.uleb128 0xe
 3170 0122 3A       		.uleb128 0x3a
 3171 0123 0B       		.uleb128 0xb
 3172 0124 3B       		.uleb128 0x3b
 3173 0125 05       		.uleb128 0x5
 3174 0126 39       		.uleb128 0x39
 3175 0127 0B       		.uleb128 0xb
 3176 0128 49       		.uleb128 0x49
 3177 0129 13       		.uleb128 0x13
 3178 012a 02       		.uleb128 0x2
 3179 012b 17       		.uleb128 0x17
 3180 012c B742     		.uleb128 0x2137
 3181 012e 17       		.uleb128 0x17
 3182 012f 00       		.byte	0
 3183 0130 00       		.byte	0
 3184 0131 17       		.uleb128 0x17
 3185 0132 34       		.uleb128 0x34
 3186 0133 00       		.byte	0
 3187 0134 03       		.uleb128 0x3
 3188 0135 08       		.uleb128 0x8
 3189 0136 3A       		.uleb128 0x3a
 3190 0137 0B       		.uleb128 0xb
 3191 0138 3B       		.uleb128 0x3b
 3192 0139 05       		.uleb128 0x5
ARM GAS  /tmp/cc6V3eFT.s 			page 57


 3193 013a 39       		.uleb128 0x39
 3194 013b 0B       		.uleb128 0xb
 3195 013c 49       		.uleb128 0x49
 3196 013d 13       		.uleb128 0x13
 3197 013e 02       		.uleb128 0x2
 3198 013f 17       		.uleb128 0x17
 3199 0140 B742     		.uleb128 0x2137
 3200 0142 17       		.uleb128 0x17
 3201 0143 00       		.byte	0
 3202 0144 00       		.byte	0
 3203 0145 18       		.uleb128 0x18
 3204 0146 898201   		.uleb128 0x4109
 3205 0149 01       		.byte	0x1
 3206 014a 11       		.uleb128 0x11
 3207 014b 01       		.uleb128 0x1
 3208 014c 9342     		.uleb128 0x2113
 3209 014e 18       		.uleb128 0x18
 3210 014f 01       		.uleb128 0x1
 3211 0150 13       		.uleb128 0x13
 3212 0151 00       		.byte	0
 3213 0152 00       		.byte	0
 3214 0153 19       		.uleb128 0x19
 3215 0154 8A8201   		.uleb128 0x410a
 3216 0157 00       		.byte	0
 3217 0158 02       		.uleb128 0x2
 3218 0159 18       		.uleb128 0x18
 3219 015a 9142     		.uleb128 0x2111
 3220 015c 18       		.uleb128 0x18
 3221 015d 00       		.byte	0
 3222 015e 00       		.byte	0
 3223 015f 1A       		.uleb128 0x1a
 3224 0160 898201   		.uleb128 0x4109
 3225 0163 01       		.byte	0x1
 3226 0164 11       		.uleb128 0x11
 3227 0165 01       		.uleb128 0x1
 3228 0166 31       		.uleb128 0x31
 3229 0167 13       		.uleb128 0x13
 3230 0168 00       		.byte	0
 3231 0169 00       		.byte	0
 3232 016a 1B       		.uleb128 0x1b
 3233 016b 1D       		.uleb128 0x1d
 3234 016c 01       		.byte	0x1
 3235 016d 31       		.uleb128 0x31
 3236 016e 13       		.uleb128 0x13
 3237 016f 52       		.uleb128 0x52
 3238 0170 01       		.uleb128 0x1
 3239 0171 B842     		.uleb128 0x2138
 3240 0173 0B       		.uleb128 0xb
 3241 0174 11       		.uleb128 0x11
 3242 0175 01       		.uleb128 0x1
 3243 0176 12       		.uleb128 0x12
 3244 0177 06       		.uleb128 0x6
 3245 0178 58       		.uleb128 0x58
 3246 0179 0B       		.uleb128 0xb
 3247 017a 59       		.uleb128 0x59
 3248 017b 05       		.uleb128 0x5
 3249 017c 57       		.uleb128 0x57
ARM GAS  /tmp/cc6V3eFT.s 			page 58


 3250 017d 0B       		.uleb128 0xb
 3251 017e 01       		.uleb128 0x1
 3252 017f 13       		.uleb128 0x13
 3253 0180 00       		.byte	0
 3254 0181 00       		.byte	0
 3255 0182 1C       		.uleb128 0x1c
 3256 0183 05       		.uleb128 0x5
 3257 0184 00       		.byte	0
 3258 0185 31       		.uleb128 0x31
 3259 0186 13       		.uleb128 0x13
 3260 0187 02       		.uleb128 0x2
 3261 0188 17       		.uleb128 0x17
 3262 0189 B742     		.uleb128 0x2137
 3263 018b 17       		.uleb128 0x17
 3264 018c 00       		.byte	0
 3265 018d 00       		.byte	0
 3266 018e 1D       		.uleb128 0x1d
 3267 018f 34       		.uleb128 0x34
 3268 0190 00       		.byte	0
 3269 0191 31       		.uleb128 0x31
 3270 0192 13       		.uleb128 0x13
 3271 0193 02       		.uleb128 0x2
 3272 0194 17       		.uleb128 0x17
 3273 0195 B742     		.uleb128 0x2137
 3274 0197 17       		.uleb128 0x17
 3275 0198 00       		.byte	0
 3276 0199 00       		.byte	0
 3277 019a 1E       		.uleb128 0x1e
 3278 019b 898201   		.uleb128 0x4109
 3279 019e 00       		.byte	0
 3280 019f 11       		.uleb128 0x11
 3281 01a0 01       		.uleb128 0x1
 3282 01a1 31       		.uleb128 0x31
 3283 01a2 13       		.uleb128 0x13
 3284 01a3 00       		.byte	0
 3285 01a4 00       		.byte	0
 3286 01a5 1F       		.uleb128 0x1f
 3287 01a6 0B       		.uleb128 0xb
 3288 01a7 01       		.byte	0x1
 3289 01a8 55       		.uleb128 0x55
 3290 01a9 17       		.uleb128 0x17
 3291 01aa 01       		.uleb128 0x1
 3292 01ab 13       		.uleb128 0x13
 3293 01ac 00       		.byte	0
 3294 01ad 00       		.byte	0
 3295 01ae 20       		.uleb128 0x20
 3296 01af 898201   		.uleb128 0x4109
 3297 01b2 01       		.byte	0x1
 3298 01b3 11       		.uleb128 0x11
 3299 01b4 01       		.uleb128 0x1
 3300 01b5 00       		.byte	0
 3301 01b6 00       		.byte	0
 3302 01b7 21       		.uleb128 0x21
 3303 01b8 2E       		.uleb128 0x2e
 3304 01b9 01       		.byte	0x1
 3305 01ba 3F       		.uleb128 0x3f
 3306 01bb 19       		.uleb128 0x19
ARM GAS  /tmp/cc6V3eFT.s 			page 59


 3307 01bc 03       		.uleb128 0x3
 3308 01bd 0E       		.uleb128 0xe
 3309 01be 3A       		.uleb128 0x3a
 3310 01bf 0B       		.uleb128 0xb
 3311 01c0 3B       		.uleb128 0x3b
 3312 01c1 05       		.uleb128 0x5
 3313 01c2 39       		.uleb128 0x39
 3314 01c3 0B       		.uleb128 0xb
 3315 01c4 27       		.uleb128 0x27
 3316 01c5 19       		.uleb128 0x19
 3317 01c6 11       		.uleb128 0x11
 3318 01c7 01       		.uleb128 0x1
 3319 01c8 12       		.uleb128 0x12
 3320 01c9 06       		.uleb128 0x6
 3321 01ca 40       		.uleb128 0x40
 3322 01cb 18       		.uleb128 0x18
 3323 01cc 9742     		.uleb128 0x2117
 3324 01ce 19       		.uleb128 0x19
 3325 01cf 01       		.uleb128 0x1
 3326 01d0 13       		.uleb128 0x13
 3327 01d1 00       		.byte	0
 3328 01d2 00       		.byte	0
 3329 01d3 22       		.uleb128 0x22
 3330 01d4 1D       		.uleb128 0x1d
 3331 01d5 01       		.byte	0x1
 3332 01d6 31       		.uleb128 0x31
 3333 01d7 13       		.uleb128 0x13
 3334 01d8 52       		.uleb128 0x52
 3335 01d9 01       		.uleb128 0x1
 3336 01da B842     		.uleb128 0x2138
 3337 01dc 0B       		.uleb128 0xb
 3338 01dd 55       		.uleb128 0x55
 3339 01de 17       		.uleb128 0x17
 3340 01df 58       		.uleb128 0x58
 3341 01e0 0B       		.uleb128 0xb
 3342 01e1 59       		.uleb128 0x59
 3343 01e2 05       		.uleb128 0x5
 3344 01e3 57       		.uleb128 0x57
 3345 01e4 0B       		.uleb128 0xb
 3346 01e5 01       		.uleb128 0x1
 3347 01e6 13       		.uleb128 0x13
 3348 01e7 00       		.byte	0
 3349 01e8 00       		.byte	0
 3350 01e9 23       		.uleb128 0x23
 3351 01ea 0B       		.uleb128 0xb
 3352 01eb 01       		.byte	0x1
 3353 01ec 55       		.uleb128 0x55
 3354 01ed 17       		.uleb128 0x17
 3355 01ee 00       		.byte	0
 3356 01ef 00       		.byte	0
 3357 01f0 24       		.uleb128 0x24
 3358 01f1 05       		.uleb128 0x5
 3359 01f2 00       		.byte	0
 3360 01f3 03       		.uleb128 0x3
 3361 01f4 08       		.uleb128 0x8
 3362 01f5 3A       		.uleb128 0x3a
 3363 01f6 0B       		.uleb128 0xb
ARM GAS  /tmp/cc6V3eFT.s 			page 60


 3364 01f7 3B       		.uleb128 0x3b
 3365 01f8 05       		.uleb128 0x5
 3366 01f9 39       		.uleb128 0x39
 3367 01fa 0B       		.uleb128 0xb
 3368 01fb 49       		.uleb128 0x49
 3369 01fc 13       		.uleb128 0x13
 3370 01fd 02       		.uleb128 0x2
 3371 01fe 18       		.uleb128 0x18
 3372 01ff 00       		.byte	0
 3373 0200 00       		.byte	0
 3374 0201 25       		.uleb128 0x25
 3375 0202 05       		.uleb128 0x5
 3376 0203 00       		.byte	0
 3377 0204 03       		.uleb128 0x3
 3378 0205 0E       		.uleb128 0xe
 3379 0206 3A       		.uleb128 0x3a
 3380 0207 0B       		.uleb128 0xb
 3381 0208 3B       		.uleb128 0x3b
 3382 0209 05       		.uleb128 0x5
 3383 020a 39       		.uleb128 0x39
 3384 020b 0B       		.uleb128 0xb
 3385 020c 49       		.uleb128 0x49
 3386 020d 13       		.uleb128 0x13
 3387 020e 02       		.uleb128 0x2
 3388 020f 18       		.uleb128 0x18
 3389 0210 00       		.byte	0
 3390 0211 00       		.byte	0
 3391 0212 26       		.uleb128 0x26
 3392 0213 2E       		.uleb128 0x2e
 3393 0214 01       		.byte	0x1
 3394 0215 3F       		.uleb128 0x3f
 3395 0216 19       		.uleb128 0x19
 3396 0217 03       		.uleb128 0x3
 3397 0218 0E       		.uleb128 0xe
 3398 0219 3A       		.uleb128 0x3a
 3399 021a 0B       		.uleb128 0xb
 3400 021b 3B       		.uleb128 0x3b
 3401 021c 0B       		.uleb128 0xb
 3402 021d 39       		.uleb128 0x39
 3403 021e 0B       		.uleb128 0xb
 3404 021f 27       		.uleb128 0x27
 3405 0220 19       		.uleb128 0x19
 3406 0221 49       		.uleb128 0x49
 3407 0222 13       		.uleb128 0x13
 3408 0223 11       		.uleb128 0x11
 3409 0224 01       		.uleb128 0x1
 3410 0225 12       		.uleb128 0x12
 3411 0226 06       		.uleb128 0x6
 3412 0227 40       		.uleb128 0x40
 3413 0228 18       		.uleb128 0x18
 3414 0229 9742     		.uleb128 0x2117
 3415 022b 19       		.uleb128 0x19
 3416 022c 01       		.uleb128 0x1
 3417 022d 13       		.uleb128 0x13
 3418 022e 00       		.byte	0
 3419 022f 00       		.byte	0
 3420 0230 27       		.uleb128 0x27
ARM GAS  /tmp/cc6V3eFT.s 			page 61


 3421 0231 05       		.uleb128 0x5
 3422 0232 00       		.byte	0
 3423 0233 03       		.uleb128 0x3
 3424 0234 08       		.uleb128 0x8
 3425 0235 3A       		.uleb128 0x3a
 3426 0236 0B       		.uleb128 0xb
 3427 0237 3B       		.uleb128 0x3b
 3428 0238 0B       		.uleb128 0xb
 3429 0239 39       		.uleb128 0x39
 3430 023a 0B       		.uleb128 0xb
 3431 023b 49       		.uleb128 0x49
 3432 023c 13       		.uleb128 0x13
 3433 023d 02       		.uleb128 0x2
 3434 023e 17       		.uleb128 0x17
 3435 023f B742     		.uleb128 0x2137
 3436 0241 17       		.uleb128 0x17
 3437 0242 00       		.byte	0
 3438 0243 00       		.byte	0
 3439 0244 28       		.uleb128 0x28
 3440 0245 05       		.uleb128 0x5
 3441 0246 00       		.byte	0
 3442 0247 03       		.uleb128 0x3
 3443 0248 0E       		.uleb128 0xe
 3444 0249 3A       		.uleb128 0x3a
 3445 024a 0B       		.uleb128 0xb
 3446 024b 3B       		.uleb128 0x3b
 3447 024c 0B       		.uleb128 0xb
 3448 024d 39       		.uleb128 0x39
 3449 024e 0B       		.uleb128 0xb
 3450 024f 49       		.uleb128 0x49
 3451 0250 13       		.uleb128 0x13
 3452 0251 02       		.uleb128 0x2
 3453 0252 17       		.uleb128 0x17
 3454 0253 B742     		.uleb128 0x2137
 3455 0255 17       		.uleb128 0x17
 3456 0256 00       		.byte	0
 3457 0257 00       		.byte	0
 3458 0258 29       		.uleb128 0x29
 3459 0259 34       		.uleb128 0x34
 3460 025a 00       		.byte	0
 3461 025b 03       		.uleb128 0x3
 3462 025c 08       		.uleb128 0x8
 3463 025d 3A       		.uleb128 0x3a
 3464 025e 0B       		.uleb128 0xb
 3465 025f 3B       		.uleb128 0x3b
 3466 0260 0B       		.uleb128 0xb
 3467 0261 39       		.uleb128 0x39
 3468 0262 0B       		.uleb128 0xb
 3469 0263 49       		.uleb128 0x49
 3470 0264 13       		.uleb128 0x13
 3471 0265 02       		.uleb128 0x2
 3472 0266 17       		.uleb128 0x17
 3473 0267 B742     		.uleb128 0x2137
 3474 0269 17       		.uleb128 0x17
 3475 026a 00       		.byte	0
 3476 026b 00       		.byte	0
 3477 026c 2A       		.uleb128 0x2a
ARM GAS  /tmp/cc6V3eFT.s 			page 62


 3478 026d 0B       		.uleb128 0xb
 3479 026e 01       		.byte	0x1
 3480 026f 11       		.uleb128 0x11
 3481 0270 01       		.uleb128 0x1
 3482 0271 12       		.uleb128 0x12
 3483 0272 06       		.uleb128 0x6
 3484 0273 01       		.uleb128 0x1
 3485 0274 13       		.uleb128 0x13
 3486 0275 00       		.byte	0
 3487 0276 00       		.byte	0
 3488 0277 2B       		.uleb128 0x2b
 3489 0278 1D       		.uleb128 0x1d
 3490 0279 01       		.byte	0x1
 3491 027a 31       		.uleb128 0x31
 3492 027b 13       		.uleb128 0x13
 3493 027c 52       		.uleb128 0x52
 3494 027d 01       		.uleb128 0x1
 3495 027e B842     		.uleb128 0x2138
 3496 0280 0B       		.uleb128 0xb
 3497 0281 55       		.uleb128 0x55
 3498 0282 17       		.uleb128 0x17
 3499 0283 58       		.uleb128 0x58
 3500 0284 0B       		.uleb128 0xb
 3501 0285 59       		.uleb128 0x59
 3502 0286 0B       		.uleb128 0xb
 3503 0287 57       		.uleb128 0x57
 3504 0288 0B       		.uleb128 0xb
 3505 0289 01       		.uleb128 0x1
 3506 028a 13       		.uleb128 0x13
 3507 028b 00       		.byte	0
 3508 028c 00       		.byte	0
 3509 028d 2C       		.uleb128 0x2c
 3510 028e 2E       		.uleb128 0x2e
 3511 028f 01       		.byte	0x1
 3512 0290 3F       		.uleb128 0x3f
 3513 0291 19       		.uleb128 0x19
 3514 0292 03       		.uleb128 0x3
 3515 0293 0E       		.uleb128 0xe
 3516 0294 3A       		.uleb128 0x3a
 3517 0295 0B       		.uleb128 0xb
 3518 0296 3B       		.uleb128 0x3b
 3519 0297 0B       		.uleb128 0xb
 3520 0298 39       		.uleb128 0x39
 3521 0299 0B       		.uleb128 0xb
 3522 029a 27       		.uleb128 0x27
 3523 029b 19       		.uleb128 0x19
 3524 029c 11       		.uleb128 0x11
 3525 029d 01       		.uleb128 0x1
 3526 029e 12       		.uleb128 0x12
 3527 029f 06       		.uleb128 0x6
 3528 02a0 40       		.uleb128 0x40
 3529 02a1 18       		.uleb128 0x18
 3530 02a2 9742     		.uleb128 0x2117
 3531 02a4 19       		.uleb128 0x19
 3532 02a5 01       		.uleb128 0x1
 3533 02a6 13       		.uleb128 0x13
 3534 02a7 00       		.byte	0
ARM GAS  /tmp/cc6V3eFT.s 			page 63


 3535 02a8 00       		.byte	0
 3536 02a9 2D       		.uleb128 0x2d
 3537 02aa 05       		.uleb128 0x5
 3538 02ab 00       		.byte	0
 3539 02ac 03       		.uleb128 0x3
 3540 02ad 08       		.uleb128 0x8
 3541 02ae 3A       		.uleb128 0x3a
 3542 02af 0B       		.uleb128 0xb
 3543 02b0 3B       		.uleb128 0x3b
 3544 02b1 0B       		.uleb128 0xb
 3545 02b2 39       		.uleb128 0x39
 3546 02b3 0B       		.uleb128 0xb
 3547 02b4 49       		.uleb128 0x49
 3548 02b5 13       		.uleb128 0x13
 3549 02b6 02       		.uleb128 0x2
 3550 02b7 18       		.uleb128 0x18
 3551 02b8 00       		.byte	0
 3552 02b9 00       		.byte	0
 3553 02ba 2E       		.uleb128 0x2e
 3554 02bb 05       		.uleb128 0x5
 3555 02bc 00       		.byte	0
 3556 02bd 03       		.uleb128 0x3
 3557 02be 0E       		.uleb128 0xe
 3558 02bf 3A       		.uleb128 0x3a
 3559 02c0 0B       		.uleb128 0xb
 3560 02c1 3B       		.uleb128 0x3b
 3561 02c2 0B       		.uleb128 0xb
 3562 02c3 39       		.uleb128 0x39
 3563 02c4 0B       		.uleb128 0xb
 3564 02c5 49       		.uleb128 0x49
 3565 02c6 13       		.uleb128 0x13
 3566 02c7 02       		.uleb128 0x2
 3567 02c8 18       		.uleb128 0x18
 3568 02c9 00       		.byte	0
 3569 02ca 00       		.byte	0
 3570 02cb 2F       		.uleb128 0x2f
 3571 02cc 2E       		.uleb128 0x2e
 3572 02cd 01       		.byte	0x1
 3573 02ce 03       		.uleb128 0x3
 3574 02cf 0E       		.uleb128 0xe
 3575 02d0 3A       		.uleb128 0x3a
 3576 02d1 0B       		.uleb128 0xb
 3577 02d2 3B       		.uleb128 0x3b
 3578 02d3 0B       		.uleb128 0xb
 3579 02d4 39       		.uleb128 0x39
 3580 02d5 0B       		.uleb128 0xb
 3581 02d6 27       		.uleb128 0x27
 3582 02d7 19       		.uleb128 0x19
 3583 02d8 49       		.uleb128 0x49
 3584 02d9 13       		.uleb128 0x13
 3585 02da 11       		.uleb128 0x11
 3586 02db 01       		.uleb128 0x1
 3587 02dc 12       		.uleb128 0x12
 3588 02dd 06       		.uleb128 0x6
 3589 02de 40       		.uleb128 0x40
 3590 02df 18       		.uleb128 0x18
 3591 02e0 9742     		.uleb128 0x2117
ARM GAS  /tmp/cc6V3eFT.s 			page 64


 3592 02e2 19       		.uleb128 0x19
 3593 02e3 01       		.uleb128 0x1
 3594 02e4 13       		.uleb128 0x13
 3595 02e5 00       		.byte	0
 3596 02e6 00       		.byte	0
 3597 02e7 30       		.uleb128 0x30
 3598 02e8 898201   		.uleb128 0x4109
 3599 02eb 01       		.byte	0x1
 3600 02ec 11       		.uleb128 0x11
 3601 02ed 01       		.uleb128 0x1
 3602 02ee 9542     		.uleb128 0x2115
 3603 02f0 19       		.uleb128 0x19
 3604 02f1 31       		.uleb128 0x31
 3605 02f2 13       		.uleb128 0x13
 3606 02f3 00       		.byte	0
 3607 02f4 00       		.byte	0
 3608 02f5 31       		.uleb128 0x31
 3609 02f6 2E       		.uleb128 0x2e
 3610 02f7 01       		.byte	0x1
 3611 02f8 03       		.uleb128 0x3
 3612 02f9 0E       		.uleb128 0xe
 3613 02fa 3A       		.uleb128 0x3a
 3614 02fb 0B       		.uleb128 0xb
 3615 02fc 3B       		.uleb128 0x3b
 3616 02fd 0B       		.uleb128 0xb
 3617 02fe 39       		.uleb128 0x39
 3618 02ff 0B       		.uleb128 0xb
 3619 0300 27       		.uleb128 0x27
 3620 0301 19       		.uleb128 0x19
 3621 0302 49       		.uleb128 0x49
 3622 0303 13       		.uleb128 0x13
 3623 0304 20       		.uleb128 0x20
 3624 0305 0B       		.uleb128 0xb
 3625 0306 01       		.uleb128 0x1
 3626 0307 13       		.uleb128 0x13
 3627 0308 00       		.byte	0
 3628 0309 00       		.byte	0
 3629 030a 32       		.uleb128 0x32
 3630 030b 05       		.uleb128 0x5
 3631 030c 00       		.byte	0
 3632 030d 03       		.uleb128 0x3
 3633 030e 08       		.uleb128 0x8
 3634 030f 3A       		.uleb128 0x3a
 3635 0310 0B       		.uleb128 0xb
 3636 0311 3B       		.uleb128 0x3b
 3637 0312 0B       		.uleb128 0xb
 3638 0313 39       		.uleb128 0x39
 3639 0314 0B       		.uleb128 0xb
 3640 0315 49       		.uleb128 0x49
 3641 0316 13       		.uleb128 0x13
 3642 0317 00       		.byte	0
 3643 0318 00       		.byte	0
 3644 0319 33       		.uleb128 0x33
 3645 031a 34       		.uleb128 0x34
 3646 031b 00       		.byte	0
 3647 031c 03       		.uleb128 0x3
 3648 031d 08       		.uleb128 0x8
ARM GAS  /tmp/cc6V3eFT.s 			page 65


 3649 031e 3A       		.uleb128 0x3a
 3650 031f 0B       		.uleb128 0xb
 3651 0320 3B       		.uleb128 0x3b
 3652 0321 0B       		.uleb128 0xb
 3653 0322 39       		.uleb128 0x39
 3654 0323 0B       		.uleb128 0xb
 3655 0324 49       		.uleb128 0x49
 3656 0325 13       		.uleb128 0x13
 3657 0326 00       		.byte	0
 3658 0327 00       		.byte	0
 3659 0328 34       		.uleb128 0x34
 3660 0329 2E       		.uleb128 0x2e
 3661 032a 01       		.byte	0x1
 3662 032b 03       		.uleb128 0x3
 3663 032c 0E       		.uleb128 0xe
 3664 032d 3A       		.uleb128 0x3a
 3665 032e 0B       		.uleb128 0xb
 3666 032f 3B       		.uleb128 0x3b
 3667 0330 0B       		.uleb128 0xb
 3668 0331 39       		.uleb128 0x39
 3669 0332 0B       		.uleb128 0xb
 3670 0333 27       		.uleb128 0x27
 3671 0334 19       		.uleb128 0x19
 3672 0335 20       		.uleb128 0x20
 3673 0336 0B       		.uleb128 0xb
 3674 0337 01       		.uleb128 0x1
 3675 0338 13       		.uleb128 0x13
 3676 0339 00       		.byte	0
 3677 033a 00       		.byte	0
 3678 033b 35       		.uleb128 0x35
 3679 033c 2E       		.uleb128 0x2e
 3680 033d 00       		.byte	0
 3681 033e 3F       		.uleb128 0x3f
 3682 033f 19       		.uleb128 0x19
 3683 0340 3C       		.uleb128 0x3c
 3684 0341 19       		.uleb128 0x19
 3685 0342 6E       		.uleb128 0x6e
 3686 0343 0E       		.uleb128 0xe
 3687 0344 03       		.uleb128 0x3
 3688 0345 0E       		.uleb128 0xe
 3689 0346 3A       		.uleb128 0x3a
 3690 0347 0B       		.uleb128 0xb
 3691 0348 3B       		.uleb128 0x3b
 3692 0349 0B       		.uleb128 0xb
 3693 034a 39       		.uleb128 0x39
 3694 034b 0B       		.uleb128 0xb
 3695 034c 00       		.byte	0
 3696 034d 00       		.byte	0
 3697 034e 00       		.byte	0
 3698              		.section	.debug_loc,"",%progbits
 3699              	.Ldebug_loc0:
 3700              	.LVUS33:
 3701 0000 00       		.uleb128 0
 3702 0001 00       		.uleb128 .LVU356
 3703 0002 00       		.uleb128 .LVU356
 3704 0003 00       		.uleb128 0
 3705              	.LLST33:
ARM GAS  /tmp/cc6V3eFT.s 			page 66


 3706 0004 00000000 		.4byte	.LVL56
 3707 0008 20000000 		.4byte	.LVL58
 3708 000c 0100     		.2byte	0x1
 3709 000e 50       		.byte	0x50
 3710 000f 20000000 		.4byte	.LVL58
 3711 0013 B0000000 		.4byte	.LFE17
 3712 0017 0100     		.2byte	0x1
 3713 0019 54       		.byte	0x54
 3714 001a 00000000 		.4byte	0
 3715 001e 00000000 		.4byte	0
 3716              	.LVUS34:
 3717 0022 00       		.uleb128 0
 3718 0023 00       		.uleb128 .LVU356
 3719 0024 00       		.uleb128 .LVU356
 3720 0025 01       		.uleb128 .LVU368
 3721 0026 01       		.uleb128 .LVU368
 3722 0027 00       		.uleb128 .LVU370
 3723 0028 00       		.uleb128 .LVU370
 3724 0029 00       		.uleb128 0
 3725              	.LLST34:
 3726 002a 00000000 		.4byte	.LVL56
 3727 002e 20000000 		.4byte	.LVL58
 3728 0032 0100     		.2byte	0x1
 3729 0034 51       		.byte	0x51
 3730 0035 20000000 		.4byte	.LVL58
 3731 0039 38000000 		.4byte	.LVL59
 3732 003d 0100     		.2byte	0x1
 3733 003f 55       		.byte	0x55
 3734 0040 38000000 		.4byte	.LVL59
 3735 0044 44000000 		.4byte	.LVL60
 3736 0048 0300     		.2byte	0x3
 3737 004a 75       		.byte	0x75
 3738 004b 01       		.sleb128 1
 3739 004c 9F       		.byte	0x9f
 3740 004d 44000000 		.4byte	.LVL60
 3741 0051 B0000000 		.4byte	.LFE17
 3742 0055 0100     		.2byte	0x1
 3743 0057 55       		.byte	0x55
 3744 0058 00000000 		.4byte	0
 3745 005c 00000000 		.4byte	0
 3746              	.LVUS35:
 3747 0060 00       		.uleb128 0
 3748 0061 00       		.uleb128 .LVU356
 3749 0062 00       		.uleb128 .LVU356
 3750 0063 00       		.uleb128 .LVU382
 3751 0064 00       		.uleb128 .LVU382
 3752 0065 01       		.uleb128 .LVU384
 3753 0066 03       		.uleb128 .LVU389
 3754 0067 02       		.uleb128 .LVU404
 3755              	.LLST35:
 3756 0068 00000000 		.4byte	.LVL56
 3757 006c 20000000 		.4byte	.LVL58
 3758 0070 0100     		.2byte	0x1
 3759 0072 52       		.byte	0x52
 3760 0073 20000000 		.4byte	.LVL58
 3761 0077 74000000 		.4byte	.LVL62
 3762 007b 0100     		.2byte	0x1
ARM GAS  /tmp/cc6V3eFT.s 			page 67


 3763 007d 56       		.byte	0x56
 3764 007e 74000000 		.4byte	.LVL62
 3765 0082 78000000 		.4byte	.LVL63
 3766 0086 0300     		.2byte	0x3
 3767 0088 76       		.byte	0x76
 3768 0089 01       		.sleb128 1
 3769 008a 9F       		.byte	0x9f
 3770 008b 80000000 		.4byte	.LVL64
 3771 008f A8000000 		.4byte	.LVL66
 3772 0093 0100     		.2byte	0x1
 3773 0095 56       		.byte	0x56
 3774 0096 00000000 		.4byte	0
 3775 009a 00000000 		.4byte	0
 3776              	.LVUS36:
 3777 009e 00       		.uleb128 0
 3778 009f 00       		.uleb128 .LVU356
 3779 00a0 00       		.uleb128 .LVU356
 3780 00a1 00       		.uleb128 0
 3781              	.LLST36:
 3782 00a2 00000000 		.4byte	.LVL56
 3783 00a6 20000000 		.4byte	.LVL58
 3784 00aa 0100     		.2byte	0x1
 3785 00ac 53       		.byte	0x53
 3786 00ad 20000000 		.4byte	.LVL58
 3787 00b1 B0000000 		.4byte	.LFE17
 3788 00b5 0100     		.2byte	0x1
 3789 00b7 59       		.byte	0x59
 3790 00b8 00000000 		.4byte	0
 3791 00bc 00000000 		.4byte	0
 3792              	.LVUS37:
 3793 00c0 00       		.uleb128 .LVU351
 3794 00c1 00       		.uleb128 0
 3795              	.LLST37:
 3796 00c2 18000000 		.4byte	.LVL57
 3797 00c6 B0000000 		.4byte	.LFE17
 3798 00ca 0100     		.2byte	0x1
 3799 00cc 58       		.byte	0x58
 3800 00cd 00000000 		.4byte	0
 3801 00d1 00000000 		.4byte	0
 3802              	.LVUS38:
 3803 00d5 01       		.uleb128 .LVU352
 3804 00d6 00       		.uleb128 .LVU356
 3805 00d7 00       		.uleb128 .LVU356
 3806 00d8 00       		.uleb128 0
 3807              	.LLST38:
 3808 00d9 18000000 		.4byte	.LVL57
 3809 00dd 20000000 		.4byte	.LVL58
 3810 00e1 0200     		.2byte	0x2
 3811 00e3 30       		.byte	0x30
 3812 00e4 9F       		.byte	0x9f
 3813 00e5 20000000 		.4byte	.LVL58
 3814 00e9 B0000000 		.4byte	.LFE17
 3815 00ed 0100     		.2byte	0x1
 3816 00ef 57       		.byte	0x57
 3817 00f0 00000000 		.4byte	0
 3818 00f4 00000000 		.4byte	0
 3819              	.LVUS29:
ARM GAS  /tmp/cc6V3eFT.s 			page 68


 3820 00f8 00       		.uleb128 0
 3821 00f9 00       		.uleb128 .LVU316
 3822 00fa 00       		.uleb128 .LVU316
 3823 00fb 00       		.uleb128 .LVU339
 3824 00fc 00       		.uleb128 .LVU339
 3825 00fd 00       		.uleb128 .LVU343
 3826 00fe 00       		.uleb128 .LVU343
 3827 00ff 00       		.uleb128 .LVU345
 3828 0100 00       		.uleb128 .LVU345
 3829 0101 00       		.uleb128 0
 3830              	.LLST29:
 3831 0102 00000000 		.4byte	.LVL48
 3832 0106 24000000 		.4byte	.LVL49
 3833 010a 0100     		.2byte	0x1
 3834 010c 50       		.byte	0x50
 3835 010d 24000000 		.4byte	.LVL49
 3836 0111 5B000000 		.4byte	.LVL53-1
 3837 0115 0100     		.2byte	0x1
 3838 0117 53       		.byte	0x53
 3839 0118 5B000000 		.4byte	.LVL53-1
 3840 011c 6C000000 		.4byte	.LVL54
 3841 0120 0400     		.2byte	0x4
 3842 0122 F3       		.byte	0xf3
 3843 0123 01       		.uleb128 0x1
 3844 0124 50       		.byte	0x50
 3845 0125 9F       		.byte	0x9f
 3846 0126 6C000000 		.4byte	.LVL54
 3847 012a 78000000 		.4byte	.LVL55
 3848 012e 0100     		.2byte	0x1
 3849 0130 50       		.byte	0x50
 3850 0131 78000000 		.4byte	.LVL55
 3851 0135 7C000000 		.4byte	.LFE16
 3852 0139 0100     		.2byte	0x1
 3853 013b 53       		.byte	0x53
 3854 013c 00000000 		.4byte	0
 3855 0140 00000000 		.4byte	0
 3856              	.LVUS30:
 3857 0144 00       		.uleb128 .LVU324
 3858 0145 00       		.uleb128 .LVU343
 3859              	.LLST30:
 3860 0146 40000000 		.4byte	.LVL50
 3861 014a 6C000000 		.4byte	.LVL54
 3862 014e 0100     		.2byte	0x1
 3863 0150 54       		.byte	0x54
 3864 0151 00000000 		.4byte	0
 3865 0155 00000000 		.4byte	0
 3866              	.LVUS31:
 3867 0159 01       		.uleb128 .LVU330
 3868 015a 01       		.uleb128 .LVU337
 3869              	.LLST31:
 3870 015b 4C000000 		.4byte	.LVL51
 3871 015f 58000000 		.4byte	.LVL52
 3872 0163 0100     		.2byte	0x1
 3873 0165 53       		.byte	0x53
 3874 0166 00000000 		.4byte	0
 3875 016a 00000000 		.4byte	0
 3876              	.LVUS32:
ARM GAS  /tmp/cc6V3eFT.s 			page 69


 3877 016e 03       		.uleb128 .LVU332
 3878 016f 01       		.uleb128 .LVU337
 3879              	.LLST32:
 3880 0170 4C000000 		.4byte	.LVL51
 3881 0174 58000000 		.4byte	.LVL52
 3882 0178 0100     		.2byte	0x1
 3883 017a 50       		.byte	0x50
 3884 017b 00000000 		.4byte	0
 3885 017f 00000000 		.4byte	0
 3886              	.LVUS25:
 3887 0183 00       		.uleb128 0
 3888 0184 00       		.uleb128 .LVU267
 3889 0185 00       		.uleb128 .LVU267
 3890 0186 00       		.uleb128 0
 3891              	.LLST25:
 3892 0187 00000000 		.4byte	.LVL42
 3893 018b 18000000 		.4byte	.LVL43
 3894 018f 0100     		.2byte	0x1
 3895 0191 50       		.byte	0x50
 3896 0192 18000000 		.4byte	.LVL43
 3897 0196 8C000000 		.4byte	.LFE15
 3898 019a 0100     		.2byte	0x1
 3899 019c 54       		.byte	0x54
 3900 019d 00000000 		.4byte	0
 3901 01a1 00000000 		.4byte	0
 3902              	.LVUS26:
 3903 01a5 00       		.uleb128 0
 3904 01a6 00       		.uleb128 .LVU267
 3905 01a7 00       		.uleb128 .LVU267
 3906 01a8 00       		.uleb128 0
 3907              	.LLST26:
 3908 01a9 00000000 		.4byte	.LVL42
 3909 01ad 18000000 		.4byte	.LVL43
 3910 01b1 0100     		.2byte	0x1
 3911 01b3 51       		.byte	0x51
 3912 01b4 18000000 		.4byte	.LVL43
 3913 01b8 8C000000 		.4byte	.LFE15
 3914 01bc 0400     		.2byte	0x4
 3915 01be F3       		.byte	0xf3
 3916 01bf 01       		.uleb128 0x1
 3917 01c0 51       		.byte	0x51
 3918 01c1 9F       		.byte	0x9f
 3919 01c2 00000000 		.4byte	0
 3920 01c6 00000000 		.4byte	0
 3921              	.LVUS27:
 3922 01ca 00       		.uleb128 0
 3923 01cb 00       		.uleb128 .LVU267
 3924 01cc 00       		.uleb128 .LVU267
 3925 01cd 00       		.uleb128 0
 3926              	.LLST27:
 3927 01ce 00000000 		.4byte	.LVL42
 3928 01d2 18000000 		.4byte	.LVL43
 3929 01d6 0100     		.2byte	0x1
 3930 01d8 52       		.byte	0x52
 3931 01d9 18000000 		.4byte	.LVL43
 3932 01dd 8C000000 		.4byte	.LFE15
 3933 01e1 0100     		.2byte	0x1
ARM GAS  /tmp/cc6V3eFT.s 			page 70


 3934 01e3 55       		.byte	0x55
 3935 01e4 00000000 		.4byte	0
 3936 01e8 00000000 		.4byte	0
 3937              	.LVUS28:
 3938 01ec 00       		.uleb128 .LVU268
 3939 01ed 00       		.uleb128 .LVU270
 3940 01ee 00       		.uleb128 .LVU296
 3941 01ef 00       		.uleb128 0
 3942              	.LLST28:
 3943 01f0 24000000 		.4byte	.LVL44
 3944 01f4 2C000000 		.4byte	.LVL45
 3945 01f8 0100     		.2byte	0x1
 3946 01fa 50       		.byte	0x50
 3947 01fb 84000000 		.4byte	.LVL47
 3948 01ff 8C000000 		.4byte	.LFE15
 3949 0203 0100     		.2byte	0x1
 3950 0205 50       		.byte	0x50
 3951 0206 00000000 		.4byte	0
 3952 020a 00000000 		.4byte	0
 3953              	.LVUS22:
 3954 020e 00       		.uleb128 0
 3955 020f 00       		.uleb128 .LVU244
 3956 0210 00       		.uleb128 .LVU244
 3957 0211 00       		.uleb128 0
 3958              	.LLST22:
 3959 0212 00000000 		.4byte	.LVL38
 3960 0216 30000000 		.4byte	.LVL39
 3961 021a 0100     		.2byte	0x1
 3962 021c 50       		.byte	0x50
 3963 021d 30000000 		.4byte	.LVL39
 3964 0221 58000000 		.4byte	.LFE14
 3965 0225 0100     		.2byte	0x1
 3966 0227 54       		.byte	0x54
 3967 0228 00000000 		.4byte	0
 3968 022c 00000000 		.4byte	0
 3969              	.LVUS23:
 3970 0230 01       		.uleb128 .LVU245
 3971 0231 01       		.uleb128 .LVU253
 3972              	.LLST23:
 3973 0232 30000000 		.4byte	.LVL39
 3974 0236 40000000 		.4byte	.LVL40
 3975 023a 0100     		.2byte	0x1
 3976 023c 54       		.byte	0x54
 3977 023d 00000000 		.4byte	0
 3978 0241 00000000 		.4byte	0
 3979              	.LVUS24:
 3980 0245 03       		.uleb128 .LVU247
 3981 0246 01       		.uleb128 .LVU253
 3982              	.LLST24:
 3983 0247 30000000 		.4byte	.LVL39
 3984 024b 40000000 		.4byte	.LVL40
 3985 024f 0100     		.2byte	0x1
 3986 0251 53       		.byte	0x53
 3987 0252 00000000 		.4byte	0
 3988 0256 00000000 		.4byte	0
 3989              	.LVUS16:
 3990 025a 00       		.uleb128 0
ARM GAS  /tmp/cc6V3eFT.s 			page 71


 3991 025b 00       		.uleb128 .LVU166
 3992 025c 00       		.uleb128 .LVU166
 3993 025d 00       		.uleb128 0
 3994              	.LLST16:
 3995 025e 00000000 		.4byte	.LVL28
 3996 0262 20000000 		.4byte	.LVL30
 3997 0266 0100     		.2byte	0x1
 3998 0268 50       		.byte	0x50
 3999 0269 20000000 		.4byte	.LVL30
 4000 026d A8000000 		.4byte	.LFE12
 4001 0271 0100     		.2byte	0x1
 4002 0273 54       		.byte	0x54
 4003 0274 00000000 		.4byte	0
 4004 0278 00000000 		.4byte	0
 4005              	.LVUS17:
 4006 027c 00       		.uleb128 0
 4007 027d 00       		.uleb128 .LVU166
 4008 027e 00       		.uleb128 .LVU166
 4009 027f 01       		.uleb128 .LVU184
 4010 0280 01       		.uleb128 .LVU184
 4011 0281 00       		.uleb128 .LVU186
 4012 0282 00       		.uleb128 .LVU186
 4013 0283 00       		.uleb128 0
 4014              	.LLST17:
 4015 0284 00000000 		.4byte	.LVL28
 4016 0288 20000000 		.4byte	.LVL30
 4017 028c 0100     		.2byte	0x1
 4018 028e 51       		.byte	0x51
 4019 028f 20000000 		.4byte	.LVL30
 4020 0293 68000000 		.4byte	.LVL33
 4021 0297 0100     		.2byte	0x1
 4022 0299 57       		.byte	0x57
 4023 029a 68000000 		.4byte	.LVL33
 4024 029e 70000000 		.4byte	.LVL34
 4025 02a2 0300     		.2byte	0x3
 4026 02a4 77       		.byte	0x77
 4027 02a5 01       		.sleb128 1
 4028 02a6 9F       		.byte	0x9f
 4029 02a7 70000000 		.4byte	.LVL34
 4030 02ab A8000000 		.4byte	.LFE12
 4031 02af 0100     		.2byte	0x1
 4032 02b1 57       		.byte	0x57
 4033 02b2 00000000 		.4byte	0
 4034 02b6 00000000 		.4byte	0
 4035              	.LVUS18:
 4036 02ba 00       		.uleb128 0
 4037 02bb 00       		.uleb128 .LVU166
 4038 02bc 01       		.uleb128 .LVU196
 4039 02bd 00       		.uleb128 .LVU202
 4040              	.LLST18:
 4041 02be 00000000 		.4byte	.LVL28
 4042 02c2 20000000 		.4byte	.LVL30
 4043 02c6 0100     		.2byte	0x1
 4044 02c8 52       		.byte	0x52
 4045 02c9 8C000000 		.4byte	.LVL35
 4046 02cd 9C000000 		.4byte	.LVL36
 4047 02d1 0600     		.2byte	0x6
ARM GAS  /tmp/cc6V3eFT.s 			page 72


 4048 02d3 79       		.byte	0x79
 4049 02d4 00       		.sleb128 0
 4050 02d5 76       		.byte	0x76
 4051 02d6 00       		.sleb128 0
 4052 02d7 1C       		.byte	0x1c
 4053 02d8 9F       		.byte	0x9f
 4054 02d9 00000000 		.4byte	0
 4055 02dd 00000000 		.4byte	0
 4056              	.LVUS19:
 4057 02e1 00       		.uleb128 0
 4058 02e2 00       		.uleb128 .LVU166
 4059 02e3 00       		.uleb128 .LVU166
 4060 02e4 00       		.uleb128 0
 4061              	.LLST19:
 4062 02e5 00000000 		.4byte	.LVL28
 4063 02e9 20000000 		.4byte	.LVL30
 4064 02ed 0100     		.2byte	0x1
 4065 02ef 53       		.byte	0x53
 4066 02f0 20000000 		.4byte	.LVL30
 4067 02f4 A8000000 		.4byte	.LFE12
 4068 02f8 0100     		.2byte	0x1
 4069 02fa 55       		.byte	0x55
 4070 02fb 00000000 		.4byte	0
 4071 02ff 00000000 		.4byte	0
 4072              	.LVUS20:
 4073 0303 00       		.uleb128 .LVU161
 4074 0304 00       		.uleb128 0
 4075              	.LLST20:
 4076 0305 18000000 		.4byte	.LVL29
 4077 0309 A8000000 		.4byte	.LFE12
 4078 030d 0100     		.2byte	0x1
 4079 030f 58       		.byte	0x58
 4080 0310 00000000 		.4byte	0
 4081 0314 00000000 		.4byte	0
 4082              	.LVUS21:
 4083 0318 01       		.uleb128 .LVU162
 4084 0319 00       		.uleb128 .LVU166
 4085 031a 00       		.uleb128 .LVU166
 4086 031b 00       		.uleb128 0
 4087              	.LLST21:
 4088 031c 18000000 		.4byte	.LVL29
 4089 0320 20000000 		.4byte	.LVL30
 4090 0324 0200     		.2byte	0x2
 4091 0326 30       		.byte	0x30
 4092 0327 9F       		.byte	0x9f
 4093 0328 20000000 		.4byte	.LVL30
 4094 032c A8000000 		.4byte	.LFE12
 4095 0330 0100     		.2byte	0x1
 4096 0332 56       		.byte	0x56
 4097 0333 00000000 		.4byte	0
 4098 0337 00000000 		.4byte	0
 4099              	.LVUS12:
 4100 033b 00       		.uleb128 0
 4101 033c 00       		.uleb128 .LVU128
 4102 033d 00       		.uleb128 .LVU128
 4103 033e 00       		.uleb128 0
 4104              	.LLST12:
ARM GAS  /tmp/cc6V3eFT.s 			page 73


 4105 033f 00000000 		.4byte	.LVL22
 4106 0343 1F000000 		.4byte	.LVL23-1
 4107 0347 0100     		.2byte	0x1
 4108 0349 50       		.byte	0x50
 4109 034a 1F000000 		.4byte	.LVL23-1
 4110 034e 74000000 		.4byte	.LFE11
 4111 0352 0100     		.2byte	0x1
 4112 0354 54       		.byte	0x54
 4113 0355 00000000 		.4byte	0
 4114 0359 00000000 		.4byte	0
 4115              	.LVUS13:
 4116 035d 00       		.uleb128 0
 4117 035e 00       		.uleb128 .LVU128
 4118 035f 00       		.uleb128 .LVU128
 4119 0360 00       		.uleb128 0
 4120              	.LLST13:
 4121 0361 00000000 		.4byte	.LVL22
 4122 0365 1F000000 		.4byte	.LVL23-1
 4123 0369 0100     		.2byte	0x1
 4124 036b 51       		.byte	0x51
 4125 036c 1F000000 		.4byte	.LVL23-1
 4126 0370 74000000 		.4byte	.LFE11
 4127 0374 0100     		.2byte	0x1
 4128 0376 55       		.byte	0x55
 4129 0377 00000000 		.4byte	0
 4130 037b 00000000 		.4byte	0
 4131              	.LVUS14:
 4132 037f 00       		.uleb128 .LVU148
 4133 0380 00       		.uleb128 .LVU151
 4134              	.LLST14:
 4135 0381 68000000 		.4byte	.LVL26
 4136 0385 6C000000 		.4byte	.LVL27
 4137 0389 0100     		.2byte	0x1
 4138 038b 50       		.byte	0x50
 4139 038c 00000000 		.4byte	0
 4140 0390 00000000 		.4byte	0
 4141              	.LVUS15:
 4142 0394 00       		.uleb128 .LVU130
 4143 0395 00       		.uleb128 .LVU132
 4144              	.LLST15:
 4145 0396 30000000 		.4byte	.LVL24
 4146 039a 38000000 		.4byte	.LVL25
 4147 039e 0100     		.2byte	0x1
 4148 03a0 50       		.byte	0x50
 4149 03a1 00000000 		.4byte	0
 4150 03a5 00000000 		.4byte	0
 4151              	.LVUS8:
 4152 03a9 00       		.uleb128 0
 4153 03aa 00       		.uleb128 .LVU79
 4154 03ab 00       		.uleb128 .LVU79
 4155 03ac 00       		.uleb128 .LVU107
 4156 03ad 00       		.uleb128 .LVU107
 4157 03ae 00       		.uleb128 .LVU112
 4158 03af 00       		.uleb128 .LVU112
 4159 03b0 00       		.uleb128 0
 4160              	.LLST8:
 4161 03b1 00000000 		.4byte	.LVL12
ARM GAS  /tmp/cc6V3eFT.s 			page 74


 4162 03b5 08000000 		.4byte	.LVL13
 4163 03b9 0100     		.2byte	0x1
 4164 03bb 50       		.byte	0x50
 4165 03bc 08000000 		.4byte	.LVL13
 4166 03c0 5F000000 		.4byte	.LVL19-1
 4167 03c4 0100     		.2byte	0x1
 4168 03c6 53       		.byte	0x53
 4169 03c7 5F000000 		.4byte	.LVL19-1
 4170 03cb 74000000 		.4byte	.LVL20
 4171 03cf 0400     		.2byte	0x4
 4172 03d1 F3       		.byte	0xf3
 4173 03d2 01       		.uleb128 0x1
 4174 03d3 50       		.byte	0x50
 4175 03d4 9F       		.byte	0x9f
 4176 03d5 74000000 		.4byte	.LVL20
 4177 03d9 8C000000 		.4byte	.LFE10
 4178 03dd 0100     		.2byte	0x1
 4179 03df 53       		.byte	0x53
 4180 03e0 00000000 		.4byte	0
 4181 03e4 00000000 		.4byte	0
 4182              	.LVUS9:
 4183 03e8 00       		.uleb128 0
 4184 03e9 00       		.uleb128 .LVU90
 4185 03ea 00       		.uleb128 .LVU90
 4186 03eb 00       		.uleb128 .LVU91
 4187 03ec 00       		.uleb128 .LVU91
 4188 03ed 00       		.uleb128 .LVU94
 4189 03ee 00       		.uleb128 .LVU94
 4190 03ef 00       		.uleb128 .LVU114
 4191 03f0 00       		.uleb128 .LVU114
 4192 03f1 00       		.uleb128 0
 4193              	.LLST9:
 4194 03f2 00000000 		.4byte	.LVL12
 4195 03f6 34000000 		.4byte	.LVL14
 4196 03fa 0100     		.2byte	0x1
 4197 03fc 51       		.byte	0x51
 4198 03fd 34000000 		.4byte	.LVL14
 4199 0401 38000000 		.4byte	.LVL15
 4200 0405 0200     		.2byte	0x2
 4201 0407 70       		.byte	0x70
 4202 0408 00       		.sleb128 0
 4203 0409 38000000 		.4byte	.LVL15
 4204 040d 44000000 		.4byte	.LVL16
 4205 0411 0200     		.2byte	0x2
 4206 0413 7C       		.byte	0x7c
 4207 0414 7F       		.sleb128 -1
 4208 0415 44000000 		.4byte	.LVL16
 4209 0419 7C000000 		.4byte	.LVL21
 4210 041d 0400     		.2byte	0x4
 4211 041f F3       		.byte	0xf3
 4212 0420 01       		.uleb128 0x1
 4213 0421 51       		.byte	0x51
 4214 0422 9F       		.byte	0x9f
 4215 0423 7C000000 		.4byte	.LVL21
 4216 0427 8C000000 		.4byte	.LFE10
 4217 042b 0100     		.2byte	0x1
 4218 042d 51       		.byte	0x51
ARM GAS  /tmp/cc6V3eFT.s 			page 75


 4219 042e 00000000 		.4byte	0
 4220 0432 00000000 		.4byte	0
 4221              	.LVUS10:
 4222 0436 01       		.uleb128 .LVU97
 4223 0437 01       		.uleb128 .LVU105
 4224              	.LLST10:
 4225 0438 4C000000 		.4byte	.LVL17
 4226 043c 5C000000 		.4byte	.LVL18
 4227 0440 0100     		.2byte	0x1
 4228 0442 53       		.byte	0x53
 4229 0443 00000000 		.4byte	0
 4230 0447 00000000 		.4byte	0
 4231              	.LVUS11:
 4232 044b 03       		.uleb128 .LVU99
 4233 044c 01       		.uleb128 .LVU105
 4234              	.LLST11:
 4235 044d 4C000000 		.4byte	.LVL17
 4236 0451 5C000000 		.4byte	.LVL18
 4237 0455 0100     		.2byte	0x1
 4238 0457 50       		.byte	0x50
 4239 0458 00000000 		.4byte	0
 4240 045c 00000000 		.4byte	0
 4241              	.LVUS5:
 4242 0460 00       		.uleb128 0
 4243 0461 00       		.uleb128 .LVU59
 4244 0462 00       		.uleb128 .LVU59
 4245 0463 00       		.uleb128 0
 4246              	.LLST5:
 4247 0464 00000000 		.4byte	.LVL8
 4248 0468 2C000000 		.4byte	.LVL9
 4249 046c 0100     		.2byte	0x1
 4250 046e 50       		.byte	0x50
 4251 046f 2C000000 		.4byte	.LVL9
 4252 0473 54000000 		.4byte	.LFE9
 4253 0477 0100     		.2byte	0x1
 4254 0479 54       		.byte	0x54
 4255 047a 00000000 		.4byte	0
 4256 047e 00000000 		.4byte	0
 4257              	.LVUS6:
 4258 0482 01       		.uleb128 .LVU60
 4259 0483 01       		.uleb128 .LVU68
 4260              	.LLST6:
 4261 0484 2C000000 		.4byte	.LVL9
 4262 0488 3C000000 		.4byte	.LVL10
 4263 048c 0100     		.2byte	0x1
 4264 048e 54       		.byte	0x54
 4265 048f 00000000 		.4byte	0
 4266 0493 00000000 		.4byte	0
 4267              	.LVUS7:
 4268 0497 03       		.uleb128 .LVU62
 4269 0498 01       		.uleb128 .LVU68
 4270              	.LLST7:
 4271 0499 2C000000 		.4byte	.LVL9
 4272 049d 3C000000 		.4byte	.LVL10
 4273 04a1 0100     		.2byte	0x1
 4274 04a3 53       		.byte	0x53
 4275 04a4 00000000 		.4byte	0
ARM GAS  /tmp/cc6V3eFT.s 			page 76


 4276 04a8 00000000 		.4byte	0
 4277              	.LVUS4:
 4278 04ac 00       		.uleb128 0
 4279 04ad 00       		.uleb128 .LVU28
 4280 04ae 00       		.uleb128 .LVU28
 4281 04af 00       		.uleb128 0
 4282              	.LLST4:
 4283 04b0 00000000 		.4byte	.LVL6
 4284 04b4 10000000 		.4byte	.LVL7
 4285 04b8 0100     		.2byte	0x1
 4286 04ba 52       		.byte	0x52
 4287 04bb 10000000 		.4byte	.LVL7
 4288 04bf 38000000 		.4byte	.LFE8
 4289 04c3 0400     		.2byte	0x4
 4290 04c5 F3       		.byte	0xf3
 4291 04c6 01       		.uleb128 0x1
 4292 04c7 52       		.byte	0x52
 4293 04c8 9F       		.byte	0x9f
 4294 04c9 00000000 		.4byte	0
 4295 04cd 00000000 		.4byte	0
 4296              	.LVUS0:
 4297 04d1 00       		.uleb128 0
 4298 04d2 00       		.uleb128 .LVU9
 4299 04d3 00       		.uleb128 .LVU9
 4300 04d4 00       		.uleb128 .LVU20
 4301 04d5 00       		.uleb128 .LVU20
 4302 04d6 00       		.uleb128 .LVU20
 4303 04d7 00       		.uleb128 .LVU20
 4304 04d8 00       		.uleb128 .LVU21
 4305 04d9 00       		.uleb128 .LVU21
 4306 04da 00       		.uleb128 0
 4307              	.LLST0:
 4308 04db 00000000 		.4byte	.LVL0
 4309 04df 1C000000 		.4byte	.LVL1
 4310 04e3 0100     		.2byte	0x1
 4311 04e5 50       		.byte	0x50
 4312 04e6 1C000000 		.4byte	.LVL1
 4313 04ea 2F000000 		.4byte	.LVL4-1
 4314 04ee 0100     		.2byte	0x1
 4315 04f0 53       		.byte	0x53
 4316 04f1 2F000000 		.4byte	.LVL4-1
 4317 04f5 30000000 		.4byte	.LVL4
 4318 04f9 0400     		.2byte	0x4
 4319 04fb F3       		.byte	0xf3
 4320 04fc 01       		.uleb128 0x1
 4321 04fd 50       		.byte	0x50
 4322 04fe 9F       		.byte	0x9f
 4323 04ff 30000000 		.4byte	.LVL4
 4324 0503 34000000 		.4byte	.LVL5
 4325 0507 0100     		.2byte	0x1
 4326 0509 50       		.byte	0x50
 4327 050a 34000000 		.4byte	.LVL5
 4328 050e 3C000000 		.4byte	.LFE7
 4329 0512 0100     		.2byte	0x1
 4330 0514 53       		.byte	0x53
 4331 0515 00000000 		.4byte	0
 4332 0519 00000000 		.4byte	0
ARM GAS  /tmp/cc6V3eFT.s 			page 77


 4333              	.LVUS1:
 4334 051d 00       		.uleb128 0
 4335 051e 00       		.uleb128 .LVU20
 4336 051f 00       		.uleb128 .LVU20
 4337 0520 00       		.uleb128 .LVU20
 4338 0521 00       		.uleb128 .LVU20
 4339 0522 00       		.uleb128 0
 4340              	.LLST1:
 4341 0523 00000000 		.4byte	.LVL0
 4342 0527 2F000000 		.4byte	.LVL4-1
 4343 052b 0100     		.2byte	0x1
 4344 052d 51       		.byte	0x51
 4345 052e 2F000000 		.4byte	.LVL4-1
 4346 0532 30000000 		.4byte	.LVL4
 4347 0536 0400     		.2byte	0x4
 4348 0538 F3       		.byte	0xf3
 4349 0539 01       		.uleb128 0x1
 4350 053a 51       		.byte	0x51
 4351 053b 9F       		.byte	0x9f
 4352 053c 30000000 		.4byte	.LVL4
 4353 0540 3C000000 		.4byte	.LFE7
 4354 0544 0100     		.2byte	0x1
 4355 0546 51       		.byte	0x51
 4356 0547 00000000 		.4byte	0
 4357 054b 00000000 		.4byte	0
 4358              	.LVUS2:
 4359 054f 01       		.uleb128 .LVU12
 4360 0550 00       		.uleb128 .LVU17
 4361              	.LLST2:
 4362 0551 24000000 		.4byte	.LVL2
 4363 0555 2C000000 		.4byte	.LVL3
 4364 0559 0100     		.2byte	0x1
 4365 055b 53       		.byte	0x53
 4366 055c 00000000 		.4byte	0
 4367 0560 00000000 		.4byte	0
 4368              	.LVUS3:
 4369 0564 01       		.uleb128 .LVU12
 4370 0565 00       		.uleb128 .LVU17
 4371              	.LLST3:
 4372 0566 24000000 		.4byte	.LVL2
 4373 056a 2C000000 		.4byte	.LVL3
 4374 056e 0100     		.2byte	0x1
 4375 0570 52       		.byte	0x52
 4376 0571 00000000 		.4byte	0
 4377 0575 00000000 		.4byte	0
 4378              		.section	.debug_aranges,"",%progbits
 4379 0000 6C000000 		.4byte	0x6c
 4380 0004 0200     		.2byte	0x2
 4381 0006 00000000 		.4byte	.Ldebug_info0
 4382 000a 04       		.byte	0x4
 4383 000b 00       		.byte	0
 4384 000c 0000     		.2byte	0
 4385 000e 0000     		.2byte	0
 4386 0010 00000000 		.4byte	.LFB7
 4387 0014 3C000000 		.4byte	.LFE7-.LFB7
 4388 0018 00000000 		.4byte	.LFB8
 4389 001c 38000000 		.4byte	.LFE8-.LFB8
ARM GAS  /tmp/cc6V3eFT.s 			page 78


 4390 0020 00000000 		.4byte	.LFB9
 4391 0024 54000000 		.4byte	.LFE9-.LFB9
 4392 0028 00000000 		.4byte	.LFB10
 4393 002c 8C000000 		.4byte	.LFE10-.LFB10
 4394 0030 00000000 		.4byte	.LFB11
 4395 0034 74000000 		.4byte	.LFE11-.LFB11
 4396 0038 00000000 		.4byte	.LFB12
 4397 003c A8000000 		.4byte	.LFE12-.LFB12
 4398 0040 00000000 		.4byte	.LFB13
 4399 0044 34000000 		.4byte	.LFE13-.LFB13
 4400 0048 00000000 		.4byte	.LFB14
 4401 004c 58000000 		.4byte	.LFE14-.LFB14
 4402 0050 00000000 		.4byte	.LFB15
 4403 0054 8C000000 		.4byte	.LFE15-.LFB15
 4404 0058 00000000 		.4byte	.LFB16
 4405 005c 7C000000 		.4byte	.LFE16-.LFB16
 4406 0060 00000000 		.4byte	.LFB17
 4407 0064 B0000000 		.4byte	.LFE17-.LFB17
 4408 0068 00000000 		.4byte	0
 4409 006c 00000000 		.4byte	0
 4410              		.section	.debug_ranges,"",%progbits
 4411              	.Ldebug_ranges0:
 4412 0000 10000000 		.4byte	.LBB12
 4413 0004 14000000 		.4byte	.LBE12
 4414 0008 1C000000 		.4byte	.LBB16
 4415 000c 20000000 		.4byte	.LBE16
 4416 0010 24000000 		.4byte	.LBB17
 4417 0014 2C000000 		.4byte	.LBE17
 4418 0018 00000000 		.4byte	0
 4419 001c 00000000 		.4byte	0
 4420 0020 2C000000 		.4byte	.LBB18
 4421 0024 30000000 		.4byte	.LBE18
 4422 0028 34000000 		.4byte	.LBB21
 4423 002c 3C000000 		.4byte	.LBE21
 4424 0030 00000000 		.4byte	0
 4425 0034 00000000 		.4byte	0
 4426 0038 4C000000 		.4byte	.LBB22
 4427 003c 50000000 		.4byte	.LBE22
 4428 0040 54000000 		.4byte	.LBB25
 4429 0044 5C000000 		.4byte	.LBE25
 4430 0048 00000000 		.4byte	0
 4431 004c 00000000 		.4byte	0
 4432 0050 30000000 		.4byte	.LBB27
 4433 0054 34000000 		.4byte	.LBE27
 4434 0058 38000000 		.4byte	.LBB30
 4435 005c 40000000 		.4byte	.LBE30
 4436 0060 00000000 		.4byte	0
 4437 0064 00000000 		.4byte	0
 4438 0068 18000000 		.4byte	.LBB31
 4439 006c 2C000000 		.4byte	.LBE31
 4440 0070 84000000 		.4byte	.LBB32
 4441 0074 8C000000 		.4byte	.LBE32
 4442 0078 00000000 		.4byte	0
 4443 007c 00000000 		.4byte	0
 4444 0080 00000000 		.4byte	.LFB7
 4445 0084 3C000000 		.4byte	.LFE7
 4446 0088 00000000 		.4byte	.LFB8
ARM GAS  /tmp/cc6V3eFT.s 			page 79


 4447 008c 38000000 		.4byte	.LFE8
 4448 0090 00000000 		.4byte	.LFB9
 4449 0094 54000000 		.4byte	.LFE9
 4450 0098 00000000 		.4byte	.LFB10
 4451 009c 8C000000 		.4byte	.LFE10
 4452 00a0 00000000 		.4byte	.LFB11
 4453 00a4 74000000 		.4byte	.LFE11
 4454 00a8 00000000 		.4byte	.LFB12
 4455 00ac A8000000 		.4byte	.LFE12
 4456 00b0 00000000 		.4byte	.LFB13
 4457 00b4 34000000 		.4byte	.LFE13
 4458 00b8 00000000 		.4byte	.LFB14
 4459 00bc 58000000 		.4byte	.LFE14
 4460 00c0 00000000 		.4byte	.LFB15
 4461 00c4 8C000000 		.4byte	.LFE15
 4462 00c8 00000000 		.4byte	.LFB16
 4463 00cc 7C000000 		.4byte	.LFE16
 4464 00d0 00000000 		.4byte	.LFB17
 4465 00d4 B0000000 		.4byte	.LFE17
 4466 00d8 00000000 		.4byte	0
 4467 00dc 00000000 		.4byte	0
 4468              		.section	.debug_line,"",%progbits
 4469              	.Ldebug_line0:
 4470 0000 67070000 		.section	.debug_str,"MS",%progbits,1
 4470      03002601 
 4470      00000201 
 4470      FB0E0D00 
 4470      01010101 
 4471              	.LASF111:
 4472 0000 63684F51 		.ascii	"chOQPutTimeout\000"
 4472      50757454 
 4472      696D656F 
 4472      757400
 4473              	.LASF85:
 4474 000f 63665F6F 		.ascii	"cf_off_older\000"
 4474      66665F6F 
 4474      6C646572 
 4474      00
 4475              	.LASF38:
 4476 001c 705F6D73 		.ascii	"p_msg\000"
 4476      6700
 4477              	.LASF115:
 4478 0022 6F6E6679 		.ascii	"onfy\000"
 4478      00
 4479              	.LASF125:
 4480 0027 474E5520 		.ascii	"GNU C17 9.2.1 20191025 (release) [ARM/arm-9-branch "
 4480      43313720 
 4480      392E322E 
 4480      31203230 
 4480      31393130 
 4481 005a 72657669 		.ascii	"revision 277599] -mcpu=arm1176jz-s -mno-thumb-inter"
 4481      73696F6E 
 4481      20323737 
 4481      3539395D 
 4481      202D6D63 
 4482 008d 776F726B 		.ascii	"work -mfloat-abi=soft -marm -march=armv6kz -ggdb -O"
 4482      202D6D66 
ARM GAS  /tmp/cc6V3eFT.s 			page 80


 4482      6C6F6174 
 4482      2D616269 
 4482      3D736F66 
 4483 00c0 32202D66 		.ascii	"2 -fomit-frame-pointer -ffunction-sections -fdata-s"
 4483      6F6D6974 
 4483      2D667261 
 4483      6D652D70 
 4483      6F696E74 
 4484 00f3 65637469 		.ascii	"ections\000"
 4484      6F6E7300 
 4485              	.LASF70:
 4486 00fb 7264796D 		.ascii	"rdymsg\000"
 4486      736700
 4487              	.LASF121:
 4488 0102 63684951 		.ascii	"chIQInit\000"
 4488      496E6974 
 4488      00
 4489              	.LASF106:
 4490 010b 4F757470 		.ascii	"OutputQueue\000"
 4490      75745175 
 4490      65756500 
 4491              	.LASF64:
 4492 0117 76746C69 		.ascii	"vtlist\000"
 4492      737400
 4493              	.LASF117:
 4494 011e 63684951 		.ascii	"chIQReadTimeout\000"
 4494      52656164 
 4494      54696D65 
 4494      6F757400 
 4495              	.LASF99:
 4496 012e 715F746F 		.ascii	"q_top\000"
 4496      7000
 4497              	.LASF13:
 4498 0134 6C6F6E67 		.ascii	"long long unsigned int\000"
 4498      206C6F6E 
 4498      6720756E 
 4498      7369676E 
 4498      65642069 
 4499              	.LASF81:
 4500 014b 63685F74 		.ascii	"ch_threadsize\000"
 4500      68726561 
 4500      6473697A 
 4500      6500
 4501              	.LASF71:
 4502 0159 65786974 		.ascii	"exitcode\000"
 4502      636F6465 
 4502      00
 4503              	.LASF26:
 4504 0162 705F7072 		.ascii	"p_prio\000"
 4504      696F00
 4505              	.LASF88:
 4506 0169 63665F6F 		.ascii	"cf_off_state\000"
 4506      66665F73 
 4506      74617465 
 4506      00
 4507              	.LASF96:
 4508 0176 715F7761 		.ascii	"q_waiting\000"
ARM GAS  /tmp/cc6V3eFT.s 			page 81


 4508      6974696E 
 4508      6700
 4509              	.LASF6:
 4510 0180 6C6F6E67 		.ascii	"long long int\000"
 4510      206C6F6E 
 4510      6720696E 
 4510      7400
 4511              	.LASF1:
 4512 018e 7369676E 		.ascii	"signed char\000"
 4512      65642063 
 4512      68617200 
 4513              	.LASF87:
 4514 019a 63665F6F 		.ascii	"cf_off_stklimit\000"
 4514      66665F73 
 4514      746B6C69 
 4514      6D697400 
 4515              	.LASF89:
 4516 01aa 63665F6F 		.ascii	"cf_off_flags\000"
 4516      66665F66 
 4516      6C616773 
 4516      00
 4517              	.LASF14:
 4518 01b7 626F6F6C 		.ascii	"bool_t\000"
 4518      5F7400
 4519              	.LASF67:
 4520 01be 6D5F7175 		.ascii	"m_queue\000"
 4520      65756500 
 4521              	.LASF18:
 4522 01c6 74736C69 		.ascii	"tslices_t\000"
 4522      6365735F 
 4522      7400
 4523              	.LASF128:
 4524 01d0 71776169 		.ascii	"qwait\000"
 4524      7400
 4525              	.LASF113:
 4526 01d6 63684F51 		.ascii	"chOQInit\000"
 4526      496E6974 
 4526      00
 4527              	.LASF5:
 4528 01df 6C6F6E67 		.ascii	"long int\000"
 4528      20696E74 
 4528      00
 4529              	.LASF16:
 4530 01e8 74737461 		.ascii	"tstate_t\000"
 4530      74655F74 
 4530      00
 4531              	.LASF110:
 4532 01f1 63684F51 		.ascii	"chOQGetI\000"
 4532      47657449 
 4532      00
 4533              	.LASF98:
 4534 01fa 715F6275 		.ascii	"q_buffer\000"
 4534      66666572 
 4534      00
 4535              	.LASF9:
 4536 0203 75696E74 		.ascii	"uint16_t\000"
 4536      31365F74 
ARM GAS  /tmp/cc6V3eFT.s 			page 82


 4536      00
 4537              	.LASF93:
 4538 020c 63686465 		.ascii	"chdebug_t\000"
 4538      6275675F 
 4538      7400
 4539              	.LASF28:
 4540 0216 705F6E65 		.ascii	"p_newer\000"
 4540      77657200 
 4541              	.LASF107:
 4542 021e 5F69646C 		.ascii	"_idle_thread_wa\000"
 4542      655F7468 
 4542      72656164 
 4542      5F776100 
 4543              	.LASF60:
 4544 022e 725F6E65 		.ascii	"r_newer\000"
 4544      77657200 
 4545              	.LASF45:
 4546 0236 72656761 		.ascii	"regarm_t\000"
 4546      726D5F74 
 4546      00
 4547              	.LASF51:
 4548 023f 76745F70 		.ascii	"vt_prev\000"
 4548      72657600 
 4549              	.LASF116:
 4550 0247 6C696E6B 		.ascii	"link\000"
 4550      00
 4551              	.LASF3:
 4552 024c 73697A65 		.ascii	"size_t\000"
 4552      5F7400
 4553              	.LASF119:
 4554 0253 63684951 		.ascii	"chIQPutI\000"
 4554      50757449 
 4554      00
 4555              	.LASF0:
 4556 025c 756E7369 		.ascii	"unsigned int\000"
 4556      676E6564 
 4556      20696E74 
 4556      00
 4557              	.LASF50:
 4558 0269 76745F6E 		.ascii	"vt_next\000"
 4558      65787400 
 4559              	.LASF120:
 4560 0271 63684951 		.ascii	"chIQResetI\000"
 4560      52657365 
 4560      744900
 4561              	.LASF12:
 4562 027c 6C6F6E67 		.ascii	"long unsigned int\000"
 4562      20756E73 
 4562      69676E65 
 4562      6420696E 
 4562      7400
 4563              	.LASF94:
 4564 028e 63685F64 		.ascii	"ch_debug\000"
 4564      65627567 
 4564      00
 4565              	.LASF75:
 4566 0297 63685F69 		.ascii	"ch_identifier\000"
ARM GAS  /tmp/cc6V3eFT.s 			page 83


 4566      64656E74 
 4566      69666965 
 4566      7200
 4567              	.LASF47:
 4568 02a5 636F6E74 		.ascii	"context\000"
 4568      65787400 
 4569              	.LASF114:
 4570 02ad 73697A65 		.ascii	"size\000"
 4570      00
 4571              	.LASF10:
 4572 02b2 73686F72 		.ascii	"short unsigned int\000"
 4572      7420756E 
 4572      7369676E 
 4572      65642069 
 4572      6E7400
 4573              	.LASF20:
 4574 02c5 6D73675F 		.ascii	"msg_t\000"
 4574      7400
 4575              	.LASF130:
 4576 02cb 71756575 		.ascii	"queue_insert\000"
 4576      655F696E 
 4576      73657274 
 4576      00
 4577              	.LASF15:
 4578 02d8 746D6F64 		.ascii	"tmode_t\000"
 4578      655F7400 
 4579              	.LASF43:
 4580 02e0 54687265 		.ascii	"ThreadsList\000"
 4580      6164734C 
 4580      69737400 
 4581              	.LASF21:
 4582 02ec 6576656E 		.ascii	"eventmask_t\000"
 4582      746D6173 
 4582      6B5F7400 
 4583              	.LASF105:
 4584 02f8 496E7075 		.ascii	"InputQueue\000"
 4584      74517565 
 4584      756500
 4585              	.LASF66:
 4586 0303 4D757465 		.ascii	"Mutex\000"
 4586      7800
 4587              	.LASF95:
 4588 0309 47656E65 		.ascii	"GenericQueue\000"
 4588      72696351 
 4588      75657565 
 4588      00
 4589              	.LASF44:
 4590 0316 73746B61 		.ascii	"stkalign_t\000"
 4590      6C69676E 
 4590      5F7400
 4591              	.LASF109:
 4592 0321 63684F51 		.ascii	"chOQWriteTimeout\000"
 4592      57726974 
 4592      6554696D 
 4592      656F7574 
 4592      00
 4593              	.LASF76:
ARM GAS  /tmp/cc6V3eFT.s 			page 84


 4594 0332 63685F7A 		.ascii	"ch_zero\000"
 4594      65726F00 
 4595              	.LASF90:
 4596 033a 63665F6F 		.ascii	"cf_off_refs\000"
 4596      66665F72 
 4596      65667300 
 4597              	.LASF52:
 4598 0346 76745F74 		.ascii	"vt_time\000"
 4598      696D6500 
 4599              	.LASF97:
 4600 034e 715F636F 		.ascii	"q_counter\000"
 4600      756E7465 
 4600      7200
 4601              	.LASF53:
 4602 0358 76745F66 		.ascii	"vt_func\000"
 4602      756E6300 
 4603              	.LASF80:
 4604 0360 63685F74 		.ascii	"ch_timesize\000"
 4604      696D6573 
 4604      697A6500 
 4605              	.LASF86:
 4606 036c 63665F6F 		.ascii	"cf_off_name\000"
 4606      66665F6E 
 4606      616D6500 
 4607              	.LASF29:
 4608 0378 705F6F6C 		.ascii	"p_older\000"
 4608      64657200 
 4609              	.LASF100:
 4610 0380 715F7772 		.ascii	"q_wrptr\000"
 4610      70747200 
 4611              	.LASF59:
 4612 0388 725F6374 		.ascii	"r_ctx\000"
 4612      7800
 4613              	.LASF42:
 4614 038e 54687265 		.ascii	"ThreadsQueue\000"
 4614      61647351 
 4614      75657565 
 4614      00
 4615              	.LASF77:
 4616 039b 63685F73 		.ascii	"ch_size\000"
 4616      697A6500 
 4617              	.LASF108:
 4618 03a3 74696D65 		.ascii	"time\000"
 4618      00
 4619              	.LASF62:
 4620 03a8 725F6375 		.ascii	"r_current\000"
 4620      7272656E 
 4620      7400
 4621              	.LASF61:
 4622 03b2 725F6F6C 		.ascii	"r_older\000"
 4622      64657200 
 4623              	.LASF17:
 4624 03ba 74726566 		.ascii	"trefs_t\000"
 4624      735F7400 
 4625              	.LASF79:
 4626 03c2 63685F70 		.ascii	"ch_ptrsize\000"
 4626      74727369 
ARM GAS  /tmp/cc6V3eFT.s 			page 85


 4626      7A6500
 4627              	.LASF104:
 4628 03cd 716E6F74 		.ascii	"qnotify_t\000"
 4628      6966795F 
 4628      7400
 4629              	.LASF25:
 4630 03d7 705F7072 		.ascii	"p_prev\000"
 4630      657600
 4631              	.LASF19:
 4632 03de 74707269 		.ascii	"tprio_t\000"
 4632      6F5F7400 
 4633              	.LASF101:
 4634 03e6 715F7264 		.ascii	"q_rdptr\000"
 4634      70747200 
 4635              	.LASF4:
 4636 03ee 696E7433 		.ascii	"int32_t\000"
 4636      325F7400 
 4637              	.LASF8:
 4638 03f6 756E7369 		.ascii	"unsigned char\000"
 4638      676E6564 
 4638      20636861 
 4638      7200
 4639              	.LASF40:
 4640 0404 705F6D74 		.ascii	"p_mtxlist\000"
 4640      786C6973 
 4640      7400
 4641              	.LASF2:
 4642 040e 73686F72 		.ascii	"short int\000"
 4642      7420696E 
 4642      7400
 4643              	.LASF31:
 4644 0418 705F7374 		.ascii	"p_state\000"
 4644      61746500 
 4645              	.LASF34:
 4646 0420 705F7072 		.ascii	"p_preempt\000"
 4646      65656D70 
 4646      7400
 4647              	.LASF92:
 4648 042a 63665F6F 		.ascii	"cf_off_time\000"
 4648      66665F74 
 4648      696D6500 
 4649              	.LASF58:
 4650 0436 725F7072 		.ascii	"r_prio\000"
 4650      696F00
 4651              	.LASF73:
 4652 043d 65776D61 		.ascii	"ewmask\000"
 4652      736B00
 4653              	.LASF24:
 4654 0444 705F6E65 		.ascii	"p_next\000"
 4654      787400
 4655              	.LASF122:
 4656 044b 696E6679 		.ascii	"infy\000"
 4656      00
 4657              	.LASF91:
 4658 0450 63665F6F 		.ascii	"cf_off_preempt\000"
 4658      66665F70 
 4658      7265656D 
ARM GAS  /tmp/cc6V3eFT.s 			page 86


 4658      707400
 4659              	.LASF32:
 4660 045f 705F666C 		.ascii	"p_flags\000"
 4660      61677300 
 4661              	.LASF23:
 4662 0467 54687265 		.ascii	"Thread\000"
 4662      616400
 4663              	.LASF84:
 4664 046e 63665F6F 		.ascii	"cf_off_newer\000"
 4664      66665F6E 
 4664      65776572 
 4664      00
 4665              	.LASF39:
 4666 047b 705F6570 		.ascii	"p_epending\000"
 4666      656E6469 
 4666      6E6700
 4667              	.LASF11:
 4668 0486 75696E74 		.ascii	"uint32_t\000"
 4668      33325F74 
 4668      00
 4669              	.LASF82:
 4670 048f 63665F6F 		.ascii	"cf_off_prio\000"
 4670      66665F70 
 4670      72696F00 
 4671              	.LASF57:
 4672 049b 725F7175 		.ascii	"r_queue\000"
 4672      65756500 
 4673              	.LASF49:
 4674 04a3 56697274 		.ascii	"VirtualTimer\000"
 4674      75616C54 
 4674      696D6572 
 4674      00
 4675              	.LASF127:
 4676 04b0 2F686F6D 		.ascii	"/home/taskman/arduino/embedded-wind-turbine/Data_Co"
 4676      652F7461 
 4676      736B6D61 
 4676      6E2F6172 
 4676      6475696E 
 4677 04e3 6C6C6563 		.ascii	"llector/raspberry/compiler/ChibiOS-RPi/led\000"
 4677      746F722F 
 4677      72617370 
 4677      62657272 
 4677      792F636F 
 4678              	.LASF74:
 4679 050e 63686172 		.ascii	"char\000"
 4679      00
 4680              	.LASF129:
 4681 0513 6669666F 		.ascii	"fifo_remove\000"
 4681      5F72656D 
 4681      6F766500 
 4682              	.LASF123:
 4683 051f 63685363 		.ascii	"chSchReadyI\000"
 4683      68526561 
 4683      64794900 
 4684              	.LASF69:
 4685 052b 6D5F6E65 		.ascii	"m_next\000"
 4685      787400
ARM GAS  /tmp/cc6V3eFT.s 			page 87


 4686              	.LASF22:
 4687 0532 73797374 		.ascii	"systime_t\000"
 4687      696D655F 
 4687      7400
 4688              	.LASF41:
 4689 053c 705F7265 		.ascii	"p_realprio\000"
 4689      616C7072 
 4689      696F00
 4690              	.LASF48:
 4691 0547 76746675 		.ascii	"vtfunc_t\000"
 4691      6E635F74 
 4691      00
 4692              	.LASF112:
 4693 0550 63684F51 		.ascii	"chOQResetI\000"
 4693      52657365 
 4693      744900
 4694              	.LASF35:
 4695 055b 705F7469 		.ascii	"p_time\000"
 4695      6D6500
 4696              	.LASF46:
 4697 0562 696E7463 		.ascii	"intctx\000"
 4697      747800
 4698              	.LASF37:
 4699 0569 705F6D73 		.ascii	"p_msgqueue\000"
 4699      67717565 
 4699      756500
 4700              	.LASF54:
 4701 0574 76745F70 		.ascii	"vt_par\000"
 4701      617200
 4702              	.LASF83:
 4703 057b 63665F6F 		.ascii	"cf_off_ctx\000"
 4703      66665F63 
 4703      747800
 4704              	.LASF33:
 4705 0586 705F7265 		.ascii	"p_refs\000"
 4705      667300
 4706              	.LASF63:
 4707 058d 52656164 		.ascii	"ReadyList\000"
 4707      794C6973 
 4707      7400
 4708              	.LASF126:
 4709 0597 2E2E2F6F 		.ascii	"../os/kernel/src/chqueues.c\000"
 4709      732F6B65 
 4709      726E656C 
 4709      2F737263 
 4709      2F636871 
 4710              	.LASF102:
 4711 05b3 715F6E6F 		.ascii	"q_notify\000"
 4711      74696679 
 4711      00
 4712              	.LASF65:
 4713 05bc 726C6973 		.ascii	"rlist\000"
 4713      7400
 4714              	.LASF7:
 4715 05c2 75696E74 		.ascii	"uint8_t\000"
 4715      385F7400 
 4716              	.LASF72:
ARM GAS  /tmp/cc6V3eFT.s 			page 88


 4717 05ca 77746F62 		.ascii	"wtobjp\000"
 4717      6A7000
 4718              	.LASF30:
 4719 05d1 705F6E61 		.ascii	"p_name\000"
 4719      6D6500
 4720              	.LASF55:
 4721 05d8 76745F73 		.ascii	"vt_systime\000"
 4721      79737469 
 4721      6D6500
 4722              	.LASF124:
 4723 05e3 63685363 		.ascii	"chSchGoSleepTimeoutS\000"
 4723      68476F53 
 4723      6C656570 
 4723      54696D65 
 4723      6F757453 
 4724              	.LASF78:
 4725 05f8 63685F76 		.ascii	"ch_version\000"
 4725      65727369 
 4725      6F6E00
 4726              	.LASF56:
 4727 0603 56544C69 		.ascii	"VTList\000"
 4727      737400
 4728              	.LASF103:
 4729 060a 715F6C69 		.ascii	"q_link\000"
 4729      6E6B00
 4730              	.LASF68:
 4731 0611 6D5F6F77 		.ascii	"m_owner\000"
 4731      6E657200 
 4732              	.LASF27:
 4733 0619 705F6374 		.ascii	"p_ctx\000"
 4733      7800
 4734              	.LASF36:
 4735 061f 705F7761 		.ascii	"p_waiting\000"
 4735      6974696E 
 4735      6700
 4736              	.LASF118:
 4737 0629 63684951 		.ascii	"chIQGetTimeout\000"
 4737      47657454 
 4737      696D656F 
 4737      757400
 4738              		.ident	"GCC: (15:9-2019-q4-0ubuntu1) 9.2.1 20191025 (release) [ARM/arm-9-branch revision 277599]"
ARM GAS  /tmp/cc6V3eFT.s 			page 89


DEFINED SYMBOLS
                            *ABS*:0000000000000000 chqueues.c
     /tmp/cc6V3eFT.s:16     .text.qwait:0000000000000000 $a
     /tmp/cc6V3eFT.s:22     .text.qwait:0000000000000000 qwait
     /tmp/cc6V3eFT.s:89     .text.qwait:0000000000000038 $d
     /tmp/cc6V3eFT.s:94     .text.chIQInit:0000000000000000 $a
     /tmp/cc6V3eFT.s:100    .text.chIQInit:0000000000000000 chIQInit
     /tmp/cc6V3eFT.s:148    .text.chIQResetI:0000000000000000 $a
     /tmp/cc6V3eFT.s:154    .text.chIQResetI:0000000000000000 chIQResetI
     /tmp/cc6V3eFT.s:233    .text.chIQPutI:0000000000000000 $a
     /tmp/cc6V3eFT.s:239    .text.chIQPutI:0000000000000000 chIQPutI
     /tmp/cc6V3eFT.s:354    .text.chIQGetTimeout:0000000000000000 $a
     /tmp/cc6V3eFT.s:360    .text.chIQGetTimeout:0000000000000000 chIQGetTimeout
     /tmp/cc6V3eFT.s:464    .text.chIQReadTimeout:0000000000000000 $a
     /tmp/cc6V3eFT.s:470    .text.chIQReadTimeout:0000000000000000 chIQReadTimeout
     /tmp/cc6V3eFT.s:615    .text.chOQInit:0000000000000000 $a
     /tmp/cc6V3eFT.s:621    .text.chOQInit:0000000000000000 chOQInit
     /tmp/cc6V3eFT.s:666    .text.chOQResetI:0000000000000000 $a
     /tmp/cc6V3eFT.s:672    .text.chOQResetI:0000000000000000 chOQResetI
     /tmp/cc6V3eFT.s:753    .text.chOQPutTimeout:0000000000000000 $a
     /tmp/cc6V3eFT.s:759    .text.chOQPutTimeout:0000000000000000 chOQPutTimeout
     /tmp/cc6V3eFT.s:880    .text.chOQGetI:0000000000000000 $a
     /tmp/cc6V3eFT.s:886    .text.chOQGetI:0000000000000000 chOQGetI
     /tmp/cc6V3eFT.s:993    .text.chOQWriteTimeout:0000000000000000 $a
     /tmp/cc6V3eFT.s:999    .text.chOQWriteTimeout:0000000000000000 chOQWriteTimeout

UNDEFINED SYMBOLS
chSchGoSleepTimeoutS
rlist
chSchReadyI
