ARM GAS  /tmp/cc6V3eFT.s 			page 1


   1              		.cpu arm1176jz-s
   2              		.eabi_attribute 20, 1
   3              		.eabi_attribute 21, 1
   4              		.eabi_attribute 23, 3
   5              		.eabi_attribute 24, 1
   6              		.eabi_attribute 25, 1
   7              		.eabi_attribute 26, 1
   8              		.eabi_attribute 30, 2
   9              		.eabi_attribute 34, 1
  10              		.eabi_attribute 18, 4
  11              		.file	"chqueues.c"
  12              		.text
  13              	.Ltext0:
  14              		.cfi_sections	.debug_frame
  15              		.section	.text.qwait,"ax",%progbits
  16              		.align	2
  17              		.arch armv6kz
  18              		.syntax unified
  19              		.arm
  20              		.fpu softvfp
  21              		.type	qwait, %function
  22              	qwait:
  23              	.LVL0:
  24              	.LFB7:
  25              		.file 1 "../os/kernel/src/chqueues.c"
  26              		.loc 1 63 54 view -0
  27              		.cfi_startproc
  28              		@ args = 0, pretend = 0, frame = 0
  29              		@ frame_needed = 0, uses_anonymous_args = 0
  30              		@ link register save eliminated.
  31              		.loc 1 65 3 view .LVU1
  32              		.loc 1 65 6 is_stmt 0 view .LVU2
  33 0000 000051E3 		cmp	r1, #0
  34              		.loc 1 63 54 view .LVU3
  35 0004 0030A0E1 		mov	r3, r0
  36              		.loc 1 65 6 view .LVU4
  37 0008 0800000A 		beq	.L2
  38              		.loc 1 67 3 is_stmt 1 view .LVU5
  39 000c 24209FE5 		ldr	r2, .L4
  40              	.LBB12:
  41              	.LBB13:
  42              		.file 2 "../os/kernel/include/chinline.h"
  43              		.loc 2 48 19 is_stmt 0 view .LVU6
  44 0010 04C090E5 		ldr	ip, [r0, #4]
  45              	.LBE13:
  46              	.LBE12:
  47              		.loc 1 67 3 view .LVU7
  48 0014 182092E5 		ldr	r2, [r2, #24]
  49              		.loc 1 69 10 view .LVU8
  50 0018 0D00A0E3 		mov	r0, #13
  51              	.LVL1:
  52              	.LBB16:
  53              	.LBB14:
  54              		.loc 2 48 14 view .LVU9
  55 001c 081082E8 		stm	r2, {r3, ip}
  56              	.LBE14:
  57              	.LBE16:
ARM GAS  /tmp/cc6V3eFT.s 			page 2


  58              		.loc 1 67 21 view .LVU10
  59 0020 243082E5 		str	r3, [r2, #36]
  60              		.loc 1 68 3 is_stmt 1 view .LVU11
  61              	.LVL2:
  62              	.LBB17:
  63              	.LBI12:
  64              		.loc 2 45 20 view .LVU12
  65              	.LBB15:
  66              		.loc 2 47 3 view .LVU13
  67              		.loc 2 49 3 view .LVU14
  68              		.loc 2 49 36 is_stmt 0 view .LVU15
  69 0024 042083E5 		str	r2, [r3, #4]
  70              		.loc 2 49 22 view .LVU16
  71 0028 00208CE5 		str	r2, [ip]
  72              	.LVL3:
  73              		.loc 2 49 22 view .LVU17
  74              	.LBE15:
  75              	.LBE17:
  76              		.loc 1 69 3 is_stmt 1 view .LVU18
  77              		.loc 1 69 10 is_stmt 0 view .LVU19
  78 002c FEFFFFEA 		b	chSchGoSleepTimeoutS
  79              	.LVL4:
  80              	.L2:
  81              		.loc 1 70 1 view .LVU20
  82 0030 0000E0E3 		mvn	r0, #0
  83              	.LVL5:
  84              		.loc 1 70 1 view .LVU21
  85 0034 1EFF2FE1 		bx	lr
  86              	.L5:
  87              		.align	2
  88              	.L4:
  89 0038 00000000 		.word	rlist
  90              		.cfi_endproc
  91              	.LFE7:
  92              		.size	qwait, .-qwait
  93              		.section	.text.chIQInit,"ax",%progbits
  94              		.align	2
  95              		.global	chIQInit
  96              		.syntax unified
  97              		.arm
  98              		.fpu softvfp
  99              		.type	chIQInit, %function
 100              	chIQInit:
 101              	.LVL6:
 102              	.LFB8:
 103              		.loc 1 89 27 is_stmt 1 view -0
 104              		.cfi_startproc
 105              		@ args = 4, pretend = 0, frame = 0
 106              		@ frame_needed = 0, uses_anonymous_args = 0
 107              		.loc 1 91 3 view .LVU23
 108              		.loc 1 89 27 is_stmt 0 view .LVU24
 109 0000 04E02DE5 		str	lr, [sp, #-4]!
 110              		.cfi_def_cfa_offset 4
 111              		.cfi_offset 14, -4
 112              		.loc 1 92 18 view .LVU25
 113 0004 00E0A0E3 		mov	lr, #0
 114              		.loc 1 89 27 view .LVU26
ARM GAS  /tmp/cc6V3eFT.s 			page 3


 115 0008 04C09DE5 		ldr	ip, [sp, #4]
 116              		.loc 1 94 19 view .LVU27
 117 000c 022081E0 		add	r2, r1, r2
 118              	.LVL7:
 119              		.loc 1 91 3 view .LVU28
 120 0010 040080E5 		str	r0, [r0, #4]
 121 0014 000080E5 		str	r0, [r0]
 122              		.loc 1 91 30 is_stmt 1 view .LVU29
 123              		.loc 1 92 3 view .LVU30
 124              		.loc 1 93 47 is_stmt 0 view .LVU31
 125 0018 141080E5 		str	r1, [r0, #20]
 126              		.loc 1 93 32 view .LVU32
 127 001c 181080E5 		str	r1, [r0, #24]
 128              		.loc 1 93 17 view .LVU33
 129 0020 0C1080E5 		str	r1, [r0, #12]
 130              		.loc 1 94 14 view .LVU34
 131 0024 102080E5 		str	r2, [r0, #16]
 132              		.loc 1 95 17 view .LVU35
 133 0028 1C3080E5 		str	r3, [r0, #28]
 134              		.loc 1 92 18 view .LVU36
 135 002c 08E080E5 		str	lr, [r0, #8]
 136              		.loc 1 93 3 is_stmt 1 view .LVU37
 137              		.loc 1 94 3 view .LVU38
 138              		.loc 1 95 3 view .LVU39
 139              		.loc 1 96 3 view .LVU40
 140              		.loc 1 96 15 is_stmt 0 view .LVU41
 141 0030 20C080E5 		str	ip, [r0, #32]
 142              		.loc 1 97 1 view .LVU42
 143 0034 04F09DE4 		ldr	pc, [sp], #4
 144              		.cfi_endproc
 145              	.LFE8:
 146              		.size	chIQInit, .-chIQInit
 147              		.section	.text.chIQResetI,"ax",%progbits
 148              		.align	2
 149              		.global	chIQResetI
 150              		.syntax unified
 151              		.arm
 152              		.fpu softvfp
 153              		.type	chIQResetI, %function
 154              	chIQResetI:
 155              	.LVL8:
 156              	.LFB9:
 157              		.loc 1 110 34 is_stmt 1 view -0
 158              		.cfi_startproc
 159              		@ args = 0, pretend = 0, frame = 0
 160              		@ frame_needed = 0, uses_anonymous_args = 0
 161              		.loc 1 112 3 view .LVU44
 162              		.loc 1 112 21 view .LVU45
 163              		.loc 1 114 3 view .LVU46
 164              		.loc 1 115 18 is_stmt 0 view .LVU47
 165 0000 0010A0E3 		mov	r1, #0
 166              		.loc 1 116 10 view .LVU48
 167 0004 003090E5 		ldr	r3, [r0]
 168              		.loc 1 114 36 view .LVU49
 169 0008 0C2090E5 		ldr	r2, [r0, #12]
 170              		.loc 1 116 9 view .LVU50
 171 000c 030050E1 		cmp	r0, r3
ARM GAS  /tmp/cc6V3eFT.s 			page 4


 172              		.loc 1 115 18 view .LVU51
 173 0010 081080E5 		str	r1, [r0, #8]
 174              		.loc 1 114 31 view .LVU52
 175 0014 142080E5 		str	r2, [r0, #20]
 176              		.loc 1 114 16 view .LVU53
 177 0018 182080E5 		str	r2, [r0, #24]
 178              		.loc 1 115 3 is_stmt 1 view .LVU54
 179              		.loc 1 116 3 view .LVU55
 180              		.loc 1 116 9 view .LVU56
 181 001c 1EFF2F01 		bxeq	lr
 182              		.loc 1 110 34 is_stmt 0 view .LVU57
 183 0020 70402DE9 		push	{r4, r5, r6, lr}
 184              		.cfi_def_cfa_offset 16
 185              		.cfi_offset 4, -16
 186              		.cfi_offset 5, -12
 187              		.cfi_offset 6, -8
 188              		.cfi_offset 14, -4
 189 0024 0040A0E1 		mov	r4, r0
 190              		.loc 1 117 59 view .LVU58
 191 0028 0150E0E3 		mvn	r5, #1
 192              	.LVL9:
 193              	.L10:
 194              		.loc 1 117 5 is_stmt 1 view .LVU59
 195              	.LBB18:
 196              	.LBI18:
 197              		.loc 2 52 23 view .LVU60
 198              	.LBB19:
 199              		.loc 2 53 3 view .LVU61
 200              		.loc 2 55 3 view .LVU62
 201              		.loc 2 55 20 is_stmt 0 view .LVU63
 202 002c 002093E5 		ldr	r2, [r3]
 203              	.LBE19:
 204              	.LBE18:
 205              		.loc 1 117 5 view .LVU64
 206 0030 0300A0E1 		mov	r0, r3
 207              	.LBB21:
 208              	.LBB20:
 209              		.loc 2 55 16 view .LVU65
 210 0034 002084E5 		str	r2, [r4]
 211              		.loc 2 55 38 view .LVU66
 212 0038 044082E5 		str	r4, [r2, #4]
 213              		.loc 2 56 3 is_stmt 1 view .LVU67
 214              	.LVL10:
 215              		.loc 2 56 3 is_stmt 0 view .LVU68
 216              	.LBE20:
 217              	.LBE21:
 218              		.loc 1 117 5 view .LVU69
 219 003c FEFFFFEB 		bl	chSchReadyI
 220              	.LVL11:
 221              		.loc 1 116 10 view .LVU70
 222 0040 003094E5 		ldr	r3, [r4]
 223              		.loc 1 117 59 view .LVU71
 224 0044 245080E5 		str	r5, [r0, #36]
 225              		.loc 1 116 9 is_stmt 1 view .LVU72
 226 0048 040053E1 		cmp	r3, r4
 227 004c F6FFFF1A 		bne	.L10
 228 0050 7080BDE8 		pop	{r4, r5, r6, pc}
ARM GAS  /tmp/cc6V3eFT.s 			page 5


 229              		.cfi_endproc
 230              	.LFE9:
 231              		.size	chIQResetI, .-chIQResetI
 232              		.section	.text.chIQPutI,"ax",%progbits
 233              		.align	2
 234              		.global	chIQPutI
 235              		.syntax unified
 236              		.arm
 237              		.fpu softvfp
 238              		.type	chIQPutI, %function
 239              	chIQPutI:
 240              	.LVL12:
 241              	.LFB10:
 242              		.loc 1 133 44 view -0
 243              		.cfi_startproc
 244              		@ args = 0, pretend = 0, frame = 0
 245              		@ frame_needed = 0, uses_anonymous_args = 0
 246              		.loc 1 135 3 view .LVU74
 247              		.loc 1 135 21 view .LVU75
 248              		.loc 1 137 3 view .LVU76
 249              		.loc 1 133 44 is_stmt 0 view .LVU77
 250 0000 0030A0E1 		mov	r3, r0
 251              		.loc 1 137 7 view .LVU78
 252 0004 140090E5 		ldr	r0, [r0, #20]
 253              	.LVL13:
 254              		.loc 1 137 6 view .LVU79
 255 0008 182093E5 		ldr	r2, [r3, #24]
 256 000c 020050E1 		cmp	r0, r2
 257              		.loc 1 137 7 view .LVU80
 258 0010 082093E5 		ldr	r2, [r3, #8]
 259              		.loc 1 137 6 view .LVU81
 260 0014 1800000A 		beq	.L17
 261              	.L18:
 262              		.loc 1 140 3 is_stmt 1 view .LVU82
 263              		.loc 1 140 17 is_stmt 0 view .LVU83
 264 0018 012082E2 		add	r2, r2, #1
 265              		.loc 1 141 16 view .LVU84
 266 001c 01C080E2 		add	ip, r0, #1
 267 0020 14C083E5 		str	ip, [r3, #20]
 268              		.loc 1 140 17 view .LVU85
 269 0024 082083E5 		str	r2, [r3, #8]
 270              		.loc 1 141 3 is_stmt 1 view .LVU86
 271              		.loc 1 141 19 is_stmt 0 view .LVU87
 272 0028 0010C0E5 		strb	r1, [r0]
 273              		.loc 1 142 3 is_stmt 1 view .LVU88
 274              		.loc 1 142 6 is_stmt 0 view .LVU89
 275 002c 102093E5 		ldr	r2, [r3, #16]
 276 0030 141093E5 		ldr	r1, [r3, #20]
 277              	.LVL14:
 278              		.loc 1 145 7 view .LVU90
 279 0034 000093E5 		ldr	r0, [r3]
 280              	.LVL15:
 281              		.loc 1 142 6 view .LVU91
 282 0038 020051E1 		cmp	r1, r2
 283              		.loc 1 143 5 is_stmt 1 view .LVU92
 284              		.loc 1 143 18 is_stmt 0 view .LVU93
 285 003c 0C209325 		ldrcs	r2, [r3, #12]
ARM GAS  /tmp/cc6V3eFT.s 			page 6


 286 0040 14208325 		strcs	r2, [r3, #20]
 287              	.LVL16:
 288              		.loc 1 145 3 is_stmt 1 view .LVU94
 289              		.loc 1 145 6 is_stmt 0 view .LVU95
 290 0044 030050E1 		cmp	r0, r3
 291 0048 0900000A 		beq	.L22
 292              		.loc 1 146 5 is_stmt 1 view .LVU96
 293              	.LVL17:
 294              	.LBB22:
 295              	.LBI22:
 296              		.loc 2 52 23 view .LVU97
 297              	.LBB23:
 298              		.loc 2 53 3 view .LVU98
 299              		.loc 2 55 3 view .LVU99
 300              		.loc 2 55 20 is_stmt 0 view .LVU100
 301 004c 002090E5 		ldr	r2, [r0]
 302              	.LBE23:
 303              	.LBE22:
 304              		.loc 1 133 44 view .LVU101
 305 0050 10402DE9 		push	{r4, lr}
 306              		.cfi_def_cfa_offset 8
 307              		.cfi_offset 4, -8
 308              		.cfi_offset 14, -4
 309              	.LBB25:
 310              	.LBB24:
 311              		.loc 2 55 16 view .LVU102
 312 0054 002083E5 		str	r2, [r3]
 313              		.loc 2 55 38 view .LVU103
 314 0058 043082E5 		str	r3, [r2, #4]
 315              		.loc 2 56 3 is_stmt 1 view .LVU104
 316              	.LVL18:
 317              		.loc 2 56 3 is_stmt 0 view .LVU105
 318              	.LBE24:
 319              	.LBE25:
 320              		.loc 1 146 5 view .LVU106
 321 005c FEFFFFEB 		bl	chSchReadyI
 322              	.LVL19:
 323              		.loc 1 146 59 view .LVU107
 324 0060 0020A0E3 		mov	r2, #0
 325              		.loc 1 146 5 view .LVU108
 326 0064 0030A0E1 		mov	r3, r0
 327              		.loc 1 148 10 view .LVU109
 328 0068 0200A0E1 		mov	r0, r2
 329              		.loc 1 146 59 view .LVU110
 330 006c 242083E5 		str	r2, [r3, #36]
 331              		.loc 1 149 1 view .LVU111
 332 0070 1080BDE8 		pop	{r4, pc}
 333              	.LVL20:
 334              	.L22:
 335              		.cfi_def_cfa_offset 0
 336              		.cfi_restore 4
 337              		.cfi_restore 14
 338              		.loc 1 148 10 view .LVU112
 339 0074 0000A0E3 		mov	r0, #0
 340              		.loc 1 149 1 view .LVU113
 341 0078 1EFF2FE1 		bx	lr
 342              	.LVL21:
ARM GAS  /tmp/cc6V3eFT.s 			page 7


 343              	.L17:
 344              		.loc 1 137 7 discriminator 1 view .LVU114
 345 007c 000052E3 		cmp	r2, #0
 346 0080 E4FFFF0A 		beq	.L18
 347              		.loc 1 138 12 view .LVU115
 348 0084 0300E0E3 		mvn	r0, #3
 349 0088 1EFF2FE1 		bx	lr
 350              		.cfi_endproc
 351              	.LFE10:
 352              		.size	chIQPutI, .-chIQPutI
 353              		.section	.text.chIQGetTimeout,"ax",%progbits
 354              		.align	2
 355              		.global	chIQGetTimeout
 356              		.syntax unified
 357              		.arm
 358              		.fpu softvfp
 359              		.type	chIQGetTimeout, %function
 360              	chIQGetTimeout:
 361              	.LVL22:
 362              	.LFB11:
 363              		.loc 1 171 55 is_stmt 1 view -0
 364              		.cfi_startproc
 365              		@ args = 0, pretend = 0, frame = 0
 366              		@ frame_needed = 0, uses_anonymous_args = 0
 367              		.loc 1 172 3 view .LVU117
 368              		.loc 1 174 3 view .LVU118
 369              		.loc 1 171 55 is_stmt 0 view .LVU119
 370 0000 70402DE9 		push	{r4, r5, r6, lr}
 371              		.cfi_def_cfa_offset 16
 372              		.cfi_offset 4, -16
 373              		.cfi_offset 5, -12
 374              		.cfi_offset 6, -8
 375              		.cfi_offset 14, -4
 376              		.loc 1 171 55 view .LVU120
 377 0004 0150A0E1 		mov	r5, r1
 378 0008 0040A0E1 		mov	r4, r0
 379              		.loc 1 174 3 view .LVU121
 380              		.syntax divided
 381              	@ 174 "../os/kernel/src/chqueues.c" 1
 382 000c 9FF021E3 		msr     CPSR_c, #0x9F
 383              	@ 0 "" 2
 384              		.loc 1 174 3 is_stmt 1 view .LVU122
 385              		.loc 1 174 14 view .LVU123
 386              		.loc 1 175 3 view .LVU124
 387              		.loc 1 175 10 is_stmt 0 view .LVU125
 388              		.arm
 389              		.syntax unified
 390 0010 1C3090E5 		ldr	r3, [r0, #28]
 391              		.loc 1 175 6 view .LVU126
 392 0014 000053E3 		cmp	r3, #0
 393 0018 0600000A 		beq	.L29
 394              		.loc 1 176 5 is_stmt 1 view .LVU127
 395 001c 33FF2FE1 		blx	r3
 396              	.LVL23:
 397              		.loc 1 176 5 is_stmt 0 view .LVU128
 398 0020 040000EA 		b	.L29
 399              	.L31:
ARM GAS  /tmp/cc6V3eFT.s 			page 8


 400              	.LBB26:
 401              		.loc 1 180 16 view .LVU129
 402 0024 0510A0E1 		mov	r1, r5
 403 0028 0400A0E1 		mov	r0, r4
 404 002c FEFFFFEB 		bl	qwait
 405              	.LVL24:
 406              		.loc 1 180 8 view .LVU130
 407 0030 000050E3 		cmp	r0, #0
 408              		.loc 1 180 8 view .LVU131
 409 0034 0C0000BA 		blt	.L32
 410              	.LVL25:
 411              	.L29:
 412              		.loc 1 179 5 is_stmt 1 view .LVU132
 413              		.loc 1 180 5 view .LVU133
 414              	.LBE26:
 415              		.loc 1 178 9 view .LVU134
 416              		.loc 1 178 10 is_stmt 0 view .LVU135
 417 0038 083094E5 		ldr	r3, [r4, #8]
 418              		.loc 1 178 9 view .LVU136
 419 003c 000053E3 		cmp	r3, #0
 420 0040 F7FFFF0A 		beq	.L31
 421              		.loc 1 186 3 is_stmt 1 view .LVU137
 422              		.loc 1 187 11 is_stmt 0 view .LVU138
 423 0044 182094E5 		ldr	r2, [r4, #24]
 424              		.loc 1 188 6 view .LVU139
 425 0048 100094E5 		ldr	r0, [r4, #16]
 426              		.loc 1 187 20 view .LVU140
 427 004c 011082E2 		add	r1, r2, #1
 428              		.loc 1 186 17 view .LVU141
 429 0050 013043E2 		sub	r3, r3, #1
 430              		.loc 1 188 6 view .LVU142
 431 0054 000051E1 		cmp	r1, r0
 432              		.loc 1 186 17 view .LVU143
 433 0058 083084E5 		str	r3, [r4, #8]
 434              		.loc 1 187 3 is_stmt 1 view .LVU144
 435              		.loc 1 189 18 is_stmt 0 view .LVU145
 436 005c 0C309425 		ldrcs	r3, [r4, #12]
 437              		.loc 1 187 20 view .LVU146
 438 0060 181084E5 		str	r1, [r4, #24]
 439              		.loc 1 187 5 view .LVU147
 440 0064 0000D2E5 		ldrb	r0, [r2]	@ zero_extendqisi2
 441              	.LVL26:
 442              		.loc 1 188 3 is_stmt 1 view .LVU148
 443              		.loc 1 189 5 view .LVU149
 444              		.loc 1 189 18 is_stmt 0 view .LVU150
 445 0068 18308425 		strcs	r3, [r4, #24]
 446              	.LVL27:
 447              	.L32:
 448              		.loc 1 191 3 is_stmt 1 view .LVU151
 449              		.loc 1 191 3 view .LVU152
 450              		.syntax divided
 451              	@ 191 "../os/kernel/src/chqueues.c" 1
 452 006c 1FF021E3 		msr     CPSR_c, #0x1F
 453              	@ 0 "" 2
 454              		.loc 1 191 16 view .LVU153
 455              		.loc 1 192 3 view .LVU154
 456              		.loc 1 193 1 is_stmt 0 view .LVU155
ARM GAS  /tmp/cc6V3eFT.s 			page 9


 457              		.arm
 458              		.syntax unified
 459 0070 7080BDE8 		pop	{r4, r5, r6, pc}
 460              		.cfi_endproc
 461              	.LFE11:
 462              		.size	chIQGetTimeout, .-chIQGetTimeout
 463              		.section	.text.chIQReadTimeout,"ax",%progbits
 464              		.align	2
 465              		.global	chIQReadTimeout
 466              		.syntax unified
 467              		.arm
 468              		.fpu softvfp
 469              		.type	chIQReadTimeout, %function
 470              	chIQReadTimeout:
 471              	.LVL28:
 472              	.LFB12:
 473              		.loc 1 220 50 is_stmt 1 view -0
 474              		.cfi_startproc
 475              		@ args = 0, pretend = 0, frame = 0
 476              		@ frame_needed = 0, uses_anonymous_args = 0
 477              		.loc 1 221 3 view .LVU157
 478              		.loc 1 220 50 is_stmt 0 view .LVU158
 479 0000 F0472DE9 		push	{r4, r5, r6, r7, r8, r9, r10, lr}
 480              		.cfi_def_cfa_offset 32
 481              		.cfi_offset 4, -32
 482              		.cfi_offset 5, -28
 483              		.cfi_offset 6, -24
 484              		.cfi_offset 7, -20
 485              		.cfi_offset 8, -16
 486              		.cfi_offset 9, -12
 487              		.cfi_offset 10, -8
 488              		.cfi_offset 14, -4
 489              		.loc 1 220 50 view .LVU159
 490 0004 0040A0E1 		mov	r4, r0
 491 0008 0170A0E1 		mov	r7, r1
 492 000c 0290A0E1 		mov	r9, r2
 493 0010 0350A0E1 		mov	r5, r3
 494              		.loc 1 221 13 view .LVU160
 495 0014 1C8090E5 		ldr	r8, [r0, #28]
 496              	.LVL29:
 497              		.loc 1 222 3 is_stmt 1 view .LVU161
 498              		.loc 1 224 3 view .LVU162
 499              		.loc 1 224 39 view .LVU163
 500              		.loc 1 226 3 view .LVU164
 501              		.syntax divided
 502              	@ 226 "../os/kernel/src/chqueues.c" 1
 503 0018 9FF021E3 		msr     CPSR_c, #0x9F
 504              	@ 0 "" 2
 505              		.loc 1 222 10 is_stmt 0 view .LVU165
 506              		.arm
 507              		.syntax unified
 508 001c 0060A0E3 		mov	r6, #0
 509              	.LVL30:
 510              	.L44:
 511              		.loc 1 226 3 is_stmt 1 discriminator 1 view .LVU166
 512              		.loc 1 226 14 discriminator 1 view .LVU167
 513              		.loc 1 227 3 discriminator 1 view .LVU168
ARM GAS  /tmp/cc6V3eFT.s 			page 10


 514              		.loc 1 228 5 discriminator 1 view .LVU169
 515              		.loc 1 228 8 is_stmt 0 discriminator 1 view .LVU170
 516 0020 000058E3 		cmp	r8, #0
 517 0024 0700000A 		beq	.L40
 518              		.loc 1 229 7 is_stmt 1 view .LVU171
 519 0028 0400A0E1 		mov	r0, r4
 520 002c 38FF2FE1 		blx	r8
 521              	.LVL31:
 522 0030 040000EA 		b	.L40
 523              	.L42:
 524              		.loc 1 232 11 is_stmt 0 view .LVU172
 525 0034 0510A0E1 		mov	r1, r5
 526 0038 0400A0E1 		mov	r0, r4
 527 003c FEFFFFEB 		bl	qwait
 528              	.LVL32:
 529              		.loc 1 232 10 view .LVU173
 530 0040 000050E3 		cmp	r0, #0
 531 0044 1400001A 		bne	.L51
 532              	.L40:
 533              		.loc 1 232 7 is_stmt 1 view .LVU174
 534              		.loc 1 231 11 view .LVU175
 535              		.loc 1 231 12 is_stmt 0 view .LVU176
 536 0048 080094E5 		ldr	r0, [r4, #8]
 537              		.loc 1 231 11 view .LVU177
 538 004c 000050E3 		cmp	r0, #0
 539 0050 F7FFFF0A 		beq	.L42
 540              		.loc 1 238 5 is_stmt 1 view .LVU178
 541              		.loc 1 239 17 is_stmt 0 view .LVU179
 542 0054 183094E5 		ldr	r3, [r4, #24]
 543              		.loc 1 238 19 view .LVU180
 544 0058 010040E2 		sub	r0, r0, #1
 545              		.loc 1 239 26 view .LVU181
 546 005c 012083E2 		add	r2, r3, #1
 547 0060 182084E5 		str	r2, [r4, #24]
 548              		.loc 1 238 19 view .LVU182
 549 0064 080084E5 		str	r0, [r4, #8]
 550              		.loc 1 239 5 is_stmt 1 view .LVU183
 551              	.LVL33:
 552              		.loc 1 239 13 is_stmt 0 view .LVU184
 553 0068 0030D3E5 		ldrb	r3, [r3]	@ zero_extendqisi2
 554              		.loc 1 239 11 view .LVU185
 555 006c 0130C7E4 		strb	r3, [r7], #1
 556              	.LVL34:
 557              		.loc 1 240 5 is_stmt 1 view .LVU186
 558              		.loc 1 240 8 is_stmt 0 view .LVU187
 559 0070 103094E5 		ldr	r3, [r4, #16]
 560 0074 182094E5 		ldr	r2, [r4, #24]
 561 0078 030052E1 		cmp	r2, r3
 562              		.loc 1 241 7 is_stmt 1 view .LVU188
 563              		.loc 1 241 20 is_stmt 0 view .LVU189
 564 007c 0C309425 		ldrcs	r3, [r4, #12]
 565 0080 18308425 		strcs	r3, [r4, #24]
 566              		.loc 1 243 5 is_stmt 1 view .LVU190
 567              		.loc 1 243 5 view .LVU191
 568              		.syntax divided
 569              	@ 243 "../os/kernel/src/chqueues.c" 1
 570 0084 1FF021E3 		msr     CPSR_c, #0x1F
ARM GAS  /tmp/cc6V3eFT.s 			page 11


 571              	@ 0 "" 2
 572              		.loc 1 243 18 view .LVU192
 573              		.loc 1 244 5 view .LVU193
 574              		.loc 1 244 6 is_stmt 0 view .LVU194
 575              		.arm
 576              		.syntax unified
 577 0088 016086E2 		add	r6, r6, #1
 578              	.LVL35:
 579              		.loc 1 245 5 is_stmt 1 view .LVU195
 580              		.loc 1 245 8 is_stmt 0 view .LVU196
 581 008c 060059E1 		cmp	r9, r6
 582 0090 0200000A 		beq	.L38
 583              		.loc 1 248 5 is_stmt 1 view .LVU197
 584              		.syntax divided
 585              	@ 248 "../os/kernel/src/chqueues.c" 1
 586 0094 9FF021E3 		msr     CPSR_c, #0x9F
 587              	@ 0 "" 2
 588              		.loc 1 248 5 view .LVU198
 589              		.loc 1 248 16 view .LVU199
 590              		.loc 1 227 9 view .LVU200
 591              		.loc 1 228 8 is_stmt 0 view .LVU201
 592              		.arm
 593              		.syntax unified
 594 0098 E0FFFFEA 		b	.L44
 595              	.LVL36:
 596              	.L51:
 597              		.loc 1 233 9 is_stmt 1 view .LVU202
 598              		.loc 1 233 9 view .LVU203
 599              		.syntax divided
 600              	@ 233 "../os/kernel/src/chqueues.c" 1
 601 009c 1FF021E3 		msr     CPSR_c, #0x1F
 602              	@ 0 "" 2
 603              		.loc 1 233 22 view .LVU204
 604              		.loc 1 234 9 view .LVU205
 605              		.arm
 606              		.syntax unified
 607              	.L38:
 608              		.loc 1 250 1 is_stmt 0 view .LVU206
 609 00a0 0600A0E1 		mov	r0, r6
 610 00a4 F087BDE8 		pop	{r4, r5, r6, r7, r8, r9, r10, pc}
 611              		.cfi_endproc
 612              	.LFE12:
 613              		.size	chIQReadTimeout, .-chIQReadTimeout
 614              		.section	.text.chOQInit,"ax",%progbits
 615              		.align	2
 616              		.global	chOQInit
 617              		.syntax unified
 618              		.arm
 619              		.fpu softvfp
 620              		.type	chOQInit, %function
 621              	chOQInit:
 622              	.LVL37:
 623              	.LFB13:
 624              		.loc 1 269 27 is_stmt 1 view -0
 625              		.cfi_startproc
 626              		@ args = 4, pretend = 0, frame = 0
 627              		@ frame_needed = 0, uses_anonymous_args = 0
ARM GAS  /tmp/cc6V3eFT.s 			page 12


 628              		.loc 1 271 3 view .LVU208
 629              		.loc 1 269 27 is_stmt 0 view .LVU209
 630 0000 04E02DE5 		str	lr, [sp, #-4]!
 631              		.cfi_def_cfa_offset 4
 632              		.cfi_offset 14, -4
 633              		.loc 1 269 27 view .LVU210
 634 0004 04C09DE5 		ldr	ip, [sp, #4]
 635              		.loc 1 274 19 view .LVU211
 636 0008 02E081E0 		add	lr, r1, r2
 637              		.loc 1 271 3 view .LVU212
 638 000c 040080E5 		str	r0, [r0, #4]
 639 0010 000080E5 		str	r0, [r0]
 640              		.loc 1 271 30 is_stmt 1 view .LVU213
 641              		.loc 1 272 3 view .LVU214
 642              		.loc 1 272 18 is_stmt 0 view .LVU215
 643 0014 082080E5 		str	r2, [r0, #8]
 644              		.loc 1 273 3 is_stmt 1 view .LVU216
 645              		.loc 1 274 14 is_stmt 0 view .LVU217
 646 0018 10E080E5 		str	lr, [r0, #16]
 647              		.loc 1 273 47 view .LVU218
 648 001c 141080E5 		str	r1, [r0, #20]
 649              		.loc 1 273 32 view .LVU219
 650 0020 181080E5 		str	r1, [r0, #24]
 651              		.loc 1 273 17 view .LVU220
 652 0024 0C1080E5 		str	r1, [r0, #12]
 653              		.loc 1 274 3 is_stmt 1 view .LVU221
 654              		.loc 1 275 3 view .LVU222
 655              		.loc 1 275 17 is_stmt 0 view .LVU223
 656 0028 1C3080E5 		str	r3, [r0, #28]
 657              		.loc 1 276 3 is_stmt 1 view .LVU224
 658              		.loc 1 276 15 is_stmt 0 view .LVU225
 659 002c 20C080E5 		str	ip, [r0, #32]
 660              		.loc 1 277 1 view .LVU226
 661 0030 04F09DE4 		ldr	pc, [sp], #4
 662              		.cfi_endproc
 663              	.LFE13:
 664              		.size	chOQInit, .-chOQInit
 665              		.section	.text.chOQResetI,"ax",%progbits
 666              		.align	2
 667              		.global	chOQResetI
 668              		.syntax unified
 669              		.arm
 670              		.fpu softvfp
 671              		.type	chOQResetI, %function
 672              	chOQResetI:
 673              	.LVL38:
 674              	.LFB14:
 675              		.loc 1 290 35 is_stmt 1 view -0
 676              		.cfi_startproc
 677              		@ args = 0, pretend = 0, frame = 0
 678              		@ frame_needed = 0, uses_anonymous_args = 0
 679              		.loc 1 292 3 view .LVU228
 680              		.loc 1 292 21 view .LVU229
 681              		.loc 1 294 3 view .LVU230
 682              		.loc 1 294 36 is_stmt 0 view .LVU231
 683 0000 0C1090E5 		ldr	r1, [r0, #12]
 684              		.loc 1 295 20 view .LVU232
ARM GAS  /tmp/cc6V3eFT.s 			page 13


 685 0004 102090E5 		ldr	r2, [r0, #16]
 686              		.loc 1 296 10 view .LVU233
 687 0008 003090E5 		ldr	r3, [r0]
 688              		.loc 1 295 20 view .LVU234
 689 000c 012042E0 		sub	r2, r2, r1
 690              		.loc 1 296 9 view .LVU235
 691 0010 030050E1 		cmp	r0, r3
 692              		.loc 1 294 31 view .LVU236
 693 0014 141080E5 		str	r1, [r0, #20]
 694              		.loc 1 294 16 view .LVU237
 695 0018 181080E5 		str	r1, [r0, #24]
 696              		.loc 1 295 3 is_stmt 1 view .LVU238
 697              		.loc 1 295 18 is_stmt 0 view .LVU239
 698 001c 082080E5 		str	r2, [r0, #8]
 699              		.loc 1 296 3 is_stmt 1 view .LVU240
 700              		.loc 1 296 9 view .LVU241
 701 0020 1EFF2F01 		bxeq	lr
 702              		.loc 1 290 35 is_stmt 0 view .LVU242
 703 0024 70402DE9 		push	{r4, r5, r6, lr}
 704              		.cfi_def_cfa_offset 16
 705              		.cfi_offset 4, -16
 706              		.cfi_offset 5, -12
 707              		.cfi_offset 6, -8
 708              		.cfi_offset 14, -4
 709 0028 0040A0E1 		mov	r4, r0
 710              		.loc 1 297 59 view .LVU243
 711 002c 0150E0E3 		mvn	r5, #1
 712              	.LVL39:
 713              	.L56:
 714              		.loc 1 297 5 is_stmt 1 view .LVU244
 715              	.LBB27:
 716              	.LBI27:
 717              		.loc 2 52 23 view .LVU245
 718              	.LBB28:
 719              		.loc 2 53 3 view .LVU246
 720              		.loc 2 55 3 view .LVU247
 721              		.loc 2 55 20 is_stmt 0 view .LVU248
 722 0030 002093E5 		ldr	r2, [r3]
 723              	.LBE28:
 724              	.LBE27:
 725              		.loc 1 297 5 view .LVU249
 726 0034 0300A0E1 		mov	r0, r3
 727              	.LBB30:
 728              	.LBB29:
 729              		.loc 2 55 16 view .LVU250
 730 0038 002084E5 		str	r2, [r4]
 731              		.loc 2 55 38 view .LVU251
 732 003c 044082E5 		str	r4, [r2, #4]
 733              		.loc 2 56 3 is_stmt 1 view .LVU252
 734              	.LVL40:
 735              		.loc 2 56 3 is_stmt 0 view .LVU253
 736              	.LBE29:
 737              	.LBE30:
 738              		.loc 1 297 5 view .LVU254
 739 0040 FEFFFFEB 		bl	chSchReadyI
 740              	.LVL41:
 741              		.loc 1 296 10 view .LVU255
ARM GAS  /tmp/cc6V3eFT.s 			page 14


 742 0044 003094E5 		ldr	r3, [r4]
 743              		.loc 1 297 59 view .LVU256
 744 0048 245080E5 		str	r5, [r0, #36]
 745              		.loc 1 296 9 is_stmt 1 view .LVU257
 746 004c 040053E1 		cmp	r3, r4
 747 0050 F6FFFF1A 		bne	.L56
 748 0054 7080BDE8 		pop	{r4, r5, r6, pc}
 749              		.cfi_endproc
 750              	.LFE14:
 751              		.size	chOQResetI, .-chOQResetI
 752              		.section	.text.chOQPutTimeout,"ax",%progbits
 753              		.align	2
 754              		.global	chOQPutTimeout
 755              		.syntax unified
 756              		.arm
 757              		.fpu softvfp
 758              		.type	chOQPutTimeout, %function
 759              	chOQPutTimeout:
 760              	.LVL42:
 761              	.LFB15:
 762              		.loc 1 322 67 view -0
 763              		.cfi_startproc
 764              		@ args = 0, pretend = 0, frame = 0
 765              		@ frame_needed = 0, uses_anonymous_args = 0
 766              		.loc 1 324 3 view .LVU259
 767              		.loc 1 322 67 is_stmt 0 view .LVU260
 768 0000 70402DE9 		push	{r4, r5, r6, lr}
 769              		.cfi_def_cfa_offset 16
 770              		.cfi_offset 4, -16
 771              		.cfi_offset 5, -12
 772              		.cfi_offset 6, -8
 773              		.cfi_offset 14, -4
 774              		.loc 1 322 67 view .LVU261
 775 0004 0040A0E1 		mov	r4, r0
 776 0008 0160A0E1 		mov	r6, r1
 777 000c 0250A0E1 		mov	r5, r2
 778              		.loc 1 324 3 view .LVU262
 779              		.syntax divided
 780              	@ 324 "../os/kernel/src/chqueues.c" 1
 781 0010 9FF021E3 		msr     CPSR_c, #0x9F
 782              	@ 0 "" 2
 783              		.loc 1 324 3 is_stmt 1 view .LVU263
 784              		.loc 1 324 14 view .LVU264
 785              		.loc 1 325 3 view .LVU265
 786              		.loc 1 325 9 is_stmt 0 view .LVU266
 787              		.arm
 788              		.syntax unified
 789 0014 040000EA 		b	.L63
 790              	.LVL43:
 791              	.L65:
 792              	.LBB31:
 793              		.loc 1 328 16 view .LVU267
 794 0018 0510A0E1 		mov	r1, r5
 795 001c 0400A0E1 		mov	r0, r4
 796 0020 FEFFFFEB 		bl	qwait
 797              	.LVL44:
 798              		.loc 1 328 8 view .LVU268
ARM GAS  /tmp/cc6V3eFT.s 			page 15


 799 0024 000050E3 		cmp	r0, #0
 800              		.loc 1 328 8 view .LVU269
 801 0028 150000BA 		blt	.L73
 802              	.LVL45:
 803              	.L63:
 804              		.loc 1 326 5 is_stmt 1 view .LVU270
 805              		.loc 1 328 5 view .LVU271
 806              	.LBE31:
 807              		.loc 1 325 9 view .LVU272
 808              		.loc 1 325 10 is_stmt 0 view .LVU273
 809 002c 083094E5 		ldr	r3, [r4, #8]
 810              		.loc 1 325 9 view .LVU274
 811 0030 000053E3 		cmp	r3, #0
 812 0034 F7FFFF0A 		beq	.L65
 813              		.loc 1 334 3 is_stmt 1 view .LVU275
 814              		.loc 1 335 7 is_stmt 0 view .LVU276
 815 0038 142094E5 		ldr	r2, [r4, #20]
 816              		.loc 1 334 17 view .LVU277
 817 003c 013043E2 		sub	r3, r3, #1
 818              		.loc 1 335 16 view .LVU278
 819 0040 011082E2 		add	r1, r2, #1
 820 0044 141084E5 		str	r1, [r4, #20]
 821              		.loc 1 334 17 view .LVU279
 822 0048 083084E5 		str	r3, [r4, #8]
 823              		.loc 1 335 3 is_stmt 1 view .LVU280
 824              		.loc 1 335 19 is_stmt 0 view .LVU281
 825 004c 0060C2E5 		strb	r6, [r2]
 826              		.loc 1 336 3 is_stmt 1 view .LVU282
 827              		.loc 1 336 6 is_stmt 0 view .LVU283
 828 0050 103094E5 		ldr	r3, [r4, #16]
 829 0054 142094E5 		ldr	r2, [r4, #20]
 830 0058 030052E1 		cmp	r2, r3
 831              		.loc 1 337 5 is_stmt 1 view .LVU284
 832              		.loc 1 337 18 is_stmt 0 view .LVU285
 833 005c 0C309425 		ldrcs	r3, [r4, #12]
 834 0060 14308425 		strcs	r3, [r4, #20]
 835              		.loc 1 339 3 is_stmt 1 view .LVU286
 836              		.loc 1 339 10 is_stmt 0 view .LVU287
 837 0064 1C3094E5 		ldr	r3, [r4, #28]
 838              		.loc 1 339 6 view .LVU288
 839 0068 000053E3 		cmp	r3, #0
 840 006c 0100000A 		beq	.L67
 841              		.loc 1 340 5 is_stmt 1 view .LVU289
 842 0070 0400A0E1 		mov	r0, r4
 843 0074 33FF2FE1 		blx	r3
 844              	.LVL46:
 845              	.L67:
 846              		.loc 1 342 3 view .LVU290
 847              		.loc 1 342 3 view .LVU291
 848              		.syntax divided
 849              	@ 342 "../os/kernel/src/chqueues.c" 1
 850 0078 1FF021E3 		msr     CPSR_c, #0x1F
 851              	@ 0 "" 2
 852              		.loc 1 342 16 view .LVU292
 853              		.loc 1 343 3 view .LVU293
 854              		.loc 1 343 10 is_stmt 0 view .LVU294
 855              		.arm
ARM GAS  /tmp/cc6V3eFT.s 			page 16


 856              		.syntax unified
 857 007c 0000A0E3 		mov	r0, #0
 858              		.loc 1 344 1 view .LVU295
 859 0080 7080BDE8 		pop	{r4, r5, r6, pc}
 860              	.LVL47:
 861              	.L73:
 862              	.LBB32:
 863              		.loc 1 329 7 is_stmt 1 view .LVU296
 864              		.loc 1 329 7 view .LVU297
 865              		.syntax divided
 866              	@ 329 "../os/kernel/src/chqueues.c" 1
 867 0084 1FF021E3 		msr     CPSR_c, #0x1F
 868              	@ 0 "" 2
 869              		.loc 1 329 20 view .LVU298
 870              		.loc 1 330 7 view .LVU299
 871              		.loc 1 330 14 is_stmt 0 view .LVU300
 872              		.arm
 873              		.syntax unified
 874 0088 7080BDE8 		pop	{r4, r5, r6, pc}
 875              	.LBE32:
 876              		.cfi_endproc
 877              	.LFE15:
 878              		.size	chOQPutTimeout, .-chOQPutTimeout
 879              		.section	.text.chOQGetI,"ax",%progbits
 880              		.align	2
 881              		.global	chOQGetI
 882              		.syntax unified
 883              		.arm
 884              		.fpu softvfp
 885              		.type	chOQGetI, %function
 886              	chOQGetI:
 887              	.LVL48:
 888              	.LFB16:
 889              		.loc 1 356 34 is_stmt 1 view -0
 890              		.cfi_startproc
 891              		@ args = 0, pretend = 0, frame = 0
 892              		@ frame_needed = 0, uses_anonymous_args = 0
 893              		.loc 1 357 3 view .LVU302
 894              		.loc 1 359 3 view .LVU303
 895              		.loc 1 359 21 view .LVU304
 896              		.loc 1 361 3 view .LVU305
 897              		.loc 1 361 6 is_stmt 0 view .LVU306
 898 0000 142090E5 		ldr	r2, [r0, #20]
 899              		.loc 1 361 7 view .LVU307
 900 0004 181090E5 		ldr	r1, [r0, #24]
 901              		.loc 1 356 34 view .LVU308
 902 0008 0030A0E1 		mov	r3, r0
 903              		.loc 1 361 6 view .LVU309
 904 000c 010052E1 		cmp	r2, r1
 905              		.loc 1 361 7 view .LVU310
 906 0010 082090E5 		ldr	r2, [r0, #8]
 907              		.loc 1 361 6 view .LVU311
 908 0014 1400000A 		beq	.L75
 909              	.L76:
 910              		.loc 1 364 3 is_stmt 1 view .LVU312
 911              		.loc 1 356 34 is_stmt 0 view .LVU313
 912 0018 10402DE9 		push	{r4, lr}
ARM GAS  /tmp/cc6V3eFT.s 			page 17


 913              		.cfi_def_cfa_offset 8
 914              		.cfi_offset 4, -8
 915              		.cfi_offset 14, -4
 916              		.loc 1 366 6 view .LVU314
 917 001c 10C093E5 		ldr	ip, [r3, #16]
 918              		.loc 1 365 20 view .LVU315
 919 0020 010081E2 		add	r0, r1, #1
 920              	.LVL49:
 921              		.loc 1 366 6 view .LVU316
 922 0024 0C0050E1 		cmp	r0, ip
 923              		.loc 1 364 17 view .LVU317
 924 0028 012082E2 		add	r2, r2, #1
 925              		.loc 1 365 20 view .LVU318
 926 002c 180083E5 		str	r0, [r3, #24]
 927              		.loc 1 364 17 view .LVU319
 928 0030 082083E5 		str	r2, [r3, #8]
 929              		.loc 1 365 3 is_stmt 1 view .LVU320
 930              		.loc 1 369 7 is_stmt 0 view .LVU321
 931 0034 000093E5 		ldr	r0, [r3]
 932              		.loc 1 367 18 view .LVU322
 933 0038 0C209325 		ldrcs	r2, [r3, #12]
 934              		.loc 1 365 5 view .LVU323
 935 003c 0040D1E5 		ldrb	r4, [r1]	@ zero_extendqisi2
 936              	.LVL50:
 937              		.loc 1 366 3 is_stmt 1 view .LVU324
 938              		.loc 1 367 5 view .LVU325
 939              		.loc 1 367 18 is_stmt 0 view .LVU326
 940 0040 18208325 		strcs	r2, [r3, #24]
 941              		.loc 1 369 3 is_stmt 1 view .LVU327
 942              		.loc 1 369 6 is_stmt 0 view .LVU328
 943 0044 030050E1 		cmp	r0, r3
 944 0048 0500000A 		beq	.L79
 945              		.loc 1 370 5 is_stmt 1 view .LVU329
 946              	.LVL51:
 947              	.LBB33:
 948              	.LBI33:
 949              		.loc 2 52 23 view .LVU330
 950              	.LBB34:
 951              		.loc 2 53 3 view .LVU331
 952              		.loc 2 55 3 view .LVU332
 953              		.loc 2 55 20 is_stmt 0 view .LVU333
 954 004c 002090E5 		ldr	r2, [r0]
 955              		.loc 2 55 16 view .LVU334
 956 0050 002083E5 		str	r2, [r3]
 957              		.loc 2 55 38 view .LVU335
 958 0054 043082E5 		str	r3, [r2, #4]
 959              		.loc 2 56 3 is_stmt 1 view .LVU336
 960              	.LVL52:
 961              		.loc 2 56 3 is_stmt 0 view .LVU337
 962              	.LBE34:
 963              	.LBE33:
 964              		.loc 1 370 5 view .LVU338
 965 0058 FEFFFFEB 		bl	chSchReadyI
 966              	.LVL53:
 967              		.loc 1 370 59 view .LVU339
 968 005c 0030A0E3 		mov	r3, #0
 969 0060 243080E5 		str	r3, [r0, #36]
ARM GAS  /tmp/cc6V3eFT.s 			page 18


 970              	.L79:
 971              		.loc 1 372 3 is_stmt 1 view .LVU340
 972              		.loc 1 372 10 is_stmt 0 view .LVU341
 973 0064 0400A0E1 		mov	r0, r4
 974              		.loc 1 373 1 view .LVU342
 975 0068 1080BDE8 		pop	{r4, pc}
 976              	.LVL54:
 977              	.L75:
 978              		.cfi_def_cfa_offset 0
 979              		.cfi_restore 4
 980              		.cfi_restore 14
 981              		.loc 1 361 7 discriminator 1 view .LVU343
 982 006c 000052E3 		cmp	r2, #0
 983 0070 E8FFFF0A 		beq	.L76
 984              		.loc 1 362 12 view .LVU344
 985 0074 0200E0E3 		mvn	r0, #2
 986              	.LVL55:
 987              		.loc 1 373 1 view .LVU345
 988 0078 1EFF2FE1 		bx	lr
 989              		.cfi_endproc
 990              	.LFE16:
 991              		.size	chOQGetI, .-chOQGetI
 992              		.section	.text.chOQWriteTimeout,"ax",%progbits
 993              		.align	2
 994              		.global	chOQWriteTimeout
 995              		.syntax unified
 996              		.arm
 997              		.fpu softvfp
 998              		.type	chOQWriteTimeout, %function
 999              	chOQWriteTimeout:
 1000              	.LVL56:
 1001              	.LFB17:
 1002              		.loc 1 400 51 is_stmt 1 view -0
 1003              		.cfi_startproc
 1004              		@ args = 0, pretend = 0, frame = 0
 1005              		@ frame_needed = 0, uses_anonymous_args = 0
 1006              		.loc 1 401 3 view .LVU347
 1007              		.loc 1 400 51 is_stmt 0 view .LVU348
 1008 0000 F0472DE9 		push	{r4, r5, r6, r7, r8, r9, r10, lr}
 1009              		.cfi_def_cfa_offset 32
 1010              		.cfi_offset 4, -32
 1011              		.cfi_offset 5, -28
 1012              		.cfi_offset 6, -24
 1013              		.cfi_offset 7, -20
 1014              		.cfi_offset 8, -16
 1015              		.cfi_offset 9, -12
 1016              		.cfi_offset 10, -8
 1017              		.cfi_offset 14, -4
 1018              		.loc 1 400 51 view .LVU349
 1019 0004 0040A0E1 		mov	r4, r0
 1020 0008 0150A0E1 		mov	r5, r1
 1021 000c 0260A0E1 		mov	r6, r2
 1022 0010 0390A0E1 		mov	r9, r3
 1023              		.loc 1 401 13 view .LVU350
 1024 0014 1C8090E5 		ldr	r8, [r0, #28]
 1025              	.LVL57:
 1026              		.loc 1 402 3 is_stmt 1 view .LVU351
ARM GAS  /tmp/cc6V3eFT.s 			page 19


 1027              		.loc 1 404 3 view .LVU352
 1028              		.loc 1 404 40 view .LVU353
 1029              		.loc 1 406 3 view .LVU354
 1030              		.syntax divided
 1031              	@ 406 "../os/kernel/src/chqueues.c" 1
 1032 0018 9FF021E3 		msr     CPSR_c, #0x9F
 1033              	@ 0 "" 2
 1034              		.loc 1 402 10 is_stmt 0 view .LVU355
 1035              		.arm
 1036              		.syntax unified
 1037 001c 0070A0E3 		mov	r7, #0
 1038              	.LVL58:
 1039              	.L85:
 1040              		.loc 1 408 11 is_stmt 1 view .LVU356
 1041              		.loc 1 414 5 view .LVU357
 1042              		.loc 1 419 5 view .LVU358
 1043              		.loc 1 420 7 view .LVU359
 1044              		.loc 1 408 12 is_stmt 0 view .LVU360
 1045 0020 080094E5 		ldr	r0, [r4, #8]
 1046              		.loc 1 408 11 view .LVU361
 1047 0024 000050E3 		cmp	r0, #0
 1048              		.loc 1 414 19 view .LVU362
 1049 0028 013040E2 		sub	r3, r0, #1
 1050              		.loc 1 408 11 view .LVU363
 1051 002c 1700000A 		beq	.L88
 1052              	.L101:
 1053              		.loc 1 417 7 is_stmt 1 view .LVU364
 1054              		.loc 1 415 9 is_stmt 0 view .LVU365
 1055 0030 142094E5 		ldr	r2, [r4, #20]
 1056              		.loc 1 414 19 view .LVU366
 1057 0034 083084E5 		str	r3, [r4, #8]
 1058              		.loc 1 415 5 is_stmt 1 view .LVU367
 1059              	.LVL59:
 1060              		.loc 1 415 18 is_stmt 0 view .LVU368
 1061 0038 013082E2 		add	r3, r2, #1
 1062 003c 143084E5 		str	r3, [r4, #20]
 1063              		.loc 1 415 23 view .LVU369
 1064 0040 0130D5E4 		ldrb	r3, [r5], #1	@ zero_extendqisi2
 1065              	.LVL60:
 1066              		.loc 1 415 21 view .LVU370
 1067 0044 0030C2E5 		strb	r3, [r2]
 1068              		.loc 1 416 5 is_stmt 1 view .LVU371
 1069              		.loc 1 416 8 is_stmt 0 view .LVU372
 1070 0048 103094E5 		ldr	r3, [r4, #16]
 1071 004c 142094E5 		ldr	r2, [r4, #20]
 1072 0050 030052E1 		cmp	r2, r3
 1073              		.loc 1 417 20 view .LVU373
 1074 0054 0C309425 		ldrcs	r3, [r4, #12]
 1075 0058 14308425 		strcs	r3, [r4, #20]
 1076              		.loc 1 419 8 view .LVU374
 1077 005c 000058E3 		cmp	r8, #0
 1078 0060 0100000A 		beq	.L90
 1079              		.loc 1 420 7 view .LVU375
 1080 0064 0400A0E1 		mov	r0, r4
 1081 0068 38FF2FE1 		blx	r8
 1082              	.LVL61:
 1083              	.L90:
ARM GAS  /tmp/cc6V3eFT.s 			page 20


 1084              		.loc 1 422 5 is_stmt 1 view .LVU376
 1085              		.loc 1 422 5 view .LVU377
 1086              		.syntax divided
 1087              	@ 422 "../os/kernel/src/chqueues.c" 1
 1088 006c 1FF021E3 		msr     CPSR_c, #0x1F
 1089              	@ 0 "" 2
 1090              		.loc 1 422 18 view .LVU378
 1091              		.loc 1 423 5 view .LVU379
 1092              		.loc 1 426 5 view .LVU380
 1093              		.loc 1 424 8 is_stmt 0 view .LVU381
 1094              		.arm
 1095              		.syntax unified
 1096 0070 016056E2 		subs	r6, r6, #1
 1097              	.LVL62:
 1098              		.loc 1 423 6 view .LVU382
 1099 0074 017087E2 		add	r7, r7, #1
 1100              	.LVL63:
 1101              		.loc 1 424 5 is_stmt 1 view .LVU383
 1102              		.loc 1 424 8 is_stmt 0 view .LVU384
 1103 0078 0A00000A 		beq	.L84
 1104              		.loc 1 426 5 view .LVU385
 1105              		.syntax divided
 1106              	@ 426 "../os/kernel/src/chqueues.c" 1
 1107 007c 9FF021E3 		msr     CPSR_c, #0x9F
 1108              	@ 0 "" 2
 1109              		.loc 1 426 5 is_stmt 1 view .LVU386
 1110              		.loc 1 426 16 view .LVU387
 1111              		.loc 1 407 9 view .LVU388
 1112              	.LVL64:
 1113              		.loc 1 408 11 view .LVU389
 1114              		.loc 1 414 5 view .LVU390
 1115              		.loc 1 419 5 view .LVU391
 1116              		.loc 1 420 7 view .LVU392
 1117              		.loc 1 408 12 is_stmt 0 view .LVU393
 1118              		.arm
 1119              		.syntax unified
 1120 0080 080094E5 		ldr	r0, [r4, #8]
 1121              		.loc 1 408 11 view .LVU394
 1122 0084 000050E3 		cmp	r0, #0
 1123              		.loc 1 414 19 view .LVU395
 1124 0088 013040E2 		sub	r3, r0, #1
 1125              		.loc 1 408 11 view .LVU396
 1126 008c E7FFFF1A 		bne	.L101
 1127              	.L88:
 1128              		.loc 1 409 7 is_stmt 1 view .LVU397
 1129              		.loc 1 409 11 is_stmt 0 view .LVU398
 1130 0090 0910A0E1 		mov	r1, r9
 1131 0094 0400A0E1 		mov	r0, r4
 1132 0098 FEFFFFEB 		bl	qwait
 1133              	.LVL65:
 1134              		.loc 1 409 10 view .LVU399
 1135 009c 000050E3 		cmp	r0, #0
 1136 00a0 DEFFFF0A 		beq	.L85
 1137              		.loc 1 410 9 is_stmt 1 view .LVU400
 1138              		.loc 1 410 9 view .LVU401
 1139              		.syntax divided
 1140              	@ 410 "../os/kernel/src/chqueues.c" 1
ARM GAS  /tmp/cc6V3eFT.s 			page 21


 1141 00a4 1FF021E3 		msr     CPSR_c, #0x1F
 1142              	@ 0 "" 2
 1143              		.loc 1 410 22 view .LVU402
 1144              		.loc 1 411 9 view .LVU403
 1145              	.LVL66:
 1146              		.arm
 1147              		.syntax unified
 1148              	.L84:
 1149              		.loc 1 428 1 is_stmt 0 view .LVU404
 1150 00a8 0700A0E1 		mov	r0, r7
 1151 00ac F087BDE8 		pop	{r4, r5, r6, r7, r8, r9, r10, pc}
 1152              		.cfi_endproc
 1153              	.LFE17:
 1154              		.size	chOQWriteTimeout, .-chOQWriteTimeout
 1155              		.text
 1156              	.Letext0:
 1157              		.file 3 "/usr/lib/gcc/arm-none-eabi/9.2.1/include/stddef.h"
 1158              		.file 4 "/usr/lib/gcc/arm-none-eabi/9.2.1/include/stdint.h"
 1159              		.file 5 "../os/ports/GCC/ARM/chtypes.h"
 1160              		.file 6 "../os/kernel/include/chlists.h"
 1161              		.file 7 "../os/kernel/include/chthreads.h"
 1162              		.file 8 "../os/ports/GCC/ARM/chcore.h"
 1163              		.file 9 "../os/kernel/include/chvt.h"
 1164              		.file 10 "../os/kernel/include/chschd.h"
 1165              		.file 11 "../os/kernel/include/chmtx.h"
 1166              		.file 12 "../os/kernel/include/chregistry.h"
 1167              		.file 13 "../os/kernel/include/chqueues.h"
 1168              		.file 14 "../os/kernel/include/ch.h"