ARM GAS  /tmp/ccf22wGX.s 			page 1


   1              		.cpu arm1176jz-s
   2              		.eabi_attribute 20, 1
   3              		.eabi_attribute 21, 1
   4              		.eabi_attribute 23, 3
   5              		.eabi_attribute 24, 1
   6              		.eabi_attribute 25, 1
   7              		.eabi_attribute 26, 1
   8              		.eabi_attribute 30, 2
   9              		.eabi_attribute 34, 1
  10              		.eabi_attribute 18, 4
  11              		.file	"chschd.c"
  12              		.text
  13              	.Ltext0:
  14              		.cfi_sections	.debug_frame
  15              		.section	.text.wakeup,"ax",%progbits
  16              		.align	2
  17              		.arch armv6kz
  18              		.syntax unified
  19              		.arm
  20              		.fpu softvfp
  21              		.type	wakeup, %function
  22              	wakeup:
  23              	.LVL0:
  24              	.LFB10:
  25              		.file 1 "../os/kernel/src/chschd.c"
  26              		.loc 1 129 29 view -0
  27              		.cfi_startproc
  28              		@ args = 0, pretend = 0, frame = 0
  29              		@ frame_needed = 0, uses_anonymous_args = 0
  30              		@ link register save eliminated.
  31              		.loc 1 130 3 view .LVU1
  32              		.loc 1 132 3 view .LVU2
  33              		.loc 1 132 3 view .LVU3
  34              		.loc 1 132 21 view .LVU4
  35              		.loc 1 133 3 view .LVU5
  36 0000 1C30D0E5 		ldrb	r3, [r0, #28]	@ zero_extendqisi2
  37 0004 0D0053E3 		cmp	r3, #13
  38 0008 03F19F97 		ldrls	pc, [pc, r3, asl #2]
  39 000c 150000EA 		b	.L2
  40              	.L4:
  41 0010 A8000000 		.word	.L1
  42 0014 68000000 		.word	.L2
  43 0018 68000000 		.word	.L2
  44 001c 48000000 		.word	.L5
  45 0020 68000000 		.word	.L2
  46 0024 58000000 		.word	.L3
  47 0028 68000000 		.word	.L2
  48 002c 68000000 		.word	.L2
  49 0030 68000000 		.word	.L2
  50 0034 68000000 		.word	.L2
  51 0038 68000000 		.word	.L2
  52 003c 68000000 		.word	.L2
  53 0040 68000000 		.word	.L2
  54 0044 58000000 		.word	.L3
  55              	.L5:
  56              		.loc 1 143 5 view .LVU6
  57 0048 242090E5 		ldr	r2, [r0, #36]
ARM GAS  /tmp/ccf22wGX.s 			page 2


  58 004c 083092E5 		ldr	r3, [r2, #8]
  59 0050 013083E2 		add	r3, r3, #1
  60 0054 083082E5 		str	r3, [r2, #8]
  61              	.L3:
  62              		.loc 1 153 5 view .LVU7
  63              	.LVL1:
  64              	.LBB33:
  65              	.LBI33:
  66              		.file 2 "../os/kernel/include/chinline.h"
  67              		.loc 2 66 23 view .LVU8
  68              	.LBB34:
  69              		.loc 2 68 3 view .LVU9
  70              		.loc 2 68 5 is_stmt 0 view .LVU10
  71 0058 042090E5 		ldr	r2, [r0, #4]
  72              		.loc 2 68 26 view .LVU11
  73 005c 003090E5 		ldr	r3, [r0]
  74              		.loc 2 68 22 view .LVU12
  75 0060 003082E5 		str	r3, [r2]
  76              		.loc 2 69 3 is_stmt 1 view .LVU13
  77              		.loc 2 69 22 is_stmt 0 view .LVU14
  78 0064 042083E5 		str	r2, [r3, #4]
  79              		.loc 2 70 3 is_stmt 1 view .LVU15
  80              	.LVL2:
  81              	.L2:
  82              		.loc 2 70 3 is_stmt 0 view .LVU16
  83              	.LBE34:
  84              	.LBE33:
  85              		.loc 1 156 3 is_stmt 1 view .LVU17
  86              		.loc 1 156 18 is_stmt 0 view .LVU18
  87 0068 00C0E0E3 		mvn	ip, #0
  88              	.LBB35:
  89              	.LBB36:
  90              		.loc 1 85 15 view .LVU19
  91 006c 0020A0E3 		mov	r2, #0
  92              	.LBE36:
  93              	.LBE35:
  94              	.LBB38:
  95              	.LBB39:
  96              	.LBB40:
  97              	.LBB41:
  98              		.loc 1 89 28 view .LVU20
  99 0070 081090E5 		ldr	r1, [r0, #8]
 100              		.loc 1 86 6 view .LVU21
 101 0074 30309FE5 		ldr	r3, .L10
 102              	.LBE41:
 103              	.LBE40:
 104              	.LBE39:
 105              	.LBE38:
 106              		.loc 1 156 18 view .LVU22
 107 0078 24C080E5 		str	ip, [r0, #36]
 108              		.loc 1 157 3 is_stmt 1 view .LVU23
 109              	.LVL3:
 110              	.LBB45:
 111              	.LBI35:
 112              		.loc 1 74 9 view .LVU24
 113              	.LBB37:
 114              		.loc 1 75 3 view .LVU25
ARM GAS  /tmp/ccf22wGX.s 			page 3


 115              		.loc 1 77 3 view .LVU26
 116              		.loc 1 77 21 view .LVU27
 117              		.loc 1 80 3 view .LVU28
 118              		.loc 1 83 31 view .LVU29
 119              		.loc 1 85 3 view .LVU30
 120              		.loc 1 85 15 is_stmt 0 view .LVU31
 121 007c 1C20C0E5 		strb	r2, [r0, #28]
 122              		.loc 1 86 3 is_stmt 1 view .LVU32
 123              	.LVL4:
 124              		.loc 1 86 3 is_stmt 0 view .LVU33
 125              	.LBE37:
 126              	.LBE45:
 127              	.LBB46:
 128              	.LBI38:
 129              		.loc 1 129 13 is_stmt 1 view .LVU34
 130              	.L7:
 131              	.LBB44:
 132              	.LBB43:
 133              	.LBB42:
 134              		.loc 1 87 3 view .LVU35
 135              		.loc 1 88 5 view .LVU36
 136              		.loc 1 88 8 is_stmt 0 view .LVU37
 137 0080 003093E5 		ldr	r3, [r3]
 138              	.LVL5:
 139              		.loc 1 89 11 is_stmt 1 view .LVU38
 140              		.loc 1 89 3 is_stmt 0 view .LVU39
 141 0084 082093E5 		ldr	r2, [r3, #8]
 142 0088 010052E1 		cmp	r2, r1
 143 008c FBFFFF2A 		bcs	.L7
 144              		.loc 1 91 3 is_stmt 1 view .LVU40
 145              		.loc 1 92 18 is_stmt 0 view .LVU41
 146 0090 042093E5 		ldr	r2, [r3, #4]
 147              		.loc 1 91 14 view .LVU42
 148 0094 003080E5 		str	r3, [r0]
 149              		.loc 1 92 3 is_stmt 1 view .LVU43
 150              		.loc 1 92 14 is_stmt 0 view .LVU44
 151 0098 042080E5 		str	r2, [r0, #4]
 152              		.loc 1 93 3 is_stmt 1 view .LVU45
 153              		.loc 1 93 35 is_stmt 0 view .LVU46
 154 009c 040083E5 		str	r0, [r3, #4]
 155              		.loc 1 93 22 view .LVU47
 156 00a0 043090E5 		ldr	r3, [r0, #4]
 157              	.LVL6:
 158              		.loc 1 93 22 view .LVU48
 159 00a4 000083E5 		str	r0, [r3]
 160              	.LVL7:
 161              		.loc 1 94 3 is_stmt 1 view .LVU49
 162              		.loc 1 94 3 is_stmt 0 view .LVU50
 163              	.LBE42:
 164              	.LBE43:
 165              		.loc 1 158 3 is_stmt 1 view .LVU51
 166              		.loc 1 158 3 view .LVU52
 167              		.loc 1 158 23 view .LVU53
 168              		.loc 1 158 23 is_stmt 0 view .LVU54
 169              	.LBE44:
 170              	.LBE46:
 171              		.loc 1 158 3 is_stmt 1 view .LVU55
ARM GAS  /tmp/ccf22wGX.s 			page 4


 172              		.loc 1 158 3 view .LVU56
 173              		.loc 1 158 23 view .LVU57
 174              	.L1:
 175              		.loc 1 159 1 is_stmt 0 view .LVU58
 176 00a8 1EFF2FE1 		bx	lr
 177              	.L11:
 178              		.align	2
 179              	.L10:
 180 00ac 00000000 		.word	rlist
 181              		.cfi_endproc
 182              	.LFE10:
 183              		.size	wakeup, .-wakeup
 184              		.section	.text._scheduler_init,"ax",%progbits
 185              		.align	2
 186              		.global	_scheduler_init
 187              		.syntax unified
 188              		.arm
 189              		.fpu softvfp
 190              		.type	_scheduler_init, %function
 191              	_scheduler_init:
 192              	.LFB7:
 193              		.loc 1 48 28 is_stmt 1 view -0
 194              		.cfi_startproc
 195              		@ args = 0, pretend = 0, frame = 0
 196              		@ frame_needed = 0, uses_anonymous_args = 0
 197              		@ link register save eliminated.
 198              		.loc 1 50 3 view .LVU60
 199              		.loc 1 51 16 is_stmt 0 view .LVU61
 200 0000 0020A0E3 		mov	r2, #0
 201              		.loc 1 50 3 view .LVU62
 202 0004 14309FE5 		ldr	r3, .L13
 203              		.loc 1 51 16 view .LVU63
 204 0008 082083E5 		str	r2, [r3, #8]
 205              		.loc 1 50 3 view .LVU64
 206 000c 043083E5 		str	r3, [r3, #4]
 207 0010 003083E5 		str	r3, [r3]
 208              		.loc 1 50 29 is_stmt 1 view .LVU65
 209              		.loc 1 51 3 view .LVU66
 210              		.loc 1 53 3 view .LVU67
 211              		.loc 1 53 33 is_stmt 0 view .LVU68
 212 0014 143083E5 		str	r3, [r3, #20]
 213              		.loc 1 53 17 view .LVU69
 214 0018 103083E5 		str	r3, [r3, #16]
 215              		.loc 1 55 1 view .LVU70
 216 001c 1EFF2FE1 		bx	lr
 217              	.L14:
 218              		.align	2
 219              	.L13:
 220 0020 00000000 		.word	rlist
 221              		.cfi_endproc
 222              	.LFE7:
 223              		.size	_scheduler_init, .-_scheduler_init
 224              		.section	.text.chSchReadyI,"ax",%progbits
 225              		.align	2
 226              		.global	chSchReadyI
 227              		.syntax unified
 228              		.arm
ARM GAS  /tmp/ccf22wGX.s 			page 5


 229              		.fpu softvfp
 230              		.type	chSchReadyI, %function
 231              	chSchReadyI:
 232              	.LVL8:
 233              	.LFB8:
 234              		.loc 1 74 33 is_stmt 1 view -0
 235              		.cfi_startproc
 236              		@ args = 0, pretend = 0, frame = 0
 237              		@ frame_needed = 0, uses_anonymous_args = 0
 238              		@ link register save eliminated.
 239              		.loc 1 75 3 view .LVU72
 240              		.loc 1 77 3 view .LVU73
 241              		.loc 1 77 21 view .LVU74
 242              		.loc 1 80 3 view .LVU75
 243              		.loc 1 83 31 view .LVU76
 244              		.loc 1 85 3 view .LVU77
 245              		.loc 1 85 15 is_stmt 0 view .LVU78
 246 0000 0020A0E3 		mov	r2, #0
 247              		.loc 1 89 28 view .LVU79
 248 0004 081090E5 		ldr	r1, [r0, #8]
 249              		.loc 1 86 6 view .LVU80
 250 0008 2C309FE5 		ldr	r3, .L18
 251              		.loc 1 85 15 view .LVU81
 252 000c 1C20C0E5 		strb	r2, [r0, #28]
 253              		.loc 1 86 3 is_stmt 1 view .LVU82
 254              	.LVL9:
 255              	.L16:
 256              		.loc 1 87 3 discriminator 1 view .LVU83
 257              		.loc 1 88 5 discriminator 1 view .LVU84
 258              		.loc 1 88 8 is_stmt 0 discriminator 1 view .LVU85
 259 0010 003093E5 		ldr	r3, [r3]
 260              	.LVL10:
 261              		.loc 1 89 11 is_stmt 1 discriminator 1 view .LVU86
 262              		.loc 1 89 3 is_stmt 0 discriminator 1 view .LVU87
 263 0014 082093E5 		ldr	r2, [r3, #8]
 264 0018 010052E1 		cmp	r2, r1
 265 001c FBFFFF2A 		bcs	.L16
 266              		.loc 1 91 3 is_stmt 1 view .LVU88
 267              		.loc 1 92 18 is_stmt 0 view .LVU89
 268 0020 042093E5 		ldr	r2, [r3, #4]
 269              		.loc 1 91 14 view .LVU90
 270 0024 003080E5 		str	r3, [r0]
 271              		.loc 1 92 3 is_stmt 1 view .LVU91
 272              		.loc 1 92 14 is_stmt 0 view .LVU92
 273 0028 042080E5 		str	r2, [r0, #4]
 274              		.loc 1 93 3 is_stmt 1 view .LVU93
 275              		.loc 1 93 35 is_stmt 0 view .LVU94
 276 002c 040083E5 		str	r0, [r3, #4]
 277              		.loc 1 93 22 view .LVU95
 278 0030 043090E5 		ldr	r3, [r0, #4]
 279              	.LVL11:
 280              		.loc 1 93 22 view .LVU96
 281 0034 000083E5 		str	r0, [r3]
 282              	.LVL12:
 283              		.loc 1 94 3 is_stmt 1 view .LVU97
 284              		.loc 1 95 1 is_stmt 0 view .LVU98
 285 0038 1EFF2FE1 		bx	lr
ARM GAS  /tmp/ccf22wGX.s 			page 6


 286              	.L19:
 287              		.align	2
 288              	.L18:
 289 003c 00000000 		.word	rlist
 290              		.cfi_endproc
 291              	.LFE8:
 292              		.size	chSchReadyI, .-chSchReadyI
 293              		.section	.text.chSchGoSleepS,"ax",%progbits
 294              		.align	2
 295              		.global	chSchGoSleepS
 296              		.syntax unified
 297              		.arm
 298              		.fpu softvfp
 299              		.type	chSchGoSleepS, %function
 300              	chSchGoSleepS:
 301              	.LVL13:
 302              	.LFB9:
 303              		.loc 1 108 39 is_stmt 1 view -0
 304              		.cfi_startproc
 305              		@ args = 0, pretend = 0, frame = 0
 306              		@ frame_needed = 0, uses_anonymous_args = 0
 307              		.loc 1 109 3 view .LVU100
 308              		.loc 1 111 3 view .LVU101
 309              		.loc 1 111 21 view .LVU102
 310              		.loc 1 113 3 view .LVU103
 311              		.loc 1 117 18 is_stmt 0 view .LVU104
 312 0000 14C0A0E3 		mov	ip, #20
 313              		.loc 1 108 39 view .LVU105
 314 0004 04E02DE5 		str	lr, [sp, #-4]!
 315              		.cfi_def_cfa_offset 4
 316              		.cfi_offset 14, -4
 317              		.loc 1 120 18 view .LVU106
 318 0008 01E0A0E3 		mov	lr, #1
 319              		.loc 1 113 8 view .LVU107
 320 000c 2C309FE5 		ldr	r3, .L22
 321 0010 181093E5 		ldr	r1, [r3, #24]
 322              	.LVL14:
 323              	.LBB47:
 324              	.LBB48:
 325              		.loc 2 53 11 view .LVU108
 326 0014 002093E5 		ldr	r2, [r3]
 327              	.LBE48:
 328              	.LBE47:
 329              		.loc 1 113 26 view .LVU109
 330 0018 1C00C1E5 		strb	r0, [r1, #28]
 331              		.loc 1 117 3 is_stmt 1 view .LVU110
 332              		.loc 1 117 18 is_stmt 0 view .LVU111
 333 001c 1FC0C1E5 		strb	ip, [r1, #31]
 334              		.loc 1 119 3 is_stmt 1 view .LVU112
 335              	.LVL15:
 336              	.LBB52:
 337              	.LBI47:
 338              		.loc 2 52 23 view .LVU113
 339              	.LBB49:
 340              		.loc 2 53 3 view .LVU114
 341              		.loc 2 55 3 view .LVU115
 342              		.loc 2 55 20 is_stmt 0 view .LVU116
ARM GAS  /tmp/ccf22wGX.s 			page 7


 343 0020 00C092E5 		ldr	ip, [r2]
 344              	.LBE49:
 345              	.LBE52:
 346              		.loc 1 121 3 view .LVU117
 347 0024 0200A0E1 		mov	r0, r2
 348              	.LVL16:
 349              	.LBB53:
 350              	.LBB50:
 351              		.loc 2 55 38 view .LVU118
 352 0028 04308CE5 		str	r3, [ip, #4]
 353              	.LVL17:
 354              		.loc 2 56 3 is_stmt 1 view .LVU119
 355              		.loc 2 56 3 is_stmt 0 view .LVU120
 356              	.LBE50:
 357              	.LBE53:
 358              		.loc 1 120 18 view .LVU121
 359 002c 1CE0C2E5 		strb	lr, [r2, #28]
 360              		.loc 1 122 1 view .LVU122
 361 0030 04E09DE4 		ldr	lr, [sp], #4
 362              		.cfi_restore 14
 363              		.cfi_def_cfa_offset 0
 364              	.LBB54:
 365              	.LBB51:
 366              		.loc 2 55 16 view .LVU123
 367 0034 00C083E5 		str	ip, [r3]
 368              	.LBE51:
 369              	.LBE54:
 370              		.loc 1 119 3 view .LVU124
 371 0038 182083E5 		str	r2, [r3, #24]
 372              		.loc 1 120 3 is_stmt 1 view .LVU125
 373              		.loc 1 121 3 view .LVU126
 374              		.loc 1 121 3 view .LVU127
 375              		.loc 1 121 3 view .LVU128
 376              		.loc 1 121 3 view .LVU129
 377 003c FEFFFFEA 		b	_port_switch_arm
 378              	.LVL18:
 379              	.L23:
 380              		.loc 1 121 3 is_stmt 0 view .LVU130
 381              		.align	2
 382              	.L22:
 383 0040 00000000 		.word	rlist
 384              		.cfi_endproc
 385              	.LFE9:
 386              		.size	chSchGoSleepS, .-chSchGoSleepS
 387              		.section	.text.chSchGoSleepTimeoutS,"ax",%progbits
 388              		.align	2
 389              		.global	chSchGoSleepTimeoutS
 390              		.syntax unified
 391              		.arm
 392              		.fpu softvfp
 393              		.type	chSchGoSleepTimeoutS, %function
 394              	chSchGoSleepTimeoutS:
 395              	.LVL19:
 396              	.LFB11:
 397              		.loc 1 182 63 is_stmt 1 view -0
 398              		.cfi_startproc
 399              		@ args = 0, pretend = 0, frame = 24
ARM GAS  /tmp/ccf22wGX.s 			page 8


 400              		@ frame_needed = 0, uses_anonymous_args = 0
 401              		.loc 1 184 3 view .LVU132
 402              		.loc 1 184 21 view .LVU133
 403              		.loc 1 186 3 view .LVU134
 404              		.loc 1 182 63 is_stmt 0 view .LVU135
 405 0000 30402DE9 		push	{r4, r5, lr}
 406              		.cfi_def_cfa_offset 12
 407              		.cfi_offset 4, -12
 408              		.cfi_offset 5, -8
 409              		.cfi_offset 14, -4
 410              		.loc 1 186 6 view .LVU136
 411 0004 010071E3 		cmn	r1, #1
 412              		.loc 1 182 63 view .LVU137
 413 0008 1CD04DE2 		sub	sp, sp, #28
 414              		.cfi_def_cfa_offset 40
 415              		.loc 1 186 6 view .LVU138
 416 000c 1000000A 		beq	.L25
 417              	.LBB55:
 418              		.loc 1 187 5 is_stmt 1 view .LVU139
 419              		.loc 1 189 5 view .LVU140
 420 0010 0040A0E1 		mov	r4, r0
 421              		.loc 1 189 33 is_stmt 0 view .LVU141
 422 0014 50509FE5 		ldr	r5, .L32
 423              		.loc 1 189 5 view .LVU142
 424 0018 50209FE5 		ldr	r2, .L32+4
 425 001c 183095E5 		ldr	r3, [r5, #24]
 426 0020 04008DE2 		add	r0, sp, #4
 427              	.LVL20:
 428              		.loc 1 189 5 view .LVU143
 429 0024 FEFFFFEB 		bl	chVTSetI
 430              	.LVL21:
 431              		.loc 1 190 5 is_stmt 1 view .LVU144
 432 0028 0400A0E1 		mov	r0, r4
 433 002c FEFFFFEB 		bl	chSchGoSleepS
 434              	.LVL22:
 435              		.loc 1 191 5 view .LVU145
 436              		.loc 1 191 8 is_stmt 0 view .LVU146
 437 0030 10309DE5 		ldr	r3, [sp, #16]
 438 0034 000053E3 		cmp	r3, #0
 439 0038 0100000A 		beq	.L27
 440              		.loc 1 192 7 is_stmt 1 view .LVU147
 441 003c 04008DE2 		add	r0, sp, #4
 442 0040 FEFFFFEB 		bl	chVTResetI
 443              	.LVL23:
 444              	.L27:
 445              	.LBE55:
 446              		.loc 1 196 3 view .LVU148
 447              		.loc 1 196 20 is_stmt 0 view .LVU149
 448 0044 183095E5 		ldr	r3, [r5, #24]
 449              		.loc 1 197 1 view .LVU150
 450 0048 240093E5 		ldr	r0, [r3, #36]
 451 004c 1CD08DE2 		add	sp, sp, #28
 452              		.cfi_remember_state
 453              		.cfi_def_cfa_offset 12
 454              		@ sp needed
 455 0050 3080BDE8 		pop	{r4, r5, pc}
 456              	.LVL24:
ARM GAS  /tmp/ccf22wGX.s 			page 9


 457              	.L25:
 458              		.cfi_restore_state
 459              		.loc 1 195 5 is_stmt 1 view .LVU151
 460 0054 FEFFFFEB 		bl	chSchGoSleepS
 461              	.LVL25:
 462              		.loc 1 195 5 is_stmt 0 view .LVU152
 463 0058 0C509FE5 		ldr	r5, .L32
 464              		.loc 1 196 3 is_stmt 1 view .LVU153
 465              		.loc 1 196 20 is_stmt 0 view .LVU154
 466 005c 183095E5 		ldr	r3, [r5, #24]
 467              		.loc 1 197 1 view .LVU155
 468 0060 240093E5 		ldr	r0, [r3, #36]
 469 0064 1CD08DE2 		add	sp, sp, #28
 470              		.cfi_def_cfa_offset 12
 471              		@ sp needed
 472 0068 3080BDE8 		pop	{r4, r5, pc}
 473              	.L33:
 474              		.align	2
 475              	.L32:
 476 006c 00000000 		.word	rlist
 477 0070 00000000 		.word	wakeup
 478              		.cfi_endproc
 479              	.LFE11:
 480              		.size	chSchGoSleepTimeoutS, .-chSchGoSleepTimeoutS
 481              		.section	.text.chSchWakeupS,"ax",%progbits
 482              		.align	2
 483              		.global	chSchWakeupS
 484              		.syntax unified
 485              		.arm
 486              		.fpu softvfp
 487              		.type	chSchWakeupS, %function
 488              	chSchWakeupS:
 489              	.LVL26:
 490              	.LFB12:
 491              		.loc 1 218 43 is_stmt 1 view -0
 492              		.cfi_startproc
 493              		@ args = 0, pretend = 0, frame = 0
 494              		@ frame_needed = 0, uses_anonymous_args = 0
 495              		.loc 1 220 3 view .LVU157
 496              		.loc 1 220 21 view .LVU158
 497              		.loc 1 222 3 view .LVU159
 498              		.loc 1 227 22 is_stmt 0 view .LVU160
 499 0000 94209FE5 		ldr	r2, .L43
 500              		.loc 1 218 43 view .LVU161
 501 0004 10402DE9 		push	{r4, lr}
 502              		.cfi_def_cfa_offset 8
 503              		.cfi_offset 4, -8
 504              		.cfi_offset 14, -4
 505              		.loc 1 227 22 view .LVU162
 506 0008 184092E5 		ldr	r4, [r2, #24]
 507              		.loc 1 227 10 view .LVU163
 508 000c 08C090E5 		ldr	ip, [r0, #8]
 509              		.loc 1 227 27 view .LVU164
 510 0010 08E094E5 		ldr	lr, [r4, #8]
 511              		.loc 1 222 19 view .LVU165
 512 0014 241080E5 		str	r1, [r0, #36]
 513              		.loc 1 227 3 is_stmt 1 view .LVU166
ARM GAS  /tmp/ccf22wGX.s 			page 10


 514              		.loc 1 227 6 is_stmt 0 view .LVU167
 515 0018 0E005CE1 		cmp	ip, lr
 516              	.LBB56:
 517              	.LBB57:
 518              		.loc 1 85 15 view .LVU168
 519 001c 0010A0E3 		mov	r1, #0
 520              	.LVL27:
 521              		.loc 1 86 6 view .LVU169
 522 0020 0230A0E1 		mov	r3, r2
 523              	.LBE57:
 524              	.LBE56:
 525              		.loc 1 227 6 view .LVU170
 526 0024 0B00008A 		bhi	.L35
 527              		.loc 1 228 5 is_stmt 1 view .LVU171
 528              	.LVL28:
 529              	.LBB59:
 530              	.LBI56:
 531              		.loc 1 74 9 view .LVU172
 532              	.LBB58:
 533              		.loc 1 75 3 view .LVU173
 534              		.loc 1 77 3 view .LVU174
 535              		.loc 1 77 21 view .LVU175
 536              		.loc 1 80 3 view .LVU176
 537              		.loc 1 83 31 view .LVU177
 538              		.loc 1 85 3 view .LVU178
 539              		.loc 1 85 15 is_stmt 0 view .LVU179
 540 0028 1C10C0E5 		strb	r1, [r0, #28]
 541              		.loc 1 86 3 is_stmt 1 view .LVU180
 542              	.LVL29:
 543              	.L36:
 544              		.loc 1 87 3 view .LVU181
 545              		.loc 1 88 5 view .LVU182
 546              		.loc 1 88 8 is_stmt 0 view .LVU183
 547 002c 003093E5 		ldr	r3, [r3]
 548              	.LVL30:
 549              		.loc 1 89 11 is_stmt 1 view .LVU184
 550              		.loc 1 89 3 is_stmt 0 view .LVU185
 551 0030 082093E5 		ldr	r2, [r3, #8]
 552 0034 02005CE1 		cmp	ip, r2
 553 0038 FBFFFF9A 		bls	.L36
 554              		.loc 1 91 3 is_stmt 1 view .LVU186
 555              		.loc 1 92 18 is_stmt 0 view .LVU187
 556 003c 042093E5 		ldr	r2, [r3, #4]
 557              		.loc 1 91 14 view .LVU188
 558 0040 003080E5 		str	r3, [r0]
 559              		.loc 1 92 3 is_stmt 1 view .LVU189
 560              		.loc 1 92 14 is_stmt 0 view .LVU190
 561 0044 042080E5 		str	r2, [r0, #4]
 562              		.loc 1 93 3 is_stmt 1 view .LVU191
 563              		.loc 1 93 35 is_stmt 0 view .LVU192
 564 0048 040083E5 		str	r0, [r3, #4]
 565              		.loc 1 93 22 view .LVU193
 566 004c 043090E5 		ldr	r3, [r0, #4]
 567              	.LVL31:
 568              		.loc 1 93 22 view .LVU194
 569 0050 000083E5 		str	r0, [r3]
 570              	.LVL32:
ARM GAS  /tmp/ccf22wGX.s 			page 11


 571              		.loc 1 94 3 is_stmt 1 view .LVU195
 572              	.LBE58:
 573              	.LBE59:
 574              		.loc 1 235 1 is_stmt 0 view .LVU196
 575 0054 1080BDE8 		pop	{r4, pc}
 576              	.LVL33:
 577              	.L35:
 578              	.LBB60:
 579              		.loc 1 230 5 is_stmt 1 view .LVU197
 580              	.LBB61:
 581              	.LBI61:
 582              		.loc 1 74 9 view .LVU198
 583              	.LBB62:
 584              		.loc 1 75 3 view .LVU199
 585              		.loc 1 77 3 view .LVU200
 586              		.loc 1 77 21 view .LVU201
 587              		.loc 1 80 3 view .LVU202
 588              		.loc 1 83 31 view .LVU203
 589              		.loc 1 85 3 view .LVU204
 590              		.loc 1 85 15 is_stmt 0 view .LVU205
 591 0058 1C10C4E5 		strb	r1, [r4, #28]
 592              	.LVL34:
 593              		.loc 1 86 3 is_stmt 1 view .LVU206
 594              	.L38:
 595              		.loc 1 87 3 view .LVU207
 596              		.loc 1 88 5 view .LVU208
 597              		.loc 1 88 8 is_stmt 0 view .LVU209
 598 005c 003093E5 		ldr	r3, [r3]
 599              	.LVL35:
 600              		.loc 1 89 11 is_stmt 1 view .LVU210
 601              		.loc 1 89 3 is_stmt 0 view .LVU211
 602 0060 08C093E5 		ldr	ip, [r3, #8]
 603 0064 0C005EE1 		cmp	lr, ip
 604 0068 FBFFFF9A 		bls	.L38
 605              		.loc 1 91 3 is_stmt 1 view .LVU212
 606              	.LBE62:
 607              	.LBE61:
 608              		.loc 1 232 18 is_stmt 0 view .LVU213
 609 006c 01C0A0E3 		mov	ip, #1
 610              	.LBB65:
 611              	.LBB63:
 612              		.loc 1 92 18 view .LVU214
 613 0070 041093E5 		ldr	r1, [r3, #4]
 614              		.loc 1 91 14 view .LVU215
 615 0074 003084E5 		str	r3, [r4]
 616              		.loc 1 92 3 is_stmt 1 view .LVU216
 617              		.loc 1 92 14 is_stmt 0 view .LVU217
 618 0078 041084E5 		str	r1, [r4, #4]
 619              		.loc 1 93 3 is_stmt 1 view .LVU218
 620              		.loc 1 93 35 is_stmt 0 view .LVU219
 621 007c 044083E5 		str	r4, [r3, #4]
 622              		.loc 1 93 22 view .LVU220
 623 0080 043094E5 		ldr	r3, [r4, #4]
 624              	.LVL36:
 625              		.loc 1 93 22 view .LVU221
 626              	.LBE63:
 627              	.LBE65:
ARM GAS  /tmp/ccf22wGX.s 			page 12


 628              		.loc 1 233 5 view .LVU222
 629 0084 0410A0E1 		mov	r1, r4
 630              	.LBB66:
 631              	.LBB64:
 632              		.loc 1 93 22 view .LVU223
 633 0088 004083E5 		str	r4, [r3]
 634              	.LVL37:
 635              		.loc 1 94 3 is_stmt 1 view .LVU224
 636              		.loc 1 94 3 is_stmt 0 view .LVU225
 637              	.LBE64:
 638              	.LBE66:
 639              		.loc 1 231 5 is_stmt 1 view .LVU226
 640              		.loc 1 232 18 is_stmt 0 view .LVU227
 641 008c 1CC0C0E5 		strb	ip, [r0, #28]
 642              	.LBE60:
 643              		.loc 1 235 1 view .LVU228
 644 0090 1040BDE8 		pop	{r4, lr}
 645              		.cfi_restore 14
 646              		.cfi_restore 4
 647              		.cfi_def_cfa_offset 0
 648              	.LVL38:
 649              	.LBB67:
 650              		.loc 1 231 5 view .LVU229
 651 0094 180082E5 		str	r0, [r2, #24]
 652              		.loc 1 232 5 is_stmt 1 view .LVU230
 653              		.loc 1 233 5 view .LVU231
 654              		.loc 1 233 5 view .LVU232
 655              		.loc 1 233 5 view .LVU233
 656              		.loc 1 233 5 view .LVU234
 657 0098 FEFFFFEA 		b	_port_switch_arm
 658              	.LVL39:
 659              	.L44:
 660              		.loc 1 233 5 is_stmt 0 view .LVU235
 661              		.align	2
 662              	.L43:
 663 009c 00000000 		.word	rlist
 664              	.LBE67:
 665              		.cfi_endproc
 666              	.LFE12:
 667              		.size	chSchWakeupS, .-chSchWakeupS
 668              		.section	.text.chSchIsPreemptionRequired,"ax",%progbits
 669              		.align	2
 670              		.global	chSchIsPreemptionRequired
 671              		.syntax unified
 672              		.arm
 673              		.fpu softvfp
 674              		.type	chSchIsPreemptionRequired, %function
 675              	chSchIsPreemptionRequired:
 676              	.LFB14:
 677              		.loc 1 269 40 is_stmt 1 view -0
 678              		.cfi_startproc
 679              		@ args = 0, pretend = 0, frame = 0
 680              		@ frame_needed = 0, uses_anonymous_args = 0
 681              		@ link register save eliminated.
 682              		.loc 1 270 3 view .LVU237
 683              		.loc 1 270 16 is_stmt 0 view .LVU238
 684 0000 38209FE5 		ldr	r2, .L48
ARM GAS  /tmp/ccf22wGX.s 			page 13


 685              		.loc 1 271 16 view .LVU239
 686 0004 183092E5 		ldr	r3, [r2, #24]
 687              		.loc 1 270 11 view .LVU240
 688 0008 001092E5 		ldr	r1, [r2]
 689              		.loc 1 277 37 view .LVU241
 690 000c 1F20D3E5 		ldrb	r2, [r3, #31]	@ zero_extendqisi2
 691              		.loc 1 270 11 view .LVU242
 692 0010 080091E5 		ldr	r0, [r1, #8]
 693              	.LVL40:
 694              		.loc 1 271 3 is_stmt 1 view .LVU243
 695              		.loc 1 277 37 is_stmt 0 view .LVU244
 696 0014 000052E3 		cmp	r2, #0
 697              		.loc 1 271 11 view .LVU245
 698 0018 083093E5 		ldr	r3, [r3, #8]
 699              	.LVL41:
 700              		.loc 1 277 3 is_stmt 1 view .LVU246
 701              		.loc 1 277 37 is_stmt 0 view .LVU247
 702 001c 0300000A 		beq	.L46
 703              		.loc 1 277 32 discriminator 1 view .LVU248
 704 0020 030050E1 		cmp	r0, r3
 705 0024 0000A093 		movls	r0, #0
 706              	.LVL42:
 707              		.loc 1 277 32 discriminator 1 view .LVU249
 708 0028 0100A083 		movhi	r0, #1
 709 002c 1EFF2FE1 		bx	lr
 710              	.LVL43:
 711              	.L46:
 712              		.loc 1 277 42 discriminator 2 view .LVU250
 713 0030 030050E1 		cmp	r0, r3
 714 0034 0000A033 		movcc	r0, #0
 715              	.LVL44:
 716              		.loc 1 277 42 discriminator 2 view .LVU251
 717 0038 0100A023 		movcs	r0, #1
 718              		.loc 1 283 1 discriminator 2 view .LVU252
 719 003c 1EFF2FE1 		bx	lr
 720              	.L49:
 721              		.align	2
 722              	.L48:
 723 0040 00000000 		.word	rlist
 724              		.cfi_endproc
 725              	.LFE14:
 726              		.size	chSchIsPreemptionRequired, .-chSchIsPreemptionRequired
 727              		.section	.text.chSchDoRescheduleBehind,"ax",%progbits
 728              		.align	2
 729              		.global	chSchDoRescheduleBehind
 730              		.syntax unified
 731              		.arm
 732              		.fpu softvfp
 733              		.type	chSchDoRescheduleBehind, %function
 734              	chSchDoRescheduleBehind:
 735              	.LFB15:
 736              		.loc 1 297 36 is_stmt 1 view -0
 737              		.cfi_startproc
 738              		@ args = 0, pretend = 0, frame = 0
 739              		@ frame_needed = 0, uses_anonymous_args = 0
 740              		.loc 1 298 3 view .LVU254
 741              		.loc 1 300 3 view .LVU255
ARM GAS  /tmp/ccf22wGX.s 			page 14


 742              		.loc 1 297 36 is_stmt 0 view .LVU256
 743 0000 30402DE9 		push	{r4, r5, lr}
 744              		.cfi_def_cfa_offset 12
 745              		.cfi_offset 4, -12
 746              		.cfi_offset 5, -8
 747              		.cfi_offset 14, -4
 748              		.loc 1 303 18 view .LVU257
 749 0004 0150A0E3 		mov	r5, #1
 750              		.loc 1 305 18 view .LVU258
 751 0008 1440A0E3 		mov	r4, #20
 752              	.LBB68:
 753              	.LBB69:
 754              		.loc 1 85 15 view .LVU259
 755 000c 00E0A0E3 		mov	lr, #0
 756              	.LBE69:
 757              	.LBE68:
 758              		.loc 1 300 7 view .LVU260
 759 0010 5C209FE5 		ldr	r2, .L55
 760              	.LBB74:
 761              	.LBB75:
 762              		.loc 2 53 11 view .LVU261
 763 0014 000092E5 		ldr	r0, [r2]
 764              	.LBE75:
 765              	.LBE74:
 766              		.loc 1 300 7 view .LVU262
 767 0018 181092E5 		ldr	r1, [r2, #24]
 768              	.LVL45:
 769              		.loc 1 302 3 is_stmt 1 view .LVU263
 770              	.LBB79:
 771              	.LBI74:
 772              		.loc 2 52 23 view .LVU264
 773              	.LBB76:
 774              		.loc 2 53 3 view .LVU265
 775              		.loc 2 55 3 view .LVU266
 776              		.loc 2 55 20 is_stmt 0 view .LVU267
 777 001c 00C090E5 		ldr	ip, [r0]
 778              	.LBE76:
 779              	.LBE79:
 780              	.LBB80:
 781              	.LBB70:
 782              		.loc 1 89 28 view .LVU268
 783 0020 0030A0E1 		mov	r3, r0
 784              	.LBE70:
 785              	.LBE80:
 786              	.LBB81:
 787              	.LBB77:
 788              		.loc 2 55 38 view .LVU269
 789 0024 04208CE5 		str	r2, [ip, #4]
 790              		.loc 2 56 3 is_stmt 1 view .LVU270
 791              	.LVL46:
 792              		.loc 2 56 3 is_stmt 0 view .LVU271
 793              	.LBE77:
 794              	.LBE81:
 795              		.loc 1 303 18 view .LVU272
 796 0028 1C50C0E5 		strb	r5, [r0, #28]
 797              	.LBB82:
 798              	.LBB78:
ARM GAS  /tmp/ccf22wGX.s 			page 15


 799              		.loc 2 55 16 view .LVU273
 800 002c 00C082E5 		str	ip, [r2]
 801              	.LBE78:
 802              	.LBE82:
 803              		.loc 1 302 3 view .LVU274
 804 0030 180082E5 		str	r0, [r2, #24]
 805              		.loc 1 303 3 is_stmt 1 view .LVU275
 806              		.loc 1 305 3 view .LVU276
 807              	.LBB83:
 808              	.LBB71:
 809              		.loc 1 89 28 is_stmt 0 view .LVU277
 810 0034 08C091E5 		ldr	ip, [r1, #8]
 811              	.LBE71:
 812              	.LBE83:
 813              		.loc 1 305 18 view .LVU278
 814 0038 1F40C1E5 		strb	r4, [r1, #31]
 815              		.loc 1 307 3 is_stmt 1 view .LVU279
 816              	.LVL47:
 817              	.LBB84:
 818              	.LBI68:
 819              		.loc 1 74 9 view .LVU280
 820              	.LBB72:
 821              		.loc 1 75 3 view .LVU281
 822              		.loc 1 77 3 view .LVU282
 823              		.loc 1 77 21 view .LVU283
 824              		.loc 1 80 3 view .LVU284
 825              		.loc 1 83 31 view .LVU285
 826              		.loc 1 85 3 view .LVU286
 827              		.loc 1 85 15 is_stmt 0 view .LVU287
 828 003c 1CE0C1E5 		strb	lr, [r1, #28]
 829              		.loc 1 86 3 is_stmt 1 view .LVU288
 830              	.LVL48:
 831              		.loc 1 86 3 is_stmt 0 view .LVU289
 832 0040 000000EA 		b	.L52
 833              	.LVL49:
 834              	.L54:
 835              		.loc 1 86 3 view .LVU290
 836 0044 003093E5 		ldr	r3, [r3]
 837              	.L52:
 838              		.loc 1 87 3 is_stmt 1 view .LVU291
 839              		.loc 1 88 5 view .LVU292
 840              		.loc 1 89 11 view .LVU293
 841              		.loc 1 89 3 is_stmt 0 view .LVU294
 842 0048 082093E5 		ldr	r2, [r3, #8]
 843 004c 0C0052E1 		cmp	r2, ip
 844 0050 FBFFFF2A 		bcs	.L54
 845              		.loc 1 91 3 is_stmt 1 view .LVU295
 846              	.LBE72:
 847              	.LBE84:
 848              		.loc 1 309 1 is_stmt 0 view .LVU296
 849 0054 3040BDE8 		pop	{r4, r5, lr}
 850              		.cfi_restore 14
 851              		.cfi_restore 5
 852              		.cfi_restore 4
 853              		.cfi_def_cfa_offset 0
 854              	.LBB85:
 855              	.LBB73:
ARM GAS  /tmp/ccf22wGX.s 			page 16


 856              		.loc 1 92 18 view .LVU297
 857 0058 042093E5 		ldr	r2, [r3, #4]
 858              		.loc 1 91 14 view .LVU298
 859 005c 003081E5 		str	r3, [r1]
 860              		.loc 1 92 3 is_stmt 1 view .LVU299
 861              		.loc 1 92 14 is_stmt 0 view .LVU300
 862 0060 042081E5 		str	r2, [r1, #4]
 863              		.loc 1 93 3 is_stmt 1 view .LVU301
 864              		.loc 1 93 35 is_stmt 0 view .LVU302
 865 0064 041083E5 		str	r1, [r3, #4]
 866              		.loc 1 93 22 view .LVU303
 867 0068 043091E5 		ldr	r3, [r1, #4]
 868 006c 001083E5 		str	r1, [r3]
 869              		.loc 1 94 3 is_stmt 1 view .LVU304
 870              	.LVL50:
 871              		.loc 1 94 3 is_stmt 0 view .LVU305
 872              	.LBE73:
 873              	.LBE85:
 874              		.loc 1 308 3 is_stmt 1 view .LVU306
 875              		.loc 1 308 3 view .LVU307
 876              		.loc 1 308 3 view .LVU308
 877              		.loc 1 308 3 view .LVU309
 878 0070 FEFFFFEA 		b	_port_switch_arm
 879              	.LVL51:
 880              	.L56:
 881              		.loc 1 308 3 is_stmt 0 view .LVU310
 882              		.align	2
 883              	.L55:
 884 0074 00000000 		.word	rlist
 885              		.cfi_endproc
 886              	.LFE15:
 887              		.size	chSchDoRescheduleBehind, .-chSchDoRescheduleBehind
 888              		.section	.text.chSchDoRescheduleAhead,"ax",%progbits
 889              		.align	2
 890              		.global	chSchDoRescheduleAhead
 891              		.syntax unified
 892              		.arm
 893              		.fpu softvfp
 894              		.type	chSchDoRescheduleAhead, %function
 895              	chSchDoRescheduleAhead:
 896              	.LFB16:
 897              		.loc 1 322 35 is_stmt 1 view -0
 898              		.cfi_startproc
 899              		@ args = 0, pretend = 0, frame = 0
 900              		@ frame_needed = 0, uses_anonymous_args = 0
 901              		.loc 1 323 3 view .LVU312
 902              		.loc 1 325 3 view .LVU313
 903              		.loc 1 322 35 is_stmt 0 view .LVU314
 904 0000 10402DE9 		push	{r4, lr}
 905              		.cfi_def_cfa_offset 8
 906              		.cfi_offset 4, -8
 907              		.cfi_offset 14, -4
 908              		.loc 1 328 18 view .LVU315
 909 0004 0140A0E3 		mov	r4, #1
 910              		.loc 1 330 16 view .LVU316
 911 0008 00E0A0E3 		mov	lr, #0
 912              		.loc 1 325 7 view .LVU317
ARM GAS  /tmp/ccf22wGX.s 			page 17


 913 000c 58209FE5 		ldr	r2, .L62
 914              	.LBB86:
 915              	.LBB87:
 916              		.loc 2 53 11 view .LVU318
 917 0010 000092E5 		ldr	r0, [r2]
 918              	.LBE87:
 919              	.LBE86:
 920              		.loc 1 325 7 view .LVU319
 921 0014 181092E5 		ldr	r1, [r2, #24]
 922              	.LVL52:
 923              		.loc 1 327 3 is_stmt 1 view .LVU320
 924              	.LBB91:
 925              	.LBI86:
 926              		.loc 2 52 23 view .LVU321
 927              	.LBB88:
 928              		.loc 2 53 3 view .LVU322
 929              		.loc 2 55 3 view .LVU323
 930              		.loc 2 55 20 is_stmt 0 view .LVU324
 931 0018 00C090E5 		ldr	ip, [r0]
 932              	.LBE88:
 933              	.LBE91:
 934              		.loc 1 334 28 view .LVU325
 935 001c 0030A0E1 		mov	r3, r0
 936              	.LBB92:
 937              	.LBB89:
 938              		.loc 2 55 38 view .LVU326
 939 0020 04208CE5 		str	r2, [ip, #4]
 940              		.loc 2 56 3 is_stmt 1 view .LVU327
 941              	.LVL53:
 942              		.loc 2 56 3 is_stmt 0 view .LVU328
 943              	.LBE89:
 944              	.LBE92:
 945              		.loc 1 328 18 view .LVU329
 946 0024 1C40C0E5 		strb	r4, [r0, #28]
 947              	.LBB93:
 948              	.LBB90:
 949              		.loc 2 55 16 view .LVU330
 950 0028 00C082E5 		str	ip, [r2]
 951              	.LBE90:
 952              	.LBE93:
 953              		.loc 1 330 16 view .LVU331
 954 002c 1CE0C1E5 		strb	lr, [r1, #28]
 955              		.loc 1 334 28 view .LVU332
 956 0030 08C091E5 		ldr	ip, [r1, #8]
 957              		.loc 1 327 3 view .LVU333
 958 0034 180082E5 		str	r0, [r2, #24]
 959              		.loc 1 328 3 is_stmt 1 view .LVU334
 960              		.loc 1 330 3 view .LVU335
 961              		.loc 1 331 3 view .LVU336
 962              	.LVL54:
 963              		.loc 1 331 3 is_stmt 0 view .LVU337
 964 0038 000000EA 		b	.L59
 965              	.LVL55:
 966              	.L61:
 967              		.loc 1 331 3 view .LVU338
 968 003c 003093E5 		ldr	r3, [r3]
 969              	.L59:
ARM GAS  /tmp/ccf22wGX.s 			page 18


 970              		.loc 1 332 3 is_stmt 1 discriminator 1 view .LVU339
 971              		.loc 1 333 5 discriminator 1 view .LVU340
 972              		.loc 1 334 11 discriminator 1 view .LVU341
 973              		.loc 1 334 3 is_stmt 0 discriminator 1 view .LVU342
 974 0040 082093E5 		ldr	r2, [r3, #8]
 975 0044 0C0052E1 		cmp	r2, ip
 976 0048 FBFFFF8A 		bhi	.L61
 977              		.loc 1 336 3 is_stmt 1 view .LVU343
 978              		.loc 1 341 1 is_stmt 0 view .LVU344
 979 004c 1040BDE8 		pop	{r4, lr}
 980              		.cfi_restore 14
 981              		.cfi_restore 4
 982              		.cfi_def_cfa_offset 0
 983              		.loc 1 337 19 view .LVU345
 984 0050 042093E5 		ldr	r2, [r3, #4]
 985              		.loc 1 336 15 view .LVU346
 986 0054 003081E5 		str	r3, [r1]
 987              		.loc 1 337 3 is_stmt 1 view .LVU347
 988              		.loc 1 337 15 is_stmt 0 view .LVU348
 989 0058 042081E5 		str	r2, [r1, #4]
 990              		.loc 1 338 3 is_stmt 1 view .LVU349
 991              		.loc 1 338 36 is_stmt 0 view .LVU350
 992 005c 041083E5 		str	r1, [r3, #4]
 993              		.loc 1 338 23 view .LVU351
 994 0060 043091E5 		ldr	r3, [r1, #4]
 995 0064 001083E5 		str	r1, [r3]
 996              		.loc 1 340 3 is_stmt 1 view .LVU352
 997              		.loc 1 340 3 view .LVU353
 998              		.loc 1 340 3 view .LVU354
 999              		.loc 1 340 3 view .LVU355
 1000 0068 FEFFFFEA 		b	_port_switch_arm
 1001              	.LVL56:
 1002              	.L63:
 1003              		.loc 1 340 3 is_stmt 0 view .LVU356
 1004              		.align	2
 1005              	.L62:
 1006 006c 00000000 		.word	rlist
 1007              		.cfi_endproc
 1008              	.LFE16:
 1009              		.size	chSchDoRescheduleAhead, .-chSchDoRescheduleAhead
 1010              		.section	.text.chSchRescheduleS,"ax",%progbits
 1011              		.align	2
 1012              		.global	chSchRescheduleS
 1013              		.syntax unified
 1014              		.arm
 1015              		.fpu softvfp
 1016              		.type	chSchRescheduleS, %function
 1017              	chSchRescheduleS:
 1018              	.LFB13:
 1019              		.loc 1 246 29 is_stmt 1 view -0
 1020              		.cfi_startproc
 1021              		@ args = 0, pretend = 0, frame = 0
 1022              		@ frame_needed = 0, uses_anonymous_args = 0
 1023              		@ link register save eliminated.
 1024              		.loc 1 248 3 view .LVU358
 1025              		.loc 1 248 21 view .LVU359
 1026              		.loc 1 250 3 view .LVU360
ARM GAS  /tmp/ccf22wGX.s 			page 19


 1027              		.loc 1 250 7 is_stmt 0 view .LVU361
 1028 0000 18309FE5 		ldr	r3, .L66
 1029 0004 002093E5 		ldr	r2, [r3]
 1030 0008 183093E5 		ldr	r3, [r3, #24]
 1031              		.loc 1 250 6 view .LVU362
 1032 000c 082092E5 		ldr	r2, [r2, #8]
 1033 0010 083093E5 		ldr	r3, [r3, #8]
 1034 0014 030052E1 		cmp	r2, r3
 1035 0018 1EFF2F91 		bxls	lr
 1036              		.loc 1 251 5 is_stmt 1 view .LVU363
 1037 001c FEFFFFEA 		b	chSchDoRescheduleAhead
 1038              	.LVL57:
 1039              	.L67:
 1040              		.align	2
 1041              	.L66:
 1042 0020 00000000 		.word	rlist
 1043              		.cfi_endproc
 1044              	.LFE13:
 1045              		.size	chSchRescheduleS, .-chSchRescheduleS
 1046              		.section	.text.chSchDoReschedule,"ax",%progbits
 1047              		.align	2
 1048              		.global	chSchDoReschedule
 1049              		.syntax unified
 1050              		.arm
 1051              		.fpu softvfp
 1052              		.type	chSchDoReschedule, %function
 1053              	chSchDoReschedule:
 1054              	.LFB17:
 1055              		.loc 1 355 30 view -0
 1056              		.cfi_startproc
 1057              		@ args = 0, pretend = 0, frame = 0
 1058              		@ frame_needed = 0, uses_anonymous_args = 0
 1059              		@ link register save eliminated.
 1060              		.loc 1 360 3 view .LVU365
 1061              		.loc 1 360 7 is_stmt 0 view .LVU366
 1062 0000 14309FE5 		ldr	r3, .L70
 1063              		.loc 1 360 12 view .LVU367
 1064 0004 183093E5 		ldr	r3, [r3, #24]
 1065              		.loc 1 360 6 view .LVU368
 1066 0008 1F30D3E5 		ldrb	r3, [r3, #31]	@ zero_extendqisi2
 1067 000c 000053E3 		cmp	r3, #0
 1068 0010 0000001A 		bne	.L69
 1069              		.loc 1 363 5 is_stmt 1 view .LVU369
 1070 0014 FEFFFFEA 		b	chSchDoRescheduleBehind
 1071              	.LVL58:
 1072              	.L69:
 1073              		.loc 1 368 5 view .LVU370
 1074 0018 FEFFFFEA 		b	chSchDoRescheduleAhead
 1075              	.LVL59:
 1076              	.L71:
 1077              		.align	2
 1078              	.L70:
 1079 001c 00000000 		.word	rlist
 1080              		.cfi_endproc
 1081              	.LFE17:
 1082              		.size	chSchDoReschedule, .-chSchDoReschedule
 1083              		.comm	rlist,28,4
ARM GAS  /tmp/ccf22wGX.s 			page 20


 1084              		.text
 1085              	.Letext0:
 1086              		.file 3 "/usr/lib/gcc/arm-none-eabi/9.2.1/include/stdint.h"
 1087              		.file 4 "../os/ports/GCC/ARM/chtypes.h"
 1088              		.file 5 "../os/kernel/include/chlists.h"
 1089              		.file 6 "../os/kernel/include/chthreads.h"
 1090              		.file 7 "../os/ports/GCC/ARM/chcore.h"
 1091              		.file 8 "../os/kernel/include/chvt.h"
 1092              		.file 9 "../os/kernel/include/chschd.h"
 1093              		.file 10 "../os/kernel/include/chsem.h"
 1094              		.file 11 "../os/kernel/include/chmtx.h"
 1095              		.file 12 "../os/kernel/include/chregistry.h"
 1096              		.file 13 "../os/kernel/include/ch.h"