ARM GAS  /tmp/ccf22wGX.s 			page 1


   1              		.cpu arm1176jz-s
   2              		.eabi_attribute 20, 1
   3              		.eabi_attribute 21, 1
   4              		.eabi_attribute 23, 3
   5              		.eabi_attribute 24, 1
   6              		.eabi_attribute 25, 1
   7              		.eabi_attribute 26, 1
   8              		.eabi_attribute 30, 2
   9              		.eabi_attribute 34, 1
  10              		.eabi_attribute 18, 4
  11              		.file	"chschd.c"
  12              		.text
  13              	.Ltext0:
  14              		.cfi_sections	.debug_frame
  15              		.section	.text.wakeup,"ax",%progbits
  16              		.align	2
  17              		.arch armv6kz
  18              		.syntax unified
  19              		.arm
  20              		.fpu softvfp
  21              		.type	wakeup, %function
  22              	wakeup:
  23              	.LVL0:
  24              	.LFB10:
  25              		.file 1 "../os/kernel/src/chschd.c"
  26              		.loc 1 129 29 view -0
  27              		.cfi_startproc
  28              		@ args = 0, pretend = 0, frame = 0
  29              		@ frame_needed = 0, uses_anonymous_args = 0
  30              		@ link register save eliminated.
  31              		.loc 1 130 3 view .LVU1
  32              		.loc 1 132 3 view .LVU2
  33              		.loc 1 132 3 view .LVU3
  34              		.loc 1 132 21 view .LVU4
  35              		.loc 1 133 3 view .LVU5
  36 0000 1C30D0E5 		ldrb	r3, [r0, #28]	@ zero_extendqisi2
  37 0004 0D0053E3 		cmp	r3, #13
  38 0008 03F19F97 		ldrls	pc, [pc, r3, asl #2]
  39 000c 150000EA 		b	.L2
  40              	.L4:
  41 0010 A8000000 		.word	.L1
  42 0014 68000000 		.word	.L2
  43 0018 68000000 		.word	.L2
  44 001c 48000000 		.word	.L5
  45 0020 68000000 		.word	.L2
  46 0024 58000000 		.word	.L3
  47 0028 68000000 		.word	.L2
  48 002c 68000000 		.word	.L2
  49 0030 68000000 		.word	.L2
  50 0034 68000000 		.word	.L2
  51 0038 68000000 		.word	.L2
  52 003c 68000000 		.word	.L2
  53 0040 68000000 		.word	.L2
  54 0044 58000000 		.word	.L3
  55              	.L5:
  56              		.loc 1 143 5 view .LVU6
  57 0048 242090E5 		ldr	r2, [r0, #36]
ARM GAS  /tmp/ccf22wGX.s 			page 2


  58 004c 083092E5 		ldr	r3, [r2, #8]
  59 0050 013083E2 		add	r3, r3, #1
  60 0054 083082E5 		str	r3, [r2, #8]
  61              	.L3:
  62              		.loc 1 153 5 view .LVU7
  63              	.LVL1:
  64              	.LBB33:
  65              	.LBI33:
  66              		.file 2 "../os/kernel/include/chinline.h"
  67              		.loc 2 66 23 view .LVU8
  68              	.LBB34:
  69              		.loc 2 68 3 view .LVU9
  70              		.loc 2 68 5 is_stmt 0 view .LVU10
  71 0058 042090E5 		ldr	r2, [r0, #4]
  72              		.loc 2 68 26 view .LVU11
  73 005c 003090E5 		ldr	r3, [r0]
  74              		.loc 2 68 22 view .LVU12
  75 0060 003082E5 		str	r3, [r2]
  76              		.loc 2 69 3 is_stmt 1 view .LVU13
  77              		.loc 2 69 22 is_stmt 0 view .LVU14
  78 0064 042083E5 		str	r2, [r3, #4]
  79              		.loc 2 70 3 is_stmt 1 view .LVU15
  80              	.LVL2:
  81              	.L2:
  82              		.loc 2 70 3 is_stmt 0 view .LVU16
  83              	.LBE34:
  84              	.LBE33:
  85              		.loc 1 156 3 is_stmt 1 view .LVU17
  86              		.loc 1 156 18 is_stmt 0 view .LVU18
  87 0068 00C0E0E3 		mvn	ip, #0
  88              	.LBB35:
  89              	.LBB36:
  90              		.loc 1 85 15 view .LVU19
  91 006c 0020A0E3 		mov	r2, #0
  92              	.LBE36:
  93              	.LBE35:
  94              	.LBB38:
  95              	.LBB39:
  96              	.LBB40:
  97              	.LBB41:
  98              		.loc 1 89 28 view .LVU20
  99 0070 081090E5 		ldr	r1, [r0, #8]
 100              		.loc 1 86 6 view .LVU21
 101 0074 30309FE5 		ldr	r3, .L10
 102              	.LBE41:
 103              	.LBE40:
 104              	.LBE39:
 105              	.LBE38:
 106              		.loc 1 156 18 view .LVU22
 107 0078 24C080E5 		str	ip, [r0, #36]
 108              		.loc 1 157 3 is_stmt 1 view .LVU23
 109              	.LVL3:
 110              	.LBB45:
 111              	.LBI35:
 112              		.loc 1 74 9 view .LVU24
 113              	.LBB37:
 114              		.loc 1 75 3 view .LVU25
ARM GAS  /tmp/ccf22wGX.s 			page 3


 115              		.loc 1 77 3 view .LVU26
 116              		.loc 1 77 21 view .LVU27
 117              		.loc 1 80 3 view .LVU28
 118              		.loc 1 83 31 view .LVU29
 119              		.loc 1 85 3 view .LVU30
 120              		.loc 1 85 15 is_stmt 0 view .LVU31
 121 007c 1C20C0E5 		strb	r2, [r0, #28]
 122              		.loc 1 86 3 is_stmt 1 view .LVU32
 123              	.LVL4:
 124              		.loc 1 86 3 is_stmt 0 view .LVU33
 125              	.LBE37:
 126              	.LBE45:
 127              	.LBB46:
 128              	.LBI38:
 129              		.loc 1 129 13 is_stmt 1 view .LVU34
 130              	.L7:
 131              	.LBB44:
 132              	.LBB43:
 133              	.LBB42:
 134              		.loc 1 87 3 view .LVU35
 135              		.loc 1 88 5 view .LVU36
 136              		.loc 1 88 8 is_stmt 0 view .LVU37
 137 0080 003093E5 		ldr	r3, [r3]
 138              	.LVL5:
 139              		.loc 1 89 11 is_stmt 1 view .LVU38
 140              		.loc 1 89 3 is_stmt 0 view .LVU39
 141 0084 082093E5 		ldr	r2, [r3, #8]
 142 0088 010052E1 		cmp	r2, r1
 143 008c FBFFFF2A 		bcs	.L7
 144              		.loc 1 91 3 is_stmt 1 view .LVU40
 145              		.loc 1 92 18 is_stmt 0 view .LVU41
 146 0090 042093E5 		ldr	r2, [r3, #4]
 147              		.loc 1 91 14 view .LVU42
 148 0094 003080E5 		str	r3, [r0]
 149              		.loc 1 92 3 is_stmt 1 view .LVU43
 150              		.loc 1 92 14 is_stmt 0 view .LVU44
 151 0098 042080E5 		str	r2, [r0, #4]
 152              		.loc 1 93 3 is_stmt 1 view .LVU45
 153              		.loc 1 93 35 is_stmt 0 view .LVU46
 154 009c 040083E5 		str	r0, [r3, #4]
 155              		.loc 1 93 22 view .LVU47
 156 00a0 043090E5 		ldr	r3, [r0, #4]
 157              	.LVL6:
 158              		.loc 1 93 22 view .LVU48
 159 00a4 000083E5 		str	r0, [r3]
 160              	.LVL7:
 161              		.loc 1 94 3 is_stmt 1 view .LVU49
 162              		.loc 1 94 3 is_stmt 0 view .LVU50
 163              	.LBE42:
 164              	.LBE43:
 165              		.loc 1 158 3 is_stmt 1 view .LVU51
 166              		.loc 1 158 3 view .LVU52
 167              		.loc 1 158 23 view .LVU53
 168              		.loc 1 158 23 is_stmt 0 view .LVU54
 169              	.LBE44:
 170              	.LBE46:
 171              		.loc 1 158 3 is_stmt 1 view .LVU55
ARM GAS  /tmp/ccf22wGX.s 			page 4


 172              		.loc 1 158 3 view .LVU56
 173              		.loc 1 158 23 view .LVU57
 174              	.L1:
 175              		.loc 1 159 1 is_stmt 0 view .LVU58
 176 00a8 1EFF2FE1 		bx	lr
 177              	.L11:
 178              		.align	2
 179              	.L10:
 180 00ac 00000000 		.word	rlist
 181              		.cfi_endproc
 182              	.LFE10:
 183              		.size	wakeup, .-wakeup
 184              		.section	.text._scheduler_init,"ax",%progbits
 185              		.align	2
 186              		.global	_scheduler_init
 187              		.syntax unified
 188              		.arm
 189              		.fpu softvfp
 190              		.type	_scheduler_init, %function
 191              	_scheduler_init:
 192              	.LFB7:
 193              		.loc 1 48 28 is_stmt 1 view -0
 194              		.cfi_startproc
 195              		@ args = 0, pretend = 0, frame = 0
 196              		@ frame_needed = 0, uses_anonymous_args = 0
 197              		@ link register save eliminated.
 198              		.loc 1 50 3 view .LVU60
 199              		.loc 1 51 16 is_stmt 0 view .LVU61
 200 0000 0020A0E3 		mov	r2, #0
 201              		.loc 1 50 3 view .LVU62
 202 0004 14309FE5 		ldr	r3, .L13
 203              		.loc 1 51 16 view .LVU63
 204 0008 082083E5 		str	r2, [r3, #8]
 205              		.loc 1 50 3 view .LVU64
 206 000c 043083E5 		str	r3, [r3, #4]
 207 0010 003083E5 		str	r3, [r3]
 208              		.loc 1 50 29 is_stmt 1 view .LVU65
 209              		.loc 1 51 3 view .LVU66
 210              		.loc 1 53 3 view .LVU67
 211              		.loc 1 53 33 is_stmt 0 view .LVU68
 212 0014 143083E5 		str	r3, [r3, #20]
 213              		.loc 1 53 17 view .LVU69
 214 0018 103083E5 		str	r3, [r3, #16]
 215              		.loc 1 55 1 view .LVU70
 216 001c 1EFF2FE1 		bx	lr
 217              	.L14:
 218              		.align	2
 219              	.L13:
 220 0020 00000000 		.word	rlist
 221              		.cfi_endproc
 222              	.LFE7:
 223              		.size	_scheduler_init, .-_scheduler_init
 224              		.section	.text.chSchReadyI,"ax",%progbits
 225              		.align	2
 226              		.global	chSchReadyI
 227              		.syntax unified
 228              		.arm
ARM GAS  /tmp/ccf22wGX.s 			page 5


 229              		.fpu softvfp
 230              		.type	chSchReadyI, %function
 231              	chSchReadyI:
 232              	.LVL8:
 233              	.LFB8:
 234              		.loc 1 74 33 is_stmt 1 view -0
 235              		.cfi_startproc
 236              		@ args = 0, pretend = 0, frame = 0
 237              		@ frame_needed = 0, uses_anonymous_args = 0
 238              		@ link register save eliminated.
 239              		.loc 1 75 3 view .LVU72
 240              		.loc 1 77 3 view .LVU73
 241              		.loc 1 77 21 view .LVU74
 242              		.loc 1 80 3 view .LVU75
 243              		.loc 1 83 31 view .LVU76
 244              		.loc 1 85 3 view .LVU77
 245              		.loc 1 85 15 is_stmt 0 view .LVU78
 246 0000 0020A0E3 		mov	r2, #0
 247              		.loc 1 89 28 view .LVU79
 248 0004 081090E5 		ldr	r1, [r0, #8]
 249              		.loc 1 86 6 view .LVU80
 250 0008 2C309FE5 		ldr	r3, .L18
 251              		.loc 1 85 15 view .LVU81
 252 000c 1C20C0E5 		strb	r2, [r0, #28]
 253              		.loc 1 86 3 is_stmt 1 view .LVU82
 254              	.LVL9:
 255              	.L16:
 256              		.loc 1 87 3 discriminator 1 view .LVU83
 257              		.loc 1 88 5 discriminator 1 view .LVU84
 258              		.loc 1 88 8 is_stmt 0 discriminator 1 view .LVU85
 259 0010 003093E5 		ldr	r3, [r3]
 260              	.LVL10:
 261              		.loc 1 89 11 is_stmt 1 discriminator 1 view .LVU86
 262              		.loc 1 89 3 is_stmt 0 discriminator 1 view .LVU87
 263 0014 082093E5 		ldr	r2, [r3, #8]
 264 0018 010052E1 		cmp	r2, r1
 265 001c FBFFFF2A 		bcs	.L16
 266              		.loc 1 91 3 is_stmt 1 view .LVU88
 267              		.loc 1 92 18 is_stmt 0 view .LVU89
 268 0020 042093E5 		ldr	r2, [r3, #4]
 269              		.loc 1 91 14 view .LVU90
 270 0024 003080E5 		str	r3, [r0]
 271              		.loc 1 92 3 is_stmt 1 view .LVU91
 272              		.loc 1 92 14 is_stmt 0 view .LVU92
 273 0028 042080E5 		str	r2, [r0, #4]
 274              		.loc 1 93 3 is_stmt 1 view .LVU93
 275              		.loc 1 93 35 is_stmt 0 view .LVU94
 276 002c 040083E5 		str	r0, [r3, #4]
 277              		.loc 1 93 22 view .LVU95
 278 0030 043090E5 		ldr	r3, [r0, #4]
 279              	.LVL11:
 280              		.loc 1 93 22 view .LVU96
 281 0034 000083E5 		str	r0, [r3]
 282              	.LVL12:
 283              		.loc 1 94 3 is_stmt 1 view .LVU97
 284              		.loc 1 95 1 is_stmt 0 view .LVU98
 285 0038 1EFF2FE1 		bx	lr
ARM GAS  /tmp/ccf22wGX.s 			page 6


 286              	.L19:
 287              		.align	2
 288              	.L18:
 289 003c 00000000 		.word	rlist
 290              		.cfi_endproc
 291              	.LFE8:
 292              		.size	chSchReadyI, .-chSchReadyI
 293              		.section	.text.chSchGoSleepS,"ax",%progbits
 294              		.align	2
 295              		.global	chSchGoSleepS
 296              		.syntax unified
 297              		.arm
 298              		.fpu softvfp
 299              		.type	chSchGoSleepS, %function
 300              	chSchGoSleepS:
 301              	.LVL13:
 302              	.LFB9:
 303              		.loc 1 108 39 is_stmt 1 view -0
 304              		.cfi_startproc
 305              		@ args = 0, pretend = 0, frame = 0
 306              		@ frame_needed = 0, uses_anonymous_args = 0
 307              		.loc 1 109 3 view .LVU100
 308              		.loc 1 111 3 view .LVU101
 309              		.loc 1 111 21 view .LVU102
 310              		.loc 1 113 3 view .LVU103
 311              		.loc 1 117 18 is_stmt 0 view .LVU104
 312 0000 14C0A0E3 		mov	ip, #20
 313              		.loc 1 108 39 view .LVU105
 314 0004 04E02DE5 		str	lr, [sp, #-4]!
 315              		.cfi_def_cfa_offset 4
 316              		.cfi_offset 14, -4
 317              		.loc 1 120 18 view .LVU106
 318 0008 01E0A0E3 		mov	lr, #1
 319              		.loc 1 113 8 view .LVU107
 320 000c 2C309FE5 		ldr	r3, .L22
 321 0010 181093E5 		ldr	r1, [r3, #24]
 322              	.LVL14:
 323              	.LBB47:
 324              	.LBB48:
 325              		.loc 2 53 11 view .LVU108
 326 0014 002093E5 		ldr	r2, [r3]
 327              	.LBE48:
 328              	.LBE47:
 329              		.loc 1 113 26 view .LVU109
 330 0018 1C00C1E5 		strb	r0, [r1, #28]
 331              		.loc 1 117 3 is_stmt 1 view .LVU110
 332              		.loc 1 117 18 is_stmt 0 view .LVU111
 333 001c 1FC0C1E5 		strb	ip, [r1, #31]
 334              		.loc 1 119 3 is_stmt 1 view .LVU112
 335              	.LVL15:
 336              	.LBB52:
 337              	.LBI47:
 338              		.loc 2 52 23 view .LVU113
 339              	.LBB49:
 340              		.loc 2 53 3 view .LVU114
 341              		.loc 2 55 3 view .LVU115
 342              		.loc 2 55 20 is_stmt 0 view .LVU116
ARM GAS  /tmp/ccf22wGX.s 			page 7


 343 0020 00C092E5 		ldr	ip, [r2]
 344              	.LBE49:
 345              	.LBE52:
 346              		.loc 1 121 3 view .LVU117
 347 0024 0200A0E1 		mov	r0, r2
 348              	.LVL16:
 349              	.LBB53:
 350              	.LBB50:
 351              		.loc 2 55 38 view .LVU118
 352 0028 04308CE5 		str	r3, [ip, #4]
 353              	.LVL17:
 354              		.loc 2 56 3 is_stmt 1 view .LVU119
 355              		.loc 2 56 3 is_stmt 0 view .LVU120
 356              	.LBE50:
 357              	.LBE53:
 358              		.loc 1 120 18 view .LVU121
 359 002c 1CE0C2E5 		strb	lr, [r2, #28]
 360              		.loc 1 122 1 view .LVU122
 361 0030 04E09DE4 		ldr	lr, [sp], #4
 362              		.cfi_restore 14
 363              		.cfi_def_cfa_offset 0
 364              	.LBB54:
 365              	.LBB51:
 366              		.loc 2 55 16 view .LVU123
 367 0034 00C083E5 		str	ip, [r3]
 368              	.LBE51:
 369              	.LBE54:
 370              		.loc 1 119 3 view .LVU124
 371 0038 182083E5 		str	r2, [r3, #24]
 372              		.loc 1 120 3 is_stmt 1 view .LVU125
 373              		.loc 1 121 3 view .LVU126
 374              		.loc 1 121 3 view .LVU127
 375              		.loc 1 121 3 view .LVU128
 376              		.loc 1 121 3 view .LVU129
 377 003c FEFFFFEA 		b	_port_switch_arm
 378              	.LVL18:
 379              	.L23:
 380              		.loc 1 121 3 is_stmt 0 view .LVU130
 381              		.align	2
 382              	.L22:
 383 0040 00000000 		.word	rlist
 384              		.cfi_endproc
 385              	.LFE9:
 386              		.size	chSchGoSleepS, .-chSchGoSleepS
 387              		.section	.text.chSchGoSleepTimeoutS,"ax",%progbits
 388              		.align	2
 389              		.global	chSchGoSleepTimeoutS
 390              		.syntax unified
 391              		.arm
 392              		.fpu softvfp
 393              		.type	chSchGoSleepTimeoutS, %function
 394              	chSchGoSleepTimeoutS:
 395              	.LVL19:
 396              	.LFB11:
 397              		.loc 1 182 63 is_stmt 1 view -0
 398              		.cfi_startproc
 399              		@ args = 0, pretend = 0, frame = 24
ARM GAS  /tmp/ccf22wGX.s 			page 8


 400              		@ frame_needed = 0, uses_anonymous_args = 0
 401              		.loc 1 184 3 view .LVU132
 402              		.loc 1 184 21 view .LVU133
 403              		.loc 1 186 3 view .LVU134
 404              		.loc 1 182 63 is_stmt 0 view .LVU135
 405 0000 30402DE9 		push	{r4, r5, lr}
 406              		.cfi_def_cfa_offset 12
 407              		.cfi_offset 4, -12
 408              		.cfi_offset 5, -8
 409              		.cfi_offset 14, -4
 410              		.loc 1 186 6 view .LVU136
 411 0004 010071E3 		cmn	r1, #1
 412              		.loc 1 182 63 view .LVU137
 413 0008 1CD04DE2 		sub	sp, sp, #28
 414              		.cfi_def_cfa_offset 40
 415              		.loc 1 186 6 view .LVU138
 416 000c 1000000A 		beq	.L25
 417              	.LBB55:
 418              		.loc 1 187 5 is_stmt 1 view .LVU139
 419              		.loc 1 189 5 view .LVU140
 420 0010 0040A0E1 		mov	r4, r0
 421              		.loc 1 189 33 is_stmt 0 view .LVU141
 422 0014 50509FE5 		ldr	r5, .L32
 423              		.loc 1 189 5 view .LVU142
 424 0018 50209FE5 		ldr	r2, .L32+4
 425 001c 183095E5 		ldr	r3, [r5, #24]
 426 0020 04008DE2 		add	r0, sp, #4
 427              	.LVL20:
 428              		.loc 1 189 5 view .LVU143
 429 0024 FEFFFFEB 		bl	chVTSetI
 430              	.LVL21:
 431              		.loc 1 190 5 is_stmt 1 view .LVU144
 432 0028 0400A0E1 		mov	r0, r4
 433 002c FEFFFFEB 		bl	chSchGoSleepS
 434              	.LVL22:
 435              		.loc 1 191 5 view .LVU145
 436              		.loc 1 191 8 is_stmt 0 view .LVU146
 437 0030 10309DE5 		ldr	r3, [sp, #16]
 438 0034 000053E3 		cmp	r3, #0
 439 0038 0100000A 		beq	.L27
 440              		.loc 1 192 7 is_stmt 1 view .LVU147
 441 003c 04008DE2 		add	r0, sp, #4
 442 0040 FEFFFFEB 		bl	chVTResetI
 443              	.LVL23:
 444              	.L27:
 445              	.LBE55:
 446              		.loc 1 196 3 view .LVU148
 447              		.loc 1 196 20 is_stmt 0 view .LVU149
 448 0044 183095E5 		ldr	r3, [r5, #24]
 449              		.loc 1 197 1 view .LVU150
 450 0048 240093E5 		ldr	r0, [r3, #36]
 451 004c 1CD08DE2 		add	sp, sp, #28
 452              		.cfi_remember_state
 453              		.cfi_def_cfa_offset 12
 454              		@ sp needed
 455 0050 3080BDE8 		pop	{r4, r5, pc}
 456              	.LVL24:
ARM GAS  /tmp/ccf22wGX.s 			page 9


 457              	.L25:
 458              		.cfi_restore_state
 459              		.loc 1 195 5 is_stmt 1 view .LVU151
 460 0054 FEFFFFEB 		bl	chSchGoSleepS
 461              	.LVL25:
 462              		.loc 1 195 5 is_stmt 0 view .LVU152
 463 0058 0C509FE5 		ldr	r5, .L32
 464              		.loc 1 196 3 is_stmt 1 view .LVU153
 465              		.loc 1 196 20 is_stmt 0 view .LVU154
 466 005c 183095E5 		ldr	r3, [r5, #24]
 467              		.loc 1 197 1 view .LVU155
 468 0060 240093E5 		ldr	r0, [r3, #36]
 469 0064 1CD08DE2 		add	sp, sp, #28
 470              		.cfi_def_cfa_offset 12
 471              		@ sp needed
 472 0068 3080BDE8 		pop	{r4, r5, pc}
 473              	.L33:
 474              		.align	2
 475              	.L32:
 476 006c 00000000 		.word	rlist
 477 0070 00000000 		.word	wakeup
 478              		.cfi_endproc
 479              	.LFE11:
 480              		.size	chSchGoSleepTimeoutS, .-chSchGoSleepTimeoutS
 481              		.section	.text.chSchWakeupS,"ax",%progbits
 482              		.align	2
 483              		.global	chSchWakeupS
 484              		.syntax unified
 485              		.arm
 486              		.fpu softvfp
 487              		.type	chSchWakeupS, %function
 488              	chSchWakeupS:
 489              	.LVL26:
 490              	.LFB12:
 491              		.loc 1 218 43 is_stmt 1 view -0
 492              		.cfi_startproc
 493              		@ args = 0, pretend = 0, frame = 0
 494              		@ frame_needed = 0, uses_anonymous_args = 0
 495              		.loc 1 220 3 view .LVU157
 496              		.loc 1 220 21 view .LVU158
 497              		.loc 1 222 3 view .LVU159
 498              		.loc 1 227 22 is_stmt 0 view .LVU160
 499 0000 94209FE5 		ldr	r2, .L43
 500              		.loc 1 218 43 view .LVU161
 501 0004 10402DE9 		push	{r4, lr}
 502              		.cfi_def_cfa_offset 8
 503              		.cfi_offset 4, -8
 504              		.cfi_offset 14, -4
 505              		.loc 1 227 22 view .LVU162
 506 0008 184092E5 		ldr	r4, [r2, #24]
 507              		.loc 1 227 10 view .LVU163
 508 000c 08C090E5 		ldr	ip, [r0, #8]
 509              		.loc 1 227 27 view .LVU164
 510 0010 08E094E5 		ldr	lr, [r4, #8]
 511              		.loc 1 222 19 view .LVU165
 512 0014 241080E5 		str	r1, [r0, #36]
 513              		.loc 1 227 3 is_stmt 1 view .LVU166
ARM GAS  /tmp/ccf22wGX.s 			page 10


 514              		.loc 1 227 6 is_stmt 0 view .LVU167
 515 0018 0E005CE1 		cmp	ip, lr
 516              	.LBB56:
 517              	.LBB57:
 518              		.loc 1 85 15 view .LVU168
 519 001c 0010A0E3 		mov	r1, #0
 520              	.LVL27:
 521              		.loc 1 86 6 view .LVU169
 522 0020 0230A0E1 		mov	r3, r2
 523              	.LBE57:
 524              	.LBE56:
 525              		.loc 1 227 6 view .LVU170
 526 0024 0B00008A 		bhi	.L35
 527              		.loc 1 228 5 is_stmt 1 view .LVU171
 528              	.LVL28:
 529              	.LBB59:
 530              	.LBI56:
 531              		.loc 1 74 9 view .LVU172
 532              	.LBB58:
 533              		.loc 1 75 3 view .LVU173
 534              		.loc 1 77 3 view .LVU174
 535              		.loc 1 77 21 view .LVU175
 536              		.loc 1 80 3 view .LVU176
 537              		.loc 1 83 31 view .LVU177
 538              		.loc 1 85 3 view .LVU178
 539              		.loc 1 85 15 is_stmt 0 view .LVU179
 540 0028 1C10C0E5 		strb	r1, [r0, #28]
 541              		.loc 1 86 3 is_stmt 1 view .LVU180
 542              	.LVL29:
 543              	.L36:
 544              		.loc 1 87 3 view .LVU181
 545              		.loc 1 88 5 view .LVU182
 546              		.loc 1 88 8 is_stmt 0 view .LVU183
 547 002c 003093E5 		ldr	r3, [r3]
 548              	.LVL30:
 549              		.loc 1 89 11 is_stmt 1 view .LVU184
 550              		.loc 1 89 3 is_stmt 0 view .LVU185
 551 0030 082093E5 		ldr	r2, [r3, #8]
 552 0034 02005CE1 		cmp	ip, r2
 553 0038 FBFFFF9A 		bls	.L36
 554              		.loc 1 91 3 is_stmt 1 view .LVU186
 555              		.loc 1 92 18 is_stmt 0 view .LVU187
 556 003c 042093E5 		ldr	r2, [r3, #4]
 557              		.loc 1 91 14 view .LVU188
 558 0040 003080E5 		str	r3, [r0]
 559              		.loc 1 92 3 is_stmt 1 view .LVU189
 560              		.loc 1 92 14 is_stmt 0 view .LVU190
 561 0044 042080E5 		str	r2, [r0, #4]
 562              		.loc 1 93 3 is_stmt 1 view .LVU191
 563              		.loc 1 93 35 is_stmt 0 view .LVU192
 564 0048 040083E5 		str	r0, [r3, #4]
 565              		.loc 1 93 22 view .LVU193
 566 004c 043090E5 		ldr	r3, [r0, #4]
 567              	.LVL31:
 568              		.loc 1 93 22 view .LVU194
 569 0050 000083E5 		str	r0, [r3]
 570              	.LVL32:
ARM GAS  /tmp/ccf22wGX.s 			page 11


 571              		.loc 1 94 3 is_stmt 1 view .LVU195
 572              	.LBE58:
 573              	.LBE59:
 574              		.loc 1 235 1 is_stmt 0 view .LVU196
 575 0054 1080BDE8 		pop	{r4, pc}
 576              	.LVL33:
 577              	.L35:
 578              	.LBB60:
 579              		.loc 1 230 5 is_stmt 1 view .LVU197
 580              	.LBB61:
 581              	.LBI61:
 582              		.loc 1 74 9 view .LVU198
 583              	.LBB62:
 584              		.loc 1 75 3 view .LVU199
 585              		.loc 1 77 3 view .LVU200
 586              		.loc 1 77 21 view .LVU201
 587              		.loc 1 80 3 view .LVU202
 588              		.loc 1 83 31 view .LVU203
 589              		.loc 1 85 3 view .LVU204
 590              		.loc 1 85 15 is_stmt 0 view .LVU205
 591 0058 1C10C4E5 		strb	r1, [r4, #28]
 592              	.LVL34:
 593              		.loc 1 86 3 is_stmt 1 view .LVU206
 594              	.L38:
 595              		.loc 1 87 3 view .LVU207
 596              		.loc 1 88 5 view .LVU208
 597              		.loc 1 88 8 is_stmt 0 view .LVU209
 598 005c 003093E5 		ldr	r3, [r3]
 599              	.LVL35:
 600              		.loc 1 89 11 is_stmt 1 view .LVU210
 601              		.loc 1 89 3 is_stmt 0 view .LVU211
 602 0060 08C093E5 		ldr	ip, [r3, #8]
 603 0064 0C005EE1 		cmp	lr, ip
 604 0068 FBFFFF9A 		bls	.L38
 605              		.loc 1 91 3 is_stmt 1 view .LVU212
 606              	.LBE62:
 607              	.LBE61:
 608              		.loc 1 232 18 is_stmt 0 view .LVU213
 609 006c 01C0A0E3 		mov	ip, #1
 610              	.LBB65:
 611              	.LBB63:
 612              		.loc 1 92 18 view .LVU214
 613 0070 041093E5 		ldr	r1, [r3, #4]
 614              		.loc 1 91 14 view .LVU215
 615 0074 003084E5 		str	r3, [r4]
 616              		.loc 1 92 3 is_stmt 1 view .LVU216
 617              		.loc 1 92 14 is_stmt 0 view .LVU217
 618 0078 041084E5 		str	r1, [r4, #4]
 619              		.loc 1 93 3 is_stmt 1 view .LVU218
 620              		.loc 1 93 35 is_stmt 0 view .LVU219
 621 007c 044083E5 		str	r4, [r3, #4]
 622              		.loc 1 93 22 view .LVU220
 623 0080 043094E5 		ldr	r3, [r4, #4]
 624              	.LVL36:
 625              		.loc 1 93 22 view .LVU221
 626              	.LBE63:
 627              	.LBE65:
ARM GAS  /tmp/ccf22wGX.s 			page 12


 628              		.loc 1 233 5 view .LVU222
 629 0084 0410A0E1 		mov	r1, r4
 630              	.LBB66:
 631              	.LBB64:
 632              		.loc 1 93 22 view .LVU223
 633 0088 004083E5 		str	r4, [r3]
 634              	.LVL37:
 635              		.loc 1 94 3 is_stmt 1 view .LVU224
 636              		.loc 1 94 3 is_stmt 0 view .LVU225
 637              	.LBE64:
 638              	.LBE66:
 639              		.loc 1 231 5 is_stmt 1 view .LVU226
 640              		.loc 1 232 18 is_stmt 0 view .LVU227
 641 008c 1CC0C0E5 		strb	ip, [r0, #28]
 642              	.LBE60:
 643              		.loc 1 235 1 view .LVU228
 644 0090 1040BDE8 		pop	{r4, lr}
 645              		.cfi_restore 14
 646              		.cfi_restore 4
 647              		.cfi_def_cfa_offset 0
 648              	.LVL38:
 649              	.LBB67:
 650              		.loc 1 231 5 view .LVU229
 651 0094 180082E5 		str	r0, [r2, #24]
 652              		.loc 1 232 5 is_stmt 1 view .LVU230
 653              		.loc 1 233 5 view .LVU231
 654              		.loc 1 233 5 view .LVU232
 655              		.loc 1 233 5 view .LVU233
 656              		.loc 1 233 5 view .LVU234
 657 0098 FEFFFFEA 		b	_port_switch_arm
 658              	.LVL39:
 659              	.L44:
 660              		.loc 1 233 5 is_stmt 0 view .LVU235
 661              		.align	2
 662              	.L43:
 663 009c 00000000 		.word	rlist
 664              	.LBE67:
 665              		.cfi_endproc
 666              	.LFE12:
 667              		.size	chSchWakeupS, .-chSchWakeupS
 668              		.section	.text.chSchIsPreemptionRequired,"ax",%progbits
 669              		.align	2
 670              		.global	chSchIsPreemptionRequired
 671              		.syntax unified
 672              		.arm
 673              		.fpu softvfp
 674              		.type	chSchIsPreemptionRequired, %function
 675              	chSchIsPreemptionRequired:
 676              	.LFB14:
 677              		.loc 1 269 40 is_stmt 1 view -0
 678              		.cfi_startproc
 679              		@ args = 0, pretend = 0, frame = 0
 680              		@ frame_needed = 0, uses_anonymous_args = 0
 681              		@ link register save eliminated.
 682              		.loc 1 270 3 view .LVU237
 683              		.loc 1 270 16 is_stmt 0 view .LVU238
 684 0000 38209FE5 		ldr	r2, .L48
ARM GAS  /tmp/ccf22wGX.s 			page 13


 685              		.loc 1 271 16 view .LVU239
 686 0004 183092E5 		ldr	r3, [r2, #24]
 687              		.loc 1 270 11 view .LVU240
 688 0008 001092E5 		ldr	r1, [r2]
 689              		.loc 1 277 37 view .LVU241
 690 000c 1F20D3E5 		ldrb	r2, [r3, #31]	@ zero_extendqisi2
 691              		.loc 1 270 11 view .LVU242
 692 0010 080091E5 		ldr	r0, [r1, #8]
 693              	.LVL40:
 694              		.loc 1 271 3 is_stmt 1 view .LVU243
 695              		.loc 1 277 37 is_stmt 0 view .LVU244
 696 0014 000052E3 		cmp	r2, #0
 697              		.loc 1 271 11 view .LVU245
 698 0018 083093E5 		ldr	r3, [r3, #8]
 699              	.LVL41:
 700              		.loc 1 277 3 is_stmt 1 view .LVU246
 701              		.loc 1 277 37 is_stmt 0 view .LVU247
 702 001c 0300000A 		beq	.L46
 703              		.loc 1 277 32 discriminator 1 view .LVU248
 704 0020 030050E1 		cmp	r0, r3
 705 0024 0000A093 		movls	r0, #0
 706              	.LVL42:
 707              		.loc 1 277 32 discriminator 1 view .LVU249
 708 0028 0100A083 		movhi	r0, #1
 709 002c 1EFF2FE1 		bx	lr
 710              	.LVL43:
 711              	.L46:
 712              		.loc 1 277 42 discriminator 2 view .LVU250
 713 0030 030050E1 		cmp	r0, r3
 714 0034 0000A033 		movcc	r0, #0
 715              	.LVL44:
 716              		.loc 1 277 42 discriminator 2 view .LVU251
 717 0038 0100A023 		movcs	r0, #1
 718              		.loc 1 283 1 discriminator 2 view .LVU252
 719 003c 1EFF2FE1 		bx	lr
 720              	.L49:
 721              		.align	2
 722              	.L48:
 723 0040 00000000 		.word	rlist
 724              		.cfi_endproc
 725              	.LFE14:
 726              		.size	chSchIsPreemptionRequired, .-chSchIsPreemptionRequired
 727              		.section	.text.chSchDoRescheduleBehind,"ax",%progbits
 728              		.align	2
 729              		.global	chSchDoRescheduleBehind
 730              		.syntax unified
 731              		.arm
 732              		.fpu softvfp
 733              		.type	chSchDoRescheduleBehind, %function
 734              	chSchDoRescheduleBehind:
 735              	.LFB15:
 736              		.loc 1 297 36 is_stmt 1 view -0
 737              		.cfi_startproc
 738              		@ args = 0, pretend = 0, frame = 0
 739              		@ frame_needed = 0, uses_anonymous_args = 0
 740              		.loc 1 298 3 view .LVU254
 741              		.loc 1 300 3 view .LVU255
ARM GAS  /tmp/ccf22wGX.s 			page 14


 742              		.loc 1 297 36 is_stmt 0 view .LVU256
 743 0000 30402DE9 		push	{r4, r5, lr}
 744              		.cfi_def_cfa_offset 12
 745              		.cfi_offset 4, -12
 746              		.cfi_offset 5, -8
 747              		.cfi_offset 14, -4
 748              		.loc 1 303 18 view .LVU257
 749 0004 0150A0E3 		mov	r5, #1
 750              		.loc 1 305 18 view .LVU258
 751 0008 1440A0E3 		mov	r4, #20
 752              	.LBB68:
 753              	.LBB69:
 754              		.loc 1 85 15 view .LVU259
 755 000c 00E0A0E3 		mov	lr, #0
 756              	.LBE69:
 757              	.LBE68:
 758              		.loc 1 300 7 view .LVU260
 759 0010 5C209FE5 		ldr	r2, .L55
 760              	.LBB74:
 761              	.LBB75:
 762              		.loc 2 53 11 view .LVU261
 763 0014 000092E5 		ldr	r0, [r2]
 764              	.LBE75:
 765              	.LBE74:
 766              		.loc 1 300 7 view .LVU262
 767 0018 181092E5 		ldr	r1, [r2, #24]
 768              	.LVL45:
 769              		.loc 1 302 3 is_stmt 1 view .LVU263
 770              	.LBB79:
 771              	.LBI74:
 772              		.loc 2 52 23 view .LVU264
 773              	.LBB76:
 774              		.loc 2 53 3 view .LVU265
 775              		.loc 2 55 3 view .LVU266
 776              		.loc 2 55 20 is_stmt 0 view .LVU267
 777 001c 00C090E5 		ldr	ip, [r0]
 778              	.LBE76:
 779              	.LBE79:
 780              	.LBB80:
 781              	.LBB70:
 782              		.loc 1 89 28 view .LVU268
 783 0020 0030A0E1 		mov	r3, r0
 784              	.LBE70:
 785              	.LBE80:
 786              	.LBB81:
 787              	.LBB77:
 788              		.loc 2 55 38 view .LVU269
 789 0024 04208CE5 		str	r2, [ip, #4]
 790              		.loc 2 56 3 is_stmt 1 view .LVU270
 791              	.LVL46:
 792              		.loc 2 56 3 is_stmt 0 view .LVU271
 793              	.LBE77:
 794              	.LBE81:
 795              		.loc 1 303 18 view .LVU272
 796 0028 1C50C0E5 		strb	r5, [r0, #28]
 797              	.LBB82:
 798              	.LBB78:
ARM GAS  /tmp/ccf22wGX.s 			page 15


 799              		.loc 2 55 16 view .LVU273
 800 002c 00C082E5 		str	ip, [r2]
 801              	.LBE78:
 802              	.LBE82:
 803              		.loc 1 302 3 view .LVU274
 804 0030 180082E5 		str	r0, [r2, #24]
 805              		.loc 1 303 3 is_stmt 1 view .LVU275
 806              		.loc 1 305 3 view .LVU276
 807              	.LBB83:
 808              	.LBB71:
 809              		.loc 1 89 28 is_stmt 0 view .LVU277
 810 0034 08C091E5 		ldr	ip, [r1, #8]
 811              	.LBE71:
 812              	.LBE83:
 813              		.loc 1 305 18 view .LVU278
 814 0038 1F40C1E5 		strb	r4, [r1, #31]
 815              		.loc 1 307 3 is_stmt 1 view .LVU279
 816              	.LVL47:
 817              	.LBB84:
 818              	.LBI68:
 819              		.loc 1 74 9 view .LVU280
 820              	.LBB72:
 821              		.loc 1 75 3 view .LVU281
 822              		.loc 1 77 3 view .LVU282
 823              		.loc 1 77 21 view .LVU283
 824              		.loc 1 80 3 view .LVU284
 825              		.loc 1 83 31 view .LVU285
 826              		.loc 1 85 3 view .LVU286
 827              		.loc 1 85 15 is_stmt 0 view .LVU287
 828 003c 1CE0C1E5 		strb	lr, [r1, #28]
 829              		.loc 1 86 3 is_stmt 1 view .LVU288
 830              	.LVL48:
 831              		.loc 1 86 3 is_stmt 0 view .LVU289
 832 0040 000000EA 		b	.L52
 833              	.LVL49:
 834              	.L54:
 835              		.loc 1 86 3 view .LVU290
 836 0044 003093E5 		ldr	r3, [r3]
 837              	.L52:
 838              		.loc 1 87 3 is_stmt 1 view .LVU291
 839              		.loc 1 88 5 view .LVU292
 840              		.loc 1 89 11 view .LVU293
 841              		.loc 1 89 3 is_stmt 0 view .LVU294
 842 0048 082093E5 		ldr	r2, [r3, #8]
 843 004c 0C0052E1 		cmp	r2, ip
 844 0050 FBFFFF2A 		bcs	.L54
 845              		.loc 1 91 3 is_stmt 1 view .LVU295
 846              	.LBE72:
 847              	.LBE84:
 848              		.loc 1 309 1 is_stmt 0 view .LVU296
 849 0054 3040BDE8 		pop	{r4, r5, lr}
 850              		.cfi_restore 14
 851              		.cfi_restore 5
 852              		.cfi_restore 4
 853              		.cfi_def_cfa_offset 0
 854              	.LBB85:
 855              	.LBB73:
ARM GAS  /tmp/ccf22wGX.s 			page 16


 856              		.loc 1 92 18 view .LVU297
 857 0058 042093E5 		ldr	r2, [r3, #4]
 858              		.loc 1 91 14 view .LVU298
 859 005c 003081E5 		str	r3, [r1]
 860              		.loc 1 92 3 is_stmt 1 view .LVU299
 861              		.loc 1 92 14 is_stmt 0 view .LVU300
 862 0060 042081E5 		str	r2, [r1, #4]
 863              		.loc 1 93 3 is_stmt 1 view .LVU301
 864              		.loc 1 93 35 is_stmt 0 view .LVU302
 865 0064 041083E5 		str	r1, [r3, #4]
 866              		.loc 1 93 22 view .LVU303
 867 0068 043091E5 		ldr	r3, [r1, #4]
 868 006c 001083E5 		str	r1, [r3]
 869              		.loc 1 94 3 is_stmt 1 view .LVU304
 870              	.LVL50:
 871              		.loc 1 94 3 is_stmt 0 view .LVU305
 872              	.LBE73:
 873              	.LBE85:
 874              		.loc 1 308 3 is_stmt 1 view .LVU306
 875              		.loc 1 308 3 view .LVU307
 876              		.loc 1 308 3 view .LVU308
 877              		.loc 1 308 3 view .LVU309
 878 0070 FEFFFFEA 		b	_port_switch_arm
 879              	.LVL51:
 880              	.L56:
 881              		.loc 1 308 3 is_stmt 0 view .LVU310
 882              		.align	2
 883              	.L55:
 884 0074 00000000 		.word	rlist
 885              		.cfi_endproc
 886              	.LFE15:
 887              		.size	chSchDoRescheduleBehind, .-chSchDoRescheduleBehind
 888              		.section	.text.chSchDoRescheduleAhead,"ax",%progbits
 889              		.align	2
 890              		.global	chSchDoRescheduleAhead
 891              		.syntax unified
 892              		.arm
 893              		.fpu softvfp
 894              		.type	chSchDoRescheduleAhead, %function
 895              	chSchDoRescheduleAhead:
 896              	.LFB16:
 897              		.loc 1 322 35 is_stmt 1 view -0
 898              		.cfi_startproc
 899              		@ args = 0, pretend = 0, frame = 0
 900              		@ frame_needed = 0, uses_anonymous_args = 0
 901              		.loc 1 323 3 view .LVU312
 902              		.loc 1 325 3 view .LVU313
 903              		.loc 1 322 35 is_stmt 0 view .LVU314
 904 0000 10402DE9 		push	{r4, lr}
 905              		.cfi_def_cfa_offset 8
 906              		.cfi_offset 4, -8
 907              		.cfi_offset 14, -4
 908              		.loc 1 328 18 view .LVU315
 909 0004 0140A0E3 		mov	r4, #1
 910              		.loc 1 330 16 view .LVU316
 911 0008 00E0A0E3 		mov	lr, #0
 912              		.loc 1 325 7 view .LVU317
ARM GAS  /tmp/ccf22wGX.s 			page 17


 913 000c 58209FE5 		ldr	r2, .L62
 914              	.LBB86:
 915              	.LBB87:
 916              		.loc 2 53 11 view .LVU318
 917 0010 000092E5 		ldr	r0, [r2]
 918              	.LBE87:
 919              	.LBE86:
 920              		.loc 1 325 7 view .LVU319
 921 0014 181092E5 		ldr	r1, [r2, #24]
 922              	.LVL52:
 923              		.loc 1 327 3 is_stmt 1 view .LVU320
 924              	.LBB91:
 925              	.LBI86:
 926              		.loc 2 52 23 view .LVU321
 927              	.LBB88:
 928              		.loc 2 53 3 view .LVU322
 929              		.loc 2 55 3 view .LVU323
 930              		.loc 2 55 20 is_stmt 0 view .LVU324
 931 0018 00C090E5 		ldr	ip, [r0]
 932              	.LBE88:
 933              	.LBE91:
 934              		.loc 1 334 28 view .LVU325
 935 001c 0030A0E1 		mov	r3, r0
 936              	.LBB92:
 937              	.LBB89:
 938              		.loc 2 55 38 view .LVU326
 939 0020 04208CE5 		str	r2, [ip, #4]
 940              		.loc 2 56 3 is_stmt 1 view .LVU327
 941              	.LVL53:
 942              		.loc 2 56 3 is_stmt 0 view .LVU328
 943              	.LBE89:
 944              	.LBE92:
 945              		.loc 1 328 18 view .LVU329
 946 0024 1C40C0E5 		strb	r4, [r0, #28]
 947              	.LBB93:
 948              	.LBB90:
 949              		.loc 2 55 16 view .LVU330
 950 0028 00C082E5 		str	ip, [r2]
 951              	.LBE90:
 952              	.LBE93:
 953              		.loc 1 330 16 view .LVU331
 954 002c 1CE0C1E5 		strb	lr, [r1, #28]
 955              		.loc 1 334 28 view .LVU332
 956 0030 08C091E5 		ldr	ip, [r1, #8]
 957              		.loc 1 327 3 view .LVU333
 958 0034 180082E5 		str	r0, [r2, #24]
 959              		.loc 1 328 3 is_stmt 1 view .LVU334
 960              		.loc 1 330 3 view .LVU335
 961              		.loc 1 331 3 view .LVU336
 962              	.LVL54:
 963              		.loc 1 331 3 is_stmt 0 view .LVU337
 964 0038 000000EA 		b	.L59
 965              	.LVL55:
 966              	.L61:
 967              		.loc 1 331 3 view .LVU338
 968 003c 003093E5 		ldr	r3, [r3]
 969              	.L59:
ARM GAS  /tmp/ccf22wGX.s 			page 18


 970              		.loc 1 332 3 is_stmt 1 discriminator 1 view .LVU339
 971              		.loc 1 333 5 discriminator 1 view .LVU340
 972              		.loc 1 334 11 discriminator 1 view .LVU341
 973              		.loc 1 334 3 is_stmt 0 discriminator 1 view .LVU342
 974 0040 082093E5 		ldr	r2, [r3, #8]
 975 0044 0C0052E1 		cmp	r2, ip
 976 0048 FBFFFF8A 		bhi	.L61
 977              		.loc 1 336 3 is_stmt 1 view .LVU343
 978              		.loc 1 341 1 is_stmt 0 view .LVU344
 979 004c 1040BDE8 		pop	{r4, lr}
 980              		.cfi_restore 14
 981              		.cfi_restore 4
 982              		.cfi_def_cfa_offset 0
 983              		.loc 1 337 19 view .LVU345
 984 0050 042093E5 		ldr	r2, [r3, #4]
 985              		.loc 1 336 15 view .LVU346
 986 0054 003081E5 		str	r3, [r1]
 987              		.loc 1 337 3 is_stmt 1 view .LVU347
 988              		.loc 1 337 15 is_stmt 0 view .LVU348
 989 0058 042081E5 		str	r2, [r1, #4]
 990              		.loc 1 338 3 is_stmt 1 view .LVU349
 991              		.loc 1 338 36 is_stmt 0 view .LVU350
 992 005c 041083E5 		str	r1, [r3, #4]
 993              		.loc 1 338 23 view .LVU351
 994 0060 043091E5 		ldr	r3, [r1, #4]
 995 0064 001083E5 		str	r1, [r3]
 996              		.loc 1 340 3 is_stmt 1 view .LVU352
 997              		.loc 1 340 3 view .LVU353
 998              		.loc 1 340 3 view .LVU354
 999              		.loc 1 340 3 view .LVU355
 1000 0068 FEFFFFEA 		b	_port_switch_arm
 1001              	.LVL56:
 1002              	.L63:
 1003              		.loc 1 340 3 is_stmt 0 view .LVU356
 1004              		.align	2
 1005              	.L62:
 1006 006c 00000000 		.word	rlist
 1007              		.cfi_endproc
 1008              	.LFE16:
 1009              		.size	chSchDoRescheduleAhead, .-chSchDoRescheduleAhead
 1010              		.section	.text.chSchRescheduleS,"ax",%progbits
 1011              		.align	2
 1012              		.global	chSchRescheduleS
 1013              		.syntax unified
 1014              		.arm
 1015              		.fpu softvfp
 1016              		.type	chSchRescheduleS, %function
 1017              	chSchRescheduleS:
 1018              	.LFB13:
 1019              		.loc 1 246 29 is_stmt 1 view -0
 1020              		.cfi_startproc
 1021              		@ args = 0, pretend = 0, frame = 0
 1022              		@ frame_needed = 0, uses_anonymous_args = 0
 1023              		@ link register save eliminated.
 1024              		.loc 1 248 3 view .LVU358
 1025              		.loc 1 248 21 view .LVU359
 1026              		.loc 1 250 3 view .LVU360
ARM GAS  /tmp/ccf22wGX.s 			page 19


 1027              		.loc 1 250 7 is_stmt 0 view .LVU361
 1028 0000 18309FE5 		ldr	r3, .L66
 1029 0004 002093E5 		ldr	r2, [r3]
 1030 0008 183093E5 		ldr	r3, [r3, #24]
 1031              		.loc 1 250 6 view .LVU362
 1032 000c 082092E5 		ldr	r2, [r2, #8]
 1033 0010 083093E5 		ldr	r3, [r3, #8]
 1034 0014 030052E1 		cmp	r2, r3
 1035 0018 1EFF2F91 		bxls	lr
 1036              		.loc 1 251 5 is_stmt 1 view .LVU363
 1037 001c FEFFFFEA 		b	chSchDoRescheduleAhead
 1038              	.LVL57:
 1039              	.L67:
 1040              		.align	2
 1041              	.L66:
 1042 0020 00000000 		.word	rlist
 1043              		.cfi_endproc
 1044              	.LFE13:
 1045              		.size	chSchRescheduleS, .-chSchRescheduleS
 1046              		.section	.text.chSchDoReschedule,"ax",%progbits
 1047              		.align	2
 1048              		.global	chSchDoReschedule
 1049              		.syntax unified
 1050              		.arm
 1051              		.fpu softvfp
 1052              		.type	chSchDoReschedule, %function
 1053              	chSchDoReschedule:
 1054              	.LFB17:
 1055              		.loc 1 355 30 view -0
 1056              		.cfi_startproc
 1057              		@ args = 0, pretend = 0, frame = 0
 1058              		@ frame_needed = 0, uses_anonymous_args = 0
 1059              		@ link register save eliminated.
 1060              		.loc 1 360 3 view .LVU365
 1061              		.loc 1 360 7 is_stmt 0 view .LVU366
 1062 0000 14309FE5 		ldr	r3, .L70
 1063              		.loc 1 360 12 view .LVU367
 1064 0004 183093E5 		ldr	r3, [r3, #24]
 1065              		.loc 1 360 6 view .LVU368
 1066 0008 1F30D3E5 		ldrb	r3, [r3, #31]	@ zero_extendqisi2
 1067 000c 000053E3 		cmp	r3, #0
 1068 0010 0000001A 		bne	.L69
 1069              		.loc 1 363 5 is_stmt 1 view .LVU369
 1070 0014 FEFFFFEA 		b	chSchDoRescheduleBehind
 1071              	.LVL58:
 1072              	.L69:
 1073              		.loc 1 368 5 view .LVU370
 1074 0018 FEFFFFEA 		b	chSchDoRescheduleAhead
 1075              	.LVL59:
 1076              	.L71:
 1077              		.align	2
 1078              	.L70:
 1079 001c 00000000 		.word	rlist
 1080              		.cfi_endproc
 1081              	.LFE17:
 1082              		.size	chSchDoReschedule, .-chSchDoReschedule
 1083              		.comm	rlist,28,4
ARM GAS  /tmp/ccf22wGX.s 			page 20


 1084              		.text
 1085              	.Letext0:
 1086              		.file 3 "/usr/lib/gcc/arm-none-eabi/9.2.1/include/stdint.h"
 1087              		.file 4 "../os/ports/GCC/ARM/chtypes.h"
 1088              		.file 5 "../os/kernel/include/chlists.h"
 1089              		.file 6 "../os/kernel/include/chthreads.h"
 1090              		.file 7 "../os/ports/GCC/ARM/chcore.h"
 1091              		.file 8 "../os/kernel/include/chvt.h"
 1092              		.file 9 "../os/kernel/include/chschd.h"
 1093              		.file 10 "../os/kernel/include/chsem.h"
 1094              		.file 11 "../os/kernel/include/chmtx.h"
 1095              		.file 12 "../os/kernel/include/chregistry.h"
 1096              		.file 13 "../os/kernel/include/ch.h"
 1097              		.section	.debug_info,"",%progbits
 1098              	.Ldebug_info0:
 1099 0000 130C0000 		.4byte	0xc13
 1100 0004 0400     		.2byte	0x4
 1101 0006 00000000 		.4byte	.Ldebug_abbrev0
 1102 000a 04       		.byte	0x4
 1103 000b 01       		.uleb128 0x1
 1104 000c 13000000 		.4byte	.LASF114
 1105 0010 0C       		.byte	0xc
 1106 0011 5C040000 		.4byte	.LASF115
 1107 0015 B9040000 		.4byte	.LASF116
 1108 0019 40010000 		.4byte	.Ldebug_ranges0+0x140
 1109 001d 00000000 		.4byte	0
 1110 0021 00000000 		.4byte	.Ldebug_line0
 1111 0025 02       		.uleb128 0x2
 1112 0026 04       		.byte	0x4
 1113 0027 05       		.byte	0x5
 1114 0028 696E7400 		.ascii	"int\000"
 1115 002c 03       		.uleb128 0x3
 1116 002d 04       		.byte	0x4
 1117 002e 07       		.byte	0x7
 1118 002f 60020000 		.4byte	.LASF0
 1119 0033 03       		.uleb128 0x3
 1120 0034 01       		.byte	0x1
 1121 0035 06       		.byte	0x6
 1122 0036 7D010000 		.4byte	.LASF1
 1123 003a 03       		.uleb128 0x3
 1124 003b 02       		.byte	0x2
 1125 003c 05       		.byte	0x5
 1126 003d F4030000 		.4byte	.LASF2
 1127 0041 04       		.uleb128 0x4
 1128 0042 CB030000 		.4byte	.LASF5
 1129 0046 03       		.byte	0x3
 1130 0047 28       		.byte	0x28
 1131 0048 18       		.byte	0x18
 1132 0049 4D000000 		.4byte	0x4d
 1133 004d 03       		.uleb128 0x3
 1134 004e 04       		.byte	0x4
 1135 004f 05       		.byte	0x5
 1136 0050 BF010000 		.4byte	.LASF3
 1137 0054 03       		.uleb128 0x3
 1138 0055 08       		.byte	0x8
 1139 0056 05       		.byte	0x5
 1140 0057 6F010000 		.4byte	.LASF4
ARM GAS  /tmp/ccf22wGX.s 			page 21


 1141 005b 04       		.uleb128 0x4
 1142 005c B0050000 		.4byte	.LASF6
 1143 0060 03       		.byte	0x3
 1144 0061 2E       		.byte	0x2e
 1145 0062 18       		.byte	0x18
 1146 0063 67000000 		.4byte	0x67
 1147 0067 03       		.uleb128 0x3
 1148 0068 01       		.byte	0x1
 1149 0069 08       		.byte	0x8
 1150 006a D3030000 		.4byte	.LASF7
 1151 006e 04       		.uleb128 0x4
 1152 006f D1010000 		.4byte	.LASF8
 1153 0073 03       		.byte	0x3
 1154 0074 31       		.byte	0x31
 1155 0075 19       		.byte	0x19
 1156 0076 7A000000 		.4byte	0x7a
 1157 007a 03       		.uleb128 0x3
 1158 007b 02       		.byte	0x2
 1159 007c 07       		.byte	0x7
 1160 007d B3020000 		.4byte	.LASF9
 1161 0081 04       		.uleb128 0x4
 1162 0082 8F040000 		.4byte	.LASF10
 1163 0086 03       		.byte	0x3
 1164 0087 34       		.byte	0x34
 1165 0088 19       		.byte	0x19
 1166 0089 8D000000 		.4byte	0x8d
 1167 008d 03       		.uleb128 0x3
 1168 008e 04       		.byte	0x4
 1169 008f 07       		.byte	0x7
 1170 0090 7C020000 		.4byte	.LASF11
 1171 0094 03       		.uleb128 0x3
 1172 0095 08       		.byte	0x8
 1173 0096 07       		.byte	0x7
 1174 0097 1D010000 		.4byte	.LASF12
 1175 009b 04       		.uleb128 0x4
 1176 009c A6010000 		.4byte	.LASF13
 1177 00a0 04       		.byte	0x4
 1178 00a1 29       		.byte	0x29
 1179 00a2 19       		.byte	0x19
 1180 00a3 41000000 		.4byte	0x41
 1181 00a7 04       		.uleb128 0x4
 1182 00a8 D9020000 		.4byte	.LASF14
 1183 00ac 04       		.byte	0x4
 1184 00ad 2A       		.byte	0x2a
 1185 00ae 19       		.byte	0x19
 1186 00af 5B000000 		.4byte	0x5b
 1187 00b3 04       		.uleb128 0x4
 1188 00b4 C8010000 		.4byte	.LASF15
 1189 00b8 04       		.byte	0x4
 1190 00b9 2B       		.byte	0x2b
 1191 00ba 19       		.byte	0x19
 1192 00bb 5B000000 		.4byte	0x5b
 1193 00bf 04       		.uleb128 0x4
 1194 00c0 A9030000 		.4byte	.LASF16
 1195 00c4 04       		.byte	0x4
 1196 00c5 2C       		.byte	0x2c
 1197 00c6 19       		.byte	0x19
ARM GAS  /tmp/ccf22wGX.s 			page 22


 1198 00c7 5B000000 		.4byte	0x5b
 1199 00cb 04       		.uleb128 0x4
 1200 00cc B5010000 		.4byte	.LASF17
 1201 00d0 04       		.byte	0x4
 1202 00d1 2D       		.byte	0x2d
 1203 00d2 19       		.byte	0x19
 1204 00d3 5B000000 		.4byte	0x5b
 1205 00d7 04       		.uleb128 0x4
 1206 00d8 C3030000 		.4byte	.LASF18
 1207 00dc 04       		.byte	0x4
 1208 00dd 2E       		.byte	0x2e
 1209 00de 19       		.byte	0x19
 1210 00df 81000000 		.4byte	0x81
 1211 00e3 04       		.uleb128 0x4
 1212 00e4 D3020000 		.4byte	.LASF19
 1213 00e8 04       		.byte	0x4
 1214 00e9 2F       		.byte	0x2f
 1215 00ea 19       		.byte	0x19
 1216 00eb 41000000 		.4byte	0x41
 1217 00ef 04       		.uleb128 0x4
 1218 00f0 ED020000 		.4byte	.LASF20
 1219 00f4 04       		.byte	0x4
 1220 00f5 31       		.byte	0x31
 1221 00f6 19       		.byte	0x19
 1222 00f7 81000000 		.4byte	0x81
 1223 00fb 04       		.uleb128 0x4
 1224 00fc 3B050000 		.4byte	.LASF21
 1225 0100 04       		.byte	0x4
 1226 0101 33       		.byte	0x33
 1227 0102 19       		.byte	0x19
 1228 0103 81000000 		.4byte	0x81
 1229 0107 05       		.uleb128 0x5
 1230 0108 FB000000 		.4byte	0xfb
 1231 010c 04       		.uleb128 0x4
 1232 010d 5A020000 		.4byte	.LASF22
 1233 0111 04       		.byte	0x4
 1234 0112 34       		.byte	0x34
 1235 0113 19       		.byte	0x19
 1236 0114 41000000 		.4byte	0x41
 1237 0118 04       		.uleb128 0x4
 1238 0119 48040000 		.4byte	.LASF23
 1239 011d 05       		.byte	0x5
 1240 011e 23       		.byte	0x23
 1241 011f 17       		.byte	0x17
 1242 0120 24010000 		.4byte	0x124
 1243 0124 06       		.uleb128 0x6
 1244 0125 48040000 		.4byte	.LASF23
 1245 0129 44       		.byte	0x44
 1246 012a 06       		.byte	0x6
 1247 012b 57       		.byte	0x57
 1248 012c 08       		.byte	0x8
 1249 012d 29020000 		.4byte	0x229
 1250 0131 07       		.uleb128 0x7
 1251 0132 2A040000 		.4byte	.LASF24
 1252 0136 06       		.byte	0x6
 1253 0137 58       		.byte	0x58
 1254 0138 1A       		.byte	0x1a
ARM GAS  /tmp/ccf22wGX.s 			page 23


 1255 0139 4D020000 		.4byte	0x24d
 1256 013d 00       		.byte	0
 1257 013e 07       		.uleb128 0x7
 1258 013f BC030000 		.4byte	.LASF25
 1259 0143 06       		.byte	0x6
 1260 0144 5A       		.byte	0x5a
 1261 0145 1A       		.byte	0x1a
 1262 0146 4D020000 		.4byte	0x24d
 1263 014a 04       		.byte	0x4
 1264 014b 07       		.uleb128 0x7
 1265 014c 4B010000 		.4byte	.LASF26
 1266 0150 06       		.byte	0x6
 1267 0151 5C       		.byte	0x5c
 1268 0152 19       		.byte	0x19
 1269 0153 D7000000 		.4byte	0xd7
 1270 0157 08       		.byte	0x8
 1271 0158 07       		.uleb128 0x7
 1272 0159 00060000 		.4byte	.LASF27
 1273 015d 06       		.byte	0x6
 1274 015e 5D       		.byte	0x5d
 1275 015f 19       		.byte	0x19
 1276 0160 18030000 		.4byte	0x318
 1277 0164 0C       		.byte	0xc
 1278 0165 07       		.uleb128 0x7
 1279 0166 FE010000 		.4byte	.LASF28
 1280 016a 06       		.byte	0x6
 1281 016b 5F       		.byte	0x5f
 1282 016c 1A       		.byte	0x1a
 1283 016d 4D020000 		.4byte	0x24d
 1284 0171 10       		.byte	0x10
 1285 0172 07       		.uleb128 0x7
 1286 0173 6F030000 		.4byte	.LASF29
 1287 0177 06       		.byte	0x6
 1288 0178 60       		.byte	0x60
 1289 0179 1A       		.byte	0x1a
 1290 017a 4D020000 		.4byte	0x24d
 1291 017e 14       		.byte	0x14
 1292 017f 07       		.uleb128 0x7
 1293 0180 BF050000 		.4byte	.LASF30
 1294 0184 06       		.byte	0x6
 1295 0185 67       		.byte	0x67
 1296 0186 1A       		.byte	0x1a
 1297 0187 32050000 		.4byte	0x532
 1298 018b 18       		.byte	0x18
 1299 018c 07       		.uleb128 0x7
 1300 018d FE030000 		.4byte	.LASF31
 1301 0191 06       		.byte	0x6
 1302 0192 72       		.byte	0x72
 1303 0193 19       		.byte	0x19
 1304 0194 B3000000 		.4byte	0xb3
 1305 0198 1C       		.byte	0x1c
 1306 0199 07       		.uleb128 0x7
 1307 019a 40040000 		.4byte	.LASF32
 1308 019e 06       		.byte	0x6
 1309 019f 76       		.byte	0x76
 1310 01a0 19       		.byte	0x19
 1311 01a1 A7000000 		.4byte	0xa7
ARM GAS  /tmp/ccf22wGX.s 			page 24


 1312 01a5 1D       		.byte	0x1d
 1313 01a6 07       		.uleb128 0x7
 1314 01a7 8E050000 		.4byte	.LASF33
 1315 01ab 06       		.byte	0x6
 1316 01ac 7B       		.byte	0x7b
 1317 01ad 19       		.byte	0x19
 1318 01ae BF000000 		.4byte	0xbf
 1319 01b2 1E       		.byte	0x1e
 1320 01b3 07       		.uleb128 0x7
 1321 01b4 06040000 		.4byte	.LASF34
 1322 01b8 06       		.byte	0x6
 1323 01b9 81       		.byte	0x81
 1324 01ba 19       		.byte	0x19
 1325 01bb CB000000 		.4byte	0xcb
 1326 01bf 1F       		.byte	0x1f
 1327 01c0 07       		.uleb128 0x7
 1328 01c1 59050000 		.4byte	.LASF35
 1329 01c5 06       		.byte	0x6
 1330 01c6 88       		.byte	0x88
 1331 01c7 19       		.byte	0x19
 1332 01c8 07010000 		.4byte	0x107
 1333 01cc 20       		.byte	0x20
 1334 01cd 08       		.uleb128 0x8
 1335 01ce 705F7500 		.ascii	"p_u\000"
 1336 01d2 06       		.byte	0x6
 1337 01d3 AD       		.byte	0xad
 1338 01d4 19       		.byte	0x19
 1339 01d5 F8040000 		.4byte	0x4f8
 1340 01d9 24       		.byte	0x24
 1341 01da 07       		.uleb128 0x7
 1342 01db 06060000 		.4byte	.LASF36
 1343 01df 06       		.byte	0x6
 1344 01e0 B2       		.byte	0xb2
 1345 01e1 19       		.byte	0x19
 1346 01e2 76020000 		.4byte	0x276
 1347 01e6 28       		.byte	0x28
 1348 01e7 07       		.uleb128 0x7
 1349 01e8 67050000 		.4byte	.LASF37
 1350 01ec 06       		.byte	0x6
 1351 01ed B8       		.byte	0xb8
 1352 01ee 19       		.byte	0x19
 1353 01ef 53020000 		.4byte	0x253
 1354 01f3 2C       		.byte	0x2c
 1355 01f4 07       		.uleb128 0x7
 1356 01f5 0D000000 		.4byte	.LASF38
 1357 01f9 06       		.byte	0x6
 1358 01fa BC       		.byte	0xbc
 1359 01fb 19       		.byte	0x19
 1360 01fc E3000000 		.4byte	0xe3
 1361 0200 34       		.byte	0x34
 1362 0201 07       		.uleb128 0x7
 1363 0202 84040000 		.4byte	.LASF39
 1364 0206 06       		.byte	0x6
 1365 0207 C2       		.byte	0xc2
 1366 0208 19       		.byte	0x19
 1367 0209 EF000000 		.4byte	0xef
 1368 020d 38       		.byte	0x38
ARM GAS  /tmp/ccf22wGX.s 			page 25


 1369 020e 07       		.uleb128 0x7
 1370 020f EA030000 		.4byte	.LASF40
 1371 0213 06       		.byte	0x6
 1372 0214 C9       		.byte	0xc9
 1373 0215 1A       		.byte	0x1a
 1374 0216 44050000 		.4byte	0x544
 1375 021a 3C       		.byte	0x3c
 1376 021b 07       		.uleb128 0x7
 1377 021c 45050000 		.4byte	.LASF41
 1378 0220 06       		.byte	0x6
 1379 0221 CD       		.byte	0xcd
 1380 0222 19       		.byte	0x19
 1381 0223 D7000000 		.4byte	0xd7
 1382 0227 40       		.byte	0x40
 1383 0228 00       		.byte	0
 1384 0229 09       		.uleb128 0x9
 1385 022a 08       		.byte	0x8
 1386 022b 05       		.byte	0x5
 1387 022c 5A       		.byte	0x5a
 1388 022d 09       		.byte	0x9
 1389 022e 4D020000 		.4byte	0x24d
 1390 0232 07       		.uleb128 0x7
 1391 0233 2A040000 		.4byte	.LASF24
 1392 0237 05       		.byte	0x5
 1393 0238 5B       		.byte	0x5b
 1394 0239 1A       		.byte	0x1a
 1395 023a 4D020000 		.4byte	0x24d
 1396 023e 00       		.byte	0
 1397 023f 07       		.uleb128 0x7
 1398 0240 BC030000 		.4byte	.LASF25
 1399 0244 05       		.byte	0x5
 1400 0245 5D       		.byte	0x5d
 1401 0246 1A       		.byte	0x1a
 1402 0247 4D020000 		.4byte	0x24d
 1403 024b 04       		.byte	0x4
 1404 024c 00       		.byte	0
 1405 024d 0A       		.uleb128 0xa
 1406 024e 04       		.byte	0x4
 1407 024f 18010000 		.4byte	0x118
 1408 0253 04       		.uleb128 0x4
 1409 0254 7D030000 		.4byte	.LASF42
 1410 0258 05       		.byte	0x5
 1411 0259 5F       		.byte	0x5f
 1412 025a 03       		.byte	0x3
 1413 025b 29020000 		.4byte	0x229
 1414 025f 09       		.uleb128 0x9
 1415 0260 04       		.byte	0x4
 1416 0261 05       		.byte	0x5
 1417 0262 64       		.byte	0x64
 1418 0263 09       		.byte	0x9
 1419 0264 76020000 		.4byte	0x276
 1420 0268 07       		.uleb128 0x7
 1421 0269 2A040000 		.4byte	.LASF24
 1422 026d 05       		.byte	0x5
 1423 026e 66       		.byte	0x66
 1424 026f 16       		.byte	0x16
 1425 0270 4D020000 		.4byte	0x24d
ARM GAS  /tmp/ccf22wGX.s 			page 26


 1426 0274 00       		.byte	0
 1427 0275 00       		.byte	0
 1428 0276 04       		.uleb128 0x4
 1429 0277 E1020000 		.4byte	.LASF43
 1430 027b 05       		.byte	0x5
 1431 027c 69       		.byte	0x69
 1432 027d 03       		.byte	0x3
 1433 027e 5F020000 		.4byte	0x25f
 1434 0282 04       		.uleb128 0x4
 1435 0283 FF020000 		.4byte	.LASF44
 1436 0287 07       		.byte	0x7
 1437 0288 9D       		.byte	0x9d
 1438 0289 12       		.byte	0x12
 1439 028a 81000000 		.4byte	0x81
 1440 028e 04       		.uleb128 0x4
 1441 028f 37020000 		.4byte	.LASF45
 1442 0293 07       		.byte	0x7
 1443 0294 A2       		.byte	0xa2
 1444 0295 0F       		.byte	0xf
 1445 0296 9A020000 		.4byte	0x29a
 1446 029a 0B       		.uleb128 0xb
 1447 029b 04       		.byte	0x4
 1448 029c 06       		.uleb128 0x6
 1449 029d 60050000 		.4byte	.LASF46
 1450 02a1 24       		.byte	0x24
 1451 02a2 07       		.byte	0x7
 1452 02a3 B9       		.byte	0xb9
 1453 02a4 08       		.byte	0x8
 1454 02a5 18030000 		.4byte	0x318
 1455 02a9 08       		.uleb128 0x8
 1456 02aa 723400   		.ascii	"r4\000"
 1457 02ad 07       		.byte	0x7
 1458 02ae BA       		.byte	0xba
 1459 02af 11       		.byte	0x11
 1460 02b0 8E020000 		.4byte	0x28e
 1461 02b4 00       		.byte	0
 1462 02b5 08       		.uleb128 0x8
 1463 02b6 723500   		.ascii	"r5\000"
 1464 02b9 07       		.byte	0x7
 1465 02ba BB       		.byte	0xbb
 1466 02bb 11       		.byte	0x11
 1467 02bc 8E020000 		.4byte	0x28e
 1468 02c0 04       		.byte	0x4
 1469 02c1 08       		.uleb128 0x8
 1470 02c2 723600   		.ascii	"r6\000"
 1471 02c5 07       		.byte	0x7
 1472 02c6 BC       		.byte	0xbc
 1473 02c7 11       		.byte	0x11
 1474 02c8 8E020000 		.4byte	0x28e
 1475 02cc 08       		.byte	0x8
 1476 02cd 08       		.uleb128 0x8
 1477 02ce 723700   		.ascii	"r7\000"
 1478 02d1 07       		.byte	0x7
 1479 02d2 BD       		.byte	0xbd
 1480 02d3 11       		.byte	0x11
 1481 02d4 8E020000 		.4byte	0x28e
 1482 02d8 0C       		.byte	0xc
ARM GAS  /tmp/ccf22wGX.s 			page 27


 1483 02d9 08       		.uleb128 0x8
 1484 02da 723800   		.ascii	"r8\000"
 1485 02dd 07       		.byte	0x7
 1486 02de BE       		.byte	0xbe
 1487 02df 11       		.byte	0x11
 1488 02e0 8E020000 		.4byte	0x28e
 1489 02e4 10       		.byte	0x10
 1490 02e5 08       		.uleb128 0x8
 1491 02e6 723900   		.ascii	"r9\000"
 1492 02e9 07       		.byte	0x7
 1493 02ea BF       		.byte	0xbf
 1494 02eb 11       		.byte	0x11
 1495 02ec 8E020000 		.4byte	0x28e
 1496 02f0 14       		.byte	0x14
 1497 02f1 08       		.uleb128 0x8
 1498 02f2 72313000 		.ascii	"r10\000"
 1499 02f6 07       		.byte	0x7
 1500 02f7 C0       		.byte	0xc0
 1501 02f8 11       		.byte	0x11
 1502 02f9 8E020000 		.4byte	0x28e
 1503 02fd 18       		.byte	0x18
 1504 02fe 08       		.uleb128 0x8
 1505 02ff 72313100 		.ascii	"r11\000"
 1506 0303 07       		.byte	0x7
 1507 0304 C1       		.byte	0xc1
 1508 0305 11       		.byte	0x11
 1509 0306 8E020000 		.4byte	0x28e
 1510 030a 1C       		.byte	0x1c
 1511 030b 08       		.uleb128 0x8
 1512 030c 6C7200   		.ascii	"lr\000"
 1513 030f 07       		.byte	0x7
 1514 0310 C2       		.byte	0xc2
 1515 0311 11       		.byte	0x11
 1516 0312 8E020000 		.4byte	0x28e
 1517 0316 20       		.byte	0x20
 1518 0317 00       		.byte	0
 1519 0318 06       		.uleb128 0x6
 1520 0319 AB020000 		.4byte	.LASF47
 1521 031d 04       		.byte	0x4
 1522 031e 07       		.byte	0x7
 1523 031f CA       		.byte	0xca
 1524 0320 08       		.byte	0x8
 1525 0321 33030000 		.4byte	0x333
 1526 0325 08       		.uleb128 0x8
 1527 0326 72313300 		.ascii	"r13\000"
 1528 032a 07       		.byte	0x7
 1529 032b CB       		.byte	0xcb
 1530 032c 12       		.byte	0x12
 1531 032d 33030000 		.4byte	0x333
 1532 0331 00       		.byte	0
 1533 0332 00       		.byte	0
 1534 0333 0A       		.uleb128 0xa
 1535 0334 04       		.byte	0x4
 1536 0335 9C020000 		.4byte	0x29c
 1537 0339 04       		.uleb128 0x4
 1538 033a 50050000 		.4byte	.LASF48
 1539 033e 08       		.byte	0x8
ARM GAS  /tmp/ccf22wGX.s 			page 28


 1540 033f 4E       		.byte	0x4e
 1541 0340 10       		.byte	0x10
 1542 0341 45030000 		.4byte	0x345
 1543 0345 0A       		.uleb128 0xa
 1544 0346 04       		.byte	0x4
 1545 0347 4B030000 		.4byte	0x34b
 1546 034b 0C       		.uleb128 0xc
 1547 034c 56030000 		.4byte	0x356
 1548 0350 0D       		.uleb128 0xd
 1549 0351 9A020000 		.4byte	0x29a
 1550 0355 00       		.byte	0
 1551 0356 04       		.uleb128 0x4
 1552 0357 AC040000 		.4byte	.LASF49
 1553 035b 08       		.byte	0x8
 1554 035c 53       		.byte	0x53
 1555 035d 1D       		.byte	0x1d
 1556 035e 62030000 		.4byte	0x362
 1557 0362 06       		.uleb128 0x6
 1558 0363 AC040000 		.4byte	.LASF49
 1559 0367 14       		.byte	0x14
 1560 0368 08       		.byte	0x8
 1561 0369 5A       		.byte	0x5a
 1562 036a 08       		.byte	0x8
 1563 036b B1030000 		.4byte	0x3b1
 1564 036f 07       		.uleb128 0x7
 1565 0370 74020000 		.4byte	.LASF50
 1566 0374 08       		.byte	0x8
 1567 0375 5B       		.byte	0x5b
 1568 0376 1A       		.byte	0x1a
 1569 0377 B1030000 		.4byte	0x3b1
 1570 037b 00       		.byte	0
 1571 037c 07       		.uleb128 0x7
 1572 037d 40020000 		.4byte	.LASF51
 1573 0381 08       		.byte	0x8
 1574 0382 5D       		.byte	0x5d
 1575 0383 1A       		.byte	0x1a
 1576 0384 B1030000 		.4byte	0x3b1
 1577 0388 04       		.byte	0x4
 1578 0389 07       		.uleb128 0x7
 1579 038a 1E030000 		.4byte	.LASF52
 1580 038e 08       		.byte	0x8
 1581 038f 5F       		.byte	0x5f
 1582 0390 19       		.byte	0x19
 1583 0391 FB000000 		.4byte	0xfb
 1584 0395 08       		.byte	0x8
 1585 0396 07       		.uleb128 0x7
 1586 0397 26030000 		.4byte	.LASF53
 1587 039b 08       		.byte	0x8
 1588 039c 60       		.byte	0x60
 1589 039d 19       		.byte	0x19
 1590 039e 39030000 		.4byte	0x339
 1591 03a2 0C       		.byte	0xc
 1592 03a3 07       		.uleb128 0x7
 1593 03a4 72050000 		.4byte	.LASF54
 1594 03a8 08       		.byte	0x8
 1595 03a9 62       		.byte	0x62
 1596 03aa 1A       		.byte	0x1a
ARM GAS  /tmp/ccf22wGX.s 			page 29


 1597 03ab 9A020000 		.4byte	0x29a
 1598 03af 10       		.byte	0x10
 1599 03b0 00       		.byte	0
 1600 03b1 0A       		.uleb128 0xa
 1601 03b2 04       		.byte	0x4
 1602 03b3 56030000 		.4byte	0x356
 1603 03b7 09       		.uleb128 0x9
 1604 03b8 10       		.byte	0x10
 1605 03b9 08       		.byte	0x8
 1606 03ba 6C       		.byte	0x6c
 1607 03bb 09       		.byte	0x9
 1608 03bc F5030000 		.4byte	0x3f5
 1609 03c0 07       		.uleb128 0x7
 1610 03c1 74020000 		.4byte	.LASF50
 1611 03c5 08       		.byte	0x8
 1612 03c6 6D       		.byte	0x6d
 1613 03c7 1A       		.byte	0x1a
 1614 03c8 B1030000 		.4byte	0x3b1
 1615 03cc 00       		.byte	0
 1616 03cd 07       		.uleb128 0x7
 1617 03ce 40020000 		.4byte	.LASF51
 1618 03d2 08       		.byte	0x8
 1619 03d3 6F       		.byte	0x6f
 1620 03d4 1A       		.byte	0x1a
 1621 03d5 B1030000 		.4byte	0x3b1
 1622 03d9 04       		.byte	0x4
 1623 03da 07       		.uleb128 0x7
 1624 03db 1E030000 		.4byte	.LASF52
 1625 03df 08       		.byte	0x8
 1626 03e0 71       		.byte	0x71
 1627 03e1 19       		.byte	0x19
 1628 03e2 FB000000 		.4byte	0xfb
 1629 03e6 08       		.byte	0x8
 1630 03e7 07       		.uleb128 0x7
 1631 03e8 C6050000 		.4byte	.LASF55
 1632 03ec 08       		.byte	0x8
 1633 03ed 72       		.byte	0x72
 1634 03ee 19       		.byte	0x19
 1635 03ef 07010000 		.4byte	0x107
 1636 03f3 0C       		.byte	0xc
 1637 03f4 00       		.byte	0
 1638 03f5 04       		.uleb128 0x4
 1639 03f6 F1050000 		.4byte	.LASF56
 1640 03fa 08       		.byte	0x8
 1641 03fb 73       		.byte	0x73
 1642 03fc 03       		.byte	0x3
 1643 03fd B7030000 		.4byte	0x3b7
 1644 0401 0E       		.uleb128 0xe
 1645 0402 16010000 		.4byte	.LASF64
 1646 0406 08       		.byte	0x8
 1647 0407 D1       		.byte	0xd1
 1648 0408 0F       		.byte	0xf
 1649 0409 F5030000 		.4byte	0x3f5
 1650 040d 09       		.uleb128 0x9
 1651 040e 1C       		.byte	0x1c
 1652 040f 09       		.byte	0x9
 1653 0410 57       		.byte	0x57
ARM GAS  /tmp/ccf22wGX.s 			page 30


 1654 0411 09       		.byte	0x9
 1655 0412 65040000 		.4byte	0x465
 1656 0416 07       		.uleb128 0x7
 1657 0417 A4040000 		.4byte	.LASF57
 1658 041b 09       		.byte	0x9
 1659 041c 58       		.byte	0x58
 1660 041d 19       		.byte	0x19
 1661 041e 53020000 		.4byte	0x253
 1662 0422 00       		.byte	0
 1663 0423 07       		.uleb128 0x7
 1664 0424 1C040000 		.4byte	.LASF58
 1665 0428 09       		.byte	0x9
 1666 0429 59       		.byte	0x59
 1667 042a 19       		.byte	0x19
 1668 042b D7000000 		.4byte	0xd7
 1669 042f 08       		.byte	0x8
 1670 0430 07       		.uleb128 0x7
 1671 0431 77030000 		.4byte	.LASF59
 1672 0435 09       		.byte	0x9
 1673 0436 5B       		.byte	0x5b
 1674 0437 19       		.byte	0x19
 1675 0438 18030000 		.4byte	0x318
 1676 043c 0C       		.byte	0xc
 1677 043d 07       		.uleb128 0x7
 1678 043e 2F020000 		.4byte	.LASF60
 1679 0442 09       		.byte	0x9
 1680 0443 5E       		.byte	0x5e
 1681 0444 1A       		.byte	0x1a
 1682 0445 4D020000 		.4byte	0x24d
 1683 0449 10       		.byte	0x10
 1684 044a 07       		.uleb128 0x7
 1685 044b A1030000 		.4byte	.LASF61
 1686 044f 09       		.byte	0x9
 1687 0450 5F       		.byte	0x5f
 1688 0451 1A       		.byte	0x1a
 1689 0452 4D020000 		.4byte	0x24d
 1690 0456 14       		.byte	0x14
 1691 0457 07       		.uleb128 0x7
 1692 0458 97030000 		.4byte	.LASF62
 1693 045c 09       		.byte	0x9
 1694 045d 62       		.byte	0x62
 1695 045e 1A       		.byte	0x1a
 1696 045f 4D020000 		.4byte	0x24d
 1697 0463 18       		.byte	0x18
 1698 0464 00       		.byte	0
 1699 0465 04       		.uleb128 0x4
 1700 0466 A0050000 		.4byte	.LASF63
 1701 046a 09       		.byte	0x9
 1702 046b 64       		.byte	0x64
 1703 046c 03       		.byte	0x3
 1704 046d 0D040000 		.4byte	0x40d
 1705 0471 0E       		.uleb128 0xe
 1706 0472 AA050000 		.4byte	.LASF65
 1707 0476 09       		.byte	0x9
 1708 0477 68       		.byte	0x68
 1709 0478 12       		.byte	0x12
 1710 0479 65040000 		.4byte	0x465
ARM GAS  /tmp/ccf22wGX.s 			page 31


 1711 047d 06       		.uleb128 0x6
 1712 047e 79050000 		.4byte	.LASF66
 1713 0482 0C       		.byte	0xc
 1714 0483 0A       		.byte	0xa
 1715 0484 25       		.byte	0x25
 1716 0485 10       		.byte	0x10
 1717 0486 A5040000 		.4byte	0x4a5
 1718 048a 07       		.uleb128 0x7
 1719 048b 16020000 		.4byte	.LASF67
 1720 048f 0A       		.byte	0xa
 1721 0490 26       		.byte	0x26
 1722 0491 19       		.byte	0x19
 1723 0492 53020000 		.4byte	0x253
 1724 0496 00       		.byte	0
 1725 0497 07       		.uleb128 0x7
 1726 0498 A5020000 		.4byte	.LASF68
 1727 049c 0A       		.byte	0xa
 1728 049d 28       		.byte	0x28
 1729 049e 19       		.byte	0x19
 1730 049f 0C010000 		.4byte	0x10c
 1731 04a3 08       		.byte	0x8
 1732 04a4 00       		.byte	0
 1733 04a5 04       		.uleb128 0x4
 1734 04a6 79050000 		.4byte	.LASF66
 1735 04aa 0A       		.byte	0xa
 1736 04ab 29       		.byte	0x29
 1737 04ac 03       		.byte	0x3
 1738 04ad 7D040000 		.4byte	0x47d
 1739 04b1 06       		.uleb128 0x6
 1740 04b2 F9020000 		.4byte	.LASF69
 1741 04b6 10       		.byte	0x10
 1742 04b7 0B       		.byte	0xb
 1743 04b8 25       		.byte	0x25
 1744 04b9 10       		.byte	0x10
 1745 04ba E6040000 		.4byte	0x4e6
 1746 04be 07       		.uleb128 0x7
 1747 04bf AD010000 		.4byte	.LASF70
 1748 04c3 0B       		.byte	0xb
 1749 04c4 26       		.byte	0x26
 1750 04c5 19       		.byte	0x19
 1751 04c6 53020000 		.4byte	0x253
 1752 04ca 00       		.byte	0
 1753 04cb 07       		.uleb128 0x7
 1754 04cc F8050000 		.4byte	.LASF71
 1755 04d0 0B       		.byte	0xb
 1756 04d1 28       		.byte	0x28
 1757 04d2 1A       		.byte	0x1a
 1758 04d3 4D020000 		.4byte	0x24d
 1759 04d7 08       		.byte	0x8
 1760 04d8 07       		.uleb128 0x7
 1761 04d9 34050000 		.4byte	.LASF72
 1762 04dd 0B       		.byte	0xb
 1763 04de 2A       		.byte	0x2a
 1764 04df 1A       		.byte	0x1a
 1765 04e0 E6040000 		.4byte	0x4e6
 1766 04e4 0C       		.byte	0xc
 1767 04e5 00       		.byte	0
ARM GAS  /tmp/ccf22wGX.s 			page 32


 1768 04e6 0A       		.uleb128 0xa
 1769 04e7 04       		.byte	0x4
 1770 04e8 B1040000 		.4byte	0x4b1
 1771 04ec 04       		.uleb128 0x4
 1772 04ed F9020000 		.4byte	.LASF69
 1773 04f1 0B       		.byte	0xb
 1774 04f2 2C       		.byte	0x2c
 1775 04f3 03       		.byte	0x3
 1776 04f4 B1040000 		.4byte	0x4b1
 1777 04f8 0F       		.uleb128 0xf
 1778 04f9 04       		.byte	0x4
 1779 04fa 06       		.byte	0x6
 1780 04fb 8F       		.byte	0x8f
 1781 04fc 03       		.byte	0x3
 1782 04fd 32050000 		.4byte	0x532
 1783 0501 10       		.uleb128 0x10
 1784 0502 E7000000 		.4byte	.LASF73
 1785 0506 06       		.byte	0x6
 1786 0507 96       		.byte	0x96
 1787 0508 19       		.byte	0x19
 1788 0509 E3000000 		.4byte	0xe3
 1789 050d 10       		.uleb128 0x10
 1790 050e 42010000 		.4byte	.LASF74
 1791 0512 06       		.byte	0x6
 1792 0513 9D       		.byte	0x9d
 1793 0514 19       		.byte	0x19
 1794 0515 E3000000 		.4byte	0xe3
 1795 0519 10       		.uleb128 0x10
 1796 051a B8050000 		.4byte	.LASF75
 1797 051e 06       		.byte	0x6
 1798 051f A4       		.byte	0xa4
 1799 0520 1A       		.byte	0x1a
 1800 0521 9A020000 		.4byte	0x29a
 1801 0525 10       		.uleb128 0x10
 1802 0526 23040000 		.4byte	.LASF76
 1803 052a 06       		.byte	0x6
 1804 052b AB       		.byte	0xab
 1805 052c 19       		.byte	0x19
 1806 052d EF000000 		.4byte	0xef
 1807 0531 00       		.byte	0
 1808 0532 0A       		.uleb128 0xa
 1809 0533 04       		.byte	0x4
 1810 0534 3F050000 		.4byte	0x53f
 1811 0538 03       		.uleb128 0x3
 1812 0539 01       		.byte	0x1
 1813 053a 08       		.byte	0x8
 1814 053b 17050000 		.4byte	.LASF77
 1815 053f 11       		.uleb128 0x11
 1816 0540 38050000 		.4byte	0x538
 1817 0544 0A       		.uleb128 0xa
 1818 0545 04       		.byte	0x4
 1819 0546 EC040000 		.4byte	0x4ec
 1820 054a 09       		.uleb128 0x9
 1821 054b 16       		.byte	0x16
 1822 054c 0C       		.byte	0xc
 1823 054d 25       		.byte	0x25
 1824 054e 09       		.byte	0x9
ARM GAS  /tmp/ccf22wGX.s 			page 33


 1825 054f 3E060000 		.4byte	0x63e
 1826 0553 07       		.uleb128 0x7
 1827 0554 97020000 		.4byte	.LASF78
 1828 0558 0C       		.byte	0xc
 1829 0559 26       		.byte	0x26
 1830 055a 0D       		.byte	0xd
 1831 055b 3E060000 		.4byte	0x63e
 1832 055f 00       		.byte	0
 1833 0560 07       		.uleb128 0x7
 1834 0561 0A030000 		.4byte	.LASF79
 1835 0565 0C       		.byte	0xc
 1836 0566 27       		.byte	0x27
 1837 0567 0D       		.byte	0xd
 1838 0568 5B000000 		.4byte	0x5b
 1839 056c 04       		.byte	0x4
 1840 056d 07       		.uleb128 0x7
 1841 056e 8A030000 		.4byte	.LASF80
 1842 0572 0C       		.byte	0xc
 1843 0573 28       		.byte	0x28
 1844 0574 0D       		.byte	0xd
 1845 0575 5B000000 		.4byte	0x5b
 1846 0579 05       		.byte	0x5
 1847 057a 07       		.uleb128 0x7
 1848 057b E6050000 		.4byte	.LASF81
 1849 057f 0C       		.byte	0xc
 1850 0580 29       		.byte	0x29
 1851 0581 0D       		.byte	0xd
 1852 0582 6E000000 		.4byte	0x6e
 1853 0586 06       		.byte	0x6
 1854 0587 07       		.uleb128 0x7
 1855 0588 B1030000 		.4byte	.LASF82
 1856 058c 0C       		.byte	0xc
 1857 058d 2A       		.byte	0x2a
 1858 058e 0D       		.byte	0xd
 1859 058f 5B000000 		.4byte	0x5b
 1860 0593 08       		.byte	0x8
 1861 0594 07       		.uleb128 0x7
 1862 0595 2E030000 		.4byte	.LASF83
 1863 0599 0C       		.byte	0xc
 1864 059a 2B       		.byte	0x2b
 1865 059b 0D       		.byte	0xd
 1866 059c 5B000000 		.4byte	0x5b
 1867 05a0 09       		.byte	0x9
 1868 05a1 07       		.uleb128 0x7
 1869 05a2 34010000 		.4byte	.LASF84
 1870 05a6 0C       		.byte	0xc
 1871 05a7 2C       		.byte	0x2c
 1872 05a8 0D       		.byte	0xd
 1873 05a9 5B000000 		.4byte	0x5b
 1874 05ad 0A       		.byte	0xa
 1875 05ae 07       		.uleb128 0x7
 1876 05af 98040000 		.4byte	.LASF85
 1877 05b3 0C       		.byte	0xc
 1878 05b4 2D       		.byte	0x2d
 1879 05b5 0D       		.byte	0xd
 1880 05b6 5B000000 		.4byte	0x5b
 1881 05ba 0B       		.byte	0xb
ARM GAS  /tmp/ccf22wGX.s 			page 34


 1882 05bb 07       		.uleb128 0x7
 1883 05bc 83050000 		.4byte	.LASF86
 1884 05c0 0C       		.byte	0xc
 1885 05c1 2E       		.byte	0x2e
 1886 05c2 0D       		.byte	0xd
 1887 05c3 5B000000 		.4byte	0x5b
 1888 05c7 0C       		.byte	0xc
 1889 05c8 07       		.uleb128 0x7
 1890 05c9 4F040000 		.4byte	.LASF87
 1891 05cd 0C       		.byte	0xc
 1892 05ce 2F       		.byte	0x2f
 1893 05cf 0D       		.byte	0xd
 1894 05d0 5B000000 		.4byte	0x5b
 1895 05d4 0D       		.byte	0xd
 1896 05d5 07       		.uleb128 0x7
 1897 05d6 00000000 		.4byte	.LASF88
 1898 05da 0C       		.byte	0xc
 1899 05db 30       		.byte	0x30
 1900 05dc 0D       		.byte	0xd
 1901 05dd 5B000000 		.4byte	0x5b
 1902 05e1 0E       		.byte	0xe
 1903 05e2 07       		.uleb128 0x7
 1904 05e3 5A030000 		.4byte	.LASF89
 1905 05e7 0C       		.byte	0xc
 1906 05e8 31       		.byte	0x31
 1907 05e9 0D       		.byte	0xd
 1908 05ea 5B000000 		.4byte	0x5b
 1909 05ee 0F       		.byte	0xf
 1910 05ef 07       		.uleb128 0x7
 1911 05f0 89010000 		.4byte	.LASF90
 1912 05f4 0C       		.byte	0xc
 1913 05f5 32       		.byte	0x32
 1914 05f6 0D       		.byte	0xd
 1915 05f7 5B000000 		.4byte	0x5b
 1916 05fb 10       		.byte	0x10
 1917 05fc 07       		.uleb128 0x7
 1918 05fd 52010000 		.4byte	.LASF91
 1919 0601 0C       		.byte	0xc
 1920 0602 34       		.byte	0x34
 1921 0603 0D       		.byte	0xd
 1922 0604 5B000000 		.4byte	0x5b
 1923 0608 11       		.byte	0x11
 1924 0609 07       		.uleb128 0x7
 1925 060a 99010000 		.4byte	.LASF92
 1926 060e 0C       		.byte	0xc
 1927 060f 35       		.byte	0x35
 1928 0610 0D       		.byte	0xd
 1929 0611 5B000000 		.4byte	0x5b
 1930 0615 12       		.byte	0x12
 1931 0616 07       		.uleb128 0x7
 1932 0617 12030000 		.4byte	.LASF93
 1933 061b 0C       		.byte	0xc
 1934 061c 36       		.byte	0x36
 1935 061d 0D       		.byte	0xd
 1936 061e 5B000000 		.4byte	0x5b
 1937 0622 13       		.byte	0x13
 1938 0623 07       		.uleb128 0x7
ARM GAS  /tmp/ccf22wGX.s 			page 35


 1939 0624 31040000 		.4byte	.LASF94
 1940 0628 0C       		.byte	0xc
 1941 0629 37       		.byte	0x37
 1942 062a 0D       		.byte	0xd
 1943 062b 5B000000 		.4byte	0x5b
 1944 062f 14       		.byte	0x14
 1945 0630 07       		.uleb128 0x7
 1946 0631 10040000 		.4byte	.LASF95
 1947 0635 0C       		.byte	0xc
 1948 0636 39       		.byte	0x39
 1949 0637 0D       		.byte	0xd
 1950 0638 5B000000 		.4byte	0x5b
 1951 063c 15       		.byte	0x15
 1952 063d 00       		.byte	0
 1953 063e 12       		.uleb128 0x12
 1954 063f 38050000 		.4byte	0x538
 1955 0643 4E060000 		.4byte	0x64e
 1956 0647 13       		.uleb128 0x13
 1957 0648 2C000000 		.4byte	0x2c
 1958 064c 03       		.byte	0x3
 1959 064d 00       		.byte	0
 1960 064e 04       		.uleb128 0x4
 1961 064f DA010000 		.4byte	.LASF96
 1962 0653 0C       		.byte	0xc
 1963 0654 3A       		.byte	0x3a
 1964 0655 03       		.byte	0x3
 1965 0656 4A050000 		.4byte	0x54a
 1966 065a 11       		.uleb128 0x11
 1967 065b 4E060000 		.4byte	0x64e
 1968 065f 0E       		.uleb128 0xe
 1969 0660 8E020000 		.4byte	.LASF97
 1970 0664 0C       		.byte	0xc
 1971 0665 77       		.byte	0x77
 1972 0666 1D       		.byte	0x1d
 1973 0667 5A060000 		.4byte	0x65a
 1974 066b 12       		.uleb128 0x12
 1975 066c 82020000 		.4byte	0x282
 1976 0670 7B060000 		.4byte	0x67b
 1977 0674 13       		.uleb128 0x13
 1978 0675 2C000000 		.4byte	0x2c
 1979 0679 26       		.byte	0x26
 1980 067a 00       		.byte	0
 1981 067b 0E       		.uleb128 0xe
 1982 067c 06020000 		.4byte	.LASF98
 1983 0680 0D       		.byte	0xd
 1984 0681 82       		.byte	0x82
 1985 0682 08       		.byte	0x8
 1986 0683 6B060000 		.4byte	0x66b
 1987 0687 14       		.uleb128 0x14
 1988 0688 71040000 		.4byte	0x471
 1989 068c 01       		.byte	0x1
 1990 068d 28       		.byte	0x28
 1991 068e 0B       		.byte	0xb
 1992 068f 05       		.uleb128 0x5
 1993 0690 03       		.byte	0x3
 1994 0691 00000000 		.4byte	rlist
 1995 0695 15       		.uleb128 0x15
ARM GAS  /tmp/ccf22wGX.s 			page 36


 1996 0696 48020000 		.4byte	.LASF99
 1997 069a 01       		.byte	0x1
 1998 069b 6301     		.2byte	0x163
 1999 069d 06       		.byte	0x6
 2000 069e 00000000 		.4byte	.LFB17
 2001 06a2 20000000 		.4byte	.LFE17-.LFB17
 2002 06a6 01       		.uleb128 0x1
 2003 06a7 9C       		.byte	0x9c
 2004 06a8 BF060000 		.4byte	0x6bf
 2005 06ac 16       		.uleb128 0x16
 2006 06ad 18000000 		.4byte	.LVL58
 2007 06b1 40070000 		.4byte	0x740
 2008 06b5 16       		.uleb128 0x16
 2009 06b6 1C000000 		.4byte	.LVL59
 2010 06ba BF060000 		.4byte	0x6bf
 2011 06be 00       		.byte	0
 2012 06bf 15       		.uleb128 0x15
 2013 06c0 EE000000 		.4byte	.LASF100
 2014 06c4 01       		.byte	0x1
 2015 06c5 4201     		.2byte	0x142
 2016 06c7 06       		.byte	0x6
 2017 06c8 00000000 		.4byte	.LFB16
 2018 06cc 70000000 		.4byte	.LFE16-.LFB16
 2019 06d0 01       		.uleb128 0x1
 2020 06d1 9C       		.byte	0x9c
 2021 06d2 40070000 		.4byte	0x740
 2022 06d6 17       		.uleb128 0x17
 2023 06d7 6F747000 		.ascii	"otp\000"
 2024 06db 01       		.byte	0x1
 2025 06dc 4301     		.2byte	0x143
 2026 06de 0B       		.byte	0xb
 2027 06df 4D020000 		.4byte	0x24d
 2028 06e3 02000000 		.4byte	.LLST27
 2029 06e7 00000000 		.4byte	.LVUS27
 2030 06eb 17       		.uleb128 0x17
 2031 06ec 637000   		.ascii	"cp\000"
 2032 06ef 01       		.byte	0x1
 2033 06f0 4301     		.2byte	0x143
 2034 06f2 11       		.byte	0x11
 2035 06f3 4D020000 		.4byte	0x24d
 2036 06f7 17000000 		.4byte	.LLST28
 2037 06fb 15000000 		.4byte	.LVUS28
 2038 06ff 18       		.uleb128 0x18
 2039 0700 C60A0000 		.4byte	0xac6
 2040 0704 18000000 		.4byte	.LBI86
 2041 0708 01       		.byte	.LVU321
 2042 0709 18010000 		.4byte	.Ldebug_ranges0+0x118
 2043 070d 01       		.byte	0x1
 2044 070e 4701     		.2byte	0x147
 2045 0710 03       		.byte	0x3
 2046 0711 36070000 		.4byte	0x736
 2047 0715 19       		.uleb128 0x19
 2048 0716 D70A0000 		.4byte	0xad7
 2049 071a 31000000 		.4byte	.LLST29
 2050 071e 2F000000 		.4byte	.LVUS29
 2051 0722 1A       		.uleb128 0x1a
 2052 0723 18010000 		.4byte	.Ldebug_ranges0+0x118
ARM GAS  /tmp/ccf22wGX.s 			page 37


 2053 0727 1B       		.uleb128 0x1b
 2054 0728 E30A0000 		.4byte	0xae3
 2055 072c 4B000000 		.4byte	.LLST30
 2056 0730 49000000 		.4byte	.LVUS30
 2057 0734 00       		.byte	0
 2058 0735 00       		.byte	0
 2059 0736 16       		.uleb128 0x16
 2060 0737 6C000000 		.4byte	.LVL56
 2061 073b F10B0000 		.4byte	0xbf1
 2062 073f 00       		.byte	0
 2063 0740 15       		.uleb128 0x15
 2064 0741 42030000 		.4byte	.LASF101
 2065 0745 01       		.byte	0x1
 2066 0746 2901     		.2byte	0x129
 2067 0748 06       		.byte	0x6
 2068 0749 00000000 		.4byte	.LFB15
 2069 074d 78000000 		.4byte	.LFE15-.LFB15
 2070 0751 01       		.uleb128 0x1
 2071 0752 9C       		.byte	0x9c
 2072 0753 E4070000 		.4byte	0x7e4
 2073 0757 17       		.uleb128 0x17
 2074 0758 6F747000 		.ascii	"otp\000"
 2075 075c 01       		.byte	0x1
 2076 075d 2A01     		.2byte	0x12a
 2077 075f 0B       		.byte	0xb
 2078 0760 4D020000 		.4byte	0x24d
 2079 0764 60000000 		.4byte	.LLST22
 2080 0768 5E000000 		.4byte	.LVUS22
 2081 076c 18       		.uleb128 0x18
 2082 076d 6F0A0000 		.4byte	0xa6f
 2083 0771 3C000000 		.4byte	.LBI68
 2084 0775 01       		.byte	.LVU280
 2085 0776 C0000000 		.4byte	.Ldebug_ranges0+0xc0
 2086 077a 01       		.byte	0x1
 2087 077b 3301     		.2byte	0x133
 2088 077d 03       		.byte	0x3
 2089 077e A3070000 		.4byte	0x7a3
 2090 0782 19       		.uleb128 0x19
 2091 0783 800A0000 		.4byte	0xa80
 2092 0787 75000000 		.4byte	.LLST23
 2093 078b 73000000 		.4byte	.LVUS23
 2094 078f 1A       		.uleb128 0x1a
 2095 0790 C0000000 		.4byte	.Ldebug_ranges0+0xc0
 2096 0794 1B       		.uleb128 0x1b
 2097 0795 8B0A0000 		.4byte	0xa8b
 2098 0799 8A000000 		.4byte	.LLST24
 2099 079d 88000000 		.4byte	.LVUS24
 2100 07a1 00       		.byte	0
 2101 07a2 00       		.byte	0
 2102 07a3 18       		.uleb128 0x18
 2103 07a4 C60A0000 		.4byte	0xac6
 2104 07a8 1C000000 		.4byte	.LBI74
 2105 07ac 01       		.byte	.LVU264
 2106 07ad F0000000 		.4byte	.Ldebug_ranges0+0xf0
 2107 07b1 01       		.byte	0x1
 2108 07b2 2E01     		.2byte	0x12e
 2109 07b4 03       		.byte	0x3
ARM GAS  /tmp/ccf22wGX.s 			page 38


 2110 07b5 DA070000 		.4byte	0x7da
 2111 07b9 19       		.uleb128 0x19
 2112 07ba D70A0000 		.4byte	0xad7
 2113 07be A4000000 		.4byte	.LLST25
 2114 07c2 A2000000 		.4byte	.LVUS25
 2115 07c6 1A       		.uleb128 0x1a
 2116 07c7 F0000000 		.4byte	.Ldebug_ranges0+0xf0
 2117 07cb 1B       		.uleb128 0x1b
 2118 07cc E30A0000 		.4byte	0xae3
 2119 07d0 BE000000 		.4byte	.LLST26
 2120 07d4 BC000000 		.4byte	.LVUS26
 2121 07d8 00       		.byte	0
 2122 07d9 00       		.byte	0
 2123 07da 16       		.uleb128 0x16
 2124 07db 74000000 		.4byte	.LVL51
 2125 07df F10B0000 		.4byte	0xbf1
 2126 07e3 00       		.byte	0
 2127 07e4 1C       		.uleb128 0x1c
 2128 07e5 E4010000 		.4byte	.LASF104
 2129 07e9 01       		.byte	0x1
 2130 07ea 0D01     		.2byte	0x10d
 2131 07ec 08       		.byte	0x8
 2132 07ed 9B000000 		.4byte	0x9b
 2133 07f1 00000000 		.4byte	.LFB14
 2134 07f5 44000000 		.4byte	.LFE14-.LFB14
 2135 07f9 01       		.uleb128 0x1
 2136 07fa 9C       		.byte	0x9c
 2137 07fb 28080000 		.4byte	0x828
 2138 07ff 17       		.uleb128 0x17
 2139 0800 703100   		.ascii	"p1\000"
 2140 0803 01       		.byte	0x1
 2141 0804 0E01     		.2byte	0x10e
 2142 0806 0B       		.byte	0xb
 2143 0807 D7000000 		.4byte	0xd7
 2144 080b D9000000 		.4byte	.LLST20
 2145 080f D1000000 		.4byte	.LVUS20
 2146 0813 17       		.uleb128 0x17
 2147 0814 703200   		.ascii	"p2\000"
 2148 0817 01       		.byte	0x1
 2149 0818 0F01     		.2byte	0x10f
 2150 081a 0B       		.byte	0xb
 2151 081b D7000000 		.4byte	0xd7
 2152 081f 11010000 		.4byte	.LLST21
 2153 0823 0F010000 		.4byte	.LVUS21
 2154 0827 00       		.byte	0
 2155 0828 1D       		.uleb128 0x1d
 2156 0829 1E020000 		.4byte	.LASF102
 2157 082d 01       		.byte	0x1
 2158 082e F6       		.byte	0xf6
 2159 082f 06       		.byte	0x6
 2160 0830 00000000 		.4byte	.LFB13
 2161 0834 24000000 		.4byte	.LFE13-.LFB13
 2162 0838 01       		.uleb128 0x1
 2163 0839 9C       		.byte	0x9c
 2164 083a 48080000 		.4byte	0x848
 2165 083e 16       		.uleb128 0x16
 2166 083f 20000000 		.4byte	.LVL57
ARM GAS  /tmp/ccf22wGX.s 			page 39


 2167 0843 BF060000 		.4byte	0x6bf
 2168 0847 00       		.byte	0
 2169 0848 1D       		.uleb128 0x1d
 2170 0849 C6020000 		.4byte	.LASF103
 2171 084d 01       		.byte	0x1
 2172 084e DA       		.byte	0xda
 2173 084f 06       		.byte	0x6
 2174 0850 00000000 		.4byte	.LFB12
 2175 0854 A0000000 		.4byte	.LFE12-.LFB12
 2176 0858 01       		.uleb128 0x1
 2177 0859 9C       		.byte	0x9c
 2178 085a 1E090000 		.4byte	0x91e
 2179 085e 1E       		.uleb128 0x1e
 2180 085f 6E747000 		.ascii	"ntp\000"
 2181 0863 01       		.byte	0x1
 2182 0864 DA       		.byte	0xda
 2183 0865 1B       		.byte	0x1b
 2184 0866 4D020000 		.4byte	0x24d
 2185 086a 28010000 		.4byte	.LLST13
 2186 086e 24010000 		.4byte	.LVUS13
 2187 0872 1E       		.uleb128 0x1e
 2188 0873 6D736700 		.ascii	"msg\000"
 2189 0877 01       		.byte	0x1
 2190 0878 DA       		.byte	0xda
 2191 0879 26       		.byte	0x26
 2192 087a E3000000 		.4byte	0xe3
 2193 087e 4F010000 		.4byte	.LLST14
 2194 0882 49010000 		.4byte	.LVUS14
 2195 0886 1F       		.uleb128 0x1f
 2196 0887 88000000 		.4byte	.Ldebug_ranges0+0x88
 2197 088b EB080000 		.4byte	0x8eb
 2198 088f 20       		.uleb128 0x20
 2199 0890 6F747000 		.ascii	"otp\000"
 2200 0894 01       		.byte	0x1
 2201 0895 E6       		.byte	0xe6
 2202 0896 0D       		.byte	0xd
 2203 0897 4D020000 		.4byte	0x24d
 2204 089b 80010000 		.4byte	.LLST17
 2205 089f 7C010000 		.4byte	.LVUS17
 2206 08a3 21       		.uleb128 0x21
 2207 08a4 6F0A0000 		.4byte	0xa6f
 2208 08a8 58000000 		.4byte	.LBI61
 2209 08ac 01       		.byte	.LVU198
 2210 08ad A0000000 		.4byte	.Ldebug_ranges0+0xa0
 2211 08b1 01       		.byte	0x1
 2212 08b2 E6       		.byte	0xe6
 2213 08b3 13       		.byte	0x13
 2214 08b4 D9080000 		.4byte	0x8d9
 2215 08b8 19       		.uleb128 0x19
 2216 08b9 800A0000 		.4byte	0xa80
 2217 08bd A0010000 		.4byte	.LLST18
 2218 08c1 9E010000 		.4byte	.LVUS18
 2219 08c5 1A       		.uleb128 0x1a
 2220 08c6 A0000000 		.4byte	.Ldebug_ranges0+0xa0
 2221 08ca 1B       		.uleb128 0x1b
 2222 08cb 8B0A0000 		.4byte	0xa8b
 2223 08cf B7010000 		.4byte	.LLST19
ARM GAS  /tmp/ccf22wGX.s 			page 40


 2224 08d3 B3010000 		.4byte	.LVUS19
 2225 08d7 00       		.byte	0
 2226 08d8 00       		.byte	0
 2227 08d9 22       		.uleb128 0x22
 2228 08da 9C000000 		.4byte	.LVL39
 2229 08de F10B0000 		.4byte	0xbf1
 2230 08e2 23       		.uleb128 0x23
 2231 08e3 01       		.uleb128 0x1
 2232 08e4 50       		.byte	0x50
 2233 08e5 03       		.uleb128 0x3
 2234 08e6 F3       		.byte	0xf3
 2235 08e7 01       		.uleb128 0x1
 2236 08e8 50       		.byte	0x50
 2237 08e9 00       		.byte	0
 2238 08ea 00       		.byte	0
 2239 08eb 24       		.uleb128 0x24
 2240 08ec 6F0A0000 		.4byte	0xa6f
 2241 08f0 28000000 		.4byte	.LBI56
 2242 08f4 01       		.byte	.LVU172
 2243 08f5 70000000 		.4byte	.Ldebug_ranges0+0x70
 2244 08f9 01       		.byte	0x1
 2245 08fa E4       		.byte	0xe4
 2246 08fb 05       		.byte	0x5
 2247 08fc 19       		.uleb128 0x19
 2248 08fd 800A0000 		.4byte	0xa80
 2249 0901 D8010000 		.4byte	.LLST15
 2250 0905 D6010000 		.4byte	.LVUS15
 2251 0909 1A       		.uleb128 0x1a
 2252 090a 70000000 		.4byte	.Ldebug_ranges0+0x70
 2253 090e 1B       		.uleb128 0x1b
 2254 090f 8B0A0000 		.4byte	0xa8b
 2255 0913 EF010000 		.4byte	.LLST16
 2256 0917 EB010000 		.4byte	.LVUS16
 2257 091b 00       		.byte	0
 2258 091c 00       		.byte	0
 2259 091d 00       		.byte	0
 2260 091e 25       		.uleb128 0x25
 2261 091f D1050000 		.4byte	.LASF105
 2262 0923 01       		.byte	0x1
 2263 0924 B6       		.byte	0xb6
 2264 0925 07       		.byte	0x7
 2265 0926 E3000000 		.4byte	0xe3
 2266 092a 00000000 		.4byte	.LFB11
 2267 092e 74000000 		.4byte	.LFE11-.LFB11
 2268 0932 01       		.uleb128 0x1
 2269 0933 9C       		.byte	0x9c
 2270 0934 CE090000 		.4byte	0x9ce
 2271 0938 26       		.uleb128 0x26
 2272 0939 E1030000 		.4byte	.LASF106
 2273 093d 01       		.byte	0x1
 2274 093e B6       		.byte	0xb6
 2275 093f 25       		.byte	0x25
 2276 0940 B3000000 		.4byte	0xb3
 2277 0944 16020000 		.4byte	.LLST11
 2278 0948 0E020000 		.4byte	.LVUS11
 2279 094c 26       		.uleb128 0x26
 2280 094d 92030000 		.4byte	.LASF107
ARM GAS  /tmp/ccf22wGX.s 			page 41


 2281 0951 01       		.byte	0x1
 2282 0952 B6       		.byte	0xb6
 2283 0953 39       		.byte	0x39
 2284 0954 FB000000 		.4byte	0xfb
 2285 0958 58020000 		.4byte	.LLST12
 2286 095c 50020000 		.4byte	.LVUS12
 2287 0960 27       		.uleb128 0x27
 2288 0961 10000000 		.4byte	.LBB55
 2289 0965 34000000 		.4byte	.LBE55-.LBB55
 2290 0969 C4090000 		.4byte	0x9c4
 2291 096d 28       		.uleb128 0x28
 2292 096e 767400   		.ascii	"vt\000"
 2293 0971 01       		.byte	0x1
 2294 0972 BB       		.byte	0xbb
 2295 0973 12       		.byte	0x12
 2296 0974 56030000 		.4byte	0x356
 2297 0978 02       		.uleb128 0x2
 2298 0979 91       		.byte	0x91
 2299 097a 5C       		.sleb128 -36
 2300 097b 29       		.uleb128 0x29
 2301 097c 28000000 		.4byte	.LVL21
 2302 0980 FE0B0000 		.4byte	0xbfe
 2303 0984 9F090000 		.4byte	0x99f
 2304 0988 23       		.uleb128 0x23
 2305 0989 01       		.uleb128 0x1
 2306 098a 50       		.byte	0x50
 2307 098b 02       		.uleb128 0x2
 2308 098c 91       		.byte	0x91
 2309 098d 54       		.sleb128 -44
 2310 098e 23       		.uleb128 0x23
 2311 098f 01       		.uleb128 0x1
 2312 0990 51       		.byte	0x51
 2313 0991 03       		.uleb128 0x3
 2314 0992 F3       		.byte	0xf3
 2315 0993 01       		.uleb128 0x1
 2316 0994 51       		.byte	0x51
 2317 0995 23       		.uleb128 0x23
 2318 0996 01       		.uleb128 0x1
 2319 0997 52       		.byte	0x52
 2320 0998 05       		.uleb128 0x5
 2321 0999 03       		.byte	0x3
 2322 099a 00000000 		.4byte	wakeup
 2323 099e 00       		.byte	0
 2324 099f 29       		.uleb128 0x29
 2325 09a0 30000000 		.4byte	.LVL22
 2326 09a4 F1090000 		.4byte	0x9f1
 2327 09a8 B3090000 		.4byte	0x9b3
 2328 09ac 23       		.uleb128 0x23
 2329 09ad 01       		.uleb128 0x1
 2330 09ae 50       		.byte	0x50
 2331 09af 02       		.uleb128 0x2
 2332 09b0 74       		.byte	0x74
 2333 09b1 00       		.sleb128 0
 2334 09b2 00       		.byte	0
 2335 09b3 2A       		.uleb128 0x2a
 2336 09b4 44000000 		.4byte	.LVL23
 2337 09b8 0A0C0000 		.4byte	0xc0a
ARM GAS  /tmp/ccf22wGX.s 			page 42


 2338 09bc 23       		.uleb128 0x23
 2339 09bd 01       		.uleb128 0x1
 2340 09be 50       		.byte	0x50
 2341 09bf 02       		.uleb128 0x2
 2342 09c0 91       		.byte	0x91
 2343 09c1 54       		.sleb128 -44
 2344 09c2 00       		.byte	0
 2345 09c3 00       		.byte	0
 2346 09c4 2B       		.uleb128 0x2b
 2347 09c5 58000000 		.4byte	.LVL25
 2348 09c9 F1090000 		.4byte	0x9f1
 2349 09cd 00       		.byte	0
 2350 09ce 2C       		.uleb128 0x2c
 2351 09cf 6D020000 		.4byte	.LASF117
 2352 09d3 01       		.byte	0x1
 2353 09d4 81       		.byte	0x81
 2354 09d5 0D       		.byte	0xd
 2355 09d6 01       		.byte	0x1
 2356 09d7 F1090000 		.4byte	0x9f1
 2357 09db 2D       		.uleb128 0x2d
 2358 09dc 7000     		.ascii	"p\000"
 2359 09de 01       		.byte	0x1
 2360 09df 81       		.byte	0x81
 2361 09e0 1A       		.byte	0x1a
 2362 09e1 9A020000 		.4byte	0x29a
 2363 09e5 2E       		.uleb128 0x2e
 2364 09e6 747000   		.ascii	"tp\000"
 2365 09e9 01       		.byte	0x1
 2366 09ea 82       		.byte	0x82
 2367 09eb 0B       		.byte	0xb
 2368 09ec 4D020000 		.4byte	0x24d
 2369 09f0 00       		.byte	0
 2370 09f1 1D       		.uleb128 0x1d
 2371 09f2 76040000 		.4byte	.LASF108
 2372 09f6 01       		.byte	0x1
 2373 09f7 6C       		.byte	0x6c
 2374 09f8 06       		.byte	0x6
 2375 09f9 00000000 		.4byte	.LFB9
 2376 09fd 44000000 		.4byte	.LFE9-.LFB9
 2377 0a01 01       		.uleb128 0x1
 2378 0a02 9C       		.byte	0x9c
 2379 0a03 6F0A0000 		.4byte	0xa6f
 2380 0a07 26       		.uleb128 0x26
 2381 0a08 E1030000 		.4byte	.LASF106
 2382 0a0c 01       		.byte	0x1
 2383 0a0d 6C       		.byte	0x6c
 2384 0a0e 1D       		.byte	0x1d
 2385 0a0f B3000000 		.4byte	0xb3
 2386 0a13 98020000 		.4byte	.LLST7
 2387 0a17 92020000 		.4byte	.LVUS7
 2388 0a1b 20       		.uleb128 0x20
 2389 0a1c 6F747000 		.ascii	"otp\000"
 2390 0a20 01       		.byte	0x1
 2391 0a21 6D       		.byte	0x6d
 2392 0a22 0B       		.byte	0xb
 2393 0a23 4D020000 		.4byte	0x24d
 2394 0a27 C7020000 		.4byte	.LLST8
ARM GAS  /tmp/ccf22wGX.s 			page 43


 2395 0a2b C5020000 		.4byte	.LVUS8
 2396 0a2f 21       		.uleb128 0x21
 2397 0a30 C60A0000 		.4byte	0xac6
 2398 0a34 20000000 		.4byte	.LBI47
 2399 0a38 01       		.byte	.LVU113
 2400 0a39 48000000 		.4byte	.Ldebug_ranges0+0x48
 2401 0a3d 01       		.byte	0x1
 2402 0a3e 77       		.byte	0x77
 2403 0a3f 03       		.byte	0x3
 2404 0a40 650A0000 		.4byte	0xa65
 2405 0a44 19       		.uleb128 0x19
 2406 0a45 D70A0000 		.4byte	0xad7
 2407 0a49 DC020000 		.4byte	.LLST9
 2408 0a4d DA020000 		.4byte	.LVUS9
 2409 0a51 1A       		.uleb128 0x1a
 2410 0a52 48000000 		.4byte	.Ldebug_ranges0+0x48
 2411 0a56 1B       		.uleb128 0x1b
 2412 0a57 E30A0000 		.4byte	0xae3
 2413 0a5b F6020000 		.4byte	.LLST10
 2414 0a5f F4020000 		.4byte	.LVUS10
 2415 0a63 00       		.byte	0
 2416 0a64 00       		.byte	0
 2417 0a65 16       		.uleb128 0x16
 2418 0a66 40000000 		.4byte	.LVL18
 2419 0a6a F10B0000 		.4byte	0xbf1
 2420 0a6e 00       		.byte	0
 2421 0a6f 2F       		.uleb128 0x2f
 2422 0a70 28050000 		.4byte	.LASF118
 2423 0a74 01       		.byte	0x1
 2424 0a75 4A       		.byte	0x4a
 2425 0a76 09       		.byte	0x9
 2426 0a77 4D020000 		.4byte	0x24d
 2427 0a7b 01       		.byte	0x1
 2428 0a7c 970A0000 		.4byte	0xa97
 2429 0a80 2D       		.uleb128 0x2d
 2430 0a81 747000   		.ascii	"tp\000"
 2431 0a84 01       		.byte	0x1
 2432 0a85 4A       		.byte	0x4a
 2433 0a86 1D       		.byte	0x1d
 2434 0a87 4D020000 		.4byte	0x24d
 2435 0a8b 2E       		.uleb128 0x2e
 2436 0a8c 637000   		.ascii	"cp\000"
 2437 0a8f 01       		.byte	0x1
 2438 0a90 4B       		.byte	0x4b
 2439 0a91 0B       		.byte	0xb
 2440 0a92 4D020000 		.4byte	0x24d
 2441 0a96 00       		.byte	0
 2442 0a97 30       		.uleb128 0x30
 2443 0a98 5F010000 		.4byte	.LASF119
 2444 0a9c 01       		.byte	0x1
 2445 0a9d 30       		.byte	0x30
 2446 0a9e 06       		.byte	0x6
 2447 0a9f 00000000 		.4byte	.LFB7
 2448 0aa3 24000000 		.4byte	.LFE7-.LFB7
 2449 0aa7 01       		.uleb128 0x1
 2450 0aa8 9C       		.byte	0x9c
 2451 0aa9 31       		.uleb128 0x31
ARM GAS  /tmp/ccf22wGX.s 			page 44


 2452 0aaa 3A030000 		.4byte	.LASF109
 2453 0aae 02       		.byte	0x2
 2454 0aaf 42       		.byte	0x42
 2455 0ab0 17       		.byte	0x17
 2456 0ab1 4D020000 		.4byte	0x24d
 2457 0ab5 03       		.byte	0x3
 2458 0ab6 C60A0000 		.4byte	0xac6
 2459 0aba 2D       		.uleb128 0x2d
 2460 0abb 747000   		.ascii	"tp\000"
 2461 0abe 02       		.byte	0x2
 2462 0abf 42       		.byte	0x42
 2463 0ac0 27       		.byte	0x27
 2464 0ac1 4D020000 		.4byte	0x24d
 2465 0ac5 00       		.byte	0
 2466 0ac6 31       		.uleb128 0x31
 2467 0ac7 1C050000 		.4byte	.LASF110
 2468 0acb 02       		.byte	0x2
 2469 0acc 34       		.byte	0x34
 2470 0acd 17       		.byte	0x17
 2471 0ace 4D020000 		.4byte	0x24d
 2472 0ad2 03       		.byte	0x3
 2473 0ad3 EF0A0000 		.4byte	0xaef
 2474 0ad7 2D       		.uleb128 0x2d
 2475 0ad8 74717000 		.ascii	"tqp\000"
 2476 0adc 02       		.byte	0x2
 2477 0add 34       		.byte	0x34
 2478 0ade 31       		.byte	0x31
 2479 0adf EF0A0000 		.4byte	0xaef
 2480 0ae3 2E       		.uleb128 0x2e
 2481 0ae4 747000   		.ascii	"tp\000"
 2482 0ae7 02       		.byte	0x2
 2483 0ae8 35       		.byte	0x35
 2484 0ae9 0B       		.byte	0xb
 2485 0aea 4D020000 		.4byte	0x24d
 2486 0aee 00       		.byte	0
 2487 0aef 0A       		.uleb128 0xa
 2488 0af0 04       		.byte	0x4
 2489 0af1 53020000 		.4byte	0x253
 2490 0af5 32       		.uleb128 0x32
 2491 0af6 CE090000 		.4byte	0x9ce
 2492 0afa 00000000 		.4byte	.LFB10
 2493 0afe B0000000 		.4byte	.LFE10-.LFB10
 2494 0b02 01       		.uleb128 0x1
 2495 0b03 9C       		.byte	0x9c
 2496 0b04 C90B0000 		.4byte	0xbc9
 2497 0b08 33       		.uleb128 0x33
 2498 0b09 DB090000 		.4byte	0x9db
 2499 0b0d 01       		.uleb128 0x1
 2500 0b0e 50       		.byte	0x50
 2501 0b0f 1B       		.uleb128 0x1b
 2502 0b10 E5090000 		.4byte	0x9e5
 2503 0b14 0B030000 		.4byte	.LLST0
 2504 0b18 09030000 		.4byte	.LVUS0
 2505 0b1c 34       		.uleb128 0x34
 2506 0b1d A90A0000 		.4byte	0xaa9
 2507 0b21 58000000 		.4byte	.LBI33
 2508 0b25 01       		.byte	.LVU8
ARM GAS  /tmp/ccf22wGX.s 			page 45


 2509 0b26 58000000 		.4byte	.LBB33
 2510 0b2a 10000000 		.4byte	.LBE33-.LBB33
 2511 0b2e 01       		.byte	0x1
 2512 0b2f 99       		.byte	0x99
 2513 0b30 05       		.byte	0x5
 2514 0b31 430B0000 		.4byte	0xb43
 2515 0b35 19       		.uleb128 0x19
 2516 0b36 BA0A0000 		.4byte	0xaba
 2517 0b3a 20030000 		.4byte	.LLST1
 2518 0b3e 1E030000 		.4byte	.LVUS1
 2519 0b42 00       		.byte	0
 2520 0b43 21       		.uleb128 0x21
 2521 0b44 6F0A0000 		.4byte	0xa6f
 2522 0b48 7C000000 		.4byte	.LBI35
 2523 0b4c 01       		.byte	.LVU24
 2524 0b4d 00000000 		.4byte	.Ldebug_ranges0+0
 2525 0b51 01       		.byte	0x1
 2526 0b52 9D       		.byte	0x9d
 2527 0b53 03       		.byte	0x3
 2528 0b54 790B0000 		.4byte	0xb79
 2529 0b58 19       		.uleb128 0x19
 2530 0b59 800A0000 		.4byte	0xa80
 2531 0b5d 35030000 		.4byte	.LLST2
 2532 0b61 33030000 		.4byte	.LVUS2
 2533 0b65 1A       		.uleb128 0x1a
 2534 0b66 00000000 		.4byte	.Ldebug_ranges0+0
 2535 0b6a 1B       		.uleb128 0x1b
 2536 0b6b 8B0A0000 		.4byte	0xa8b
 2537 0b6f 4A030000 		.4byte	.LLST3
 2538 0b73 48030000 		.4byte	.LVUS3
 2539 0b77 00       		.byte	0
 2540 0b78 00       		.byte	0
 2541 0b79 24       		.uleb128 0x24
 2542 0b7a CE090000 		.4byte	0x9ce
 2543 0b7e 80000000 		.4byte	.LBI38
 2544 0b82 02       		.byte	.LVU34
 2545 0b83 18000000 		.4byte	.Ldebug_ranges0+0x18
 2546 0b87 01       		.byte	0x1
 2547 0b88 81       		.byte	0x81
 2548 0b89 0D       		.byte	0xd
 2549 0b8a 19       		.uleb128 0x19
 2550 0b8b DB090000 		.4byte	0x9db
 2551 0b8f 64030000 		.4byte	.LLST4
 2552 0b93 62030000 		.4byte	.LVUS4
 2553 0b97 1A       		.uleb128 0x1a
 2554 0b98 30000000 		.4byte	.Ldebug_ranges0+0x30
 2555 0b9c 35       		.uleb128 0x35
 2556 0b9d E5090000 		.4byte	0x9e5
 2557 0ba1 36       		.uleb128 0x36
 2558 0ba2 6F0A0000 		.4byte	0xa6f
 2559 0ba6 30000000 		.4byte	.Ldebug_ranges0+0x30
 2560 0baa 01       		.byte	0x1
 2561 0bab 9D       		.byte	0x9d
 2562 0bac 03       		.byte	0x3
 2563 0bad 37       		.uleb128 0x37
 2564 0bae 800A0000 		.4byte	0xa80
 2565 0bb2 1A       		.uleb128 0x1a
ARM GAS  /tmp/ccf22wGX.s 			page 46


 2566 0bb3 30000000 		.4byte	.Ldebug_ranges0+0x30
 2567 0bb7 1B       		.uleb128 0x1b
 2568 0bb8 8B0A0000 		.4byte	0xa8b
 2569 0bbc 7B030000 		.4byte	.LLST5
 2570 0bc0 77030000 		.4byte	.LVUS5
 2571 0bc4 00       		.byte	0
 2572 0bc5 00       		.byte	0
 2573 0bc6 00       		.byte	0
 2574 0bc7 00       		.byte	0
 2575 0bc8 00       		.byte	0
 2576 0bc9 32       		.uleb128 0x32
 2577 0bca 6F0A0000 		.4byte	0xa6f
 2578 0bce 00000000 		.4byte	.LFB8
 2579 0bd2 40000000 		.4byte	.LFE8-.LFB8
 2580 0bd6 01       		.uleb128 0x1
 2581 0bd7 9C       		.byte	0x9c
 2582 0bd8 F10B0000 		.4byte	0xbf1
 2583 0bdc 33       		.uleb128 0x33
 2584 0bdd 800A0000 		.4byte	0xa80
 2585 0be1 01       		.uleb128 0x1
 2586 0be2 50       		.byte	0x50
 2587 0be3 1B       		.uleb128 0x1b
 2588 0be4 8B0A0000 		.4byte	0xa8b
 2589 0be8 9E030000 		.4byte	.LLST6
 2590 0bec 9A030000 		.4byte	.LVUS6
 2591 0bf0 00       		.byte	0
 2592 0bf1 38       		.uleb128 0x38
 2593 0bf2 05010000 		.4byte	.LASF111
 2594 0bf6 05010000 		.4byte	.LASF111
 2595 0bfa 07       		.byte	0x7
 2596 0bfb DA01     		.2byte	0x1da
 2597 0bfd 08       		.byte	0x8
 2598 0bfe 39       		.uleb128 0x39
 2599 0bff 66030000 		.4byte	.LASF112
 2600 0c03 66030000 		.4byte	.LASF112
 2601 0c07 08       		.byte	0x8
 2602 0c08 DA       		.byte	0xda
 2603 0c09 08       		.byte	0x8
 2604 0c0a 39       		.uleb128 0x39
 2605 0c0b 95050000 		.4byte	.LASF113
 2606 0c0f 95050000 		.4byte	.LASF113
 2607 0c13 08       		.byte	0x8
 2608 0c14 DB       		.byte	0xdb
 2609 0c15 08       		.byte	0x8
 2610 0c16 00       		.byte	0
 2611              		.section	.debug_abbrev,"",%progbits
 2612              	.Ldebug_abbrev0:
 2613 0000 01       		.uleb128 0x1
 2614 0001 11       		.uleb128 0x11
 2615 0002 01       		.byte	0x1
 2616 0003 25       		.uleb128 0x25
 2617 0004 0E       		.uleb128 0xe
 2618 0005 13       		.uleb128 0x13
 2619 0006 0B       		.uleb128 0xb
 2620 0007 03       		.uleb128 0x3
 2621 0008 0E       		.uleb128 0xe
 2622 0009 1B       		.uleb128 0x1b
ARM GAS  /tmp/ccf22wGX.s 			page 47


 2623 000a 0E       		.uleb128 0xe
 2624 000b 55       		.uleb128 0x55
 2625 000c 17       		.uleb128 0x17
 2626 000d 11       		.uleb128 0x11
 2627 000e 01       		.uleb128 0x1
 2628 000f 10       		.uleb128 0x10
 2629 0010 17       		.uleb128 0x17
 2630 0011 00       		.byte	0
 2631 0012 00       		.byte	0
 2632 0013 02       		.uleb128 0x2
 2633 0014 24       		.uleb128 0x24
 2634 0015 00       		.byte	0
 2635 0016 0B       		.uleb128 0xb
 2636 0017 0B       		.uleb128 0xb
 2637 0018 3E       		.uleb128 0x3e
 2638 0019 0B       		.uleb128 0xb
 2639 001a 03       		.uleb128 0x3
 2640 001b 08       		.uleb128 0x8
 2641 001c 00       		.byte	0
 2642 001d 00       		.byte	0
 2643 001e 03       		.uleb128 0x3
 2644 001f 24       		.uleb128 0x24
 2645 0020 00       		.byte	0
 2646 0021 0B       		.uleb128 0xb
 2647 0022 0B       		.uleb128 0xb
 2648 0023 3E       		.uleb128 0x3e
 2649 0024 0B       		.uleb128 0xb
 2650 0025 03       		.uleb128 0x3
 2651 0026 0E       		.uleb128 0xe
 2652 0027 00       		.byte	0
 2653 0028 00       		.byte	0
 2654 0029 04       		.uleb128 0x4
 2655 002a 16       		.uleb128 0x16
 2656 002b 00       		.byte	0
 2657 002c 03       		.uleb128 0x3
 2658 002d 0E       		.uleb128 0xe
 2659 002e 3A       		.uleb128 0x3a
 2660 002f 0B       		.uleb128 0xb
 2661 0030 3B       		.uleb128 0x3b
 2662 0031 0B       		.uleb128 0xb
 2663 0032 39       		.uleb128 0x39
 2664 0033 0B       		.uleb128 0xb
 2665 0034 49       		.uleb128 0x49
 2666 0035 13       		.uleb128 0x13
 2667 0036 00       		.byte	0
 2668 0037 00       		.byte	0
 2669 0038 05       		.uleb128 0x5
 2670 0039 35       		.uleb128 0x35
 2671 003a 00       		.byte	0
 2672 003b 49       		.uleb128 0x49
 2673 003c 13       		.uleb128 0x13
 2674 003d 00       		.byte	0
 2675 003e 00       		.byte	0
 2676 003f 06       		.uleb128 0x6
 2677 0040 13       		.uleb128 0x13
 2678 0041 01       		.byte	0x1
 2679 0042 03       		.uleb128 0x3
ARM GAS  /tmp/ccf22wGX.s 			page 48


 2680 0043 0E       		.uleb128 0xe
 2681 0044 0B       		.uleb128 0xb
 2682 0045 0B       		.uleb128 0xb
 2683 0046 3A       		.uleb128 0x3a
 2684 0047 0B       		.uleb128 0xb
 2685 0048 3B       		.uleb128 0x3b
 2686 0049 0B       		.uleb128 0xb
 2687 004a 39       		.uleb128 0x39
 2688 004b 0B       		.uleb128 0xb
 2689 004c 01       		.uleb128 0x1
 2690 004d 13       		.uleb128 0x13
 2691 004e 00       		.byte	0
 2692 004f 00       		.byte	0
 2693 0050 07       		.uleb128 0x7
 2694 0051 0D       		.uleb128 0xd
 2695 0052 00       		.byte	0
 2696 0053 03       		.uleb128 0x3
 2697 0054 0E       		.uleb128 0xe
 2698 0055 3A       		.uleb128 0x3a
 2699 0056 0B       		.uleb128 0xb
 2700 0057 3B       		.uleb128 0x3b
 2701 0058 0B       		.uleb128 0xb
 2702 0059 39       		.uleb128 0x39
 2703 005a 0B       		.uleb128 0xb
 2704 005b 49       		.uleb128 0x49
 2705 005c 13       		.uleb128 0x13
 2706 005d 38       		.uleb128 0x38
 2707 005e 0B       		.uleb128 0xb
 2708 005f 00       		.byte	0
 2709 0060 00       		.byte	0
 2710 0061 08       		.uleb128 0x8
 2711 0062 0D       		.uleb128 0xd
 2712 0063 00       		.byte	0
 2713 0064 03       		.uleb128 0x3
 2714 0065 08       		.uleb128 0x8
 2715 0066 3A       		.uleb128 0x3a
 2716 0067 0B       		.uleb128 0xb
 2717 0068 3B       		.uleb128 0x3b
 2718 0069 0B       		.uleb128 0xb
 2719 006a 39       		.uleb128 0x39
 2720 006b 0B       		.uleb128 0xb
 2721 006c 49       		.uleb128 0x49
 2722 006d 13       		.uleb128 0x13
 2723 006e 38       		.uleb128 0x38
 2724 006f 0B       		.uleb128 0xb
 2725 0070 00       		.byte	0
 2726 0071 00       		.byte	0
 2727 0072 09       		.uleb128 0x9
 2728 0073 13       		.uleb128 0x13
 2729 0074 01       		.byte	0x1
 2730 0075 0B       		.uleb128 0xb
 2731 0076 0B       		.uleb128 0xb
 2732 0077 3A       		.uleb128 0x3a
 2733 0078 0B       		.uleb128 0xb
 2734 0079 3B       		.uleb128 0x3b
 2735 007a 0B       		.uleb128 0xb
 2736 007b 39       		.uleb128 0x39
ARM GAS  /tmp/ccf22wGX.s 			page 49


 2737 007c 0B       		.uleb128 0xb
 2738 007d 01       		.uleb128 0x1
 2739 007e 13       		.uleb128 0x13
 2740 007f 00       		.byte	0
 2741 0080 00       		.byte	0
 2742 0081 0A       		.uleb128 0xa
 2743 0082 0F       		.uleb128 0xf
 2744 0083 00       		.byte	0
 2745 0084 0B       		.uleb128 0xb
 2746 0085 0B       		.uleb128 0xb
 2747 0086 49       		.uleb128 0x49
 2748 0087 13       		.uleb128 0x13
 2749 0088 00       		.byte	0
 2750 0089 00       		.byte	0
 2751 008a 0B       		.uleb128 0xb
 2752 008b 0F       		.uleb128 0xf
 2753 008c 00       		.byte	0
 2754 008d 0B       		.uleb128 0xb
 2755 008e 0B       		.uleb128 0xb
 2756 008f 00       		.byte	0
 2757 0090 00       		.byte	0
 2758 0091 0C       		.uleb128 0xc
 2759 0092 15       		.uleb128 0x15
 2760 0093 01       		.byte	0x1
 2761 0094 27       		.uleb128 0x27
 2762 0095 19       		.uleb128 0x19
 2763 0096 01       		.uleb128 0x1
 2764 0097 13       		.uleb128 0x13
 2765 0098 00       		.byte	0
 2766 0099 00       		.byte	0
 2767 009a 0D       		.uleb128 0xd
 2768 009b 05       		.uleb128 0x5
 2769 009c 00       		.byte	0
 2770 009d 49       		.uleb128 0x49
 2771 009e 13       		.uleb128 0x13
 2772 009f 00       		.byte	0
 2773 00a0 00       		.byte	0
 2774 00a1 0E       		.uleb128 0xe
 2775 00a2 34       		.uleb128 0x34
 2776 00a3 00       		.byte	0
 2777 00a4 03       		.uleb128 0x3
 2778 00a5 0E       		.uleb128 0xe
 2779 00a6 3A       		.uleb128 0x3a
 2780 00a7 0B       		.uleb128 0xb
 2781 00a8 3B       		.uleb128 0x3b
 2782 00a9 0B       		.uleb128 0xb
 2783 00aa 39       		.uleb128 0x39
 2784 00ab 0B       		.uleb128 0xb
 2785 00ac 49       		.uleb128 0x49
 2786 00ad 13       		.uleb128 0x13
 2787 00ae 3F       		.uleb128 0x3f
 2788 00af 19       		.uleb128 0x19
 2789 00b0 3C       		.uleb128 0x3c
 2790 00b1 19       		.uleb128 0x19
 2791 00b2 00       		.byte	0
 2792 00b3 00       		.byte	0
 2793 00b4 0F       		.uleb128 0xf
ARM GAS  /tmp/ccf22wGX.s 			page 50


 2794 00b5 17       		.uleb128 0x17
 2795 00b6 01       		.byte	0x1
 2796 00b7 0B       		.uleb128 0xb
 2797 00b8 0B       		.uleb128 0xb
 2798 00b9 3A       		.uleb128 0x3a
 2799 00ba 0B       		.uleb128 0xb
 2800 00bb 3B       		.uleb128 0x3b
 2801 00bc 0B       		.uleb128 0xb
 2802 00bd 39       		.uleb128 0x39
 2803 00be 0B       		.uleb128 0xb
 2804 00bf 01       		.uleb128 0x1
 2805 00c0 13       		.uleb128 0x13
 2806 00c1 00       		.byte	0
 2807 00c2 00       		.byte	0
 2808 00c3 10       		.uleb128 0x10
 2809 00c4 0D       		.uleb128 0xd
 2810 00c5 00       		.byte	0
 2811 00c6 03       		.uleb128 0x3
 2812 00c7 0E       		.uleb128 0xe
 2813 00c8 3A       		.uleb128 0x3a
 2814 00c9 0B       		.uleb128 0xb
 2815 00ca 3B       		.uleb128 0x3b
 2816 00cb 0B       		.uleb128 0xb
 2817 00cc 39       		.uleb128 0x39
 2818 00cd 0B       		.uleb128 0xb
 2819 00ce 49       		.uleb128 0x49
 2820 00cf 13       		.uleb128 0x13
 2821 00d0 00       		.byte	0
 2822 00d1 00       		.byte	0
 2823 00d2 11       		.uleb128 0x11
 2824 00d3 26       		.uleb128 0x26
 2825 00d4 00       		.byte	0
 2826 00d5 49       		.uleb128 0x49
 2827 00d6 13       		.uleb128 0x13
 2828 00d7 00       		.byte	0
 2829 00d8 00       		.byte	0
 2830 00d9 12       		.uleb128 0x12
 2831 00da 01       		.uleb128 0x1
 2832 00db 01       		.byte	0x1
 2833 00dc 49       		.uleb128 0x49
 2834 00dd 13       		.uleb128 0x13
 2835 00de 01       		.uleb128 0x1
 2836 00df 13       		.uleb128 0x13
 2837 00e0 00       		.byte	0
 2838 00e1 00       		.byte	0
 2839 00e2 13       		.uleb128 0x13
 2840 00e3 21       		.uleb128 0x21
 2841 00e4 00       		.byte	0
 2842 00e5 49       		.uleb128 0x49
 2843 00e6 13       		.uleb128 0x13
 2844 00e7 2F       		.uleb128 0x2f
 2845 00e8 0B       		.uleb128 0xb
 2846 00e9 00       		.byte	0
 2847 00ea 00       		.byte	0
 2848 00eb 14       		.uleb128 0x14
 2849 00ec 34       		.uleb128 0x34
 2850 00ed 00       		.byte	0
ARM GAS  /tmp/ccf22wGX.s 			page 51


 2851 00ee 47       		.uleb128 0x47
 2852 00ef 13       		.uleb128 0x13
 2853 00f0 3A       		.uleb128 0x3a
 2854 00f1 0B       		.uleb128 0xb
 2855 00f2 3B       		.uleb128 0x3b
 2856 00f3 0B       		.uleb128 0xb
 2857 00f4 39       		.uleb128 0x39
 2858 00f5 0B       		.uleb128 0xb
 2859 00f6 02       		.uleb128 0x2
 2860 00f7 18       		.uleb128 0x18
 2861 00f8 00       		.byte	0
 2862 00f9 00       		.byte	0
 2863 00fa 15       		.uleb128 0x15
 2864 00fb 2E       		.uleb128 0x2e
 2865 00fc 01       		.byte	0x1
 2866 00fd 3F       		.uleb128 0x3f
 2867 00fe 19       		.uleb128 0x19
 2868 00ff 03       		.uleb128 0x3
 2869 0100 0E       		.uleb128 0xe
 2870 0101 3A       		.uleb128 0x3a
 2871 0102 0B       		.uleb128 0xb
 2872 0103 3B       		.uleb128 0x3b
 2873 0104 05       		.uleb128 0x5
 2874 0105 39       		.uleb128 0x39
 2875 0106 0B       		.uleb128 0xb
 2876 0107 27       		.uleb128 0x27
 2877 0108 19       		.uleb128 0x19
 2878 0109 11       		.uleb128 0x11
 2879 010a 01       		.uleb128 0x1
 2880 010b 12       		.uleb128 0x12
 2881 010c 06       		.uleb128 0x6
 2882 010d 40       		.uleb128 0x40
 2883 010e 18       		.uleb128 0x18
 2884 010f 9742     		.uleb128 0x2117
 2885 0111 19       		.uleb128 0x19
 2886 0112 01       		.uleb128 0x1
 2887 0113 13       		.uleb128 0x13
 2888 0114 00       		.byte	0
 2889 0115 00       		.byte	0
 2890 0116 16       		.uleb128 0x16
 2891 0117 898201   		.uleb128 0x4109
 2892 011a 00       		.byte	0
 2893 011b 11       		.uleb128 0x11
 2894 011c 01       		.uleb128 0x1
 2895 011d 9542     		.uleb128 0x2115
 2896 011f 19       		.uleb128 0x19
 2897 0120 31       		.uleb128 0x31
 2898 0121 13       		.uleb128 0x13
 2899 0122 00       		.byte	0
 2900 0123 00       		.byte	0
 2901 0124 17       		.uleb128 0x17
 2902 0125 34       		.uleb128 0x34
 2903 0126 00       		.byte	0
 2904 0127 03       		.uleb128 0x3
 2905 0128 08       		.uleb128 0x8
 2906 0129 3A       		.uleb128 0x3a
 2907 012a 0B       		.uleb128 0xb
ARM GAS  /tmp/ccf22wGX.s 			page 52


 2908 012b 3B       		.uleb128 0x3b
 2909 012c 05       		.uleb128 0x5
 2910 012d 39       		.uleb128 0x39
 2911 012e 0B       		.uleb128 0xb
 2912 012f 49       		.uleb128 0x49
 2913 0130 13       		.uleb128 0x13
 2914 0131 02       		.uleb128 0x2
 2915 0132 17       		.uleb128 0x17
 2916 0133 B742     		.uleb128 0x2137
 2917 0135 17       		.uleb128 0x17
 2918 0136 00       		.byte	0
 2919 0137 00       		.byte	0
 2920 0138 18       		.uleb128 0x18
 2921 0139 1D       		.uleb128 0x1d
 2922 013a 01       		.byte	0x1
 2923 013b 31       		.uleb128 0x31
 2924 013c 13       		.uleb128 0x13
 2925 013d 52       		.uleb128 0x52
 2926 013e 01       		.uleb128 0x1
 2927 013f B842     		.uleb128 0x2138
 2928 0141 0B       		.uleb128 0xb
 2929 0142 55       		.uleb128 0x55
 2930 0143 17       		.uleb128 0x17
 2931 0144 58       		.uleb128 0x58
 2932 0145 0B       		.uleb128 0xb
 2933 0146 59       		.uleb128 0x59
 2934 0147 05       		.uleb128 0x5
 2935 0148 57       		.uleb128 0x57
 2936 0149 0B       		.uleb128 0xb
 2937 014a 01       		.uleb128 0x1
 2938 014b 13       		.uleb128 0x13
 2939 014c 00       		.byte	0
 2940 014d 00       		.byte	0
 2941 014e 19       		.uleb128 0x19
 2942 014f 05       		.uleb128 0x5
 2943 0150 00       		.byte	0
 2944 0151 31       		.uleb128 0x31
 2945 0152 13       		.uleb128 0x13
 2946 0153 02       		.uleb128 0x2
 2947 0154 17       		.uleb128 0x17
 2948 0155 B742     		.uleb128 0x2137
 2949 0157 17       		.uleb128 0x17
 2950 0158 00       		.byte	0
 2951 0159 00       		.byte	0
 2952 015a 1A       		.uleb128 0x1a
 2953 015b 0B       		.uleb128 0xb
 2954 015c 01       		.byte	0x1
 2955 015d 55       		.uleb128 0x55
 2956 015e 17       		.uleb128 0x17
 2957 015f 00       		.byte	0
 2958 0160 00       		.byte	0
 2959 0161 1B       		.uleb128 0x1b
 2960 0162 34       		.uleb128 0x34
 2961 0163 00       		.byte	0
 2962 0164 31       		.uleb128 0x31
 2963 0165 13       		.uleb128 0x13
 2964 0166 02       		.uleb128 0x2
ARM GAS  /tmp/ccf22wGX.s 			page 53


 2965 0167 17       		.uleb128 0x17
 2966 0168 B742     		.uleb128 0x2137
 2967 016a 17       		.uleb128 0x17
 2968 016b 00       		.byte	0
 2969 016c 00       		.byte	0
 2970 016d 1C       		.uleb128 0x1c
 2971 016e 2E       		.uleb128 0x2e
 2972 016f 01       		.byte	0x1
 2973 0170 3F       		.uleb128 0x3f
 2974 0171 19       		.uleb128 0x19
 2975 0172 03       		.uleb128 0x3
 2976 0173 0E       		.uleb128 0xe
 2977 0174 3A       		.uleb128 0x3a
 2978 0175 0B       		.uleb128 0xb
 2979 0176 3B       		.uleb128 0x3b
 2980 0177 05       		.uleb128 0x5
 2981 0178 39       		.uleb128 0x39
 2982 0179 0B       		.uleb128 0xb
 2983 017a 27       		.uleb128 0x27
 2984 017b 19       		.uleb128 0x19
 2985 017c 49       		.uleb128 0x49
 2986 017d 13       		.uleb128 0x13
 2987 017e 11       		.uleb128 0x11
 2988 017f 01       		.uleb128 0x1
 2989 0180 12       		.uleb128 0x12
 2990 0181 06       		.uleb128 0x6
 2991 0182 40       		.uleb128 0x40
 2992 0183 18       		.uleb128 0x18
 2993 0184 9742     		.uleb128 0x2117
 2994 0186 19       		.uleb128 0x19
 2995 0187 01       		.uleb128 0x1
 2996 0188 13       		.uleb128 0x13
 2997 0189 00       		.byte	0
 2998 018a 00       		.byte	0
 2999 018b 1D       		.uleb128 0x1d
 3000 018c 2E       		.uleb128 0x2e
 3001 018d 01       		.byte	0x1
 3002 018e 3F       		.uleb128 0x3f
 3003 018f 19       		.uleb128 0x19
 3004 0190 03       		.uleb128 0x3
 3005 0191 0E       		.uleb128 0xe
 3006 0192 3A       		.uleb128 0x3a
 3007 0193 0B       		.uleb128 0xb
 3008 0194 3B       		.uleb128 0x3b
 3009 0195 0B       		.uleb128 0xb
 3010 0196 39       		.uleb128 0x39
 3011 0197 0B       		.uleb128 0xb
 3012 0198 27       		.uleb128 0x27
 3013 0199 19       		.uleb128 0x19
 3014 019a 11       		.uleb128 0x11
 3015 019b 01       		.uleb128 0x1
 3016 019c 12       		.uleb128 0x12
 3017 019d 06       		.uleb128 0x6
 3018 019e 40       		.uleb128 0x40
 3019 019f 18       		.uleb128 0x18
 3020 01a0 9742     		.uleb128 0x2117
 3021 01a2 19       		.uleb128 0x19
ARM GAS  /tmp/ccf22wGX.s 			page 54


 3022 01a3 01       		.uleb128 0x1
 3023 01a4 13       		.uleb128 0x13
 3024 01a5 00       		.byte	0
 3025 01a6 00       		.byte	0
 3026 01a7 1E       		.uleb128 0x1e
 3027 01a8 05       		.uleb128 0x5
 3028 01a9 00       		.byte	0
 3029 01aa 03       		.uleb128 0x3
 3030 01ab 08       		.uleb128 0x8
 3031 01ac 3A       		.uleb128 0x3a
 3032 01ad 0B       		.uleb128 0xb
 3033 01ae 3B       		.uleb128 0x3b
 3034 01af 0B       		.uleb128 0xb
 3035 01b0 39       		.uleb128 0x39
 3036 01b1 0B       		.uleb128 0xb
 3037 01b2 49       		.uleb128 0x49
 3038 01b3 13       		.uleb128 0x13
 3039 01b4 02       		.uleb128 0x2
 3040 01b5 17       		.uleb128 0x17
 3041 01b6 B742     		.uleb128 0x2137
 3042 01b8 17       		.uleb128 0x17
 3043 01b9 00       		.byte	0
 3044 01ba 00       		.byte	0
 3045 01bb 1F       		.uleb128 0x1f
 3046 01bc 0B       		.uleb128 0xb
 3047 01bd 01       		.byte	0x1
 3048 01be 55       		.uleb128 0x55
 3049 01bf 17       		.uleb128 0x17
 3050 01c0 01       		.uleb128 0x1
 3051 01c1 13       		.uleb128 0x13
 3052 01c2 00       		.byte	0
 3053 01c3 00       		.byte	0
 3054 01c4 20       		.uleb128 0x20
 3055 01c5 34       		.uleb128 0x34
 3056 01c6 00       		.byte	0
 3057 01c7 03       		.uleb128 0x3
 3058 01c8 08       		.uleb128 0x8
 3059 01c9 3A       		.uleb128 0x3a
 3060 01ca 0B       		.uleb128 0xb
 3061 01cb 3B       		.uleb128 0x3b
 3062 01cc 0B       		.uleb128 0xb
 3063 01cd 39       		.uleb128 0x39
 3064 01ce 0B       		.uleb128 0xb
 3065 01cf 49       		.uleb128 0x49
 3066 01d0 13       		.uleb128 0x13
 3067 01d1 02       		.uleb128 0x2
 3068 01d2 17       		.uleb128 0x17
 3069 01d3 B742     		.uleb128 0x2137
 3070 01d5 17       		.uleb128 0x17
 3071 01d6 00       		.byte	0
 3072 01d7 00       		.byte	0
 3073 01d8 21       		.uleb128 0x21
 3074 01d9 1D       		.uleb128 0x1d
 3075 01da 01       		.byte	0x1
 3076 01db 31       		.uleb128 0x31
 3077 01dc 13       		.uleb128 0x13
 3078 01dd 52       		.uleb128 0x52
ARM GAS  /tmp/ccf22wGX.s 			page 55


 3079 01de 01       		.uleb128 0x1
 3080 01df B842     		.uleb128 0x2138
 3081 01e1 0B       		.uleb128 0xb
 3082 01e2 55       		.uleb128 0x55
 3083 01e3 17       		.uleb128 0x17
 3084 01e4 58       		.uleb128 0x58
 3085 01e5 0B       		.uleb128 0xb
 3086 01e6 59       		.uleb128 0x59
 3087 01e7 0B       		.uleb128 0xb
 3088 01e8 57       		.uleb128 0x57
 3089 01e9 0B       		.uleb128 0xb
 3090 01ea 01       		.uleb128 0x1
 3091 01eb 13       		.uleb128 0x13
 3092 01ec 00       		.byte	0
 3093 01ed 00       		.byte	0
 3094 01ee 22       		.uleb128 0x22
 3095 01ef 898201   		.uleb128 0x4109
 3096 01f2 01       		.byte	0x1
 3097 01f3 11       		.uleb128 0x11
 3098 01f4 01       		.uleb128 0x1
 3099 01f5 9542     		.uleb128 0x2115
 3100 01f7 19       		.uleb128 0x19
 3101 01f8 31       		.uleb128 0x31
 3102 01f9 13       		.uleb128 0x13
 3103 01fa 00       		.byte	0
 3104 01fb 00       		.byte	0
 3105 01fc 23       		.uleb128 0x23
 3106 01fd 8A8201   		.uleb128 0x410a
 3107 0200 00       		.byte	0
 3108 0201 02       		.uleb128 0x2
 3109 0202 18       		.uleb128 0x18
 3110 0203 9142     		.uleb128 0x2111
 3111 0205 18       		.uleb128 0x18
 3112 0206 00       		.byte	0
 3113 0207 00       		.byte	0
 3114 0208 24       		.uleb128 0x24
 3115 0209 1D       		.uleb128 0x1d
 3116 020a 01       		.byte	0x1
 3117 020b 31       		.uleb128 0x31
 3118 020c 13       		.uleb128 0x13
 3119 020d 52       		.uleb128 0x52
 3120 020e 01       		.uleb128 0x1
 3121 020f B842     		.uleb128 0x2138
 3122 0211 0B       		.uleb128 0xb
 3123 0212 55       		.uleb128 0x55
 3124 0213 17       		.uleb128 0x17
 3125 0214 58       		.uleb128 0x58
 3126 0215 0B       		.uleb128 0xb
 3127 0216 59       		.uleb128 0x59
 3128 0217 0B       		.uleb128 0xb
 3129 0218 57       		.uleb128 0x57
 3130 0219 0B       		.uleb128 0xb
 3131 021a 00       		.byte	0
 3132 021b 00       		.byte	0
 3133 021c 25       		.uleb128 0x25
 3134 021d 2E       		.uleb128 0x2e
 3135 021e 01       		.byte	0x1
ARM GAS  /tmp/ccf22wGX.s 			page 56


 3136 021f 3F       		.uleb128 0x3f
 3137 0220 19       		.uleb128 0x19
 3138 0221 03       		.uleb128 0x3
 3139 0222 0E       		.uleb128 0xe
 3140 0223 3A       		.uleb128 0x3a
 3141 0224 0B       		.uleb128 0xb
 3142 0225 3B       		.uleb128 0x3b
 3143 0226 0B       		.uleb128 0xb
 3144 0227 39       		.uleb128 0x39
 3145 0228 0B       		.uleb128 0xb
 3146 0229 27       		.uleb128 0x27
 3147 022a 19       		.uleb128 0x19
 3148 022b 49       		.uleb128 0x49
 3149 022c 13       		.uleb128 0x13
 3150 022d 11       		.uleb128 0x11
 3151 022e 01       		.uleb128 0x1
 3152 022f 12       		.uleb128 0x12
 3153 0230 06       		.uleb128 0x6
 3154 0231 40       		.uleb128 0x40
 3155 0232 18       		.uleb128 0x18
 3156 0233 9742     		.uleb128 0x2117
 3157 0235 19       		.uleb128 0x19
 3158 0236 01       		.uleb128 0x1
 3159 0237 13       		.uleb128 0x13
 3160 0238 00       		.byte	0
 3161 0239 00       		.byte	0
 3162 023a 26       		.uleb128 0x26
 3163 023b 05       		.uleb128 0x5
 3164 023c 00       		.byte	0
 3165 023d 03       		.uleb128 0x3
 3166 023e 0E       		.uleb128 0xe
 3167 023f 3A       		.uleb128 0x3a
 3168 0240 0B       		.uleb128 0xb
 3169 0241 3B       		.uleb128 0x3b
 3170 0242 0B       		.uleb128 0xb
 3171 0243 39       		.uleb128 0x39
 3172 0244 0B       		.uleb128 0xb
 3173 0245 49       		.uleb128 0x49
 3174 0246 13       		.uleb128 0x13
 3175 0247 02       		.uleb128 0x2
 3176 0248 17       		.uleb128 0x17
 3177 0249 B742     		.uleb128 0x2137
 3178 024b 17       		.uleb128 0x17
 3179 024c 00       		.byte	0
 3180 024d 00       		.byte	0
 3181 024e 27       		.uleb128 0x27
 3182 024f 0B       		.uleb128 0xb
 3183 0250 01       		.byte	0x1
 3184 0251 11       		.uleb128 0x11
 3185 0252 01       		.uleb128 0x1
 3186 0253 12       		.uleb128 0x12
 3187 0254 06       		.uleb128 0x6
 3188 0255 01       		.uleb128 0x1
 3189 0256 13       		.uleb128 0x13
 3190 0257 00       		.byte	0
 3191 0258 00       		.byte	0
 3192 0259 28       		.uleb128 0x28
ARM GAS  /tmp/ccf22wGX.s 			page 57


 3193 025a 34       		.uleb128 0x34
 3194 025b 00       		.byte	0
 3195 025c 03       		.uleb128 0x3
 3196 025d 08       		.uleb128 0x8
 3197 025e 3A       		.uleb128 0x3a
 3198 025f 0B       		.uleb128 0xb
 3199 0260 3B       		.uleb128 0x3b
 3200 0261 0B       		.uleb128 0xb
 3201 0262 39       		.uleb128 0x39
 3202 0263 0B       		.uleb128 0xb
 3203 0264 49       		.uleb128 0x49
 3204 0265 13       		.uleb128 0x13
 3205 0266 02       		.uleb128 0x2
 3206 0267 18       		.uleb128 0x18
 3207 0268 00       		.byte	0
 3208 0269 00       		.byte	0
 3209 026a 29       		.uleb128 0x29
 3210 026b 898201   		.uleb128 0x4109
 3211 026e 01       		.byte	0x1
 3212 026f 11       		.uleb128 0x11
 3213 0270 01       		.uleb128 0x1
 3214 0271 31       		.uleb128 0x31
 3215 0272 13       		.uleb128 0x13
 3216 0273 01       		.uleb128 0x1
 3217 0274 13       		.uleb128 0x13
 3218 0275 00       		.byte	0
 3219 0276 00       		.byte	0
 3220 0277 2A       		.uleb128 0x2a
 3221 0278 898201   		.uleb128 0x4109
 3222 027b 01       		.byte	0x1
 3223 027c 11       		.uleb128 0x11
 3224 027d 01       		.uleb128 0x1
 3225 027e 31       		.uleb128 0x31
 3226 027f 13       		.uleb128 0x13
 3227 0280 00       		.byte	0
 3228 0281 00       		.byte	0
 3229 0282 2B       		.uleb128 0x2b
 3230 0283 898201   		.uleb128 0x4109
 3231 0286 00       		.byte	0
 3232 0287 11       		.uleb128 0x11
 3233 0288 01       		.uleb128 0x1
 3234 0289 31       		.uleb128 0x31
 3235 028a 13       		.uleb128 0x13
 3236 028b 00       		.byte	0
 3237 028c 00       		.byte	0
 3238 028d 2C       		.uleb128 0x2c
 3239 028e 2E       		.uleb128 0x2e
 3240 028f 01       		.byte	0x1
 3241 0290 03       		.uleb128 0x3
 3242 0291 0E       		.uleb128 0xe
 3243 0292 3A       		.uleb128 0x3a
 3244 0293 0B       		.uleb128 0xb
 3245 0294 3B       		.uleb128 0x3b
 3246 0295 0B       		.uleb128 0xb
 3247 0296 39       		.uleb128 0x39
 3248 0297 0B       		.uleb128 0xb
 3249 0298 27       		.uleb128 0x27
ARM GAS  /tmp/ccf22wGX.s 			page 58


 3250 0299 19       		.uleb128 0x19
 3251 029a 20       		.uleb128 0x20
 3252 029b 0B       		.uleb128 0xb
 3253 029c 01       		.uleb128 0x1
 3254 029d 13       		.uleb128 0x13
 3255 029e 00       		.byte	0
 3256 029f 00       		.byte	0
 3257 02a0 2D       		.uleb128 0x2d
 3258 02a1 05       		.uleb128 0x5
 3259 02a2 00       		.byte	0
 3260 02a3 03       		.uleb128 0x3
 3261 02a4 08       		.uleb128 0x8
 3262 02a5 3A       		.uleb128 0x3a
 3263 02a6 0B       		.uleb128 0xb
 3264 02a7 3B       		.uleb128 0x3b
 3265 02a8 0B       		.uleb128 0xb
 3266 02a9 39       		.uleb128 0x39
 3267 02aa 0B       		.uleb128 0xb
 3268 02ab 49       		.uleb128 0x49
 3269 02ac 13       		.uleb128 0x13
 3270 02ad 00       		.byte	0
 3271 02ae 00       		.byte	0
 3272 02af 2E       		.uleb128 0x2e
 3273 02b0 34       		.uleb128 0x34
 3274 02b1 00       		.byte	0
 3275 02b2 03       		.uleb128 0x3
 3276 02b3 08       		.uleb128 0x8
 3277 02b4 3A       		.uleb128 0x3a
 3278 02b5 0B       		.uleb128 0xb
 3279 02b6 3B       		.uleb128 0x3b
 3280 02b7 0B       		.uleb128 0xb
 3281 02b8 39       		.uleb128 0x39
 3282 02b9 0B       		.uleb128 0xb
 3283 02ba 49       		.uleb128 0x49
 3284 02bb 13       		.uleb128 0x13
 3285 02bc 00       		.byte	0
 3286 02bd 00       		.byte	0
 3287 02be 2F       		.uleb128 0x2f
 3288 02bf 2E       		.uleb128 0x2e
 3289 02c0 01       		.byte	0x1
 3290 02c1 3F       		.uleb128 0x3f
 3291 02c2 19       		.uleb128 0x19
 3292 02c3 03       		.uleb128 0x3
 3293 02c4 0E       		.uleb128 0xe
 3294 02c5 3A       		.uleb128 0x3a
 3295 02c6 0B       		.uleb128 0xb
 3296 02c7 3B       		.uleb128 0x3b
 3297 02c8 0B       		.uleb128 0xb
 3298 02c9 39       		.uleb128 0x39
 3299 02ca 0B       		.uleb128 0xb
 3300 02cb 27       		.uleb128 0x27
 3301 02cc 19       		.uleb128 0x19
 3302 02cd 49       		.uleb128 0x49
 3303 02ce 13       		.uleb128 0x13
 3304 02cf 20       		.uleb128 0x20
 3305 02d0 0B       		.uleb128 0xb
 3306 02d1 01       		.uleb128 0x1
ARM GAS  /tmp/ccf22wGX.s 			page 59


 3307 02d2 13       		.uleb128 0x13
 3308 02d3 00       		.byte	0
 3309 02d4 00       		.byte	0
 3310 02d5 30       		.uleb128 0x30
 3311 02d6 2E       		.uleb128 0x2e
 3312 02d7 00       		.byte	0
 3313 02d8 3F       		.uleb128 0x3f
 3314 02d9 19       		.uleb128 0x19
 3315 02da 03       		.uleb128 0x3
 3316 02db 0E       		.uleb128 0xe
 3317 02dc 3A       		.uleb128 0x3a
 3318 02dd 0B       		.uleb128 0xb
 3319 02de 3B       		.uleb128 0x3b
 3320 02df 0B       		.uleb128 0xb
 3321 02e0 39       		.uleb128 0x39
 3322 02e1 0B       		.uleb128 0xb
 3323 02e2 27       		.uleb128 0x27
 3324 02e3 19       		.uleb128 0x19
 3325 02e4 11       		.uleb128 0x11
 3326 02e5 01       		.uleb128 0x1
 3327 02e6 12       		.uleb128 0x12
 3328 02e7 06       		.uleb128 0x6
 3329 02e8 40       		.uleb128 0x40
 3330 02e9 18       		.uleb128 0x18
 3331 02ea 9742     		.uleb128 0x2117
 3332 02ec 19       		.uleb128 0x19
 3333 02ed 00       		.byte	0
 3334 02ee 00       		.byte	0
 3335 02ef 31       		.uleb128 0x31
 3336 02f0 2E       		.uleb128 0x2e
 3337 02f1 01       		.byte	0x1
 3338 02f2 03       		.uleb128 0x3
 3339 02f3 0E       		.uleb128 0xe
 3340 02f4 3A       		.uleb128 0x3a
 3341 02f5 0B       		.uleb128 0xb
 3342 02f6 3B       		.uleb128 0x3b
 3343 02f7 0B       		.uleb128 0xb
 3344 02f8 39       		.uleb128 0x39
 3345 02f9 0B       		.uleb128 0xb
 3346 02fa 27       		.uleb128 0x27
 3347 02fb 19       		.uleb128 0x19
 3348 02fc 49       		.uleb128 0x49
 3349 02fd 13       		.uleb128 0x13
 3350 02fe 20       		.uleb128 0x20
 3351 02ff 0B       		.uleb128 0xb
 3352 0300 01       		.uleb128 0x1
 3353 0301 13       		.uleb128 0x13
 3354 0302 00       		.byte	0
 3355 0303 00       		.byte	0
 3356 0304 32       		.uleb128 0x32
 3357 0305 2E       		.uleb128 0x2e
 3358 0306 01       		.byte	0x1
 3359 0307 31       		.uleb128 0x31
 3360 0308 13       		.uleb128 0x13
 3361 0309 11       		.uleb128 0x11
 3362 030a 01       		.uleb128 0x1
 3363 030b 12       		.uleb128 0x12
ARM GAS  /tmp/ccf22wGX.s 			page 60


 3364 030c 06       		.uleb128 0x6
 3365 030d 40       		.uleb128 0x40
 3366 030e 18       		.uleb128 0x18
 3367 030f 9742     		.uleb128 0x2117
 3368 0311 19       		.uleb128 0x19
 3369 0312 01       		.uleb128 0x1
 3370 0313 13       		.uleb128 0x13
 3371 0314 00       		.byte	0
 3372 0315 00       		.byte	0
 3373 0316 33       		.uleb128 0x33
 3374 0317 05       		.uleb128 0x5
 3375 0318 00       		.byte	0
 3376 0319 31       		.uleb128 0x31
 3377 031a 13       		.uleb128 0x13
 3378 031b 02       		.uleb128 0x2
 3379 031c 18       		.uleb128 0x18
 3380 031d 00       		.byte	0
 3381 031e 00       		.byte	0
 3382 031f 34       		.uleb128 0x34
 3383 0320 1D       		.uleb128 0x1d
 3384 0321 01       		.byte	0x1
 3385 0322 31       		.uleb128 0x31
 3386 0323 13       		.uleb128 0x13
 3387 0324 52       		.uleb128 0x52
 3388 0325 01       		.uleb128 0x1
 3389 0326 B842     		.uleb128 0x2138
 3390 0328 0B       		.uleb128 0xb
 3391 0329 11       		.uleb128 0x11
 3392 032a 01       		.uleb128 0x1
 3393 032b 12       		.uleb128 0x12
 3394 032c 06       		.uleb128 0x6
 3395 032d 58       		.uleb128 0x58
 3396 032e 0B       		.uleb128 0xb
 3397 032f 59       		.uleb128 0x59
 3398 0330 0B       		.uleb128 0xb
 3399 0331 57       		.uleb128 0x57
 3400 0332 0B       		.uleb128 0xb
 3401 0333 01       		.uleb128 0x1
 3402 0334 13       		.uleb128 0x13
 3403 0335 00       		.byte	0
 3404 0336 00       		.byte	0
 3405 0337 35       		.uleb128 0x35
 3406 0338 34       		.uleb128 0x34
 3407 0339 00       		.byte	0
 3408 033a 31       		.uleb128 0x31
 3409 033b 13       		.uleb128 0x13
 3410 033c 00       		.byte	0
 3411 033d 00       		.byte	0
 3412 033e 36       		.uleb128 0x36
 3413 033f 1D       		.uleb128 0x1d
 3414 0340 01       		.byte	0x1
 3415 0341 31       		.uleb128 0x31
 3416 0342 13       		.uleb128 0x13
 3417 0343 55       		.uleb128 0x55
 3418 0344 17       		.uleb128 0x17
 3419 0345 58       		.uleb128 0x58
 3420 0346 0B       		.uleb128 0xb
ARM GAS  /tmp/ccf22wGX.s 			page 61


 3421 0347 59       		.uleb128 0x59
 3422 0348 0B       		.uleb128 0xb
 3423 0349 57       		.uleb128 0x57
 3424 034a 0B       		.uleb128 0xb
 3425 034b 00       		.byte	0
 3426 034c 00       		.byte	0
 3427 034d 37       		.uleb128 0x37
 3428 034e 05       		.uleb128 0x5
 3429 034f 00       		.byte	0
 3430 0350 31       		.uleb128 0x31
 3431 0351 13       		.uleb128 0x13
 3432 0352 00       		.byte	0
 3433 0353 00       		.byte	0
 3434 0354 38       		.uleb128 0x38
 3435 0355 2E       		.uleb128 0x2e
 3436 0356 00       		.byte	0
 3437 0357 3F       		.uleb128 0x3f
 3438 0358 19       		.uleb128 0x19
 3439 0359 3C       		.uleb128 0x3c
 3440 035a 19       		.uleb128 0x19
 3441 035b 6E       		.uleb128 0x6e
 3442 035c 0E       		.uleb128 0xe
 3443 035d 03       		.uleb128 0x3
 3444 035e 0E       		.uleb128 0xe
 3445 035f 3A       		.uleb128 0x3a
 3446 0360 0B       		.uleb128 0xb
 3447 0361 3B       		.uleb128 0x3b
 3448 0362 05       		.uleb128 0x5
 3449 0363 39       		.uleb128 0x39
 3450 0364 0B       		.uleb128 0xb
 3451 0365 00       		.byte	0
 3452 0366 00       		.byte	0
 3453 0367 39       		.uleb128 0x39
 3454 0368 2E       		.uleb128 0x2e
 3455 0369 00       		.byte	0
 3456 036a 3F       		.uleb128 0x3f
 3457 036b 19       		.uleb128 0x19
 3458 036c 3C       		.uleb128 0x3c
 3459 036d 19       		.uleb128 0x19
 3460 036e 6E       		.uleb128 0x6e
 3461 036f 0E       		.uleb128 0xe
 3462 0370 03       		.uleb128 0x3
 3463 0371 0E       		.uleb128 0xe
 3464 0372 3A       		.uleb128 0x3a
 3465 0373 0B       		.uleb128 0xb
 3466 0374 3B       		.uleb128 0x3b
 3467 0375 0B       		.uleb128 0xb
 3468 0376 39       		.uleb128 0x39
 3469 0377 0B       		.uleb128 0xb
 3470 0378 00       		.byte	0
 3471 0379 00       		.byte	0
 3472 037a 00       		.byte	0
 3473              		.section	.debug_loc,"",%progbits
 3474              	.Ldebug_loc0:
 3475              	.LVUS27:
 3476 0000 00       		.uleb128 .LVU320
 3477 0001 00       		.uleb128 .LVU356
ARM GAS  /tmp/ccf22wGX.s 			page 62


 3478              	.LLST27:
 3479 0002 18000000 		.4byte	.LVL52
 3480 0006 6B000000 		.4byte	.LVL56-1
 3481 000a 0100     		.2byte	0x1
 3482 000c 51       		.byte	0x51
 3483 000d 00000000 		.4byte	0
 3484 0011 00000000 		.4byte	0
 3485              	.LVUS28:
 3486 0015 03       		.uleb128 .LVU337
 3487 0016 00       		.uleb128 .LVU338
 3488              	.LLST28:
 3489 0017 38000000 		.4byte	.LVL54
 3490 001b 3C000000 		.4byte	.LVL55
 3491 001f 0600     		.2byte	0x6
 3492 0021 03       		.byte	0x3
 3493 0022 00000000 		.4byte	rlist
 3494 0026 9F       		.byte	0x9f
 3495 0027 00000000 		.4byte	0
 3496 002b 00000000 		.4byte	0
 3497              	.LVUS29:
 3498 002f 01       		.uleb128 .LVU321
 3499 0030 01       		.uleb128 .LVU328
 3500              	.LLST29:
 3501 0031 18000000 		.4byte	.LVL52
 3502 0035 24000000 		.4byte	.LVL53
 3503 0039 0600     		.2byte	0x6
 3504 003b 03       		.byte	0x3
 3505 003c 00000000 		.4byte	rlist
 3506 0040 9F       		.byte	0x9f
 3507 0041 00000000 		.4byte	0
 3508 0045 00000000 		.4byte	0
 3509              	.LVUS30:
 3510 0049 03       		.uleb128 .LVU323
 3511 004a 01       		.uleb128 .LVU328
 3512              	.LLST30:
 3513 004b 18000000 		.4byte	.LVL52
 3514 004f 24000000 		.4byte	.LVL53
 3515 0053 0100     		.2byte	0x1
 3516 0055 50       		.byte	0x50
 3517 0056 00000000 		.4byte	0
 3518 005a 00000000 		.4byte	0
 3519              	.LVUS22:
 3520 005e 00       		.uleb128 .LVU263
 3521 005f 00       		.uleb128 .LVU310
 3522              	.LLST22:
 3523 0060 1C000000 		.4byte	.LVL45
 3524 0064 73000000 		.4byte	.LVL51-1
 3525 0068 0100     		.2byte	0x1
 3526 006a 51       		.byte	0x51
 3527 006b 00000000 		.4byte	0
 3528 006f 00000000 		.4byte	0
 3529              	.LVUS23:
 3530 0073 01       		.uleb128 .LVU280
 3531 0074 01       		.uleb128 .LVU305
 3532              	.LLST23:
 3533 0075 3C000000 		.4byte	.LVL47
 3534 0079 70000000 		.4byte	.LVL50
ARM GAS  /tmp/ccf22wGX.s 			page 63


 3535 007d 0100     		.2byte	0x1
 3536 007f 51       		.byte	0x51
 3537 0080 00000000 		.4byte	0
 3538 0084 00000000 		.4byte	0
 3539              	.LVUS24:
 3540 0088 01       		.uleb128 .LVU289
 3541 0089 00       		.uleb128 .LVU290
 3542              	.LLST24:
 3543 008a 40000000 		.4byte	.LVL48
 3544 008e 44000000 		.4byte	.LVL49
 3545 0092 0600     		.2byte	0x6
 3546 0094 03       		.byte	0x3
 3547 0095 00000000 		.4byte	rlist
 3548 0099 9F       		.byte	0x9f
 3549 009a 00000000 		.4byte	0
 3550 009e 00000000 		.4byte	0
 3551              	.LVUS25:
 3552 00a2 01       		.uleb128 .LVU264
 3553 00a3 01       		.uleb128 .LVU271
 3554              	.LLST25:
 3555 00a4 1C000000 		.4byte	.LVL45
 3556 00a8 28000000 		.4byte	.LVL46
 3557 00ac 0600     		.2byte	0x6
 3558 00ae 03       		.byte	0x3
 3559 00af 00000000 		.4byte	rlist
 3560 00b3 9F       		.byte	0x9f
 3561 00b4 00000000 		.4byte	0
 3562 00b8 00000000 		.4byte	0
 3563              	.LVUS26:
 3564 00bc 03       		.uleb128 .LVU266
 3565 00bd 01       		.uleb128 .LVU271
 3566              	.LLST26:
 3567 00be 1C000000 		.4byte	.LVL45
 3568 00c2 28000000 		.4byte	.LVL46
 3569 00c6 0100     		.2byte	0x1
 3570 00c8 50       		.byte	0x50
 3571 00c9 00000000 		.4byte	0
 3572 00cd 00000000 		.4byte	0
 3573              	.LVUS20:
 3574 00d1 00       		.uleb128 .LVU243
 3575 00d2 00       		.uleb128 .LVU249
 3576 00d3 00       		.uleb128 .LVU249
 3577 00d4 00       		.uleb128 .LVU250
 3578 00d5 00       		.uleb128 .LVU250
 3579 00d6 00       		.uleb128 .LVU251
 3580 00d7 00       		.uleb128 .LVU251
 3581 00d8 00       		.uleb128 0
 3582              	.LLST20:
 3583 00d9 14000000 		.4byte	.LVL40
 3584 00dd 28000000 		.4byte	.LVL42
 3585 00e1 0100     		.2byte	0x1
 3586 00e3 50       		.byte	0x50
 3587 00e4 28000000 		.4byte	.LVL42
 3588 00e8 30000000 		.4byte	.LVL43
 3589 00ec 0200     		.2byte	0x2
 3590 00ee 71       		.byte	0x71
 3591 00ef 08       		.sleb128 8
ARM GAS  /tmp/ccf22wGX.s 			page 64


 3592 00f0 30000000 		.4byte	.LVL43
 3593 00f4 38000000 		.4byte	.LVL44
 3594 00f8 0100     		.2byte	0x1
 3595 00fa 50       		.byte	0x50
 3596 00fb 38000000 		.4byte	.LVL44
 3597 00ff 44000000 		.4byte	.LFE14
 3598 0103 0200     		.2byte	0x2
 3599 0105 71       		.byte	0x71
 3600 0106 08       		.sleb128 8
 3601 0107 00000000 		.4byte	0
 3602 010b 00000000 		.4byte	0
 3603              	.LVUS21:
 3604 010f 00       		.uleb128 .LVU246
 3605 0110 00       		.uleb128 0
 3606              	.LLST21:
 3607 0111 1C000000 		.4byte	.LVL41
 3608 0115 44000000 		.4byte	.LFE14
 3609 0119 0100     		.2byte	0x1
 3610 011b 53       		.byte	0x53
 3611 011c 00000000 		.4byte	0
 3612 0120 00000000 		.4byte	0
 3613              	.LVUS13:
 3614 0124 00       		.uleb128 0
 3615 0125 00       		.uleb128 .LVU235
 3616 0126 00       		.uleb128 .LVU235
 3617 0127 00       		.uleb128 0
 3618              	.LLST13:
 3619 0128 00000000 		.4byte	.LVL26
 3620 012c 9B000000 		.4byte	.LVL39-1
 3621 0130 0100     		.2byte	0x1
 3622 0132 50       		.byte	0x50
 3623 0133 9B000000 		.4byte	.LVL39-1
 3624 0137 A0000000 		.4byte	.LFE12
 3625 013b 0400     		.2byte	0x4
 3626 013d F3       		.byte	0xf3
 3627 013e 01       		.uleb128 0x1
 3628 013f 50       		.byte	0x50
 3629 0140 9F       		.byte	0x9f
 3630 0141 00000000 		.4byte	0
 3631 0145 00000000 		.4byte	0
 3632              	.LVUS14:
 3633 0149 00       		.uleb128 0
 3634 014a 00       		.uleb128 .LVU169
 3635 014b 00       		.uleb128 .LVU169
 3636 014c 00       		.uleb128 .LVU206
 3637 014d 00       		.uleb128 .LVU206
 3638 014e 00       		.uleb128 0
 3639              	.LLST14:
 3640 014f 00000000 		.4byte	.LVL26
 3641 0153 20000000 		.4byte	.LVL27
 3642 0157 0100     		.2byte	0x1
 3643 0159 51       		.byte	0x51
 3644 015a 20000000 		.4byte	.LVL27
 3645 015e 5C000000 		.4byte	.LVL34
 3646 0162 0200     		.2byte	0x2
 3647 0164 70       		.byte	0x70
 3648 0165 24       		.sleb128 36
ARM GAS  /tmp/ccf22wGX.s 			page 65


 3649 0166 5C000000 		.4byte	.LVL34
 3650 016a A0000000 		.4byte	.LFE12
 3651 016e 0400     		.2byte	0x4
 3652 0170 F3       		.byte	0xf3
 3653 0171 01       		.uleb128 0x1
 3654 0172 51       		.byte	0x51
 3655 0173 9F       		.byte	0x9f
 3656 0174 00000000 		.4byte	0
 3657 0178 00000000 		.4byte	0
 3658              	.LVUS17:
 3659 017c 01       		.uleb128 .LVU225
 3660 017d 00       		.uleb128 .LVU229
 3661 017e 00       		.uleb128 .LVU229
 3662 017f 00       		.uleb128 .LVU235
 3663              	.LLST17:
 3664 0180 8C000000 		.4byte	.LVL37
 3665 0184 94000000 		.4byte	.LVL38
 3666 0188 0100     		.2byte	0x1
 3667 018a 54       		.byte	0x54
 3668 018b 94000000 		.4byte	.LVL38
 3669 018f 9B000000 		.4byte	.LVL39-1
 3670 0193 0100     		.2byte	0x1
 3671 0195 51       		.byte	0x51
 3672 0196 00000000 		.4byte	0
 3673 019a 00000000 		.4byte	0
 3674              	.LVUS18:
 3675 019e 01       		.uleb128 .LVU198
 3676 019f 01       		.uleb128 .LVU225
 3677              	.LLST18:
 3678 01a0 58000000 		.4byte	.LVL33
 3679 01a4 8C000000 		.4byte	.LVL37
 3680 01a8 0100     		.2byte	0x1
 3681 01aa 54       		.byte	0x54
 3682 01ab 00000000 		.4byte	0
 3683 01af 00000000 		.4byte	0
 3684              	.LVUS19:
 3685 01b3 01       		.uleb128 .LVU207
 3686 01b4 00       		.uleb128 .LVU221
 3687 01b5 00       		.uleb128 .LVU221
 3688 01b6 00       		.uleb128 .LVU224
 3689              	.LLST19:
 3690 01b7 5C000000 		.4byte	.LVL34
 3691 01bb 84000000 		.4byte	.LVL36
 3692 01bf 0100     		.2byte	0x1
 3693 01c1 53       		.byte	0x53
 3694 01c2 84000000 		.4byte	.LVL36
 3695 01c6 8C000000 		.4byte	.LVL37
 3696 01ca 0200     		.2byte	0x2
 3697 01cc 74       		.byte	0x74
 3698 01cd 00       		.sleb128 0
 3699 01ce 00000000 		.4byte	0
 3700 01d2 00000000 		.4byte	0
 3701              	.LVUS15:
 3702 01d6 01       		.uleb128 .LVU172
 3703 01d7 00       		.uleb128 .LVU197
 3704              	.LLST15:
 3705 01d8 28000000 		.4byte	.LVL28
ARM GAS  /tmp/ccf22wGX.s 			page 66


 3706 01dc 58000000 		.4byte	.LVL33
 3707 01e0 0100     		.2byte	0x1
 3708 01e2 50       		.byte	0x50
 3709 01e3 00000000 		.4byte	0
 3710 01e7 00000000 		.4byte	0
 3711              	.LVUS16:
 3712 01eb 01       		.uleb128 .LVU181
 3713 01ec 00       		.uleb128 .LVU194
 3714 01ed 00       		.uleb128 .LVU194
 3715 01ee 00       		.uleb128 .LVU195
 3716              	.LLST16:
 3717 01ef 2C000000 		.4byte	.LVL29
 3718 01f3 50000000 		.4byte	.LVL31
 3719 01f7 0100     		.2byte	0x1
 3720 01f9 53       		.byte	0x53
 3721 01fa 50000000 		.4byte	.LVL31
 3722 01fe 54000000 		.4byte	.LVL32
 3723 0202 0200     		.2byte	0x2
 3724 0204 70       		.byte	0x70
 3725 0205 00       		.sleb128 0
 3726 0206 00000000 		.4byte	0
 3727 020a 00000000 		.4byte	0
 3728              	.LVUS11:
 3729 020e 00       		.uleb128 0
 3730 020f 00       		.uleb128 .LVU143
 3731 0210 00       		.uleb128 .LVU143
 3732 0211 00       		.uleb128 .LVU151
 3733 0212 00       		.uleb128 .LVU151
 3734 0213 00       		.uleb128 .LVU152
 3735 0214 00       		.uleb128 .LVU152
 3736 0215 00       		.uleb128 0
 3737              	.LLST11:
 3738 0216 00000000 		.4byte	.LVL19
 3739 021a 24000000 		.4byte	.LVL20
 3740 021e 0100     		.2byte	0x1
 3741 0220 50       		.byte	0x50
 3742 0221 24000000 		.4byte	.LVL20
 3743 0225 54000000 		.4byte	.LVL24
 3744 0229 0400     		.2byte	0x4
 3745 022b F3       		.byte	0xf3
 3746 022c 01       		.uleb128 0x1
 3747 022d 50       		.byte	0x50
 3748 022e 9F       		.byte	0x9f
 3749 022f 54000000 		.4byte	.LVL24
 3750 0233 57000000 		.4byte	.LVL25-1
 3751 0237 0100     		.2byte	0x1
 3752 0239 50       		.byte	0x50
 3753 023a 57000000 		.4byte	.LVL25-1
 3754 023e 74000000 		.4byte	.LFE11
 3755 0242 0400     		.2byte	0x4
 3756 0244 F3       		.byte	0xf3
 3757 0245 01       		.uleb128 0x1
 3758 0246 50       		.byte	0x50
 3759 0247 9F       		.byte	0x9f
 3760 0248 00000000 		.4byte	0
 3761 024c 00000000 		.4byte	0
 3762              	.LVUS12:
ARM GAS  /tmp/ccf22wGX.s 			page 67


 3763 0250 00       		.uleb128 0
 3764 0251 00       		.uleb128 .LVU144
 3765 0252 00       		.uleb128 .LVU144
 3766 0253 00       		.uleb128 .LVU151
 3767 0254 00       		.uleb128 .LVU151
 3768 0255 00       		.uleb128 .LVU152
 3769 0256 00       		.uleb128 .LVU152
 3770 0257 00       		.uleb128 0
 3771              	.LLST12:
 3772 0258 00000000 		.4byte	.LVL19
 3773 025c 27000000 		.4byte	.LVL21-1
 3774 0260 0100     		.2byte	0x1
 3775 0262 51       		.byte	0x51
 3776 0263 27000000 		.4byte	.LVL21-1
 3777 0267 54000000 		.4byte	.LVL24
 3778 026b 0400     		.2byte	0x4
 3779 026d F3       		.byte	0xf3
 3780 026e 01       		.uleb128 0x1
 3781 026f 51       		.byte	0x51
 3782 0270 9F       		.byte	0x9f
 3783 0271 54000000 		.4byte	.LVL24
 3784 0275 57000000 		.4byte	.LVL25-1
 3785 0279 0100     		.2byte	0x1
 3786 027b 51       		.byte	0x51
 3787 027c 57000000 		.4byte	.LVL25-1
 3788 0280 74000000 		.4byte	.LFE11
 3789 0284 0400     		.2byte	0x4
 3790 0286 F3       		.byte	0xf3
 3791 0287 01       		.uleb128 0x1
 3792 0288 51       		.byte	0x51
 3793 0289 9F       		.byte	0x9f
 3794 028a 00000000 		.4byte	0
 3795 028e 00000000 		.4byte	0
 3796              	.LVUS7:
 3797 0292 00       		.uleb128 0
 3798 0293 00       		.uleb128 .LVU118
 3799 0294 00       		.uleb128 .LVU118
 3800 0295 00       		.uleb128 .LVU119
 3801 0296 00       		.uleb128 .LVU119
 3802 0297 00       		.uleb128 0
 3803              	.LLST7:
 3804 0298 00000000 		.4byte	.LVL13
 3805 029c 28000000 		.4byte	.LVL16
 3806 02a0 0100     		.2byte	0x1
 3807 02a2 50       		.byte	0x50
 3808 02a3 28000000 		.4byte	.LVL16
 3809 02a7 2C000000 		.4byte	.LVL17
 3810 02ab 0200     		.2byte	0x2
 3811 02ad 71       		.byte	0x71
 3812 02ae 1C       		.sleb128 28
 3813 02af 2C000000 		.4byte	.LVL17
 3814 02b3 44000000 		.4byte	.LFE9
 3815 02b7 0400     		.2byte	0x4
 3816 02b9 F3       		.byte	0xf3
 3817 02ba 01       		.uleb128 0x1
 3818 02bb 50       		.byte	0x50
 3819 02bc 9F       		.byte	0x9f
ARM GAS  /tmp/ccf22wGX.s 			page 68


 3820 02bd 00000000 		.4byte	0
 3821 02c1 00000000 		.4byte	0
 3822              	.LVUS8:
 3823 02c5 00       		.uleb128 .LVU108
 3824 02c6 00       		.uleb128 .LVU130
 3825              	.LLST8:
 3826 02c7 14000000 		.4byte	.LVL14
 3827 02cb 3F000000 		.4byte	.LVL18-1
 3828 02cf 0100     		.2byte	0x1
 3829 02d1 51       		.byte	0x51
 3830 02d2 00000000 		.4byte	0
 3831 02d6 00000000 		.4byte	0
 3832              	.LVUS9:
 3833 02da 01       		.uleb128 .LVU113
 3834 02db 01       		.uleb128 .LVU120
 3835              	.LLST9:
 3836 02dc 20000000 		.4byte	.LVL15
 3837 02e0 2C000000 		.4byte	.LVL17
 3838 02e4 0600     		.2byte	0x6
 3839 02e6 03       		.byte	0x3
 3840 02e7 00000000 		.4byte	rlist
 3841 02eb 9F       		.byte	0x9f
 3842 02ec 00000000 		.4byte	0
 3843 02f0 00000000 		.4byte	0
 3844              	.LVUS10:
 3845 02f4 03       		.uleb128 .LVU115
 3846 02f5 01       		.uleb128 .LVU120
 3847              	.LLST10:
 3848 02f6 20000000 		.4byte	.LVL15
 3849 02fa 2C000000 		.4byte	.LVL17
 3850 02fe 0100     		.2byte	0x1
 3851 0300 52       		.byte	0x52
 3852 0301 00000000 		.4byte	0
 3853 0305 00000000 		.4byte	0
 3854              	.LVUS0:
 3855 0309 02       		.uleb128 .LVU2
 3856 030a 00       		.uleb128 0
 3857              	.LLST0:
 3858 030b 00000000 		.4byte	.LVL0
 3859 030f B0000000 		.4byte	.LFE10
 3860 0313 0100     		.2byte	0x1
 3861 0315 50       		.byte	0x50
 3862 0316 00000000 		.4byte	0
 3863 031a 00000000 		.4byte	0
 3864              	.LVUS1:
 3865 031e 01       		.uleb128 .LVU8
 3866 031f 01       		.uleb128 .LVU16
 3867              	.LLST1:
 3868 0320 58000000 		.4byte	.LVL1
 3869 0324 68000000 		.4byte	.LVL2
 3870 0328 0100     		.2byte	0x1
 3871 032a 50       		.byte	0x50
 3872 032b 00000000 		.4byte	0
 3873 032f 00000000 		.4byte	0
 3874              	.LVUS2:
 3875 0333 01       		.uleb128 .LVU24
 3876 0334 05       		.uleb128 .LVU54
ARM GAS  /tmp/ccf22wGX.s 			page 69


 3877              	.LLST2:
 3878 0335 7C000000 		.4byte	.LVL3
 3879 0339 A8000000 		.4byte	.LVL7
 3880 033d 0100     		.2byte	0x1
 3881 033f 50       		.byte	0x50
 3882 0340 00000000 		.4byte	0
 3883 0344 00000000 		.4byte	0
 3884              	.LVUS3:
 3885 0348 01       		.uleb128 .LVU33
 3886 0349 05       		.uleb128 .LVU54
 3887              	.LLST3:
 3888 034a 80000000 		.4byte	.LVL4
 3889 034e A8000000 		.4byte	.LVL7
 3890 0352 0600     		.2byte	0x6
 3891 0354 03       		.byte	0x3
 3892 0355 00000000 		.4byte	rlist
 3893 0359 9F       		.byte	0x9f
 3894 035a 00000000 		.4byte	0
 3895 035e 00000000 		.4byte	0
 3896              	.LVUS4:
 3897 0362 01       		.uleb128 .LVU33
 3898 0363 05       		.uleb128 .LVU54
 3899              	.LLST4:
 3900 0364 80000000 		.4byte	.LVL4
 3901 0368 A8000000 		.4byte	.LVL7
 3902 036c 0100     		.2byte	0x1
 3903 036e 50       		.byte	0x50
 3904 036f 00000000 		.4byte	0
 3905 0373 00000000 		.4byte	0
 3906              	.LVUS5:
 3907 0377 03       		.uleb128 .LVU35
 3908 0378 00       		.uleb128 .LVU48
 3909 0379 00       		.uleb128 .LVU48
 3910 037a 00       		.uleb128 .LVU49
 3911              	.LLST5:
 3912 037b 80000000 		.4byte	.LVL4
 3913 037f A4000000 		.4byte	.LVL6
 3914 0383 0100     		.2byte	0x1
 3915 0385 53       		.byte	0x53
 3916 0386 A4000000 		.4byte	.LVL6
 3917 038a A8000000 		.4byte	.LVL7
 3918 038e 0200     		.2byte	0x2
 3919 0390 70       		.byte	0x70
 3920 0391 00       		.sleb128 0
 3921 0392 00000000 		.4byte	0
 3922 0396 00000000 		.4byte	0
 3923              	.LVUS6:
 3924 039a 01       		.uleb128 .LVU83
 3925 039b 00       		.uleb128 .LVU96
 3926 039c 00       		.uleb128 .LVU96
 3927 039d 00       		.uleb128 .LVU97
 3928              	.LLST6:
 3929 039e 10000000 		.4byte	.LVL9
 3930 03a2 34000000 		.4byte	.LVL11
 3931 03a6 0100     		.2byte	0x1
 3932 03a8 53       		.byte	0x53
 3933 03a9 34000000 		.4byte	.LVL11
ARM GAS  /tmp/ccf22wGX.s 			page 70


 3934 03ad 38000000 		.4byte	.LVL12
 3935 03b1 0200     		.2byte	0x2
 3936 03b3 70       		.byte	0x70
 3937 03b4 00       		.sleb128 0
 3938 03b5 00000000 		.4byte	0
 3939 03b9 00000000 		.4byte	0
 3940              		.section	.debug_aranges,"",%progbits
 3941 0000 6C000000 		.4byte	0x6c
 3942 0004 0200     		.2byte	0x2
 3943 0006 00000000 		.4byte	.Ldebug_info0
 3944 000a 04       		.byte	0x4
 3945 000b 00       		.byte	0
 3946 000c 0000     		.2byte	0
 3947 000e 0000     		.2byte	0
 3948 0010 00000000 		.4byte	.LFB10
 3949 0014 B0000000 		.4byte	.LFE10-.LFB10
 3950 0018 00000000 		.4byte	.LFB7
 3951 001c 24000000 		.4byte	.LFE7-.LFB7
 3952 0020 00000000 		.4byte	.LFB8
 3953 0024 40000000 		.4byte	.LFE8-.LFB8
 3954 0028 00000000 		.4byte	.LFB9
 3955 002c 44000000 		.4byte	.LFE9-.LFB9
 3956 0030 00000000 		.4byte	.LFB11
 3957 0034 74000000 		.4byte	.LFE11-.LFB11
 3958 0038 00000000 		.4byte	.LFB12
 3959 003c A0000000 		.4byte	.LFE12-.LFB12
 3960 0040 00000000 		.4byte	.LFB14
 3961 0044 44000000 		.4byte	.LFE14-.LFB14
 3962 0048 00000000 		.4byte	.LFB15
 3963 004c 78000000 		.4byte	.LFE15-.LFB15
 3964 0050 00000000 		.4byte	.LFB16
 3965 0054 70000000 		.4byte	.LFE16-.LFB16
 3966 0058 00000000 		.4byte	.LFB13
 3967 005c 24000000 		.4byte	.LFE13-.LFB13
 3968 0060 00000000 		.4byte	.LFB17
 3969 0064 20000000 		.4byte	.LFE17-.LFB17
 3970 0068 00000000 		.4byte	0
 3971 006c 00000000 		.4byte	0
 3972              		.section	.debug_ranges,"",%progbits
 3973              	.Ldebug_ranges0:
 3974 0000 6C000000 		.4byte	.LBB35
 3975 0004 70000000 		.4byte	.LBE35
 3976 0008 7C000000 		.4byte	.LBB45
 3977 000c 80000000 		.4byte	.LBE45
 3978 0010 00000000 		.4byte	0
 3979 0014 00000000 		.4byte	0
 3980 0018 70000000 		.4byte	.LBB38
 3981 001c 78000000 		.4byte	.LBE38
 3982 0020 80000000 		.4byte	.LBB46
 3983 0024 A8000000 		.4byte	.LBE46
 3984 0028 00000000 		.4byte	0
 3985 002c 00000000 		.4byte	0
 3986 0030 70000000 		.4byte	.LBB39
 3987 0034 78000000 		.4byte	.LBE39
 3988 0038 80000000 		.4byte	.LBB44
 3989 003c A8000000 		.4byte	.LBE44
 3990 0040 00000000 		.4byte	0
ARM GAS  /tmp/ccf22wGX.s 			page 71


 3991 0044 00000000 		.4byte	0
 3992 0048 14000000 		.4byte	.LBB47
 3993 004c 18000000 		.4byte	.LBE47
 3994 0050 20000000 		.4byte	.LBB52
 3995 0054 24000000 		.4byte	.LBE52
 3996 0058 28000000 		.4byte	.LBB53
 3997 005c 2C000000 		.4byte	.LBE53
 3998 0060 34000000 		.4byte	.LBB54
 3999 0064 38000000 		.4byte	.LBE54
 4000 0068 00000000 		.4byte	0
 4001 006c 00000000 		.4byte	0
 4002 0070 1C000000 		.4byte	.LBB56
 4003 0074 24000000 		.4byte	.LBE56
 4004 0078 28000000 		.4byte	.LBB59
 4005 007c 54000000 		.4byte	.LBE59
 4006 0080 00000000 		.4byte	0
 4007 0084 00000000 		.4byte	0
 4008 0088 58000000 		.4byte	.LBB60
 4009 008c 90000000 		.4byte	.LBE60
 4010 0090 94000000 		.4byte	.LBB67
 4011 0094 A0000000 		.4byte	.LBE67
 4012 0098 00000000 		.4byte	0
 4013 009c 00000000 		.4byte	0
 4014 00a0 58000000 		.4byte	.LBB61
 4015 00a4 6C000000 		.4byte	.LBE61
 4016 00a8 70000000 		.4byte	.LBB65
 4017 00ac 84000000 		.4byte	.LBE65
 4018 00b0 88000000 		.4byte	.LBB66
 4019 00b4 8C000000 		.4byte	.LBE66
 4020 00b8 00000000 		.4byte	0
 4021 00bc 00000000 		.4byte	0
 4022 00c0 0C000000 		.4byte	.LBB68
 4023 00c4 10000000 		.4byte	.LBE68
 4024 00c8 20000000 		.4byte	.LBB80
 4025 00cc 24000000 		.4byte	.LBE80
 4026 00d0 34000000 		.4byte	.LBB83
 4027 00d4 38000000 		.4byte	.LBE83
 4028 00d8 3C000000 		.4byte	.LBB84
 4029 00dc 54000000 		.4byte	.LBE84
 4030 00e0 58000000 		.4byte	.LBB85
 4031 00e4 70000000 		.4byte	.LBE85
 4032 00e8 00000000 		.4byte	0
 4033 00ec 00000000 		.4byte	0
 4034 00f0 14000000 		.4byte	.LBB74
 4035 00f4 18000000 		.4byte	.LBE74
 4036 00f8 1C000000 		.4byte	.LBB79
 4037 00fc 20000000 		.4byte	.LBE79
 4038 0100 24000000 		.4byte	.LBB81
 4039 0104 28000000 		.4byte	.LBE81
 4040 0108 2C000000 		.4byte	.LBB82
 4041 010c 30000000 		.4byte	.LBE82
 4042 0110 00000000 		.4byte	0
 4043 0114 00000000 		.4byte	0
 4044 0118 10000000 		.4byte	.LBB86
 4045 011c 14000000 		.4byte	.LBE86
 4046 0120 18000000 		.4byte	.LBB91
 4047 0124 1C000000 		.4byte	.LBE91
ARM GAS  /tmp/ccf22wGX.s 			page 72


 4048 0128 20000000 		.4byte	.LBB92
 4049 012c 24000000 		.4byte	.LBE92
 4050 0130 28000000 		.4byte	.LBB93
 4051 0134 2C000000 		.4byte	.LBE93
 4052 0138 00000000 		.4byte	0
 4053 013c 00000000 		.4byte	0
 4054 0140 00000000 		.4byte	.LFB10
 4055 0144 B0000000 		.4byte	.LFE10
 4056 0148 00000000 		.4byte	.LFB7
 4057 014c 24000000 		.4byte	.LFE7
 4058 0150 00000000 		.4byte	.LFB8
 4059 0154 40000000 		.4byte	.LFE8
 4060 0158 00000000 		.4byte	.LFB9
 4061 015c 44000000 		.4byte	.LFE9
 4062 0160 00000000 		.4byte	.LFB11
 4063 0164 74000000 		.4byte	.LFE11
 4064 0168 00000000 		.4byte	.LFB12
 4065 016c A0000000 		.4byte	.LFE12
 4066 0170 00000000 		.4byte	.LFB14
 4067 0174 44000000 		.4byte	.LFE14
 4068 0178 00000000 		.4byte	.LFB15
 4069 017c 78000000 		.4byte	.LFE15
 4070 0180 00000000 		.4byte	.LFB16
 4071 0184 70000000 		.4byte	.LFE16
 4072 0188 00000000 		.4byte	.LFB13
 4073 018c 24000000 		.4byte	.LFE13
 4074 0190 00000000 		.4byte	.LFB17
 4075 0194 20000000 		.4byte	.LFE17
 4076 0198 00000000 		.4byte	0
 4077 019c 00000000 		.4byte	0
 4078              		.section	.debug_line,"",%progbits
 4079              	.Ldebug_line0:
 4080 0000 11070000 		.section	.debug_str,"MS",%progbits,1
 4080      03001501 
 4080      00000201 
 4080      FB0E0D00 
 4080      01010101 
 4081              	.LASF88:
 4082 0000 63665F6F 		.ascii	"cf_off_older\000"
 4082      66665F6F 
 4082      6C646572 
 4082      00
 4083              	.LASF38:
 4084 000d 705F6D73 		.ascii	"p_msg\000"
 4084      6700
 4085              	.LASF114:
 4086 0013 474E5520 		.ascii	"GNU C17 9.2.1 20191025 (release) [ARM/arm-9-branch "
 4086      43313720 
 4086      392E322E 
 4086      31203230 
 4086      31393130 
 4087 0046 72657669 		.ascii	"revision 277599] -mcpu=arm1176jz-s -mno-thumb-inter"
 4087      73696F6E 
 4087      20323737 
 4087      3539395D 
 4087      202D6D63 
 4088 0079 776F726B 		.ascii	"work -mfloat-abi=soft -marm -march=armv6kz -ggdb -O"
ARM GAS  /tmp/ccf22wGX.s 			page 73


 4088      202D6D66 
 4088      6C6F6174 
 4088      2D616269 
 4088      3D736F66 
 4089 00ac 32202D66 		.ascii	"2 -fomit-frame-pointer -ffunction-sections -fdata-s"
 4089      6F6D6974 
 4089      2D667261 
 4089      6D652D70 
 4089      6F696E74 
 4090 00df 65637469 		.ascii	"ections\000"
 4090      6F6E7300 
 4091              	.LASF73:
 4092 00e7 7264796D 		.ascii	"rdymsg\000"
 4092      736700
 4093              	.LASF100:
 4094 00ee 63685363 		.ascii	"chSchDoRescheduleAhead\000"
 4094      68446F52 
 4094      65736368 
 4094      6564756C 
 4094      65416865 
 4095              	.LASF111:
 4096 0105 5F706F72 		.ascii	"_port_switch_arm\000"
 4096      745F7377 
 4096      69746368 
 4096      5F61726D 
 4096      00
 4097              	.LASF64:
 4098 0116 76746C69 		.ascii	"vtlist\000"
 4098      737400
 4099              	.LASF12:
 4100 011d 6C6F6E67 		.ascii	"long long unsigned int\000"
 4100      206C6F6E 
 4100      6720756E 
 4100      7369676E 
 4100      65642069 
 4101              	.LASF84:
 4102 0134 63685F74 		.ascii	"ch_threadsize\000"
 4102      68726561 
 4102      6473697A 
 4102      6500
 4103              	.LASF74:
 4104 0142 65786974 		.ascii	"exitcode\000"
 4104      636F6465 
 4104      00
 4105              	.LASF26:
 4106 014b 705F7072 		.ascii	"p_prio\000"
 4106      696F00
 4107              	.LASF91:
 4108 0152 63665F6F 		.ascii	"cf_off_state\000"
 4108      66665F73 
 4108      74617465 
 4108      00
 4109              	.LASF119:
 4110 015f 5F736368 		.ascii	"_scheduler_init\000"
 4110      6564756C 
 4110      65725F69 
 4110      6E697400 
ARM GAS  /tmp/ccf22wGX.s 			page 74


 4111              	.LASF4:
 4112 016f 6C6F6E67 		.ascii	"long long int\000"
 4112      206C6F6E 
 4112      6720696E 
 4112      7400
 4113              	.LASF1:
 4114 017d 7369676E 		.ascii	"signed char\000"
 4114      65642063 
 4114      68617200 
 4115              	.LASF90:
 4116 0189 63665F6F 		.ascii	"cf_off_stklimit\000"
 4116      66665F73 
 4116      746B6C69 
 4116      6D697400 
 4117              	.LASF92:
 4118 0199 63665F6F 		.ascii	"cf_off_flags\000"
 4118      66665F66 
 4118      6C616773 
 4118      00
 4119              	.LASF13:
 4120 01a6 626F6F6C 		.ascii	"bool_t\000"
 4120      5F7400
 4121              	.LASF70:
 4122 01ad 6D5F7175 		.ascii	"m_queue\000"
 4122      65756500 
 4123              	.LASF17:
 4124 01b5 74736C69 		.ascii	"tslices_t\000"
 4124      6365735F 
 4124      7400
 4125              	.LASF3:
 4126 01bf 6C6F6E67 		.ascii	"long int\000"
 4126      20696E74 
 4126      00
 4127              	.LASF15:
 4128 01c8 74737461 		.ascii	"tstate_t\000"
 4128      74655F74 
 4128      00
 4129              	.LASF8:
 4130 01d1 75696E74 		.ascii	"uint16_t\000"
 4130      31365F74 
 4130      00
 4131              	.LASF96:
 4132 01da 63686465 		.ascii	"chdebug_t\000"
 4132      6275675F 
 4132      7400
 4133              	.LASF104:
 4134 01e4 63685363 		.ascii	"chSchIsPreemptionRequired\000"
 4134      68497350 
 4134      7265656D 
 4134      7074696F 
 4134      6E526571 
 4135              	.LASF28:
 4136 01fe 705F6E65 		.ascii	"p_newer\000"
 4136      77657200 
 4137              	.LASF98:
 4138 0206 5F69646C 		.ascii	"_idle_thread_wa\000"
 4138      655F7468 
ARM GAS  /tmp/ccf22wGX.s 			page 75


 4138      72656164 
 4138      5F776100 
 4139              	.LASF67:
 4140 0216 735F7175 		.ascii	"s_queue\000"
 4140      65756500 
 4141              	.LASF102:
 4142 021e 63685363 		.ascii	"chSchRescheduleS\000"
 4142      68526573 
 4142      63686564 
 4142      756C6553 
 4142      00
 4143              	.LASF60:
 4144 022f 725F6E65 		.ascii	"r_newer\000"
 4144      77657200 
 4145              	.LASF45:
 4146 0237 72656761 		.ascii	"regarm_t\000"
 4146      726D5F74 
 4146      00
 4147              	.LASF51:
 4148 0240 76745F70 		.ascii	"vt_prev\000"
 4148      72657600 
 4149              	.LASF99:
 4150 0248 63685363 		.ascii	"chSchDoReschedule\000"
 4150      68446F52 
 4150      65736368 
 4150      6564756C 
 4150      6500
 4151              	.LASF22:
 4152 025a 636E745F 		.ascii	"cnt_t\000"
 4152      7400
 4153              	.LASF0:
 4154 0260 756E7369 		.ascii	"unsigned int\000"
 4154      676E6564 
 4154      20696E74 
 4154      00
 4155              	.LASF117:
 4156 026d 77616B65 		.ascii	"wakeup\000"
 4156      757000
 4157              	.LASF50:
 4158 0274 76745F6E 		.ascii	"vt_next\000"
 4158      65787400 
 4159              	.LASF11:
 4160 027c 6C6F6E67 		.ascii	"long unsigned int\000"
 4160      20756E73 
 4160      69676E65 
 4160      6420696E 
 4160      7400
 4161              	.LASF97:
 4162 028e 63685F64 		.ascii	"ch_debug\000"
 4162      65627567 
 4162      00
 4163              	.LASF78:
 4164 0297 63685F69 		.ascii	"ch_identifier\000"
 4164      64656E74 
 4164      69666965 
 4164      7200
 4165              	.LASF68:
ARM GAS  /tmp/ccf22wGX.s 			page 76


 4166 02a5 735F636E 		.ascii	"s_cnt\000"
 4166      7400
 4167              	.LASF47:
 4168 02ab 636F6E74 		.ascii	"context\000"
 4168      65787400 
 4169              	.LASF9:
 4170 02b3 73686F72 		.ascii	"short unsigned int\000"
 4170      7420756E 
 4170      7369676E 
 4170      65642069 
 4170      6E7400
 4171              	.LASF103:
 4172 02c6 63685363 		.ascii	"chSchWakeupS\000"
 4172      6857616B 
 4172      65757053 
 4172      00
 4173              	.LASF19:
 4174 02d3 6D73675F 		.ascii	"msg_t\000"
 4174      7400
 4175              	.LASF14:
 4176 02d9 746D6F64 		.ascii	"tmode_t\000"
 4176      655F7400 
 4177              	.LASF43:
 4178 02e1 54687265 		.ascii	"ThreadsList\000"
 4178      6164734C 
 4178      69737400 
 4179              	.LASF20:
 4180 02ed 6576656E 		.ascii	"eventmask_t\000"
 4180      746D6173 
 4180      6B5F7400 
 4181              	.LASF69:
 4182 02f9 4D757465 		.ascii	"Mutex\000"
 4182      7800
 4183              	.LASF44:
 4184 02ff 73746B61 		.ascii	"stkalign_t\000"
 4184      6C69676E 
 4184      5F7400
 4185              	.LASF79:
 4186 030a 63685F7A 		.ascii	"ch_zero\000"
 4186      65726F00 
 4187              	.LASF93:
 4188 0312 63665F6F 		.ascii	"cf_off_refs\000"
 4188      66665F72 
 4188      65667300 
 4189              	.LASF52:
 4190 031e 76745F74 		.ascii	"vt_time\000"
 4190      696D6500 
 4191              	.LASF53:
 4192 0326 76745F66 		.ascii	"vt_func\000"
 4192      756E6300 
 4193              	.LASF83:
 4194 032e 63685F74 		.ascii	"ch_timesize\000"
 4194      696D6573 
 4194      697A6500 
 4195              	.LASF109:
 4196 033a 64657175 		.ascii	"dequeue\000"
 4196      65756500 
ARM GAS  /tmp/ccf22wGX.s 			page 77


 4197              	.LASF101:
 4198 0342 63685363 		.ascii	"chSchDoRescheduleBehind\000"
 4198      68446F52 
 4198      65736368 
 4198      6564756C 
 4198      65426568 
 4199              	.LASF89:
 4200 035a 63665F6F 		.ascii	"cf_off_name\000"
 4200      66665F6E 
 4200      616D6500 
 4201              	.LASF112:
 4202 0366 63685654 		.ascii	"chVTSetI\000"
 4202      53657449 
 4202      00
 4203              	.LASF29:
 4204 036f 705F6F6C 		.ascii	"p_older\000"
 4204      64657200 
 4205              	.LASF59:
 4206 0377 725F6374 		.ascii	"r_ctx\000"
 4206      7800
 4207              	.LASF42:
 4208 037d 54687265 		.ascii	"ThreadsQueue\000"
 4208      61647351 
 4208      75657565 
 4208      00
 4209              	.LASF80:
 4210 038a 63685F73 		.ascii	"ch_size\000"
 4210      697A6500 
 4211              	.LASF107:
 4212 0392 74696D65 		.ascii	"time\000"
 4212      00
 4213              	.LASF62:
 4214 0397 725F6375 		.ascii	"r_current\000"
 4214      7272656E 
 4214      7400
 4215              	.LASF61:
 4216 03a1 725F6F6C 		.ascii	"r_older\000"
 4216      64657200 
 4217              	.LASF16:
 4218 03a9 74726566 		.ascii	"trefs_t\000"
 4218      735F7400 
 4219              	.LASF82:
 4220 03b1 63685F70 		.ascii	"ch_ptrsize\000"
 4220      74727369 
 4220      7A6500
 4221              	.LASF25:
 4222 03bc 705F7072 		.ascii	"p_prev\000"
 4222      657600
 4223              	.LASF18:
 4224 03c3 74707269 		.ascii	"tprio_t\000"
 4224      6F5F7400 
 4225              	.LASF5:
 4226 03cb 696E7433 		.ascii	"int32_t\000"
 4226      325F7400 
 4227              	.LASF7:
 4228 03d3 756E7369 		.ascii	"unsigned char\000"
 4228      676E6564 
ARM GAS  /tmp/ccf22wGX.s 			page 78


 4228      20636861 
 4228      7200
 4229              	.LASF106:
 4230 03e1 6E657773 		.ascii	"newstate\000"
 4230      74617465 
 4230      00
 4231              	.LASF40:
 4232 03ea 705F6D74 		.ascii	"p_mtxlist\000"
 4232      786C6973 
 4232      7400
 4233              	.LASF2:
 4234 03f4 73686F72 		.ascii	"short int\000"
 4234      7420696E 
 4234      7400
 4235              	.LASF31:
 4236 03fe 705F7374 		.ascii	"p_state\000"
 4236      61746500 
 4237              	.LASF34:
 4238 0406 705F7072 		.ascii	"p_preempt\000"
 4238      65656D70 
 4238      7400
 4239              	.LASF95:
 4240 0410 63665F6F 		.ascii	"cf_off_time\000"
 4240      66665F74 
 4240      696D6500 
 4241              	.LASF58:
 4242 041c 725F7072 		.ascii	"r_prio\000"
 4242      696F00
 4243              	.LASF76:
 4244 0423 65776D61 		.ascii	"ewmask\000"
 4244      736B00
 4245              	.LASF24:
 4246 042a 705F6E65 		.ascii	"p_next\000"
 4246      787400
 4247              	.LASF94:
 4248 0431 63665F6F 		.ascii	"cf_off_preempt\000"
 4248      66665F70 
 4248      7265656D 
 4248      707400
 4249              	.LASF32:
 4250 0440 705F666C 		.ascii	"p_flags\000"
 4250      61677300 
 4251              	.LASF23:
 4252 0448 54687265 		.ascii	"Thread\000"
 4252      616400
 4253              	.LASF87:
 4254 044f 63665F6F 		.ascii	"cf_off_newer\000"
 4254      66665F6E 
 4254      65776572 
 4254      00
 4255              	.LASF115:
 4256 045c 2E2E2F6F 		.ascii	"../os/kernel/src/chschd.c\000"
 4256      732F6B65 
 4256      726E656C 
 4256      2F737263 
 4256      2F636873 
 4257              	.LASF108:
ARM GAS  /tmp/ccf22wGX.s 			page 79


 4258 0476 63685363 		.ascii	"chSchGoSleepS\000"
 4258      68476F53 
 4258      6C656570 
 4258      5300
 4259              	.LASF39:
 4260 0484 705F6570 		.ascii	"p_epending\000"
 4260      656E6469 
 4260      6E6700
 4261              	.LASF10:
 4262 048f 75696E74 		.ascii	"uint32_t\000"
 4262      33325F74 
 4262      00
 4263              	.LASF85:
 4264 0498 63665F6F 		.ascii	"cf_off_prio\000"
 4264      66665F70 
 4264      72696F00 
 4265              	.LASF57:
 4266 04a4 725F7175 		.ascii	"r_queue\000"
 4266      65756500 
 4267              	.LASF49:
 4268 04ac 56697274 		.ascii	"VirtualTimer\000"
 4268      75616C54 
 4268      696D6572 
 4268      00
 4269              	.LASF116:
 4270 04b9 2F686F6D 		.ascii	"/home/taskman/arduino/embedded-wind-turbine/Data_Co"
 4270      652F7461 
 4270      736B6D61 
 4270      6E2F6172 
 4270      6475696E 
 4271 04ec 6C6C6563 		.ascii	"llector/raspberry/compiler/ChibiOS-RPi/led\000"
 4271      746F722F 
 4271      72617370 
 4271      62657272 
 4271      792F636F 
 4272              	.LASF77:
 4273 0517 63686172 		.ascii	"char\000"
 4273      00
 4274              	.LASF110:
 4275 051c 6669666F 		.ascii	"fifo_remove\000"
 4275      5F72656D 
 4275      6F766500 
 4276              	.LASF118:
 4277 0528 63685363 		.ascii	"chSchReadyI\000"
 4277      68526561 
 4277      64794900 
 4278              	.LASF72:
 4279 0534 6D5F6E65 		.ascii	"m_next\000"
 4279      787400
 4280              	.LASF21:
 4281 053b 73797374 		.ascii	"systime_t\000"
 4281      696D655F 
 4281      7400
 4282              	.LASF41:
 4283 0545 705F7265 		.ascii	"p_realprio\000"
 4283      616C7072 
 4283      696F00
ARM GAS  /tmp/ccf22wGX.s 			page 80


 4284              	.LASF48:
 4285 0550 76746675 		.ascii	"vtfunc_t\000"
 4285      6E635F74 
 4285      00
 4286              	.LASF35:
 4287 0559 705F7469 		.ascii	"p_time\000"
 4287      6D6500
 4288              	.LASF46:
 4289 0560 696E7463 		.ascii	"intctx\000"
 4289      747800
 4290              	.LASF37:
 4291 0567 705F6D73 		.ascii	"p_msgqueue\000"
 4291      67717565 
 4291      756500
 4292              	.LASF54:
 4293 0572 76745F70 		.ascii	"vt_par\000"
 4293      617200
 4294              	.LASF66:
 4295 0579 53656D61 		.ascii	"Semaphore\000"
 4295      70686F72 
 4295      6500
 4296              	.LASF86:
 4297 0583 63665F6F 		.ascii	"cf_off_ctx\000"
 4297      66665F63 
 4297      747800
 4298              	.LASF33:
 4299 058e 705F7265 		.ascii	"p_refs\000"
 4299      667300
 4300              	.LASF113:
 4301 0595 63685654 		.ascii	"chVTResetI\000"
 4301      52657365 
 4301      744900
 4302              	.LASF63:
 4303 05a0 52656164 		.ascii	"ReadyList\000"
 4303      794C6973 
 4303      7400
 4304              	.LASF65:
 4305 05aa 726C6973 		.ascii	"rlist\000"
 4305      7400
 4306              	.LASF6:
 4307 05b0 75696E74 		.ascii	"uint8_t\000"
 4307      385F7400 
 4308              	.LASF75:
 4309 05b8 77746F62 		.ascii	"wtobjp\000"
 4309      6A7000
 4310              	.LASF30:
 4311 05bf 705F6E61 		.ascii	"p_name\000"
 4311      6D6500
 4312              	.LASF55:
 4313 05c6 76745F73 		.ascii	"vt_systime\000"
 4313      79737469 
 4313      6D6500
 4314              	.LASF105:
 4315 05d1 63685363 		.ascii	"chSchGoSleepTimeoutS\000"
 4315      68476F53 
 4315      6C656570 
 4315      54696D65 
ARM GAS  /tmp/ccf22wGX.s 			page 81


 4315      6F757453 
 4316              	.LASF81:
 4317 05e6 63685F76 		.ascii	"ch_version\000"
 4317      65727369 
 4317      6F6E00
 4318              	.LASF56:
 4319 05f1 56544C69 		.ascii	"VTList\000"
 4319      737400
 4320              	.LASF71:
 4321 05f8 6D5F6F77 		.ascii	"m_owner\000"
 4321      6E657200 
 4322              	.LASF27:
 4323 0600 705F6374 		.ascii	"p_ctx\000"
 4323      7800
 4324              	.LASF36:
 4325 0606 705F7761 		.ascii	"p_waiting\000"
 4325      6974696E 
 4325      6700
 4326              		.ident	"GCC: (15:9-2019-q4-0ubuntu1) 9.2.1 20191025 (release) [ARM/arm-9-branch revision 277599]"
ARM GAS  /tmp/ccf22wGX.s 			page 82


DEFINED SYMBOLS
                            *ABS*:0000000000000000 chschd.c
     /tmp/ccf22wGX.s:16     .text.wakeup:0000000000000000 $a
     /tmp/ccf22wGX.s:22     .text.wakeup:0000000000000000 wakeup
     /tmp/ccf22wGX.s:41     .text.wakeup:0000000000000010 $d
     /tmp/ccf22wGX.s:57     .text.wakeup:0000000000000048 $a
     /tmp/ccf22wGX.s:180    .text.wakeup:00000000000000ac $d
                            *COM*:000000000000001c rlist
     /tmp/ccf22wGX.s:185    .text._scheduler_init:0000000000000000 $a
     /tmp/ccf22wGX.s:191    .text._scheduler_init:0000000000000000 _scheduler_init
     /tmp/ccf22wGX.s:220    .text._scheduler_init:0000000000000020 $d
     /tmp/ccf22wGX.s:225    .text.chSchReadyI:0000000000000000 $a
     /tmp/ccf22wGX.s:231    .text.chSchReadyI:0000000000000000 chSchReadyI
     /tmp/ccf22wGX.s:289    .text.chSchReadyI:000000000000003c $d
     /tmp/ccf22wGX.s:294    .text.chSchGoSleepS:0000000000000000 $a
     /tmp/ccf22wGX.s:300    .text.chSchGoSleepS:0000000000000000 chSchGoSleepS
     /tmp/ccf22wGX.s:383    .text.chSchGoSleepS:0000000000000040 $d
     /tmp/ccf22wGX.s:388    .text.chSchGoSleepTimeoutS:0000000000000000 $a
     /tmp/ccf22wGX.s:394    .text.chSchGoSleepTimeoutS:0000000000000000 chSchGoSleepTimeoutS
     /tmp/ccf22wGX.s:476    .text.chSchGoSleepTimeoutS:000000000000006c $d
     /tmp/ccf22wGX.s:482    .text.chSchWakeupS:0000000000000000 $a
     /tmp/ccf22wGX.s:488    .text.chSchWakeupS:0000000000000000 chSchWakeupS
     /tmp/ccf22wGX.s:663    .text.chSchWakeupS:000000000000009c $d
     /tmp/ccf22wGX.s:669    .text.chSchIsPreemptionRequired:0000000000000000 $a
     /tmp/ccf22wGX.s:675    .text.chSchIsPreemptionRequired:0000000000000000 chSchIsPreemptionRequired
     /tmp/ccf22wGX.s:723    .text.chSchIsPreemptionRequired:0000000000000040 $d
     /tmp/ccf22wGX.s:728    .text.chSchDoRescheduleBehind:0000000000000000 $a
     /tmp/ccf22wGX.s:734    .text.chSchDoRescheduleBehind:0000000000000000 chSchDoRescheduleBehind
     /tmp/ccf22wGX.s:884    .text.chSchDoRescheduleBehind:0000000000000074 $d
     /tmp/ccf22wGX.s:889    .text.chSchDoRescheduleAhead:0000000000000000 $a
     /tmp/ccf22wGX.s:895    .text.chSchDoRescheduleAhead:0000000000000000 chSchDoRescheduleAhead
     /tmp/ccf22wGX.s:1006   .text.chSchDoRescheduleAhead:000000000000006c $d
     /tmp/ccf22wGX.s:1011   .text.chSchRescheduleS:0000000000000000 $a
     /tmp/ccf22wGX.s:1017   .text.chSchRescheduleS:0000000000000000 chSchRescheduleS
     /tmp/ccf22wGX.s:1042   .text.chSchRescheduleS:0000000000000020 $d
     /tmp/ccf22wGX.s:1047   .text.chSchDoReschedule:0000000000000000 $a
     /tmp/ccf22wGX.s:1053   .text.chSchDoReschedule:0000000000000000 chSchDoReschedule
     /tmp/ccf22wGX.s:1079   .text.chSchDoReschedule:000000000000001c $d

UNDEFINED SYMBOLS
_port_switch_arm
chVTSetI
chVTResetI
