ARM GAS  /tmp/ccpKsTsb.s 			page 1


   1              		.cpu arm1176jz-s
   2              		.eabi_attribute 20, 1
   3              		.eabi_attribute 21, 1
   4              		.eabi_attribute 23, 3
   5              		.eabi_attribute 24, 1
   6              		.eabi_attribute 25, 1
   7              		.eabi_attribute 26, 1
   8              		.eabi_attribute 30, 2
   9              		.eabi_attribute 34, 1
  10              		.eabi_attribute 18, 4
  11              		.file	"chsem.c"
  12              		.text
  13              	.Ltext0:
  14              		.cfi_sections	.debug_frame
  15              		.section	.text.chSemInit,"ax",%progbits
  16              		.align	2
  17              		.global	chSemInit
  18              		.arch armv6kz
  19              		.syntax unified
  20              		.arm
  21              		.fpu softvfp
  22              		.type	chSemInit, %function
  23              	chSemInit:
  24              	.LVL0:
  25              	.LFB7:
  26              		.file 1 "../os/kernel/src/chsem.c"
  27              		.loc 1 79 40 view -0
  28              		.cfi_startproc
  29              		@ args = 0, pretend = 0, frame = 0
  30              		@ frame_needed = 0, uses_anonymous_args = 0
  31              		@ link register save eliminated.
  32              		.loc 1 81 3 view .LVU1
  33              		.loc 1 81 52 view .LVU2
  34              		.loc 1 83 3 view .LVU3
  35 0000 040080E5 		str	r0, [r0, #4]
  36 0004 000080E5 		str	r0, [r0]
  37              		.loc 1 83 27 view .LVU4
  38              		.loc 1 84 3 view .LVU5
  39              		.loc 1 84 13 is_stmt 0 view .LVU6
  40 0008 081080E5 		str	r1, [r0, #8]
  41              		.loc 1 85 1 view .LVU7
  42 000c 1EFF2FE1 		bx	lr
  43              		.cfi_endproc
  44              	.LFE7:
  45              		.size	chSemInit, .-chSemInit
  46              		.section	.text.chSemResetI,"ax",%progbits
  47              		.align	2
  48              		.global	chSemResetI
  49              		.syntax unified
  50              		.arm
  51              		.fpu softvfp
  52              		.type	chSemResetI, %function
  53              	chSemResetI:
  54              	.LVL1:
  55              	.LFB9:
  56              		.loc 1 129 42 is_stmt 1 view -0
  57              		.cfi_startproc
ARM GAS  /tmp/ccpKsTsb.s 			page 2


  58              		@ args = 0, pretend = 0, frame = 0
  59              		@ frame_needed = 0, uses_anonymous_args = 0
  60              		.loc 1 130 3 view .LVU9
  61              		.loc 1 132 3 view .LVU10
  62              		.loc 1 132 21 view .LVU11
  63              		.loc 1 133 3 view .LVU12
  64              		.loc 1 133 54 view .LVU13
  65              		.loc 1 134 3 view .LVU14
  66              		.loc 1 129 42 is_stmt 0 view .LVU15
  67 0000 70402DE9 		push	{r4, r5, r6, lr}
  68              		.cfi_def_cfa_offset 16
  69              		.cfi_offset 4, -16
  70              		.cfi_offset 5, -12
  71              		.cfi_offset 6, -8
  72              		.cfi_offset 14, -4
  73              		.loc 1 134 3 view .LVU16
  74 0004 085090E5 		ldr	r5, [r0, #8]
  75              		.loc 1 137 40 is_stmt 1 view .LVU17
  76              		.loc 1 139 3 view .LVU18
  77              	.LVL2:
  78              		.loc 1 140 3 view .LVU19
  79              		.loc 1 140 13 is_stmt 0 view .LVU20
  80 0008 081080E5 		str	r1, [r0, #8]
  81              		.loc 1 141 3 is_stmt 1 view .LVU21
  82              		.loc 1 141 9 view .LVU22
  83 000c 015085E2 		add	r5, r5, #1
  84              	.LVL3:
  85              		.loc 1 141 9 is_stmt 0 view .LVU23
  86 0010 000055E3 		cmp	r5, #0
  87 0014 7080BDC8 		popgt	{r4, r5, r6, pc}
  88 0018 0040A0E1 		mov	r4, r0
  89              		.loc 1 142 56 view .LVU24
  90 001c 0160E0E3 		mvn	r6, #1
  91              	.LVL4:
  92              	.L5:
  93              		.loc 1 142 5 is_stmt 1 view .LVU25
  94              	.LBB28:
  95              	.LBI28:
  96              		.file 2 "../os/kernel/include/chinline.h"
  97              		.loc 2 59 23 view .LVU26
  98              	.LBB29:
  99              		.loc 2 60 3 view .LVU27
 100              		.loc 2 60 11 is_stmt 0 view .LVU28
 101 0020 040094E5 		ldr	r0, [r4, #4]
 102              	.LVL5:
 103              		.loc 2 62 3 is_stmt 1 view .LVU29
 104              	.LBE29:
 105              	.LBE28:
 106              		.loc 1 141 9 is_stmt 0 view .LVU30
 107 0024 015085E2 		add	r5, r5, #1
 108              	.LVL6:
 109              	.LBB31:
 110              	.LBB30:
 111              		.loc 2 62 20 view .LVU31
 112 0028 043090E5 		ldr	r3, [r0, #4]
 113              		.loc 2 62 16 view .LVU32
 114 002c 043084E5 		str	r3, [r4, #4]
ARM GAS  /tmp/ccpKsTsb.s 			page 3


 115              		.loc 2 62 38 view .LVU33
 116 0030 004083E5 		str	r4, [r3]
 117              		.loc 2 63 3 is_stmt 1 view .LVU34
 118              	.LVL7:
 119              		.loc 2 63 3 is_stmt 0 view .LVU35
 120              	.LBE30:
 121              	.LBE31:
 122              		.loc 1 142 5 view .LVU36
 123 0034 FEFFFFEB 		bl	chSchReadyI
 124              	.LVL8:
 125              		.loc 1 141 9 view .LVU37
 126 0038 010055E3 		cmp	r5, #1
 127              		.loc 1 142 56 view .LVU38
 128 003c 246080E5 		str	r6, [r0, #36]
 129              	.LVL9:
 130              		.loc 1 141 9 is_stmt 1 view .LVU39
 131              		.loc 1 141 9 is_stmt 0 view .LVU40
 132 0040 F6FFFF1A 		bne	.L5
 133 0044 7080BDE8 		pop	{r4, r5, r6, pc}
 134              		.cfi_endproc
 135              	.LFE9:
 136              		.size	chSemResetI, .-chSemResetI
 137              		.section	.text.chSemReset,"ax",%progbits
 138              		.align	2
 139              		.global	chSemReset
 140              		.syntax unified
 141              		.arm
 142              		.fpu softvfp
 143              		.type	chSemReset, %function
 144              	chSemReset:
 145              	.LVL10:
 146              	.LFB8:
 147              		.loc 1 102 41 is_stmt 1 view -0
 148              		.cfi_startproc
 149              		@ args = 0, pretend = 0, frame = 0
 150              		@ frame_needed = 0, uses_anonymous_args = 0
 151              		.loc 1 104 3 view .LVU42
 152              		.loc 1 102 41 is_stmt 0 view .LVU43
 153 0000 10402DE9 		push	{r4, lr}
 154              		.cfi_def_cfa_offset 8
 155              		.cfi_offset 4, -8
 156              		.cfi_offset 14, -4
 157              		.loc 1 104 3 view .LVU44
 158              		.syntax divided
 159              	@ 104 "../os/kernel/src/chsem.c" 1
 160 0004 9FF021E3 		msr     CPSR_c, #0x9F
 161              	@ 0 "" 2
 162              		.loc 1 104 3 is_stmt 1 view .LVU45
 163              		.loc 1 104 14 view .LVU46
 164              		.loc 1 105 3 view .LVU47
 165              		.arm
 166              		.syntax unified
 167 0008 FEFFFFEB 		bl	chSemResetI
 168              	.LVL11:
 169              		.loc 1 106 3 view .LVU48
 170 000c FEFFFFEB 		bl	chSchRescheduleS
 171              	.LVL12:
ARM GAS  /tmp/ccpKsTsb.s 			page 4


 172              		.loc 1 107 3 view .LVU49
 173              		.loc 1 107 3 view .LVU50
 174              		.syntax divided
 175              	@ 107 "../os/kernel/src/chsem.c" 1
 176 0010 1FF021E3 		msr     CPSR_c, #0x1F
 177              	@ 0 "" 2
 178              		.loc 1 107 16 view .LVU51
 179              		.loc 1 108 1 is_stmt 0 view .LVU52
 180              		.arm
 181              		.syntax unified
 182 0014 1080BDE8 		pop	{r4, pc}
 183              		.cfi_endproc
 184              	.LFE8:
 185              		.size	chSemReset, .-chSemReset
 186              		.section	.text.chSemWait,"ax",%progbits
 187              		.align	2
 188              		.global	chSemWait
 189              		.syntax unified
 190              		.arm
 191              		.fpu softvfp
 192              		.type	chSemWait, %function
 193              	chSemWait:
 194              	.LVL13:
 195              	.LFB10:
 196              		.loc 1 157 32 is_stmt 1 view -0
 197              		.cfi_startproc
 198              		@ args = 0, pretend = 0, frame = 0
 199              		@ frame_needed = 0, uses_anonymous_args = 0
 200              		.loc 1 158 3 view .LVU54
 201              		.loc 1 160 3 view .LVU55
 202              		.syntax divided
 203              	@ 160 "../os/kernel/src/chsem.c" 1
 204 0000 9FF021E3 		msr     CPSR_c, #0x9F
 205              	@ 0 "" 2
 206              		.loc 1 160 3 view .LVU56
 207              		.loc 1 160 14 view .LVU57
 208              		.loc 1 161 3 view .LVU58
 209              	.LVL14:
 210              		.arm
 211              		.syntax unified
 212              	.LBB38:
 213              	.LBI38:
 214              		.loc 1 178 7 view .LVU59
 215              	.LBB39:
 216              		.loc 1 180 3 view .LVU60
 217              		.loc 1 180 21 view .LVU61
 218              		.loc 1 181 3 view .LVU62
 219              		.loc 1 181 39 view .LVU63
 220              		.loc 1 182 3 view .LVU64
 221              		.loc 1 185 40 view .LVU65
 222              		.loc 1 187 3 view .LVU66
 223              		.loc 1 187 7 is_stmt 0 view .LVU67
 224 0004 082090E5 		ldr	r2, [r0, #8]
 225 0008 012042E2 		sub	r2, r2, #1
 226              		.loc 1 187 6 view .LVU68
 227 000c 000052E3 		cmp	r2, #0
 228 0010 082080E5 		str	r2, [r0, #8]
ARM GAS  /tmp/ccpKsTsb.s 			page 5


 229 0014 020000BA 		blt	.L18
 230              		.loc 1 193 10 view .LVU69
 231 0018 0000A0E3 		mov	r0, #0
 232              	.LVL15:
 233              		.loc 1 193 10 view .LVU70
 234              	.LBE39:
 235              	.LBE38:
 236              		.loc 1 162 3 is_stmt 1 view .LVU71
 237              		.loc 1 162 3 view .LVU72
 238              		.syntax divided
 239              	@ 162 "../os/kernel/src/chsem.c" 1
 240 001c 1FF021E3 		msr     CPSR_c, #0x1F
 241              	@ 0 "" 2
 242              		.loc 1 162 16 view .LVU73
 243              		.loc 1 163 3 view .LVU74
 244              		.loc 1 164 1 is_stmt 0 view .LVU75
 245              		.arm
 246              		.syntax unified
 247 0020 1EFF2FE1 		bx	lr
 248              	.LVL16:
 249              	.L18:
 250              		.loc 1 164 1 view .LVU76
 251 0024 0030A0E1 		mov	r3, r0
 252              	.LVL17:
 253              	.LBB50:
 254              	.LBB48:
 255              	.LBB40:
 256              	.LBI40:
 257              		.loc 1 178 7 is_stmt 1 view .LVU77
 258              	.LBB41:
 259              		.loc 1 188 5 view .LVU78
 260              	.LBE41:
 261              	.LBE40:
 262              	.LBE48:
 263              	.LBE50:
 264              		.loc 1 157 32 is_stmt 0 view .LVU79
 265 0028 10402DE9 		push	{r4, lr}
 266              		.cfi_def_cfa_offset 8
 267              		.cfi_offset 4, -8
 268              		.cfi_offset 14, -4
 269              	.LBB51:
 270              	.LBB49:
 271              	.LBB47:
 272              	.LBB46:
 273              		.loc 1 188 5 view .LVU80
 274 002c 30409FE5 		ldr	r4, .L19
 275              	.LBB42:
 276              	.LBB43:
 277              		.loc 2 48 19 view .LVU81
 278 0030 041090E5 		ldr	r1, [r0, #4]
 279              	.LBE43:
 280              	.LBE42:
 281              		.loc 1 188 5 view .LVU82
 282 0034 182094E5 		ldr	r2, [r4, #24]
 283              		.loc 1 190 5 view .LVU83
 284 0038 0300A0E3 		mov	r0, #3
 285              	.LVL18:
ARM GAS  /tmp/ccpKsTsb.s 			page 6


 286              		.loc 1 188 23 view .LVU84
 287 003c 243082E5 		str	r3, [r2, #36]
 288              		.loc 1 189 5 is_stmt 1 view .LVU85
 289              	.LVL19:
 290              	.LBB45:
 291              	.LBI42:
 292              		.loc 2 45 20 view .LVU86
 293              	.LBB44:
 294              		.loc 2 47 3 view .LVU87
 295              		.loc 2 47 14 is_stmt 0 view .LVU88
 296 0040 003082E5 		str	r3, [r2]
 297              		.loc 2 48 3 is_stmt 1 view .LVU89
 298              		.loc 2 48 14 is_stmt 0 view .LVU90
 299 0044 041082E5 		str	r1, [r2, #4]
 300              		.loc 2 49 3 is_stmt 1 view .LVU91
 301              		.loc 2 49 36 is_stmt 0 view .LVU92
 302 0048 042083E5 		str	r2, [r3, #4]
 303              		.loc 2 49 22 view .LVU93
 304 004c 002081E5 		str	r2, [r1]
 305              	.LVL20:
 306              		.loc 2 49 22 view .LVU94
 307              	.LBE44:
 308              	.LBE45:
 309              		.loc 1 190 5 is_stmt 1 view .LVU95
 310 0050 FEFFFFEB 		bl	chSchGoSleepS
 311              	.LVL21:
 312              		.loc 1 191 5 view .LVU96
 313              		.loc 1 191 22 is_stmt 0 view .LVU97
 314 0054 183094E5 		ldr	r3, [r4, #24]
 315 0058 240093E5 		ldr	r0, [r3, #36]
 316              	.LVL22:
 317              		.loc 1 191 22 view .LVU98
 318              	.LBE46:
 319              	.LBE47:
 320              	.LBE49:
 321              	.LBE51:
 322              		.loc 1 162 3 is_stmt 1 view .LVU99
 323              		.loc 1 162 3 view .LVU100
 324              		.syntax divided
 325              	@ 162 "../os/kernel/src/chsem.c" 1
 326 005c 1FF021E3 		msr     CPSR_c, #0x1F
 327              	@ 0 "" 2
 328              		.loc 1 162 16 view .LVU101
 329              		.loc 1 163 3 view .LVU102
 330              		.loc 1 164 1 is_stmt 0 view .LVU103
 331              		.arm
 332              		.syntax unified
 333 0060 1080BDE8 		pop	{r4, pc}
 334              	.L20:
 335              		.align	2
 336              	.L19:
 337 0064 00000000 		.word	rlist
 338              		.cfi_endproc
 339              	.LFE10:
 340              		.size	chSemWait, .-chSemWait
 341              		.section	.text.chSemWaitS,"ax",%progbits
 342              		.align	2
ARM GAS  /tmp/ccpKsTsb.s 			page 7


 343              		.global	chSemWaitS
 344              		.syntax unified
 345              		.arm
 346              		.fpu softvfp
 347              		.type	chSemWaitS, %function
 348              	chSemWaitS:
 349              	.LVL23:
 350              	.LFB11:
 351              		.loc 1 178 33 is_stmt 1 view -0
 352              		.cfi_startproc
 353              		@ args = 0, pretend = 0, frame = 0
 354              		@ frame_needed = 0, uses_anonymous_args = 0
 355              		.loc 1 180 3 view .LVU105
 356              		.loc 1 180 21 view .LVU106
 357              		.loc 1 181 3 view .LVU107
 358              		.loc 1 181 39 view .LVU108
 359              		.loc 1 182 3 view .LVU109
 360              		.loc 1 185 40 view .LVU110
 361              		.loc 1 187 3 view .LVU111
 362              		.loc 1 187 7 is_stmt 0 view .LVU112
 363 0000 082090E5 		ldr	r2, [r0, #8]
 364 0004 012042E2 		sub	r2, r2, #1
 365              		.loc 1 187 6 view .LVU113
 366 0008 000052E3 		cmp	r2, #0
 367 000c 082080E5 		str	r2, [r0, #8]
 368 0010 010000BA 		blt	.L28
 369              		.loc 1 193 10 view .LVU114
 370 0014 0000A0E3 		mov	r0, #0
 371              	.LVL24:
 372              		.loc 1 194 1 view .LVU115
 373 0018 1EFF2FE1 		bx	lr
 374              	.LVL25:
 375              	.L28:
 376              		.loc 1 194 1 view .LVU116
 377 001c 0030A0E1 		mov	r3, r0
 378              	.LVL26:
 379              	.LBB56:
 380              	.LBI56:
 381              		.loc 1 178 7 is_stmt 1 view .LVU117
 382              	.LBB57:
 383              		.loc 1 188 5 view .LVU118
 384              	.LBE57:
 385              	.LBE56:
 386              		.loc 1 178 33 is_stmt 0 view .LVU119
 387 0020 10402DE9 		push	{r4, lr}
 388              		.cfi_def_cfa_offset 8
 389              		.cfi_offset 4, -8
 390              		.cfi_offset 14, -4
 391              	.LBB63:
 392              	.LBB62:
 393              		.loc 1 188 5 view .LVU120
 394 0024 2C409FE5 		ldr	r4, .L29
 395              	.LBB58:
 396              	.LBB59:
 397              		.loc 2 48 19 view .LVU121
 398 0028 041090E5 		ldr	r1, [r0, #4]
 399              	.LBE59:
ARM GAS  /tmp/ccpKsTsb.s 			page 8


 400              	.LBE58:
 401              		.loc 1 188 5 view .LVU122
 402 002c 182094E5 		ldr	r2, [r4, #24]
 403              		.loc 1 190 5 view .LVU123
 404 0030 0300A0E3 		mov	r0, #3
 405              	.LVL27:
 406              		.loc 1 188 23 view .LVU124
 407 0034 243082E5 		str	r3, [r2, #36]
 408              		.loc 1 189 5 is_stmt 1 view .LVU125
 409              	.LVL28:
 410              	.LBB61:
 411              	.LBI58:
 412              		.loc 2 45 20 view .LVU126
 413              	.LBB60:
 414              		.loc 2 47 3 view .LVU127
 415              		.loc 2 47 14 is_stmt 0 view .LVU128
 416 0038 003082E5 		str	r3, [r2]
 417              		.loc 2 48 3 is_stmt 1 view .LVU129
 418              		.loc 2 48 14 is_stmt 0 view .LVU130
 419 003c 041082E5 		str	r1, [r2, #4]
 420              		.loc 2 49 3 is_stmt 1 view .LVU131
 421              		.loc 2 49 36 is_stmt 0 view .LVU132
 422 0040 042083E5 		str	r2, [r3, #4]
 423              		.loc 2 49 22 view .LVU133
 424 0044 002081E5 		str	r2, [r1]
 425              	.LVL29:
 426              		.loc 2 49 22 view .LVU134
 427              	.LBE60:
 428              	.LBE61:
 429              		.loc 1 190 5 is_stmt 1 view .LVU135
 430 0048 FEFFFFEB 		bl	chSchGoSleepS
 431              	.LVL30:
 432              		.loc 1 191 5 view .LVU136
 433              		.loc 1 191 22 is_stmt 0 view .LVU137
 434 004c 183094E5 		ldr	r3, [r4, #24]
 435 0050 240093E5 		ldr	r0, [r3, #36]
 436              	.LVL31:
 437              		.loc 1 191 22 view .LVU138
 438              	.LBE62:
 439              	.LBE63:
 440              		.loc 1 194 1 view .LVU139
 441 0054 1080BDE8 		pop	{r4, pc}
 442              	.L30:
 443              		.align	2
 444              	.L29:
 445 0058 00000000 		.word	rlist
 446              		.cfi_endproc
 447              	.LFE11:
 448              		.size	chSemWaitS, .-chSemWaitS
 449              		.section	.text.chSemWaitTimeout,"ax",%progbits
 450              		.align	2
 451              		.global	chSemWaitTimeout
 452              		.syntax unified
 453              		.arm
 454              		.fpu softvfp
 455              		.type	chSemWaitTimeout, %function
 456              	chSemWaitTimeout:
ARM GAS  /tmp/ccpKsTsb.s 			page 9


 457              	.LVL32:
 458              	.LFB12:
 459              		.loc 1 215 55 is_stmt 1 view -0
 460              		.cfi_startproc
 461              		@ args = 0, pretend = 0, frame = 0
 462              		@ frame_needed = 0, uses_anonymous_args = 0
 463              		.loc 1 216 3 view .LVU141
 464              		.loc 1 218 3 view .LVU142
 465              		.loc 1 215 55 is_stmt 0 view .LVU143
 466 0000 0030A0E1 		mov	r3, r0
 467              		.loc 1 218 3 view .LVU144
 468              		.syntax divided
 469              	@ 218 "../os/kernel/src/chsem.c" 1
 470 0004 9FF021E3 		msr     CPSR_c, #0x9F
 471              	@ 0 "" 2
 472              		.loc 1 218 3 is_stmt 1 view .LVU145
 473              		.loc 1 218 14 view .LVU146
 474              		.loc 1 219 3 view .LVU147
 475              	.LVL33:
 476              		.arm
 477              		.syntax unified
 478              	.LBB70:
 479              	.LBI70:
 480              		.loc 1 243 7 view .LVU148
 481              	.LBB71:
 482              		.loc 1 245 3 view .LVU149
 483              		.loc 1 245 21 view .LVU150
 484              		.loc 1 246 3 view .LVU151
 485              		.loc 1 246 46 view .LVU152
 486              		.loc 1 247 3 view .LVU153
 487 0008 08C090E5 		ldr	ip, [r0, #8]
 488              		.loc 1 250 40 view .LVU154
 489              		.loc 1 252 3 view .LVU155
 490              		.loc 1 252 7 is_stmt 0 view .LVU156
 491 000c 01004CE2 		sub	r0, ip, #1
 492              	.LVL34:
 493              		.loc 1 252 6 view .LVU157
 494 0010 000050E3 		cmp	r0, #0
 495 0014 080083E5 		str	r0, [r3, #8]
 496              		.loc 1 261 10 view .LVU158
 497 0018 0000A0A3 		movge	r0, #0
 498              		.loc 1 252 6 view .LVU159
 499 001c 010000BA 		blt	.L38
 500              	.L36:
 501              	.LVL35:
 502              		.loc 1 252 6 view .LVU160
 503              	.LBE71:
 504              	.LBE70:
 505              		.loc 1 220 3 is_stmt 1 view .LVU161
 506              		.loc 1 220 3 view .LVU162
 507              		.syntax divided
 508              	@ 220 "../os/kernel/src/chsem.c" 1
 509 0020 1FF021E3 		msr     CPSR_c, #0x1F
 510              	@ 0 "" 2
 511              		.loc 1 220 16 view .LVU163
 512              		.loc 1 221 3 view .LVU164
 513              		.loc 1 222 1 is_stmt 0 view .LVU165
ARM GAS  /tmp/ccpKsTsb.s 			page 10


 514              		.arm
 515              		.syntax unified
 516 0024 1EFF2FE1 		bx	lr
 517              	.LVL36:
 518              	.L38:
 519              	.LBB84:
 520              	.LBB82:
 521              		.loc 1 253 5 is_stmt 1 view .LVU166
 522              		.loc 1 253 8 is_stmt 0 view .LVU167
 523 0028 000051E3 		cmp	r1, #0
 524              		.loc 1 255 14 view .LVU168
 525 002c 0000E003 		mvneq	r0, #0
 526              		.loc 1 254 16 view .LVU169
 527 0030 08C08305 		streq	ip, [r3, #8]
 528              		.loc 1 255 7 is_stmt 1 view .LVU170
 529              		.loc 1 253 8 is_stmt 0 view .LVU171
 530 0034 F9FFFF0A 		beq	.L36
 531              	.LVL37:
 532              	.LBB72:
 533              	.LBI72:
 534              		.loc 1 243 7 is_stmt 1 view .LVU172
 535              	.LBB73:
 536              		.loc 1 257 5 view .LVU173
 537 0038 28209FE5 		ldr	r2, .L39
 538              	.LBB74:
 539              	.LBB75:
 540              		.loc 2 48 19 is_stmt 0 view .LVU174
 541 003c 04C093E5 		ldr	ip, [r3, #4]
 542              	.LBE75:
 543              	.LBE74:
 544              		.loc 1 257 5 view .LVU175
 545 0040 182092E5 		ldr	r2, [r2, #24]
 546              	.LBE73:
 547              	.LBE72:
 548              	.LBE82:
 549              	.LBE84:
 550              		.loc 1 215 55 view .LVU176
 551 0044 10402DE9 		push	{r4, lr}
 552              		.cfi_def_cfa_offset 8
 553              		.cfi_offset 4, -8
 554              		.cfi_offset 14, -4
 555              	.LBB85:
 556              	.LBB83:
 557              	.LBB81:
 558              	.LBB80:
 559              		.loc 1 259 12 view .LVU177
 560 0048 0300A0E3 		mov	r0, #3
 561              	.LBB78:
 562              	.LBB76:
 563              		.loc 2 48 14 view .LVU178
 564 004c 081082E8 		stm	r2, {r3, ip}
 565              	.LBE76:
 566              	.LBE78:
 567              		.loc 1 257 23 view .LVU179
 568 0050 243082E5 		str	r3, [r2, #36]
 569              		.loc 1 258 5 is_stmt 1 view .LVU180
 570              	.LVL38:
ARM GAS  /tmp/ccpKsTsb.s 			page 11


 571              	.LBB79:
 572              	.LBI74:
 573              		.loc 2 45 20 view .LVU181
 574              	.LBB77:
 575              		.loc 2 47 3 view .LVU182
 576              		.loc 2 49 3 view .LVU183
 577              		.loc 2 49 36 is_stmt 0 view .LVU184
 578 0054 042083E5 		str	r2, [r3, #4]
 579              		.loc 2 49 22 view .LVU185
 580 0058 00208CE5 		str	r2, [ip]
 581              	.LVL39:
 582              		.loc 2 49 22 view .LVU186
 583              	.LBE77:
 584              	.LBE79:
 585              		.loc 1 259 5 is_stmt 1 view .LVU187
 586              		.loc 1 259 12 is_stmt 0 view .LVU188
 587 005c FEFFFFEB 		bl	chSchGoSleepTimeoutS
 588              	.LVL40:
 589              		.loc 1 259 12 view .LVU189
 590              	.LBE80:
 591              	.LBE81:
 592              	.LBE83:
 593              	.LBE85:
 594              		.loc 1 220 3 is_stmt 1 view .LVU190
 595              		.loc 1 220 3 view .LVU191
 596              		.syntax divided
 597              	@ 220 "../os/kernel/src/chsem.c" 1
 598 0060 1FF021E3 		msr     CPSR_c, #0x1F
 599              	@ 0 "" 2
 600              		.loc 1 220 16 view .LVU192
 601              		.loc 1 221 3 view .LVU193
 602              		.loc 1 222 1 is_stmt 0 view .LVU194
 603              		.arm
 604              		.syntax unified
 605 0064 1080BDE8 		pop	{r4, pc}
 606              	.L40:
 607              		.align	2
 608              	.L39:
 609 0068 00000000 		.word	rlist
 610              		.cfi_endproc
 611              	.LFE12:
 612              		.size	chSemWaitTimeout, .-chSemWaitTimeout
 613              		.section	.text.chSemWaitTimeoutS,"ax",%progbits
 614              		.align	2
 615              		.global	chSemWaitTimeoutS
 616              		.syntax unified
 617              		.arm
 618              		.fpu softvfp
 619              		.type	chSemWaitTimeoutS, %function
 620              	chSemWaitTimeoutS:
 621              	.LVL41:
 622              	.LFB13:
 623              		.loc 1 243 56 is_stmt 1 view -0
 624              		.cfi_startproc
 625              		@ args = 0, pretend = 0, frame = 0
 626              		@ frame_needed = 0, uses_anonymous_args = 0
 627              		@ link register save eliminated.
ARM GAS  /tmp/ccpKsTsb.s 			page 12


 628              		.loc 1 245 3 view .LVU196
 629              		.loc 1 245 21 view .LVU197
 630              		.loc 1 246 3 view .LVU198
 631              		.loc 1 246 46 view .LVU199
 632              		.loc 1 247 3 view .LVU200
 633              		.loc 1 243 56 is_stmt 0 view .LVU201
 634 0000 0030A0E1 		mov	r3, r0
 635              		.loc 1 247 3 view .LVU202
 636 0004 08C090E5 		ldr	ip, [r0, #8]
 637              		.loc 1 250 40 is_stmt 1 view .LVU203
 638              		.loc 1 252 3 view .LVU204
 639              		.loc 1 252 7 is_stmt 0 view .LVU205
 640 0008 01004CE2 		sub	r0, ip, #1
 641              	.LVL42:
 642              		.loc 1 252 6 view .LVU206
 643 000c 000050E3 		cmp	r0, #0
 644 0010 080083E5 		str	r0, [r3, #8]
 645 0014 010000BA 		blt	.L45
 646              		.loc 1 261 10 view .LVU207
 647 0018 0000A0E3 		mov	r0, #0
 648              		.loc 1 262 1 view .LVU208
 649 001c 1EFF2FE1 		bx	lr
 650              	.L45:
 651              		.loc 1 253 5 is_stmt 1 view .LVU209
 652              		.loc 1 253 8 is_stmt 0 view .LVU210
 653 0020 000051E3 		cmp	r1, #0
 654 0024 0800000A 		beq	.L46
 655              	.LVL43:
 656              	.LBB90:
 657              	.LBI90:
 658              		.loc 1 243 7 is_stmt 1 view .LVU211
 659              	.LBB91:
 660              		.loc 1 257 5 view .LVU212
 661 0028 28209FE5 		ldr	r2, .L47
 662              	.LBB92:
 663              	.LBB93:
 664              		.loc 2 48 19 is_stmt 0 view .LVU213
 665 002c 04C093E5 		ldr	ip, [r3, #4]
 666              	.LBE93:
 667              	.LBE92:
 668              		.loc 1 257 5 view .LVU214
 669 0030 182092E5 		ldr	r2, [r2, #24]
 670              		.loc 1 259 12 view .LVU215
 671 0034 0300A0E3 		mov	r0, #3
 672              	.LBB96:
 673              	.LBB94:
 674              		.loc 2 48 14 view .LVU216
 675 0038 081082E8 		stm	r2, {r3, ip}
 676              	.LBE94:
 677              	.LBE96:
 678              		.loc 1 257 23 view .LVU217
 679 003c 243082E5 		str	r3, [r2, #36]
 680              		.loc 1 258 5 is_stmt 1 view .LVU218
 681              	.LVL44:
 682              	.LBB97:
 683              	.LBI92:
 684              		.loc 2 45 20 view .LVU219
ARM GAS  /tmp/ccpKsTsb.s 			page 13


 685              	.LBB95:
 686              		.loc 2 47 3 view .LVU220
 687              		.loc 2 49 3 view .LVU221
 688              		.loc 2 49 36 is_stmt 0 view .LVU222
 689 0040 042083E5 		str	r2, [r3, #4]
 690              		.loc 2 49 22 view .LVU223
 691 0044 00208CE5 		str	r2, [ip]
 692              	.LVL45:
 693              		.loc 2 49 22 view .LVU224
 694              	.LBE95:
 695              	.LBE97:
 696              		.loc 1 259 5 is_stmt 1 view .LVU225
 697              		.loc 1 259 12 is_stmt 0 view .LVU226
 698 0048 FEFFFFEA 		b	chSchGoSleepTimeoutS
 699              	.LVL46:
 700              	.L46:
 701              		.loc 1 259 12 view .LVU227
 702              	.LBE91:
 703              	.LBE90:
 704              		.loc 1 254 7 is_stmt 1 view .LVU228
 705              		.loc 1 255 14 is_stmt 0 view .LVU229
 706 004c 0000E0E3 		mvn	r0, #0
 707              		.loc 1 254 16 view .LVU230
 708 0050 08C083E5 		str	ip, [r3, #8]
 709              		.loc 1 255 7 is_stmt 1 view .LVU231
 710              		.loc 1 255 14 is_stmt 0 view .LVU232
 711 0054 1EFF2FE1 		bx	lr
 712              	.L48:
 713              		.align	2
 714              	.L47:
 715 0058 00000000 		.word	rlist
 716              		.cfi_endproc
 717              	.LFE13:
 718              		.size	chSemWaitTimeoutS, .-chSemWaitTimeoutS
 719              		.section	.text.chSemSignal,"ax",%progbits
 720              		.align	2
 721              		.global	chSemSignal
 722              		.syntax unified
 723              		.arm
 724              		.fpu softvfp
 725              		.type	chSemSignal, %function
 726              	chSemSignal:
 727              	.LVL47:
 728              	.LFB14:
 729              		.loc 1 271 33 is_stmt 1 view -0
 730              		.cfi_startproc
 731              		@ args = 0, pretend = 0, frame = 0
 732              		@ frame_needed = 0, uses_anonymous_args = 0
 733              		.loc 1 273 3 view .LVU234
 734              		.loc 1 273 40 view .LVU235
 735              		.loc 1 274 3 view .LVU236
 736              		.loc 1 277 40 view .LVU237
 737              		.loc 1 279 3 view .LVU238
 738              		.syntax divided
 739              	@ 279 "../os/kernel/src/chsem.c" 1
 740 0000 9FF021E3 		msr     CPSR_c, #0x9F
 741              	@ 0 "" 2
ARM GAS  /tmp/ccpKsTsb.s 			page 14


 742              		.loc 1 279 3 view .LVU239
 743              		.loc 1 279 14 view .LVU240
 744              		.loc 1 280 3 view .LVU241
 745              		.loc 1 280 7 is_stmt 0 view .LVU242
 746              		.arm
 747              		.syntax unified
 748 0004 082090E5 		ldr	r2, [r0, #8]
 749 0008 012082E2 		add	r2, r2, #1
 750              		.loc 1 280 6 view .LVU243
 751 000c 000052E3 		cmp	r2, #0
 752 0010 082080E5 		str	r2, [r0, #8]
 753 0014 010000DA 		ble	.L55
 754              		.loc 1 282 3 is_stmt 1 view .LVU244
 755              		.loc 1 282 3 view .LVU245
 756              		.syntax divided
 757              	@ 282 "../os/kernel/src/chsem.c" 1
 758 0018 1FF021E3 		msr     CPSR_c, #0x1F
 759              	@ 0 "" 2
 760              		.loc 1 282 16 view .LVU246
 761              		.loc 1 282 3 is_stmt 0 view .LVU247
 762              		.arm
 763              		.syntax unified
 764 001c 1EFF2FE1 		bx	lr
 765              	.L55:
 766 0020 0030A0E1 		mov	r3, r0
 767              		.loc 1 281 5 is_stmt 1 view .LVU248
 768              	.LVL48:
 769              	.LBB98:
 770              	.LBI98:
 771              		.loc 2 52 23 view .LVU249
 772              	.LBB99:
 773              		.loc 2 53 3 view .LVU250
 774              		.loc 2 53 11 is_stmt 0 view .LVU251
 775 0024 000090E5 		ldr	r0, [r0]
 776              	.LVL49:
 777              		.loc 2 55 3 is_stmt 1 view .LVU252
 778              	.LBE99:
 779              	.LBE98:
 780              		.loc 1 271 33 is_stmt 0 view .LVU253
 781 0028 10402DE9 		push	{r4, lr}
 782              		.cfi_def_cfa_offset 8
 783              		.cfi_offset 4, -8
 784              		.cfi_offset 14, -4
 785              	.LBB102:
 786              	.LBB100:
 787              		.loc 2 55 20 view .LVU254
 788 002c 002090E5 		ldr	r2, [r0]
 789              	.LBE100:
 790              	.LBE102:
 791              		.loc 1 281 5 view .LVU255
 792 0030 0010A0E3 		mov	r1, #0
 793              	.LBB103:
 794              	.LBB101:
 795              		.loc 2 55 16 view .LVU256
 796 0034 002083E5 		str	r2, [r3]
 797              		.loc 2 55 38 view .LVU257
 798 0038 043082E5 		str	r3, [r2, #4]
ARM GAS  /tmp/ccpKsTsb.s 			page 15


 799              		.loc 2 56 3 is_stmt 1 view .LVU258
 800              	.LVL50:
 801              		.loc 2 56 3 is_stmt 0 view .LVU259
 802              	.LBE101:
 803              	.LBE103:
 804              		.loc 1 281 5 view .LVU260
 805 003c FEFFFFEB 		bl	chSchWakeupS
 806              	.LVL51:
 807              		.loc 1 282 3 is_stmt 1 view .LVU261
 808              		.loc 1 282 3 view .LVU262
 809              		.syntax divided
 810              	@ 282 "../os/kernel/src/chsem.c" 1
 811 0040 1FF021E3 		msr     CPSR_c, #0x1F
 812              	@ 0 "" 2
 813              		.loc 1 282 16 view .LVU263
 814              		.loc 1 283 1 is_stmt 0 view .LVU264
 815              		.arm
 816              		.syntax unified
 817 0044 1080BDE8 		pop	{r4, pc}
 818              		.cfi_endproc
 819              	.LFE14:
 820              		.size	chSemSignal, .-chSemSignal
 821              		.section	.text.chSemSignalI,"ax",%progbits
 822              		.align	2
 823              		.global	chSemSignalI
 824              		.syntax unified
 825              		.arm
 826              		.fpu softvfp
 827              		.type	chSemSignalI, %function
 828              	chSemSignalI:
 829              	.LVL52:
 830              	.LFB15:
 831              		.loc 1 296 34 is_stmt 1 view -0
 832              		.cfi_startproc
 833              		@ args = 0, pretend = 0, frame = 0
 834              		@ frame_needed = 0, uses_anonymous_args = 0
 835              		@ link register save eliminated.
 836              		.loc 1 298 3 view .LVU266
 837              		.loc 1 298 21 view .LVU267
 838              		.loc 1 299 3 view .LVU268
 839              		.loc 1 299 41 view .LVU269
 840              		.loc 1 300 3 view .LVU270
 841              		.loc 1 303 40 view .LVU271
 842              		.loc 1 305 3 view .LVU272
 843              		.loc 1 305 7 is_stmt 0 view .LVU273
 844 0000 082090E5 		ldr	r2, [r0, #8]
 845              		.loc 1 296 34 view .LVU274
 846 0004 0030A0E1 		mov	r3, r0
 847              		.loc 1 305 7 view .LVU275
 848 0008 012082E2 		add	r2, r2, #1
 849              		.loc 1 305 6 view .LVU276
 850 000c 000052E3 		cmp	r2, #0
 851 0010 082080E5 		str	r2, [r0, #8]
 852 0014 1EFF2FC1 		bxgt	lr
 853              	.LBB104:
 854              		.loc 1 308 5 is_stmt 1 view .LVU277
 855              	.LVL53:
ARM GAS  /tmp/ccpKsTsb.s 			page 16


 856              	.LBB105:
 857              	.LBI105:
 858              		.loc 2 52 23 view .LVU278
 859              	.LBB106:
 860              		.loc 2 53 3 view .LVU279
 861              	.LBE106:
 862              	.LBE105:
 863              		.loc 1 309 20 is_stmt 0 view .LVU280
 864 0018 0010A0E3 		mov	r1, #0
 865              	.LBB108:
 866              	.LBB107:
 867              		.loc 2 53 11 view .LVU281
 868 001c 000090E5 		ldr	r0, [r0]
 869              	.LVL54:
 870              		.loc 2 55 3 is_stmt 1 view .LVU282
 871              		.loc 2 55 20 is_stmt 0 view .LVU283
 872 0020 002090E5 		ldr	r2, [r0]
 873              		.loc 2 55 16 view .LVU284
 874 0024 002083E5 		str	r2, [r3]
 875              		.loc 2 55 38 view .LVU285
 876 0028 043082E5 		str	r3, [r2, #4]
 877              		.loc 2 56 3 is_stmt 1 view .LVU286
 878              	.LVL55:
 879              		.loc 2 56 3 is_stmt 0 view .LVU287
 880              	.LBE107:
 881              	.LBE108:
 882              		.loc 1 309 5 is_stmt 1 view .LVU288
 883              		.loc 1 309 20 is_stmt 0 view .LVU289
 884 002c 241080E5 		str	r1, [r0, #36]
 885              		.loc 1 310 5 is_stmt 1 view .LVU290
 886 0030 FEFFFFEA 		b	chSchReadyI
 887              	.LVL56:
 888              		.loc 1 310 5 is_stmt 0 view .LVU291
 889              	.LBE104:
 890              		.cfi_endproc
 891              	.LFE15:
 892              		.size	chSemSignalI, .-chSemSignalI
 893              		.section	.text.chSemAddCounterI,"ax",%progbits
 894              		.align	2
 895              		.global	chSemAddCounterI
 896              		.syntax unified
 897              		.arm
 898              		.fpu softvfp
 899              		.type	chSemAddCounterI, %function
 900              	chSemAddCounterI:
 901              	.LVL57:
 902              	.LFB16:
 903              		.loc 1 327 47 is_stmt 1 view -0
 904              		.cfi_startproc
 905              		@ args = 0, pretend = 0, frame = 0
 906              		@ frame_needed = 0, uses_anonymous_args = 0
 907              		.loc 1 329 3 view .LVU293
 908              		.loc 1 329 21 view .LVU294
 909              		.loc 1 330 3 view .LVU295
 910              		.loc 1 330 58 view .LVU296
 911              		.loc 1 331 3 view .LVU297
 912              		.loc 1 336 9 view .LVU298
ARM GAS  /tmp/ccpKsTsb.s 			page 17


 913              		.loc 1 327 47 is_stmt 0 view .LVU299
 914 0000 70402DE9 		push	{r4, r5, r6, lr}
 915              		.cfi_def_cfa_offset 16
 916              		.cfi_offset 4, -16
 917              		.cfi_offset 5, -12
 918              		.cfi_offset 6, -8
 919              		.cfi_offset 14, -4
 920              		.loc 1 336 9 view .LVU300
 921 0004 004051E2 		subs	r4, r1, #0
 922 0008 7080BDD8 		pople	{r4, r5, r6, pc}
 923 000c 0050A0E1 		mov	r5, r0
 924              		.loc 1 338 58 view .LVU301
 925 0010 0060A0E3 		mov	r6, #0
 926 0014 010000EA 		b	.L61
 927              	.LVL58:
 928              	.L60:
 929              		.loc 1 339 5 is_stmt 1 view .LVU302
 930              		.loc 1 336 9 view .LVU303
 931 0018 014054E2 		subs	r4, r4, #1
 932              	.LVL59:
 933              		.loc 1 336 9 is_stmt 0 view .LVU304
 934 001c 7080BD08 		popeq	{r4, r5, r6, pc}
 935              	.LVL60:
 936              	.L61:
 937              		.loc 1 337 5 is_stmt 1 view .LVU305
 938              		.loc 1 337 9 is_stmt 0 view .LVU306
 939 0020 083095E5 		ldr	r3, [r5, #8]
 940 0024 013083E2 		add	r3, r3, #1
 941              		.loc 1 337 8 view .LVU307
 942 0028 000053E3 		cmp	r3, #0
 943 002c 083085E5 		str	r3, [r5, #8]
 944 0030 F8FFFFCA 		bgt	.L60
 945              		.loc 1 338 7 is_stmt 1 view .LVU308
 946              	.LVL61:
 947              	.LBB109:
 948              	.LBI109:
 949              		.loc 2 52 23 view .LVU309
 950              	.LBB110:
 951              		.loc 2 53 3 view .LVU310
 952              		.loc 2 53 11 is_stmt 0 view .LVU311
 953 0034 000095E5 		ldr	r0, [r5]
 954              	.LVL62:
 955              		.loc 2 55 3 is_stmt 1 view .LVU312
 956              		.loc 2 55 20 is_stmt 0 view .LVU313
 957 0038 003090E5 		ldr	r3, [r0]
 958              		.loc 2 55 16 view .LVU314
 959 003c 003085E5 		str	r3, [r5]
 960              		.loc 2 55 38 view .LVU315
 961 0040 045083E5 		str	r5, [r3, #4]
 962              		.loc 2 56 3 is_stmt 1 view .LVU316
 963              	.LVL63:
 964              		.loc 2 56 3 is_stmt 0 view .LVU317
 965              	.LBE110:
 966              	.LBE109:
 967              		.loc 1 338 7 view .LVU318
 968 0044 FEFFFFEB 		bl	chSchReadyI
 969              	.LVL64:
ARM GAS  /tmp/ccpKsTsb.s 			page 18


 970              		.loc 1 336 9 view .LVU319
 971 0048 014054E2 		subs	r4, r4, #1
 972              	.LVL65:
 973              		.loc 1 338 58 view .LVU320
 974 004c 246080E5 		str	r6, [r0, #36]
 975              		.loc 1 339 5 is_stmt 1 view .LVU321
 976              	.LVL66:
 977              		.loc 1 336 9 view .LVU322
 978 0050 F2FFFF1A 		bne	.L61
 979 0054 7080BDE8 		pop	{r4, r5, r6, pc}
 980              		.cfi_endproc
 981              	.LFE16:
 982              		.size	chSemAddCounterI, .-chSemAddCounterI
 983              		.section	.text.chSemSignalWait,"ax",%progbits
 984              		.align	2
 985              		.global	chSemSignalWait
 986              		.syntax unified
 987              		.arm
 988              		.fpu softvfp
 989              		.type	chSemSignalWait, %function
 990              	chSemSignalWait:
 991              	.LVL67:
 992              	.LFB17:
 993              		.loc 1 359 55 view -0
 994              		.cfi_startproc
 995              		@ args = 0, pretend = 0, frame = 0
 996              		@ frame_needed = 0, uses_anonymous_args = 0
 997              		.loc 1 360 3 view .LVU324
 998              		.loc 1 362 3 view .LVU325
 999              		.loc 1 362 64 view .LVU326
 1000              		.loc 1 363 3 view .LVU327
 1001              		.loc 1 366 40 view .LVU328
 1002              		.loc 1 367 3 view .LVU329
 1003              		.loc 1 370 40 view .LVU330
 1004              		.loc 1 372 3 view .LVU331
 1005              		.loc 1 359 55 is_stmt 0 view .LVU332
 1006 0000 70402DE9 		push	{r4, r5, r6, lr}
 1007              		.cfi_def_cfa_offset 16
 1008              		.cfi_offset 4, -16
 1009              		.cfi_offset 5, -12
 1010              		.cfi_offset 6, -8
 1011              		.cfi_offset 14, -4
 1012              		.loc 1 359 55 view .LVU333
 1013 0004 0140A0E1 		mov	r4, r1
 1014              		.loc 1 372 3 view .LVU334
 1015              		.syntax divided
 1016              	@ 372 "../os/kernel/src/chsem.c" 1
 1017 0008 9FF021E3 		msr     CPSR_c, #0x9F
 1018              	@ 0 "" 2
 1019              		.loc 1 372 3 is_stmt 1 view .LVU335
 1020              		.loc 1 372 14 view .LVU336
 1021              		.loc 1 373 3 view .LVU337
 1022              		.loc 1 373 7 is_stmt 0 view .LVU338
 1023              		.arm
 1024              		.syntax unified
 1025 000c 082090E5 		ldr	r2, [r0, #8]
 1026 0010 012082E2 		add	r2, r2, #1
ARM GAS  /tmp/ccpKsTsb.s 			page 19


 1027              		.loc 1 373 6 view .LVU339
 1028 0014 000052E3 		cmp	r2, #0
 1029 0018 082080E5 		str	r2, [r0, #8]
 1030 001c 150000DA 		ble	.L69
 1031              	.LVL68:
 1032              	.L65:
 1033              		.loc 1 375 3 is_stmt 1 view .LVU340
 1034              		.loc 1 375 7 is_stmt 0 view .LVU341
 1035 0020 083094E5 		ldr	r3, [r4, #8]
 1036 0024 013043E2 		sub	r3, r3, #1
 1037              		.loc 1 375 6 view .LVU342
 1038 0028 000053E3 		cmp	r3, #0
 1039 002c 083084E5 		str	r3, [r4, #8]
 1040 0030 030000BA 		blt	.L70
 1041              		.loc 1 383 5 is_stmt 1 view .LVU343
 1042 0034 FEFFFFEB 		bl	chSchRescheduleS
 1043              	.LVL69:
 1044              		.loc 1 384 5 view .LVU344
 1045              		.loc 1 384 9 is_stmt 0 view .LVU345
 1046 0038 0000A0E3 		mov	r0, #0
 1047              	.LVL70:
 1048              		.loc 1 386 3 is_stmt 1 view .LVU346
 1049              		.loc 1 386 3 view .LVU347
 1050              		.syntax divided
 1051              	@ 386 "../os/kernel/src/chsem.c" 1
 1052 003c 1FF021E3 		msr     CPSR_c, #0x1F
 1053              	@ 0 "" 2
 1054              		.loc 1 386 16 view .LVU348
 1055              		.loc 1 387 3 view .LVU349
 1056              		.loc 1 388 1 is_stmt 0 view .LVU350
 1057              		.arm
 1058              		.syntax unified
 1059 0040 7080BDE8 		pop	{r4, r5, r6, pc}
 1060              	.LVL71:
 1061              	.L70:
 1062              	.LBB111:
 1063              		.loc 1 376 5 is_stmt 1 view .LVU351
 1064              		.loc 1 376 13 is_stmt 0 view .LVU352
 1065 0044 50209FE5 		ldr	r2, .L71
 1066              	.LBB112:
 1067              	.LBB113:
 1068              		.loc 2 48 19 view .LVU353
 1069 0048 043094E5 		ldr	r3, [r4, #4]
 1070              	.LBE113:
 1071              	.LBE112:
 1072              		.loc 1 376 13 view .LVU354
 1073 004c 185092E5 		ldr	r5, [r2, #24]
 1074              	.LVL72:
 1075              		.loc 1 377 5 is_stmt 1 view .LVU355
 1076              	.LBB116:
 1077              	.LBI112:
 1078              		.loc 2 45 20 view .LVU356
 1079              	.LBB114:
 1080              		.loc 2 47 3 view .LVU357
 1081              	.LBE114:
 1082              	.LBE116:
 1083              		.loc 1 379 5 is_stmt 0 view .LVU358
ARM GAS  /tmp/ccpKsTsb.s 			page 20


 1084 0050 0300A0E3 		mov	r0, #3
 1085              	.LBB117:
 1086              	.LBB115:
 1087              		.loc 2 47 14 view .LVU359
 1088 0054 004085E5 		str	r4, [r5]
 1089              		.loc 2 48 3 is_stmt 1 view .LVU360
 1090              		.loc 2 48 14 is_stmt 0 view .LVU361
 1091 0058 043085E5 		str	r3, [r5, #4]
 1092              		.loc 2 49 3 is_stmt 1 view .LVU362
 1093              		.loc 2 49 36 is_stmt 0 view .LVU363
 1094 005c 045084E5 		str	r5, [r4, #4]
 1095              		.loc 2 49 22 view .LVU364
 1096 0060 005083E5 		str	r5, [r3]
 1097              	.LVL73:
 1098              		.loc 2 49 22 view .LVU365
 1099              	.LBE115:
 1100              	.LBE117:
 1101              		.loc 1 378 5 is_stmt 1 view .LVU366
 1102              		.loc 1 378 21 is_stmt 0 view .LVU367
 1103 0064 244085E5 		str	r4, [r5, #36]
 1104              		.loc 1 379 5 is_stmt 1 view .LVU368
 1105 0068 FEFFFFEB 		bl	chSchGoSleepS
 1106              	.LVL74:
 1107              		.loc 1 380 5 view .LVU369
 1108              		.loc 1 380 9 is_stmt 0 view .LVU370
 1109 006c 240095E5 		ldr	r0, [r5, #36]
 1110              	.LVL75:
 1111              		.loc 1 380 9 view .LVU371
 1112              	.LBE111:
 1113              		.loc 1 386 3 is_stmt 1 view .LVU372
 1114              		.loc 1 386 3 view .LVU373
 1115              		.syntax divided
 1116              	@ 386 "../os/kernel/src/chsem.c" 1
 1117 0070 1FF021E3 		msr     CPSR_c, #0x1F
 1118              	@ 0 "" 2
 1119              		.loc 1 386 16 view .LVU374
 1120              		.loc 1 387 3 view .LVU375
 1121              		.loc 1 388 1 is_stmt 0 view .LVU376
 1122              		.arm
 1123              		.syntax unified
 1124 0074 7080BDE8 		pop	{r4, r5, r6, pc}
 1125              	.LVL76:
 1126              	.L69:
 1127              		.loc 1 388 1 view .LVU377
 1128 0078 0030A0E1 		mov	r3, r0
 1129              		.loc 1 374 5 is_stmt 1 view .LVU378
 1130              	.LVL77:
 1131              	.LBB118:
 1132              	.LBI118:
 1133              		.loc 2 52 23 view .LVU379
 1134              	.LBB119:
 1135              		.loc 2 53 3 view .LVU380
 1136              		.loc 2 53 11 is_stmt 0 view .LVU381
 1137 007c 000090E5 		ldr	r0, [r0]
 1138              	.LVL78:
 1139              		.loc 2 55 3 is_stmt 1 view .LVU382
 1140              		.loc 2 55 20 is_stmt 0 view .LVU383
ARM GAS  /tmp/ccpKsTsb.s 			page 21


 1141 0080 002090E5 		ldr	r2, [r0]
 1142              		.loc 2 55 16 view .LVU384
 1143 0084 002083E5 		str	r2, [r3]
 1144              		.loc 2 55 38 view .LVU385
 1145 0088 043082E5 		str	r3, [r2, #4]
 1146              		.loc 2 56 3 is_stmt 1 view .LVU386
 1147              	.LVL79:
 1148              		.loc 2 56 3 is_stmt 0 view .LVU387
 1149              	.LBE119:
 1150              	.LBE118:
 1151              		.loc 1 374 5 view .LVU388
 1152 008c FEFFFFEB 		bl	chSchReadyI
 1153              	.LVL80:
 1154              		.loc 1 374 57 view .LVU389
 1155 0090 0030A0E3 		mov	r3, #0
 1156 0094 243080E5 		str	r3, [r0, #36]
 1157 0098 E0FFFFEA 		b	.L65
 1158              	.L72:
 1159              		.align	2
 1160              	.L71:
 1161 009c 00000000 		.word	rlist
 1162              		.cfi_endproc
 1163              	.LFE17:
 1164              		.size	chSemSignalWait, .-chSemSignalWait
 1165              		.text
 1166              	.Letext0:
 1167              		.file 3 "/usr/lib/gcc/arm-none-eabi/9.2.1/include/stdint.h"
 1168              		.file 4 "../os/ports/GCC/ARM/chtypes.h"
 1169              		.file 5 "../os/kernel/include/chlists.h"
 1170              		.file 6 "../os/kernel/include/chthreads.h"
 1171              		.file 7 "../os/ports/GCC/ARM/chcore.h"
 1172              		.file 8 "../os/kernel/include/chvt.h"
 1173              		.file 9 "../os/kernel/include/chschd.h"
 1174              		.file 10 "../os/kernel/include/chsem.h"
 1175              		.file 11 "../os/kernel/include/chmtx.h"
 1176              		.file 12 "../os/kernel/include/chregistry.h"
 1177              		.file 13 "../os/kernel/include/ch.h"