ARM GAS  /tmp/ccpKsTsb.s 			page 1


   1              		.cpu arm1176jz-s
   2              		.eabi_attribute 20, 1
   3              		.eabi_attribute 21, 1
   4              		.eabi_attribute 23, 3
   5              		.eabi_attribute 24, 1
   6              		.eabi_attribute 25, 1
   7              		.eabi_attribute 26, 1
   8              		.eabi_attribute 30, 2
   9              		.eabi_attribute 34, 1
  10              		.eabi_attribute 18, 4
  11              		.file	"chsem.c"
  12              		.text
  13              	.Ltext0:
  14              		.cfi_sections	.debug_frame
  15              		.section	.text.chSemInit,"ax",%progbits
  16              		.align	2
  17              		.global	chSemInit
  18              		.arch armv6kz
  19              		.syntax unified
  20              		.arm
  21              		.fpu softvfp
  22              		.type	chSemInit, %function
  23              	chSemInit:
  24              	.LVL0:
  25              	.LFB7:
  26              		.file 1 "../os/kernel/src/chsem.c"
  27              		.loc 1 79 40 view -0
  28              		.cfi_startproc
  29              		@ args = 0, pretend = 0, frame = 0
  30              		@ frame_needed = 0, uses_anonymous_args = 0
  31              		@ link register save eliminated.
  32              		.loc 1 81 3 view .LVU1
  33              		.loc 1 81 52 view .LVU2
  34              		.loc 1 83 3 view .LVU3
  35 0000 040080E5 		str	r0, [r0, #4]
  36 0004 000080E5 		str	r0, [r0]
  37              		.loc 1 83 27 view .LVU4
  38              		.loc 1 84 3 view .LVU5
  39              		.loc 1 84 13 is_stmt 0 view .LVU6
  40 0008 081080E5 		str	r1, [r0, #8]
  41              		.loc 1 85 1 view .LVU7
  42 000c 1EFF2FE1 		bx	lr
  43              		.cfi_endproc
  44              	.LFE7:
  45              		.size	chSemInit, .-chSemInit
  46              		.section	.text.chSemResetI,"ax",%progbits
  47              		.align	2
  48              		.global	chSemResetI
  49              		.syntax unified
  50              		.arm
  51              		.fpu softvfp
  52              		.type	chSemResetI, %function
  53              	chSemResetI:
  54              	.LVL1:
  55              	.LFB9:
  56              		.loc 1 129 42 is_stmt 1 view -0
  57              		.cfi_startproc
ARM GAS  /tmp/ccpKsTsb.s 			page 2


  58              		@ args = 0, pretend = 0, frame = 0
  59              		@ frame_needed = 0, uses_anonymous_args = 0
  60              		.loc 1 130 3 view .LVU9
  61              		.loc 1 132 3 view .LVU10
  62              		.loc 1 132 21 view .LVU11
  63              		.loc 1 133 3 view .LVU12
  64              		.loc 1 133 54 view .LVU13
  65              		.loc 1 134 3 view .LVU14
  66              		.loc 1 129 42 is_stmt 0 view .LVU15
  67 0000 70402DE9 		push	{r4, r5, r6, lr}
  68              		.cfi_def_cfa_offset 16
  69              		.cfi_offset 4, -16
  70              		.cfi_offset 5, -12
  71              		.cfi_offset 6, -8
  72              		.cfi_offset 14, -4
  73              		.loc 1 134 3 view .LVU16
  74 0004 085090E5 		ldr	r5, [r0, #8]
  75              		.loc 1 137 40 is_stmt 1 view .LVU17
  76              		.loc 1 139 3 view .LVU18
  77              	.LVL2:
  78              		.loc 1 140 3 view .LVU19
  79              		.loc 1 140 13 is_stmt 0 view .LVU20
  80 0008 081080E5 		str	r1, [r0, #8]
  81              		.loc 1 141 3 is_stmt 1 view .LVU21
  82              		.loc 1 141 9 view .LVU22
  83 000c 015085E2 		add	r5, r5, #1
  84              	.LVL3:
  85              		.loc 1 141 9 is_stmt 0 view .LVU23
  86 0010 000055E3 		cmp	r5, #0
  87 0014 7080BDC8 		popgt	{r4, r5, r6, pc}
  88 0018 0040A0E1 		mov	r4, r0
  89              		.loc 1 142 56 view .LVU24
  90 001c 0160E0E3 		mvn	r6, #1
  91              	.LVL4:
  92              	.L5:
  93              		.loc 1 142 5 is_stmt 1 view .LVU25
  94              	.LBB28:
  95              	.LBI28:
  96              		.file 2 "../os/kernel/include/chinline.h"
  97              		.loc 2 59 23 view .LVU26
  98              	.LBB29:
  99              		.loc 2 60 3 view .LVU27
 100              		.loc 2 60 11 is_stmt 0 view .LVU28
 101 0020 040094E5 		ldr	r0, [r4, #4]
 102              	.LVL5:
 103              		.loc 2 62 3 is_stmt 1 view .LVU29
 104              	.LBE29:
 105              	.LBE28:
 106              		.loc 1 141 9 is_stmt 0 view .LVU30
 107 0024 015085E2 		add	r5, r5, #1
 108              	.LVL6:
 109              	.LBB31:
 110              	.LBB30:
 111              		.loc 2 62 20 view .LVU31
 112 0028 043090E5 		ldr	r3, [r0, #4]
 113              		.loc 2 62 16 view .LVU32
 114 002c 043084E5 		str	r3, [r4, #4]
ARM GAS  /tmp/ccpKsTsb.s 			page 3


 115              		.loc 2 62 38 view .LVU33
 116 0030 004083E5 		str	r4, [r3]
 117              		.loc 2 63 3 is_stmt 1 view .LVU34
 118              	.LVL7:
 119              		.loc 2 63 3 is_stmt 0 view .LVU35
 120              	.LBE30:
 121              	.LBE31:
 122              		.loc 1 142 5 view .LVU36
 123 0034 FEFFFFEB 		bl	chSchReadyI
 124              	.LVL8:
 125              		.loc 1 141 9 view .LVU37
 126 0038 010055E3 		cmp	r5, #1
 127              		.loc 1 142 56 view .LVU38
 128 003c 246080E5 		str	r6, [r0, #36]
 129              	.LVL9:
 130              		.loc 1 141 9 is_stmt 1 view .LVU39
 131              		.loc 1 141 9 is_stmt 0 view .LVU40
 132 0040 F6FFFF1A 		bne	.L5
 133 0044 7080BDE8 		pop	{r4, r5, r6, pc}
 134              		.cfi_endproc
 135              	.LFE9:
 136              		.size	chSemResetI, .-chSemResetI
 137              		.section	.text.chSemReset,"ax",%progbits
 138              		.align	2
 139              		.global	chSemReset
 140              		.syntax unified
 141              		.arm
 142              		.fpu softvfp
 143              		.type	chSemReset, %function
 144              	chSemReset:
 145              	.LVL10:
 146              	.LFB8:
 147              		.loc 1 102 41 is_stmt 1 view -0
 148              		.cfi_startproc
 149              		@ args = 0, pretend = 0, frame = 0
 150              		@ frame_needed = 0, uses_anonymous_args = 0
 151              		.loc 1 104 3 view .LVU42
 152              		.loc 1 102 41 is_stmt 0 view .LVU43
 153 0000 10402DE9 		push	{r4, lr}
 154              		.cfi_def_cfa_offset 8
 155              		.cfi_offset 4, -8
 156              		.cfi_offset 14, -4
 157              		.loc 1 104 3 view .LVU44
 158              		.syntax divided
 159              	@ 104 "../os/kernel/src/chsem.c" 1
 160 0004 9FF021E3 		msr     CPSR_c, #0x9F
 161              	@ 0 "" 2
 162              		.loc 1 104 3 is_stmt 1 view .LVU45
 163              		.loc 1 104 14 view .LVU46
 164              		.loc 1 105 3 view .LVU47
 165              		.arm
 166              		.syntax unified
 167 0008 FEFFFFEB 		bl	chSemResetI
 168              	.LVL11:
 169              		.loc 1 106 3 view .LVU48
 170 000c FEFFFFEB 		bl	chSchRescheduleS
 171              	.LVL12:
ARM GAS  /tmp/ccpKsTsb.s 			page 4


 172              		.loc 1 107 3 view .LVU49
 173              		.loc 1 107 3 view .LVU50
 174              		.syntax divided
 175              	@ 107 "../os/kernel/src/chsem.c" 1
 176 0010 1FF021E3 		msr     CPSR_c, #0x1F
 177              	@ 0 "" 2
 178              		.loc 1 107 16 view .LVU51
 179              		.loc 1 108 1 is_stmt 0 view .LVU52
 180              		.arm
 181              		.syntax unified
 182 0014 1080BDE8 		pop	{r4, pc}
 183              		.cfi_endproc
 184              	.LFE8:
 185              		.size	chSemReset, .-chSemReset
 186              		.section	.text.chSemWait,"ax",%progbits
 187              		.align	2
 188              		.global	chSemWait
 189              		.syntax unified
 190              		.arm
 191              		.fpu softvfp
 192              		.type	chSemWait, %function
 193              	chSemWait:
 194              	.LVL13:
 195              	.LFB10:
 196              		.loc 1 157 32 is_stmt 1 view -0
 197              		.cfi_startproc
 198              		@ args = 0, pretend = 0, frame = 0
 199              		@ frame_needed = 0, uses_anonymous_args = 0
 200              		.loc 1 158 3 view .LVU54
 201              		.loc 1 160 3 view .LVU55
 202              		.syntax divided
 203              	@ 160 "../os/kernel/src/chsem.c" 1
 204 0000 9FF021E3 		msr     CPSR_c, #0x9F
 205              	@ 0 "" 2
 206              		.loc 1 160 3 view .LVU56
 207              		.loc 1 160 14 view .LVU57
 208              		.loc 1 161 3 view .LVU58
 209              	.LVL14:
 210              		.arm
 211              		.syntax unified
 212              	.LBB38:
 213              	.LBI38:
 214              		.loc 1 178 7 view .LVU59
 215              	.LBB39:
 216              		.loc 1 180 3 view .LVU60
 217              		.loc 1 180 21 view .LVU61
 218              		.loc 1 181 3 view .LVU62
 219              		.loc 1 181 39 view .LVU63
 220              		.loc 1 182 3 view .LVU64
 221              		.loc 1 185 40 view .LVU65
 222              		.loc 1 187 3 view .LVU66
 223              		.loc 1 187 7 is_stmt 0 view .LVU67
 224 0004 082090E5 		ldr	r2, [r0, #8]
 225 0008 012042E2 		sub	r2, r2, #1
 226              		.loc 1 187 6 view .LVU68
 227 000c 000052E3 		cmp	r2, #0
 228 0010 082080E5 		str	r2, [r0, #8]
ARM GAS  /tmp/ccpKsTsb.s 			page 5


 229 0014 020000BA 		blt	.L18
 230              		.loc 1 193 10 view .LVU69
 231 0018 0000A0E3 		mov	r0, #0
 232              	.LVL15:
 233              		.loc 1 193 10 view .LVU70
 234              	.LBE39:
 235              	.LBE38:
 236              		.loc 1 162 3 is_stmt 1 view .LVU71
 237              		.loc 1 162 3 view .LVU72
 238              		.syntax divided
 239              	@ 162 "../os/kernel/src/chsem.c" 1
 240 001c 1FF021E3 		msr     CPSR_c, #0x1F
 241              	@ 0 "" 2
 242              		.loc 1 162 16 view .LVU73
 243              		.loc 1 163 3 view .LVU74
 244              		.loc 1 164 1 is_stmt 0 view .LVU75
 245              		.arm
 246              		.syntax unified
 247 0020 1EFF2FE1 		bx	lr
 248              	.LVL16:
 249              	.L18:
 250              		.loc 1 164 1 view .LVU76
 251 0024 0030A0E1 		mov	r3, r0
 252              	.LVL17:
 253              	.LBB50:
 254              	.LBB48:
 255              	.LBB40:
 256              	.LBI40:
 257              		.loc 1 178 7 is_stmt 1 view .LVU77
 258              	.LBB41:
 259              		.loc 1 188 5 view .LVU78
 260              	.LBE41:
 261              	.LBE40:
 262              	.LBE48:
 263              	.LBE50:
 264              		.loc 1 157 32 is_stmt 0 view .LVU79
 265 0028 10402DE9 		push	{r4, lr}
 266              		.cfi_def_cfa_offset 8
 267              		.cfi_offset 4, -8
 268              		.cfi_offset 14, -4
 269              	.LBB51:
 270              	.LBB49:
 271              	.LBB47:
 272              	.LBB46:
 273              		.loc 1 188 5 view .LVU80
 274 002c 30409FE5 		ldr	r4, .L19
 275              	.LBB42:
 276              	.LBB43:
 277              		.loc 2 48 19 view .LVU81
 278 0030 041090E5 		ldr	r1, [r0, #4]
 279              	.LBE43:
 280              	.LBE42:
 281              		.loc 1 188 5 view .LVU82
 282 0034 182094E5 		ldr	r2, [r4, #24]
 283              		.loc 1 190 5 view .LVU83
 284 0038 0300A0E3 		mov	r0, #3
 285              	.LVL18:
ARM GAS  /tmp/ccpKsTsb.s 			page 6


 286              		.loc 1 188 23 view .LVU84
 287 003c 243082E5 		str	r3, [r2, #36]
 288              		.loc 1 189 5 is_stmt 1 view .LVU85
 289              	.LVL19:
 290              	.LBB45:
 291              	.LBI42:
 292              		.loc 2 45 20 view .LVU86
 293              	.LBB44:
 294              		.loc 2 47 3 view .LVU87
 295              		.loc 2 47 14 is_stmt 0 view .LVU88
 296 0040 003082E5 		str	r3, [r2]
 297              		.loc 2 48 3 is_stmt 1 view .LVU89
 298              		.loc 2 48 14 is_stmt 0 view .LVU90
 299 0044 041082E5 		str	r1, [r2, #4]
 300              		.loc 2 49 3 is_stmt 1 view .LVU91
 301              		.loc 2 49 36 is_stmt 0 view .LVU92
 302 0048 042083E5 		str	r2, [r3, #4]
 303              		.loc 2 49 22 view .LVU93
 304 004c 002081E5 		str	r2, [r1]
 305              	.LVL20:
 306              		.loc 2 49 22 view .LVU94
 307              	.LBE44:
 308              	.LBE45:
 309              		.loc 1 190 5 is_stmt 1 view .LVU95
 310 0050 FEFFFFEB 		bl	chSchGoSleepS
 311              	.LVL21:
 312              		.loc 1 191 5 view .LVU96
 313              		.loc 1 191 22 is_stmt 0 view .LVU97
 314 0054 183094E5 		ldr	r3, [r4, #24]
 315 0058 240093E5 		ldr	r0, [r3, #36]
 316              	.LVL22:
 317              		.loc 1 191 22 view .LVU98
 318              	.LBE46:
 319              	.LBE47:
 320              	.LBE49:
 321              	.LBE51:
 322              		.loc 1 162 3 is_stmt 1 view .LVU99
 323              		.loc 1 162 3 view .LVU100
 324              		.syntax divided
 325              	@ 162 "../os/kernel/src/chsem.c" 1
 326 005c 1FF021E3 		msr     CPSR_c, #0x1F
 327              	@ 0 "" 2
 328              		.loc 1 162 16 view .LVU101
 329              		.loc 1 163 3 view .LVU102
 330              		.loc 1 164 1 is_stmt 0 view .LVU103
 331              		.arm
 332              		.syntax unified
 333 0060 1080BDE8 		pop	{r4, pc}
 334              	.L20:
 335              		.align	2
 336              	.L19:
 337 0064 00000000 		.word	rlist
 338              		.cfi_endproc
 339              	.LFE10:
 340              		.size	chSemWait, .-chSemWait
 341              		.section	.text.chSemWaitS,"ax",%progbits
 342              		.align	2
ARM GAS  /tmp/ccpKsTsb.s 			page 7


 343              		.global	chSemWaitS
 344              		.syntax unified
 345              		.arm
 346              		.fpu softvfp
 347              		.type	chSemWaitS, %function
 348              	chSemWaitS:
 349              	.LVL23:
 350              	.LFB11:
 351              		.loc 1 178 33 is_stmt 1 view -0
 352              		.cfi_startproc
 353              		@ args = 0, pretend = 0, frame = 0
 354              		@ frame_needed = 0, uses_anonymous_args = 0
 355              		.loc 1 180 3 view .LVU105
 356              		.loc 1 180 21 view .LVU106
 357              		.loc 1 181 3 view .LVU107
 358              		.loc 1 181 39 view .LVU108
 359              		.loc 1 182 3 view .LVU109
 360              		.loc 1 185 40 view .LVU110
 361              		.loc 1 187 3 view .LVU111
 362              		.loc 1 187 7 is_stmt 0 view .LVU112
 363 0000 082090E5 		ldr	r2, [r0, #8]
 364 0004 012042E2 		sub	r2, r2, #1
 365              		.loc 1 187 6 view .LVU113
 366 0008 000052E3 		cmp	r2, #0
 367 000c 082080E5 		str	r2, [r0, #8]
 368 0010 010000BA 		blt	.L28
 369              		.loc 1 193 10 view .LVU114
 370 0014 0000A0E3 		mov	r0, #0
 371              	.LVL24:
 372              		.loc 1 194 1 view .LVU115
 373 0018 1EFF2FE1 		bx	lr
 374              	.LVL25:
 375              	.L28:
 376              		.loc 1 194 1 view .LVU116
 377 001c 0030A0E1 		mov	r3, r0
 378              	.LVL26:
 379              	.LBB56:
 380              	.LBI56:
 381              		.loc 1 178 7 is_stmt 1 view .LVU117
 382              	.LBB57:
 383              		.loc 1 188 5 view .LVU118
 384              	.LBE57:
 385              	.LBE56:
 386              		.loc 1 178 33 is_stmt 0 view .LVU119
 387 0020 10402DE9 		push	{r4, lr}
 388              		.cfi_def_cfa_offset 8
 389              		.cfi_offset 4, -8
 390              		.cfi_offset 14, -4
 391              	.LBB63:
 392              	.LBB62:
 393              		.loc 1 188 5 view .LVU120
 394 0024 2C409FE5 		ldr	r4, .L29
 395              	.LBB58:
 396              	.LBB59:
 397              		.loc 2 48 19 view .LVU121
 398 0028 041090E5 		ldr	r1, [r0, #4]
 399              	.LBE59:
ARM GAS  /tmp/ccpKsTsb.s 			page 8


 400              	.LBE58:
 401              		.loc 1 188 5 view .LVU122
 402 002c 182094E5 		ldr	r2, [r4, #24]
 403              		.loc 1 190 5 view .LVU123
 404 0030 0300A0E3 		mov	r0, #3
 405              	.LVL27:
 406              		.loc 1 188 23 view .LVU124
 407 0034 243082E5 		str	r3, [r2, #36]
 408              		.loc 1 189 5 is_stmt 1 view .LVU125
 409              	.LVL28:
 410              	.LBB61:
 411              	.LBI58:
 412              		.loc 2 45 20 view .LVU126
 413              	.LBB60:
 414              		.loc 2 47 3 view .LVU127
 415              		.loc 2 47 14 is_stmt 0 view .LVU128
 416 0038 003082E5 		str	r3, [r2]
 417              		.loc 2 48 3 is_stmt 1 view .LVU129
 418              		.loc 2 48 14 is_stmt 0 view .LVU130
 419 003c 041082E5 		str	r1, [r2, #4]
 420              		.loc 2 49 3 is_stmt 1 view .LVU131
 421              		.loc 2 49 36 is_stmt 0 view .LVU132
 422 0040 042083E5 		str	r2, [r3, #4]
 423              		.loc 2 49 22 view .LVU133
 424 0044 002081E5 		str	r2, [r1]
 425              	.LVL29:
 426              		.loc 2 49 22 view .LVU134
 427              	.LBE60:
 428              	.LBE61:
 429              		.loc 1 190 5 is_stmt 1 view .LVU135
 430 0048 FEFFFFEB 		bl	chSchGoSleepS
 431              	.LVL30:
 432              		.loc 1 191 5 view .LVU136
 433              		.loc 1 191 22 is_stmt 0 view .LVU137
 434 004c 183094E5 		ldr	r3, [r4, #24]
 435 0050 240093E5 		ldr	r0, [r3, #36]
 436              	.LVL31:
 437              		.loc 1 191 22 view .LVU138
 438              	.LBE62:
 439              	.LBE63:
 440              		.loc 1 194 1 view .LVU139
 441 0054 1080BDE8 		pop	{r4, pc}
 442              	.L30:
 443              		.align	2
 444              	.L29:
 445 0058 00000000 		.word	rlist
 446              		.cfi_endproc
 447              	.LFE11:
 448              		.size	chSemWaitS, .-chSemWaitS
 449              		.section	.text.chSemWaitTimeout,"ax",%progbits
 450              		.align	2
 451              		.global	chSemWaitTimeout
 452              		.syntax unified
 453              		.arm
 454              		.fpu softvfp
 455              		.type	chSemWaitTimeout, %function
 456              	chSemWaitTimeout:
ARM GAS  /tmp/ccpKsTsb.s 			page 9


 457              	.LVL32:
 458              	.LFB12:
 459              		.loc 1 215 55 is_stmt 1 view -0
 460              		.cfi_startproc
 461              		@ args = 0, pretend = 0, frame = 0
 462              		@ frame_needed = 0, uses_anonymous_args = 0
 463              		.loc 1 216 3 view .LVU141
 464              		.loc 1 218 3 view .LVU142
 465              		.loc 1 215 55 is_stmt 0 view .LVU143
 466 0000 0030A0E1 		mov	r3, r0
 467              		.loc 1 218 3 view .LVU144
 468              		.syntax divided
 469              	@ 218 "../os/kernel/src/chsem.c" 1
 470 0004 9FF021E3 		msr     CPSR_c, #0x9F
 471              	@ 0 "" 2
 472              		.loc 1 218 3 is_stmt 1 view .LVU145
 473              		.loc 1 218 14 view .LVU146
 474              		.loc 1 219 3 view .LVU147
 475              	.LVL33:
 476              		.arm
 477              		.syntax unified
 478              	.LBB70:
 479              	.LBI70:
 480              		.loc 1 243 7 view .LVU148
 481              	.LBB71:
 482              		.loc 1 245 3 view .LVU149
 483              		.loc 1 245 21 view .LVU150
 484              		.loc 1 246 3 view .LVU151
 485              		.loc 1 246 46 view .LVU152
 486              		.loc 1 247 3 view .LVU153
 487 0008 08C090E5 		ldr	ip, [r0, #8]
 488              		.loc 1 250 40 view .LVU154
 489              		.loc 1 252 3 view .LVU155
 490              		.loc 1 252 7 is_stmt 0 view .LVU156
 491 000c 01004CE2 		sub	r0, ip, #1
 492              	.LVL34:
 493              		.loc 1 252 6 view .LVU157
 494 0010 000050E3 		cmp	r0, #0
 495 0014 080083E5 		str	r0, [r3, #8]
 496              		.loc 1 261 10 view .LVU158
 497 0018 0000A0A3 		movge	r0, #0
 498              		.loc 1 252 6 view .LVU159
 499 001c 010000BA 		blt	.L38
 500              	.L36:
 501              	.LVL35:
 502              		.loc 1 252 6 view .LVU160
 503              	.LBE71:
 504              	.LBE70:
 505              		.loc 1 220 3 is_stmt 1 view .LVU161
 506              		.loc 1 220 3 view .LVU162
 507              		.syntax divided
 508              	@ 220 "../os/kernel/src/chsem.c" 1
 509 0020 1FF021E3 		msr     CPSR_c, #0x1F
 510              	@ 0 "" 2
 511              		.loc 1 220 16 view .LVU163
 512              		.loc 1 221 3 view .LVU164
 513              		.loc 1 222 1 is_stmt 0 view .LVU165
ARM GAS  /tmp/ccpKsTsb.s 			page 10


 514              		.arm
 515              		.syntax unified
 516 0024 1EFF2FE1 		bx	lr
 517              	.LVL36:
 518              	.L38:
 519              	.LBB84:
 520              	.LBB82:
 521              		.loc 1 253 5 is_stmt 1 view .LVU166
 522              		.loc 1 253 8 is_stmt 0 view .LVU167
 523 0028 000051E3 		cmp	r1, #0
 524              		.loc 1 255 14 view .LVU168
 525 002c 0000E003 		mvneq	r0, #0
 526              		.loc 1 254 16 view .LVU169
 527 0030 08C08305 		streq	ip, [r3, #8]
 528              		.loc 1 255 7 is_stmt 1 view .LVU170
 529              		.loc 1 253 8 is_stmt 0 view .LVU171
 530 0034 F9FFFF0A 		beq	.L36
 531              	.LVL37:
 532              	.LBB72:
 533              	.LBI72:
 534              		.loc 1 243 7 is_stmt 1 view .LVU172
 535              	.LBB73:
 536              		.loc 1 257 5 view .LVU173
 537 0038 28209FE5 		ldr	r2, .L39
 538              	.LBB74:
 539              	.LBB75:
 540              		.loc 2 48 19 is_stmt 0 view .LVU174
 541 003c 04C093E5 		ldr	ip, [r3, #4]
 542              	.LBE75:
 543              	.LBE74:
 544              		.loc 1 257 5 view .LVU175
 545 0040 182092E5 		ldr	r2, [r2, #24]
 546              	.LBE73:
 547              	.LBE72:
 548              	.LBE82:
 549              	.LBE84:
 550              		.loc 1 215 55 view .LVU176
 551 0044 10402DE9 		push	{r4, lr}
 552              		.cfi_def_cfa_offset 8
 553              		.cfi_offset 4, -8
 554              		.cfi_offset 14, -4
 555              	.LBB85:
 556              	.LBB83:
 557              	.LBB81:
 558              	.LBB80:
 559              		.loc 1 259 12 view .LVU177
 560 0048 0300A0E3 		mov	r0, #3
 561              	.LBB78:
 562              	.LBB76:
 563              		.loc 2 48 14 view .LVU178
 564 004c 081082E8 		stm	r2, {r3, ip}
 565              	.LBE76:
 566              	.LBE78:
 567              		.loc 1 257 23 view .LVU179
 568 0050 243082E5 		str	r3, [r2, #36]
 569              		.loc 1 258 5 is_stmt 1 view .LVU180
 570              	.LVL38:
ARM GAS  /tmp/ccpKsTsb.s 			page 11


 571              	.LBB79:
 572              	.LBI74:
 573              		.loc 2 45 20 view .LVU181
 574              	.LBB77:
 575              		.loc 2 47 3 view .LVU182
 576              		.loc 2 49 3 view .LVU183
 577              		.loc 2 49 36 is_stmt 0 view .LVU184
 578 0054 042083E5 		str	r2, [r3, #4]
 579              		.loc 2 49 22 view .LVU185
 580 0058 00208CE5 		str	r2, [ip]
 581              	.LVL39:
 582              		.loc 2 49 22 view .LVU186
 583              	.LBE77:
 584              	.LBE79:
 585              		.loc 1 259 5 is_stmt 1 view .LVU187
 586              		.loc 1 259 12 is_stmt 0 view .LVU188
 587 005c FEFFFFEB 		bl	chSchGoSleepTimeoutS
 588              	.LVL40:
 589              		.loc 1 259 12 view .LVU189
 590              	.LBE80:
 591              	.LBE81:
 592              	.LBE83:
 593              	.LBE85:
 594              		.loc 1 220 3 is_stmt 1 view .LVU190
 595              		.loc 1 220 3 view .LVU191
 596              		.syntax divided
 597              	@ 220 "../os/kernel/src/chsem.c" 1
 598 0060 1FF021E3 		msr     CPSR_c, #0x1F
 599              	@ 0 "" 2
 600              		.loc 1 220 16 view .LVU192
 601              		.loc 1 221 3 view .LVU193
 602              		.loc 1 222 1 is_stmt 0 view .LVU194
 603              		.arm
 604              		.syntax unified
 605 0064 1080BDE8 		pop	{r4, pc}
 606              	.L40:
 607              		.align	2
 608              	.L39:
 609 0068 00000000 		.word	rlist
 610              		.cfi_endproc
 611              	.LFE12:
 612              		.size	chSemWaitTimeout, .-chSemWaitTimeout
 613              		.section	.text.chSemWaitTimeoutS,"ax",%progbits
 614              		.align	2
 615              		.global	chSemWaitTimeoutS
 616              		.syntax unified
 617              		.arm
 618              		.fpu softvfp
 619              		.type	chSemWaitTimeoutS, %function
 620              	chSemWaitTimeoutS:
 621              	.LVL41:
 622              	.LFB13:
 623              		.loc 1 243 56 is_stmt 1 view -0
 624              		.cfi_startproc
 625              		@ args = 0, pretend = 0, frame = 0
 626              		@ frame_needed = 0, uses_anonymous_args = 0
 627              		@ link register save eliminated.
ARM GAS  /tmp/ccpKsTsb.s 			page 12


 628              		.loc 1 245 3 view .LVU196
 629              		.loc 1 245 21 view .LVU197
 630              		.loc 1 246 3 view .LVU198
 631              		.loc 1 246 46 view .LVU199
 632              		.loc 1 247 3 view .LVU200
 633              		.loc 1 243 56 is_stmt 0 view .LVU201
 634 0000 0030A0E1 		mov	r3, r0
 635              		.loc 1 247 3 view .LVU202
 636 0004 08C090E5 		ldr	ip, [r0, #8]
 637              		.loc 1 250 40 is_stmt 1 view .LVU203
 638              		.loc 1 252 3 view .LVU204
 639              		.loc 1 252 7 is_stmt 0 view .LVU205
 640 0008 01004CE2 		sub	r0, ip, #1
 641              	.LVL42:
 642              		.loc 1 252 6 view .LVU206
 643 000c 000050E3 		cmp	r0, #0
 644 0010 080083E5 		str	r0, [r3, #8]
 645 0014 010000BA 		blt	.L45
 646              		.loc 1 261 10 view .LVU207
 647 0018 0000A0E3 		mov	r0, #0
 648              		.loc 1 262 1 view .LVU208
 649 001c 1EFF2FE1 		bx	lr
 650              	.L45:
 651              		.loc 1 253 5 is_stmt 1 view .LVU209
 652              		.loc 1 253 8 is_stmt 0 view .LVU210
 653 0020 000051E3 		cmp	r1, #0
 654 0024 0800000A 		beq	.L46
 655              	.LVL43:
 656              	.LBB90:
 657              	.LBI90:
 658              		.loc 1 243 7 is_stmt 1 view .LVU211
 659              	.LBB91:
 660              		.loc 1 257 5 view .LVU212
 661 0028 28209FE5 		ldr	r2, .L47
 662              	.LBB92:
 663              	.LBB93:
 664              		.loc 2 48 19 is_stmt 0 view .LVU213
 665 002c 04C093E5 		ldr	ip, [r3, #4]
 666              	.LBE93:
 667              	.LBE92:
 668              		.loc 1 257 5 view .LVU214
 669 0030 182092E5 		ldr	r2, [r2, #24]
 670              		.loc 1 259 12 view .LVU215
 671 0034 0300A0E3 		mov	r0, #3
 672              	.LBB96:
 673              	.LBB94:
 674              		.loc 2 48 14 view .LVU216
 675 0038 081082E8 		stm	r2, {r3, ip}
 676              	.LBE94:
 677              	.LBE96:
 678              		.loc 1 257 23 view .LVU217
 679 003c 243082E5 		str	r3, [r2, #36]
 680              		.loc 1 258 5 is_stmt 1 view .LVU218
 681              	.LVL44:
 682              	.LBB97:
 683              	.LBI92:
 684              		.loc 2 45 20 view .LVU219
ARM GAS  /tmp/ccpKsTsb.s 			page 13


 685              	.LBB95:
 686              		.loc 2 47 3 view .LVU220
 687              		.loc 2 49 3 view .LVU221
 688              		.loc 2 49 36 is_stmt 0 view .LVU222
 689 0040 042083E5 		str	r2, [r3, #4]
 690              		.loc 2 49 22 view .LVU223
 691 0044 00208CE5 		str	r2, [ip]
 692              	.LVL45:
 693              		.loc 2 49 22 view .LVU224
 694              	.LBE95:
 695              	.LBE97:
 696              		.loc 1 259 5 is_stmt 1 view .LVU225
 697              		.loc 1 259 12 is_stmt 0 view .LVU226
 698 0048 FEFFFFEA 		b	chSchGoSleepTimeoutS
 699              	.LVL46:
 700              	.L46:
 701              		.loc 1 259 12 view .LVU227
 702              	.LBE91:
 703              	.LBE90:
 704              		.loc 1 254 7 is_stmt 1 view .LVU228
 705              		.loc 1 255 14 is_stmt 0 view .LVU229
 706 004c 0000E0E3 		mvn	r0, #0
 707              		.loc 1 254 16 view .LVU230
 708 0050 08C083E5 		str	ip, [r3, #8]
 709              		.loc 1 255 7 is_stmt 1 view .LVU231
 710              		.loc 1 255 14 is_stmt 0 view .LVU232
 711 0054 1EFF2FE1 		bx	lr
 712              	.L48:
 713              		.align	2
 714              	.L47:
 715 0058 00000000 		.word	rlist
 716              		.cfi_endproc
 717              	.LFE13:
 718              		.size	chSemWaitTimeoutS, .-chSemWaitTimeoutS
 719              		.section	.text.chSemSignal,"ax",%progbits
 720              		.align	2
 721              		.global	chSemSignal
 722              		.syntax unified
 723              		.arm
 724              		.fpu softvfp
 725              		.type	chSemSignal, %function
 726              	chSemSignal:
 727              	.LVL47:
 728              	.LFB14:
 729              		.loc 1 271 33 is_stmt 1 view -0
 730              		.cfi_startproc
 731              		@ args = 0, pretend = 0, frame = 0
 732              		@ frame_needed = 0, uses_anonymous_args = 0
 733              		.loc 1 273 3 view .LVU234
 734              		.loc 1 273 40 view .LVU235
 735              		.loc 1 274 3 view .LVU236
 736              		.loc 1 277 40 view .LVU237
 737              		.loc 1 279 3 view .LVU238
 738              		.syntax divided
 739              	@ 279 "../os/kernel/src/chsem.c" 1
 740 0000 9FF021E3 		msr     CPSR_c, #0x9F
 741              	@ 0 "" 2
ARM GAS  /tmp/ccpKsTsb.s 			page 14


 742              		.loc 1 279 3 view .LVU239
 743              		.loc 1 279 14 view .LVU240
 744              		.loc 1 280 3 view .LVU241
 745              		.loc 1 280 7 is_stmt 0 view .LVU242
 746              		.arm
 747              		.syntax unified
 748 0004 082090E5 		ldr	r2, [r0, #8]
 749 0008 012082E2 		add	r2, r2, #1
 750              		.loc 1 280 6 view .LVU243
 751 000c 000052E3 		cmp	r2, #0
 752 0010 082080E5 		str	r2, [r0, #8]
 753 0014 010000DA 		ble	.L55
 754              		.loc 1 282 3 is_stmt 1 view .LVU244
 755              		.loc 1 282 3 view .LVU245
 756              		.syntax divided
 757              	@ 282 "../os/kernel/src/chsem.c" 1
 758 0018 1FF021E3 		msr     CPSR_c, #0x1F
 759              	@ 0 "" 2
 760              		.loc 1 282 16 view .LVU246
 761              		.loc 1 282 3 is_stmt 0 view .LVU247
 762              		.arm
 763              		.syntax unified
 764 001c 1EFF2FE1 		bx	lr
 765              	.L55:
 766 0020 0030A0E1 		mov	r3, r0
 767              		.loc 1 281 5 is_stmt 1 view .LVU248
 768              	.LVL48:
 769              	.LBB98:
 770              	.LBI98:
 771              		.loc 2 52 23 view .LVU249
 772              	.LBB99:
 773              		.loc 2 53 3 view .LVU250
 774              		.loc 2 53 11 is_stmt 0 view .LVU251
 775 0024 000090E5 		ldr	r0, [r0]
 776              	.LVL49:
 777              		.loc 2 55 3 is_stmt 1 view .LVU252
 778              	.LBE99:
 779              	.LBE98:
 780              		.loc 1 271 33 is_stmt 0 view .LVU253
 781 0028 10402DE9 		push	{r4, lr}
 782              		.cfi_def_cfa_offset 8
 783              		.cfi_offset 4, -8
 784              		.cfi_offset 14, -4
 785              	.LBB102:
 786              	.LBB100:
 787              		.loc 2 55 20 view .LVU254
 788 002c 002090E5 		ldr	r2, [r0]
 789              	.LBE100:
 790              	.LBE102:
 791              		.loc 1 281 5 view .LVU255
 792 0030 0010A0E3 		mov	r1, #0
 793              	.LBB103:
 794              	.LBB101:
 795              		.loc 2 55 16 view .LVU256
 796 0034 002083E5 		str	r2, [r3]
 797              		.loc 2 55 38 view .LVU257
 798 0038 043082E5 		str	r3, [r2, #4]
ARM GAS  /tmp/ccpKsTsb.s 			page 15


 799              		.loc 2 56 3 is_stmt 1 view .LVU258
 800              	.LVL50:
 801              		.loc 2 56 3 is_stmt 0 view .LVU259
 802              	.LBE101:
 803              	.LBE103:
 804              		.loc 1 281 5 view .LVU260
 805 003c FEFFFFEB 		bl	chSchWakeupS
 806              	.LVL51:
 807              		.loc 1 282 3 is_stmt 1 view .LVU261
 808              		.loc 1 282 3 view .LVU262
 809              		.syntax divided
 810              	@ 282 "../os/kernel/src/chsem.c" 1
 811 0040 1FF021E3 		msr     CPSR_c, #0x1F
 812              	@ 0 "" 2
 813              		.loc 1 282 16 view .LVU263
 814              		.loc 1 283 1 is_stmt 0 view .LVU264
 815              		.arm
 816              		.syntax unified
 817 0044 1080BDE8 		pop	{r4, pc}
 818              		.cfi_endproc
 819              	.LFE14:
 820              		.size	chSemSignal, .-chSemSignal
 821              		.section	.text.chSemSignalI,"ax",%progbits
 822              		.align	2
 823              		.global	chSemSignalI
 824              		.syntax unified
 825              		.arm
 826              		.fpu softvfp
 827              		.type	chSemSignalI, %function
 828              	chSemSignalI:
 829              	.LVL52:
 830              	.LFB15:
 831              		.loc 1 296 34 is_stmt 1 view -0
 832              		.cfi_startproc
 833              		@ args = 0, pretend = 0, frame = 0
 834              		@ frame_needed = 0, uses_anonymous_args = 0
 835              		@ link register save eliminated.
 836              		.loc 1 298 3 view .LVU266
 837              		.loc 1 298 21 view .LVU267
 838              		.loc 1 299 3 view .LVU268
 839              		.loc 1 299 41 view .LVU269
 840              		.loc 1 300 3 view .LVU270
 841              		.loc 1 303 40 view .LVU271
 842              		.loc 1 305 3 view .LVU272
 843              		.loc 1 305 7 is_stmt 0 view .LVU273
 844 0000 082090E5 		ldr	r2, [r0, #8]
 845              		.loc 1 296 34 view .LVU274
 846 0004 0030A0E1 		mov	r3, r0
 847              		.loc 1 305 7 view .LVU275
 848 0008 012082E2 		add	r2, r2, #1
 849              		.loc 1 305 6 view .LVU276
 850 000c 000052E3 		cmp	r2, #0
 851 0010 082080E5 		str	r2, [r0, #8]
 852 0014 1EFF2FC1 		bxgt	lr
 853              	.LBB104:
 854              		.loc 1 308 5 is_stmt 1 view .LVU277
 855              	.LVL53:
ARM GAS  /tmp/ccpKsTsb.s 			page 16


 856              	.LBB105:
 857              	.LBI105:
 858              		.loc 2 52 23 view .LVU278
 859              	.LBB106:
 860              		.loc 2 53 3 view .LVU279
 861              	.LBE106:
 862              	.LBE105:
 863              		.loc 1 309 20 is_stmt 0 view .LVU280
 864 0018 0010A0E3 		mov	r1, #0
 865              	.LBB108:
 866              	.LBB107:
 867              		.loc 2 53 11 view .LVU281
 868 001c 000090E5 		ldr	r0, [r0]
 869              	.LVL54:
 870              		.loc 2 55 3 is_stmt 1 view .LVU282
 871              		.loc 2 55 20 is_stmt 0 view .LVU283
 872 0020 002090E5 		ldr	r2, [r0]
 873              		.loc 2 55 16 view .LVU284
 874 0024 002083E5 		str	r2, [r3]
 875              		.loc 2 55 38 view .LVU285
 876 0028 043082E5 		str	r3, [r2, #4]
 877              		.loc 2 56 3 is_stmt 1 view .LVU286
 878              	.LVL55:
 879              		.loc 2 56 3 is_stmt 0 view .LVU287
 880              	.LBE107:
 881              	.LBE108:
 882              		.loc 1 309 5 is_stmt 1 view .LVU288
 883              		.loc 1 309 20 is_stmt 0 view .LVU289
 884 002c 241080E5 		str	r1, [r0, #36]
 885              		.loc 1 310 5 is_stmt 1 view .LVU290
 886 0030 FEFFFFEA 		b	chSchReadyI
 887              	.LVL56:
 888              		.loc 1 310 5 is_stmt 0 view .LVU291
 889              	.LBE104:
 890              		.cfi_endproc
 891              	.LFE15:
 892              		.size	chSemSignalI, .-chSemSignalI
 893              		.section	.text.chSemAddCounterI,"ax",%progbits
 894              		.align	2
 895              		.global	chSemAddCounterI
 896              		.syntax unified
 897              		.arm
 898              		.fpu softvfp
 899              		.type	chSemAddCounterI, %function
 900              	chSemAddCounterI:
 901              	.LVL57:
 902              	.LFB16:
 903              		.loc 1 327 47 is_stmt 1 view -0
 904              		.cfi_startproc
 905              		@ args = 0, pretend = 0, frame = 0
 906              		@ frame_needed = 0, uses_anonymous_args = 0
 907              		.loc 1 329 3 view .LVU293
 908              		.loc 1 329 21 view .LVU294
 909              		.loc 1 330 3 view .LVU295
 910              		.loc 1 330 58 view .LVU296
 911              		.loc 1 331 3 view .LVU297
 912              		.loc 1 336 9 view .LVU298
ARM GAS  /tmp/ccpKsTsb.s 			page 17


 913              		.loc 1 327 47 is_stmt 0 view .LVU299
 914 0000 70402DE9 		push	{r4, r5, r6, lr}
 915              		.cfi_def_cfa_offset 16
 916              		.cfi_offset 4, -16
 917              		.cfi_offset 5, -12
 918              		.cfi_offset 6, -8
 919              		.cfi_offset 14, -4
 920              		.loc 1 336 9 view .LVU300
 921 0004 004051E2 		subs	r4, r1, #0
 922 0008 7080BDD8 		pople	{r4, r5, r6, pc}
 923 000c 0050A0E1 		mov	r5, r0
 924              		.loc 1 338 58 view .LVU301
 925 0010 0060A0E3 		mov	r6, #0
 926 0014 010000EA 		b	.L61
 927              	.LVL58:
 928              	.L60:
 929              		.loc 1 339 5 is_stmt 1 view .LVU302
 930              		.loc 1 336 9 view .LVU303
 931 0018 014054E2 		subs	r4, r4, #1
 932              	.LVL59:
 933              		.loc 1 336 9 is_stmt 0 view .LVU304
 934 001c 7080BD08 		popeq	{r4, r5, r6, pc}
 935              	.LVL60:
 936              	.L61:
 937              		.loc 1 337 5 is_stmt 1 view .LVU305
 938              		.loc 1 337 9 is_stmt 0 view .LVU306
 939 0020 083095E5 		ldr	r3, [r5, #8]
 940 0024 013083E2 		add	r3, r3, #1
 941              		.loc 1 337 8 view .LVU307
 942 0028 000053E3 		cmp	r3, #0
 943 002c 083085E5 		str	r3, [r5, #8]
 944 0030 F8FFFFCA 		bgt	.L60
 945              		.loc 1 338 7 is_stmt 1 view .LVU308
 946              	.LVL61:
 947              	.LBB109:
 948              	.LBI109:
 949              		.loc 2 52 23 view .LVU309
 950              	.LBB110:
 951              		.loc 2 53 3 view .LVU310
 952              		.loc 2 53 11 is_stmt 0 view .LVU311
 953 0034 000095E5 		ldr	r0, [r5]
 954              	.LVL62:
 955              		.loc 2 55 3 is_stmt 1 view .LVU312
 956              		.loc 2 55 20 is_stmt 0 view .LVU313
 957 0038 003090E5 		ldr	r3, [r0]
 958              		.loc 2 55 16 view .LVU314
 959 003c 003085E5 		str	r3, [r5]
 960              		.loc 2 55 38 view .LVU315
 961 0040 045083E5 		str	r5, [r3, #4]
 962              		.loc 2 56 3 is_stmt 1 view .LVU316
 963              	.LVL63:
 964              		.loc 2 56 3 is_stmt 0 view .LVU317
 965              	.LBE110:
 966              	.LBE109:
 967              		.loc 1 338 7 view .LVU318
 968 0044 FEFFFFEB 		bl	chSchReadyI
 969              	.LVL64:
ARM GAS  /tmp/ccpKsTsb.s 			page 18


 970              		.loc 1 336 9 view .LVU319
 971 0048 014054E2 		subs	r4, r4, #1
 972              	.LVL65:
 973              		.loc 1 338 58 view .LVU320
 974 004c 246080E5 		str	r6, [r0, #36]
 975              		.loc 1 339 5 is_stmt 1 view .LVU321
 976              	.LVL66:
 977              		.loc 1 336 9 view .LVU322
 978 0050 F2FFFF1A 		bne	.L61
 979 0054 7080BDE8 		pop	{r4, r5, r6, pc}
 980              		.cfi_endproc
 981              	.LFE16:
 982              		.size	chSemAddCounterI, .-chSemAddCounterI
 983              		.section	.text.chSemSignalWait,"ax",%progbits
 984              		.align	2
 985              		.global	chSemSignalWait
 986              		.syntax unified
 987              		.arm
 988              		.fpu softvfp
 989              		.type	chSemSignalWait, %function
 990              	chSemSignalWait:
 991              	.LVL67:
 992              	.LFB17:
 993              		.loc 1 359 55 view -0
 994              		.cfi_startproc
 995              		@ args = 0, pretend = 0, frame = 0
 996              		@ frame_needed = 0, uses_anonymous_args = 0
 997              		.loc 1 360 3 view .LVU324
 998              		.loc 1 362 3 view .LVU325
 999              		.loc 1 362 64 view .LVU326
 1000              		.loc 1 363 3 view .LVU327
 1001              		.loc 1 366 40 view .LVU328
 1002              		.loc 1 367 3 view .LVU329
 1003              		.loc 1 370 40 view .LVU330
 1004              		.loc 1 372 3 view .LVU331
 1005              		.loc 1 359 55 is_stmt 0 view .LVU332
 1006 0000 70402DE9 		push	{r4, r5, r6, lr}
 1007              		.cfi_def_cfa_offset 16
 1008              		.cfi_offset 4, -16
 1009              		.cfi_offset 5, -12
 1010              		.cfi_offset 6, -8
 1011              		.cfi_offset 14, -4
 1012              		.loc 1 359 55 view .LVU333
 1013 0004 0140A0E1 		mov	r4, r1
 1014              		.loc 1 372 3 view .LVU334
 1015              		.syntax divided
 1016              	@ 372 "../os/kernel/src/chsem.c" 1
 1017 0008 9FF021E3 		msr     CPSR_c, #0x9F
 1018              	@ 0 "" 2
 1019              		.loc 1 372 3 is_stmt 1 view .LVU335
 1020              		.loc 1 372 14 view .LVU336
 1021              		.loc 1 373 3 view .LVU337
 1022              		.loc 1 373 7 is_stmt 0 view .LVU338
 1023              		.arm
 1024              		.syntax unified
 1025 000c 082090E5 		ldr	r2, [r0, #8]
 1026 0010 012082E2 		add	r2, r2, #1
ARM GAS  /tmp/ccpKsTsb.s 			page 19


 1027              		.loc 1 373 6 view .LVU339
 1028 0014 000052E3 		cmp	r2, #0
 1029 0018 082080E5 		str	r2, [r0, #8]
 1030 001c 150000DA 		ble	.L69
 1031              	.LVL68:
 1032              	.L65:
 1033              		.loc 1 375 3 is_stmt 1 view .LVU340
 1034              		.loc 1 375 7 is_stmt 0 view .LVU341
 1035 0020 083094E5 		ldr	r3, [r4, #8]
 1036 0024 013043E2 		sub	r3, r3, #1
 1037              		.loc 1 375 6 view .LVU342
 1038 0028 000053E3 		cmp	r3, #0
 1039 002c 083084E5 		str	r3, [r4, #8]
 1040 0030 030000BA 		blt	.L70
 1041              		.loc 1 383 5 is_stmt 1 view .LVU343
 1042 0034 FEFFFFEB 		bl	chSchRescheduleS
 1043              	.LVL69:
 1044              		.loc 1 384 5 view .LVU344
 1045              		.loc 1 384 9 is_stmt 0 view .LVU345
 1046 0038 0000A0E3 		mov	r0, #0
 1047              	.LVL70:
 1048              		.loc 1 386 3 is_stmt 1 view .LVU346
 1049              		.loc 1 386 3 view .LVU347
 1050              		.syntax divided
 1051              	@ 386 "../os/kernel/src/chsem.c" 1
 1052 003c 1FF021E3 		msr     CPSR_c, #0x1F
 1053              	@ 0 "" 2
 1054              		.loc 1 386 16 view .LVU348
 1055              		.loc 1 387 3 view .LVU349
 1056              		.loc 1 388 1 is_stmt 0 view .LVU350
 1057              		.arm
 1058              		.syntax unified
 1059 0040 7080BDE8 		pop	{r4, r5, r6, pc}
 1060              	.LVL71:
 1061              	.L70:
 1062              	.LBB111:
 1063              		.loc 1 376 5 is_stmt 1 view .LVU351
 1064              		.loc 1 376 13 is_stmt 0 view .LVU352
 1065 0044 50209FE5 		ldr	r2, .L71
 1066              	.LBB112:
 1067              	.LBB113:
 1068              		.loc 2 48 19 view .LVU353
 1069 0048 043094E5 		ldr	r3, [r4, #4]
 1070              	.LBE113:
 1071              	.LBE112:
 1072              		.loc 1 376 13 view .LVU354
 1073 004c 185092E5 		ldr	r5, [r2, #24]
 1074              	.LVL72:
 1075              		.loc 1 377 5 is_stmt 1 view .LVU355
 1076              	.LBB116:
 1077              	.LBI112:
 1078              		.loc 2 45 20 view .LVU356
 1079              	.LBB114:
 1080              		.loc 2 47 3 view .LVU357
 1081              	.LBE114:
 1082              	.LBE116:
 1083              		.loc 1 379 5 is_stmt 0 view .LVU358
ARM GAS  /tmp/ccpKsTsb.s 			page 20


 1084 0050 0300A0E3 		mov	r0, #3
 1085              	.LBB117:
 1086              	.LBB115:
 1087              		.loc 2 47 14 view .LVU359
 1088 0054 004085E5 		str	r4, [r5]
 1089              		.loc 2 48 3 is_stmt 1 view .LVU360
 1090              		.loc 2 48 14 is_stmt 0 view .LVU361
 1091 0058 043085E5 		str	r3, [r5, #4]
 1092              		.loc 2 49 3 is_stmt 1 view .LVU362
 1093              		.loc 2 49 36 is_stmt 0 view .LVU363
 1094 005c 045084E5 		str	r5, [r4, #4]
 1095              		.loc 2 49 22 view .LVU364
 1096 0060 005083E5 		str	r5, [r3]
 1097              	.LVL73:
 1098              		.loc 2 49 22 view .LVU365
 1099              	.LBE115:
 1100              	.LBE117:
 1101              		.loc 1 378 5 is_stmt 1 view .LVU366
 1102              		.loc 1 378 21 is_stmt 0 view .LVU367
 1103 0064 244085E5 		str	r4, [r5, #36]
 1104              		.loc 1 379 5 is_stmt 1 view .LVU368
 1105 0068 FEFFFFEB 		bl	chSchGoSleepS
 1106              	.LVL74:
 1107              		.loc 1 380 5 view .LVU369
 1108              		.loc 1 380 9 is_stmt 0 view .LVU370
 1109 006c 240095E5 		ldr	r0, [r5, #36]
 1110              	.LVL75:
 1111              		.loc 1 380 9 view .LVU371
 1112              	.LBE111:
 1113              		.loc 1 386 3 is_stmt 1 view .LVU372
 1114              		.loc 1 386 3 view .LVU373
 1115              		.syntax divided
 1116              	@ 386 "../os/kernel/src/chsem.c" 1
 1117 0070 1FF021E3 		msr     CPSR_c, #0x1F
 1118              	@ 0 "" 2
 1119              		.loc 1 386 16 view .LVU374
 1120              		.loc 1 387 3 view .LVU375
 1121              		.loc 1 388 1 is_stmt 0 view .LVU376
 1122              		.arm
 1123              		.syntax unified
 1124 0074 7080BDE8 		pop	{r4, r5, r6, pc}
 1125              	.LVL76:
 1126              	.L69:
 1127              		.loc 1 388 1 view .LVU377
 1128 0078 0030A0E1 		mov	r3, r0
 1129              		.loc 1 374 5 is_stmt 1 view .LVU378
 1130              	.LVL77:
 1131              	.LBB118:
 1132              	.LBI118:
 1133              		.loc 2 52 23 view .LVU379
 1134              	.LBB119:
 1135              		.loc 2 53 3 view .LVU380
 1136              		.loc 2 53 11 is_stmt 0 view .LVU381
 1137 007c 000090E5 		ldr	r0, [r0]
 1138              	.LVL78:
 1139              		.loc 2 55 3 is_stmt 1 view .LVU382
 1140              		.loc 2 55 20 is_stmt 0 view .LVU383
ARM GAS  /tmp/ccpKsTsb.s 			page 21


 1141 0080 002090E5 		ldr	r2, [r0]
 1142              		.loc 2 55 16 view .LVU384
 1143 0084 002083E5 		str	r2, [r3]
 1144              		.loc 2 55 38 view .LVU385
 1145 0088 043082E5 		str	r3, [r2, #4]
 1146              		.loc 2 56 3 is_stmt 1 view .LVU386
 1147              	.LVL79:
 1148              		.loc 2 56 3 is_stmt 0 view .LVU387
 1149              	.LBE119:
 1150              	.LBE118:
 1151              		.loc 1 374 5 view .LVU388
 1152 008c FEFFFFEB 		bl	chSchReadyI
 1153              	.LVL80:
 1154              		.loc 1 374 57 view .LVU389
 1155 0090 0030A0E3 		mov	r3, #0
 1156 0094 243080E5 		str	r3, [r0, #36]
 1157 0098 E0FFFFEA 		b	.L65
 1158              	.L72:
 1159              		.align	2
 1160              	.L71:
 1161 009c 00000000 		.word	rlist
 1162              		.cfi_endproc
 1163              	.LFE17:
 1164              		.size	chSemSignalWait, .-chSemSignalWait
 1165              		.text
 1166              	.Letext0:
 1167              		.file 3 "/usr/lib/gcc/arm-none-eabi/9.2.1/include/stdint.h"
 1168              		.file 4 "../os/ports/GCC/ARM/chtypes.h"
 1169              		.file 5 "../os/kernel/include/chlists.h"
 1170              		.file 6 "../os/kernel/include/chthreads.h"
 1171              		.file 7 "../os/ports/GCC/ARM/chcore.h"
 1172              		.file 8 "../os/kernel/include/chvt.h"
 1173              		.file 9 "../os/kernel/include/chschd.h"
 1174              		.file 10 "../os/kernel/include/chsem.h"
 1175              		.file 11 "../os/kernel/include/chmtx.h"
 1176              		.file 12 "../os/kernel/include/chregistry.h"
 1177              		.file 13 "../os/kernel/include/ch.h"
 1178              		.section	.debug_info,"",%progbits
 1179              	.Ldebug_info0:
 1180 0000 E30D0000 		.4byte	0xde3
 1181 0004 0400     		.2byte	0x4
 1182 0006 00000000 		.4byte	.Ldebug_abbrev0
 1183 000a 04       		.byte	0x4
 1184 000b 01       		.uleb128 0x1
 1185 000c 2D000000 		.4byte	.LASF117
 1186 0010 0C       		.byte	0xc
 1187 0011 DC010000 		.4byte	.LASF118
 1188 0015 82040000 		.4byte	.LASF119
 1189 0019 68010000 		.4byte	.Ldebug_ranges0+0x168
 1190 001d 00000000 		.4byte	0
 1191 0021 00000000 		.4byte	.Ldebug_line0
 1192 0025 02       		.uleb128 0x2
 1193 0026 04       		.byte	0x4
 1194 0027 05       		.byte	0x5
 1195 0028 696E7400 		.ascii	"int\000"
 1196 002c 03       		.uleb128 0x3
 1197 002d 04       		.byte	0x4
ARM GAS  /tmp/ccpKsTsb.s 			page 22


 1198 002e 07       		.byte	0x7
 1199 002f 55020000 		.4byte	.LASF0
 1200 0033 03       		.uleb128 0x3
 1201 0034 01       		.byte	0x1
 1202 0035 06       		.byte	0x6
 1203 0036 70010000 		.4byte	.LASF1
 1204 003a 03       		.uleb128 0x3
 1205 003b 02       		.byte	0x2
 1206 003c 05       		.byte	0x5
 1207 003d CC030000 		.4byte	.LASF2
 1208 0041 04       		.uleb128 0x4
 1209 0042 AC030000 		.4byte	.LASF5
 1210 0046 03       		.byte	0x3
 1211 0047 28       		.byte	0x28
 1212 0048 18       		.byte	0x18
 1213 0049 4D000000 		.4byte	0x4d
 1214 004d 03       		.uleb128 0x3
 1215 004e 04       		.byte	0x4
 1216 004f 05       		.byte	0x5
 1217 0050 AB010000 		.4byte	.LASF3
 1218 0054 03       		.uleb128 0x3
 1219 0055 08       		.byte	0x8
 1220 0056 05       		.byte	0x5
 1221 0057 62010000 		.4byte	.LASF4
 1222 005b 04       		.uleb128 0x4
 1223 005c A2050000 		.4byte	.LASF6
 1224 0060 03       		.byte	0x3
 1225 0061 2E       		.byte	0x2e
 1226 0062 18       		.byte	0x18
 1227 0063 67000000 		.4byte	0x67
 1228 0067 03       		.uleb128 0x3
 1229 0068 01       		.byte	0x1
 1230 0069 08       		.byte	0x8
 1231 006a B4030000 		.4byte	.LASF7
 1232 006e 04       		.uleb128 0x4
 1233 006f C9010000 		.4byte	.LASF8
 1234 0073 03       		.byte	0x3
 1235 0074 31       		.byte	0x31
 1236 0075 19       		.byte	0x19
 1237 0076 7A000000 		.4byte	0x7a
 1238 007a 03       		.uleb128 0x3
 1239 007b 02       		.byte	0x2
 1240 007c 07       		.byte	0x7
 1241 007d B2020000 		.4byte	.LASF9
 1242 0081 04       		.uleb128 0x4
 1243 0082 58040000 		.4byte	.LASF10
 1244 0086 03       		.byte	0x3
 1245 0087 34       		.byte	0x34
 1246 0088 19       		.byte	0x19
 1247 0089 8D000000 		.4byte	0x8d
 1248 008d 03       		.uleb128 0x3
 1249 008e 04       		.byte	0x4
 1250 008f 07       		.byte	0x7
 1251 0090 7B020000 		.4byte	.LASF11
 1252 0094 03       		.uleb128 0x3
 1253 0095 08       		.byte	0x8
 1254 0096 07       		.byte	0x7
ARM GAS  /tmp/ccpKsTsb.s 			page 23


 1255 0097 0F010000 		.4byte	.LASF12
 1256 009b 04       		.uleb128 0x4
 1257 009c E3020000 		.4byte	.LASF13
 1258 00a0 04       		.byte	0x4
 1259 00a1 2A       		.byte	0x2a
 1260 00a2 19       		.byte	0x19
 1261 00a3 5B000000 		.4byte	0x5b
 1262 00a7 04       		.uleb128 0x4
 1263 00a8 B4010000 		.4byte	.LASF14
 1264 00ac 04       		.byte	0x4
 1265 00ad 2B       		.byte	0x2b
 1266 00ae 19       		.byte	0x19
 1267 00af 5B000000 		.4byte	0x5b
 1268 00b3 04       		.uleb128 0x4
 1269 00b4 8A030000 		.4byte	.LASF15
 1270 00b8 04       		.byte	0x4
 1271 00b9 2C       		.byte	0x2c
 1272 00ba 19       		.byte	0x19
 1273 00bb 5B000000 		.4byte	0x5b
 1274 00bf 04       		.uleb128 0x4
 1275 00c0 A1010000 		.4byte	.LASF16
 1276 00c4 04       		.byte	0x4
 1277 00c5 2D       		.byte	0x2d
 1278 00c6 19       		.byte	0x19
 1279 00c7 5B000000 		.4byte	0x5b
 1280 00cb 04       		.uleb128 0x4
 1281 00cc A4030000 		.4byte	.LASF17
 1282 00d0 04       		.byte	0x4
 1283 00d1 2E       		.byte	0x2e
 1284 00d2 19       		.byte	0x19
 1285 00d3 81000000 		.4byte	0x81
 1286 00d7 04       		.uleb128 0x4
 1287 00d8 DD020000 		.4byte	.LASF18
 1288 00dc 04       		.byte	0x4
 1289 00dd 2F       		.byte	0x2f
 1290 00de 19       		.byte	0x19
 1291 00df 41000000 		.4byte	0x41
 1292 00e3 04       		.uleb128 0x4
 1293 00e4 F7020000 		.4byte	.LASF19
 1294 00e8 04       		.byte	0x4
 1295 00e9 31       		.byte	0x31
 1296 00ea 19       		.byte	0x19
 1297 00eb 81000000 		.4byte	0x81
 1298 00ef 04       		.uleb128 0x4
 1299 00f0 16050000 		.4byte	.LASF20
 1300 00f4 04       		.byte	0x4
 1301 00f5 33       		.byte	0x33
 1302 00f6 19       		.byte	0x19
 1303 00f7 81000000 		.4byte	0x81
 1304 00fb 05       		.uleb128 0x5
 1305 00fc EF000000 		.4byte	0xef
 1306 0100 04       		.uleb128 0x4
 1307 0101 4F020000 		.4byte	.LASF21
 1308 0105 04       		.byte	0x4
 1309 0106 34       		.byte	0x34
 1310 0107 19       		.byte	0x19
 1311 0108 41000000 		.4byte	0x41
ARM GAS  /tmp/ccpKsTsb.s 			page 24


 1312 010c 04       		.uleb128 0x4
 1313 010d 2B040000 		.4byte	.LASF22
 1314 0111 05       		.byte	0x5
 1315 0112 23       		.byte	0x23
 1316 0113 17       		.byte	0x17
 1317 0114 18010000 		.4byte	0x118
 1318 0118 06       		.uleb128 0x6
 1319 0119 2B040000 		.4byte	.LASF22
 1320 011d 44       		.byte	0x44
 1321 011e 06       		.byte	0x6
 1322 011f 57       		.byte	0x57
 1323 0120 08       		.byte	0x8
 1324 0121 1D020000 		.4byte	0x21d
 1325 0125 07       		.uleb128 0x7
 1326 0126 02040000 		.4byte	.LASF23
 1327 012a 06       		.byte	0x6
 1328 012b 58       		.byte	0x58
 1329 012c 1A       		.byte	0x1a
 1330 012d 41020000 		.4byte	0x241
 1331 0131 00       		.byte	0
 1332 0132 07       		.uleb128 0x7
 1333 0133 9D030000 		.4byte	.LASF24
 1334 0137 06       		.byte	0x6
 1335 0138 5A       		.byte	0x5a
 1336 0139 1A       		.byte	0x1a
 1337 013a 41020000 		.4byte	0x241
 1338 013e 04       		.byte	0x4
 1339 013f 07       		.uleb128 0x7
 1340 0140 4E010000 		.4byte	.LASF25
 1341 0144 06       		.byte	0x6
 1342 0145 5C       		.byte	0x5c
 1343 0146 19       		.byte	0x19
 1344 0147 CB000000 		.4byte	0xcb
 1345 014b 08       		.byte	0x8
 1346 014c 07       		.uleb128 0x7
 1347 014d F2050000 		.4byte	.LASF26
 1348 0151 06       		.byte	0x6
 1349 0152 5D       		.byte	0x5d
 1350 0153 19       		.byte	0x19
 1351 0154 0C030000 		.4byte	0x30c
 1352 0158 0C       		.byte	0xc
 1353 0159 07       		.uleb128 0x7
 1354 015a F5010000 		.4byte	.LASF27
 1355 015e 06       		.byte	0x6
 1356 015f 5F       		.byte	0x5f
 1357 0160 1A       		.byte	0x1a
 1358 0161 41020000 		.4byte	0x241
 1359 0165 10       		.byte	0x10
 1360 0166 07       		.uleb128 0x7
 1361 0167 50030000 		.4byte	.LASF28
 1362 016b 06       		.byte	0x6
 1363 016c 60       		.byte	0x60
 1364 016d 1A       		.byte	0x1a
 1365 016e 41020000 		.4byte	0x241
 1366 0172 14       		.byte	0x14
 1367 0173 07       		.uleb128 0x7
 1368 0174 B1050000 		.4byte	.LASF29
ARM GAS  /tmp/ccpKsTsb.s 			page 25


 1369 0178 06       		.byte	0x6
 1370 0179 67       		.byte	0x67
 1371 017a 1A       		.byte	0x1a
 1372 017b 26050000 		.4byte	0x526
 1373 017f 18       		.byte	0x18
 1374 0180 07       		.uleb128 0x7
 1375 0181 D6030000 		.4byte	.LASF30
 1376 0185 06       		.byte	0x6
 1377 0186 72       		.byte	0x72
 1378 0187 19       		.byte	0x19
 1379 0188 A7000000 		.4byte	0xa7
 1380 018c 1C       		.byte	0x1c
 1381 018d 07       		.uleb128 0x7
 1382 018e 18040000 		.4byte	.LASF31
 1383 0192 06       		.byte	0x6
 1384 0193 76       		.byte	0x76
 1385 0194 19       		.byte	0x19
 1386 0195 9B000000 		.4byte	0x9b
 1387 0199 1D       		.byte	0x1d
 1388 019a 07       		.uleb128 0x7
 1389 019b 7F050000 		.4byte	.LASF32
 1390 019f 06       		.byte	0x6
 1391 01a0 7B       		.byte	0x7b
 1392 01a1 19       		.byte	0x19
 1393 01a2 B3000000 		.4byte	0xb3
 1394 01a6 1E       		.byte	0x1e
 1395 01a7 07       		.uleb128 0x7
 1396 01a8 DE030000 		.4byte	.LASF33
 1397 01ac 06       		.byte	0x6
 1398 01ad 81       		.byte	0x81
 1399 01ae 19       		.byte	0x19
 1400 01af BF000000 		.4byte	0xbf
 1401 01b3 1F       		.byte	0x1f
 1402 01b4 07       		.uleb128 0x7
 1403 01b5 3E050000 		.4byte	.LASF34
 1404 01b9 06       		.byte	0x6
 1405 01ba 88       		.byte	0x88
 1406 01bb 19       		.byte	0x19
 1407 01bc FB000000 		.4byte	0xfb
 1408 01c0 20       		.byte	0x20
 1409 01c1 08       		.uleb128 0x8
 1410 01c2 705F7500 		.ascii	"p_u\000"
 1411 01c6 06       		.byte	0x6
 1412 01c7 AD       		.byte	0xad
 1413 01c8 19       		.byte	0x19
 1414 01c9 EC040000 		.4byte	0x4ec
 1415 01cd 24       		.byte	0x24
 1416 01ce 07       		.uleb128 0x7
 1417 01cf F8050000 		.4byte	.LASF35
 1418 01d3 06       		.byte	0x6
 1419 01d4 B2       		.byte	0xb2
 1420 01d5 19       		.byte	0x19
 1421 01d6 6A020000 		.4byte	0x26a
 1422 01da 28       		.byte	0x28
 1423 01db 07       		.uleb128 0x7
 1424 01dc 58050000 		.4byte	.LASF36
 1425 01e0 06       		.byte	0x6
ARM GAS  /tmp/ccpKsTsb.s 			page 26


 1426 01e1 B8       		.byte	0xb8
 1427 01e2 19       		.byte	0x19
 1428 01e3 47020000 		.4byte	0x247
 1429 01e7 2C       		.byte	0x2c
 1430 01e8 07       		.uleb128 0x7
 1431 01e9 0D000000 		.4byte	.LASF37
 1432 01ed 06       		.byte	0x6
 1433 01ee BC       		.byte	0xbc
 1434 01ef 19       		.byte	0x19
 1435 01f0 D7000000 		.4byte	0xd7
 1436 01f4 34       		.byte	0x34
 1437 01f5 07       		.uleb128 0x7
 1438 01f6 4D040000 		.4byte	.LASF38
 1439 01fa 06       		.byte	0x6
 1440 01fb C2       		.byte	0xc2
 1441 01fc 19       		.byte	0x19
 1442 01fd E3000000 		.4byte	0xe3
 1443 0201 38       		.byte	0x38
 1444 0202 07       		.uleb128 0x7
 1445 0203 C2030000 		.4byte	.LASF39
 1446 0207 06       		.byte	0x6
 1447 0208 C9       		.byte	0xc9
 1448 0209 1A       		.byte	0x1a
 1449 020a 38050000 		.4byte	0x538
 1450 020e 3C       		.byte	0x3c
 1451 020f 07       		.uleb128 0x7
 1452 0210 20050000 		.4byte	.LASF40
 1453 0214 06       		.byte	0x6
 1454 0215 CD       		.byte	0xcd
 1455 0216 19       		.byte	0x19
 1456 0217 CB000000 		.4byte	0xcb
 1457 021b 40       		.byte	0x40
 1458 021c 00       		.byte	0
 1459 021d 09       		.uleb128 0x9
 1460 021e 08       		.byte	0x8
 1461 021f 05       		.byte	0x5
 1462 0220 5A       		.byte	0x5a
 1463 0221 09       		.byte	0x9
 1464 0222 41020000 		.4byte	0x241
 1465 0226 07       		.uleb128 0x7
 1466 0227 02040000 		.4byte	.LASF23
 1467 022b 05       		.byte	0x5
 1468 022c 5B       		.byte	0x5b
 1469 022d 1A       		.byte	0x1a
 1470 022e 41020000 		.4byte	0x241
 1471 0232 00       		.byte	0
 1472 0233 07       		.uleb128 0x7
 1473 0234 9D030000 		.4byte	.LASF24
 1474 0238 05       		.byte	0x5
 1475 0239 5D       		.byte	0x5d
 1476 023a 1A       		.byte	0x1a
 1477 023b 41020000 		.4byte	0x241
 1478 023f 04       		.byte	0x4
 1479 0240 00       		.byte	0
 1480 0241 0A       		.uleb128 0xa
 1481 0242 04       		.byte	0x4
 1482 0243 0C010000 		.4byte	0x10c
ARM GAS  /tmp/ccpKsTsb.s 			page 27


 1483 0247 04       		.uleb128 0x4
 1484 0248 5E030000 		.4byte	.LASF41
 1485 024c 05       		.byte	0x5
 1486 024d 5F       		.byte	0x5f
 1487 024e 03       		.byte	0x3
 1488 024f 1D020000 		.4byte	0x21d
 1489 0253 09       		.uleb128 0x9
 1490 0254 04       		.byte	0x4
 1491 0255 05       		.byte	0x5
 1492 0256 64       		.byte	0x64
 1493 0257 09       		.byte	0x9
 1494 0258 6A020000 		.4byte	0x26a
 1495 025c 07       		.uleb128 0x7
 1496 025d 02040000 		.4byte	.LASF23
 1497 0261 05       		.byte	0x5
 1498 0262 66       		.byte	0x66
 1499 0263 16       		.byte	0x16
 1500 0264 41020000 		.4byte	0x241
 1501 0268 00       		.byte	0
 1502 0269 00       		.byte	0
 1503 026a 04       		.uleb128 0x4
 1504 026b EB020000 		.4byte	.LASF42
 1505 026f 05       		.byte	0x5
 1506 0270 69       		.byte	0x69
 1507 0271 03       		.byte	0x3
 1508 0272 53020000 		.4byte	0x253
 1509 0276 04       		.uleb128 0x4
 1510 0277 09030000 		.4byte	.LASF43
 1511 027b 07       		.byte	0x7
 1512 027c 9D       		.byte	0x9d
 1513 027d 12       		.byte	0x12
 1514 027e 81000000 		.4byte	0x81
 1515 0282 04       		.uleb128 0x4
 1516 0283 2E020000 		.4byte	.LASF44
 1517 0287 07       		.byte	0x7
 1518 0288 A2       		.byte	0xa2
 1519 0289 0F       		.byte	0xf
 1520 028a 8E020000 		.4byte	0x28e
 1521 028e 0B       		.uleb128 0xb
 1522 028f 04       		.byte	0x4
 1523 0290 06       		.uleb128 0x6
 1524 0291 51050000 		.4byte	.LASF45
 1525 0295 24       		.byte	0x24
 1526 0296 07       		.byte	0x7
 1527 0297 B9       		.byte	0xb9
 1528 0298 08       		.byte	0x8
 1529 0299 0C030000 		.4byte	0x30c
 1530 029d 08       		.uleb128 0x8
 1531 029e 723400   		.ascii	"r4\000"
 1532 02a1 07       		.byte	0x7
 1533 02a2 BA       		.byte	0xba
 1534 02a3 11       		.byte	0x11
 1535 02a4 82020000 		.4byte	0x282
 1536 02a8 00       		.byte	0
 1537 02a9 08       		.uleb128 0x8
 1538 02aa 723500   		.ascii	"r5\000"
 1539 02ad 07       		.byte	0x7
ARM GAS  /tmp/ccpKsTsb.s 			page 28


 1540 02ae BB       		.byte	0xbb
 1541 02af 11       		.byte	0x11
 1542 02b0 82020000 		.4byte	0x282
 1543 02b4 04       		.byte	0x4
 1544 02b5 08       		.uleb128 0x8
 1545 02b6 723600   		.ascii	"r6\000"
 1546 02b9 07       		.byte	0x7
 1547 02ba BC       		.byte	0xbc
 1548 02bb 11       		.byte	0x11
 1549 02bc 82020000 		.4byte	0x282
 1550 02c0 08       		.byte	0x8
 1551 02c1 08       		.uleb128 0x8
 1552 02c2 723700   		.ascii	"r7\000"
 1553 02c5 07       		.byte	0x7
 1554 02c6 BD       		.byte	0xbd
 1555 02c7 11       		.byte	0x11
 1556 02c8 82020000 		.4byte	0x282
 1557 02cc 0C       		.byte	0xc
 1558 02cd 08       		.uleb128 0x8
 1559 02ce 723800   		.ascii	"r8\000"
 1560 02d1 07       		.byte	0x7
 1561 02d2 BE       		.byte	0xbe
 1562 02d3 11       		.byte	0x11
 1563 02d4 82020000 		.4byte	0x282
 1564 02d8 10       		.byte	0x10
 1565 02d9 08       		.uleb128 0x8
 1566 02da 723900   		.ascii	"r9\000"
 1567 02dd 07       		.byte	0x7
 1568 02de BF       		.byte	0xbf
 1569 02df 11       		.byte	0x11
 1570 02e0 82020000 		.4byte	0x282
 1571 02e4 14       		.byte	0x14
 1572 02e5 08       		.uleb128 0x8
 1573 02e6 72313000 		.ascii	"r10\000"
 1574 02ea 07       		.byte	0x7
 1575 02eb C0       		.byte	0xc0
 1576 02ec 11       		.byte	0x11
 1577 02ed 82020000 		.4byte	0x282
 1578 02f1 18       		.byte	0x18
 1579 02f2 08       		.uleb128 0x8
 1580 02f3 72313100 		.ascii	"r11\000"
 1581 02f7 07       		.byte	0x7
 1582 02f8 C1       		.byte	0xc1
 1583 02f9 11       		.byte	0x11
 1584 02fa 82020000 		.4byte	0x282
 1585 02fe 1C       		.byte	0x1c
 1586 02ff 08       		.uleb128 0x8
 1587 0300 6C7200   		.ascii	"lr\000"
 1588 0303 07       		.byte	0x7
 1589 0304 C2       		.byte	0xc2
 1590 0305 11       		.byte	0x11
 1591 0306 82020000 		.4byte	0x282
 1592 030a 20       		.byte	0x20
 1593 030b 00       		.byte	0
 1594 030c 06       		.uleb128 0x6
 1595 030d AA020000 		.4byte	.LASF46
 1596 0311 04       		.byte	0x4
ARM GAS  /tmp/ccpKsTsb.s 			page 29


 1597 0312 07       		.byte	0x7
 1598 0313 CA       		.byte	0xca
 1599 0314 08       		.byte	0x8
 1600 0315 27030000 		.4byte	0x327
 1601 0319 08       		.uleb128 0x8
 1602 031a 72313300 		.ascii	"r13\000"
 1603 031e 07       		.byte	0x7
 1604 031f CB       		.byte	0xcb
 1605 0320 12       		.byte	0x12
 1606 0321 27030000 		.4byte	0x327
 1607 0325 00       		.byte	0
 1608 0326 00       		.byte	0
 1609 0327 0A       		.uleb128 0xa
 1610 0328 04       		.byte	0x4
 1611 0329 90020000 		.4byte	0x290
 1612 032d 04       		.uleb128 0x4
 1613 032e 2B050000 		.4byte	.LASF47
 1614 0332 08       		.byte	0x8
 1615 0333 4E       		.byte	0x4e
 1616 0334 10       		.byte	0x10
 1617 0335 39030000 		.4byte	0x339
 1618 0339 0A       		.uleb128 0xa
 1619 033a 04       		.byte	0x4
 1620 033b 3F030000 		.4byte	0x33f
 1621 033f 0C       		.uleb128 0xc
 1622 0340 4A030000 		.4byte	0x34a
 1623 0344 0D       		.uleb128 0xd
 1624 0345 8E020000 		.4byte	0x28e
 1625 0349 00       		.byte	0
 1626 034a 04       		.uleb128 0x4
 1627 034b 75040000 		.4byte	.LASF48
 1628 034f 08       		.byte	0x8
 1629 0350 53       		.byte	0x53
 1630 0351 1D       		.byte	0x1d
 1631 0352 56030000 		.4byte	0x356
 1632 0356 06       		.uleb128 0x6
 1633 0357 75040000 		.4byte	.LASF48
 1634 035b 14       		.byte	0x14
 1635 035c 08       		.byte	0x8
 1636 035d 5A       		.byte	0x5a
 1637 035e 08       		.byte	0x8
 1638 035f A5030000 		.4byte	0x3a5
 1639 0363 07       		.uleb128 0x7
 1640 0364 73020000 		.4byte	.LASF49
 1641 0368 08       		.byte	0x8
 1642 0369 5B       		.byte	0x5b
 1643 036a 1A       		.byte	0x1a
 1644 036b A5030000 		.4byte	0x3a5
 1645 036f 00       		.byte	0
 1646 0370 07       		.uleb128 0x7
 1647 0371 37020000 		.4byte	.LASF50
 1648 0375 08       		.byte	0x8
 1649 0376 5D       		.byte	0x5d
 1650 0377 1A       		.byte	0x1a
 1651 0378 A5030000 		.4byte	0x3a5
 1652 037c 04       		.byte	0x4
 1653 037d 07       		.uleb128 0x7
ARM GAS  /tmp/ccpKsTsb.s 			page 30


 1654 037e 28030000 		.4byte	.LASF51
 1655 0382 08       		.byte	0x8
 1656 0383 5F       		.byte	0x5f
 1657 0384 19       		.byte	0x19
 1658 0385 EF000000 		.4byte	0xef
 1659 0389 08       		.byte	0x8
 1660 038a 07       		.uleb128 0x7
 1661 038b 30030000 		.4byte	.LASF52
 1662 038f 08       		.byte	0x8
 1663 0390 60       		.byte	0x60
 1664 0391 19       		.byte	0x19
 1665 0392 2D030000 		.4byte	0x32d
 1666 0396 0C       		.byte	0xc
 1667 0397 07       		.uleb128 0x7
 1668 0398 63050000 		.4byte	.LASF53
 1669 039c 08       		.byte	0x8
 1670 039d 62       		.byte	0x62
 1671 039e 1A       		.byte	0x1a
 1672 039f 8E020000 		.4byte	0x28e
 1673 03a3 10       		.byte	0x10
 1674 03a4 00       		.byte	0
 1675 03a5 0A       		.uleb128 0xa
 1676 03a6 04       		.byte	0x4
 1677 03a7 4A030000 		.4byte	0x34a
 1678 03ab 09       		.uleb128 0x9
 1679 03ac 10       		.byte	0x10
 1680 03ad 08       		.byte	0x8
 1681 03ae 6C       		.byte	0x6c
 1682 03af 09       		.byte	0x9
 1683 03b0 E9030000 		.4byte	0x3e9
 1684 03b4 07       		.uleb128 0x7
 1685 03b5 73020000 		.4byte	.LASF49
 1686 03b9 08       		.byte	0x8
 1687 03ba 6D       		.byte	0x6d
 1688 03bb 1A       		.byte	0x1a
 1689 03bc A5030000 		.4byte	0x3a5
 1690 03c0 00       		.byte	0
 1691 03c1 07       		.uleb128 0x7
 1692 03c2 37020000 		.4byte	.LASF50
 1693 03c6 08       		.byte	0x8
 1694 03c7 6F       		.byte	0x6f
 1695 03c8 1A       		.byte	0x1a
 1696 03c9 A5030000 		.4byte	0x3a5
 1697 03cd 04       		.byte	0x4
 1698 03ce 07       		.uleb128 0x7
 1699 03cf 28030000 		.4byte	.LASF51
 1700 03d3 08       		.byte	0x8
 1701 03d4 71       		.byte	0x71
 1702 03d5 19       		.byte	0x19
 1703 03d6 EF000000 		.4byte	0xef
 1704 03da 08       		.byte	0x8
 1705 03db 07       		.uleb128 0x7
 1706 03dc B8050000 		.4byte	.LASF54
 1707 03e0 08       		.byte	0x8
 1708 03e1 72       		.byte	0x72
 1709 03e2 19       		.byte	0x19
 1710 03e3 FB000000 		.4byte	0xfb
ARM GAS  /tmp/ccpKsTsb.s 			page 31


 1711 03e7 0C       		.byte	0xc
 1712 03e8 00       		.byte	0
 1713 03e9 04       		.uleb128 0x4
 1714 03ea E3050000 		.4byte	.LASF55
 1715 03ee 08       		.byte	0x8
 1716 03ef 73       		.byte	0x73
 1717 03f0 03       		.byte	0x3
 1718 03f1 AB030000 		.4byte	0x3ab
 1719 03f5 0E       		.uleb128 0xe
 1720 03f6 08010000 		.4byte	.LASF63
 1721 03fa 08       		.byte	0x8
 1722 03fb D1       		.byte	0xd1
 1723 03fc 0F       		.byte	0xf
 1724 03fd E9030000 		.4byte	0x3e9
 1725 0401 09       		.uleb128 0x9
 1726 0402 1C       		.byte	0x1c
 1727 0403 09       		.byte	0x9
 1728 0404 57       		.byte	0x57
 1729 0405 09       		.byte	0x9
 1730 0406 59040000 		.4byte	0x459
 1731 040a 07       		.uleb128 0x7
 1732 040b 6D040000 		.4byte	.LASF56
 1733 040f 09       		.byte	0x9
 1734 0410 58       		.byte	0x58
 1735 0411 19       		.byte	0x19
 1736 0412 47020000 		.4byte	0x247
 1737 0416 00       		.byte	0
 1738 0417 07       		.uleb128 0x7
 1739 0418 F4030000 		.4byte	.LASF57
 1740 041c 09       		.byte	0x9
 1741 041d 59       		.byte	0x59
 1742 041e 19       		.byte	0x19
 1743 041f CB000000 		.4byte	0xcb
 1744 0423 08       		.byte	0x8
 1745 0424 07       		.uleb128 0x7
 1746 0425 58030000 		.4byte	.LASF58
 1747 0429 09       		.byte	0x9
 1748 042a 5B       		.byte	0x5b
 1749 042b 19       		.byte	0x19
 1750 042c 0C030000 		.4byte	0x30c
 1751 0430 0C       		.byte	0xc
 1752 0431 07       		.uleb128 0x7
 1753 0432 26020000 		.4byte	.LASF59
 1754 0436 09       		.byte	0x9
 1755 0437 5E       		.byte	0x5e
 1756 0438 1A       		.byte	0x1a
 1757 0439 41020000 		.4byte	0x241
 1758 043d 10       		.byte	0x10
 1759 043e 07       		.uleb128 0x7
 1760 043f 82030000 		.4byte	.LASF60
 1761 0443 09       		.byte	0x9
 1762 0444 5F       		.byte	0x5f
 1763 0445 1A       		.byte	0x1a
 1764 0446 41020000 		.4byte	0x241
 1765 044a 14       		.byte	0x14
 1766 044b 07       		.uleb128 0x7
 1767 044c 78030000 		.4byte	.LASF61
ARM GAS  /tmp/ccpKsTsb.s 			page 32


 1768 0450 09       		.byte	0x9
 1769 0451 62       		.byte	0x62
 1770 0452 1A       		.byte	0x1a
 1771 0453 41020000 		.4byte	0x241
 1772 0457 18       		.byte	0x18
 1773 0458 00       		.byte	0
 1774 0459 04       		.uleb128 0x4
 1775 045a 86050000 		.4byte	.LASF62
 1776 045e 09       		.byte	0x9
 1777 045f 64       		.byte	0x64
 1778 0460 03       		.byte	0x3
 1779 0461 01040000 		.4byte	0x401
 1780 0465 0E       		.uleb128 0xe
 1781 0466 9C050000 		.4byte	.LASF64
 1782 046a 09       		.byte	0x9
 1783 046b 68       		.byte	0x68
 1784 046c 12       		.byte	0x12
 1785 046d 59040000 		.4byte	0x459
 1786 0471 06       		.uleb128 0x6
 1787 0472 6A050000 		.4byte	.LASF65
 1788 0476 0C       		.byte	0xc
 1789 0477 0A       		.byte	0xa
 1790 0478 25       		.byte	0x25
 1791 0479 10       		.byte	0x10
 1792 047a 99040000 		.4byte	0x499
 1793 047e 07       		.uleb128 0x7
 1794 047f 0D020000 		.4byte	.LASF66
 1795 0483 0A       		.byte	0xa
 1796 0484 26       		.byte	0x26
 1797 0485 19       		.byte	0x19
 1798 0486 47020000 		.4byte	0x247
 1799 048a 00       		.byte	0
 1800 048b 07       		.uleb128 0x7
 1801 048c A4020000 		.4byte	.LASF67
 1802 0490 0A       		.byte	0xa
 1803 0491 28       		.byte	0x28
 1804 0492 19       		.byte	0x19
 1805 0493 00010000 		.4byte	0x100
 1806 0497 08       		.byte	0x8
 1807 0498 00       		.byte	0
 1808 0499 04       		.uleb128 0x4
 1809 049a 6A050000 		.4byte	.LASF65
 1810 049e 0A       		.byte	0xa
 1811 049f 29       		.byte	0x29
 1812 04a0 03       		.byte	0x3
 1813 04a1 71040000 		.4byte	0x471
 1814 04a5 06       		.uleb128 0x6
 1815 04a6 03030000 		.4byte	.LASF68
 1816 04aa 10       		.byte	0x10
 1817 04ab 0B       		.byte	0xb
 1818 04ac 25       		.byte	0x25
 1819 04ad 10       		.byte	0x10
 1820 04ae DA040000 		.4byte	0x4da
 1821 04b2 07       		.uleb128 0x7
 1822 04b3 99010000 		.4byte	.LASF69
 1823 04b7 0B       		.byte	0xb
 1824 04b8 26       		.byte	0x26
ARM GAS  /tmp/ccpKsTsb.s 			page 33


 1825 04b9 19       		.byte	0x19
 1826 04ba 47020000 		.4byte	0x247
 1827 04be 00       		.byte	0
 1828 04bf 07       		.uleb128 0x7
 1829 04c0 EA050000 		.4byte	.LASF70
 1830 04c4 0B       		.byte	0xb
 1831 04c5 28       		.byte	0x28
 1832 04c6 1A       		.byte	0x1a
 1833 04c7 41020000 		.4byte	0x241
 1834 04cb 08       		.byte	0x8
 1835 04cc 07       		.uleb128 0x7
 1836 04cd 0F050000 		.4byte	.LASF71
 1837 04d1 0B       		.byte	0xb
 1838 04d2 2A       		.byte	0x2a
 1839 04d3 1A       		.byte	0x1a
 1840 04d4 DA040000 		.4byte	0x4da
 1841 04d8 0C       		.byte	0xc
 1842 04d9 00       		.byte	0
 1843 04da 0A       		.uleb128 0xa
 1844 04db 04       		.byte	0x4
 1845 04dc A5040000 		.4byte	0x4a5
 1846 04e0 04       		.uleb128 0x4
 1847 04e1 03030000 		.4byte	.LASF68
 1848 04e5 0B       		.byte	0xb
 1849 04e6 2C       		.byte	0x2c
 1850 04e7 03       		.byte	0x3
 1851 04e8 A5040000 		.4byte	0x4a5
 1852 04ec 0F       		.uleb128 0xf
 1853 04ed 04       		.byte	0x4
 1854 04ee 06       		.byte	0x6
 1855 04ef 8F       		.byte	0x8f
 1856 04f0 03       		.byte	0x3
 1857 04f1 26050000 		.4byte	0x526
 1858 04f5 10       		.uleb128 0x10
 1859 04f6 01010000 		.4byte	.LASF72
 1860 04fa 06       		.byte	0x6
 1861 04fb 96       		.byte	0x96
 1862 04fc 19       		.byte	0x19
 1863 04fd D7000000 		.4byte	0xd7
 1864 0501 10       		.uleb128 0x10
 1865 0502 34010000 		.4byte	.LASF73
 1866 0506 06       		.byte	0x6
 1867 0507 9D       		.byte	0x9d
 1868 0508 19       		.byte	0x19
 1869 0509 D7000000 		.4byte	0xd7
 1870 050d 10       		.uleb128 0x10
 1871 050e AA050000 		.4byte	.LASF74
 1872 0512 06       		.byte	0x6
 1873 0513 A4       		.byte	0xa4
 1874 0514 1A       		.byte	0x1a
 1875 0515 8E020000 		.4byte	0x28e
 1876 0519 10       		.uleb128 0x10
 1877 051a FB030000 		.4byte	.LASF75
 1878 051e 06       		.byte	0x6
 1879 051f AB       		.byte	0xab
 1880 0520 19       		.byte	0x19
 1881 0521 E3000000 		.4byte	0xe3
ARM GAS  /tmp/ccpKsTsb.s 			page 34


 1882 0525 00       		.byte	0
 1883 0526 0A       		.uleb128 0xa
 1884 0527 04       		.byte	0x4
 1885 0528 33050000 		.4byte	0x533
 1886 052c 03       		.uleb128 0x3
 1887 052d 01       		.byte	0x1
 1888 052e 08       		.byte	0x8
 1889 052f E0040000 		.4byte	.LASF76
 1890 0533 11       		.uleb128 0x11
 1891 0534 2C050000 		.4byte	0x52c
 1892 0538 0A       		.uleb128 0xa
 1893 0539 04       		.byte	0x4
 1894 053a E0040000 		.4byte	0x4e0
 1895 053e 09       		.uleb128 0x9
 1896 053f 16       		.byte	0x16
 1897 0540 0C       		.byte	0xc
 1898 0541 25       		.byte	0x25
 1899 0542 09       		.byte	0x9
 1900 0543 32060000 		.4byte	0x632
 1901 0547 07       		.uleb128 0x7
 1902 0548 96020000 		.4byte	.LASF77
 1903 054c 0C       		.byte	0xc
 1904 054d 26       		.byte	0x26
 1905 054e 0D       		.byte	0xd
 1906 054f 32060000 		.4byte	0x632
 1907 0553 00       		.byte	0
 1908 0554 07       		.uleb128 0x7
 1909 0555 14030000 		.4byte	.LASF78
 1910 0559 0C       		.byte	0xc
 1911 055a 27       		.byte	0x27
 1912 055b 0D       		.byte	0xd
 1913 055c 5B000000 		.4byte	0x5b
 1914 0560 04       		.byte	0x4
 1915 0561 07       		.uleb128 0x7
 1916 0562 6B030000 		.4byte	.LASF79
 1917 0566 0C       		.byte	0xc
 1918 0567 28       		.byte	0x28
 1919 0568 0D       		.byte	0xd
 1920 0569 5B000000 		.4byte	0x5b
 1921 056d 05       		.byte	0x5
 1922 056e 07       		.uleb128 0x7
 1923 056f D8050000 		.4byte	.LASF80
 1924 0573 0C       		.byte	0xc
 1925 0574 29       		.byte	0x29
 1926 0575 0D       		.byte	0xd
 1927 0576 6E000000 		.4byte	0x6e
 1928 057a 06       		.byte	0x6
 1929 057b 07       		.uleb128 0x7
 1930 057c 92030000 		.4byte	.LASF81
 1931 0580 0C       		.byte	0xc
 1932 0581 2A       		.byte	0x2a
 1933 0582 0D       		.byte	0xd
 1934 0583 5B000000 		.4byte	0x5b
 1935 0587 08       		.byte	0x8
 1936 0588 07       		.uleb128 0x7
 1937 0589 38030000 		.4byte	.LASF82
 1938 058d 0C       		.byte	0xc
ARM GAS  /tmp/ccpKsTsb.s 			page 35


 1939 058e 2B       		.byte	0x2b
 1940 058f 0D       		.byte	0xd
 1941 0590 5B000000 		.4byte	0x5b
 1942 0594 09       		.byte	0x9
 1943 0595 07       		.uleb128 0x7
 1944 0596 26010000 		.4byte	.LASF83
 1945 059a 0C       		.byte	0xc
 1946 059b 2C       		.byte	0x2c
 1947 059c 0D       		.byte	0xd
 1948 059d 5B000000 		.4byte	0x5b
 1949 05a1 0A       		.byte	0xa
 1950 05a2 07       		.uleb128 0x7
 1951 05a3 61040000 		.4byte	.LASF84
 1952 05a7 0C       		.byte	0xc
 1953 05a8 2D       		.byte	0x2d
 1954 05a9 0D       		.byte	0xd
 1955 05aa 5B000000 		.4byte	0x5b
 1956 05ae 0B       		.byte	0xb
 1957 05af 07       		.uleb128 0x7
 1958 05b0 74050000 		.4byte	.LASF85
 1959 05b4 0C       		.byte	0xc
 1960 05b5 2E       		.byte	0x2e
 1961 05b6 0D       		.byte	0xd
 1962 05b7 5B000000 		.4byte	0x5b
 1963 05bb 0C       		.byte	0xc
 1964 05bc 07       		.uleb128 0x7
 1965 05bd 32040000 		.4byte	.LASF86
 1966 05c1 0C       		.byte	0xc
 1967 05c2 2F       		.byte	0x2f
 1968 05c3 0D       		.byte	0xd
 1969 05c4 5B000000 		.4byte	0x5b
 1970 05c8 0D       		.byte	0xd
 1971 05c9 07       		.uleb128 0x7
 1972 05ca 00000000 		.4byte	.LASF87
 1973 05ce 0C       		.byte	0xc
 1974 05cf 30       		.byte	0x30
 1975 05d0 0D       		.byte	0xd
 1976 05d1 5B000000 		.4byte	0x5b
 1977 05d5 0E       		.byte	0xe
 1978 05d6 07       		.uleb128 0x7
 1979 05d7 44030000 		.4byte	.LASF88
 1980 05db 0C       		.byte	0xc
 1981 05dc 31       		.byte	0x31
 1982 05dd 0D       		.byte	0xd
 1983 05de 5B000000 		.4byte	0x5b
 1984 05e2 0F       		.byte	0xf
 1985 05e3 07       		.uleb128 0x7
 1986 05e4 7C010000 		.4byte	.LASF89
 1987 05e8 0C       		.byte	0xc
 1988 05e9 32       		.byte	0x32
 1989 05ea 0D       		.byte	0xd
 1990 05eb 5B000000 		.4byte	0x5b
 1991 05ef 10       		.byte	0x10
 1992 05f0 07       		.uleb128 0x7
 1993 05f1 55010000 		.4byte	.LASF90
 1994 05f5 0C       		.byte	0xc
 1995 05f6 34       		.byte	0x34
ARM GAS  /tmp/ccpKsTsb.s 			page 36


 1996 05f7 0D       		.byte	0xd
 1997 05f8 5B000000 		.4byte	0x5b
 1998 05fc 11       		.byte	0x11
 1999 05fd 07       		.uleb128 0x7
 2000 05fe 8C010000 		.4byte	.LASF91
 2001 0602 0C       		.byte	0xc
 2002 0603 35       		.byte	0x35
 2003 0604 0D       		.byte	0xd
 2004 0605 5B000000 		.4byte	0x5b
 2005 0609 12       		.byte	0x12
 2006 060a 07       		.uleb128 0x7
 2007 060b 1C030000 		.4byte	.LASF92
 2008 060f 0C       		.byte	0xc
 2009 0610 36       		.byte	0x36
 2010 0611 0D       		.byte	0xd
 2011 0612 5B000000 		.4byte	0x5b
 2012 0616 13       		.byte	0x13
 2013 0617 07       		.uleb128 0x7
 2014 0618 09040000 		.4byte	.LASF93
 2015 061c 0C       		.byte	0xc
 2016 061d 37       		.byte	0x37
 2017 061e 0D       		.byte	0xd
 2018 061f 5B000000 		.4byte	0x5b
 2019 0623 14       		.byte	0x14
 2020 0624 07       		.uleb128 0x7
 2021 0625 E8030000 		.4byte	.LASF94
 2022 0629 0C       		.byte	0xc
 2023 062a 39       		.byte	0x39
 2024 062b 0D       		.byte	0xd
 2025 062c 5B000000 		.4byte	0x5b
 2026 0630 15       		.byte	0x15
 2027 0631 00       		.byte	0
 2028 0632 12       		.uleb128 0x12
 2029 0633 2C050000 		.4byte	0x52c
 2030 0637 42060000 		.4byte	0x642
 2031 063b 13       		.uleb128 0x13
 2032 063c 2C000000 		.4byte	0x2c
 2033 0640 03       		.byte	0x3
 2034 0641 00       		.byte	0
 2035 0642 04       		.uleb128 0x4
 2036 0643 D2010000 		.4byte	.LASF95
 2037 0647 0C       		.byte	0xc
 2038 0648 3A       		.byte	0x3a
 2039 0649 03       		.byte	0x3
 2040 064a 3E050000 		.4byte	0x53e
 2041 064e 11       		.uleb128 0x11
 2042 064f 42060000 		.4byte	0x642
 2043 0653 0E       		.uleb128 0xe
 2044 0654 8D020000 		.4byte	.LASF96
 2045 0658 0C       		.byte	0xc
 2046 0659 77       		.byte	0x77
 2047 065a 1D       		.byte	0x1d
 2048 065b 4E060000 		.4byte	0x64e
 2049 065f 12       		.uleb128 0x12
 2050 0660 76020000 		.4byte	0x276
 2051 0664 6F060000 		.4byte	0x66f
 2052 0668 13       		.uleb128 0x13
ARM GAS  /tmp/ccpKsTsb.s 			page 37


 2053 0669 2C000000 		.4byte	0x2c
 2054 066d 26       		.byte	0x26
 2055 066e 00       		.byte	0
 2056 066f 0E       		.uleb128 0xe
 2057 0670 FD010000 		.4byte	.LASF97
 2058 0674 0D       		.byte	0xd
 2059 0675 82       		.byte	0x82
 2060 0676 08       		.byte	0x8
 2061 0677 5F060000 		.4byte	0x65f
 2062 067b 14       		.uleb128 0x14
 2063 067c 3F020000 		.4byte	.LASF102
 2064 0680 01       		.byte	0x1
 2065 0681 6701     		.2byte	0x167
 2066 0683 07       		.byte	0x7
 2067 0684 D7000000 		.4byte	0xd7
 2068 0688 00000000 		.4byte	.LFB17
 2069 068c A0000000 		.4byte	.LFE17-.LFB17
 2070 0690 01       		.uleb128 0x1
 2071 0691 9C       		.byte	0x9c
 2072 0692 80070000 		.4byte	0x780
 2073 0696 15       		.uleb128 0x15
 2074 0697 73707300 		.ascii	"sps\000"
 2075 069b 01       		.byte	0x1
 2076 069c 6701     		.2byte	0x167
 2077 069e 22       		.byte	0x22
 2078 069f 80070000 		.4byte	0x780
 2079 06a3 0A000000 		.4byte	.LLST41
 2080 06a7 00000000 		.4byte	.LVUS41
 2081 06ab 15       		.uleb128 0x15
 2082 06ac 73707700 		.ascii	"spw\000"
 2083 06b0 01       		.byte	0x1
 2084 06b1 6701     		.2byte	0x167
 2085 06b3 32       		.byte	0x32
 2086 06b4 80070000 		.4byte	0x780
 2087 06b8 57000000 		.4byte	.LLST42
 2088 06bc 4F000000 		.4byte	.LVUS42
 2089 06c0 16       		.uleb128 0x16
 2090 06c1 6D736700 		.ascii	"msg\000"
 2091 06c5 01       		.byte	0x1
 2092 06c6 6801     		.2byte	0x168
 2093 06c8 09       		.byte	0x9
 2094 06c9 D7000000 		.4byte	0xd7
 2095 06cd 91000000 		.4byte	.LLST43
 2096 06d1 8B000000 		.4byte	.LVUS43
 2097 06d5 17       		.uleb128 0x17
 2098 06d6 44000000 		.4byte	.LBB111
 2099 06da 2C000000 		.4byte	.LBE111-.LBB111
 2100 06de 38070000 		.4byte	0x738
 2101 06e2 16       		.uleb128 0x16
 2102 06e3 63747000 		.ascii	"ctp\000"
 2103 06e7 01       		.byte	0x1
 2104 06e8 7801     		.2byte	0x178
 2105 06ea 0D       		.byte	0xd
 2106 06eb 41020000 		.4byte	0x241
 2107 06ef BD000000 		.4byte	.LLST44
 2108 06f3 BB000000 		.4byte	.LVUS44
 2109 06f7 18       		.uleb128 0x18
ARM GAS  /tmp/ccpKsTsb.s 			page 38


 2110 06f8 690C0000 		.4byte	0xc69
 2111 06fc 50000000 		.4byte	.LBI112
 2112 0700 01       		.byte	.LVU356
 2113 0701 48010000 		.4byte	.Ldebug_ranges0+0x148
 2114 0705 01       		.byte	0x1
 2115 0706 7901     		.2byte	0x179
 2116 0708 05       		.byte	0x5
 2117 0709 28070000 		.4byte	0x728
 2118 070d 19       		.uleb128 0x19
 2119 070e 810C0000 		.4byte	0xc81
 2120 0712 D2000000 		.4byte	.LLST45
 2121 0716 D0000000 		.4byte	.LVUS45
 2122 071a 19       		.uleb128 0x19
 2123 071b 760C0000 		.4byte	0xc76
 2124 071f E7000000 		.4byte	.LLST46
 2125 0723 E5000000 		.4byte	.LVUS46
 2126 0727 00       		.byte	0
 2127 0728 1A       		.uleb128 0x1a
 2128 0729 6C000000 		.4byte	.LVL74
 2129 072d AA0D0000 		.4byte	0xdaa
 2130 0731 1B       		.uleb128 0x1b
 2131 0732 01       		.uleb128 0x1
 2132 0733 50       		.byte	0x50
 2133 0734 01       		.uleb128 0x1
 2134 0735 33       		.byte	0x33
 2135 0736 00       		.byte	0
 2136 0737 00       		.byte	0
 2137 0738 1C       		.uleb128 0x1c
 2138 0739 400C0000 		.4byte	0xc40
 2139 073d 7C000000 		.4byte	.LBI118
 2140 0741 01       		.byte	.LVU379
 2141 0742 7C000000 		.4byte	.LBB118
 2142 0746 10000000 		.4byte	.LBE118-.LBB118
 2143 074a 01       		.byte	0x1
 2144 074b 7601     		.2byte	0x176
 2145 074d 05       		.byte	0x5
 2146 074e 6D070000 		.4byte	0x76d
 2147 0752 19       		.uleb128 0x19
 2148 0753 510C0000 		.4byte	0xc51
 2149 0757 FC000000 		.4byte	.LLST47
 2150 075b FA000000 		.4byte	.LVUS47
 2151 075f 1D       		.uleb128 0x1d
 2152 0760 5D0C0000 		.4byte	0xc5d
 2153 0764 11010000 		.4byte	.LLST48
 2154 0768 0F010000 		.4byte	.LVUS48
 2155 076c 00       		.byte	0
 2156 076d 1E       		.uleb128 0x1e
 2157 076e 38000000 		.4byte	.LVL69
 2158 0772 B60D0000 		.4byte	0xdb6
 2159 0776 1E       		.uleb128 0x1e
 2160 0777 90000000 		.4byte	.LVL80
 2161 077b C20D0000 		.4byte	0xdc2
 2162 077f 00       		.byte	0
 2163 0780 0A       		.uleb128 0xa
 2164 0781 04       		.byte	0x4
 2165 0782 99040000 		.4byte	0x499
 2166 0786 1F       		.uleb128 0x1f
ARM GAS  /tmp/ccpKsTsb.s 			page 39


 2167 0787 3D010000 		.4byte	.LASF98
 2168 078b 01       		.byte	0x1
 2169 078c 4701     		.2byte	0x147
 2170 078e 06       		.byte	0x6
 2171 078f 00000000 		.4byte	.LFB16
 2172 0793 58000000 		.4byte	.LFE16-.LFB16
 2173 0797 01       		.uleb128 0x1
 2174 0798 9C       		.byte	0x9c
 2175 0799 03080000 		.4byte	0x803
 2176 079d 15       		.uleb128 0x15
 2177 079e 737000   		.ascii	"sp\000"
 2178 07a1 01       		.byte	0x1
 2179 07a2 4701     		.2byte	0x147
 2180 07a4 22       		.byte	0x22
 2181 07a5 80070000 		.4byte	0x780
 2182 07a9 28010000 		.4byte	.LLST37
 2183 07ad 24010000 		.4byte	.LVUS37
 2184 07b1 15       		.uleb128 0x15
 2185 07b2 6E00     		.ascii	"n\000"
 2186 07b4 01       		.byte	0x1
 2187 07b5 4701     		.2byte	0x147
 2188 07b7 2C       		.byte	0x2c
 2189 07b8 00010000 		.4byte	0x100
 2190 07bc 50010000 		.4byte	.LLST38
 2191 07c0 46010000 		.4byte	.LVUS38
 2192 07c4 1C       		.uleb128 0x1c
 2193 07c5 400C0000 		.4byte	0xc40
 2194 07c9 34000000 		.4byte	.LBI109
 2195 07cd 01       		.byte	.LVU309
 2196 07ce 34000000 		.4byte	.LBB109
 2197 07d2 10000000 		.4byte	.LBE109-.LBB109
 2198 07d6 01       		.byte	0x1
 2199 07d7 5201     		.2byte	0x152
 2200 07d9 07       		.byte	0x7
 2201 07da F9070000 		.4byte	0x7f9
 2202 07de 19       		.uleb128 0x19
 2203 07df 510C0000 		.4byte	0xc51
 2204 07e3 95010000 		.4byte	.LLST39
 2205 07e7 93010000 		.4byte	.LVUS39
 2206 07eb 1D       		.uleb128 0x1d
 2207 07ec 5D0C0000 		.4byte	0xc5d
 2208 07f0 AA010000 		.4byte	.LLST40
 2209 07f4 A8010000 		.4byte	.LVUS40
 2210 07f8 00       		.byte	0
 2211 07f9 1E       		.uleb128 0x1e
 2212 07fa 48000000 		.4byte	.LVL64
 2213 07fe C20D0000 		.4byte	0xdc2
 2214 0802 00       		.byte	0
 2215 0803 1F       		.uleb128 0x1f
 2216 0804 20000000 		.4byte	.LASF99
 2217 0808 01       		.byte	0x1
 2218 0809 2801     		.2byte	0x128
 2219 080b 06       		.byte	0x6
 2220 080c 00000000 		.4byte	.LFB15
 2221 0810 34000000 		.4byte	.LFE15-.LFB15
 2222 0814 01       		.uleb128 0x1
 2223 0815 9C       		.byte	0x9c
ARM GAS  /tmp/ccpKsTsb.s 			page 40


 2224 0816 8D080000 		.4byte	0x88d
 2225 081a 15       		.uleb128 0x15
 2226 081b 737000   		.ascii	"sp\000"
 2227 081e 01       		.byte	0x1
 2228 081f 2801     		.2byte	0x128
 2229 0821 1E       		.byte	0x1e
 2230 0822 80070000 		.4byte	0x780
 2231 0826 C3010000 		.4byte	.LLST33
 2232 082a BD010000 		.4byte	.LVUS33
 2233 082e 20       		.uleb128 0x20
 2234 082f 18000000 		.4byte	.LBB104
 2235 0833 1C000000 		.4byte	.LBE104-.LBB104
 2236 0837 16       		.uleb128 0x16
 2237 0838 747000   		.ascii	"tp\000"
 2238 083b 01       		.byte	0x1
 2239 083c 3401     		.2byte	0x134
 2240 083e 0D       		.byte	0xd
 2241 083f 41020000 		.4byte	0x241
 2242 0843 F1010000 		.4byte	.LLST34
 2243 0847 EF010000 		.4byte	.LVUS34
 2244 084b 18       		.uleb128 0x18
 2245 084c 400C0000 		.4byte	0xc40
 2246 0850 18000000 		.4byte	.LBI105
 2247 0854 01       		.byte	.LVU278
 2248 0855 30010000 		.4byte	.Ldebug_ranges0+0x130
 2249 0859 01       		.byte	0x1
 2250 085a 3401     		.2byte	0x134
 2251 085c 12       		.byte	0x12
 2252 085d 82080000 		.4byte	0x882
 2253 0861 19       		.uleb128 0x19
 2254 0862 510C0000 		.4byte	0xc51
 2255 0866 08020000 		.4byte	.LLST35
 2256 086a 04020000 		.4byte	.LVUS35
 2257 086e 21       		.uleb128 0x21
 2258 086f 30010000 		.4byte	.Ldebug_ranges0+0x130
 2259 0873 1D       		.uleb128 0x1d
 2260 0874 5D0C0000 		.4byte	0xc5d
 2261 0878 28020000 		.4byte	.LLST36
 2262 087c 26020000 		.4byte	.LVUS36
 2263 0880 00       		.byte	0
 2264 0881 00       		.byte	0
 2265 0882 22       		.uleb128 0x22
 2266 0883 34000000 		.4byte	.LVL56
 2267 0887 C20D0000 		.4byte	0xdc2
 2268 088b 00       		.byte	0
 2269 088c 00       		.byte	0
 2270 088d 1F       		.uleb128 0x1f
 2271 088e BD010000 		.4byte	.LASF100
 2272 0892 01       		.byte	0x1
 2273 0893 0F01     		.2byte	0x10f
 2274 0895 06       		.byte	0x6
 2275 0896 00000000 		.4byte	.LFB14
 2276 089a 48000000 		.4byte	.LFE14-.LFB14
 2277 089e 01       		.uleb128 0x1
 2278 089f 9C       		.byte	0x9c
 2279 08a0 FF080000 		.4byte	0x8ff
 2280 08a4 15       		.uleb128 0x15
ARM GAS  /tmp/ccpKsTsb.s 			page 41


 2281 08a5 737000   		.ascii	"sp\000"
 2282 08a8 01       		.byte	0x1
 2283 08a9 0F01     		.2byte	0x10f
 2284 08ab 1D       		.byte	0x1d
 2285 08ac 80070000 		.4byte	0x780
 2286 08b0 41020000 		.4byte	.LLST30
 2287 08b4 3B020000 		.4byte	.LVUS30
 2288 08b8 18       		.uleb128 0x18
 2289 08b9 400C0000 		.4byte	0xc40
 2290 08bd 24000000 		.4byte	.LBI98
 2291 08c1 01       		.byte	.LVU249
 2292 08c2 10010000 		.4byte	.Ldebug_ranges0+0x110
 2293 08c6 01       		.byte	0x1
 2294 08c7 1901     		.2byte	0x119
 2295 08c9 05       		.byte	0x5
 2296 08ca EF080000 		.4byte	0x8ef
 2297 08ce 19       		.uleb128 0x19
 2298 08cf 510C0000 		.4byte	0xc51
 2299 08d3 6F020000 		.4byte	.LLST31
 2300 08d7 6D020000 		.4byte	.LVUS31
 2301 08db 21       		.uleb128 0x21
 2302 08dc 10010000 		.4byte	.Ldebug_ranges0+0x110
 2303 08e0 1D       		.uleb128 0x1d
 2304 08e1 5D0C0000 		.4byte	0xc5d
 2305 08e5 84020000 		.4byte	.LLST32
 2306 08e9 82020000 		.4byte	.LVUS32
 2307 08ed 00       		.byte	0
 2308 08ee 00       		.byte	0
 2309 08ef 1A       		.uleb128 0x1a
 2310 08f0 40000000 		.4byte	.LVL51
 2311 08f4 CE0D0000 		.4byte	0xdce
 2312 08f8 1B       		.uleb128 0x1b
 2313 08f9 01       		.uleb128 0x1
 2314 08fa 51       		.byte	0x51
 2315 08fb 01       		.uleb128 0x1
 2316 08fc 30       		.byte	0x30
 2317 08fd 00       		.byte	0
 2318 08fe 00       		.byte	0
 2319 08ff 23       		.uleb128 0x23
 2320 0900 F1040000 		.4byte	.LASF104
 2321 0904 01       		.byte	0x1
 2322 0905 F3       		.byte	0xf3
 2323 0906 07       		.byte	0x7
 2324 0907 D7000000 		.4byte	0xd7
 2325 090b 01       		.byte	0x1
 2326 090c 28090000 		.4byte	0x928
 2327 0910 24       		.uleb128 0x24
 2328 0911 737000   		.ascii	"sp\000"
 2329 0914 01       		.byte	0x1
 2330 0915 F3       		.byte	0xf3
 2331 0916 24       		.byte	0x24
 2332 0917 80070000 		.4byte	0x780
 2333 091b 25       		.uleb128 0x25
 2334 091c 73030000 		.4byte	.LASF101
 2335 0920 01       		.byte	0x1
 2336 0921 F3       		.byte	0xf3
 2337 0922 32       		.byte	0x32
ARM GAS  /tmp/ccpKsTsb.s 			page 42


 2338 0923 EF000000 		.4byte	0xef
 2339 0927 00       		.byte	0
 2340 0928 26       		.uleb128 0x26
 2341 0929 62020000 		.4byte	.LASF103
 2342 092d 01       		.byte	0x1
 2343 092e D7       		.byte	0xd7
 2344 092f 07       		.byte	0x7
 2345 0930 D7000000 		.4byte	0xd7
 2346 0934 00000000 		.4byte	.LFB12
 2347 0938 6C000000 		.4byte	.LFE12-.LFB12
 2348 093c 01       		.uleb128 0x1
 2349 093d 9C       		.byte	0x9c
 2350 093e 150A0000 		.4byte	0xa15
 2351 0942 27       		.uleb128 0x27
 2352 0943 737000   		.ascii	"sp\000"
 2353 0946 01       		.byte	0x1
 2354 0947 D7       		.byte	0xd7
 2355 0948 23       		.byte	0x23
 2356 0949 80070000 		.4byte	0x780
 2357 094d 9D020000 		.4byte	.LLST17
 2358 0951 97020000 		.4byte	.LVUS17
 2359 0955 28       		.uleb128 0x28
 2360 0956 73030000 		.4byte	.LASF101
 2361 095a 01       		.byte	0x1
 2362 095b D7       		.byte	0xd7
 2363 095c 31       		.byte	0x31
 2364 095d EF000000 		.4byte	0xef
 2365 0961 CD020000 		.4byte	.LLST18
 2366 0965 C9020000 		.4byte	.LVUS18
 2367 0969 29       		.uleb128 0x29
 2368 096a 6D736700 		.ascii	"msg\000"
 2369 096e 01       		.byte	0x1
 2370 096f D8       		.byte	0xd8
 2371 0970 09       		.byte	0x9
 2372 0971 D7000000 		.4byte	0xd7
 2373 0975 F2020000 		.4byte	.LLST19
 2374 0979 EE020000 		.4byte	.LVUS19
 2375 097d 2A       		.uleb128 0x2a
 2376 097e FF080000 		.4byte	0x8ff
 2377 0982 08000000 		.4byte	.LBI70
 2378 0986 03       		.byte	.LVU148
 2379 0987 98000000 		.4byte	.Ldebug_ranges0+0x98
 2380 098b 01       		.byte	0x1
 2381 098c DB       		.byte	0xdb
 2382 098d 09       		.byte	0x9
 2383 098e 19       		.uleb128 0x19
 2384 098f 1B090000 		.4byte	0x91b
 2385 0993 16030000 		.4byte	.LLST20
 2386 0997 10030000 		.4byte	.LVUS20
 2387 099b 19       		.uleb128 0x19
 2388 099c 10090000 		.4byte	0x910
 2389 09a0 4A030000 		.4byte	.LLST21
 2390 09a4 42030000 		.4byte	.LVUS21
 2391 09a8 2A       		.uleb128 0x2a
 2392 09a9 FF080000 		.4byte	0x8ff
 2393 09ad 38000000 		.4byte	.LBI72
 2394 09b1 00       		.byte	.LVU172
ARM GAS  /tmp/ccpKsTsb.s 			page 43


 2395 09b2 B8000000 		.4byte	.Ldebug_ranges0+0xb8
 2396 09b6 01       		.byte	0x1
 2397 09b7 F3       		.byte	0xf3
 2398 09b8 07       		.byte	0x7
 2399 09b9 2B       		.uleb128 0x2b
 2400 09ba 1B090000 		.4byte	0x91b
 2401 09be 19       		.uleb128 0x19
 2402 09bf 10090000 		.4byte	0x910
 2403 09c3 85030000 		.4byte	.LLST22
 2404 09c7 81030000 		.4byte	.LVUS22
 2405 09cb 18       		.uleb128 0x18
 2406 09cc 690C0000 		.4byte	0xc69
 2407 09d0 54000000 		.4byte	.LBI74
 2408 09d4 01       		.byte	.LVU181
 2409 09d5 D0000000 		.4byte	.Ldebug_ranges0+0xd0
 2410 09d9 01       		.byte	0x1
 2411 09da 0201     		.2byte	0x102
 2412 09dc 05       		.byte	0x5
 2413 09dd FC090000 		.4byte	0x9fc
 2414 09e1 19       		.uleb128 0x19
 2415 09e2 810C0000 		.4byte	0xc81
 2416 09e6 A8030000 		.4byte	.LLST23
 2417 09ea A6030000 		.4byte	.LVUS23
 2418 09ee 19       		.uleb128 0x19
 2419 09ef 760C0000 		.4byte	0xc76
 2420 09f3 BD030000 		.4byte	.LLST24
 2421 09f7 BB030000 		.4byte	.LVUS24
 2422 09fb 00       		.byte	0
 2423 09fc 1A       		.uleb128 0x1a
 2424 09fd 60000000 		.4byte	.LVL40
 2425 0a01 DA0D0000 		.4byte	0xdda
 2426 0a05 1B       		.uleb128 0x1b
 2427 0a06 01       		.uleb128 0x1
 2428 0a07 50       		.byte	0x50
 2429 0a08 01       		.uleb128 0x1
 2430 0a09 33       		.byte	0x33
 2431 0a0a 1B       		.uleb128 0x1b
 2432 0a0b 01       		.uleb128 0x1
 2433 0a0c 51       		.byte	0x51
 2434 0a0d 03       		.uleb128 0x3
 2435 0a0e F3       		.byte	0xf3
 2436 0a0f 01       		.uleb128 0x1
 2437 0a10 51       		.byte	0x51
 2438 0a11 00       		.byte	0
 2439 0a12 00       		.byte	0
 2440 0a13 00       		.byte	0
 2441 0a14 00       		.byte	0
 2442 0a15 23       		.uleb128 0x23
 2443 0a16 20040000 		.4byte	.LASF105
 2444 0a1a 01       		.byte	0x1
 2445 0a1b B2       		.byte	0xb2
 2446 0a1c 07       		.byte	0x7
 2447 0a1d D7000000 		.4byte	0xd7
 2448 0a21 01       		.byte	0x1
 2449 0a22 320A0000 		.4byte	0xa32
 2450 0a26 24       		.uleb128 0x24
 2451 0a27 737000   		.ascii	"sp\000"
ARM GAS  /tmp/ccpKsTsb.s 			page 44


 2452 0a2a 01       		.byte	0x1
 2453 0a2b B2       		.byte	0xb2
 2454 0a2c 1D       		.byte	0x1d
 2455 0a2d 80070000 		.4byte	0x780
 2456 0a31 00       		.byte	0
 2457 0a32 26       		.uleb128 0x26
 2458 0a33 34050000 		.4byte	.LASF106
 2459 0a37 01       		.byte	0x1
 2460 0a38 9D       		.byte	0x9d
 2461 0a39 07       		.byte	0x7
 2462 0a3a D7000000 		.4byte	0xd7
 2463 0a3e 00000000 		.4byte	.LFB10
 2464 0a42 68000000 		.4byte	.LFE10-.LFB10
 2465 0a46 01       		.uleb128 0x1
 2466 0a47 9C       		.byte	0x9c
 2467 0a48 F10A0000 		.4byte	0xaf1
 2468 0a4c 27       		.uleb128 0x27
 2469 0a4d 737000   		.ascii	"sp\000"
 2470 0a50 01       		.byte	0x1
 2471 0a51 9D       		.byte	0x9d
 2472 0a52 1C       		.byte	0x1c
 2473 0a53 80070000 		.4byte	0x780
 2474 0a57 DA030000 		.4byte	.LLST7
 2475 0a5b D0030000 		.4byte	.LVUS7
 2476 0a5f 29       		.uleb128 0x29
 2477 0a60 6D736700 		.ascii	"msg\000"
 2478 0a64 01       		.byte	0x1
 2479 0a65 9E       		.byte	0x9e
 2480 0a66 09       		.byte	0x9
 2481 0a67 D7000000 		.4byte	0xd7
 2482 0a6b 23040000 		.4byte	.LLST8
 2483 0a6f 1F040000 		.4byte	.LVUS8
 2484 0a73 2A       		.uleb128 0x2a
 2485 0a74 150A0000 		.4byte	0xa15
 2486 0a78 04000000 		.4byte	.LBI38
 2487 0a7c 03       		.byte	.LVU59
 2488 0a7d 18000000 		.4byte	.Ldebug_ranges0+0x18
 2489 0a81 01       		.byte	0x1
 2490 0a82 A1       		.byte	0xa1
 2491 0a83 09       		.byte	0x9
 2492 0a84 19       		.uleb128 0x19
 2493 0a85 260A0000 		.4byte	0xa26
 2494 0a89 49040000 		.4byte	.LLST9
 2495 0a8d 41040000 		.4byte	.LVUS9
 2496 0a91 2A       		.uleb128 0x2a
 2497 0a92 150A0000 		.4byte	0xa15
 2498 0a96 28000000 		.4byte	.LBI40
 2499 0a9a 00       		.byte	.LVU77
 2500 0a9b 38000000 		.4byte	.Ldebug_ranges0+0x38
 2501 0a9f 01       		.byte	0x1
 2502 0aa0 B2       		.byte	0xb2
 2503 0aa1 07       		.byte	0x7
 2504 0aa2 19       		.uleb128 0x19
 2505 0aa3 260A0000 		.4byte	0xa26
 2506 0aa7 84040000 		.4byte	.LLST10
 2507 0aab 80040000 		.4byte	.LVUS10
 2508 0aaf 2C       		.uleb128 0x2c
ARM GAS  /tmp/ccpKsTsb.s 			page 45


 2509 0ab0 690C0000 		.4byte	0xc69
 2510 0ab4 40000000 		.4byte	.LBI42
 2511 0ab8 01       		.byte	.LVU86
 2512 0ab9 50000000 		.4byte	.Ldebug_ranges0+0x50
 2513 0abd 01       		.byte	0x1
 2514 0abe BD       		.byte	0xbd
 2515 0abf 05       		.byte	0x5
 2516 0ac0 DF0A0000 		.4byte	0xadf
 2517 0ac4 19       		.uleb128 0x19
 2518 0ac5 810C0000 		.4byte	0xc81
 2519 0ac9 A7040000 		.4byte	.LLST11
 2520 0acd A5040000 		.4byte	.LVUS11
 2521 0ad1 19       		.uleb128 0x19
 2522 0ad2 760C0000 		.4byte	0xc76
 2523 0ad6 BC040000 		.4byte	.LLST12
 2524 0ada BA040000 		.4byte	.LVUS12
 2525 0ade 00       		.byte	0
 2526 0adf 1A       		.uleb128 0x1a
 2527 0ae0 54000000 		.4byte	.LVL21
 2528 0ae4 AA0D0000 		.4byte	0xdaa
 2529 0ae8 1B       		.uleb128 0x1b
 2530 0ae9 01       		.uleb128 0x1
 2531 0aea 50       		.byte	0x50
 2532 0aeb 01       		.uleb128 0x1
 2533 0aec 33       		.byte	0x33
 2534 0aed 00       		.byte	0
 2535 0aee 00       		.byte	0
 2536 0aef 00       		.byte	0
 2537 0af0 00       		.byte	0
 2538 0af1 2D       		.uleb128 0x2d
 2539 0af2 90050000 		.4byte	.LASF107
 2540 0af6 01       		.byte	0x1
 2541 0af7 81       		.byte	0x81
 2542 0af8 06       		.byte	0x6
 2543 0af9 00000000 		.4byte	.LFB9
 2544 0afd 48000000 		.4byte	.LFE9-.LFB9
 2545 0b01 01       		.uleb128 0x1
 2546 0b02 9C       		.byte	0x9c
 2547 0b03 800B0000 		.4byte	0xb80
 2548 0b07 27       		.uleb128 0x27
 2549 0b08 737000   		.ascii	"sp\000"
 2550 0b0b 01       		.byte	0x1
 2551 0b0c 81       		.byte	0x81
 2552 0b0d 1D       		.byte	0x1d
 2553 0b0e 80070000 		.4byte	0x780
 2554 0b12 D3040000 		.4byte	.LLST0
 2555 0b16 CF040000 		.4byte	.LVUS0
 2556 0b1a 27       		.uleb128 0x27
 2557 0b1b 6E00     		.ascii	"n\000"
 2558 0b1d 01       		.byte	0x1
 2559 0b1e 81       		.byte	0x81
 2560 0b1f 27       		.byte	0x27
 2561 0b20 00010000 		.4byte	0x100
 2562 0b24 F5040000 		.4byte	.LLST1
 2563 0b28 F1040000 		.4byte	.LVUS1
 2564 0b2c 29       		.uleb128 0x29
 2565 0b2d 636E7400 		.ascii	"cnt\000"
ARM GAS  /tmp/ccpKsTsb.s 			page 46


 2566 0b31 01       		.byte	0x1
 2567 0b32 82       		.byte	0x82
 2568 0b33 09       		.byte	0x9
 2569 0b34 00010000 		.4byte	0x100
 2570 0b38 1C050000 		.4byte	.LLST2
 2571 0b3c 16050000 		.4byte	.LVUS2
 2572 0b40 2C       		.uleb128 0x2c
 2573 0b41 110C0000 		.4byte	0xc11
 2574 0b45 20000000 		.4byte	.LBI28
 2575 0b49 01       		.byte	.LVU26
 2576 0b4a 00000000 		.4byte	.Ldebug_ranges0+0
 2577 0b4e 01       		.byte	0x1
 2578 0b4f 8E       		.byte	0x8e
 2579 0b50 05       		.byte	0x5
 2580 0b51 760B0000 		.4byte	0xb76
 2581 0b55 19       		.uleb128 0x19
 2582 0b56 220C0000 		.4byte	0xc22
 2583 0b5a 49050000 		.4byte	.LLST3
 2584 0b5e 47050000 		.4byte	.LVUS3
 2585 0b62 21       		.uleb128 0x21
 2586 0b63 00000000 		.4byte	.Ldebug_ranges0+0
 2587 0b67 1D       		.uleb128 0x1d
 2588 0b68 2E0C0000 		.4byte	0xc2e
 2589 0b6c 5E050000 		.4byte	.LLST4
 2590 0b70 5C050000 		.4byte	.LVUS4
 2591 0b74 00       		.byte	0
 2592 0b75 00       		.byte	0
 2593 0b76 1E       		.uleb128 0x1e
 2594 0b77 38000000 		.4byte	.LVL8
 2595 0b7b C20D0000 		.4byte	0xdc2
 2596 0b7f 00       		.byte	0
 2597 0b80 2D       		.uleb128 0x2d
 2598 0b81 C5020000 		.4byte	.LASF108
 2599 0b85 01       		.byte	0x1
 2600 0b86 66       		.byte	0x66
 2601 0b87 06       		.byte	0x6
 2602 0b88 00000000 		.4byte	.LFB8
 2603 0b8c 18000000 		.4byte	.LFE8-.LFB8
 2604 0b90 01       		.uleb128 0x1
 2605 0b91 9C       		.byte	0x9c
 2606 0b92 E10B0000 		.4byte	0xbe1
 2607 0b96 27       		.uleb128 0x27
 2608 0b97 737000   		.ascii	"sp\000"
 2609 0b9a 01       		.byte	0x1
 2610 0b9b 66       		.byte	0x66
 2611 0b9c 1C       		.byte	0x1c
 2612 0b9d 80070000 		.4byte	0x780
 2613 0ba1 75050000 		.4byte	.LLST5
 2614 0ba5 71050000 		.4byte	.LVUS5
 2615 0ba9 27       		.uleb128 0x27
 2616 0baa 6E00     		.ascii	"n\000"
 2617 0bac 01       		.byte	0x1
 2618 0bad 66       		.byte	0x66
 2619 0bae 26       		.byte	0x26
 2620 0baf 00010000 		.4byte	0x100
 2621 0bb3 9A050000 		.4byte	.LLST6
 2622 0bb7 96050000 		.4byte	.LVUS6
ARM GAS  /tmp/ccpKsTsb.s 			page 47


 2623 0bbb 2E       		.uleb128 0x2e
 2624 0bbc 0C000000 		.4byte	.LVL11
 2625 0bc0 F10A0000 		.4byte	0xaf1
 2626 0bc4 D70B0000 		.4byte	0xbd7
 2627 0bc8 1B       		.uleb128 0x1b
 2628 0bc9 01       		.uleb128 0x1
 2629 0bca 50       		.byte	0x50
 2630 0bcb 03       		.uleb128 0x3
 2631 0bcc F3       		.byte	0xf3
 2632 0bcd 01       		.uleb128 0x1
 2633 0bce 50       		.byte	0x50
 2634 0bcf 1B       		.uleb128 0x1b
 2635 0bd0 01       		.uleb128 0x1
 2636 0bd1 51       		.byte	0x51
 2637 0bd2 03       		.uleb128 0x3
 2638 0bd3 F3       		.byte	0xf3
 2639 0bd4 01       		.uleb128 0x1
 2640 0bd5 51       		.byte	0x51
 2641 0bd6 00       		.byte	0
 2642 0bd7 1E       		.uleb128 0x1e
 2643 0bd8 10000000 		.4byte	.LVL12
 2644 0bdc B60D0000 		.4byte	0xdb6
 2645 0be0 00       		.byte	0
 2646 0be1 2D       		.uleb128 0x2d
 2647 0be2 02060000 		.4byte	.LASF109
 2648 0be6 01       		.byte	0x1
 2649 0be7 4F       		.byte	0x4f
 2650 0be8 06       		.byte	0x6
 2651 0be9 00000000 		.4byte	.LFB7
 2652 0bed 10000000 		.4byte	.LFE7-.LFB7
 2653 0bf1 01       		.uleb128 0x1
 2654 0bf2 9C       		.byte	0x9c
 2655 0bf3 110C0000 		.4byte	0xc11
 2656 0bf7 2F       		.uleb128 0x2f
 2657 0bf8 737000   		.ascii	"sp\000"
 2658 0bfb 01       		.byte	0x1
 2659 0bfc 4F       		.byte	0x4f
 2660 0bfd 1B       		.byte	0x1b
 2661 0bfe 80070000 		.4byte	0x780
 2662 0c02 01       		.uleb128 0x1
 2663 0c03 50       		.byte	0x50
 2664 0c04 2F       		.uleb128 0x2f
 2665 0c05 6E00     		.ascii	"n\000"
 2666 0c07 01       		.byte	0x1
 2667 0c08 4F       		.byte	0x4f
 2668 0c09 25       		.byte	0x25
 2669 0c0a 00010000 		.4byte	0x100
 2670 0c0e 01       		.uleb128 0x1
 2671 0c0f 51       		.byte	0x51
 2672 0c10 00       		.byte	0
 2673 0c11 30       		.uleb128 0x30
 2674 0c12 45050000 		.4byte	.LASF110
 2675 0c16 02       		.byte	0x2
 2676 0c17 3B       		.byte	0x3b
 2677 0c18 17       		.byte	0x17
 2678 0c19 41020000 		.4byte	0x241
 2679 0c1d 03       		.byte	0x3
ARM GAS  /tmp/ccpKsTsb.s 			page 48


 2680 0c1e 3A0C0000 		.4byte	0xc3a
 2681 0c22 24       		.uleb128 0x24
 2682 0c23 74717000 		.ascii	"tqp\000"
 2683 0c27 02       		.byte	0x2
 2684 0c28 3B       		.byte	0x3b
 2685 0c29 31       		.byte	0x31
 2686 0c2a 3A0C0000 		.4byte	0xc3a
 2687 0c2e 31       		.uleb128 0x31
 2688 0c2f 747000   		.ascii	"tp\000"
 2689 0c32 02       		.byte	0x2
 2690 0c33 3C       		.byte	0x3c
 2691 0c34 0B       		.byte	0xb
 2692 0c35 41020000 		.4byte	0x241
 2693 0c39 00       		.byte	0
 2694 0c3a 0A       		.uleb128 0xa
 2695 0c3b 04       		.byte	0x4
 2696 0c3c 47020000 		.4byte	0x247
 2697 0c40 30       		.uleb128 0x30
 2698 0c41 E5040000 		.4byte	.LASF111
 2699 0c45 02       		.byte	0x2
 2700 0c46 34       		.byte	0x34
 2701 0c47 17       		.byte	0x17
 2702 0c48 41020000 		.4byte	0x241
 2703 0c4c 03       		.byte	0x3
 2704 0c4d 690C0000 		.4byte	0xc69
 2705 0c51 24       		.uleb128 0x24
 2706 0c52 74717000 		.ascii	"tqp\000"
 2707 0c56 02       		.byte	0x2
 2708 0c57 34       		.byte	0x34
 2709 0c58 31       		.byte	0x31
 2710 0c59 3A0C0000 		.4byte	0xc3a
 2711 0c5d 31       		.uleb128 0x31
 2712 0c5e 747000   		.ascii	"tp\000"
 2713 0c61 02       		.byte	0x2
 2714 0c62 35       		.byte	0x35
 2715 0c63 0B       		.byte	0xb
 2716 0c64 41020000 		.4byte	0x241
 2717 0c68 00       		.byte	0
 2718 0c69 32       		.uleb128 0x32
 2719 0c6a 13000000 		.4byte	.LASF120
 2720 0c6e 02       		.byte	0x2
 2721 0c6f 2D       		.byte	0x2d
 2722 0c70 14       		.byte	0x14
 2723 0c71 03       		.byte	0x3
 2724 0c72 8E0C0000 		.4byte	0xc8e
 2725 0c76 24       		.uleb128 0x24
 2726 0c77 747000   		.ascii	"tp\000"
 2727 0c7a 02       		.byte	0x2
 2728 0c7b 2D       		.byte	0x2d
 2729 0c7c 29       		.byte	0x29
 2730 0c7d 41020000 		.4byte	0x241
 2731 0c81 24       		.uleb128 0x24
 2732 0c82 74717000 		.ascii	"tqp\000"
 2733 0c86 02       		.byte	0x2
 2734 0c87 2D       		.byte	0x2d
 2735 0c88 3B       		.byte	0x3b
 2736 0c89 3A0C0000 		.4byte	0xc3a
ARM GAS  /tmp/ccpKsTsb.s 			page 49


 2737 0c8d 00       		.byte	0
 2738 0c8e 33       		.uleb128 0x33
 2739 0c8f 150A0000 		.4byte	0xa15
 2740 0c93 00000000 		.4byte	.LFB11
 2741 0c97 5C000000 		.4byte	.LFE11-.LFB11
 2742 0c9b 01       		.uleb128 0x1
 2743 0c9c 9C       		.byte	0x9c
 2744 0c9d 0D0D0000 		.4byte	0xd0d
 2745 0ca1 19       		.uleb128 0x19
 2746 0ca2 260A0000 		.4byte	0xa26
 2747 0ca6 C5050000 		.4byte	.LLST13
 2748 0caa BB050000 		.4byte	.LVUS13
 2749 0cae 2A       		.uleb128 0x2a
 2750 0caf 150A0000 		.4byte	0xa15
 2751 0cb3 20000000 		.4byte	.LBI56
 2752 0cb7 00       		.byte	.LVU117
 2753 0cb8 68000000 		.4byte	.Ldebug_ranges0+0x68
 2754 0cbc 01       		.byte	0x1
 2755 0cbd B2       		.byte	0xb2
 2756 0cbe 07       		.byte	0x7
 2757 0cbf 19       		.uleb128 0x19
 2758 0cc0 260A0000 		.4byte	0xa26
 2759 0cc4 0E060000 		.4byte	.LLST14
 2760 0cc8 0A060000 		.4byte	.LVUS14
 2761 0ccc 2C       		.uleb128 0x2c
 2762 0ccd 690C0000 		.4byte	0xc69
 2763 0cd1 38000000 		.4byte	.LBI58
 2764 0cd5 01       		.byte	.LVU126
 2765 0cd6 80000000 		.4byte	.Ldebug_ranges0+0x80
 2766 0cda 01       		.byte	0x1
 2767 0cdb BD       		.byte	0xbd
 2768 0cdc 05       		.byte	0x5
 2769 0cdd FC0C0000 		.4byte	0xcfc
 2770 0ce1 19       		.uleb128 0x19
 2771 0ce2 810C0000 		.4byte	0xc81
 2772 0ce6 31060000 		.4byte	.LLST15
 2773 0cea 2F060000 		.4byte	.LVUS15
 2774 0cee 19       		.uleb128 0x19
 2775 0cef 760C0000 		.4byte	0xc76
 2776 0cf3 46060000 		.4byte	.LLST16
 2777 0cf7 44060000 		.4byte	.LVUS16
 2778 0cfb 00       		.byte	0
 2779 0cfc 1A       		.uleb128 0x1a
 2780 0cfd 4C000000 		.4byte	.LVL30
 2781 0d01 AA0D0000 		.4byte	0xdaa
 2782 0d05 1B       		.uleb128 0x1b
 2783 0d06 01       		.uleb128 0x1
 2784 0d07 50       		.byte	0x50
 2785 0d08 01       		.uleb128 0x1
 2786 0d09 33       		.byte	0x33
 2787 0d0a 00       		.byte	0
 2788 0d0b 00       		.byte	0
 2789 0d0c 00       		.byte	0
 2790 0d0d 33       		.uleb128 0x33
 2791 0d0e FF080000 		.4byte	0x8ff
 2792 0d12 00000000 		.4byte	.LFB13
 2793 0d16 5C000000 		.4byte	.LFE13-.LFB13
ARM GAS  /tmp/ccpKsTsb.s 			page 50


 2794 0d1a 01       		.uleb128 0x1
 2795 0d1b 9C       		.byte	0x9c
 2796 0d1c AA0D0000 		.4byte	0xdaa
 2797 0d20 19       		.uleb128 0x19
 2798 0d21 10090000 		.4byte	0x910
 2799 0d25 61060000 		.4byte	.LLST25
 2800 0d29 59060000 		.4byte	.LVUS25
 2801 0d2d 19       		.uleb128 0x19
 2802 0d2e 1B090000 		.4byte	0x91b
 2803 0d32 9E060000 		.4byte	.LLST26
 2804 0d36 98060000 		.4byte	.LVUS26
 2805 0d3a 34       		.uleb128 0x34
 2806 0d3b FF080000 		.4byte	0x8ff
 2807 0d3f 28000000 		.4byte	.LBI90
 2808 0d43 00       		.byte	.LVU211
 2809 0d44 28000000 		.4byte	.LBB90
 2810 0d48 24000000 		.4byte	.LBE90-.LBB90
 2811 0d4c 01       		.byte	0x1
 2812 0d4d F3       		.byte	0xf3
 2813 0d4e 07       		.byte	0x7
 2814 0d4f 2B       		.uleb128 0x2b
 2815 0d50 1B090000 		.4byte	0x91b
 2816 0d54 19       		.uleb128 0x19
 2817 0d55 10090000 		.4byte	0x910
 2818 0d59 CE060000 		.4byte	.LLST27
 2819 0d5d CA060000 		.4byte	.LVUS27
 2820 0d61 18       		.uleb128 0x18
 2821 0d62 690C0000 		.4byte	0xc69
 2822 0d66 40000000 		.4byte	.LBI92
 2823 0d6a 01       		.byte	.LVU219
 2824 0d6b F0000000 		.4byte	.Ldebug_ranges0+0xf0
 2825 0d6f 01       		.byte	0x1
 2826 0d70 0201     		.2byte	0x102
 2827 0d72 05       		.byte	0x5
 2828 0d73 920D0000 		.4byte	0xd92
 2829 0d77 19       		.uleb128 0x19
 2830 0d78 810C0000 		.4byte	0xc81
 2831 0d7c F1060000 		.4byte	.LLST28
 2832 0d80 EF060000 		.4byte	.LVUS28
 2833 0d84 19       		.uleb128 0x19
 2834 0d85 760C0000 		.4byte	0xc76
 2835 0d89 06070000 		.4byte	.LLST29
 2836 0d8d 04070000 		.4byte	.LVUS29
 2837 0d91 00       		.byte	0
 2838 0d92 35       		.uleb128 0x35
 2839 0d93 4C000000 		.4byte	.LVL46
 2840 0d97 DA0D0000 		.4byte	0xdda
 2841 0d9b 1B       		.uleb128 0x1b
 2842 0d9c 01       		.uleb128 0x1
 2843 0d9d 50       		.byte	0x50
 2844 0d9e 01       		.uleb128 0x1
 2845 0d9f 33       		.byte	0x33
 2846 0da0 1B       		.uleb128 0x1b
 2847 0da1 01       		.uleb128 0x1
 2848 0da2 51       		.byte	0x51
 2849 0da3 03       		.uleb128 0x3
 2850 0da4 F3       		.byte	0xf3
ARM GAS  /tmp/ccpKsTsb.s 			page 51


 2851 0da5 01       		.uleb128 0x1
 2852 0da6 51       		.byte	0x51
 2853 0da7 00       		.byte	0
 2854 0da8 00       		.byte	0
 2855 0da9 00       		.byte	0
 2856 0daa 36       		.uleb128 0x36
 2857 0dab 3F040000 		.4byte	.LASF112
 2858 0daf 3F040000 		.4byte	.LASF112
 2859 0db3 09       		.byte	0x9
 2860 0db4 8C       		.byte	0x8c
 2861 0db5 08       		.byte	0x8
 2862 0db6 36       		.uleb128 0x36
 2863 0db7 15020000 		.4byte	.LASF113
 2864 0dbb 15020000 		.4byte	.LASF113
 2865 0dbf 09       		.byte	0x9
 2866 0dc0 95       		.byte	0x95
 2867 0dc1 08       		.byte	0x8
 2868 0dc2 36       		.uleb128 0x36
 2869 0dc3 03050000 		.4byte	.LASF114
 2870 0dc7 03050000 		.4byte	.LASF114
 2871 0dcb 09       		.byte	0x9
 2872 0dcc 89       		.byte	0x89
 2873 0dcd 0B       		.byte	0xb
 2874 0dce 36       		.uleb128 0x36
 2875 0dcf D0020000 		.4byte	.LASF115
 2876 0dd3 D0020000 		.4byte	.LASF115
 2877 0dd7 09       		.byte	0x9
 2878 0dd8 92       		.byte	0x92
 2879 0dd9 08       		.byte	0x8
 2880 0dda 36       		.uleb128 0x36
 2881 0ddb C3050000 		.4byte	.LASF116
 2882 0ddf C3050000 		.4byte	.LASF116
 2883 0de3 09       		.byte	0x9
 2884 0de4 8F       		.byte	0x8f
 2885 0de5 09       		.byte	0x9
 2886 0de6 00       		.byte	0
 2887              		.section	.debug_abbrev,"",%progbits
 2888              	.Ldebug_abbrev0:
 2889 0000 01       		.uleb128 0x1
 2890 0001 11       		.uleb128 0x11
 2891 0002 01       		.byte	0x1
 2892 0003 25       		.uleb128 0x25
 2893 0004 0E       		.uleb128 0xe
 2894 0005 13       		.uleb128 0x13
 2895 0006 0B       		.uleb128 0xb
 2896 0007 03       		.uleb128 0x3
 2897 0008 0E       		.uleb128 0xe
 2898 0009 1B       		.uleb128 0x1b
 2899 000a 0E       		.uleb128 0xe
 2900 000b 55       		.uleb128 0x55
 2901 000c 17       		.uleb128 0x17
 2902 000d 11       		.uleb128 0x11
 2903 000e 01       		.uleb128 0x1
 2904 000f 10       		.uleb128 0x10
 2905 0010 17       		.uleb128 0x17
 2906 0011 00       		.byte	0
 2907 0012 00       		.byte	0
ARM GAS  /tmp/ccpKsTsb.s 			page 52


 2908 0013 02       		.uleb128 0x2
 2909 0014 24       		.uleb128 0x24
 2910 0015 00       		.byte	0
 2911 0016 0B       		.uleb128 0xb
 2912 0017 0B       		.uleb128 0xb
 2913 0018 3E       		.uleb128 0x3e
 2914 0019 0B       		.uleb128 0xb
 2915 001a 03       		.uleb128 0x3
 2916 001b 08       		.uleb128 0x8
 2917 001c 00       		.byte	0
 2918 001d 00       		.byte	0
 2919 001e 03       		.uleb128 0x3
 2920 001f 24       		.uleb128 0x24
 2921 0020 00       		.byte	0
 2922 0021 0B       		.uleb128 0xb
 2923 0022 0B       		.uleb128 0xb
 2924 0023 3E       		.uleb128 0x3e
 2925 0024 0B       		.uleb128 0xb
 2926 0025 03       		.uleb128 0x3
 2927 0026 0E       		.uleb128 0xe
 2928 0027 00       		.byte	0
 2929 0028 00       		.byte	0
 2930 0029 04       		.uleb128 0x4
 2931 002a 16       		.uleb128 0x16
 2932 002b 00       		.byte	0
 2933 002c 03       		.uleb128 0x3
 2934 002d 0E       		.uleb128 0xe
 2935 002e 3A       		.uleb128 0x3a
 2936 002f 0B       		.uleb128 0xb
 2937 0030 3B       		.uleb128 0x3b
 2938 0031 0B       		.uleb128 0xb
 2939 0032 39       		.uleb128 0x39
 2940 0033 0B       		.uleb128 0xb
 2941 0034 49       		.uleb128 0x49
 2942 0035 13       		.uleb128 0x13
 2943 0036 00       		.byte	0
 2944 0037 00       		.byte	0
 2945 0038 05       		.uleb128 0x5
 2946 0039 35       		.uleb128 0x35
 2947 003a 00       		.byte	0
 2948 003b 49       		.uleb128 0x49
 2949 003c 13       		.uleb128 0x13
 2950 003d 00       		.byte	0
 2951 003e 00       		.byte	0
 2952 003f 06       		.uleb128 0x6
 2953 0040 13       		.uleb128 0x13
 2954 0041 01       		.byte	0x1
 2955 0042 03       		.uleb128 0x3
 2956 0043 0E       		.uleb128 0xe
 2957 0044 0B       		.uleb128 0xb
 2958 0045 0B       		.uleb128 0xb
 2959 0046 3A       		.uleb128 0x3a
 2960 0047 0B       		.uleb128 0xb
 2961 0048 3B       		.uleb128 0x3b
 2962 0049 0B       		.uleb128 0xb
 2963 004a 39       		.uleb128 0x39
 2964 004b 0B       		.uleb128 0xb
ARM GAS  /tmp/ccpKsTsb.s 			page 53


 2965 004c 01       		.uleb128 0x1
 2966 004d 13       		.uleb128 0x13
 2967 004e 00       		.byte	0
 2968 004f 00       		.byte	0
 2969 0050 07       		.uleb128 0x7
 2970 0051 0D       		.uleb128 0xd
 2971 0052 00       		.byte	0
 2972 0053 03       		.uleb128 0x3
 2973 0054 0E       		.uleb128 0xe
 2974 0055 3A       		.uleb128 0x3a
 2975 0056 0B       		.uleb128 0xb
 2976 0057 3B       		.uleb128 0x3b
 2977 0058 0B       		.uleb128 0xb
 2978 0059 39       		.uleb128 0x39
 2979 005a 0B       		.uleb128 0xb
 2980 005b 49       		.uleb128 0x49
 2981 005c 13       		.uleb128 0x13
 2982 005d 38       		.uleb128 0x38
 2983 005e 0B       		.uleb128 0xb
 2984 005f 00       		.byte	0
 2985 0060 00       		.byte	0
 2986 0061 08       		.uleb128 0x8
 2987 0062 0D       		.uleb128 0xd
 2988 0063 00       		.byte	0
 2989 0064 03       		.uleb128 0x3
 2990 0065 08       		.uleb128 0x8
 2991 0066 3A       		.uleb128 0x3a
 2992 0067 0B       		.uleb128 0xb
 2993 0068 3B       		.uleb128 0x3b
 2994 0069 0B       		.uleb128 0xb
 2995 006a 39       		.uleb128 0x39
 2996 006b 0B       		.uleb128 0xb
 2997 006c 49       		.uleb128 0x49
 2998 006d 13       		.uleb128 0x13
 2999 006e 38       		.uleb128 0x38
 3000 006f 0B       		.uleb128 0xb
 3001 0070 00       		.byte	0
 3002 0071 00       		.byte	0
 3003 0072 09       		.uleb128 0x9
 3004 0073 13       		.uleb128 0x13
 3005 0074 01       		.byte	0x1
 3006 0075 0B       		.uleb128 0xb
 3007 0076 0B       		.uleb128 0xb
 3008 0077 3A       		.uleb128 0x3a
 3009 0078 0B       		.uleb128 0xb
 3010 0079 3B       		.uleb128 0x3b
 3011 007a 0B       		.uleb128 0xb
 3012 007b 39       		.uleb128 0x39
 3013 007c 0B       		.uleb128 0xb
 3014 007d 01       		.uleb128 0x1
 3015 007e 13       		.uleb128 0x13
 3016 007f 00       		.byte	0
 3017 0080 00       		.byte	0
 3018 0081 0A       		.uleb128 0xa
 3019 0082 0F       		.uleb128 0xf
 3020 0083 00       		.byte	0
 3021 0084 0B       		.uleb128 0xb
ARM GAS  /tmp/ccpKsTsb.s 			page 54


 3022 0085 0B       		.uleb128 0xb
 3023 0086 49       		.uleb128 0x49
 3024 0087 13       		.uleb128 0x13
 3025 0088 00       		.byte	0
 3026 0089 00       		.byte	0
 3027 008a 0B       		.uleb128 0xb
 3028 008b 0F       		.uleb128 0xf
 3029 008c 00       		.byte	0
 3030 008d 0B       		.uleb128 0xb
 3031 008e 0B       		.uleb128 0xb
 3032 008f 00       		.byte	0
 3033 0090 00       		.byte	0
 3034 0091 0C       		.uleb128 0xc
 3035 0092 15       		.uleb128 0x15
 3036 0093 01       		.byte	0x1
 3037 0094 27       		.uleb128 0x27
 3038 0095 19       		.uleb128 0x19
 3039 0096 01       		.uleb128 0x1
 3040 0097 13       		.uleb128 0x13
 3041 0098 00       		.byte	0
 3042 0099 00       		.byte	0
 3043 009a 0D       		.uleb128 0xd
 3044 009b 05       		.uleb128 0x5
 3045 009c 00       		.byte	0
 3046 009d 49       		.uleb128 0x49
 3047 009e 13       		.uleb128 0x13
 3048 009f 00       		.byte	0
 3049 00a0 00       		.byte	0
 3050 00a1 0E       		.uleb128 0xe
 3051 00a2 34       		.uleb128 0x34
 3052 00a3 00       		.byte	0
 3053 00a4 03       		.uleb128 0x3
 3054 00a5 0E       		.uleb128 0xe
 3055 00a6 3A       		.uleb128 0x3a
 3056 00a7 0B       		.uleb128 0xb
 3057 00a8 3B       		.uleb128 0x3b
 3058 00a9 0B       		.uleb128 0xb
 3059 00aa 39       		.uleb128 0x39
 3060 00ab 0B       		.uleb128 0xb
 3061 00ac 49       		.uleb128 0x49
 3062 00ad 13       		.uleb128 0x13
 3063 00ae 3F       		.uleb128 0x3f
 3064 00af 19       		.uleb128 0x19
 3065 00b0 3C       		.uleb128 0x3c
 3066 00b1 19       		.uleb128 0x19
 3067 00b2 00       		.byte	0
 3068 00b3 00       		.byte	0
 3069 00b4 0F       		.uleb128 0xf
 3070 00b5 17       		.uleb128 0x17
 3071 00b6 01       		.byte	0x1
 3072 00b7 0B       		.uleb128 0xb
 3073 00b8 0B       		.uleb128 0xb
 3074 00b9 3A       		.uleb128 0x3a
 3075 00ba 0B       		.uleb128 0xb
 3076 00bb 3B       		.uleb128 0x3b
 3077 00bc 0B       		.uleb128 0xb
 3078 00bd 39       		.uleb128 0x39
ARM GAS  /tmp/ccpKsTsb.s 			page 55


 3079 00be 0B       		.uleb128 0xb
 3080 00bf 01       		.uleb128 0x1
 3081 00c0 13       		.uleb128 0x13
 3082 00c1 00       		.byte	0
 3083 00c2 00       		.byte	0
 3084 00c3 10       		.uleb128 0x10
 3085 00c4 0D       		.uleb128 0xd
 3086 00c5 00       		.byte	0
 3087 00c6 03       		.uleb128 0x3
 3088 00c7 0E       		.uleb128 0xe
 3089 00c8 3A       		.uleb128 0x3a
 3090 00c9 0B       		.uleb128 0xb
 3091 00ca 3B       		.uleb128 0x3b
 3092 00cb 0B       		.uleb128 0xb
 3093 00cc 39       		.uleb128 0x39
 3094 00cd 0B       		.uleb128 0xb
 3095 00ce 49       		.uleb128 0x49
 3096 00cf 13       		.uleb128 0x13
 3097 00d0 00       		.byte	0
 3098 00d1 00       		.byte	0
 3099 00d2 11       		.uleb128 0x11
 3100 00d3 26       		.uleb128 0x26
 3101 00d4 00       		.byte	0
 3102 00d5 49       		.uleb128 0x49
 3103 00d6 13       		.uleb128 0x13
 3104 00d7 00       		.byte	0
 3105 00d8 00       		.byte	0
 3106 00d9 12       		.uleb128 0x12
 3107 00da 01       		.uleb128 0x1
 3108 00db 01       		.byte	0x1
 3109 00dc 49       		.uleb128 0x49
 3110 00dd 13       		.uleb128 0x13
 3111 00de 01       		.uleb128 0x1
 3112 00df 13       		.uleb128 0x13
 3113 00e0 00       		.byte	0
 3114 00e1 00       		.byte	0
 3115 00e2 13       		.uleb128 0x13
 3116 00e3 21       		.uleb128 0x21
 3117 00e4 00       		.byte	0
 3118 00e5 49       		.uleb128 0x49
 3119 00e6 13       		.uleb128 0x13
 3120 00e7 2F       		.uleb128 0x2f
 3121 00e8 0B       		.uleb128 0xb
 3122 00e9 00       		.byte	0
 3123 00ea 00       		.byte	0
 3124 00eb 14       		.uleb128 0x14
 3125 00ec 2E       		.uleb128 0x2e
 3126 00ed 01       		.byte	0x1
 3127 00ee 3F       		.uleb128 0x3f
 3128 00ef 19       		.uleb128 0x19
 3129 00f0 03       		.uleb128 0x3
 3130 00f1 0E       		.uleb128 0xe
 3131 00f2 3A       		.uleb128 0x3a
 3132 00f3 0B       		.uleb128 0xb
 3133 00f4 3B       		.uleb128 0x3b
 3134 00f5 05       		.uleb128 0x5
 3135 00f6 39       		.uleb128 0x39
ARM GAS  /tmp/ccpKsTsb.s 			page 56


 3136 00f7 0B       		.uleb128 0xb
 3137 00f8 27       		.uleb128 0x27
 3138 00f9 19       		.uleb128 0x19
 3139 00fa 49       		.uleb128 0x49
 3140 00fb 13       		.uleb128 0x13
 3141 00fc 11       		.uleb128 0x11
 3142 00fd 01       		.uleb128 0x1
 3143 00fe 12       		.uleb128 0x12
 3144 00ff 06       		.uleb128 0x6
 3145 0100 40       		.uleb128 0x40
 3146 0101 18       		.uleb128 0x18
 3147 0102 9742     		.uleb128 0x2117
 3148 0104 19       		.uleb128 0x19
 3149 0105 01       		.uleb128 0x1
 3150 0106 13       		.uleb128 0x13
 3151 0107 00       		.byte	0
 3152 0108 00       		.byte	0
 3153 0109 15       		.uleb128 0x15
 3154 010a 05       		.uleb128 0x5
 3155 010b 00       		.byte	0
 3156 010c 03       		.uleb128 0x3
 3157 010d 08       		.uleb128 0x8
 3158 010e 3A       		.uleb128 0x3a
 3159 010f 0B       		.uleb128 0xb
 3160 0110 3B       		.uleb128 0x3b
 3161 0111 05       		.uleb128 0x5
 3162 0112 39       		.uleb128 0x39
 3163 0113 0B       		.uleb128 0xb
 3164 0114 49       		.uleb128 0x49
 3165 0115 13       		.uleb128 0x13
 3166 0116 02       		.uleb128 0x2
 3167 0117 17       		.uleb128 0x17
 3168 0118 B742     		.uleb128 0x2137
 3169 011a 17       		.uleb128 0x17
 3170 011b 00       		.byte	0
 3171 011c 00       		.byte	0
 3172 011d 16       		.uleb128 0x16
 3173 011e 34       		.uleb128 0x34
 3174 011f 00       		.byte	0
 3175 0120 03       		.uleb128 0x3
 3176 0121 08       		.uleb128 0x8
 3177 0122 3A       		.uleb128 0x3a
 3178 0123 0B       		.uleb128 0xb
 3179 0124 3B       		.uleb128 0x3b
 3180 0125 05       		.uleb128 0x5
 3181 0126 39       		.uleb128 0x39
 3182 0127 0B       		.uleb128 0xb
 3183 0128 49       		.uleb128 0x49
 3184 0129 13       		.uleb128 0x13
 3185 012a 02       		.uleb128 0x2
 3186 012b 17       		.uleb128 0x17
 3187 012c B742     		.uleb128 0x2137
 3188 012e 17       		.uleb128 0x17
 3189 012f 00       		.byte	0
 3190 0130 00       		.byte	0
 3191 0131 17       		.uleb128 0x17
 3192 0132 0B       		.uleb128 0xb
ARM GAS  /tmp/ccpKsTsb.s 			page 57


 3193 0133 01       		.byte	0x1
 3194 0134 11       		.uleb128 0x11
 3195 0135 01       		.uleb128 0x1
 3196 0136 12       		.uleb128 0x12
 3197 0137 06       		.uleb128 0x6
 3198 0138 01       		.uleb128 0x1
 3199 0139 13       		.uleb128 0x13
 3200 013a 00       		.byte	0
 3201 013b 00       		.byte	0
 3202 013c 18       		.uleb128 0x18
 3203 013d 1D       		.uleb128 0x1d
 3204 013e 01       		.byte	0x1
 3205 013f 31       		.uleb128 0x31
 3206 0140 13       		.uleb128 0x13
 3207 0141 52       		.uleb128 0x52
 3208 0142 01       		.uleb128 0x1
 3209 0143 B842     		.uleb128 0x2138
 3210 0145 0B       		.uleb128 0xb
 3211 0146 55       		.uleb128 0x55
 3212 0147 17       		.uleb128 0x17
 3213 0148 58       		.uleb128 0x58
 3214 0149 0B       		.uleb128 0xb
 3215 014a 59       		.uleb128 0x59
 3216 014b 05       		.uleb128 0x5
 3217 014c 57       		.uleb128 0x57
 3218 014d 0B       		.uleb128 0xb
 3219 014e 01       		.uleb128 0x1
 3220 014f 13       		.uleb128 0x13
 3221 0150 00       		.byte	0
 3222 0151 00       		.byte	0
 3223 0152 19       		.uleb128 0x19
 3224 0153 05       		.uleb128 0x5
 3225 0154 00       		.byte	0
 3226 0155 31       		.uleb128 0x31
 3227 0156 13       		.uleb128 0x13
 3228 0157 02       		.uleb128 0x2
 3229 0158 17       		.uleb128 0x17
 3230 0159 B742     		.uleb128 0x2137
 3231 015b 17       		.uleb128 0x17
 3232 015c 00       		.byte	0
 3233 015d 00       		.byte	0
 3234 015e 1A       		.uleb128 0x1a
 3235 015f 898201   		.uleb128 0x4109
 3236 0162 01       		.byte	0x1
 3237 0163 11       		.uleb128 0x11
 3238 0164 01       		.uleb128 0x1
 3239 0165 31       		.uleb128 0x31
 3240 0166 13       		.uleb128 0x13
 3241 0167 00       		.byte	0
 3242 0168 00       		.byte	0
 3243 0169 1B       		.uleb128 0x1b
 3244 016a 8A8201   		.uleb128 0x410a
 3245 016d 00       		.byte	0
 3246 016e 02       		.uleb128 0x2
 3247 016f 18       		.uleb128 0x18
 3248 0170 9142     		.uleb128 0x2111
 3249 0172 18       		.uleb128 0x18
ARM GAS  /tmp/ccpKsTsb.s 			page 58


 3250 0173 00       		.byte	0
 3251 0174 00       		.byte	0
 3252 0175 1C       		.uleb128 0x1c
 3253 0176 1D       		.uleb128 0x1d
 3254 0177 01       		.byte	0x1
 3255 0178 31       		.uleb128 0x31
 3256 0179 13       		.uleb128 0x13
 3257 017a 52       		.uleb128 0x52
 3258 017b 01       		.uleb128 0x1
 3259 017c B842     		.uleb128 0x2138
 3260 017e 0B       		.uleb128 0xb
 3261 017f 11       		.uleb128 0x11
 3262 0180 01       		.uleb128 0x1
 3263 0181 12       		.uleb128 0x12
 3264 0182 06       		.uleb128 0x6
 3265 0183 58       		.uleb128 0x58
 3266 0184 0B       		.uleb128 0xb
 3267 0185 59       		.uleb128 0x59
 3268 0186 05       		.uleb128 0x5
 3269 0187 57       		.uleb128 0x57
 3270 0188 0B       		.uleb128 0xb
 3271 0189 01       		.uleb128 0x1
 3272 018a 13       		.uleb128 0x13
 3273 018b 00       		.byte	0
 3274 018c 00       		.byte	0
 3275 018d 1D       		.uleb128 0x1d
 3276 018e 34       		.uleb128 0x34
 3277 018f 00       		.byte	0
 3278 0190 31       		.uleb128 0x31
 3279 0191 13       		.uleb128 0x13
 3280 0192 02       		.uleb128 0x2
 3281 0193 17       		.uleb128 0x17
 3282 0194 B742     		.uleb128 0x2137
 3283 0196 17       		.uleb128 0x17
 3284 0197 00       		.byte	0
 3285 0198 00       		.byte	0
 3286 0199 1E       		.uleb128 0x1e
 3287 019a 898201   		.uleb128 0x4109
 3288 019d 00       		.byte	0
 3289 019e 11       		.uleb128 0x11
 3290 019f 01       		.uleb128 0x1
 3291 01a0 31       		.uleb128 0x31
 3292 01a1 13       		.uleb128 0x13
 3293 01a2 00       		.byte	0
 3294 01a3 00       		.byte	0
 3295 01a4 1F       		.uleb128 0x1f
 3296 01a5 2E       		.uleb128 0x2e
 3297 01a6 01       		.byte	0x1
 3298 01a7 3F       		.uleb128 0x3f
 3299 01a8 19       		.uleb128 0x19
 3300 01a9 03       		.uleb128 0x3
 3301 01aa 0E       		.uleb128 0xe
 3302 01ab 3A       		.uleb128 0x3a
 3303 01ac 0B       		.uleb128 0xb
 3304 01ad 3B       		.uleb128 0x3b
 3305 01ae 05       		.uleb128 0x5
 3306 01af 39       		.uleb128 0x39
ARM GAS  /tmp/ccpKsTsb.s 			page 59


 3307 01b0 0B       		.uleb128 0xb
 3308 01b1 27       		.uleb128 0x27
 3309 01b2 19       		.uleb128 0x19
 3310 01b3 11       		.uleb128 0x11
 3311 01b4 01       		.uleb128 0x1
 3312 01b5 12       		.uleb128 0x12
 3313 01b6 06       		.uleb128 0x6
 3314 01b7 40       		.uleb128 0x40
 3315 01b8 18       		.uleb128 0x18
 3316 01b9 9742     		.uleb128 0x2117
 3317 01bb 19       		.uleb128 0x19
 3318 01bc 01       		.uleb128 0x1
 3319 01bd 13       		.uleb128 0x13
 3320 01be 00       		.byte	0
 3321 01bf 00       		.byte	0
 3322 01c0 20       		.uleb128 0x20
 3323 01c1 0B       		.uleb128 0xb
 3324 01c2 01       		.byte	0x1
 3325 01c3 11       		.uleb128 0x11
 3326 01c4 01       		.uleb128 0x1
 3327 01c5 12       		.uleb128 0x12
 3328 01c6 06       		.uleb128 0x6
 3329 01c7 00       		.byte	0
 3330 01c8 00       		.byte	0
 3331 01c9 21       		.uleb128 0x21
 3332 01ca 0B       		.uleb128 0xb
 3333 01cb 01       		.byte	0x1
 3334 01cc 55       		.uleb128 0x55
 3335 01cd 17       		.uleb128 0x17
 3336 01ce 00       		.byte	0
 3337 01cf 00       		.byte	0
 3338 01d0 22       		.uleb128 0x22
 3339 01d1 898201   		.uleb128 0x4109
 3340 01d4 00       		.byte	0
 3341 01d5 11       		.uleb128 0x11
 3342 01d6 01       		.uleb128 0x1
 3343 01d7 9542     		.uleb128 0x2115
 3344 01d9 19       		.uleb128 0x19
 3345 01da 31       		.uleb128 0x31
 3346 01db 13       		.uleb128 0x13
 3347 01dc 00       		.byte	0
 3348 01dd 00       		.byte	0
 3349 01de 23       		.uleb128 0x23
 3350 01df 2E       		.uleb128 0x2e
 3351 01e0 01       		.byte	0x1
 3352 01e1 3F       		.uleb128 0x3f
 3353 01e2 19       		.uleb128 0x19
 3354 01e3 03       		.uleb128 0x3
 3355 01e4 0E       		.uleb128 0xe
 3356 01e5 3A       		.uleb128 0x3a
 3357 01e6 0B       		.uleb128 0xb
 3358 01e7 3B       		.uleb128 0x3b
 3359 01e8 0B       		.uleb128 0xb
 3360 01e9 39       		.uleb128 0x39
 3361 01ea 0B       		.uleb128 0xb
 3362 01eb 27       		.uleb128 0x27
 3363 01ec 19       		.uleb128 0x19
ARM GAS  /tmp/ccpKsTsb.s 			page 60


 3364 01ed 49       		.uleb128 0x49
 3365 01ee 13       		.uleb128 0x13
 3366 01ef 20       		.uleb128 0x20
 3367 01f0 0B       		.uleb128 0xb
 3368 01f1 01       		.uleb128 0x1
 3369 01f2 13       		.uleb128 0x13
 3370 01f3 00       		.byte	0
 3371 01f4 00       		.byte	0
 3372 01f5 24       		.uleb128 0x24
 3373 01f6 05       		.uleb128 0x5
 3374 01f7 00       		.byte	0
 3375 01f8 03       		.uleb128 0x3
 3376 01f9 08       		.uleb128 0x8
 3377 01fa 3A       		.uleb128 0x3a
 3378 01fb 0B       		.uleb128 0xb
 3379 01fc 3B       		.uleb128 0x3b
 3380 01fd 0B       		.uleb128 0xb
 3381 01fe 39       		.uleb128 0x39
 3382 01ff 0B       		.uleb128 0xb
 3383 0200 49       		.uleb128 0x49
 3384 0201 13       		.uleb128 0x13
 3385 0202 00       		.byte	0
 3386 0203 00       		.byte	0
 3387 0204 25       		.uleb128 0x25
 3388 0205 05       		.uleb128 0x5
 3389 0206 00       		.byte	0
 3390 0207 03       		.uleb128 0x3
 3391 0208 0E       		.uleb128 0xe
 3392 0209 3A       		.uleb128 0x3a
 3393 020a 0B       		.uleb128 0xb
 3394 020b 3B       		.uleb128 0x3b
 3395 020c 0B       		.uleb128 0xb
 3396 020d 39       		.uleb128 0x39
 3397 020e 0B       		.uleb128 0xb
 3398 020f 49       		.uleb128 0x49
 3399 0210 13       		.uleb128 0x13
 3400 0211 00       		.byte	0
 3401 0212 00       		.byte	0
 3402 0213 26       		.uleb128 0x26
 3403 0214 2E       		.uleb128 0x2e
 3404 0215 01       		.byte	0x1
 3405 0216 3F       		.uleb128 0x3f
 3406 0217 19       		.uleb128 0x19
 3407 0218 03       		.uleb128 0x3
 3408 0219 0E       		.uleb128 0xe
 3409 021a 3A       		.uleb128 0x3a
 3410 021b 0B       		.uleb128 0xb
 3411 021c 3B       		.uleb128 0x3b
 3412 021d 0B       		.uleb128 0xb
 3413 021e 39       		.uleb128 0x39
 3414 021f 0B       		.uleb128 0xb
 3415 0220 27       		.uleb128 0x27
 3416 0221 19       		.uleb128 0x19
 3417 0222 49       		.uleb128 0x49
 3418 0223 13       		.uleb128 0x13
 3419 0224 11       		.uleb128 0x11
 3420 0225 01       		.uleb128 0x1
ARM GAS  /tmp/ccpKsTsb.s 			page 61


 3421 0226 12       		.uleb128 0x12
 3422 0227 06       		.uleb128 0x6
 3423 0228 40       		.uleb128 0x40
 3424 0229 18       		.uleb128 0x18
 3425 022a 9742     		.uleb128 0x2117
 3426 022c 19       		.uleb128 0x19
 3427 022d 01       		.uleb128 0x1
 3428 022e 13       		.uleb128 0x13
 3429 022f 00       		.byte	0
 3430 0230 00       		.byte	0
 3431 0231 27       		.uleb128 0x27
 3432 0232 05       		.uleb128 0x5
 3433 0233 00       		.byte	0
 3434 0234 03       		.uleb128 0x3
 3435 0235 08       		.uleb128 0x8
 3436 0236 3A       		.uleb128 0x3a
 3437 0237 0B       		.uleb128 0xb
 3438 0238 3B       		.uleb128 0x3b
 3439 0239 0B       		.uleb128 0xb
 3440 023a 39       		.uleb128 0x39
 3441 023b 0B       		.uleb128 0xb
 3442 023c 49       		.uleb128 0x49
 3443 023d 13       		.uleb128 0x13
 3444 023e 02       		.uleb128 0x2
 3445 023f 17       		.uleb128 0x17
 3446 0240 B742     		.uleb128 0x2137
 3447 0242 17       		.uleb128 0x17
 3448 0243 00       		.byte	0
 3449 0244 00       		.byte	0
 3450 0245 28       		.uleb128 0x28
 3451 0246 05       		.uleb128 0x5
 3452 0247 00       		.byte	0
 3453 0248 03       		.uleb128 0x3
 3454 0249 0E       		.uleb128 0xe
 3455 024a 3A       		.uleb128 0x3a
 3456 024b 0B       		.uleb128 0xb
 3457 024c 3B       		.uleb128 0x3b
 3458 024d 0B       		.uleb128 0xb
 3459 024e 39       		.uleb128 0x39
 3460 024f 0B       		.uleb128 0xb
 3461 0250 49       		.uleb128 0x49
 3462 0251 13       		.uleb128 0x13
 3463 0252 02       		.uleb128 0x2
 3464 0253 17       		.uleb128 0x17
 3465 0254 B742     		.uleb128 0x2137
 3466 0256 17       		.uleb128 0x17
 3467 0257 00       		.byte	0
 3468 0258 00       		.byte	0
 3469 0259 29       		.uleb128 0x29
 3470 025a 34       		.uleb128 0x34
 3471 025b 00       		.byte	0
 3472 025c 03       		.uleb128 0x3
 3473 025d 08       		.uleb128 0x8
 3474 025e 3A       		.uleb128 0x3a
 3475 025f 0B       		.uleb128 0xb
 3476 0260 3B       		.uleb128 0x3b
 3477 0261 0B       		.uleb128 0xb
ARM GAS  /tmp/ccpKsTsb.s 			page 62


 3478 0262 39       		.uleb128 0x39
 3479 0263 0B       		.uleb128 0xb
 3480 0264 49       		.uleb128 0x49
 3481 0265 13       		.uleb128 0x13
 3482 0266 02       		.uleb128 0x2
 3483 0267 17       		.uleb128 0x17
 3484 0268 B742     		.uleb128 0x2137
 3485 026a 17       		.uleb128 0x17
 3486 026b 00       		.byte	0
 3487 026c 00       		.byte	0
 3488 026d 2A       		.uleb128 0x2a
 3489 026e 1D       		.uleb128 0x1d
 3490 026f 01       		.byte	0x1
 3491 0270 31       		.uleb128 0x31
 3492 0271 13       		.uleb128 0x13
 3493 0272 52       		.uleb128 0x52
 3494 0273 01       		.uleb128 0x1
 3495 0274 B842     		.uleb128 0x2138
 3496 0276 0B       		.uleb128 0xb
 3497 0277 55       		.uleb128 0x55
 3498 0278 17       		.uleb128 0x17
 3499 0279 58       		.uleb128 0x58
 3500 027a 0B       		.uleb128 0xb
 3501 027b 59       		.uleb128 0x59
 3502 027c 0B       		.uleb128 0xb
 3503 027d 57       		.uleb128 0x57
 3504 027e 0B       		.uleb128 0xb
 3505 027f 00       		.byte	0
 3506 0280 00       		.byte	0
 3507 0281 2B       		.uleb128 0x2b
 3508 0282 05       		.uleb128 0x5
 3509 0283 00       		.byte	0
 3510 0284 31       		.uleb128 0x31
 3511 0285 13       		.uleb128 0x13
 3512 0286 00       		.byte	0
 3513 0287 00       		.byte	0
 3514 0288 2C       		.uleb128 0x2c
 3515 0289 1D       		.uleb128 0x1d
 3516 028a 01       		.byte	0x1
 3517 028b 31       		.uleb128 0x31
 3518 028c 13       		.uleb128 0x13
 3519 028d 52       		.uleb128 0x52
 3520 028e 01       		.uleb128 0x1
 3521 028f B842     		.uleb128 0x2138
 3522 0291 0B       		.uleb128 0xb
 3523 0292 55       		.uleb128 0x55
 3524 0293 17       		.uleb128 0x17
 3525 0294 58       		.uleb128 0x58
 3526 0295 0B       		.uleb128 0xb
 3527 0296 59       		.uleb128 0x59
 3528 0297 0B       		.uleb128 0xb
 3529 0298 57       		.uleb128 0x57
 3530 0299 0B       		.uleb128 0xb
 3531 029a 01       		.uleb128 0x1
 3532 029b 13       		.uleb128 0x13
 3533 029c 00       		.byte	0
 3534 029d 00       		.byte	0
ARM GAS  /tmp/ccpKsTsb.s 			page 63


 3535 029e 2D       		.uleb128 0x2d
 3536 029f 2E       		.uleb128 0x2e
 3537 02a0 01       		.byte	0x1
 3538 02a1 3F       		.uleb128 0x3f
 3539 02a2 19       		.uleb128 0x19
 3540 02a3 03       		.uleb128 0x3
 3541 02a4 0E       		.uleb128 0xe
 3542 02a5 3A       		.uleb128 0x3a
 3543 02a6 0B       		.uleb128 0xb
 3544 02a7 3B       		.uleb128 0x3b
 3545 02a8 0B       		.uleb128 0xb
 3546 02a9 39       		.uleb128 0x39
 3547 02aa 0B       		.uleb128 0xb
 3548 02ab 27       		.uleb128 0x27
 3549 02ac 19       		.uleb128 0x19
 3550 02ad 11       		.uleb128 0x11
 3551 02ae 01       		.uleb128 0x1
 3552 02af 12       		.uleb128 0x12
 3553 02b0 06       		.uleb128 0x6
 3554 02b1 40       		.uleb128 0x40
 3555 02b2 18       		.uleb128 0x18
 3556 02b3 9742     		.uleb128 0x2117
 3557 02b5 19       		.uleb128 0x19
 3558 02b6 01       		.uleb128 0x1
 3559 02b7 13       		.uleb128 0x13
 3560 02b8 00       		.byte	0
 3561 02b9 00       		.byte	0
 3562 02ba 2E       		.uleb128 0x2e
 3563 02bb 898201   		.uleb128 0x4109
 3564 02be 01       		.byte	0x1
 3565 02bf 11       		.uleb128 0x11
 3566 02c0 01       		.uleb128 0x1
 3567 02c1 31       		.uleb128 0x31
 3568 02c2 13       		.uleb128 0x13
 3569 02c3 01       		.uleb128 0x1
 3570 02c4 13       		.uleb128 0x13
 3571 02c5 00       		.byte	0
 3572 02c6 00       		.byte	0
 3573 02c7 2F       		.uleb128 0x2f
 3574 02c8 05       		.uleb128 0x5
 3575 02c9 00       		.byte	0
 3576 02ca 03       		.uleb128 0x3
 3577 02cb 08       		.uleb128 0x8
 3578 02cc 3A       		.uleb128 0x3a
 3579 02cd 0B       		.uleb128 0xb
 3580 02ce 3B       		.uleb128 0x3b
 3581 02cf 0B       		.uleb128 0xb
 3582 02d0 39       		.uleb128 0x39
 3583 02d1 0B       		.uleb128 0xb
 3584 02d2 49       		.uleb128 0x49
 3585 02d3 13       		.uleb128 0x13
 3586 02d4 02       		.uleb128 0x2
 3587 02d5 18       		.uleb128 0x18
 3588 02d6 00       		.byte	0
 3589 02d7 00       		.byte	0
 3590 02d8 30       		.uleb128 0x30
 3591 02d9 2E       		.uleb128 0x2e
ARM GAS  /tmp/ccpKsTsb.s 			page 64


 3592 02da 01       		.byte	0x1
 3593 02db 03       		.uleb128 0x3
 3594 02dc 0E       		.uleb128 0xe
 3595 02dd 3A       		.uleb128 0x3a
 3596 02de 0B       		.uleb128 0xb
 3597 02df 3B       		.uleb128 0x3b
 3598 02e0 0B       		.uleb128 0xb
 3599 02e1 39       		.uleb128 0x39
 3600 02e2 0B       		.uleb128 0xb
 3601 02e3 27       		.uleb128 0x27
 3602 02e4 19       		.uleb128 0x19
 3603 02e5 49       		.uleb128 0x49
 3604 02e6 13       		.uleb128 0x13
 3605 02e7 20       		.uleb128 0x20
 3606 02e8 0B       		.uleb128 0xb
 3607 02e9 01       		.uleb128 0x1
 3608 02ea 13       		.uleb128 0x13
 3609 02eb 00       		.byte	0
 3610 02ec 00       		.byte	0
 3611 02ed 31       		.uleb128 0x31
 3612 02ee 34       		.uleb128 0x34
 3613 02ef 00       		.byte	0
 3614 02f0 03       		.uleb128 0x3
 3615 02f1 08       		.uleb128 0x8
 3616 02f2 3A       		.uleb128 0x3a
 3617 02f3 0B       		.uleb128 0xb
 3618 02f4 3B       		.uleb128 0x3b
 3619 02f5 0B       		.uleb128 0xb
 3620 02f6 39       		.uleb128 0x39
 3621 02f7 0B       		.uleb128 0xb
 3622 02f8 49       		.uleb128 0x49
 3623 02f9 13       		.uleb128 0x13
 3624 02fa 00       		.byte	0
 3625 02fb 00       		.byte	0
 3626 02fc 32       		.uleb128 0x32
 3627 02fd 2E       		.uleb128 0x2e
 3628 02fe 01       		.byte	0x1
 3629 02ff 03       		.uleb128 0x3
 3630 0300 0E       		.uleb128 0xe
 3631 0301 3A       		.uleb128 0x3a
 3632 0302 0B       		.uleb128 0xb
 3633 0303 3B       		.uleb128 0x3b
 3634 0304 0B       		.uleb128 0xb
 3635 0305 39       		.uleb128 0x39
 3636 0306 0B       		.uleb128 0xb
 3637 0307 27       		.uleb128 0x27
 3638 0308 19       		.uleb128 0x19
 3639 0309 20       		.uleb128 0x20
 3640 030a 0B       		.uleb128 0xb
 3641 030b 01       		.uleb128 0x1
 3642 030c 13       		.uleb128 0x13
 3643 030d 00       		.byte	0
 3644 030e 00       		.byte	0
 3645 030f 33       		.uleb128 0x33
 3646 0310 2E       		.uleb128 0x2e
 3647 0311 01       		.byte	0x1
 3648 0312 31       		.uleb128 0x31
ARM GAS  /tmp/ccpKsTsb.s 			page 65


 3649 0313 13       		.uleb128 0x13
 3650 0314 11       		.uleb128 0x11
 3651 0315 01       		.uleb128 0x1
 3652 0316 12       		.uleb128 0x12
 3653 0317 06       		.uleb128 0x6
 3654 0318 40       		.uleb128 0x40
 3655 0319 18       		.uleb128 0x18
 3656 031a 9742     		.uleb128 0x2117
 3657 031c 19       		.uleb128 0x19
 3658 031d 01       		.uleb128 0x1
 3659 031e 13       		.uleb128 0x13
 3660 031f 00       		.byte	0
 3661 0320 00       		.byte	0
 3662 0321 34       		.uleb128 0x34
 3663 0322 1D       		.uleb128 0x1d
 3664 0323 01       		.byte	0x1
 3665 0324 31       		.uleb128 0x31
 3666 0325 13       		.uleb128 0x13
 3667 0326 52       		.uleb128 0x52
 3668 0327 01       		.uleb128 0x1
 3669 0328 B842     		.uleb128 0x2138
 3670 032a 0B       		.uleb128 0xb
 3671 032b 11       		.uleb128 0x11
 3672 032c 01       		.uleb128 0x1
 3673 032d 12       		.uleb128 0x12
 3674 032e 06       		.uleb128 0x6
 3675 032f 58       		.uleb128 0x58
 3676 0330 0B       		.uleb128 0xb
 3677 0331 59       		.uleb128 0x59
 3678 0332 0B       		.uleb128 0xb
 3679 0333 57       		.uleb128 0x57
 3680 0334 0B       		.uleb128 0xb
 3681 0335 00       		.byte	0
 3682 0336 00       		.byte	0
 3683 0337 35       		.uleb128 0x35
 3684 0338 898201   		.uleb128 0x4109
 3685 033b 01       		.byte	0x1
 3686 033c 11       		.uleb128 0x11
 3687 033d 01       		.uleb128 0x1
 3688 033e 9542     		.uleb128 0x2115
 3689 0340 19       		.uleb128 0x19
 3690 0341 31       		.uleb128 0x31
 3691 0342 13       		.uleb128 0x13
 3692 0343 00       		.byte	0
 3693 0344 00       		.byte	0
 3694 0345 36       		.uleb128 0x36
 3695 0346 2E       		.uleb128 0x2e
 3696 0347 00       		.byte	0
 3697 0348 3F       		.uleb128 0x3f
 3698 0349 19       		.uleb128 0x19
 3699 034a 3C       		.uleb128 0x3c
 3700 034b 19       		.uleb128 0x19
 3701 034c 6E       		.uleb128 0x6e
 3702 034d 0E       		.uleb128 0xe
 3703 034e 03       		.uleb128 0x3
 3704 034f 0E       		.uleb128 0xe
 3705 0350 3A       		.uleb128 0x3a
ARM GAS  /tmp/ccpKsTsb.s 			page 66


 3706 0351 0B       		.uleb128 0xb
 3707 0352 3B       		.uleb128 0x3b
 3708 0353 0B       		.uleb128 0xb
 3709 0354 39       		.uleb128 0x39
 3710 0355 0B       		.uleb128 0xb
 3711 0356 00       		.byte	0
 3712 0357 00       		.byte	0
 3713 0358 00       		.byte	0
 3714              		.section	.debug_loc,"",%progbits
 3715              	.Ldebug_loc0:
 3716              	.LVUS41:
 3717 0000 00       		.uleb128 0
 3718 0001 00       		.uleb128 .LVU340
 3719 0002 00       		.uleb128 .LVU340
 3720 0003 00       		.uleb128 .LVU377
 3721 0004 00       		.uleb128 .LVU377
 3722 0005 00       		.uleb128 .LVU382
 3723 0006 00       		.uleb128 .LVU382
 3724 0007 00       		.uleb128 .LVU389
 3725 0008 00       		.uleb128 .LVU389
 3726 0009 00       		.uleb128 0
 3727              	.LLST41:
 3728 000a 00000000 		.4byte	.LVL67
 3729 000e 20000000 		.4byte	.LVL68
 3730 0012 0100     		.2byte	0x1
 3731 0014 50       		.byte	0x50
 3732 0015 20000000 		.4byte	.LVL68
 3733 0019 78000000 		.4byte	.LVL76
 3734 001d 0400     		.2byte	0x4
 3735 001f F3       		.byte	0xf3
 3736 0020 01       		.uleb128 0x1
 3737 0021 50       		.byte	0x50
 3738 0022 9F       		.byte	0x9f
 3739 0023 78000000 		.4byte	.LVL76
 3740 0027 80000000 		.4byte	.LVL78
 3741 002b 0100     		.2byte	0x1
 3742 002d 50       		.byte	0x50
 3743 002e 80000000 		.4byte	.LVL78
 3744 0032 8F000000 		.4byte	.LVL80-1
 3745 0036 0100     		.2byte	0x1
 3746 0038 53       		.byte	0x53
 3747 0039 8F000000 		.4byte	.LVL80-1
 3748 003d A0000000 		.4byte	.LFE17
 3749 0041 0400     		.2byte	0x4
 3750 0043 F3       		.byte	0xf3
 3751 0044 01       		.uleb128 0x1
 3752 0045 50       		.byte	0x50
 3753 0046 9F       		.byte	0x9f
 3754 0047 00000000 		.4byte	0
 3755 004b 00000000 		.4byte	0
 3756              	.LVUS42:
 3757 004f 00       		.uleb128 0
 3758 0050 00       		.uleb128 .LVU340
 3759 0051 00       		.uleb128 .LVU340
 3760 0052 00       		.uleb128 .LVU377
 3761 0053 00       		.uleb128 .LVU377
 3762 0054 00       		.uleb128 .LVU389
ARM GAS  /tmp/ccpKsTsb.s 			page 67


 3763 0055 00       		.uleb128 .LVU389
 3764 0056 00       		.uleb128 0
 3765              	.LLST42:
 3766 0057 00000000 		.4byte	.LVL67
 3767 005b 20000000 		.4byte	.LVL68
 3768 005f 0100     		.2byte	0x1
 3769 0061 51       		.byte	0x51
 3770 0062 20000000 		.4byte	.LVL68
 3771 0066 78000000 		.4byte	.LVL76
 3772 006a 0100     		.2byte	0x1
 3773 006c 54       		.byte	0x54
 3774 006d 78000000 		.4byte	.LVL76
 3775 0071 8F000000 		.4byte	.LVL80-1
 3776 0075 0100     		.2byte	0x1
 3777 0077 51       		.byte	0x51
 3778 0078 8F000000 		.4byte	.LVL80-1
 3779 007c A0000000 		.4byte	.LFE17
 3780 0080 0100     		.2byte	0x1
 3781 0082 54       		.byte	0x54
 3782 0083 00000000 		.4byte	0
 3783 0087 00000000 		.4byte	0
 3784              	.LVUS43:
 3785 008b 01       		.uleb128 .LVU345
 3786 008c 00       		.uleb128 .LVU346
 3787 008d 00       		.uleb128 .LVU346
 3788 008e 00       		.uleb128 .LVU351
 3789 008f 00       		.uleb128 .LVU371
 3790 0090 00       		.uleb128 .LVU377
 3791              	.LLST43:
 3792 0091 38000000 		.4byte	.LVL69
 3793 0095 3C000000 		.4byte	.LVL70
 3794 0099 0200     		.2byte	0x2
 3795 009b 30       		.byte	0x30
 3796 009c 9F       		.byte	0x9f
 3797 009d 3C000000 		.4byte	.LVL70
 3798 00a1 44000000 		.4byte	.LVL71
 3799 00a5 0100     		.2byte	0x1
 3800 00a7 50       		.byte	0x50
 3801 00a8 70000000 		.4byte	.LVL75
 3802 00ac 78000000 		.4byte	.LVL76
 3803 00b0 0100     		.2byte	0x1
 3804 00b2 50       		.byte	0x50
 3805 00b3 00000000 		.4byte	0
 3806 00b7 00000000 		.4byte	0
 3807              	.LVUS44:
 3808 00bb 00       		.uleb128 .LVU355
 3809 00bc 00       		.uleb128 .LVU377
 3810              	.LLST44:
 3811 00bd 50000000 		.4byte	.LVL72
 3812 00c1 78000000 		.4byte	.LVL76
 3813 00c5 0100     		.2byte	0x1
 3814 00c7 55       		.byte	0x55
 3815 00c8 00000000 		.4byte	0
 3816 00cc 00000000 		.4byte	0
 3817              	.LVUS45:
 3818 00d0 01       		.uleb128 .LVU356
 3819 00d1 00       		.uleb128 .LVU365
ARM GAS  /tmp/ccpKsTsb.s 			page 68


 3820              	.LLST45:
 3821 00d2 50000000 		.4byte	.LVL72
 3822 00d6 64000000 		.4byte	.LVL73
 3823 00da 0100     		.2byte	0x1
 3824 00dc 54       		.byte	0x54
 3825 00dd 00000000 		.4byte	0
 3826 00e1 00000000 		.4byte	0
 3827              	.LVUS46:
 3828 00e5 01       		.uleb128 .LVU356
 3829 00e6 00       		.uleb128 .LVU365
 3830              	.LLST46:
 3831 00e7 50000000 		.4byte	.LVL72
 3832 00eb 64000000 		.4byte	.LVL73
 3833 00ef 0100     		.2byte	0x1
 3834 00f1 55       		.byte	0x55
 3835 00f2 00000000 		.4byte	0
 3836 00f6 00000000 		.4byte	0
 3837              	.LVUS47:
 3838 00fa 01       		.uleb128 .LVU379
 3839 00fb 01       		.uleb128 .LVU387
 3840              	.LLST47:
 3841 00fc 7C000000 		.4byte	.LVL77
 3842 0100 8C000000 		.4byte	.LVL79
 3843 0104 0100     		.2byte	0x1
 3844 0106 53       		.byte	0x53
 3845 0107 00000000 		.4byte	0
 3846 010b 00000000 		.4byte	0
 3847              	.LVUS48:
 3848 010f 00       		.uleb128 .LVU382
 3849 0110 01       		.uleb128 .LVU387
 3850              	.LLST48:
 3851 0111 80000000 		.4byte	.LVL78
 3852 0115 8C000000 		.4byte	.LVL79
 3853 0119 0100     		.2byte	0x1
 3854 011b 50       		.byte	0x50
 3855 011c 00000000 		.4byte	0
 3856 0120 00000000 		.4byte	0
 3857              	.LVUS37:
 3858 0124 00       		.uleb128 0
 3859 0125 00       		.uleb128 .LVU302
 3860 0126 00       		.uleb128 .LVU302
 3861 0127 00       		.uleb128 0
 3862              	.LLST37:
 3863 0128 00000000 		.4byte	.LVL57
 3864 012c 18000000 		.4byte	.LVL58
 3865 0130 0100     		.2byte	0x1
 3866 0132 50       		.byte	0x50
 3867 0133 18000000 		.4byte	.LVL58
 3868 0137 58000000 		.4byte	.LFE16
 3869 013b 0100     		.2byte	0x1
 3870 013d 55       		.byte	0x55
 3871 013e 00000000 		.4byte	0
 3872 0142 00000000 		.4byte	0
 3873              	.LVUS38:
 3874 0146 00       		.uleb128 0
 3875 0147 00       		.uleb128 .LVU302
 3876 0148 00       		.uleb128 .LVU302
ARM GAS  /tmp/ccpKsTsb.s 			page 69


 3877 0149 01       		.uleb128 .LVU303
 3878 014a 01       		.uleb128 .LVU303
 3879 014b 00       		.uleb128 .LVU304
 3880 014c 00       		.uleb128 .LVU304
 3881 014d 00       		.uleb128 .LVU320
 3882 014e 00       		.uleb128 .LVU320
 3883 014f 01       		.uleb128 .LVU322
 3884              	.LLST38:
 3885 0150 00000000 		.4byte	.LVL57
 3886 0154 18000000 		.4byte	.LVL58
 3887 0158 0100     		.2byte	0x1
 3888 015a 51       		.byte	0x51
 3889 015b 18000000 		.4byte	.LVL58
 3890 015f 18000000 		.4byte	.LVL58
 3891 0163 0100     		.2byte	0x1
 3892 0165 54       		.byte	0x54
 3893 0166 18000000 		.4byte	.LVL58
 3894 016a 1C000000 		.4byte	.LVL59
 3895 016e 0300     		.2byte	0x3
 3896 0170 74       		.byte	0x74
 3897 0171 7F       		.sleb128 -1
 3898 0172 9F       		.byte	0x9f
 3899 0173 1C000000 		.4byte	.LVL59
 3900 0177 4C000000 		.4byte	.LVL65
 3901 017b 0100     		.2byte	0x1
 3902 017d 54       		.byte	0x54
 3903 017e 4C000000 		.4byte	.LVL65
 3904 0182 50000000 		.4byte	.LVL66
 3905 0186 0300     		.2byte	0x3
 3906 0188 74       		.byte	0x74
 3907 0189 01       		.sleb128 1
 3908 018a 9F       		.byte	0x9f
 3909 018b 00000000 		.4byte	0
 3910 018f 00000000 		.4byte	0
 3911              	.LVUS39:
 3912 0193 01       		.uleb128 .LVU309
 3913 0194 01       		.uleb128 .LVU317
 3914              	.LLST39:
 3915 0195 34000000 		.4byte	.LVL61
 3916 0199 44000000 		.4byte	.LVL63
 3917 019d 0100     		.2byte	0x1
 3918 019f 55       		.byte	0x55
 3919 01a0 00000000 		.4byte	0
 3920 01a4 00000000 		.4byte	0
 3921              	.LVUS40:
 3922 01a8 00       		.uleb128 .LVU312
 3923 01a9 01       		.uleb128 .LVU317
 3924              	.LLST40:
 3925 01aa 38000000 		.4byte	.LVL62
 3926 01ae 44000000 		.4byte	.LVL63
 3927 01b2 0100     		.2byte	0x1
 3928 01b4 50       		.byte	0x50
 3929 01b5 00000000 		.4byte	0
 3930 01b9 00000000 		.4byte	0
 3931              	.LVUS33:
 3932 01bd 00       		.uleb128 0
 3933 01be 00       		.uleb128 .LVU282
ARM GAS  /tmp/ccpKsTsb.s 			page 70


 3934 01bf 00       		.uleb128 .LVU282
 3935 01c0 00       		.uleb128 .LVU291
 3936 01c1 00       		.uleb128 .LVU291
 3937 01c2 00       		.uleb128 0
 3938              	.LLST33:
 3939 01c3 00000000 		.4byte	.LVL52
 3940 01c7 20000000 		.4byte	.LVL54
 3941 01cb 0100     		.2byte	0x1
 3942 01cd 50       		.byte	0x50
 3943 01ce 20000000 		.4byte	.LVL54
 3944 01d2 33000000 		.4byte	.LVL56-1
 3945 01d6 0100     		.2byte	0x1
 3946 01d8 53       		.byte	0x53
 3947 01d9 33000000 		.4byte	.LVL56-1
 3948 01dd 34000000 		.4byte	.LFE15
 3949 01e1 0400     		.2byte	0x4
 3950 01e3 F3       		.byte	0xf3
 3951 01e4 01       		.uleb128 0x1
 3952 01e5 50       		.byte	0x50
 3953 01e6 9F       		.byte	0x9f
 3954 01e7 00000000 		.4byte	0
 3955 01eb 00000000 		.4byte	0
 3956              	.LVUS34:
 3957 01ef 01       		.uleb128 .LVU287
 3958 01f0 00       		.uleb128 .LVU291
 3959              	.LLST34:
 3960 01f1 2C000000 		.4byte	.LVL55
 3961 01f5 33000000 		.4byte	.LVL56-1
 3962 01f9 0100     		.2byte	0x1
 3963 01fb 50       		.byte	0x50
 3964 01fc 00000000 		.4byte	0
 3965 0200 00000000 		.4byte	0
 3966              	.LVUS35:
 3967 0204 01       		.uleb128 .LVU278
 3968 0205 00       		.uleb128 .LVU282
 3969 0206 00       		.uleb128 .LVU282
 3970 0207 01       		.uleb128 .LVU287
 3971              	.LLST35:
 3972 0208 18000000 		.4byte	.LVL53
 3973 020c 20000000 		.4byte	.LVL54
 3974 0210 0100     		.2byte	0x1
 3975 0212 50       		.byte	0x50
 3976 0213 20000000 		.4byte	.LVL54
 3977 0217 2C000000 		.4byte	.LVL55
 3978 021b 0100     		.2byte	0x1
 3979 021d 53       		.byte	0x53
 3980 021e 00000000 		.4byte	0
 3981 0222 00000000 		.4byte	0
 3982              	.LVUS36:
 3983 0226 00       		.uleb128 .LVU282
 3984 0227 01       		.uleb128 .LVU287
 3985              	.LLST36:
 3986 0228 20000000 		.4byte	.LVL54
 3987 022c 2C000000 		.4byte	.LVL55
 3988 0230 0100     		.2byte	0x1
 3989 0232 50       		.byte	0x50
 3990 0233 00000000 		.4byte	0
ARM GAS  /tmp/ccpKsTsb.s 			page 71


 3991 0237 00000000 		.4byte	0
 3992              	.LVUS30:
 3993 023b 00       		.uleb128 0
 3994 023c 00       		.uleb128 .LVU252
 3995 023d 00       		.uleb128 .LVU252
 3996 023e 00       		.uleb128 .LVU261
 3997 023f 00       		.uleb128 .LVU261
 3998 0240 00       		.uleb128 0
 3999              	.LLST30:
 4000 0241 00000000 		.4byte	.LVL47
 4001 0245 28000000 		.4byte	.LVL49
 4002 0249 0100     		.2byte	0x1
 4003 024b 50       		.byte	0x50
 4004 024c 28000000 		.4byte	.LVL49
 4005 0250 3F000000 		.4byte	.LVL51-1
 4006 0254 0100     		.2byte	0x1
 4007 0256 53       		.byte	0x53
 4008 0257 3F000000 		.4byte	.LVL51-1
 4009 025b 48000000 		.4byte	.LFE14
 4010 025f 0400     		.2byte	0x4
 4011 0261 F3       		.byte	0xf3
 4012 0262 01       		.uleb128 0x1
 4013 0263 50       		.byte	0x50
 4014 0264 9F       		.byte	0x9f
 4015 0265 00000000 		.4byte	0
 4016 0269 00000000 		.4byte	0
 4017              	.LVUS31:
 4018 026d 01       		.uleb128 .LVU249
 4019 026e 01       		.uleb128 .LVU259
 4020              	.LLST31:
 4021 026f 24000000 		.4byte	.LVL48
 4022 0273 3C000000 		.4byte	.LVL50
 4023 0277 0100     		.2byte	0x1
 4024 0279 53       		.byte	0x53
 4025 027a 00000000 		.4byte	0
 4026 027e 00000000 		.4byte	0
 4027              	.LVUS32:
 4028 0282 00       		.uleb128 .LVU252
 4029 0283 01       		.uleb128 .LVU259
 4030              	.LLST32:
 4031 0284 28000000 		.4byte	.LVL49
 4032 0288 3C000000 		.4byte	.LVL50
 4033 028c 0100     		.2byte	0x1
 4034 028e 50       		.byte	0x50
 4035 028f 00000000 		.4byte	0
 4036 0293 00000000 		.4byte	0
 4037              	.LVUS17:
 4038 0297 00       		.uleb128 0
 4039 0298 00       		.uleb128 .LVU157
 4040 0299 00       		.uleb128 .LVU157
 4041 029a 00       		.uleb128 .LVU189
 4042 029b 00       		.uleb128 .LVU189
 4043 029c 00       		.uleb128 0
 4044              	.LLST17:
 4045 029d 00000000 		.4byte	.LVL32
 4046 02a1 10000000 		.4byte	.LVL34
 4047 02a5 0100     		.2byte	0x1
ARM GAS  /tmp/ccpKsTsb.s 			page 72


 4048 02a7 50       		.byte	0x50
 4049 02a8 10000000 		.4byte	.LVL34
 4050 02ac 5F000000 		.4byte	.LVL40-1
 4051 02b0 0100     		.2byte	0x1
 4052 02b2 53       		.byte	0x53
 4053 02b3 5F000000 		.4byte	.LVL40-1
 4054 02b7 6C000000 		.4byte	.LFE12
 4055 02bb 0400     		.2byte	0x4
 4056 02bd F3       		.byte	0xf3
 4057 02be 01       		.uleb128 0x1
 4058 02bf 50       		.byte	0x50
 4059 02c0 9F       		.byte	0x9f
 4060 02c1 00000000 		.4byte	0
 4061 02c5 00000000 		.4byte	0
 4062              	.LVUS18:
 4063 02c9 00       		.uleb128 0
 4064 02ca 00       		.uleb128 .LVU189
 4065 02cb 00       		.uleb128 .LVU189
 4066 02cc 00       		.uleb128 0
 4067              	.LLST18:
 4068 02cd 00000000 		.4byte	.LVL32
 4069 02d1 5F000000 		.4byte	.LVL40-1
 4070 02d5 0100     		.2byte	0x1
 4071 02d7 51       		.byte	0x51
 4072 02d8 5F000000 		.4byte	.LVL40-1
 4073 02dc 6C000000 		.4byte	.LFE12
 4074 02e0 0400     		.2byte	0x4
 4075 02e2 F3       		.byte	0xf3
 4076 02e3 01       		.uleb128 0x1
 4077 02e4 51       		.byte	0x51
 4078 02e5 9F       		.byte	0x9f
 4079 02e6 00000000 		.4byte	0
 4080 02ea 00000000 		.4byte	0
 4081              	.LVUS19:
 4082 02ee 00       		.uleb128 .LVU160
 4083 02ef 00       		.uleb128 .LVU166
 4084 02f0 00       		.uleb128 .LVU189
 4085 02f1 00       		.uleb128 0
 4086              	.LLST19:
 4087 02f2 20000000 		.4byte	.LVL35
 4088 02f6 28000000 		.4byte	.LVL36
 4089 02fa 0100     		.2byte	0x1
 4090 02fc 50       		.byte	0x50
 4091 02fd 60000000 		.4byte	.LVL40
 4092 0301 6C000000 		.4byte	.LFE12
 4093 0305 0100     		.2byte	0x1
 4094 0307 50       		.byte	0x50
 4095 0308 00000000 		.4byte	0
 4096 030c 00000000 		.4byte	0
 4097              	.LVUS20:
 4098 0310 03       		.uleb128 .LVU148
 4099 0311 00       		.uleb128 .LVU160
 4100 0312 00       		.uleb128 .LVU166
 4101 0313 00       		.uleb128 .LVU189
 4102 0314 00       		.uleb128 .LVU189
 4103 0315 00       		.uleb128 .LVU189
 4104              	.LLST20:
ARM GAS  /tmp/ccpKsTsb.s 			page 73


 4105 0316 08000000 		.4byte	.LVL33
 4106 031a 20000000 		.4byte	.LVL35
 4107 031e 0100     		.2byte	0x1
 4108 0320 51       		.byte	0x51
 4109 0321 28000000 		.4byte	.LVL36
 4110 0325 5F000000 		.4byte	.LVL40-1
 4111 0329 0100     		.2byte	0x1
 4112 032b 51       		.byte	0x51
 4113 032c 5F000000 		.4byte	.LVL40-1
 4114 0330 60000000 		.4byte	.LVL40
 4115 0334 0400     		.2byte	0x4
 4116 0336 F3       		.byte	0xf3
 4117 0337 01       		.uleb128 0x1
 4118 0338 51       		.byte	0x51
 4119 0339 9F       		.byte	0x9f
 4120 033a 00000000 		.4byte	0
 4121 033e 00000000 		.4byte	0
 4122              	.LVUS21:
 4123 0342 03       		.uleb128 .LVU148
 4124 0343 00       		.uleb128 .LVU157
 4125 0344 00       		.uleb128 .LVU157
 4126 0345 00       		.uleb128 .LVU160
 4127 0346 00       		.uleb128 .LVU166
 4128 0347 00       		.uleb128 .LVU189
 4129 0348 00       		.uleb128 .LVU189
 4130 0349 00       		.uleb128 .LVU189
 4131              	.LLST21:
 4132 034a 08000000 		.4byte	.LVL33
 4133 034e 10000000 		.4byte	.LVL34
 4134 0352 0100     		.2byte	0x1
 4135 0354 50       		.byte	0x50
 4136 0355 10000000 		.4byte	.LVL34
 4137 0359 20000000 		.4byte	.LVL35
 4138 035d 0100     		.2byte	0x1
 4139 035f 53       		.byte	0x53
 4140 0360 28000000 		.4byte	.LVL36
 4141 0364 5F000000 		.4byte	.LVL40-1
 4142 0368 0100     		.2byte	0x1
 4143 036a 53       		.byte	0x53
 4144 036b 5F000000 		.4byte	.LVL40-1
 4145 036f 60000000 		.4byte	.LVL40
 4146 0373 0400     		.2byte	0x4
 4147 0375 F3       		.byte	0xf3
 4148 0376 01       		.uleb128 0x1
 4149 0377 50       		.byte	0x50
 4150 0378 9F       		.byte	0x9f
 4151 0379 00000000 		.4byte	0
 4152 037d 00000000 		.4byte	0
 4153              	.LVUS22:
 4154 0381 00       		.uleb128 .LVU172
 4155 0382 00       		.uleb128 .LVU189
 4156 0383 00       		.uleb128 .LVU189
 4157 0384 00       		.uleb128 .LVU189
 4158              	.LLST22:
 4159 0385 38000000 		.4byte	.LVL37
 4160 0389 5F000000 		.4byte	.LVL40-1
 4161 038d 0100     		.2byte	0x1
ARM GAS  /tmp/ccpKsTsb.s 			page 74


 4162 038f 53       		.byte	0x53
 4163 0390 5F000000 		.4byte	.LVL40-1
 4164 0394 60000000 		.4byte	.LVL40
 4165 0398 0400     		.2byte	0x4
 4166 039a F3       		.byte	0xf3
 4167 039b 01       		.uleb128 0x1
 4168 039c 50       		.byte	0x50
 4169 039d 9F       		.byte	0x9f
 4170 039e 00000000 		.4byte	0
 4171 03a2 00000000 		.4byte	0
 4172              	.LVUS23:
 4173 03a6 01       		.uleb128 .LVU181
 4174 03a7 00       		.uleb128 .LVU186
 4175              	.LLST23:
 4176 03a8 54000000 		.4byte	.LVL38
 4177 03ac 5C000000 		.4byte	.LVL39
 4178 03b0 0100     		.2byte	0x1
 4179 03b2 53       		.byte	0x53
 4180 03b3 00000000 		.4byte	0
 4181 03b7 00000000 		.4byte	0
 4182              	.LVUS24:
 4183 03bb 01       		.uleb128 .LVU181
 4184 03bc 00       		.uleb128 .LVU186
 4185              	.LLST24:
 4186 03bd 54000000 		.4byte	.LVL38
 4187 03c1 5C000000 		.4byte	.LVL39
 4188 03c5 0100     		.2byte	0x1
 4189 03c7 52       		.byte	0x52
 4190 03c8 00000000 		.4byte	0
 4191 03cc 00000000 		.4byte	0
 4192              	.LVUS7:
 4193 03d0 00       		.uleb128 0
 4194 03d1 00       		.uleb128 .LVU70
 4195 03d2 00       		.uleb128 .LVU70
 4196 03d3 00       		.uleb128 .LVU76
 4197 03d4 00       		.uleb128 .LVU76
 4198 03d5 00       		.uleb128 .LVU84
 4199 03d6 00       		.uleb128 .LVU84
 4200 03d7 00       		.uleb128 .LVU96
 4201 03d8 00       		.uleb128 .LVU96
 4202 03d9 00       		.uleb128 0
 4203              	.LLST7:
 4204 03da 00000000 		.4byte	.LVL13
 4205 03de 1C000000 		.4byte	.LVL15
 4206 03e2 0100     		.2byte	0x1
 4207 03e4 50       		.byte	0x50
 4208 03e5 1C000000 		.4byte	.LVL15
 4209 03e9 24000000 		.4byte	.LVL16
 4210 03ed 0400     		.2byte	0x4
 4211 03ef F3       		.byte	0xf3
 4212 03f0 01       		.uleb128 0x1
 4213 03f1 50       		.byte	0x50
 4214 03f2 9F       		.byte	0x9f
 4215 03f3 24000000 		.4byte	.LVL16
 4216 03f7 3C000000 		.4byte	.LVL18
 4217 03fb 0100     		.2byte	0x1
 4218 03fd 50       		.byte	0x50
ARM GAS  /tmp/ccpKsTsb.s 			page 75


 4219 03fe 3C000000 		.4byte	.LVL18
 4220 0402 53000000 		.4byte	.LVL21-1
 4221 0406 0100     		.2byte	0x1
 4222 0408 53       		.byte	0x53
 4223 0409 53000000 		.4byte	.LVL21-1
 4224 040d 68000000 		.4byte	.LFE10
 4225 0411 0400     		.2byte	0x4
 4226 0413 F3       		.byte	0xf3
 4227 0414 01       		.uleb128 0x1
 4228 0415 50       		.byte	0x50
 4229 0416 9F       		.byte	0x9f
 4230 0417 00000000 		.4byte	0
 4231 041b 00000000 		.4byte	0
 4232              	.LVUS8:
 4233 041f 00       		.uleb128 .LVU70
 4234 0420 00       		.uleb128 .LVU76
 4235 0421 00       		.uleb128 .LVU98
 4236 0422 00       		.uleb128 0
 4237              	.LLST8:
 4238 0423 1C000000 		.4byte	.LVL15
 4239 0427 24000000 		.4byte	.LVL16
 4240 042b 0100     		.2byte	0x1
 4241 042d 50       		.byte	0x50
 4242 042e 5C000000 		.4byte	.LVL22
 4243 0432 68000000 		.4byte	.LFE10
 4244 0436 0100     		.2byte	0x1
 4245 0438 50       		.byte	0x50
 4246 0439 00000000 		.4byte	0
 4247 043d 00000000 		.4byte	0
 4248              	.LVUS9:
 4249 0441 03       		.uleb128 .LVU59
 4250 0442 00       		.uleb128 .LVU70
 4251 0443 00       		.uleb128 .LVU76
 4252 0444 00       		.uleb128 .LVU84
 4253 0445 00       		.uleb128 .LVU84
 4254 0446 00       		.uleb128 .LVU96
 4255 0447 00       		.uleb128 .LVU96
 4256 0448 00       		.uleb128 .LVU98
 4257              	.LLST9:
 4258 0449 04000000 		.4byte	.LVL14
 4259 044d 1C000000 		.4byte	.LVL15
 4260 0451 0100     		.2byte	0x1
 4261 0453 50       		.byte	0x50
 4262 0454 24000000 		.4byte	.LVL16
 4263 0458 3C000000 		.4byte	.LVL18
 4264 045c 0100     		.2byte	0x1
 4265 045e 50       		.byte	0x50
 4266 045f 3C000000 		.4byte	.LVL18
 4267 0463 53000000 		.4byte	.LVL21-1
 4268 0467 0100     		.2byte	0x1
 4269 0469 53       		.byte	0x53
 4270 046a 53000000 		.4byte	.LVL21-1
 4271 046e 5C000000 		.4byte	.LVL22
 4272 0472 0400     		.2byte	0x4
 4273 0474 F3       		.byte	0xf3
 4274 0475 01       		.uleb128 0x1
 4275 0476 50       		.byte	0x50
ARM GAS  /tmp/ccpKsTsb.s 			page 76


 4276 0477 9F       		.byte	0x9f
 4277 0478 00000000 		.4byte	0
 4278 047c 00000000 		.4byte	0
 4279              	.LVUS10:
 4280 0480 00       		.uleb128 .LVU77
 4281 0481 00       		.uleb128 .LVU96
 4282 0482 00       		.uleb128 .LVU96
 4283 0483 00       		.uleb128 .LVU98
 4284              	.LLST10:
 4285 0484 28000000 		.4byte	.LVL17
 4286 0488 53000000 		.4byte	.LVL21-1
 4287 048c 0100     		.2byte	0x1
 4288 048e 53       		.byte	0x53
 4289 048f 53000000 		.4byte	.LVL21-1
 4290 0493 5C000000 		.4byte	.LVL22
 4291 0497 0400     		.2byte	0x4
 4292 0499 F3       		.byte	0xf3
 4293 049a 01       		.uleb128 0x1
 4294 049b 50       		.byte	0x50
 4295 049c 9F       		.byte	0x9f
 4296 049d 00000000 		.4byte	0
 4297 04a1 00000000 		.4byte	0
 4298              	.LVUS11:
 4299 04a5 01       		.uleb128 .LVU86
 4300 04a6 00       		.uleb128 .LVU94
 4301              	.LLST11:
 4302 04a7 40000000 		.4byte	.LVL19
 4303 04ab 50000000 		.4byte	.LVL20
 4304 04af 0100     		.2byte	0x1
 4305 04b1 53       		.byte	0x53
 4306 04b2 00000000 		.4byte	0
 4307 04b6 00000000 		.4byte	0
 4308              	.LVUS12:
 4309 04ba 01       		.uleb128 .LVU86
 4310 04bb 00       		.uleb128 .LVU94
 4311              	.LLST12:
 4312 04bc 40000000 		.4byte	.LVL19
 4313 04c0 50000000 		.4byte	.LVL20
 4314 04c4 0100     		.2byte	0x1
 4315 04c6 52       		.byte	0x52
 4316 04c7 00000000 		.4byte	0
 4317 04cb 00000000 		.4byte	0
 4318              	.LVUS0:
 4319 04cf 00       		.uleb128 0
 4320 04d0 00       		.uleb128 .LVU25
 4321 04d1 00       		.uleb128 .LVU25
 4322 04d2 00       		.uleb128 0
 4323              	.LLST0:
 4324 04d3 00000000 		.4byte	.LVL1
 4325 04d7 20000000 		.4byte	.LVL4
 4326 04db 0100     		.2byte	0x1
 4327 04dd 50       		.byte	0x50
 4328 04de 20000000 		.4byte	.LVL4
 4329 04e2 48000000 		.4byte	.LFE9
 4330 04e6 0100     		.2byte	0x1
 4331 04e8 54       		.byte	0x54
 4332 04e9 00000000 		.4byte	0
ARM GAS  /tmp/ccpKsTsb.s 			page 77


 4333 04ed 00000000 		.4byte	0
 4334              	.LVUS1:
 4335 04f1 00       		.uleb128 0
 4336 04f2 00       		.uleb128 .LVU25
 4337 04f3 00       		.uleb128 .LVU25
 4338 04f4 00       		.uleb128 0
 4339              	.LLST1:
 4340 04f5 00000000 		.4byte	.LVL1
 4341 04f9 20000000 		.4byte	.LVL4
 4342 04fd 0100     		.2byte	0x1
 4343 04ff 51       		.byte	0x51
 4344 0500 20000000 		.4byte	.LVL4
 4345 0504 48000000 		.4byte	.LFE9
 4346 0508 0400     		.2byte	0x4
 4347 050a F3       		.byte	0xf3
 4348 050b 01       		.uleb128 0x1
 4349 050c 51       		.byte	0x51
 4350 050d 9F       		.byte	0x9f
 4351 050e 00000000 		.4byte	0
 4352 0512 00000000 		.4byte	0
 4353              	.LVUS2:
 4354 0516 02       		.uleb128 .LVU19
 4355 0517 00       		.uleb128 .LVU31
 4356 0518 00       		.uleb128 .LVU31
 4357 0519 00       		.uleb128 .LVU39
 4358 051a 01       		.uleb128 .LVU40
 4359 051b 00       		.uleb128 0
 4360              	.LLST2:
 4361 051c 08000000 		.4byte	.LVL2
 4362 0520 28000000 		.4byte	.LVL6
 4363 0524 0100     		.2byte	0x1
 4364 0526 55       		.byte	0x55
 4365 0527 28000000 		.4byte	.LVL6
 4366 052b 40000000 		.4byte	.LVL9
 4367 052f 0300     		.2byte	0x3
 4368 0531 75       		.byte	0x75
 4369 0532 7F       		.sleb128 -1
 4370 0533 9F       		.byte	0x9f
 4371 0534 40000000 		.4byte	.LVL9
 4372 0538 48000000 		.4byte	.LFE9
 4373 053c 0100     		.2byte	0x1
 4374 053e 55       		.byte	0x55
 4375 053f 00000000 		.4byte	0
 4376 0543 00000000 		.4byte	0
 4377              	.LVUS3:
 4378 0547 01       		.uleb128 .LVU26
 4379 0548 01       		.uleb128 .LVU35
 4380              	.LLST3:
 4381 0549 20000000 		.4byte	.LVL4
 4382 054d 34000000 		.4byte	.LVL7
 4383 0551 0100     		.2byte	0x1
 4384 0553 54       		.byte	0x54
 4385 0554 00000000 		.4byte	0
 4386 0558 00000000 		.4byte	0
 4387              	.LVUS4:
 4388 055c 00       		.uleb128 .LVU29
 4389 055d 01       		.uleb128 .LVU35
ARM GAS  /tmp/ccpKsTsb.s 			page 78


 4390              	.LLST4:
 4391 055e 24000000 		.4byte	.LVL5
 4392 0562 34000000 		.4byte	.LVL7
 4393 0566 0100     		.2byte	0x1
 4394 0568 50       		.byte	0x50
 4395 0569 00000000 		.4byte	0
 4396 056d 00000000 		.4byte	0
 4397              	.LVUS5:
 4398 0571 00       		.uleb128 0
 4399 0572 00       		.uleb128 .LVU48
 4400 0573 00       		.uleb128 .LVU48
 4401 0574 00       		.uleb128 0
 4402              	.LLST5:
 4403 0575 00000000 		.4byte	.LVL10
 4404 0579 0B000000 		.4byte	.LVL11-1
 4405 057d 0100     		.2byte	0x1
 4406 057f 50       		.byte	0x50
 4407 0580 0B000000 		.4byte	.LVL11-1
 4408 0584 18000000 		.4byte	.LFE8
 4409 0588 0400     		.2byte	0x4
 4410 058a F3       		.byte	0xf3
 4411 058b 01       		.uleb128 0x1
 4412 058c 50       		.byte	0x50
 4413 058d 9F       		.byte	0x9f
 4414 058e 00000000 		.4byte	0
 4415 0592 00000000 		.4byte	0
 4416              	.LVUS6:
 4417 0596 00       		.uleb128 0
 4418 0597 00       		.uleb128 .LVU48
 4419 0598 00       		.uleb128 .LVU48
 4420 0599 00       		.uleb128 0
 4421              	.LLST6:
 4422 059a 00000000 		.4byte	.LVL10
 4423 059e 0B000000 		.4byte	.LVL11-1
 4424 05a2 0100     		.2byte	0x1
 4425 05a4 51       		.byte	0x51
 4426 05a5 0B000000 		.4byte	.LVL11-1
 4427 05a9 18000000 		.4byte	.LFE8
 4428 05ad 0400     		.2byte	0x4
 4429 05af F3       		.byte	0xf3
 4430 05b0 01       		.uleb128 0x1
 4431 05b1 51       		.byte	0x51
 4432 05b2 9F       		.byte	0x9f
 4433 05b3 00000000 		.4byte	0
 4434 05b7 00000000 		.4byte	0
 4435              	.LVUS13:
 4436 05bb 00       		.uleb128 0
 4437 05bc 00       		.uleb128 .LVU115
 4438 05bd 00       		.uleb128 .LVU115
 4439 05be 00       		.uleb128 .LVU116
 4440 05bf 00       		.uleb128 .LVU116
 4441 05c0 00       		.uleb128 .LVU124
 4442 05c1 00       		.uleb128 .LVU124
 4443 05c2 00       		.uleb128 .LVU136
 4444 05c3 00       		.uleb128 .LVU136
 4445 05c4 00       		.uleb128 0
 4446              	.LLST13:
ARM GAS  /tmp/ccpKsTsb.s 			page 79


 4447 05c5 00000000 		.4byte	.LVL23
 4448 05c9 18000000 		.4byte	.LVL24
 4449 05cd 0100     		.2byte	0x1
 4450 05cf 50       		.byte	0x50
 4451 05d0 18000000 		.4byte	.LVL24
 4452 05d4 1C000000 		.4byte	.LVL25
 4453 05d8 0400     		.2byte	0x4
 4454 05da F3       		.byte	0xf3
 4455 05db 01       		.uleb128 0x1
 4456 05dc 50       		.byte	0x50
 4457 05dd 9F       		.byte	0x9f
 4458 05de 1C000000 		.4byte	.LVL25
 4459 05e2 34000000 		.4byte	.LVL27
 4460 05e6 0100     		.2byte	0x1
 4461 05e8 50       		.byte	0x50
 4462 05e9 34000000 		.4byte	.LVL27
 4463 05ed 4B000000 		.4byte	.LVL30-1
 4464 05f1 0100     		.2byte	0x1
 4465 05f3 53       		.byte	0x53
 4466 05f4 4B000000 		.4byte	.LVL30-1
 4467 05f8 5C000000 		.4byte	.LFE11
 4468 05fc 0400     		.2byte	0x4
 4469 05fe F3       		.byte	0xf3
 4470 05ff 01       		.uleb128 0x1
 4471 0600 50       		.byte	0x50
 4472 0601 9F       		.byte	0x9f
 4473 0602 00000000 		.4byte	0
 4474 0606 00000000 		.4byte	0
 4475              	.LVUS14:
 4476 060a 00       		.uleb128 .LVU117
 4477 060b 00       		.uleb128 .LVU136
 4478 060c 00       		.uleb128 .LVU136
 4479 060d 00       		.uleb128 .LVU138
 4480              	.LLST14:
 4481 060e 20000000 		.4byte	.LVL26
 4482 0612 4B000000 		.4byte	.LVL30-1
 4483 0616 0100     		.2byte	0x1
 4484 0618 53       		.byte	0x53
 4485 0619 4B000000 		.4byte	.LVL30-1
 4486 061d 54000000 		.4byte	.LVL31
 4487 0621 0400     		.2byte	0x4
 4488 0623 F3       		.byte	0xf3
 4489 0624 01       		.uleb128 0x1
 4490 0625 50       		.byte	0x50
 4491 0626 9F       		.byte	0x9f
 4492 0627 00000000 		.4byte	0
 4493 062b 00000000 		.4byte	0
 4494              	.LVUS15:
 4495 062f 01       		.uleb128 .LVU126
 4496 0630 00       		.uleb128 .LVU134
 4497              	.LLST15:
 4498 0631 38000000 		.4byte	.LVL28
 4499 0635 48000000 		.4byte	.LVL29
 4500 0639 0100     		.2byte	0x1
 4501 063b 53       		.byte	0x53
 4502 063c 00000000 		.4byte	0
 4503 0640 00000000 		.4byte	0
ARM GAS  /tmp/ccpKsTsb.s 			page 80


 4504              	.LVUS16:
 4505 0644 01       		.uleb128 .LVU126
 4506 0645 00       		.uleb128 .LVU134
 4507              	.LLST16:
 4508 0646 38000000 		.4byte	.LVL28
 4509 064a 48000000 		.4byte	.LVL29
 4510 064e 0100     		.2byte	0x1
 4511 0650 52       		.byte	0x52
 4512 0651 00000000 		.4byte	0
 4513 0655 00000000 		.4byte	0
 4514              	.LVUS25:
 4515 0659 00       		.uleb128 0
 4516 065a 00       		.uleb128 .LVU206
 4517 065b 00       		.uleb128 .LVU206
 4518 065c 00       		.uleb128 .LVU227
 4519 065d 00       		.uleb128 .LVU227
 4520 065e 00       		.uleb128 .LVU227
 4521 065f 00       		.uleb128 .LVU227
 4522 0660 00       		.uleb128 0
 4523              	.LLST25:
 4524 0661 00000000 		.4byte	.LVL41
 4525 0665 0C000000 		.4byte	.LVL42
 4526 0669 0100     		.2byte	0x1
 4527 066b 50       		.byte	0x50
 4528 066c 0C000000 		.4byte	.LVL42
 4529 0670 4B000000 		.4byte	.LVL46-1
 4530 0674 0100     		.2byte	0x1
 4531 0676 53       		.byte	0x53
 4532 0677 4B000000 		.4byte	.LVL46-1
 4533 067b 4C000000 		.4byte	.LVL46
 4534 067f 0400     		.2byte	0x4
 4535 0681 F3       		.byte	0xf3
 4536 0682 01       		.uleb128 0x1
 4537 0683 50       		.byte	0x50
 4538 0684 9F       		.byte	0x9f
 4539 0685 4C000000 		.4byte	.LVL46
 4540 0689 5C000000 		.4byte	.LFE13
 4541 068d 0100     		.2byte	0x1
 4542 068f 53       		.byte	0x53
 4543 0690 00000000 		.4byte	0
 4544 0694 00000000 		.4byte	0
 4545              	.LVUS26:
 4546 0698 00       		.uleb128 0
 4547 0699 00       		.uleb128 .LVU227
 4548 069a 00       		.uleb128 .LVU227
 4549 069b 00       		.uleb128 .LVU227
 4550 069c 00       		.uleb128 .LVU227
 4551 069d 00       		.uleb128 0
 4552              	.LLST26:
 4553 069e 00000000 		.4byte	.LVL41
 4554 06a2 4B000000 		.4byte	.LVL46-1
 4555 06a6 0100     		.2byte	0x1
 4556 06a8 51       		.byte	0x51
 4557 06a9 4B000000 		.4byte	.LVL46-1
 4558 06ad 4C000000 		.4byte	.LVL46
 4559 06b1 0400     		.2byte	0x4
 4560 06b3 F3       		.byte	0xf3
ARM GAS  /tmp/ccpKsTsb.s 			page 81


 4561 06b4 01       		.uleb128 0x1
 4562 06b5 51       		.byte	0x51
 4563 06b6 9F       		.byte	0x9f
 4564 06b7 4C000000 		.4byte	.LVL46
 4565 06bb 5C000000 		.4byte	.LFE13
 4566 06bf 0100     		.2byte	0x1
 4567 06c1 51       		.byte	0x51
 4568 06c2 00000000 		.4byte	0
 4569 06c6 00000000 		.4byte	0
 4570              	.LVUS27:
 4571 06ca 00       		.uleb128 .LVU211
 4572 06cb 00       		.uleb128 .LVU227
 4573 06cc 00       		.uleb128 .LVU227
 4574 06cd 00       		.uleb128 .LVU227
 4575              	.LLST27:
 4576 06ce 28000000 		.4byte	.LVL43
 4577 06d2 4B000000 		.4byte	.LVL46-1
 4578 06d6 0100     		.2byte	0x1
 4579 06d8 53       		.byte	0x53
 4580 06d9 4B000000 		.4byte	.LVL46-1
 4581 06dd 4C000000 		.4byte	.LVL46
 4582 06e1 0400     		.2byte	0x4
 4583 06e3 F3       		.byte	0xf3
 4584 06e4 01       		.uleb128 0x1
 4585 06e5 50       		.byte	0x50
 4586 06e6 9F       		.byte	0x9f
 4587 06e7 00000000 		.4byte	0
 4588 06eb 00000000 		.4byte	0
 4589              	.LVUS28:
 4590 06ef 01       		.uleb128 .LVU219
 4591 06f0 00       		.uleb128 .LVU224
 4592              	.LLST28:
 4593 06f1 40000000 		.4byte	.LVL44
 4594 06f5 48000000 		.4byte	.LVL45
 4595 06f9 0100     		.2byte	0x1
 4596 06fb 53       		.byte	0x53
 4597 06fc 00000000 		.4byte	0
 4598 0700 00000000 		.4byte	0
 4599              	.LVUS29:
 4600 0704 01       		.uleb128 .LVU219
 4601 0705 00       		.uleb128 .LVU224
 4602              	.LLST29:
 4603 0706 40000000 		.4byte	.LVL44
 4604 070a 48000000 		.4byte	.LVL45
 4605 070e 0100     		.2byte	0x1
 4606 0710 52       		.byte	0x52
 4607 0711 00000000 		.4byte	0
 4608 0715 00000000 		.4byte	0
 4609              		.section	.debug_aranges,"",%progbits
 4610 0000 6C000000 		.4byte	0x6c
 4611 0004 0200     		.2byte	0x2
 4612 0006 00000000 		.4byte	.Ldebug_info0
 4613 000a 04       		.byte	0x4
 4614 000b 00       		.byte	0
 4615 000c 0000     		.2byte	0
 4616 000e 0000     		.2byte	0
 4617 0010 00000000 		.4byte	.LFB7
ARM GAS  /tmp/ccpKsTsb.s 			page 82


 4618 0014 10000000 		.4byte	.LFE7-.LFB7
 4619 0018 00000000 		.4byte	.LFB9
 4620 001c 48000000 		.4byte	.LFE9-.LFB9
 4621 0020 00000000 		.4byte	.LFB8
 4622 0024 18000000 		.4byte	.LFE8-.LFB8
 4623 0028 00000000 		.4byte	.LFB10
 4624 002c 68000000 		.4byte	.LFE10-.LFB10
 4625 0030 00000000 		.4byte	.LFB11
 4626 0034 5C000000 		.4byte	.LFE11-.LFB11
 4627 0038 00000000 		.4byte	.LFB12
 4628 003c 6C000000 		.4byte	.LFE12-.LFB12
 4629 0040 00000000 		.4byte	.LFB13
 4630 0044 5C000000 		.4byte	.LFE13-.LFB13
 4631 0048 00000000 		.4byte	.LFB14
 4632 004c 48000000 		.4byte	.LFE14-.LFB14
 4633 0050 00000000 		.4byte	.LFB15
 4634 0054 34000000 		.4byte	.LFE15-.LFB15
 4635 0058 00000000 		.4byte	.LFB16
 4636 005c 58000000 		.4byte	.LFE16-.LFB16
 4637 0060 00000000 		.4byte	.LFB17
 4638 0064 A0000000 		.4byte	.LFE17-.LFB17
 4639 0068 00000000 		.4byte	0
 4640 006c 00000000 		.4byte	0
 4641              		.section	.debug_ranges,"",%progbits
 4642              	.Ldebug_ranges0:
 4643 0000 20000000 		.4byte	.LBB28
 4644 0004 24000000 		.4byte	.LBE28
 4645 0008 28000000 		.4byte	.LBB31
 4646 000c 34000000 		.4byte	.LBE31
 4647 0010 00000000 		.4byte	0
 4648 0014 00000000 		.4byte	0
 4649 0018 04000000 		.4byte	.LBB38
 4650 001c 1C000000 		.4byte	.LBE38
 4651 0020 28000000 		.4byte	.LBB50
 4652 0024 28000000 		.4byte	.LBE50
 4653 0028 2C000000 		.4byte	.LBB51
 4654 002c 5C000000 		.4byte	.LBE51
 4655 0030 00000000 		.4byte	0
 4656 0034 00000000 		.4byte	0
 4657 0038 28000000 		.4byte	.LBB40
 4658 003c 28000000 		.4byte	.LBE40
 4659 0040 2C000000 		.4byte	.LBB47
 4660 0044 5C000000 		.4byte	.LBE47
 4661 0048 00000000 		.4byte	0
 4662 004c 00000000 		.4byte	0
 4663 0050 30000000 		.4byte	.LBB42
 4664 0054 34000000 		.4byte	.LBE42
 4665 0058 40000000 		.4byte	.LBB45
 4666 005c 50000000 		.4byte	.LBE45
 4667 0060 00000000 		.4byte	0
 4668 0064 00000000 		.4byte	0
 4669 0068 20000000 		.4byte	.LBB56
 4670 006c 20000000 		.4byte	.LBE56
 4671 0070 24000000 		.4byte	.LBB63
 4672 0074 54000000 		.4byte	.LBE63
 4673 0078 00000000 		.4byte	0
 4674 007c 00000000 		.4byte	0
ARM GAS  /tmp/ccpKsTsb.s 			page 83


 4675 0080 28000000 		.4byte	.LBB58
 4676 0084 2C000000 		.4byte	.LBE58
 4677 0088 38000000 		.4byte	.LBB61
 4678 008c 48000000 		.4byte	.LBE61
 4679 0090 00000000 		.4byte	0
 4680 0094 00000000 		.4byte	0
 4681 0098 08000000 		.4byte	.LBB70
 4682 009c 20000000 		.4byte	.LBE70
 4683 00a0 28000000 		.4byte	.LBB84
 4684 00a4 44000000 		.4byte	.LBE84
 4685 00a8 48000000 		.4byte	.LBB85
 4686 00ac 60000000 		.4byte	.LBE85
 4687 00b0 00000000 		.4byte	0
 4688 00b4 00000000 		.4byte	0
 4689 00b8 38000000 		.4byte	.LBB72
 4690 00bc 44000000 		.4byte	.LBE72
 4691 00c0 48000000 		.4byte	.LBB81
 4692 00c4 60000000 		.4byte	.LBE81
 4693 00c8 00000000 		.4byte	0
 4694 00cc 00000000 		.4byte	0
 4695 00d0 3C000000 		.4byte	.LBB74
 4696 00d4 40000000 		.4byte	.LBE74
 4697 00d8 4C000000 		.4byte	.LBB78
 4698 00dc 50000000 		.4byte	.LBE78
 4699 00e0 54000000 		.4byte	.LBB79
 4700 00e4 5C000000 		.4byte	.LBE79
 4701 00e8 00000000 		.4byte	0
 4702 00ec 00000000 		.4byte	0
 4703 00f0 2C000000 		.4byte	.LBB92
 4704 00f4 30000000 		.4byte	.LBE92
 4705 00f8 38000000 		.4byte	.LBB96
 4706 00fc 3C000000 		.4byte	.LBE96
 4707 0100 40000000 		.4byte	.LBB97
 4708 0104 48000000 		.4byte	.LBE97
 4709 0108 00000000 		.4byte	0
 4710 010c 00000000 		.4byte	0
 4711 0110 24000000 		.4byte	.LBB98
 4712 0114 28000000 		.4byte	.LBE98
 4713 0118 2C000000 		.4byte	.LBB102
 4714 011c 30000000 		.4byte	.LBE102
 4715 0120 34000000 		.4byte	.LBB103
 4716 0124 3C000000 		.4byte	.LBE103
 4717 0128 00000000 		.4byte	0
 4718 012c 00000000 		.4byte	0
 4719 0130 18000000 		.4byte	.LBB105
 4720 0134 18000000 		.4byte	.LBE105
 4721 0138 1C000000 		.4byte	.LBB108
 4722 013c 2C000000 		.4byte	.LBE108
 4723 0140 00000000 		.4byte	0
 4724 0144 00000000 		.4byte	0
 4725 0148 48000000 		.4byte	.LBB112
 4726 014c 4C000000 		.4byte	.LBE112
 4727 0150 50000000 		.4byte	.LBB116
 4728 0154 50000000 		.4byte	.LBE116
 4729 0158 54000000 		.4byte	.LBB117
 4730 015c 64000000 		.4byte	.LBE117
 4731 0160 00000000 		.4byte	0
ARM GAS  /tmp/ccpKsTsb.s 			page 84


 4732 0164 00000000 		.4byte	0
 4733 0168 00000000 		.4byte	.LFB7
 4734 016c 10000000 		.4byte	.LFE7
 4735 0170 00000000 		.4byte	.LFB9
 4736 0174 48000000 		.4byte	.LFE9
 4737 0178 00000000 		.4byte	.LFB8
 4738 017c 18000000 		.4byte	.LFE8
 4739 0180 00000000 		.4byte	.LFB10
 4740 0184 68000000 		.4byte	.LFE10
 4741 0188 00000000 		.4byte	.LFB11
 4742 018c 5C000000 		.4byte	.LFE11
 4743 0190 00000000 		.4byte	.LFB12
 4744 0194 6C000000 		.4byte	.LFE12
 4745 0198 00000000 		.4byte	.LFB13
 4746 019c 5C000000 		.4byte	.LFE13
 4747 01a0 00000000 		.4byte	.LFB14
 4748 01a4 48000000 		.4byte	.LFE14
 4749 01a8 00000000 		.4byte	.LFB15
 4750 01ac 34000000 		.4byte	.LFE15
 4751 01b0 00000000 		.4byte	.LFB16
 4752 01b4 58000000 		.4byte	.LFE16
 4753 01b8 00000000 		.4byte	.LFB17
 4754 01bc A0000000 		.4byte	.LFE17
 4755 01c0 00000000 		.4byte	0
 4756 01c4 00000000 		.4byte	0
 4757              		.section	.debug_line,"",%progbits
 4758              	.Ldebug_line0:
 4759 0000 8B070000 		.section	.debug_str,"MS",%progbits,1
 4759      03001401 
 4759      00000201 
 4759      FB0E0D00 
 4759      01010101 
 4760              	.LASF87:
 4761 0000 63665F6F 		.ascii	"cf_off_older\000"
 4761      66665F6F 
 4761      6C646572 
 4761      00
 4762              	.LASF37:
 4763 000d 705F6D73 		.ascii	"p_msg\000"
 4763      6700
 4764              	.LASF120:
 4765 0013 71756575 		.ascii	"queue_insert\000"
 4765      655F696E 
 4765      73657274 
 4765      00
 4766              	.LASF99:
 4767 0020 63685365 		.ascii	"chSemSignalI\000"
 4767      6D536967 
 4767      6E616C49 
 4767      00
 4768              	.LASF117:
 4769 002d 474E5520 		.ascii	"GNU C17 9.2.1 20191025 (release) [ARM/arm-9-branch "
 4769      43313720 
 4769      392E322E 
 4769      31203230 
 4769      31393130 
 4770 0060 72657669 		.ascii	"revision 277599] -mcpu=arm1176jz-s -mno-thumb-inter"
ARM GAS  /tmp/ccpKsTsb.s 			page 85


 4770      73696F6E 
 4770      20323737 
 4770      3539395D 
 4770      202D6D63 
 4771 0093 776F726B 		.ascii	"work -mfloat-abi=soft -marm -march=armv6kz -ggdb -O"
 4771      202D6D66 
 4771      6C6F6174 
 4771      2D616269 
 4771      3D736F66 
 4772 00c6 32202D66 		.ascii	"2 -fomit-frame-pointer -ffunction-sections -fdata-s"
 4772      6F6D6974 
 4772      2D667261 
 4772      6D652D70 
 4772      6F696E74 
 4773 00f9 65637469 		.ascii	"ections\000"
 4773      6F6E7300 
 4774              	.LASF72:
 4775 0101 7264796D 		.ascii	"rdymsg\000"
 4775      736700
 4776              	.LASF63:
 4777 0108 76746C69 		.ascii	"vtlist\000"
 4777      737400
 4778              	.LASF12:
 4779 010f 6C6F6E67 		.ascii	"long long unsigned int\000"
 4779      206C6F6E 
 4779      6720756E 
 4779      7369676E 
 4779      65642069 
 4780              	.LASF83:
 4781 0126 63685F74 		.ascii	"ch_threadsize\000"
 4781      68726561 
 4781      6473697A 
 4781      6500
 4782              	.LASF73:
 4783 0134 65786974 		.ascii	"exitcode\000"
 4783      636F6465 
 4783      00
 4784              	.LASF98:
 4785 013d 63685365 		.ascii	"chSemAddCounterI\000"
 4785      6D416464 
 4785      436F756E 
 4785      74657249 
 4785      00
 4786              	.LASF25:
 4787 014e 705F7072 		.ascii	"p_prio\000"
 4787      696F00
 4788              	.LASF90:
 4789 0155 63665F6F 		.ascii	"cf_off_state\000"
 4789      66665F73 
 4789      74617465 
 4789      00
 4790              	.LASF4:
 4791 0162 6C6F6E67 		.ascii	"long long int\000"
 4791      206C6F6E 
 4791      6720696E 
 4791      7400
 4792              	.LASF1:
ARM GAS  /tmp/ccpKsTsb.s 			page 86


 4793 0170 7369676E 		.ascii	"signed char\000"
 4793      65642063 
 4793      68617200 
 4794              	.LASF89:
 4795 017c 63665F6F 		.ascii	"cf_off_stklimit\000"
 4795      66665F73 
 4795      746B6C69 
 4795      6D697400 
 4796              	.LASF91:
 4797 018c 63665F6F 		.ascii	"cf_off_flags\000"
 4797      66665F66 
 4797      6C616773 
 4797      00
 4798              	.LASF69:
 4799 0199 6D5F7175 		.ascii	"m_queue\000"
 4799      65756500 
 4800              	.LASF16:
 4801 01a1 74736C69 		.ascii	"tslices_t\000"
 4801      6365735F 
 4801      7400
 4802              	.LASF3:
 4803 01ab 6C6F6E67 		.ascii	"long int\000"
 4803      20696E74 
 4803      00
 4804              	.LASF14:
 4805 01b4 74737461 		.ascii	"tstate_t\000"
 4805      74655F74 
 4805      00
 4806              	.LASF100:
 4807 01bd 63685365 		.ascii	"chSemSignal\000"
 4807      6D536967 
 4807      6E616C00 
 4808              	.LASF8:
 4809 01c9 75696E74 		.ascii	"uint16_t\000"
 4809      31365F74 
 4809      00
 4810              	.LASF95:
 4811 01d2 63686465 		.ascii	"chdebug_t\000"
 4811      6275675F 
 4811      7400
 4812              	.LASF118:
 4813 01dc 2E2E2F6F 		.ascii	"../os/kernel/src/chsem.c\000"
 4813      732F6B65 
 4813      726E656C 
 4813      2F737263 
 4813      2F636873 
 4814              	.LASF27:
 4815 01f5 705F6E65 		.ascii	"p_newer\000"
 4815      77657200 
 4816              	.LASF97:
 4817 01fd 5F69646C 		.ascii	"_idle_thread_wa\000"
 4817      655F7468 
 4817      72656164 
 4817      5F776100 
 4818              	.LASF66:
 4819 020d 735F7175 		.ascii	"s_queue\000"
 4819      65756500 
ARM GAS  /tmp/ccpKsTsb.s 			page 87


 4820              	.LASF113:
 4821 0215 63685363 		.ascii	"chSchRescheduleS\000"
 4821      68526573 
 4821      63686564 
 4821      756C6553 
 4821      00
 4822              	.LASF59:
 4823 0226 725F6E65 		.ascii	"r_newer\000"
 4823      77657200 
 4824              	.LASF44:
 4825 022e 72656761 		.ascii	"regarm_t\000"
 4825      726D5F74 
 4825      00
 4826              	.LASF50:
 4827 0237 76745F70 		.ascii	"vt_prev\000"
 4827      72657600 
 4828              	.LASF102:
 4829 023f 63685365 		.ascii	"chSemSignalWait\000"
 4829      6D536967 
 4829      6E616C57 
 4829      61697400 
 4830              	.LASF21:
 4831 024f 636E745F 		.ascii	"cnt_t\000"
 4831      7400
 4832              	.LASF0:
 4833 0255 756E7369 		.ascii	"unsigned int\000"
 4833      676E6564 
 4833      20696E74 
 4833      00
 4834              	.LASF103:
 4835 0262 63685365 		.ascii	"chSemWaitTimeout\000"
 4835      6D576169 
 4835      7454696D 
 4835      656F7574 
 4835      00
 4836              	.LASF49:
 4837 0273 76745F6E 		.ascii	"vt_next\000"
 4837      65787400 
 4838              	.LASF11:
 4839 027b 6C6F6E67 		.ascii	"long unsigned int\000"
 4839      20756E73 
 4839      69676E65 
 4839      6420696E 
 4839      7400
 4840              	.LASF96:
 4841 028d 63685F64 		.ascii	"ch_debug\000"
 4841      65627567 
 4841      00
 4842              	.LASF77:
 4843 0296 63685F69 		.ascii	"ch_identifier\000"
 4843      64656E74 
 4843      69666965 
 4843      7200
 4844              	.LASF67:
 4845 02a4 735F636E 		.ascii	"s_cnt\000"
 4845      7400
 4846              	.LASF46:
ARM GAS  /tmp/ccpKsTsb.s 			page 88


 4847 02aa 636F6E74 		.ascii	"context\000"
 4847      65787400 
 4848              	.LASF9:
 4849 02b2 73686F72 		.ascii	"short unsigned int\000"
 4849      7420756E 
 4849      7369676E 
 4849      65642069 
 4849      6E7400
 4850              	.LASF108:
 4851 02c5 63685365 		.ascii	"chSemReset\000"
 4851      6D526573 
 4851      657400
 4852              	.LASF115:
 4853 02d0 63685363 		.ascii	"chSchWakeupS\000"
 4853      6857616B 
 4853      65757053 
 4853      00
 4854              	.LASF18:
 4855 02dd 6D73675F 		.ascii	"msg_t\000"
 4855      7400
 4856              	.LASF13:
 4857 02e3 746D6F64 		.ascii	"tmode_t\000"
 4857      655F7400 
 4858              	.LASF42:
 4859 02eb 54687265 		.ascii	"ThreadsList\000"
 4859      6164734C 
 4859      69737400 
 4860              	.LASF19:
 4861 02f7 6576656E 		.ascii	"eventmask_t\000"
 4861      746D6173 
 4861      6B5F7400 
 4862              	.LASF68:
 4863 0303 4D757465 		.ascii	"Mutex\000"
 4863      7800
 4864              	.LASF43:
 4865 0309 73746B61 		.ascii	"stkalign_t\000"
 4865      6C69676E 
 4865      5F7400
 4866              	.LASF78:
 4867 0314 63685F7A 		.ascii	"ch_zero\000"
 4867      65726F00 
 4868              	.LASF92:
 4869 031c 63665F6F 		.ascii	"cf_off_refs\000"
 4869      66665F72 
 4869      65667300 
 4870              	.LASF51:
 4871 0328 76745F74 		.ascii	"vt_time\000"
 4871      696D6500 
 4872              	.LASF52:
 4873 0330 76745F66 		.ascii	"vt_func\000"
 4873      756E6300 
 4874              	.LASF82:
 4875 0338 63685F74 		.ascii	"ch_timesize\000"
 4875      696D6573 
 4875      697A6500 
 4876              	.LASF88:
 4877 0344 63665F6F 		.ascii	"cf_off_name\000"
ARM GAS  /tmp/ccpKsTsb.s 			page 89


 4877      66665F6E 
 4877      616D6500 
 4878              	.LASF28:
 4879 0350 705F6F6C 		.ascii	"p_older\000"
 4879      64657200 
 4880              	.LASF58:
 4881 0358 725F6374 		.ascii	"r_ctx\000"
 4881      7800
 4882              	.LASF41:
 4883 035e 54687265 		.ascii	"ThreadsQueue\000"
 4883      61647351 
 4883      75657565 
 4883      00
 4884              	.LASF79:
 4885 036b 63685F73 		.ascii	"ch_size\000"
 4885      697A6500 
 4886              	.LASF101:
 4887 0373 74696D65 		.ascii	"time\000"
 4887      00
 4888              	.LASF61:
 4889 0378 725F6375 		.ascii	"r_current\000"
 4889      7272656E 
 4889      7400
 4890              	.LASF60:
 4891 0382 725F6F6C 		.ascii	"r_older\000"
 4891      64657200 
 4892              	.LASF15:
 4893 038a 74726566 		.ascii	"trefs_t\000"
 4893      735F7400 
 4894              	.LASF81:
 4895 0392 63685F70 		.ascii	"ch_ptrsize\000"
 4895      74727369 
 4895      7A6500
 4896              	.LASF24:
 4897 039d 705F7072 		.ascii	"p_prev\000"
 4897      657600
 4898              	.LASF17:
 4899 03a4 74707269 		.ascii	"tprio_t\000"
 4899      6F5F7400 
 4900              	.LASF5:
 4901 03ac 696E7433 		.ascii	"int32_t\000"
 4901      325F7400 
 4902              	.LASF7:
 4903 03b4 756E7369 		.ascii	"unsigned char\000"
 4903      676E6564 
 4903      20636861 
 4903      7200
 4904              	.LASF39:
 4905 03c2 705F6D74 		.ascii	"p_mtxlist\000"
 4905      786C6973 
 4905      7400
 4906              	.LASF2:
 4907 03cc 73686F72 		.ascii	"short int\000"
 4907      7420696E 
 4907      7400
 4908              	.LASF30:
 4909 03d6 705F7374 		.ascii	"p_state\000"
ARM GAS  /tmp/ccpKsTsb.s 			page 90


 4909      61746500 
 4910              	.LASF33:
 4911 03de 705F7072 		.ascii	"p_preempt\000"
 4911      65656D70 
 4911      7400
 4912              	.LASF94:
 4913 03e8 63665F6F 		.ascii	"cf_off_time\000"
 4913      66665F74 
 4913      696D6500 
 4914              	.LASF57:
 4915 03f4 725F7072 		.ascii	"r_prio\000"
 4915      696F00
 4916              	.LASF75:
 4917 03fb 65776D61 		.ascii	"ewmask\000"
 4917      736B00
 4918              	.LASF23:
 4919 0402 705F6E65 		.ascii	"p_next\000"
 4919      787400
 4920              	.LASF93:
 4921 0409 63665F6F 		.ascii	"cf_off_preempt\000"
 4921      66665F70 
 4921      7265656D 
 4921      707400
 4922              	.LASF31:
 4923 0418 705F666C 		.ascii	"p_flags\000"
 4923      61677300 
 4924              	.LASF105:
 4925 0420 63685365 		.ascii	"chSemWaitS\000"
 4925      6D576169 
 4925      745300
 4926              	.LASF22:
 4927 042b 54687265 		.ascii	"Thread\000"
 4927      616400
 4928              	.LASF86:
 4929 0432 63665F6F 		.ascii	"cf_off_newer\000"
 4929      66665F6E 
 4929      65776572 
 4929      00
 4930              	.LASF112:
 4931 043f 63685363 		.ascii	"chSchGoSleepS\000"
 4931      68476F53 
 4931      6C656570 
 4931      5300
 4932              	.LASF38:
 4933 044d 705F6570 		.ascii	"p_epending\000"
 4933      656E6469 
 4933      6E6700
 4934              	.LASF10:
 4935 0458 75696E74 		.ascii	"uint32_t\000"
 4935      33325F74 
 4935      00
 4936              	.LASF84:
 4937 0461 63665F6F 		.ascii	"cf_off_prio\000"
 4937      66665F70 
 4937      72696F00 
 4938              	.LASF56:
 4939 046d 725F7175 		.ascii	"r_queue\000"
ARM GAS  /tmp/ccpKsTsb.s 			page 91


 4939      65756500 
 4940              	.LASF48:
 4941 0475 56697274 		.ascii	"VirtualTimer\000"
 4941      75616C54 
 4941      696D6572 
 4941      00
 4942              	.LASF119:
 4943 0482 2F686F6D 		.ascii	"/home/taskman/arduino/embedded-wind-turbine/Data_Co"
 4943      652F7461 
 4943      736B6D61 
 4943      6E2F6172 
 4943      6475696E 
 4944 04b5 6C6C6563 		.ascii	"llector/raspberry/compiler/ChibiOS-RPi/led\000"
 4944      746F722F 
 4944      72617370 
 4944      62657272 
 4944      792F636F 
 4945              	.LASF76:
 4946 04e0 63686172 		.ascii	"char\000"
 4946      00
 4947              	.LASF111:
 4948 04e5 6669666F 		.ascii	"fifo_remove\000"
 4948      5F72656D 
 4948      6F766500 
 4949              	.LASF104:
 4950 04f1 63685365 		.ascii	"chSemWaitTimeoutS\000"
 4950      6D576169 
 4950      7454696D 
 4950      656F7574 
 4950      5300
 4951              	.LASF114:
 4952 0503 63685363 		.ascii	"chSchReadyI\000"
 4952      68526561 
 4952      64794900 
 4953              	.LASF71:
 4954 050f 6D5F6E65 		.ascii	"m_next\000"
 4954      787400
 4955              	.LASF20:
 4956 0516 73797374 		.ascii	"systime_t\000"
 4956      696D655F 
 4956      7400
 4957              	.LASF40:
 4958 0520 705F7265 		.ascii	"p_realprio\000"
 4958      616C7072 
 4958      696F00
 4959              	.LASF47:
 4960 052b 76746675 		.ascii	"vtfunc_t\000"
 4960      6E635F74 
 4960      00
 4961              	.LASF106:
 4962 0534 63685365 		.ascii	"chSemWait\000"
 4962      6D576169 
 4962      7400
 4963              	.LASF34:
 4964 053e 705F7469 		.ascii	"p_time\000"
 4964      6D6500
 4965              	.LASF110:
ARM GAS  /tmp/ccpKsTsb.s 			page 92


 4966 0545 6C69666F 		.ascii	"lifo_remove\000"
 4966      5F72656D 
 4966      6F766500 
 4967              	.LASF45:
 4968 0551 696E7463 		.ascii	"intctx\000"
 4968      747800
 4969              	.LASF36:
 4970 0558 705F6D73 		.ascii	"p_msgqueue\000"
 4970      67717565 
 4970      756500
 4971              	.LASF53:
 4972 0563 76745F70 		.ascii	"vt_par\000"
 4972      617200
 4973              	.LASF65:
 4974 056a 53656D61 		.ascii	"Semaphore\000"
 4974      70686F72 
 4974      6500
 4975              	.LASF85:
 4976 0574 63665F6F 		.ascii	"cf_off_ctx\000"
 4976      66665F63 
 4976      747800
 4977              	.LASF32:
 4978 057f 705F7265 		.ascii	"p_refs\000"
 4978      667300
 4979              	.LASF62:
 4980 0586 52656164 		.ascii	"ReadyList\000"
 4980      794C6973 
 4980      7400
 4981              	.LASF107:
 4982 0590 63685365 		.ascii	"chSemResetI\000"
 4982      6D526573 
 4982      65744900 
 4983              	.LASF64:
 4984 059c 726C6973 		.ascii	"rlist\000"
 4984      7400
 4985              	.LASF6:
 4986 05a2 75696E74 		.ascii	"uint8_t\000"
 4986      385F7400 
 4987              	.LASF74:
 4988 05aa 77746F62 		.ascii	"wtobjp\000"
 4988      6A7000
 4989              	.LASF29:
 4990 05b1 705F6E61 		.ascii	"p_name\000"
 4990      6D6500
 4991              	.LASF54:
 4992 05b8 76745F73 		.ascii	"vt_systime\000"
 4992      79737469 
 4992      6D6500
 4993              	.LASF116:
 4994 05c3 63685363 		.ascii	"chSchGoSleepTimeoutS\000"
 4994      68476F53 
 4994      6C656570 
 4994      54696D65 
 4994      6F757453 
 4995              	.LASF80:
 4996 05d8 63685F76 		.ascii	"ch_version\000"
 4996      65727369 
ARM GAS  /tmp/ccpKsTsb.s 			page 93


 4996      6F6E00
 4997              	.LASF55:
 4998 05e3 56544C69 		.ascii	"VTList\000"
 4998      737400
 4999              	.LASF70:
 5000 05ea 6D5F6F77 		.ascii	"m_owner\000"
 5000      6E657200 
 5001              	.LASF26:
 5002 05f2 705F6374 		.ascii	"p_ctx\000"
 5002      7800
 5003              	.LASF35:
 5004 05f8 705F7761 		.ascii	"p_waiting\000"
 5004      6974696E 
 5004      6700
 5005              	.LASF109:
 5006 0602 63685365 		.ascii	"chSemInit\000"
 5006      6D496E69 
 5006      7400
 5007              		.ident	"GCC: (15:9-2019-q4-0ubuntu1) 9.2.1 20191025 (release) [ARM/arm-9-branch revision 277599]"
ARM GAS  /tmp/ccpKsTsb.s 			page 94


DEFINED SYMBOLS
                            *ABS*:0000000000000000 chsem.c
     /tmp/ccpKsTsb.s:16     .text.chSemInit:0000000000000000 $a
     /tmp/ccpKsTsb.s:23     .text.chSemInit:0000000000000000 chSemInit
     /tmp/ccpKsTsb.s:47     .text.chSemResetI:0000000000000000 $a
     /tmp/ccpKsTsb.s:53     .text.chSemResetI:0000000000000000 chSemResetI
     /tmp/ccpKsTsb.s:138    .text.chSemReset:0000000000000000 $a
     /tmp/ccpKsTsb.s:144    .text.chSemReset:0000000000000000 chSemReset
     /tmp/ccpKsTsb.s:187    .text.chSemWait:0000000000000000 $a
     /tmp/ccpKsTsb.s:193    .text.chSemWait:0000000000000000 chSemWait
     /tmp/ccpKsTsb.s:337    .text.chSemWait:0000000000000064 $d
     /tmp/ccpKsTsb.s:342    .text.chSemWaitS:0000000000000000 $a
     /tmp/ccpKsTsb.s:348    .text.chSemWaitS:0000000000000000 chSemWaitS
     /tmp/ccpKsTsb.s:445    .text.chSemWaitS:0000000000000058 $d
     /tmp/ccpKsTsb.s:450    .text.chSemWaitTimeout:0000000000000000 $a
     /tmp/ccpKsTsb.s:456    .text.chSemWaitTimeout:0000000000000000 chSemWaitTimeout
     /tmp/ccpKsTsb.s:609    .text.chSemWaitTimeout:0000000000000068 $d
     /tmp/ccpKsTsb.s:614    .text.chSemWaitTimeoutS:0000000000000000 $a
     /tmp/ccpKsTsb.s:620    .text.chSemWaitTimeoutS:0000000000000000 chSemWaitTimeoutS
     /tmp/ccpKsTsb.s:715    .text.chSemWaitTimeoutS:0000000000000058 $d
     /tmp/ccpKsTsb.s:720    .text.chSemSignal:0000000000000000 $a
     /tmp/ccpKsTsb.s:726    .text.chSemSignal:0000000000000000 chSemSignal
     /tmp/ccpKsTsb.s:822    .text.chSemSignalI:0000000000000000 $a
     /tmp/ccpKsTsb.s:828    .text.chSemSignalI:0000000000000000 chSemSignalI
     /tmp/ccpKsTsb.s:894    .text.chSemAddCounterI:0000000000000000 $a
     /tmp/ccpKsTsb.s:900    .text.chSemAddCounterI:0000000000000000 chSemAddCounterI
     /tmp/ccpKsTsb.s:984    .text.chSemSignalWait:0000000000000000 $a
     /tmp/ccpKsTsb.s:990    .text.chSemSignalWait:0000000000000000 chSemSignalWait
     /tmp/ccpKsTsb.s:1161   .text.chSemSignalWait:000000000000009c $d

UNDEFINED SYMBOLS
chSchReadyI
chSchRescheduleS
chSchGoSleepS
rlist
chSchGoSleepTimeoutS
chSchWakeupS
