ARM GAS  /tmp/ccrVFH8l.s 			page 1


   1              		.cpu arm1176jz-s
   2              		.eabi_attribute 20, 1
   3              		.eabi_attribute 21, 1
   4              		.eabi_attribute 23, 3
   5              		.eabi_attribute 24, 1
   6              		.eabi_attribute 25, 1
   7              		.eabi_attribute 26, 1
   8              		.eabi_attribute 30, 2
   9              		.eabi_attribute 34, 1
  10              		.eabi_attribute 18, 4
  11              		.file	"chsys.c"
  12              		.text
  13              	.Ltext0:
  14              		.cfi_sections	.debug_frame
  15              		.section	.rodata._idle_thread.str1.4,"aMS",%progbits,1
  16              		.align	2
  17              	.LC0:
  18 0000 69646C65 		.ascii	"idle\000"
  18      00
  19              		.section	.text._idle_thread,"ax",%progbits
  20              		.align	2
  21              		.global	_idle_thread
  22              		.arch armv6kz
  23              		.syntax unified
  24              		.arm
  25              		.fpu softvfp
  26              		.type	_idle_thread, %function
  27              	_idle_thread:
  28              	.LVL0:
  29              	.LFB7:
  30              		.file 1 "../os/kernel/src/chsys.c"
  31              		.loc 1 54 28 view -0
  32              		.cfi_startproc
  33              		@ Volatile: function does not return.
  34              		@ args = 0, pretend = 0, frame = 0
  35              		@ frame_needed = 0, uses_anonymous_args = 0
  36              		@ link register save eliminated.
  37              		.loc 1 56 3 view .LVU1
  38              		.loc 1 57 3 view .LVU2
  39 0000 10309FE5 		ldr	r3, .L4
  40 0004 10209FE5 		ldr	r2, .L4+4
  41 0008 183093E5 		ldr	r3, [r3, #24]
  42 000c 182083E5 		str	r2, [r3, #24]
  43              	.L2:
  44              		.loc 1 58 3 discriminator 1 view .LVU3
  45              		.loc 1 59 5 discriminator 1 view .LVU4
  46              		.syntax divided
  47              	@ 59 "../os/kernel/src/chsys.c" 1
  48 0010 900F07EE 		MCR p15,0,r0,c7,c0,4
  49              	@ 0 "" 2
  50              		.loc 1 59 30 discriminator 1 view .LVU5
  51              		.loc 1 60 5 discriminator 1 view .LVU6
  52              		.loc 1 60 21 discriminator 1 view .LVU7
  53              		.loc 1 58 9 discriminator 1 view .LVU8
  54              		.arm
  55              		.syntax unified
  56 0014 FDFFFFEA 		b	.L2
ARM GAS  /tmp/ccrVFH8l.s 			page 2


  57              	.L5:
  58              		.align	2
  59              	.L4:
  60 0018 00000000 		.word	rlist
  61 001c 00000000 		.word	.LC0
  62              		.cfi_endproc
  63              	.LFE7:
  64              		.size	_idle_thread, .-_idle_thread
  65              		.section	.text.chSysInit,"ax",%progbits
  66              		.align	2
  67              		.global	chSysInit
  68              		.syntax unified
  69              		.arm
  70              		.fpu softvfp
  71              		.type	chSysInit, %function
  72              	chSysInit:
  73              	.LFB8:
  74              		.loc 1 77 22 view -0
  75              		.cfi_startproc
  76              		@ args = 0, pretend = 0, frame = 0
  77              		@ frame_needed = 0, uses_anonymous_args = 0
  78              		.loc 1 78 3 view .LVU10
  79              		.loc 1 83 14 view .LVU11
  80              		.loc 1 84 3 view .LVU12
  81              		.loc 1 77 22 is_stmt 0 view .LVU13
  82 0000 04E02DE5 		str	lr, [sp, #-4]!
  83              		.cfi_def_cfa_offset 4
  84              		.cfi_offset 14, -4
  85 0004 0CD04DE2 		sub	sp, sp, #12
  86              		.cfi_def_cfa_offset 16
  87              		.loc 1 84 3 view .LVU14
  88 0008 FEFFFFEB 		bl	_scheduler_init
  89              	.LVL1:
  90              		.loc 1 85 3 is_stmt 1 view .LVU15
  91 000c FEFFFFEB 		bl	_vt_init
  92              	.LVL2:
  93              		.loc 1 87 3 view .LVU16
  94 0010 FEFFFFEB 		bl	_core_init
  95              	.LVL3:
  96              		.loc 1 90 3 view .LVU17
  97 0014 FEFFFFEB 		bl	_heap_init
  98              	.LVL4:
  99              		.loc 1 97 3 view .LVU18
 100 0018 4010A0E3 		mov	r1, #64
 101 001c 40009FE5 		ldr	r0, .L8
 102 0020 FEFFFFEB 		bl	_thread_init
 103              	.LVL5:
 104              		.loc 1 98 18 is_stmt 0 view .LVU19
 105 0024 0120A0E3 		mov	r2, #1
 106              		.loc 1 97 3 view .LVU20
 107 0028 38309FE5 		ldr	r3, .L8+4
 108              		.loc 1 98 18 view .LVU21
 109 002c 1C20C0E5 		strb	r2, [r0, #28]
 110              		.loc 1 97 3 view .LVU22
 111 0030 180083E5 		str	r0, [r3, #24]
 112              		.loc 1 98 3 is_stmt 1 view .LVU23
 113              		.loc 1 104 3 view .LVU24
ARM GAS  /tmp/ccrVFH8l.s 			page 3


 114              		.loc 1 104 3 view .LVU25
 115              		.syntax divided
 116              	@ 104 "../os/kernel/src/chsys.c" 1
 117 0034 1FF021E3 		msr     CPSR_c, #0x1F
 118              	@ 0 "" 2
 119              		.loc 1 104 16 view .LVU26
 120              		.loc 1 108 3 view .LVU27
 121              		.loc 1 114 3 is_stmt 0 view .LVU28
 122              		.arm
 123              		.syntax unified
 124 0038 0010A0E3 		mov	r1, #0
 125              		.loc 1 108 3 view .LVU29
 126 003c 183093E5 		ldr	r3, [r3, #24]
 127 0040 24009FE5 		ldr	r0, .L8+8
 128 0044 180083E5 		str	r0, [r3, #24]
 129              		.loc 1 114 3 is_stmt 1 view .LVU30
 130 0048 00108DE5 		str	r1, [sp]
 131 004c 1C309FE5 		ldr	r3, .L8+12
 132 0050 9C10A0E3 		mov	r1, #156
 133 0054 18009FE5 		ldr	r0, .L8+16
 134 0058 FEFFFFEB 		bl	chThdCreateStatic
 135              	.LVL6:
 136              		.loc 1 117 1 is_stmt 0 view .LVU31
 137 005c 0CD08DE2 		add	sp, sp, #12
 138              		.cfi_def_cfa_offset 4
 139              		@ sp needed
 140 0060 04F09DE4 		ldr	pc, [sp], #4
 141              	.L9:
 142              		.align	2
 143              	.L8:
 144 0064 00000000 		.word	.LANCHOR0
 145 0068 00000000 		.word	rlist
 146 006c 00000000 		.word	ch_debug
 147 0070 00000000 		.word	_idle_thread
 148 0074 00000000 		.word	_idle_thread_wa
 149              		.cfi_endproc
 150              	.LFE8:
 151              		.size	chSysInit, .-chSysInit
 152              		.section	.text.chSysTimerHandlerI,"ax",%progbits
 153              		.align	2
 154              		.global	chSysTimerHandlerI
 155              		.syntax unified
 156              		.arm
 157              		.fpu softvfp
 158              		.type	chSysTimerHandlerI, %function
 159              	chSysTimerHandlerI:
 160              	.LFB9:
 161              		.loc 1 130 31 is_stmt 1 view -0
 162              		.cfi_startproc
 163              		@ args = 0, pretend = 0, frame = 0
 164              		@ frame_needed = 0, uses_anonymous_args = 0
 165              		.loc 1 132 3 view .LVU33
 166              		.loc 1 132 21 view .LVU34
 167              		.loc 1 136 3 view .LVU35
 168              		.loc 1 130 31 is_stmt 0 view .LVU36
 169 0000 70402DE9 		push	{r4, r5, r6, lr}
 170              		.cfi_def_cfa_offset 16
ARM GAS  /tmp/ccrVFH8l.s 			page 4


 171              		.cfi_offset 4, -16
 172              		.cfi_offset 5, -12
 173              		.cfi_offset 6, -8
 174              		.cfi_offset 14, -4
 175              		.loc 1 136 7 view .LVU37
 176 0004 7C309FE5 		ldr	r3, .L20
 177              		.loc 1 143 3 view .LVU38
 178 0008 7C409FE5 		ldr	r4, .L20+4
 179              		.loc 1 136 7 view .LVU39
 180 000c 183093E5 		ldr	r3, [r3, #24]
 181              		.loc 1 136 12 view .LVU40
 182 0010 1F20D3E5 		ldrb	r2, [r3, #31]	@ zero_extendqisi2
 183              		.loc 1 136 6 view .LVU41
 184 0014 000052E3 		cmp	r2, #0
 185              		.loc 1 138 5 is_stmt 1 view .LVU42
 186              		.loc 1 138 21 is_stmt 0 view .LVU43
 187 0018 01204212 		subne	r2, r2, #1
 188 001c 1F20C315 		strbne	r2, [r3, #31]
 189              		.loc 1 141 3 is_stmt 1 view .LVU44
 190              		.loc 1 141 8 is_stmt 0 view .LVU45
 191 0020 202093E5 		ldr	r2, [r3, #32]
 192              		.loc 1 141 16 view .LVU46
 193 0024 012082E2 		add	r2, r2, #1
 194 0028 202083E5 		str	r2, [r3, #32]
 195              		.loc 1 143 3 is_stmt 1 view .LVU47
 196 002c 0C2094E5 		ldr	r2, [r4, #12]
 197 0030 003094E5 		ldr	r3, [r4]
 198 0034 012082E2 		add	r2, r2, #1
 199 0038 040053E1 		cmp	r3, r4
 200 003c 0C2084E5 		str	r2, [r4, #12]
 201              		.loc 1 143 3 view .LVU48
 202 0040 7080BD08 		popeq	{r4, r5, r6, pc}
 203              	.LBB2:
 204              		.loc 1 143 3 discriminator 1 view .LVU49
 205              		.loc 1 143 3 discriminator 1 view .LVU50
 206 0044 085093E5 		ldr	r5, [r3, #8]
 207 0048 015045E2 		sub	r5, r5, #1
 208 004c 000055E3 		cmp	r5, #0
 209 0050 085083E5 		str	r5, [r3, #8]
 210              		.loc 1 143 3 discriminator 1 view .LVU51
 211              	.LBB3:
 212              		.loc 1 143 3 discriminator 1 view .LVU52
 213              		.loc 1 143 3 discriminator 1 view .LVU53
 214              		.loc 1 143 3 discriminator 1 view .LVU54
 215              	.LBE3:
 216              		.loc 1 143 3 discriminator 1 view .LVU55
 217              	.LVL7:
 218              		.loc 1 143 3 is_stmt 0 discriminator 1 view .LVU56
 219 0054 7080BD18 		popne	{r4, r5, r6, pc}
 220              	.L13:
 221              	.LBB4:
 222              		.loc 1 143 3 is_stmt 1 discriminator 5 view .LVU57
 223 0058 002093E5 		ldr	r2, [r3]
 224 005c 0C1093E5 		ldr	r1, [r3, #12]
 225              	.LVL8:
 226              		.loc 1 143 3 discriminator 5 view .LVU58
 227 0060 100093E5 		ldr	r0, [r3, #16]
ARM GAS  /tmp/ccrVFH8l.s 			page 5


 228 0064 0C5083E5 		str	r5, [r3, #12]
 229              		.loc 1 143 3 discriminator 5 view .LVU59
 230 0068 002084E5 		str	r2, [r4]
 231 006c 044082E5 		str	r4, [r2, #4]
 232              		.loc 1 143 3 discriminator 5 view .LVU60
 233              		.loc 1 143 3 discriminator 5 view .LVU61
 234              		.loc 1 143 3 discriminator 5 view .LVU62
 235              		.loc 1 143 3 discriminator 5 view .LVU63
 236              		.loc 1 143 3 discriminator 5 view .LVU64
 237 0070 31FF2FE1 		blx	r1
 238              	.LVL9:
 239              		.loc 1 143 3 discriminator 5 view .LVU65
 240              		.loc 1 143 3 discriminator 5 view .LVU66
 241              		.loc 1 143 3 discriminator 5 view .LVU67
 242              	.LBE4:
 243              		.loc 1 143 3 discriminator 5 view .LVU68
 244 0074 003094E5 		ldr	r3, [r4]
 245              	.LVL10:
 246              		.loc 1 143 3 is_stmt 0 discriminator 5 view .LVU69
 247 0078 082093E5 		ldr	r2, [r3, #8]
 248 007c 000052E3 		cmp	r2, #0
 249 0080 F4FFFF0A 		beq	.L13
 250 0084 7080BDE8 		pop	{r4, r5, r6, pc}
 251              	.L21:
 252              		.align	2
 253              	.L20:
 254 0088 00000000 		.word	rlist
 255 008c 00000000 		.word	vtlist
 256              	.LBE2:
 257              		.cfi_endproc
 258              	.LFE9:
 259              		.size	chSysTimerHandlerI, .-chSysTimerHandlerI
 260              		.comm	_idle_thread_wa,156,4
 261              		.section	.bss.mainthread.4744,"aw",%nobits
 262              		.align	2
 263              		.set	.LANCHOR0,. + 0
 264              		.type	mainthread.4744, %object
 265              		.size	mainthread.4744, 68
 266              	mainthread.4744:
 267 0000 00000000 		.space	68
 267      00000000 
 267      00000000 
 267      00000000 
 267      00000000 
 268              		.text
 269              	.Letext0:
 270              		.file 2 "/usr/lib/gcc/arm-none-eabi/9.2.1/include/stdint.h"
 271              		.file 3 "../os/ports/GCC/ARM/chtypes.h"
 272              		.file 4 "../os/kernel/include/chlists.h"
 273              		.file 5 "../os/kernel/include/chthreads.h"
 274              		.file 6 "../os/ports/GCC/ARM/chcore.h"
 275              		.file 7 "../os/kernel/include/chvt.h"
 276              		.file 8 "../os/kernel/include/chschd.h"
 277              		.file 9 "../os/kernel/include/chmtx.h"
 278              		.file 10 "../os/kernel/include/chregistry.h"
 279              		.file 11 "../os/kernel/include/ch.h"
 280              		.file 12 "../os/kernel/include/chmemcore.h"
ARM GAS  /tmp/ccrVFH8l.s 			page 6


 281              		.file 13 "../os/kernel/include/chheap.h"