ARM GAS  /tmp/cc4u5hVj.s 			page 1


   1              		.cpu arm1176jz-s
   2              		.eabi_attribute 20, 1
   3              		.eabi_attribute 21, 1
   4              		.eabi_attribute 23, 3
   5              		.eabi_attribute 24, 1
   6              		.eabi_attribute 25, 1
   7              		.eabi_attribute 26, 1
   8              		.eabi_attribute 30, 2
   9              		.eabi_attribute 34, 1
  10              		.eabi_attribute 18, 4
  11              		.file	"chthreads.c"
  12              		.text
  13              	.Ltext0:
  14              		.cfi_sections	.debug_frame
  15              		.section	.text._thread_init,"ax",%progbits
  16              		.align	2
  17              		.global	_thread_init
  18              		.arch armv6kz
  19              		.syntax unified
  20              		.arm
  21              		.fpu softvfp
  22              		.type	_thread_init, %function
  23              	_thread_init:
  24              	.LVL0:
  25              	.LFB7:
  26              		.file 1 "../os/kernel/src/chthreads.c"
  27              		.loc 1 69 48 view -0
  28              		.cfi_startproc
  29              		@ args = 0, pretend = 0, frame = 0
  30              		@ frame_needed = 0, uses_anonymous_args = 0
  31              		.loc 1 71 3 view .LVU1
  32              		.loc 1 69 48 is_stmt 0 view .LVU2
  33 0000 30402DE9 		push	{r4, r5, lr}
  34              		.cfi_def_cfa_offset 12
  35              		.cfi_offset 4, -12
  36              		.cfi_offset 5, -8
  37              		.cfi_offset 14, -4
  38              		.loc 1 75 17 view .LVU3
  39 0004 14E0A0E3 		mov	lr, #20
  40              		.loc 1 88 14 view .LVU4
  41 0008 0140A0E3 		mov	r4, #1
  42              		.loc 1 79 17 view .LVU5
  43 000c 0020A0E3 		mov	r2, #0
  44              		.loc 1 72 15 view .LVU6
  45 0010 0250A0E3 		mov	r5, #2
  46              		.loc 1 92 3 view .LVU7
  47 0014 4CC09FE5 		ldr	ip, .L4
  48              		.loc 1 75 17 view .LVU8
  49 0018 1FE0C0E5 		strb	lr, [r0, #31]
  50              		.loc 1 92 3 view .LVU9
  51 001c 14E09CE5 		ldr	lr, [ip, #20]
  52              		.loc 1 71 14 view .LVU10
  53 0020 081080E5 		str	r1, [r0, #8]
  54              		.loc 1 72 3 is_stmt 1 view .LVU11
  55              		.loc 1 73 3 view .LVU12
  56              		.loc 1 78 18 is_stmt 0 view .LVU13
  57 0024 401080E5 		str	r1, [r0, #64]
ARM GAS  /tmp/cc4u5hVj.s 			page 2


  58              		.loc 1 88 14 view .LVU14
  59 0028 1E40C0E5 		strb	r4, [r0, #30]
  60              		.loc 1 98 3 view .LVU15
  61 002c 2C1080E2 		add	r1, r0, #44
  62              	.LVL1:
  63              		.loc 1 95 3 view .LVU16
  64 0030 284080E2 		add	r4, r0, #40
  65              		.loc 1 92 3 view .LVU17
  66 0034 10C080E5 		str	ip, [r0, #16]
  67 0038 14E080E5 		str	lr, [r0, #20]
  68              		.loc 1 72 15 view .LVU18
  69 003c BC51C0E1 		strh	r5, [r0, #28]	@ movhi
  70              		.loc 1 75 3 is_stmt 1 view .LVU19
  71              		.loc 1 78 3 view .LVU20
  72              		.loc 1 79 3 view .LVU21
  73              		.loc 1 79 17 is_stmt 0 view .LVU22
  74 0040 3C2080E5 		str	r2, [r0, #60]
  75              		.loc 1 82 3 is_stmt 1 view .LVU23
  76              		.loc 1 92 3 is_stmt 0 view .LVU24
  77 0044 14008CE5 		str	r0, [ip, #20]
  78              		.loc 1 82 18 view .LVU25
  79 0048 382080E5 		str	r2, [r0, #56]
  80              		.loc 1 85 3 is_stmt 1 view .LVU26
  81              		.loc 1 85 14 is_stmt 0 view .LVU27
  82 004c 202080E5 		str	r2, [r0, #32]
  83              		.loc 1 88 3 is_stmt 1 view .LVU28
  84              		.loc 1 91 3 view .LVU29
  85              		.loc 1 91 14 is_stmt 0 view .LVU30
  86 0050 182080E5 		str	r2, [r0, #24]
  87              		.loc 1 92 3 is_stmt 1 view .LVU31
  88              		.loc 1 92 3 view .LVU32
  89              		.loc 1 92 3 view .LVU33
  90 0054 10008EE5 		str	r0, [lr, #16]
  91              		.loc 1 92 17 view .LVU34
  92              		.loc 1 95 3 view .LVU35
  93 0058 284080E5 		str	r4, [r0, #40]
  94              		.loc 1 98 3 view .LVU36
  95 005c 301080E5 		str	r1, [r0, #48]
  96 0060 2C1080E5 		str	r1, [r0, #44]
  97              		.loc 1 98 30 view .LVU37
  98              		.loc 1 104 3 view .LVU38
  99              		.loc 1 104 27 view .LVU39
 100              		.loc 1 106 3 view .LVU40
 101              		.loc 1 107 1 is_stmt 0 view .LVU41
 102 0064 3080BDE8 		pop	{r4, r5, pc}
 103              	.L5:
 104              		.align	2
 105              	.L4:
 106 0068 00000000 		.word	rlist
 107              		.cfi_endproc
 108              	.LFE7:
 109              		.size	_thread_init, .-_thread_init
 110              		.section	.text.chThdCreateI,"ax",%progbits
 111              		.align	2
 112              		.global	chThdCreateI
 113              		.syntax unified
 114              		.arm
ARM GAS  /tmp/cc4u5hVj.s 			page 3


 115              		.fpu softvfp
 116              		.type	chThdCreateI, %function
 117              	chThdCreateI:
 118              	.LVL2:
 119              	.LFB8:
 120              		.loc 1 151 59 is_stmt 1 view -0
 121              		.cfi_startproc
 122              		@ args = 4, pretend = 0, frame = 0
 123              		@ frame_needed = 0, uses_anonymous_args = 0
 124              		.loc 1 153 3 view .LVU43
 125              		.loc 1 155 3 view .LVU44
 126              		.loc 1 155 21 view .LVU45
 127              		.loc 1 157 3 view .LVU46
 128              		.loc 1 159 29 view .LVU47
 129              		.loc 1 160 3 view .LVU48
 130              		.loc 1 151 59 is_stmt 0 view .LVU49
 131 0000 F0402DE9 		push	{r4, r5, r6, r7, lr}
 132              		.cfi_def_cfa_offset 20
 133              		.cfi_offset 4, -20
 134              		.cfi_offset 5, -16
 135              		.cfi_offset 6, -12
 136              		.cfi_offset 7, -8
 137              		.cfi_offset 14, -4
 138              	.LBB12:
 139              	.LBB13:
 140              		.loc 1 79 17 view .LVU50
 141 0004 00E0A0E3 		mov	lr, #0
 142              		.loc 1 72 15 view .LVU51
 143 0008 0270A0E3 		mov	r7, #2
 144              		.loc 1 75 17 view .LVU52
 145 000c 1460A0E3 		mov	r6, #20
 146              		.loc 1 88 14 view .LVU53
 147 0010 0150A0E3 		mov	r5, #1
 148              	.LBE13:
 149              	.LBE12:
 150              		.loc 1 160 3 view .LVU54
 151 0014 241041E2 		sub	r1, r1, #36
 152              	.LVL3:
 153              		.loc 1 160 3 view .LVU55
 154 0018 014080E0 		add	r4, r0, r1
 155 001c 0C4080E5 		str	r4, [r0, #12]
 156              		.loc 1 160 3 is_stmt 1 view .LVU56
 157 0020 013080E7 		str	r3, [r0, r1]
 158              		.loc 1 160 3 view .LVU57
 159              		.loc 1 151 59 is_stmt 0 view .LVU58
 160 0024 14109DE5 		ldr	r1, [sp, #20]
 161              	.LVL4:
 162              	.LBB16:
 163              	.LBB14:
 164              		.loc 1 92 3 view .LVU59
 165 0028 58309FE5 		ldr	r3, .L8
 166              	.LVL5:
 167              		.loc 1 92 3 view .LVU60
 168              	.LBE14:
 169              	.LBE16:
 170              		.loc 1 160 3 view .LVU61
 171 002c 041084E5 		str	r1, [r4, #4]
ARM GAS  /tmp/cc4u5hVj.s 			page 4


 172              		.loc 1 160 3 is_stmt 1 view .LVU62
 173 0030 54109FE5 		ldr	r1, .L8+4
 174 0034 201084E5 		str	r1, [r4, #32]
 175              		.loc 1 160 36 view .LVU63
 176              		.loc 1 161 3 view .LVU64
 177              	.LVL6:
 178              	.LBB17:
 179              	.LBI12:
 180              		.loc 1 69 9 view .LVU65
 181              	.LBB15:
 182              		.loc 1 71 3 view .LVU66
 183              		.loc 1 92 3 is_stmt 0 view .LVU67
 184 0038 141093E5 		ldr	r1, [r3, #20]
 185              		.loc 1 71 14 view .LVU68
 186 003c 082080E5 		str	r2, [r0, #8]
 187              		.loc 1 72 3 is_stmt 1 view .LVU69
 188              		.loc 1 73 3 view .LVU70
 189              		.loc 1 78 18 is_stmt 0 view .LVU71
 190 0040 402080E5 		str	r2, [r0, #64]
 191              		.loc 1 95 3 view .LVU72
 192 0044 284080E2 		add	r4, r0, #40
 193              	.LVL7:
 194              		.loc 1 98 3 view .LVU73
 195 0048 2C2080E2 		add	r2, r0, #44
 196              	.LVL8:
 197              		.loc 1 92 3 view .LVU74
 198 004c 103080E5 		str	r3, [r0, #16]
 199 0050 141080E5 		str	r1, [r0, #20]
 200              		.loc 1 72 15 view .LVU75
 201 0054 BC71C0E1 		strh	r7, [r0, #28]	@ movhi
 202              	.LVL9:
 203              		.loc 1 75 3 is_stmt 1 view .LVU76
 204              		.loc 1 75 17 is_stmt 0 view .LVU77
 205 0058 1F60C0E5 		strb	r6, [r0, #31]
 206              		.loc 1 78 3 is_stmt 1 view .LVU78
 207              		.loc 1 79 3 view .LVU79
 208              		.loc 1 88 14 is_stmt 0 view .LVU80
 209 005c 1E50C0E5 		strb	r5, [r0, #30]
 210              		.loc 1 79 17 view .LVU81
 211 0060 3CE080E5 		str	lr, [r0, #60]
 212              		.loc 1 82 3 is_stmt 1 view .LVU82
 213              		.loc 1 92 3 is_stmt 0 view .LVU83
 214 0064 140083E5 		str	r0, [r3, #20]
 215              		.loc 1 82 18 view .LVU84
 216 0068 38E080E5 		str	lr, [r0, #56]
 217              		.loc 1 85 3 is_stmt 1 view .LVU85
 218              		.loc 1 85 14 is_stmt 0 view .LVU86
 219 006c 20E080E5 		str	lr, [r0, #32]
 220              		.loc 1 88 3 is_stmt 1 view .LVU87
 221              		.loc 1 91 3 view .LVU88
 222              		.loc 1 91 14 is_stmt 0 view .LVU89
 223 0070 18E080E5 		str	lr, [r0, #24]
 224              		.loc 1 92 3 is_stmt 1 view .LVU90
 225              		.loc 1 92 3 view .LVU91
 226              		.loc 1 92 3 view .LVU92
 227 0074 100081E5 		str	r0, [r1, #16]
 228              		.loc 1 92 17 view .LVU93
ARM GAS  /tmp/cc4u5hVj.s 			page 5


 229              		.loc 1 95 3 view .LVU94
 230 0078 284080E5 		str	r4, [r0, #40]
 231              		.loc 1 98 3 view .LVU95
 232 007c 302080E5 		str	r2, [r0, #48]
 233 0080 2C2080E5 		str	r2, [r0, #44]
 234              		.loc 1 98 30 view .LVU96
 235              		.loc 1 104 3 view .LVU97
 236              		.loc 1 104 27 view .LVU98
 237              		.loc 1 106 3 view .LVU99
 238              	.LVL10:
 239              		.loc 1 106 3 is_stmt 0 view .LVU100
 240              	.LBE15:
 241              	.LBE17:
 242              		.loc 1 162 1 view .LVU101
 243 0084 F080BDE8 		pop	{r4, r5, r6, r7, pc}
 244              	.L9:
 245              		.align	2
 246              	.L8:
 247 0088 00000000 		.word	rlist
 248 008c 00000000 		.word	_port_thread_start
 249              		.cfi_endproc
 250              	.LFE8:
 251              		.size	chThdCreateI, .-chThdCreateI
 252              		.section	.text.chThdCreateStatic,"ax",%progbits
 253              		.align	2
 254              		.global	chThdCreateStatic
 255              		.syntax unified
 256              		.arm
 257              		.fpu softvfp
 258              		.type	chThdCreateStatic, %function
 259              	chThdCreateStatic:
 260              	.LVL11:
 261              	.LFB9:
 262              		.loc 1 181 64 is_stmt 1 view -0
 263              		.cfi_startproc
 264              		@ args = 4, pretend = 0, frame = 0
 265              		@ frame_needed = 0, uses_anonymous_args = 0
 266              		.loc 1 182 3 view .LVU103
 267              		.loc 1 192 3 view .LVU104
 268              		.loc 1 181 64 is_stmt 0 view .LVU105
 269 0000 F0412DE9 		push	{r4, r5, r6, r7, r8, lr}
 270              		.cfi_def_cfa_offset 24
 271              		.cfi_offset 4, -24
 272              		.cfi_offset 5, -20
 273              		.cfi_offset 6, -16
 274              		.cfi_offset 7, -12
 275              		.cfi_offset 8, -8
 276              		.cfi_offset 14, -4
 277              		.loc 1 181 64 view .LVU106
 278 0004 01C0A0E1 		mov	ip, r1
 279 0008 0040A0E1 		mov	r4, r0
 280 000c 18809DE5 		ldr	r8, [sp, #24]
 281              		.loc 1 192 3 view .LVU107
 282              		.syntax divided
 283              	@ 192 "../os/kernel/src/chthreads.c" 1
 284 0010 9FF021E3 		msr     CPSR_c, #0x9F
 285              	@ 0 "" 2
ARM GAS  /tmp/cc4u5hVj.s 			page 6


 286              		.loc 1 192 3 is_stmt 1 view .LVU108
 287              		.loc 1 192 14 view .LVU109
 288              		.loc 1 193 3 view .LVU110
 289              	.LVL12:
 290              		.arm
 291              		.syntax unified
 292              	.LBB18:
 293              	.LBI18:
 294              		.loc 1 150 9 view .LVU111
 295              	.LBB19:
 296              		.loc 1 153 3 view .LVU112
 297              		.loc 1 155 3 view .LVU113
 298              		.loc 1 155 21 view .LVU114
 299              		.loc 1 157 3 view .LVU115
 300              		.loc 1 159 29 view .LVU116
 301              		.loc 1 160 3 view .LVU117
 302              	.LBB20:
 303              	.LBB21:
 304              		.loc 1 79 17 is_stmt 0 view .LVU118
 305 0014 0010A0E3 		mov	r1, #0
 306              	.LVL13:
 307              		.loc 1 72 15 view .LVU119
 308 0018 0270A0E3 		mov	r7, #2
 309              		.loc 1 75 17 view .LVU120
 310 001c 1460A0E3 		mov	r6, #20
 311              		.loc 1 88 14 view .LVU121
 312 0020 0150A0E3 		mov	r5, #1
 313              	.LBE21:
 314              	.LBE20:
 315              		.loc 1 160 3 view .LVU122
 316 0024 24C04CE2 		sub	ip, ip, #36
 317              	.LVL14:
 318              		.loc 1 160 3 view .LVU123
 319 0028 0CE080E0 		add	lr, r0, ip
 320 002c 0CE080E5 		str	lr, [r0, #12]
 321              		.loc 1 160 3 is_stmt 1 view .LVU124
 322 0030 0C3080E7 		str	r3, [r0, ip]
 323              		.loc 1 160 3 view .LVU125
 324              	.LBB24:
 325              	.LBB22:
 326              		.loc 1 92 3 is_stmt 0 view .LVU126
 327 0034 64309FE5 		ldr	r3, .L12
 328              	.LVL15:
 329              		.loc 1 92 3 view .LVU127
 330              	.LBE22:
 331              	.LBE24:
 332              		.loc 1 160 3 view .LVU128
 333 0038 64C09FE5 		ldr	ip, .L12+4
 334              	.LVL16:
 335              		.loc 1 160 3 view .LVU129
 336 003c 04808EE5 		str	r8, [lr, #4]
 337              		.loc 1 160 3 is_stmt 1 view .LVU130
 338 0040 20C08EE5 		str	ip, [lr, #32]
 339              		.loc 1 160 36 view .LVU131
 340              		.loc 1 161 3 view .LVU132
 341              	.LVL17:
 342              	.LBB25:
ARM GAS  /tmp/cc4u5hVj.s 			page 7


 343              	.LBI20:
 344              		.loc 1 69 9 view .LVU133
 345              	.LBB23:
 346              		.loc 1 71 3 view .LVU134
 347              		.loc 1 92 3 is_stmt 0 view .LVU135
 348 0044 14C093E5 		ldr	ip, [r3, #20]
 349              		.loc 1 71 14 view .LVU136
 350 0048 082080E5 		str	r2, [r0, #8]
 351              		.loc 1 72 3 is_stmt 1 view .LVU137
 352              		.loc 1 73 3 view .LVU138
 353              		.loc 1 78 18 is_stmt 0 view .LVU139
 354 004c 402080E5 		str	r2, [r0, #64]
 355              		.loc 1 95 3 view .LVU140
 356 0050 28E080E2 		add	lr, r0, #40
 357              	.LVL18:
 358              		.loc 1 98 3 view .LVU141
 359 0054 2C2080E2 		add	r2, r0, #44
 360              	.LVL19:
 361              		.loc 1 92 3 view .LVU142
 362 0058 103080E5 		str	r3, [r0, #16]
 363 005c 14C080E5 		str	ip, [r0, #20]
 364              		.loc 1 72 15 view .LVU143
 365 0060 BC71C0E1 		strh	r7, [r0, #28]	@ movhi
 366              	.LVL20:
 367              		.loc 1 75 3 is_stmt 1 view .LVU144
 368              		.loc 1 75 17 is_stmt 0 view .LVU145
 369 0064 1F60C0E5 		strb	r6, [r0, #31]
 370              		.loc 1 78 3 is_stmt 1 view .LVU146
 371              		.loc 1 79 3 view .LVU147
 372              		.loc 1 88 14 is_stmt 0 view .LVU148
 373 0068 1E50C0E5 		strb	r5, [r0, #30]
 374              		.loc 1 79 17 view .LVU149
 375 006c 3C1080E5 		str	r1, [r0, #60]
 376              		.loc 1 82 3 is_stmt 1 view .LVU150
 377              		.loc 1 92 3 is_stmt 0 view .LVU151
 378 0070 140083E5 		str	r0, [r3, #20]
 379              		.loc 1 82 18 view .LVU152
 380 0074 381080E5 		str	r1, [r0, #56]
 381              		.loc 1 85 3 is_stmt 1 view .LVU153
 382              		.loc 1 85 14 is_stmt 0 view .LVU154
 383 0078 201080E5 		str	r1, [r0, #32]
 384              		.loc 1 88 3 is_stmt 1 view .LVU155
 385              		.loc 1 91 3 view .LVU156
 386              		.loc 1 91 14 is_stmt 0 view .LVU157
 387 007c 181080E5 		str	r1, [r0, #24]
 388              		.loc 1 92 3 is_stmt 1 view .LVU158
 389              		.loc 1 92 3 view .LVU159
 390              		.loc 1 92 3 view .LVU160
 391 0080 10008CE5 		str	r0, [ip, #16]
 392              		.loc 1 92 17 view .LVU161
 393              		.loc 1 95 3 view .LVU162
 394 0084 28E080E5 		str	lr, [r0, #40]
 395              		.loc 1 98 3 view .LVU163
 396 0088 302080E5 		str	r2, [r0, #48]
 397 008c 2C2080E5 		str	r2, [r0, #44]
 398              		.loc 1 98 30 view .LVU164
 399              		.loc 1 104 3 view .LVU165
ARM GAS  /tmp/cc4u5hVj.s 			page 8


 400              		.loc 1 104 27 view .LVU166
 401              		.loc 1 106 3 view .LVU167
 402              	.LVL21:
 403              		.loc 1 106 3 is_stmt 0 view .LVU168
 404              	.LBE23:
 405              	.LBE25:
 406              	.LBE19:
 407              	.LBE18:
 408              		.loc 1 193 3 view .LVU169
 409 0090 FEFFFFEB 		bl	chSchWakeupS
 410              	.LVL22:
 411              		.loc 1 194 3 is_stmt 1 view .LVU170
 412              		.loc 1 194 3 view .LVU171
 413              		.syntax divided
 414              	@ 194 "../os/kernel/src/chthreads.c" 1
 415 0094 1FF021E3 		msr     CPSR_c, #0x1F
 416              	@ 0 "" 2
 417              		.loc 1 194 16 view .LVU172
 418              		.loc 1 195 3 view .LVU173
 419              		.loc 1 196 1 is_stmt 0 view .LVU174
 420              		.arm
 421              		.syntax unified
 422 0098 0400A0E1 		mov	r0, r4
 423 009c F081BDE8 		pop	{r4, r5, r6, r7, r8, pc}
 424              	.L13:
 425              		.align	2
 426              	.L12:
 427 00a0 00000000 		.word	rlist
 428 00a4 00000000 		.word	_port_thread_start
 429              		.cfi_endproc
 430              	.LFE9:
 431              		.size	chThdCreateStatic, .-chThdCreateStatic
 432              		.section	.text.chThdSetPriority,"ax",%progbits
 433              		.align	2
 434              		.global	chThdSetPriority
 435              		.syntax unified
 436              		.arm
 437              		.fpu softvfp
 438              		.type	chThdSetPriority, %function
 439              	chThdSetPriority:
 440              	.LVL23:
 441              	.LFB10:
 442              		.loc 1 210 43 is_stmt 1 view -0
 443              		.cfi_startproc
 444              		@ args = 0, pretend = 0, frame = 0
 445              		@ frame_needed = 0, uses_anonymous_args = 0
 446              		.loc 1 211 3 view .LVU176
 447              		.loc 1 213 3 view .LVU177
 448              		.loc 1 213 54 view .LVU178
 449              		.loc 1 215 3 view .LVU179
 450              		.loc 1 210 43 is_stmt 0 view .LVU180
 451 0000 10402DE9 		push	{r4, lr}
 452              		.cfi_def_cfa_offset 8
 453              		.cfi_offset 4, -8
 454              		.cfi_offset 14, -4
 455              		.loc 1 210 43 view .LVU181
 456 0004 0030A0E1 		mov	r3, r0
ARM GAS  /tmp/cc4u5hVj.s 			page 9


 457              		.loc 1 215 3 view .LVU182
 458              		.syntax divided
 459              	@ 215 "../os/kernel/src/chthreads.c" 1
 460 0008 9FF021E3 		msr     CPSR_c, #0x9F
 461              	@ 0 "" 2
 462              		.loc 1 215 3 is_stmt 1 view .LVU183
 463              		.loc 1 215 14 view .LVU184
 464              		.loc 1 217 3 view .LVU185
 465              		.loc 1 217 13 is_stmt 0 view .LVU186
 466              		.arm
 467              		.syntax unified
 468 000c 38209FE5 		ldr	r2, .L20
 469 0010 182092E5 		ldr	r2, [r2, #24]
 470              		.loc 1 218 13 view .LVU187
 471 0014 080092E5 		ldr	r0, [r2, #8]
 472              	.LVL24:
 473              		.loc 1 217 11 view .LVU188
 474 0018 404092E5 		ldr	r4, [r2, #64]
 475              	.LVL25:
 476              		.loc 1 218 3 is_stmt 1 view .LVU189
 477              		.loc 1 220 21 is_stmt 0 view .LVU190
 478 001c 403082E5 		str	r3, [r2, #64]
 479              		.loc 1 218 6 view .LVU191
 480 0020 041040E0 		sub	r1, r0, r4
 481 0024 111F6FE1 		clz	r1, r1
 482 0028 A112A0E1 		lsr	r1, r1, #5
 483              		.loc 1 218 44 view .LVU192
 484 002c 030050E1 		cmp	r0, r3
 485 0030 01108133 		orrcc	r1, r1, #1
 486 0034 000051E3 		cmp	r1, #0
 487              		.loc 1 219 5 is_stmt 1 view .LVU193
 488              		.loc 1 219 19 is_stmt 0 view .LVU194
 489 0038 08308215 		strne	r3, [r2, #8]
 490              		.loc 1 220 3 is_stmt 1 view .LVU195
 491              		.loc 1 225 3 view .LVU196
 492 003c FEFFFFEB 		bl	chSchRescheduleS
 493              	.LVL26:
 494              		.loc 1 226 3 view .LVU197
 495              		.loc 1 226 3 view .LVU198
 496              		.syntax divided
 497              	@ 226 "../os/kernel/src/chthreads.c" 1
 498 0040 1FF021E3 		msr     CPSR_c, #0x1F
 499              	@ 0 "" 2
 500              		.loc 1 226 16 view .LVU199
 501              		.loc 1 227 3 view .LVU200
 502              		.loc 1 228 1 is_stmt 0 view .LVU201
 503              		.arm
 504              		.syntax unified
 505 0044 0400A0E1 		mov	r0, r4
 506 0048 1080BDE8 		pop	{r4, pc}
 507              	.L21:
 508              		.align	2
 509              	.L20:
 510 004c 00000000 		.word	rlist
 511              		.cfi_endproc
 512              	.LFE10:
 513              		.size	chThdSetPriority, .-chThdSetPriority
ARM GAS  /tmp/cc4u5hVj.s 			page 10


 514              		.section	.text.chThdResume,"ax",%progbits
 515              		.align	2
 516              		.global	chThdResume
 517              		.syntax unified
 518              		.arm
 519              		.fpu softvfp
 520              		.type	chThdResume, %function
 521              	chThdResume:
 522              	.LVL27:
 523              	.LFB11:
 524              		.loc 1 243 33 is_stmt 1 view -0
 525              		.cfi_startproc
 526              		@ args = 0, pretend = 0, frame = 0
 527              		@ frame_needed = 0, uses_anonymous_args = 0
 528              		.loc 1 245 3 view .LVU203
 529              		.loc 1 243 33 is_stmt 0 view .LVU204
 530 0000 10402DE9 		push	{r4, lr}
 531              		.cfi_def_cfa_offset 8
 532              		.cfi_offset 4, -8
 533              		.cfi_offset 14, -4
 534              		.loc 1 243 33 view .LVU205
 535 0004 0040A0E1 		mov	r4, r0
 536              		.loc 1 245 3 view .LVU206
 537              		.syntax divided
 538              	@ 245 "../os/kernel/src/chthreads.c" 1
 539 0008 9FF021E3 		msr     CPSR_c, #0x9F
 540              	@ 0 "" 2
 541              		.loc 1 245 3 is_stmt 1 view .LVU207
 542              		.loc 1 245 14 view .LVU208
 543              		.loc 1 246 3 view .LVU209
 544              		.loc 1 248 57 view .LVU210
 545              		.loc 1 249 3 view .LVU211
 546              		.arm
 547              		.syntax unified
 548 000c 0010A0E3 		mov	r1, #0
 549 0010 FEFFFFEB 		bl	chSchWakeupS
 550              	.LVL28:
 551              		.loc 1 250 3 view .LVU212
 552              		.loc 1 250 3 view .LVU213
 553              		.syntax divided
 554              	@ 250 "../os/kernel/src/chthreads.c" 1
 555 0014 1FF021E3 		msr     CPSR_c, #0x1F
 556              	@ 0 "" 2
 557              		.loc 1 250 16 view .LVU214
 558              		.loc 1 251 3 view .LVU215
 559              		.loc 1 252 1 is_stmt 0 view .LVU216
 560              		.arm
 561              		.syntax unified
 562 0018 0400A0E1 		mov	r0, r4
 563 001c 1080BDE8 		pop	{r4, pc}
 564              		.cfi_endproc
 565              	.LFE11:
 566              		.size	chThdResume, .-chThdResume
 567              		.section	.text.chThdTerminate,"ax",%progbits
 568              		.align	2
 569              		.global	chThdTerminate
 570              		.syntax unified
ARM GAS  /tmp/cc4u5hVj.s 			page 11


 571              		.arm
 572              		.fpu softvfp
 573              		.type	chThdTerminate, %function
 574              	chThdTerminate:
 575              	.LVL29:
 576              	.LFB12:
 577              		.loc 1 266 33 is_stmt 1 view -0
 578              		.cfi_startproc
 579              		@ args = 0, pretend = 0, frame = 0
 580              		@ frame_needed = 0, uses_anonymous_args = 0
 581              		@ link register save eliminated.
 582              		.loc 1 268 3 view .LVU218
 583              		.syntax divided
 584              	@ 268 "../os/kernel/src/chthreads.c" 1
 585 0000 9FF021E3 		msr     CPSR_c, #0x9F
 586              	@ 0 "" 2
 587              		.loc 1 268 3 view .LVU219
 588              		.loc 1 268 14 view .LVU220
 589              		.loc 1 269 3 view .LVU221
 590              		.loc 1 269 15 is_stmt 0 view .LVU222
 591              		.arm
 592              		.syntax unified
 593 0004 1D30D0E5 		ldrb	r3, [r0, #29]	@ zero_extendqisi2
 594 0008 043083E3 		orr	r3, r3, #4
 595 000c 1D30C0E5 		strb	r3, [r0, #29]
 596              		.loc 1 270 3 is_stmt 1 view .LVU223
 597              		.loc 1 270 3 view .LVU224
 598              		.syntax divided
 599              	@ 270 "../os/kernel/src/chthreads.c" 1
 600 0010 1FF021E3 		msr     CPSR_c, #0x1F
 601              	@ 0 "" 2
 602              		.loc 1 270 16 view .LVU225
 603              		.loc 1 271 1 is_stmt 0 view .LVU226
 604              		.arm
 605              		.syntax unified
 606 0014 1EFF2FE1 		bx	lr
 607              		.cfi_endproc
 608              	.LFE12:
 609              		.size	chThdTerminate, .-chThdTerminate
 610              		.section	.text.chThdSleep,"ax",%progbits
 611              		.align	2
 612              		.global	chThdSleep
 613              		.syntax unified
 614              		.arm
 615              		.fpu softvfp
 616              		.type	chThdSleep, %function
 617              	chThdSleep:
 618              	.LVL30:
 619              	.LFB13:
 620              		.loc 1 285 33 is_stmt 1 view -0
 621              		.cfi_startproc
 622              		@ args = 0, pretend = 0, frame = 0
 623              		@ frame_needed = 0, uses_anonymous_args = 0
 624              		.loc 1 287 3 view .LVU228
 625              		.loc 1 287 51 view .LVU229
 626              		.loc 1 289 3 view .LVU230
 627              		.loc 1 285 33 is_stmt 0 view .LVU231
ARM GAS  /tmp/cc4u5hVj.s 			page 12


 628 0000 0010A0E1 		mov	r1, r0
 629 0004 10402DE9 		push	{r4, lr}
 630              		.cfi_def_cfa_offset 8
 631              		.cfi_offset 4, -8
 632              		.cfi_offset 14, -4
 633              		.loc 1 289 3 view .LVU232
 634              		.syntax divided
 635              	@ 289 "../os/kernel/src/chthreads.c" 1
 636 0008 9FF021E3 		msr     CPSR_c, #0x9F
 637              	@ 0 "" 2
 638              		.loc 1 289 3 is_stmt 1 view .LVU233
 639              		.loc 1 289 14 view .LVU234
 640              		.loc 1 290 3 view .LVU235
 641              		.arm
 642              		.syntax unified
 643 000c 0600A0E3 		mov	r0, #6
 644              	.LVL31:
 645              		.loc 1 290 3 is_stmt 0 view .LVU236
 646 0010 FEFFFFEB 		bl	chSchGoSleepTimeoutS
 647              	.LVL32:
 648              		.loc 1 291 3 is_stmt 1 view .LVU237
 649              		.loc 1 291 3 view .LVU238
 650              		.syntax divided
 651              	@ 291 "../os/kernel/src/chthreads.c" 1
 652 0014 1FF021E3 		msr     CPSR_c, #0x1F
 653              	@ 0 "" 2
 654              		.loc 1 291 16 view .LVU239
 655              		.loc 1 292 1 is_stmt 0 view .LVU240
 656              		.arm
 657              		.syntax unified
 658 0018 1080BDE8 		pop	{r4, pc}
 659              		.cfi_endproc
 660              	.LFE13:
 661              		.size	chThdSleep, .-chThdSleep
 662              		.section	.text.chThdSleepUntil,"ax",%progbits
 663              		.align	2
 664              		.global	chThdSleepUntil
 665              		.syntax unified
 666              		.arm
 667              		.fpu softvfp
 668              		.type	chThdSleepUntil, %function
 669              	chThdSleepUntil:
 670              	.LVL33:
 671              	.LFB14:
 672              		.loc 1 302 38 is_stmt 1 view -0
 673              		.cfi_startproc
 674              		@ args = 0, pretend = 0, frame = 0
 675              		@ frame_needed = 0, uses_anonymous_args = 0
 676              		.loc 1 304 3 view .LVU242
 677              		.syntax divided
 678              	@ 304 "../os/kernel/src/chthreads.c" 1
 679 0000 9FF021E3 		msr     CPSR_c, #0x9F
 680              	@ 0 "" 2
 681              		.loc 1 304 3 view .LVU243
 682              		.loc 1 304 14 view .LVU244
 683              		.loc 1 305 3 view .LVU245
 684              		.loc 1 305 16 is_stmt 0 view .LVU246
ARM GAS  /tmp/cc4u5hVj.s 			page 13


 685              		.arm
 686              		.syntax unified
 687 0004 24309FE5 		ldr	r3, .L37
 688 0008 0C1093E5 		ldr	r1, [r3, #12]
 689              	.LVL34:
 690              		.loc 1 305 6 view .LVU247
 691 000c 011050E0 		subs	r1, r0, r1
 692              	.LVL35:
 693              		.loc 1 305 6 view .LVU248
 694 0010 0100001A 		bne	.L36
 695              		.loc 1 307 3 is_stmt 1 view .LVU249
 696              		.loc 1 307 3 view .LVU250
 697              		.syntax divided
 698              	@ 307 "../os/kernel/src/chthreads.c" 1
 699 0014 1FF021E3 		msr     CPSR_c, #0x1F
 700              	@ 0 "" 2
 701              		.loc 1 307 16 view .LVU251
 702              		.loc 1 307 3 is_stmt 0 view .LVU252
 703              		.arm
 704              		.syntax unified
 705 0018 1EFF2FE1 		bx	lr
 706              	.L36:
 707              		.loc 1 306 5 is_stmt 1 view .LVU253
 708              		.loc 1 302 38 is_stmt 0 view .LVU254
 709 001c 10402DE9 		push	{r4, lr}
 710              		.cfi_def_cfa_offset 8
 711              		.cfi_offset 4, -8
 712              		.cfi_offset 14, -4
 713              		.loc 1 306 5 view .LVU255
 714 0020 0600A0E3 		mov	r0, #6
 715 0024 FEFFFFEB 		bl	chSchGoSleepTimeoutS
 716              	.LVL36:
 717              		.loc 1 307 3 is_stmt 1 view .LVU256
 718              		.loc 1 307 3 view .LVU257
 719              		.syntax divided
 720              	@ 307 "../os/kernel/src/chthreads.c" 1
 721 0028 1FF021E3 		msr     CPSR_c, #0x1F
 722              	@ 0 "" 2
 723              		.loc 1 307 16 view .LVU258
 724              		.loc 1 308 1 is_stmt 0 view .LVU259
 725              		.arm
 726              		.syntax unified
 727 002c 1080BDE8 		pop	{r4, pc}
 728              	.L38:
 729              		.align	2
 730              	.L37:
 731 0030 00000000 		.word	vtlist
 732              		.cfi_endproc
 733              	.LFE14:
 734              		.size	chThdSleepUntil, .-chThdSleepUntil
 735              		.section	.text.chThdYield,"ax",%progbits
 736              		.align	2
 737              		.global	chThdYield
 738              		.syntax unified
 739              		.arm
 740              		.fpu softvfp
 741              		.type	chThdYield, %function
ARM GAS  /tmp/cc4u5hVj.s 			page 14


 742              	chThdYield:
 743              	.LFB15:
 744              		.loc 1 317 23 is_stmt 1 view -0
 745              		.cfi_startproc
 746              		@ args = 0, pretend = 0, frame = 0
 747              		@ frame_needed = 0, uses_anonymous_args = 0
 748              		.loc 1 319 3 view .LVU261
 749              		.syntax divided
 750              	@ 319 "../os/kernel/src/chthreads.c" 1
 751 0000 9FF021E3 		msr     CPSR_c, #0x9F
 752              	@ 0 "" 2
 753              		.loc 1 319 3 view .LVU262
 754              		.loc 1 319 14 view .LVU263
 755              		.loc 1 320 3 view .LVU264
 756              		.arm
 757              		.syntax unified
 758 0004 2C309FE5 		ldr	r3, .L46
 759 0008 002093E5 		ldr	r2, [r3]
 760 000c 183093E5 		ldr	r3, [r3, #24]
 761 0010 082092E5 		ldr	r2, [r2, #8]
 762 0014 083093E5 		ldr	r3, [r3, #8]
 763 0018 030052E1 		cmp	r2, r3
 764 001c 0100002A 		bcs	.L45
 765              		.loc 1 320 18 view .LVU265
 766              		.loc 1 321 3 view .LVU266
 767              		.loc 1 321 3 view .LVU267
 768              		.syntax divided
 769              	@ 321 "../os/kernel/src/chthreads.c" 1
 770 0020 1FF021E3 		msr     CPSR_c, #0x1F
 771              	@ 0 "" 2
 772              		.loc 1 321 16 view .LVU268
 773              		.loc 1 321 3 is_stmt 0 view .LVU269
 774              		.arm
 775              		.syntax unified
 776 0024 1EFF2FE1 		bx	lr
 777              	.L45:
 778              		.loc 1 320 3 is_stmt 1 discriminator 1 view .LVU270
 779              		.loc 1 317 23 is_stmt 0 discriminator 1 view .LVU271
 780 0028 10402DE9 		push	{r4, lr}
 781              		.cfi_def_cfa_offset 8
 782              		.cfi_offset 4, -8
 783              		.cfi_offset 14, -4
 784              		.loc 1 320 3 discriminator 1 view .LVU272
 785 002c FEFFFFEB 		bl	chSchDoRescheduleBehind
 786              	.LVL37:
 787              		.loc 1 320 18 is_stmt 1 discriminator 1 view .LVU273
 788              		.loc 1 321 3 discriminator 1 view .LVU274
 789              		.loc 1 321 3 discriminator 1 view .LVU275
 790              		.syntax divided
 791              	@ 321 "../os/kernel/src/chthreads.c" 1
 792 0030 1FF021E3 		msr     CPSR_c, #0x1F
 793              	@ 0 "" 2
 794              		.loc 1 321 16 discriminator 1 view .LVU276
 795              		.loc 1 322 1 is_stmt 0 discriminator 1 view .LVU277
 796              		.arm
 797              		.syntax unified
 798 0034 1080BDE8 		pop	{r4, pc}
ARM GAS  /tmp/cc4u5hVj.s 			page 15


 799              	.L47:
 800              		.align	2
 801              	.L46:
 802 0038 00000000 		.word	rlist
 803              		.cfi_endproc
 804              	.LFE15:
 805              		.size	chThdYield, .-chThdYield
 806              		.section	.text.chThdExitS,"ax",%progbits
 807              		.align	2
 808              		.global	chThdExitS
 809              		.syntax unified
 810              		.arm
 811              		.fpu softvfp
 812              		.type	chThdExitS, %function
 813              	chThdExitS:
 814              	.LVL38:
 815              	.LFB17:
 816              		.loc 1 359 28 is_stmt 1 view -0
 817              		.cfi_startproc
 818              		@ args = 0, pretend = 0, frame = 0
 819              		@ frame_needed = 0, uses_anonymous_args = 0
 820              		.loc 1 360 3 view .LVU279
 821              		.loc 1 360 11 is_stmt 0 view .LVU280
 822 0000 58209FE5 		ldr	r2, .L54
 823              		.loc 1 359 28 view .LVU281
 824 0004 70402DE9 		push	{r4, r5, r6, lr}
 825              		.cfi_def_cfa_offset 16
 826              		.cfi_offset 4, -16
 827              		.cfi_offset 5, -12
 828              		.cfi_offset 6, -8
 829              		.cfi_offset 14, -4
 830              		.loc 1 360 11 view .LVU282
 831 0008 184092E5 		ldr	r4, [r2, #24]
 832              	.LVL39:
 833              		.loc 1 362 3 is_stmt 1 view .LVU283
 834              		.loc 1 359 28 is_stmt 0 view .LVU284
 835 000c 0030A0E1 		mov	r3, r0
 836              		.loc 1 367 10 view .LVU285
 837 0010 0450A0E1 		mov	r5, r4
 838 0014 2800B5E5 		ldr	r0, [r5, #40]!
 839              	.LVL40:
 840              		.loc 1 362 20 view .LVU286
 841 0018 243084E5 		str	r3, [r4, #36]
 842              		.loc 1 364 3 is_stmt 1 view .LVU287
 843              		.loc 1 364 27 view .LVU288
 844              		.loc 1 367 3 view .LVU289
 845              		.loc 1 367 9 view .LVU290
 846 001c 000055E1 		cmp	r5, r0
 847 0020 0500000A 		beq	.L49
 848              	.LVL41:
 849              	.L50:
 850              		.loc 1 368 5 view .LVU291
 851              	.LBB26:
 852              	.LBI26:
 853              		.file 2 "../os/kernel/include/chinline.h"
 854              		.loc 2 79 23 view .LVU292
 855              	.LBB27:
ARM GAS  /tmp/cc4u5hVj.s 			page 16


 856              		.loc 2 81 3 view .LVU293
 857              		.loc 2 82 3 view .LVU294
 858              		.loc 2 82 19 is_stmt 0 view .LVU295
 859 0024 003090E5 		ldr	r3, [r0]
 860              		.loc 2 82 15 view .LVU296
 861 0028 283084E5 		str	r3, [r4, #40]
 862              		.loc 2 83 3 is_stmt 1 view .LVU297
 863              	.LVL42:
 864              		.loc 2 83 3 is_stmt 0 view .LVU298
 865              	.LBE27:
 866              	.LBE26:
 867              		.loc 1 368 5 view .LVU299
 868 002c FEFFFFEB 		bl	chSchReadyI
 869              	.LVL43:
 870              		.loc 1 367 9 is_stmt 1 view .LVU300
 871              		.loc 1 367 10 is_stmt 0 view .LVU301
 872 0030 280094E5 		ldr	r0, [r4, #40]
 873              		.loc 1 367 9 view .LVU302
 874 0034 050050E1 		cmp	r0, r5
 875 0038 F9FFFF1A 		bne	.L50
 876              	.LVL44:
 877              	.L49:
 878              		.loc 1 373 3 is_stmt 1 view .LVU303
 879              		.loc 1 373 6 is_stmt 0 view .LVU304
 880 003c 1D30D4E5 		ldrb	r3, [r4, #29]	@ zero_extendqisi2
 881              		.loc 1 376 3 view .LVU305
 882 0040 0E00A0E3 		mov	r0, #14
 883              		.loc 1 373 6 view .LVU306
 884 0044 030013E3 		tst	r3, #3
 885              		.loc 1 374 5 is_stmt 1 view .LVU307
 886 0048 14209405 		ldreq	r2, [r4, #20]
 887 004c 10309405 		ldreq	r3, [r4, #16]
 888              		.loc 1 379 1 is_stmt 0 view .LVU308
 889 0050 7040BDE8 		pop	{r4, r5, r6, lr}
 890              		.cfi_restore 14
 891              		.cfi_restore 6
 892              		.cfi_restore 5
 893              		.cfi_restore 4
 894              		.cfi_def_cfa_offset 0
 895              	.LVL45:
 896              		.loc 1 374 5 view .LVU309
 897 0054 10308205 		streq	r3, [r2, #16]
 898              		.loc 1 374 5 is_stmt 1 view .LVU310
 899 0058 14208305 		streq	r2, [r3, #20]
 900              		.loc 1 374 19 view .LVU311
 901              		.loc 1 376 3 view .LVU312
 902 005c FEFFFFEA 		b	chSchGoSleepS
 903              	.LVL46:
 904              	.L55:
 905              		.align	2
 906              	.L54:
 907 0060 00000000 		.word	rlist
 908              		.cfi_endproc
 909              	.LFE17:
 910              		.size	chThdExitS, .-chThdExitS
 911              		.section	.text.chThdExit,"ax",%progbits
 912              		.align	2
ARM GAS  /tmp/cc4u5hVj.s 			page 17


 913              		.global	chThdExit
 914              		.syntax unified
 915              		.arm
 916              		.fpu softvfp
 917              		.type	chThdExit, %function
 918              	chThdExit:
 919              	.LVL47:
 920              	.LFB16:
 921              		.loc 1 338 27 view -0
 922              		.cfi_startproc
 923              		@ args = 0, pretend = 0, frame = 0
 924              		@ frame_needed = 0, uses_anonymous_args = 0
 925              		@ link register save eliminated.
 926              		.loc 1 340 3 view .LVU314
 927              		.syntax divided
 928              	@ 340 "../os/kernel/src/chthreads.c" 1
 929 0000 9FF021E3 		msr     CPSR_c, #0x9F
 930              	@ 0 "" 2
 931              		.loc 1 340 3 view .LVU315
 932              		.loc 1 340 14 view .LVU316
 933              		.loc 1 341 3 view .LVU317
 934              		.arm
 935              		.syntax unified
 936 0004 FEFFFFEA 		b	chThdExitS
 937              	.LVL48:
 938              		.loc 1 341 3 is_stmt 0 view .LVU318
 939              		.cfi_endproc
 940              	.LFE16:
 941              		.size	chThdExit, .-chThdExit
 942              		.section	.text.chThdWait,"ax",%progbits
 943              		.align	2
 944              		.global	chThdWait
 945              		.syntax unified
 946              		.arm
 947              		.fpu softvfp
 948              		.type	chThdWait, %function
 949              	chThdWait:
 950              	.LVL49:
 951              	.LFB18:
 952              		.loc 1 413 29 is_stmt 1 view -0
 953              		.cfi_startproc
 954              		@ args = 0, pretend = 0, frame = 0
 955              		@ frame_needed = 0, uses_anonymous_args = 0
 956              		.loc 1 414 3 view .LVU320
 957              		.loc 1 416 3 view .LVU321
 958              		.loc 1 416 38 view .LVU322
 959              		.loc 1 418 3 view .LVU323
 960              		.loc 1 413 29 is_stmt 0 view .LVU324
 961 0000 70402DE9 		push	{r4, r5, r6, lr}
 962              		.cfi_def_cfa_offset 16
 963              		.cfi_offset 4, -16
 964              		.cfi_offset 5, -12
 965              		.cfi_offset 6, -8
 966              		.cfi_offset 14, -4
 967              		.loc 1 413 29 view .LVU325
 968 0004 0040A0E1 		mov	r4, r0
 969              		.loc 1 418 3 view .LVU326
ARM GAS  /tmp/cc4u5hVj.s 			page 18


 970              		.syntax divided
 971              	@ 418 "../os/kernel/src/chthreads.c" 1
 972 0008 9FF021E3 		msr     CPSR_c, #0x9F
 973              	@ 0 "" 2
 974              		.loc 1 418 3 is_stmt 1 view .LVU327
 975              		.loc 1 418 14 view .LVU328
 976              		.loc 1 419 3 view .LVU329
 977              		.loc 1 419 62 view .LVU330
 978              		.loc 1 421 3 view .LVU331
 979              		.loc 1 421 67 view .LVU332
 980              		.loc 1 423 3 view .LVU333
 981              		.loc 1 423 6 is_stmt 0 view .LVU334
 982              		.arm
 983              		.syntax unified
 984 000c 1C30D0E5 		ldrb	r3, [r0, #28]	@ zero_extendqisi2
 985 0010 0E0053E3 		cmp	r3, #14
 986 0014 0600000A 		beq	.L58
 987              		.loc 1 419 3 view .LVU335
 988 0018 2C309FE5 		ldr	r3, .L63
 989              	.LBB28:
 990              	.LBB29:
 991              		.loc 2 75 19 view .LVU336
 992 001c 282090E5 		ldr	r2, [r0, #40]
 993              	.LBE29:
 994              	.LBE28:
 995              		.loc 1 419 3 view .LVU337
 996 0020 183093E5 		ldr	r3, [r3, #24]
 997              		.loc 1 424 5 is_stmt 1 view .LVU338
 998              	.LVL50:
 999              	.LBB32:
 1000              	.LBI28:
 1001              		.loc 2 73 20 view .LVU339
 1002              	.LBB30:
 1003              		.loc 2 75 3 view .LVU340
 1004              	.LBE30:
 1005              	.LBE32:
 1006              		.loc 1 425 5 is_stmt 0 view .LVU341
 1007 0024 0700A0E3 		mov	r0, #7
 1008              	.LVL51:
 1009              	.LBB33:
 1010              	.LBB31:
 1011              		.loc 2 75 14 view .LVU342
 1012 0028 002083E5 		str	r2, [r3]
 1013              		.loc 2 76 3 is_stmt 1 view .LVU343
 1014              		.loc 2 76 15 is_stmt 0 view .LVU344
 1015 002c 283084E5 		str	r3, [r4, #40]
 1016              	.LVL52:
 1017              		.loc 2 76 15 view .LVU345
 1018              	.LBE31:
 1019              	.LBE33:
 1020              		.loc 1 425 5 is_stmt 1 view .LVU346
 1021 0030 FEFFFFEB 		bl	chSchGoSleepS
 1022              	.LVL53:
 1023              	.L58:
 1024              		.loc 1 427 3 view .LVU347
 1025              		.loc 1 427 7 is_stmt 0 view .LVU348
 1026 0034 245094E5 		ldr	r5, [r4, #36]
ARM GAS  /tmp/cc4u5hVj.s 			page 19


 1027              	.LVL54:
 1028              		.loc 1 428 3 is_stmt 1 view .LVU349
 1029              		.loc 1 428 3 view .LVU350
 1030              		.syntax divided
 1031              	@ 428 "../os/kernel/src/chthreads.c" 1
 1032 0038 1FF021E3 		msr     CPSR_c, #0x1F
 1033              	@ 0 "" 2
 1034              		.loc 1 428 16 view .LVU351
 1035              		.loc 1 430 3 view .LVU352
 1036              		.arm
 1037              		.syntax unified
 1038 003c 0400A0E1 		mov	r0, r4
 1039 0040 FEFFFFEB 		bl	chThdRelease
 1040              	.LVL55:
 1041              		.loc 1 432 3 view .LVU353
 1042              		.loc 1 433 1 is_stmt 0 view .LVU354
 1043 0044 0500A0E1 		mov	r0, r5
 1044 0048 7080BDE8 		pop	{r4, r5, r6, pc}
 1045              	.L64:
 1046              		.align	2
 1047              	.L63:
 1048 004c 00000000 		.word	rlist
 1049              		.cfi_endproc
 1050              	.LFE18:
 1051              		.size	chThdWait, .-chThdWait
 1052              		.text
 1053              	.Letext0:
 1054              		.file 3 "/usr/lib/gcc/arm-none-eabi/9.2.1/include/stddef.h"
 1055              		.file 4 "/usr/lib/gcc/arm-none-eabi/9.2.1/include/stdint.h"
 1056              		.file 5 "../os/ports/GCC/ARM/chtypes.h"
 1057              		.file 6 "../os/kernel/include/chlists.h"
 1058              		.file 7 "../os/kernel/include/chthreads.h"
 1059              		.file 8 "../os/ports/GCC/ARM/chcore.h"
 1060              		.file 9 "../os/kernel/include/chvt.h"
 1061              		.file 10 "../os/kernel/include/chschd.h"
 1062              		.file 11 "../os/kernel/include/chmtx.h"
 1063              		.file 12 "../os/kernel/include/chregistry.h"
 1064              		.file 13 "../os/kernel/include/ch.h"
 1065              		.file 14 "../os/kernel/include/chdynamic.h"
 1066              		.section	.debug_info,"",%progbits
 1067              	.Ldebug_info0:
 1068 0000 200C0000 		.4byte	0xc20
 1069 0004 0400     		.2byte	0x4
 1070 0006 00000000 		.4byte	.Ldebug_abbrev0
 1071 000a 04       		.byte	0x4
 1072 000b 01       		.uleb128 0x1
 1073 000c 1B000000 		.4byte	.LASF120
 1074 0010 0C       		.byte	0xc
 1075 0011 EA030000 		.4byte	.LASF121
 1076 0015 F2040000 		.4byte	.LASF122
 1077 0019 60000000 		.4byte	.Ldebug_ranges0+0x60
 1078 001d 00000000 		.4byte	0
 1079 0021 00000000 		.4byte	.Ldebug_line0
 1080 0025 02       		.uleb128 0x2
 1081 0026 04       		.byte	0x4
 1082 0027 05       		.byte	0x5
 1083 0028 696E7400 		.ascii	"int\000"
ARM GAS  /tmp/cc4u5hVj.s 			page 20


 1084 002c 03       		.uleb128 0x3
 1085 002d 22020000 		.4byte	.LASF3
 1086 0031 03       		.byte	0x3
 1087 0032 D1       		.byte	0xd1
 1088 0033 17       		.byte	0x17
 1089 0034 38000000 		.4byte	0x38
 1090 0038 04       		.uleb128 0x4
 1091 0039 04       		.byte	0x4
 1092 003a 07       		.byte	0x7
 1093 003b 3A020000 		.4byte	.LASF0
 1094 003f 04       		.uleb128 0x4
 1095 0040 01       		.byte	0x1
 1096 0041 06       		.byte	0x6
 1097 0042 5D010000 		.4byte	.LASF1
 1098 0046 04       		.uleb128 0x4
 1099 0047 02       		.byte	0x2
 1100 0048 05       		.byte	0x5
 1101 0049 2F040000 		.4byte	.LASF2
 1102 004d 03       		.uleb128 0x3
 1103 004e 0F040000 		.4byte	.LASF4
 1104 0052 04       		.byte	0x4
 1105 0053 28       		.byte	0x28
 1106 0054 18       		.byte	0x18
 1107 0055 59000000 		.4byte	0x59
 1108 0059 04       		.uleb128 0x4
 1109 005a 04       		.byte	0x4
 1110 005b 05       		.byte	0x5
 1111 005c AF010000 		.4byte	.LASF5
 1112 0060 04       		.uleb128 0x4
 1113 0061 08       		.byte	0x8
 1114 0062 05       		.byte	0x5
 1115 0063 4F010000 		.4byte	.LASF6
 1116 0067 03       		.uleb128 0x3
 1117 0068 D2050000 		.4byte	.LASF7
 1118 006c 04       		.byte	0x4
 1119 006d 2E       		.byte	0x2e
 1120 006e 18       		.byte	0x18
 1121 006f 73000000 		.4byte	0x73
 1122 0073 04       		.uleb128 0x4
 1123 0074 01       		.byte	0x1
 1124 0075 08       		.byte	0x8
 1125 0076 17040000 		.4byte	.LASF8
 1126 007a 03       		.uleb128 0x3
 1127 007b C1010000 		.4byte	.LASF9
 1128 007f 04       		.byte	0x4
 1129 0080 31       		.byte	0x31
 1130 0081 19       		.byte	0x19
 1131 0082 86000000 		.4byte	0x86
 1132 0086 04       		.uleb128 0x4
 1133 0087 02       		.byte	0x2
 1134 0088 07       		.byte	0x7
 1135 0089 92020000 		.4byte	.LASF10
 1136 008d 03       		.uleb128 0x3
 1137 008e C8040000 		.4byte	.LASF11
 1138 0092 04       		.byte	0x4
 1139 0093 34       		.byte	0x34
 1140 0094 19       		.byte	0x19
ARM GAS  /tmp/cc4u5hVj.s 			page 21


 1141 0095 99000000 		.4byte	0x99
 1142 0099 04       		.uleb128 0x4
 1143 009a 04       		.byte	0x4
 1144 009b 07       		.byte	0x7
 1145 009c 5C020000 		.4byte	.LASF12
 1146 00a0 04       		.uleb128 0x4
 1147 00a1 08       		.byte	0x8
 1148 00a2 07       		.byte	0x7
 1149 00a3 0D010000 		.4byte	.LASF13
 1150 00a7 03       		.uleb128 0x3
 1151 00a8 C0020000 		.4byte	.LASF14
 1152 00ac 05       		.byte	0x5
 1153 00ad 2A       		.byte	0x2a
 1154 00ae 19       		.byte	0x19
 1155 00af 67000000 		.4byte	0x67
 1156 00b3 03       		.uleb128 0x3
 1157 00b4 B8010000 		.4byte	.LASF15
 1158 00b8 05       		.byte	0x5
 1159 00b9 2B       		.byte	0x2b
 1160 00ba 19       		.byte	0x19
 1161 00bb 67000000 		.4byte	0x67
 1162 00bf 03       		.uleb128 0x3
 1163 00c0 D0030000 		.4byte	.LASF16
 1164 00c4 05       		.byte	0x5
 1165 00c5 2C       		.byte	0x2c
 1166 00c6 19       		.byte	0x19
 1167 00c7 67000000 		.4byte	0x67
 1168 00cb 03       		.uleb128 0x3
 1169 00cc 98010000 		.4byte	.LASF17
 1170 00d0 05       		.byte	0x5
 1171 00d1 2D       		.byte	0x2d
 1172 00d2 19       		.byte	0x19
 1173 00d3 67000000 		.4byte	0x67
 1174 00d7 03       		.uleb128 0x3
 1175 00d8 07040000 		.4byte	.LASF18
 1176 00dc 05       		.byte	0x5
 1177 00dd 2E       		.byte	0x2e
 1178 00de 19       		.byte	0x19
 1179 00df 8D000000 		.4byte	0x8d
 1180 00e3 03       		.uleb128 0x3
 1181 00e4 B2020000 		.4byte	.LASF19
 1182 00e8 05       		.byte	0x5
 1183 00e9 2F       		.byte	0x2f
 1184 00ea 19       		.byte	0x19
 1185 00eb 4D000000 		.4byte	0x4d
 1186 00ef 03       		.uleb128 0x3
 1187 00f0 E3020000 		.4byte	.LASF20
 1188 00f4 05       		.byte	0x5
 1189 00f5 31       		.byte	0x31
 1190 00f6 19       		.byte	0x19
 1191 00f7 8D000000 		.4byte	0x8d
 1192 00fb 03       		.uleb128 0x3
 1193 00fc 68050000 		.4byte	.LASF21
 1194 0100 05       		.byte	0x5
 1195 0101 33       		.byte	0x33
 1196 0102 19       		.byte	0x19
 1197 0103 8D000000 		.4byte	0x8d
ARM GAS  /tmp/cc4u5hVj.s 			page 22


 1198 0107 05       		.uleb128 0x5
 1199 0108 FB000000 		.4byte	0xfb
 1200 010c 03       		.uleb128 0x3
 1201 010d 90040000 		.4byte	.LASF22
 1202 0111 06       		.byte	0x6
 1203 0112 23       		.byte	0x23
 1204 0113 17       		.byte	0x17
 1205 0114 18010000 		.4byte	0x118
 1206 0118 06       		.uleb128 0x6
 1207 0119 90040000 		.4byte	.LASF22
 1208 011d 44       		.byte	0x44
 1209 011e 07       		.byte	0x7
 1210 011f 57       		.byte	0x57
 1211 0120 08       		.byte	0x8
 1212 0121 1D020000 		.4byte	0x21d
 1213 0125 07       		.uleb128 0x7
 1214 0126 65040000 		.4byte	.LASF23
 1215 012a 07       		.byte	0x7
 1216 012b 58       		.byte	0x58
 1217 012c 1A       		.byte	0x1a
 1218 012d 41020000 		.4byte	0x241
 1219 0131 00       		.byte	0
 1220 0132 07       		.uleb128 0x7
 1221 0133 E3030000 		.4byte	.LASF24
 1222 0137 07       		.byte	0x7
 1223 0138 5A       		.byte	0x5a
 1224 0139 1A       		.byte	0x1a
 1225 013a 41020000 		.4byte	0x241
 1226 013e 04       		.byte	0x4
 1227 013f 07       		.uleb128 0x7
 1228 0140 3B010000 		.4byte	.LASF25
 1229 0144 07       		.byte	0x7
 1230 0145 5C       		.byte	0x5c
 1231 0146 19       		.byte	0x19
 1232 0147 D7000000 		.4byte	0xd7
 1233 014b 08       		.byte	0x8
 1234 014c 07       		.uleb128 0x7
 1235 014d 2D060000 		.4byte	.LASF26
 1236 0151 07       		.byte	0x7
 1237 0152 5D       		.byte	0x5d
 1238 0153 19       		.byte	0x19
 1239 0154 0C030000 		.4byte	0x30c
 1240 0158 0C       		.byte	0xc
 1241 0159 07       		.uleb128 0x7
 1242 015a D4010000 		.4byte	.LASF27
 1243 015e 07       		.byte	0x7
 1244 015f 5F       		.byte	0x5f
 1245 0160 1A       		.byte	0x1a
 1246 0161 41020000 		.4byte	0x241
 1247 0165 10       		.byte	0x10
 1248 0166 07       		.uleb128 0x7
 1249 0167 7A030000 		.4byte	.LASF28
 1250 016b 07       		.byte	0x7
 1251 016c 60       		.byte	0x60
 1252 016d 1A       		.byte	0x1a
 1253 016e 41020000 		.4byte	0x241
 1254 0172 14       		.byte	0x14
ARM GAS  /tmp/cc4u5hVj.s 			page 23


 1255 0173 07       		.uleb128 0x7
 1256 0174 EC050000 		.4byte	.LASF29
 1257 0178 07       		.byte	0x7
 1258 0179 67       		.byte	0x67
 1259 017a 1A       		.byte	0x1a
 1260 017b F2040000 		.4byte	0x4f2
 1261 017f 18       		.byte	0x18
 1262 0180 07       		.uleb128 0x7
 1263 0181 39040000 		.4byte	.LASF30
 1264 0185 07       		.byte	0x7
 1265 0186 72       		.byte	0x72
 1266 0187 19       		.byte	0x19
 1267 0188 B3000000 		.4byte	0xb3
 1268 018c 1C       		.byte	0x1c
 1269 018d 07       		.uleb128 0x7
 1270 018e 7B040000 		.4byte	.LASF31
 1271 0192 07       		.byte	0x7
 1272 0193 76       		.byte	0x76
 1273 0194 19       		.byte	0x19
 1274 0195 A7000000 		.4byte	0xa7
 1275 0199 1D       		.byte	0x1d
 1276 019a 07       		.uleb128 0x7
 1277 019b BB050000 		.4byte	.LASF32
 1278 019f 07       		.byte	0x7
 1279 01a0 7B       		.byte	0x7b
 1280 01a1 19       		.byte	0x19
 1281 01a2 BF000000 		.4byte	0xbf
 1282 01a6 1E       		.byte	0x1e
 1283 01a7 07       		.uleb128 0x7
 1284 01a8 41040000 		.4byte	.LASF33
 1285 01ac 07       		.byte	0x7
 1286 01ad 81       		.byte	0x81
 1287 01ae 19       		.byte	0x19
 1288 01af CB000000 		.4byte	0xcb
 1289 01b3 1F       		.byte	0x1f
 1290 01b4 07       		.uleb128 0x7
 1291 01b5 86050000 		.4byte	.LASF34
 1292 01b9 07       		.byte	0x7
 1293 01ba 88       		.byte	0x88
 1294 01bb 19       		.byte	0x19
 1295 01bc 07010000 		.4byte	0x107
 1296 01c0 20       		.byte	0x20
 1297 01c1 08       		.uleb128 0x8
 1298 01c2 705F7500 		.ascii	"p_u\000"
 1299 01c6 07       		.byte	0x7
 1300 01c7 AD       		.byte	0xad
 1301 01c8 19       		.byte	0x19
 1302 01c9 B8040000 		.4byte	0x4b8
 1303 01cd 24       		.byte	0x24
 1304 01ce 07       		.uleb128 0x7
 1305 01cf 33060000 		.4byte	.LASF35
 1306 01d3 07       		.byte	0x7
 1307 01d4 B2       		.byte	0xb2
 1308 01d5 19       		.byte	0x19
 1309 01d6 6A020000 		.4byte	0x26a
 1310 01da 28       		.byte	0x28
 1311 01db 07       		.uleb128 0x7
ARM GAS  /tmp/cc4u5hVj.s 			page 24


 1312 01dc 94050000 		.4byte	.LASF36
 1313 01e0 07       		.byte	0x7
 1314 01e1 B8       		.byte	0xb8
 1315 01e2 19       		.byte	0x19
 1316 01e3 47020000 		.4byte	0x247
 1317 01e7 2C       		.byte	0x2c
 1318 01e8 07       		.uleb128 0x7
 1319 01e9 15000000 		.4byte	.LASF37
 1320 01ed 07       		.byte	0x7
 1321 01ee BC       		.byte	0xbc
 1322 01ef 19       		.byte	0x19
 1323 01f0 E3000000 		.4byte	0xe3
 1324 01f4 34       		.byte	0x34
 1325 01f5 07       		.uleb128 0x7
 1326 01f6 B2040000 		.4byte	.LASF38
 1327 01fa 07       		.byte	0x7
 1328 01fb C2       		.byte	0xc2
 1329 01fc 19       		.byte	0x19
 1330 01fd EF000000 		.4byte	0xef
 1331 0201 38       		.byte	0x38
 1332 0202 07       		.uleb128 0x7
 1333 0203 25040000 		.4byte	.LASF39
 1334 0207 07       		.byte	0x7
 1335 0208 C9       		.byte	0xc9
 1336 0209 1A       		.byte	0x1a
 1337 020a 04050000 		.4byte	0x504
 1338 020e 3C       		.byte	0x3c
 1339 020f 07       		.uleb128 0x7
 1340 0210 72050000 		.4byte	.LASF40
 1341 0214 07       		.byte	0x7
 1342 0215 CD       		.byte	0xcd
 1343 0216 19       		.byte	0x19
 1344 0217 D7000000 		.4byte	0xd7
 1345 021b 40       		.byte	0x40
 1346 021c 00       		.byte	0
 1347 021d 09       		.uleb128 0x9
 1348 021e 08       		.byte	0x8
 1349 021f 06       		.byte	0x6
 1350 0220 5A       		.byte	0x5a
 1351 0221 09       		.byte	0x9
 1352 0222 41020000 		.4byte	0x241
 1353 0226 07       		.uleb128 0x7
 1354 0227 65040000 		.4byte	.LASF23
 1355 022b 06       		.byte	0x6
 1356 022c 5B       		.byte	0x5b
 1357 022d 1A       		.byte	0x1a
 1358 022e 41020000 		.4byte	0x241
 1359 0232 00       		.byte	0
 1360 0233 07       		.uleb128 0x7
 1361 0234 E3030000 		.4byte	.LASF24
 1362 0238 06       		.byte	0x6
 1363 0239 5D       		.byte	0x5d
 1364 023a 1A       		.byte	0x1a
 1365 023b 41020000 		.4byte	0x241
 1366 023f 04       		.byte	0x4
 1367 0240 00       		.byte	0
 1368 0241 0A       		.uleb128 0xa
ARM GAS  /tmp/cc4u5hVj.s 			page 25


 1369 0242 04       		.byte	0x4
 1370 0243 0C010000 		.4byte	0x10c
 1371 0247 03       		.uleb128 0x3
 1372 0248 88030000 		.4byte	.LASF41
 1373 024c 06       		.byte	0x6
 1374 024d 5F       		.byte	0x5f
 1375 024e 03       		.byte	0x3
 1376 024f 1D020000 		.4byte	0x21d
 1377 0253 09       		.uleb128 0x9
 1378 0254 04       		.byte	0x4
 1379 0255 06       		.byte	0x6
 1380 0256 64       		.byte	0x64
 1381 0257 09       		.byte	0x9
 1382 0258 6A020000 		.4byte	0x26a
 1383 025c 07       		.uleb128 0x7
 1384 025d 65040000 		.4byte	.LASF23
 1385 0261 06       		.byte	0x6
 1386 0262 66       		.byte	0x66
 1387 0263 16       		.byte	0x16
 1388 0264 41020000 		.4byte	0x241
 1389 0268 00       		.byte	0
 1390 0269 00       		.byte	0
 1391 026a 03       		.uleb128 0x3
 1392 026b D7020000 		.4byte	.LASF42
 1393 026f 06       		.byte	0x6
 1394 0270 69       		.byte	0x69
 1395 0271 03       		.byte	0x3
 1396 0272 53020000 		.4byte	0x253
 1397 0276 03       		.uleb128 0x3
 1398 0277 FD020000 		.4byte	.LASF43
 1399 027b 08       		.byte	0x8
 1400 027c 9D       		.byte	0x9d
 1401 027d 12       		.byte	0x12
 1402 027e 8D000000 		.4byte	0x8d
 1403 0282 03       		.uleb128 0x3
 1404 0283 11020000 		.4byte	.LASF44
 1405 0287 08       		.byte	0x8
 1406 0288 A2       		.byte	0xa2
 1407 0289 0F       		.byte	0xf
 1408 028a 8E020000 		.4byte	0x28e
 1409 028e 0B       		.uleb128 0xb
 1410 028f 04       		.byte	0x4
 1411 0290 06       		.uleb128 0x6
 1412 0291 8D050000 		.4byte	.LASF45
 1413 0295 24       		.byte	0x24
 1414 0296 08       		.byte	0x8
 1415 0297 B9       		.byte	0xb9
 1416 0298 08       		.byte	0x8
 1417 0299 0C030000 		.4byte	0x30c
 1418 029d 08       		.uleb128 0x8
 1419 029e 723400   		.ascii	"r4\000"
 1420 02a1 08       		.byte	0x8
 1421 02a2 BA       		.byte	0xba
 1422 02a3 11       		.byte	0x11
 1423 02a4 82020000 		.4byte	0x282
 1424 02a8 00       		.byte	0
 1425 02a9 08       		.uleb128 0x8
ARM GAS  /tmp/cc4u5hVj.s 			page 26


 1426 02aa 723500   		.ascii	"r5\000"
 1427 02ad 08       		.byte	0x8
 1428 02ae BB       		.byte	0xbb
 1429 02af 11       		.byte	0x11
 1430 02b0 82020000 		.4byte	0x282
 1431 02b4 04       		.byte	0x4
 1432 02b5 08       		.uleb128 0x8
 1433 02b6 723600   		.ascii	"r6\000"
 1434 02b9 08       		.byte	0x8
 1435 02ba BC       		.byte	0xbc
 1436 02bb 11       		.byte	0x11
 1437 02bc 82020000 		.4byte	0x282
 1438 02c0 08       		.byte	0x8
 1439 02c1 08       		.uleb128 0x8
 1440 02c2 723700   		.ascii	"r7\000"
 1441 02c5 08       		.byte	0x8
 1442 02c6 BD       		.byte	0xbd
 1443 02c7 11       		.byte	0x11
 1444 02c8 82020000 		.4byte	0x282
 1445 02cc 0C       		.byte	0xc
 1446 02cd 08       		.uleb128 0x8
 1447 02ce 723800   		.ascii	"r8\000"
 1448 02d1 08       		.byte	0x8
 1449 02d2 BE       		.byte	0xbe
 1450 02d3 11       		.byte	0x11
 1451 02d4 82020000 		.4byte	0x282
 1452 02d8 10       		.byte	0x10
 1453 02d9 08       		.uleb128 0x8
 1454 02da 723900   		.ascii	"r9\000"
 1455 02dd 08       		.byte	0x8
 1456 02de BF       		.byte	0xbf
 1457 02df 11       		.byte	0x11
 1458 02e0 82020000 		.4byte	0x282
 1459 02e4 14       		.byte	0x14
 1460 02e5 08       		.uleb128 0x8
 1461 02e6 72313000 		.ascii	"r10\000"
 1462 02ea 08       		.byte	0x8
 1463 02eb C0       		.byte	0xc0
 1464 02ec 11       		.byte	0x11
 1465 02ed 82020000 		.4byte	0x282
 1466 02f1 18       		.byte	0x18
 1467 02f2 08       		.uleb128 0x8
 1468 02f3 72313100 		.ascii	"r11\000"
 1469 02f7 08       		.byte	0x8
 1470 02f8 C1       		.byte	0xc1
 1471 02f9 11       		.byte	0x11
 1472 02fa 82020000 		.4byte	0x282
 1473 02fe 1C       		.byte	0x1c
 1474 02ff 08       		.uleb128 0x8
 1475 0300 6C7200   		.ascii	"lr\000"
 1476 0303 08       		.byte	0x8
 1477 0304 C2       		.byte	0xc2
 1478 0305 11       		.byte	0x11
 1479 0306 82020000 		.4byte	0x282
 1480 030a 20       		.byte	0x20
 1481 030b 00       		.byte	0
 1482 030c 06       		.uleb128 0x6
ARM GAS  /tmp/cc4u5hVj.s 			page 27


 1483 030d 85020000 		.4byte	.LASF46
 1484 0311 04       		.byte	0x4
 1485 0312 08       		.byte	0x8
 1486 0313 CA       		.byte	0xca
 1487 0314 08       		.byte	0x8
 1488 0315 27030000 		.4byte	0x327
 1489 0319 08       		.uleb128 0x8
 1490 031a 72313300 		.ascii	"r13\000"
 1491 031e 08       		.byte	0x8
 1492 031f CB       		.byte	0xcb
 1493 0320 12       		.byte	0x12
 1494 0321 27030000 		.4byte	0x327
 1495 0325 00       		.byte	0
 1496 0326 00       		.byte	0
 1497 0327 0A       		.uleb128 0xa
 1498 0328 04       		.byte	0x4
 1499 0329 90020000 		.4byte	0x290
 1500 032d 03       		.uleb128 0x3
 1501 032e 7D050000 		.4byte	.LASF47
 1502 0332 09       		.byte	0x9
 1503 0333 4E       		.byte	0x4e
 1504 0334 10       		.byte	0x10
 1505 0335 39030000 		.4byte	0x339
 1506 0339 0A       		.uleb128 0xa
 1507 033a 04       		.byte	0x4
 1508 033b 3F030000 		.4byte	0x33f
 1509 033f 0C       		.uleb128 0xc
 1510 0340 4A030000 		.4byte	0x34a
 1511 0344 0D       		.uleb128 0xd
 1512 0345 8E020000 		.4byte	0x28e
 1513 0349 00       		.byte	0
 1514 034a 03       		.uleb128 0x3
 1515 034b E5040000 		.4byte	.LASF48
 1516 034f 09       		.byte	0x9
 1517 0350 53       		.byte	0x53
 1518 0351 1D       		.byte	0x1d
 1519 0352 56030000 		.4byte	0x356
 1520 0356 06       		.uleb128 0x6
 1521 0357 E5040000 		.4byte	.LASF48
 1522 035b 14       		.byte	0x14
 1523 035c 09       		.byte	0x9
 1524 035d 5A       		.byte	0x5a
 1525 035e 08       		.byte	0x8
 1526 035f A5030000 		.4byte	0x3a5
 1527 0363 07       		.uleb128 0x7
 1528 0364 54020000 		.4byte	.LASF49
 1529 0368 09       		.byte	0x9
 1530 0369 5B       		.byte	0x5b
 1531 036a 1A       		.byte	0x1a
 1532 036b A5030000 		.4byte	0x3a5
 1533 036f 00       		.byte	0
 1534 0370 07       		.uleb128 0x7
 1535 0371 1A020000 		.4byte	.LASF50
 1536 0375 09       		.byte	0x9
 1537 0376 5D       		.byte	0x5d
 1538 0377 1A       		.byte	0x1a
 1539 0378 A5030000 		.4byte	0x3a5
ARM GAS  /tmp/cc4u5hVj.s 			page 28


 1540 037c 04       		.byte	0x4
 1541 037d 07       		.uleb128 0x7
 1542 037e 2E030000 		.4byte	.LASF51
 1543 0382 09       		.byte	0x9
 1544 0383 5F       		.byte	0x5f
 1545 0384 19       		.byte	0x19
 1546 0385 FB000000 		.4byte	0xfb
 1547 0389 08       		.byte	0x8
 1548 038a 07       		.uleb128 0x7
 1549 038b 36030000 		.4byte	.LASF52
 1550 038f 09       		.byte	0x9
 1551 0390 60       		.byte	0x60
 1552 0391 19       		.byte	0x19
 1553 0392 2D030000 		.4byte	0x32d
 1554 0396 0C       		.byte	0xc
 1555 0397 07       		.uleb128 0x7
 1556 0398 A9050000 		.4byte	.LASF53
 1557 039c 09       		.byte	0x9
 1558 039d 62       		.byte	0x62
 1559 039e 1A       		.byte	0x1a
 1560 039f 8E020000 		.4byte	0x28e
 1561 03a3 10       		.byte	0x10
 1562 03a4 00       		.byte	0
 1563 03a5 0A       		.uleb128 0xa
 1564 03a6 04       		.byte	0x4
 1565 03a7 4A030000 		.4byte	0x34a
 1566 03ab 09       		.uleb128 0x9
 1567 03ac 10       		.byte	0x10
 1568 03ad 09       		.byte	0x9
 1569 03ae 6C       		.byte	0x6c
 1570 03af 09       		.byte	0x9
 1571 03b0 E9030000 		.4byte	0x3e9
 1572 03b4 07       		.uleb128 0x7
 1573 03b5 54020000 		.4byte	.LASF49
 1574 03b9 09       		.byte	0x9
 1575 03ba 6D       		.byte	0x6d
 1576 03bb 1A       		.byte	0x1a
 1577 03bc A5030000 		.4byte	0x3a5
 1578 03c0 00       		.byte	0
 1579 03c1 07       		.uleb128 0x7
 1580 03c2 1A020000 		.4byte	.LASF50
 1581 03c6 09       		.byte	0x9
 1582 03c7 6F       		.byte	0x6f
 1583 03c8 1A       		.byte	0x1a
 1584 03c9 A5030000 		.4byte	0x3a5
 1585 03cd 04       		.byte	0x4
 1586 03ce 07       		.uleb128 0x7
 1587 03cf 2E030000 		.4byte	.LASF51
 1588 03d3 09       		.byte	0x9
 1589 03d4 71       		.byte	0x71
 1590 03d5 19       		.byte	0x19
 1591 03d6 FB000000 		.4byte	0xfb
 1592 03da 08       		.byte	0x8
 1593 03db 07       		.uleb128 0x7
 1594 03dc F3050000 		.4byte	.LASF54
 1595 03e0 09       		.byte	0x9
 1596 03e1 72       		.byte	0x72
ARM GAS  /tmp/cc4u5hVj.s 			page 29


 1597 03e2 19       		.byte	0x19
 1598 03e3 07010000 		.4byte	0x107
 1599 03e7 0C       		.byte	0xc
 1600 03e8 00       		.byte	0
 1601 03e9 03       		.uleb128 0x3
 1602 03ea 1E060000 		.4byte	.LASF55
 1603 03ee 09       		.byte	0x9
 1604 03ef 73       		.byte	0x73
 1605 03f0 03       		.byte	0x3
 1606 03f1 AB030000 		.4byte	0x3ab
 1607 03f5 0E       		.uleb128 0xe
 1608 03f6 FB000000 		.4byte	.LASF63
 1609 03fa 09       		.byte	0x9
 1610 03fb D1       		.byte	0xd1
 1611 03fc 0F       		.byte	0xf
 1612 03fd E9030000 		.4byte	0x3e9
 1613 0401 09       		.uleb128 0x9
 1614 0402 1C       		.byte	0x1c
 1615 0403 0A       		.byte	0xa
 1616 0404 57       		.byte	0x57
 1617 0405 09       		.byte	0x9
 1618 0406 59040000 		.4byte	0x459
 1619 040a 07       		.uleb128 0x7
 1620 040b DD040000 		.4byte	.LASF56
 1621 040f 0A       		.byte	0xa
 1622 0410 58       		.byte	0x58
 1623 0411 19       		.byte	0x19
 1624 0412 47020000 		.4byte	0x247
 1625 0416 00       		.byte	0
 1626 0417 07       		.uleb128 0x7
 1627 0418 57040000 		.4byte	.LASF57
 1628 041c 0A       		.byte	0xa
 1629 041d 59       		.byte	0x59
 1630 041e 19       		.byte	0x19
 1631 041f D7000000 		.4byte	0xd7
 1632 0423 08       		.byte	0x8
 1633 0424 07       		.uleb128 0x7
 1634 0425 82030000 		.4byte	.LASF58
 1635 0429 0A       		.byte	0xa
 1636 042a 5B       		.byte	0x5b
 1637 042b 19       		.byte	0x19
 1638 042c 0C030000 		.4byte	0x30c
 1639 0430 0C       		.byte	0xc
 1640 0431 07       		.uleb128 0x7
 1641 0432 09020000 		.4byte	.LASF59
 1642 0436 0A       		.byte	0xa
 1643 0437 5E       		.byte	0x5e
 1644 0438 1A       		.byte	0x1a
 1645 0439 41020000 		.4byte	0x241
 1646 043d 10       		.byte	0x10
 1647 043e 07       		.uleb128 0x7
 1648 043f B8030000 		.4byte	.LASF60
 1649 0443 0A       		.byte	0xa
 1650 0444 5F       		.byte	0x5f
 1651 0445 1A       		.byte	0x1a
 1652 0446 41020000 		.4byte	0x241
 1653 044a 14       		.byte	0x14
ARM GAS  /tmp/cc4u5hVj.s 			page 30


 1654 044b 07       		.uleb128 0x7
 1655 044c AE030000 		.4byte	.LASF61
 1656 0450 0A       		.byte	0xa
 1657 0451 62       		.byte	0x62
 1658 0452 1A       		.byte	0x1a
 1659 0453 41020000 		.4byte	0x241
 1660 0457 18       		.byte	0x18
 1661 0458 00       		.byte	0
 1662 0459 03       		.uleb128 0x3
 1663 045a C2050000 		.4byte	.LASF62
 1664 045e 0A       		.byte	0xa
 1665 045f 64       		.byte	0x64
 1666 0460 03       		.byte	0x3
 1667 0461 01040000 		.4byte	0x401
 1668 0465 0E       		.uleb128 0xe
 1669 0466 CC050000 		.4byte	.LASF64
 1670 046a 0A       		.byte	0xa
 1671 046b 68       		.byte	0x68
 1672 046c 12       		.byte	0x12
 1673 046d 59040000 		.4byte	0x459
 1674 0471 06       		.uleb128 0x6
 1675 0472 EF020000 		.4byte	.LASF65
 1676 0476 10       		.byte	0x10
 1677 0477 0B       		.byte	0xb
 1678 0478 25       		.byte	0x25
 1679 0479 10       		.byte	0x10
 1680 047a A6040000 		.4byte	0x4a6
 1681 047e 07       		.uleb128 0x7
 1682 047f 90010000 		.4byte	.LASF66
 1683 0483 0B       		.byte	0xb
 1684 0484 26       		.byte	0x26
 1685 0485 19       		.byte	0x19
 1686 0486 47020000 		.4byte	0x247
 1687 048a 00       		.byte	0
 1688 048b 07       		.uleb128 0x7
 1689 048c 25060000 		.4byte	.LASF67
 1690 0490 0B       		.byte	0xb
 1691 0491 28       		.byte	0x28
 1692 0492 1A       		.byte	0x1a
 1693 0493 41020000 		.4byte	0x241
 1694 0497 08       		.byte	0x8
 1695 0498 07       		.uleb128 0x7
 1696 0499 61050000 		.4byte	.LASF68
 1697 049d 0B       		.byte	0xb
 1698 049e 2A       		.byte	0x2a
 1699 049f 1A       		.byte	0x1a
 1700 04a0 A6040000 		.4byte	0x4a6
 1701 04a4 0C       		.byte	0xc
 1702 04a5 00       		.byte	0
 1703 04a6 0A       		.uleb128 0xa
 1704 04a7 04       		.byte	0x4
 1705 04a8 71040000 		.4byte	0x471
 1706 04ac 03       		.uleb128 0x3
 1707 04ad EF020000 		.4byte	.LASF65
 1708 04b1 0B       		.byte	0xb
 1709 04b2 2C       		.byte	0x2c
 1710 04b3 03       		.byte	0x3
ARM GAS  /tmp/cc4u5hVj.s 			page 31


 1711 04b4 71040000 		.4byte	0x471
 1712 04b8 0F       		.uleb128 0xf
 1713 04b9 04       		.byte	0x4
 1714 04ba 07       		.byte	0x7
 1715 04bb 8F       		.byte	0x8f
 1716 04bc 03       		.byte	0x3
 1717 04bd F2040000 		.4byte	0x4f2
 1718 04c1 10       		.uleb128 0x10
 1719 04c2 F4000000 		.4byte	.LASF69
 1720 04c6 07       		.byte	0x7
 1721 04c7 96       		.byte	0x96
 1722 04c8 19       		.byte	0x19
 1723 04c9 E3000000 		.4byte	0xe3
 1724 04cd 10       		.uleb128 0x10
 1725 04ce 32010000 		.4byte	.LASF70
 1726 04d2 07       		.byte	0x7
 1727 04d3 9D       		.byte	0x9d
 1728 04d4 19       		.byte	0x19
 1729 04d5 E3000000 		.4byte	0xe3
 1730 04d9 10       		.uleb128 0x10
 1731 04da E5050000 		.4byte	.LASF71
 1732 04de 07       		.byte	0x7
 1733 04df A4       		.byte	0xa4
 1734 04e0 1A       		.byte	0x1a
 1735 04e1 8E020000 		.4byte	0x28e
 1736 04e5 10       		.uleb128 0x10
 1737 04e6 5E040000 		.4byte	.LASF72
 1738 04ea 07       		.byte	0x7
 1739 04eb AB       		.byte	0xab
 1740 04ec 19       		.byte	0x19
 1741 04ed EF000000 		.4byte	0xef
 1742 04f1 00       		.byte	0
 1743 04f2 0A       		.uleb128 0xa
 1744 04f3 04       		.byte	0x4
 1745 04f4 FF040000 		.4byte	0x4ff
 1746 04f8 04       		.uleb128 0x4
 1747 04f9 01       		.byte	0x1
 1748 04fa 08       		.byte	0x8
 1749 04fb 50050000 		.4byte	.LASF73
 1750 04ff 11       		.uleb128 0x11
 1751 0500 F8040000 		.4byte	0x4f8
 1752 0504 0A       		.uleb128 0xa
 1753 0505 04       		.byte	0x4
 1754 0506 AC040000 		.4byte	0x4ac
 1755 050a 03       		.uleb128 0x3
 1756 050b 00000000 		.4byte	.LASF74
 1757 050f 07       		.byte	0x7
 1758 0510 DE       		.byte	0xde
 1759 0511 11       		.byte	0x11
 1760 0512 16050000 		.4byte	0x516
 1761 0516 0A       		.uleb128 0xa
 1762 0517 04       		.byte	0x4
 1763 0518 1C050000 		.4byte	0x51c
 1764 051c 12       		.uleb128 0x12
 1765 051d E3000000 		.4byte	0xe3
 1766 0521 2B050000 		.4byte	0x52b
 1767 0525 0D       		.uleb128 0xd
ARM GAS  /tmp/cc4u5hVj.s 			page 32


 1768 0526 8E020000 		.4byte	0x28e
 1769 052a 00       		.byte	0
 1770 052b 09       		.uleb128 0x9
 1771 052c 16       		.byte	0x16
 1772 052d 0C       		.byte	0xc
 1773 052e 25       		.byte	0x25
 1774 052f 09       		.byte	0x9
 1775 0530 1F060000 		.4byte	0x61f
 1776 0534 07       		.uleb128 0x7
 1777 0535 77020000 		.4byte	.LASF75
 1778 0539 0C       		.byte	0xc
 1779 053a 26       		.byte	0x26
 1780 053b 0D       		.byte	0xd
 1781 053c 1F060000 		.4byte	0x61f
 1782 0540 00       		.byte	0
 1783 0541 07       		.uleb128 0x7
 1784 0542 1A030000 		.4byte	.LASF76
 1785 0546 0C       		.byte	0xc
 1786 0547 27       		.byte	0x27
 1787 0548 0D       		.byte	0xd
 1788 0549 67000000 		.4byte	0x67
 1789 054d 04       		.byte	0x4
 1790 054e 07       		.uleb128 0x7
 1791 054f 95030000 		.4byte	.LASF77
 1792 0553 0C       		.byte	0xc
 1793 0554 28       		.byte	0x28
 1794 0555 0D       		.byte	0xd
 1795 0556 67000000 		.4byte	0x67
 1796 055a 05       		.byte	0x5
 1797 055b 07       		.uleb128 0x7
 1798 055c 13060000 		.4byte	.LASF78
 1799 0560 0C       		.byte	0xc
 1800 0561 29       		.byte	0x29
 1801 0562 0D       		.byte	0xd
 1802 0563 7A000000 		.4byte	0x7a
 1803 0567 06       		.byte	0x6
 1804 0568 07       		.uleb128 0x7
 1805 0569 D8030000 		.4byte	.LASF79
 1806 056d 0C       		.byte	0xc
 1807 056e 2A       		.byte	0x2a
 1808 056f 0D       		.byte	0xd
 1809 0570 67000000 		.4byte	0x67
 1810 0574 08       		.byte	0x8
 1811 0575 07       		.uleb128 0x7
 1812 0576 3E030000 		.4byte	.LASF80
 1813 057a 0C       		.byte	0xc
 1814 057b 2B       		.byte	0x2b
 1815 057c 0D       		.byte	0xd
 1816 057d 67000000 		.4byte	0x67
 1817 0581 09       		.byte	0x9
 1818 0582 07       		.uleb128 0x7
 1819 0583 24010000 		.4byte	.LASF81
 1820 0587 0C       		.byte	0xc
 1821 0588 2C       		.byte	0x2c
 1822 0589 0D       		.byte	0xd
 1823 058a 67000000 		.4byte	0x67
 1824 058e 0A       		.byte	0xa
ARM GAS  /tmp/cc4u5hVj.s 			page 33


 1825 058f 07       		.uleb128 0x7
 1826 0590 D1040000 		.4byte	.LASF82
 1827 0594 0C       		.byte	0xc
 1828 0595 2D       		.byte	0x2d
 1829 0596 0D       		.byte	0xd
 1830 0597 67000000 		.4byte	0x67
 1831 059b 0B       		.byte	0xb
 1832 059c 07       		.uleb128 0x7
 1833 059d B0050000 		.4byte	.LASF83
 1834 05a1 0C       		.byte	0xc
 1835 05a2 2E       		.byte	0x2e
 1836 05a3 0D       		.byte	0xd
 1837 05a4 67000000 		.4byte	0x67
 1838 05a8 0C       		.byte	0xc
 1839 05a9 07       		.uleb128 0x7
 1840 05aa 97040000 		.4byte	.LASF84
 1841 05ae 0C       		.byte	0xc
 1842 05af 2F       		.byte	0x2f
 1843 05b0 0D       		.byte	0xd
 1844 05b1 67000000 		.4byte	0x67
 1845 05b5 0D       		.byte	0xd
 1846 05b6 07       		.uleb128 0x7
 1847 05b7 08000000 		.4byte	.LASF85
 1848 05bb 0C       		.byte	0xc
 1849 05bc 30       		.byte	0x30
 1850 05bd 0D       		.byte	0xd
 1851 05be 67000000 		.4byte	0x67
 1852 05c2 0E       		.byte	0xe
 1853 05c3 07       		.uleb128 0x7
 1854 05c4 6E030000 		.4byte	.LASF86
 1855 05c8 0C       		.byte	0xc
 1856 05c9 31       		.byte	0x31
 1857 05ca 0D       		.byte	0xd
 1858 05cb 67000000 		.4byte	0x67
 1859 05cf 0F       		.byte	0xf
 1860 05d0 07       		.uleb128 0x7
 1861 05d1 73010000 		.4byte	.LASF87
 1862 05d5 0C       		.byte	0xc
 1863 05d6 32       		.byte	0x32
 1864 05d7 0D       		.byte	0xd
 1865 05d8 67000000 		.4byte	0x67
 1866 05dc 10       		.byte	0x10
 1867 05dd 07       		.uleb128 0x7
 1868 05de 42010000 		.4byte	.LASF88
 1869 05e2 0C       		.byte	0xc
 1870 05e3 34       		.byte	0x34
 1871 05e4 0D       		.byte	0xd
 1872 05e5 67000000 		.4byte	0x67
 1873 05e9 11       		.byte	0x11
 1874 05ea 07       		.uleb128 0x7
 1875 05eb 83010000 		.4byte	.LASF89
 1876 05ef 0C       		.byte	0xc
 1877 05f0 35       		.byte	0x35
 1878 05f1 0D       		.byte	0xd
 1879 05f2 67000000 		.4byte	0x67
 1880 05f6 12       		.byte	0x12
 1881 05f7 07       		.uleb128 0x7
ARM GAS  /tmp/cc4u5hVj.s 			page 34


 1882 05f8 22030000 		.4byte	.LASF90
 1883 05fc 0C       		.byte	0xc
 1884 05fd 36       		.byte	0x36
 1885 05fe 0D       		.byte	0xd
 1886 05ff 67000000 		.4byte	0x67
 1887 0603 13       		.byte	0x13
 1888 0604 07       		.uleb128 0x7
 1889 0605 6C040000 		.4byte	.LASF91
 1890 0609 0C       		.byte	0xc
 1891 060a 37       		.byte	0x37
 1892 060b 0D       		.byte	0xd
 1893 060c 67000000 		.4byte	0x67
 1894 0610 14       		.byte	0x14
 1895 0611 07       		.uleb128 0x7
 1896 0612 4B040000 		.4byte	.LASF92
 1897 0616 0C       		.byte	0xc
 1898 0617 39       		.byte	0x39
 1899 0618 0D       		.byte	0xd
 1900 0619 67000000 		.4byte	0x67
 1901 061d 15       		.byte	0x15
 1902 061e 00       		.byte	0
 1903 061f 13       		.uleb128 0x13
 1904 0620 F8040000 		.4byte	0x4f8
 1905 0624 2F060000 		.4byte	0x62f
 1906 0628 14       		.uleb128 0x14
 1907 0629 38000000 		.4byte	0x38
 1908 062d 03       		.byte	0x3
 1909 062e 00       		.byte	0
 1910 062f 03       		.uleb128 0x3
 1911 0630 CA010000 		.4byte	.LASF93
 1912 0634 0C       		.byte	0xc
 1913 0635 3A       		.byte	0x3a
 1914 0636 03       		.byte	0x3
 1915 0637 2B050000 		.4byte	0x52b
 1916 063b 11       		.uleb128 0x11
 1917 063c 2F060000 		.4byte	0x62f
 1918 0640 0E       		.uleb128 0xe
 1919 0641 6E020000 		.4byte	.LASF94
 1920 0645 0C       		.byte	0xc
 1921 0646 77       		.byte	0x77
 1922 0647 1D       		.byte	0x1d
 1923 0648 3B060000 		.4byte	0x63b
 1924 064c 13       		.uleb128 0x13
 1925 064d 76020000 		.4byte	0x276
 1926 0651 5C060000 		.4byte	0x65c
 1927 0655 14       		.uleb128 0x14
 1928 0656 38000000 		.4byte	0x38
 1929 065a 26       		.byte	0x26
 1930 065b 00       		.byte	0
 1931 065c 0E       		.uleb128 0xe
 1932 065d DC010000 		.4byte	.LASF95
 1933 0661 0D       		.byte	0xd
 1934 0662 82       		.byte	0x82
 1935 0663 08       		.byte	0x8
 1936 0664 4C060000 		.4byte	0x64c
 1937 0668 15       		.uleb128 0x15
 1938 0669 9F050000 		.4byte	.LASF103
ARM GAS  /tmp/cc4u5hVj.s 			page 35


 1939 066d 01       		.byte	0x1
 1940 066e 9D01     		.2byte	0x19d
 1941 0670 07       		.byte	0x7
 1942 0671 E3000000 		.4byte	0xe3
 1943 0675 00000000 		.4byte	.LFB18
 1944 0679 50000000 		.4byte	.LFE18-.LFB18
 1945 067d 01       		.uleb128 0x1
 1946 067e 9C       		.byte	0x9c
 1947 067f F9060000 		.4byte	0x6f9
 1948 0683 16       		.uleb128 0x16
 1949 0684 747000   		.ascii	"tp\000"
 1950 0687 01       		.byte	0x1
 1951 0688 9D01     		.2byte	0x19d
 1952 068a 19       		.byte	0x19
 1953 068b 41020000 		.4byte	0x241
 1954 068f 04000000 		.4byte	.LLST30
 1955 0693 00000000 		.4byte	.LVUS30
 1956 0697 17       		.uleb128 0x17
 1957 0698 6D736700 		.ascii	"msg\000"
 1958 069c 01       		.byte	0x1
 1959 069d 9E01     		.2byte	0x19e
 1960 069f 09       		.byte	0x9
 1961 06a0 E3000000 		.4byte	0xe3
 1962 06a4 24000000 		.4byte	.LLST31
 1963 06a8 22000000 		.4byte	.LVUS31
 1964 06ac 18       		.uleb128 0x18
 1965 06ad FF0A0000 		.4byte	0xaff
 1966 06b1 24000000 		.4byte	.LBI28
 1967 06b5 01       		.byte	.LVU339
 1968 06b6 40000000 		.4byte	.Ldebug_ranges0+0x40
 1969 06ba 01       		.byte	0x1
 1970 06bb A801     		.2byte	0x1a8
 1971 06bd 05       		.byte	0x5
 1972 06be D5060000 		.4byte	0x6d5
 1973 06c2 19       		.uleb128 0x19
 1974 06c3 170B0000 		.4byte	0xb17
 1975 06c7 3B000000 		.4byte	.LLST32
 1976 06cb 37000000 		.4byte	.LVUS32
 1977 06cf 1A       		.uleb128 0x1a
 1978 06d0 0C0B0000 		.4byte	0xb0c
 1979 06d4 00       		.byte	0
 1980 06d5 1B       		.uleb128 0x1b
 1981 06d6 34000000 		.4byte	.LVL53
 1982 06da CF0B0000 		.4byte	0xbcf
 1983 06de E8060000 		.4byte	0x6e8
 1984 06e2 1C       		.uleb128 0x1c
 1985 06e3 01       		.uleb128 0x1
 1986 06e4 50       		.byte	0x50
 1987 06e5 01       		.uleb128 0x1
 1988 06e6 37       		.byte	0x37
 1989 06e7 00       		.byte	0
 1990 06e8 1D       		.uleb128 0x1d
 1991 06e9 44000000 		.4byte	.LVL55
 1992 06ed DB0B0000 		.4byte	0xbdb
 1993 06f1 1C       		.uleb128 0x1c
 1994 06f2 01       		.uleb128 0x1
 1995 06f3 50       		.byte	0x50
ARM GAS  /tmp/cc4u5hVj.s 			page 36


 1996 06f4 02       		.uleb128 0x2
 1997 06f5 74       		.byte	0x74
 1998 06f6 00       		.sleb128 0
 1999 06f7 00       		.byte	0
 2000 06f8 00       		.byte	0
 2001 06f9 1E       		.uleb128 0x1e
 2002 06fa 02010000 		.4byte	.LASF96
 2003 06fe 01       		.byte	0x1
 2004 06ff 6701     		.2byte	0x167
 2005 0701 06       		.byte	0x6
 2006 0702 00000000 		.4byte	.LFB17
 2007 0706 64000000 		.4byte	.LFE17-.LFB17
 2008 070a 01       		.uleb128 0x1
 2009 070b 9C       		.byte	0x9c
 2010 070c 87070000 		.4byte	0x787
 2011 0710 16       		.uleb128 0x16
 2012 0711 6D736700 		.ascii	"msg\000"
 2013 0715 01       		.byte	0x1
 2014 0716 6701     		.2byte	0x167
 2015 0718 17       		.byte	0x17
 2016 0719 E3000000 		.4byte	0xe3
 2017 071d 63000000 		.4byte	.LLST25
 2018 0721 5D000000 		.4byte	.LVUS25
 2019 0725 17       		.uleb128 0x17
 2020 0726 747000   		.ascii	"tp\000"
 2021 0729 01       		.byte	0x1
 2022 072a 6801     		.2byte	0x168
 2023 072c 0B       		.byte	0xb
 2024 072d 41020000 		.4byte	0x241
 2025 0731 91000000 		.4byte	.LLST26
 2026 0735 8F000000 		.4byte	.LVUS26
 2027 0739 1F       		.uleb128 0x1f
 2028 073a D00A0000 		.4byte	0xad0
 2029 073e 24000000 		.4byte	.LBI26
 2030 0742 01       		.byte	.LVU292
 2031 0743 24000000 		.4byte	.LBB26
 2032 0747 08000000 		.4byte	.LBE26-.LBB26
 2033 074b 01       		.byte	0x1
 2034 074c 7001     		.2byte	0x170
 2035 074e 05       		.byte	0x5
 2036 074f 6E070000 		.4byte	0x76e
 2037 0753 19       		.uleb128 0x19
 2038 0754 E10A0000 		.4byte	0xae1
 2039 0758 A6000000 		.4byte	.LLST27
 2040 075c A4000000 		.4byte	.LVUS27
 2041 0760 20       		.uleb128 0x20
 2042 0761 ED0A0000 		.4byte	0xaed
 2043 0765 BB000000 		.4byte	.LLST28
 2044 0769 B9000000 		.4byte	.LVUS28
 2045 076d 00       		.byte	0
 2046 076e 21       		.uleb128 0x21
 2047 076f 30000000 		.4byte	.LVL43
 2048 0773 E70B0000 		.4byte	0xbe7
 2049 0777 22       		.uleb128 0x22
 2050 0778 60000000 		.4byte	.LVL46
 2051 077c CF0B0000 		.4byte	0xbcf
 2052 0780 1C       		.uleb128 0x1c
ARM GAS  /tmp/cc4u5hVj.s 			page 37


 2053 0781 01       		.uleb128 0x1
 2054 0782 50       		.byte	0x50
 2055 0783 01       		.uleb128 0x1
 2056 0784 3E       		.byte	0x3e
 2057 0785 00       		.byte	0
 2058 0786 00       		.byte	0
 2059 0787 1E       		.uleb128 0x1e
 2060 0788 69010000 		.4byte	.LASF97
 2061 078c 01       		.byte	0x1
 2062 078d 5201     		.2byte	0x152
 2063 078f 06       		.byte	0x6
 2064 0790 00000000 		.4byte	.LFB16
 2065 0794 08000000 		.4byte	.LFE16-.LFB16
 2066 0798 01       		.uleb128 0x1
 2067 0799 9C       		.byte	0x9c
 2068 079a C5070000 		.4byte	0x7c5
 2069 079e 16       		.uleb128 0x16
 2070 079f 6D736700 		.ascii	"msg\000"
 2071 07a3 01       		.byte	0x1
 2072 07a4 5201     		.2byte	0x152
 2073 07a6 16       		.byte	0x16
 2074 07a7 E3000000 		.4byte	0xe3
 2075 07ab D2000000 		.4byte	.LLST29
 2076 07af CE000000 		.4byte	.LVUS29
 2077 07b3 22       		.uleb128 0x22
 2078 07b4 08000000 		.4byte	.LVL48
 2079 07b8 F9060000 		.4byte	0x6f9
 2080 07bc 1C       		.uleb128 0x1c
 2081 07bd 01       		.uleb128 0x1
 2082 07be 50       		.byte	0x50
 2083 07bf 03       		.uleb128 0x3
 2084 07c0 F3       		.byte	0xf3
 2085 07c1 01       		.uleb128 0x1
 2086 07c2 50       		.byte	0x50
 2087 07c3 00       		.byte	0
 2088 07c4 00       		.byte	0
 2089 07c5 1E       		.uleb128 0x1e
 2090 07c6 DA050000 		.4byte	.LASF98
 2091 07ca 01       		.byte	0x1
 2092 07cb 3D01     		.2byte	0x13d
 2093 07cd 06       		.byte	0x6
 2094 07ce 00000000 		.4byte	.LFB15
 2095 07d2 3C000000 		.4byte	.LFE15-.LFB15
 2096 07d6 01       		.uleb128 0x1
 2097 07d7 9C       		.byte	0x9c
 2098 07d8 E6070000 		.4byte	0x7e6
 2099 07dc 21       		.uleb128 0x21
 2100 07dd 30000000 		.4byte	.LVL37
 2101 07e1 F30B0000 		.4byte	0xbf3
 2102 07e5 00       		.byte	0
 2103 07e6 1E       		.uleb128 0x1e
 2104 07e7 C0030000 		.4byte	.LASF99
 2105 07eb 01       		.byte	0x1
 2106 07ec 2E01     		.2byte	0x12e
 2107 07ee 06       		.byte	0x6
 2108 07ef 00000000 		.4byte	.LFB14
 2109 07f3 34000000 		.4byte	.LFE14-.LFB14
ARM GAS  /tmp/cc4u5hVj.s 			page 38


 2110 07f7 01       		.uleb128 0x1
 2111 07f8 9C       		.byte	0x9c
 2112 07f9 22080000 		.4byte	0x822
 2113 07fd 23       		.uleb128 0x23
 2114 07fe 9D030000 		.4byte	.LASF100
 2115 0802 01       		.byte	0x1
 2116 0803 2E01     		.2byte	0x12e
 2117 0805 20       		.byte	0x20
 2118 0806 FB000000 		.4byte	0xfb
 2119 080a F9000000 		.4byte	.LLST24
 2120 080e F3000000 		.4byte	.LVUS24
 2121 0812 1D       		.uleb128 0x1d
 2122 0813 28000000 		.4byte	.LVL36
 2123 0817 FF0B0000 		.4byte	0xbff
 2124 081b 1C       		.uleb128 0x1c
 2125 081c 01       		.uleb128 0x1
 2126 081d 50       		.byte	0x50
 2127 081e 01       		.uleb128 0x1
 2128 081f 36       		.byte	0x36
 2129 0820 00       		.byte	0
 2130 0821 00       		.byte	0
 2131 0822 1E       		.uleb128 0x1e
 2132 0823 BD040000 		.4byte	.LASF101
 2133 0827 01       		.byte	0x1
 2134 0828 1D01     		.2byte	0x11d
 2135 082a 06       		.byte	0x6
 2136 082b 00000000 		.4byte	.LFB13
 2137 082f 1C000000 		.4byte	.LFE13-.LFB13
 2138 0833 01       		.uleb128 0x1
 2139 0834 9C       		.byte	0x9c
 2140 0835 65080000 		.4byte	0x865
 2141 0839 23       		.uleb128 0x23
 2142 083a 9D030000 		.4byte	.LASF100
 2143 083e 01       		.byte	0x1
 2144 083f 1D01     		.2byte	0x11d
 2145 0841 1B       		.byte	0x1b
 2146 0842 FB000000 		.4byte	0xfb
 2147 0846 2D010000 		.4byte	.LLST23
 2148 084a 27010000 		.4byte	.LVUS23
 2149 084e 1D       		.uleb128 0x1d
 2150 084f 14000000 		.4byte	.LVL32
 2151 0853 FF0B0000 		.4byte	0xbff
 2152 0857 1C       		.uleb128 0x1c
 2153 0858 01       		.uleb128 0x1
 2154 0859 50       		.byte	0x50
 2155 085a 01       		.uleb128 0x1
 2156 085b 36       		.byte	0x36
 2157 085c 1C       		.uleb128 0x1c
 2158 085d 01       		.uleb128 0x1
 2159 085e 51       		.byte	0x51
 2160 085f 03       		.uleb128 0x3
 2161 0860 F3       		.byte	0xf3
 2162 0861 01       		.uleb128 0x1
 2163 0862 50       		.byte	0x50
 2164 0863 00       		.byte	0
 2165 0864 00       		.byte	0
 2166 0865 1E       		.uleb128 0x1e
ARM GAS  /tmp/cc4u5hVj.s 			page 39


 2167 0866 C8020000 		.4byte	.LASF102
 2168 086a 01       		.byte	0x1
 2169 086b 0A01     		.2byte	0x10a
 2170 086d 06       		.byte	0x6
 2171 086e 00000000 		.4byte	.LFB12
 2172 0872 18000000 		.4byte	.LFE12-.LFB12
 2173 0876 01       		.uleb128 0x1
 2174 0877 9C       		.byte	0x9c
 2175 0878 8B080000 		.4byte	0x88b
 2176 087c 24       		.uleb128 0x24
 2177 087d 747000   		.ascii	"tp\000"
 2178 0880 01       		.byte	0x1
 2179 0881 0A01     		.2byte	0x10a
 2180 0883 1D       		.byte	0x1d
 2181 0884 41020000 		.4byte	0x241
 2182 0888 01       		.uleb128 0x1
 2183 0889 50       		.byte	0x50
 2184 088a 00       		.byte	0
 2185 088b 25       		.uleb128 0x25
 2186 088c 4A030000 		.4byte	.LASF104
 2187 0890 01       		.byte	0x1
 2188 0891 F3       		.byte	0xf3
 2189 0892 09       		.byte	0x9
 2190 0893 41020000 		.4byte	0x241
 2191 0897 00000000 		.4byte	.LFB11
 2192 089b 20000000 		.4byte	.LFE11-.LFB11
 2193 089f 01       		.uleb128 0x1
 2194 08a0 9C       		.byte	0x9c
 2195 08a1 CE080000 		.4byte	0x8ce
 2196 08a5 26       		.uleb128 0x26
 2197 08a6 747000   		.ascii	"tp\000"
 2198 08a9 01       		.byte	0x1
 2199 08aa F3       		.byte	0xf3
 2200 08ab 1D       		.byte	0x1d
 2201 08ac 41020000 		.4byte	0x241
 2202 08b0 5D010000 		.4byte	.LLST22
 2203 08b4 59010000 		.4byte	.LVUS22
 2204 08b8 1D       		.uleb128 0x1d
 2205 08b9 14000000 		.4byte	.LVL28
 2206 08bd 0B0C0000 		.4byte	0xc0b
 2207 08c1 1C       		.uleb128 0x1c
 2208 08c2 01       		.uleb128 0x1
 2209 08c3 50       		.byte	0x50
 2210 08c4 02       		.uleb128 0x2
 2211 08c5 74       		.byte	0x74
 2212 08c6 00       		.sleb128 0
 2213 08c7 1C       		.uleb128 0x1c
 2214 08c8 01       		.uleb128 0x1
 2215 08c9 51       		.byte	0x51
 2216 08ca 01       		.uleb128 0x1
 2217 08cb 30       		.byte	0x30
 2218 08cc 00       		.byte	0
 2219 08cd 00       		.byte	0
 2220 08ce 25       		.uleb128 0x25
 2221 08cf 29020000 		.4byte	.LASF105
 2222 08d3 01       		.byte	0x1
 2223 08d4 D2       		.byte	0xd2
ARM GAS  /tmp/cc4u5hVj.s 			page 40


 2224 08d5 09       		.byte	0x9
 2225 08d6 D7000000 		.4byte	0xd7
 2226 08da 00000000 		.4byte	.LFB10
 2227 08de 50000000 		.4byte	.LFE10-.LFB10
 2228 08e2 01       		.uleb128 0x1
 2229 08e3 9C       		.byte	0x9c
 2230 08e4 1A090000 		.4byte	0x91a
 2231 08e8 27       		.uleb128 0x27
 2232 08e9 B8020000 		.4byte	.LASF106
 2233 08ed 01       		.byte	0x1
 2234 08ee D2       		.byte	0xd2
 2235 08ef 22       		.byte	0x22
 2236 08f0 D7000000 		.4byte	0xd7
 2237 08f4 81010000 		.4byte	.LLST20
 2238 08f8 7B010000 		.4byte	.LVUS20
 2239 08fc 28       		.uleb128 0x28
 2240 08fd F5020000 		.4byte	.LASF107
 2241 0901 01       		.byte	0x1
 2242 0902 D3       		.byte	0xd3
 2243 0903 0B       		.byte	0xb
 2244 0904 D7000000 		.4byte	0xd7
 2245 0908 AF010000 		.4byte	.LLST21
 2246 090c AD010000 		.4byte	.LVUS21
 2247 0910 21       		.uleb128 0x21
 2248 0911 40000000 		.4byte	.LVL26
 2249 0915 170C0000 		.4byte	0xc17
 2250 0919 00       		.byte	0
 2251 091a 25       		.uleb128 0x25
 2252 091b 08030000 		.4byte	.LASF108
 2253 091f 01       		.byte	0x1
 2254 0920 B4       		.byte	0xb4
 2255 0921 09       		.byte	0x9
 2256 0922 41020000 		.4byte	0x241
 2257 0926 00000000 		.4byte	.LFB9
 2258 092a A8000000 		.4byte	.LFE9-.LFB9
 2259 092e 01       		.uleb128 0x1
 2260 092f 9C       		.byte	0x9c
 2261 0930 4F0A0000 		.4byte	0xa4f
 2262 0934 26       		.uleb128 0x26
 2263 0935 77737000 		.ascii	"wsp\000"
 2264 0939 01       		.byte	0x1
 2265 093a B4       		.byte	0xb4
 2266 093b 21       		.byte	0x21
 2267 093c 8E020000 		.4byte	0x28e
 2268 0940 C6010000 		.4byte	.LLST7
 2269 0944 C2010000 		.4byte	.LVUS7
 2270 0948 27       		.uleb128 0x27
 2271 0949 8D020000 		.4byte	.LASF109
 2272 094d 01       		.byte	0x1
 2273 094e B4       		.byte	0xb4
 2274 094f 2D       		.byte	0x2d
 2275 0950 2C000000 		.4byte	0x2c
 2276 0954 EC010000 		.4byte	.LLST8
 2277 0958 E4010000 		.4byte	.LVUS8
 2278 095c 27       		.uleb128 0x27
 2279 095d EF000000 		.4byte	.LASF110
 2280 0961 01       		.byte	0x1
ARM GAS  /tmp/cc4u5hVj.s 			page 41


 2281 0962 B5       		.byte	0xb5
 2282 0963 23       		.byte	0x23
 2283 0964 D7000000 		.4byte	0xd7
 2284 0968 2B020000 		.4byte	.LLST9
 2285 096c 25020000 		.4byte	.LVUS9
 2286 0970 26       		.uleb128 0x26
 2287 0971 706600   		.ascii	"pf\000"
 2288 0974 01       		.byte	0x1
 2289 0975 B5       		.byte	0xb5
 2290 0976 31       		.byte	0x31
 2291 0977 0A050000 		.4byte	0x50a
 2292 097b 60020000 		.4byte	.LLST10
 2293 097f 58020000 		.4byte	.LVUS10
 2294 0983 29       		.uleb128 0x29
 2295 0984 61726700 		.ascii	"arg\000"
 2296 0988 01       		.byte	0x1
 2297 0989 B5       		.byte	0xb5
 2298 098a 3B       		.byte	0x3b
 2299 098b 8E020000 		.4byte	0x28e
 2300 098f 02       		.uleb128 0x2
 2301 0990 91       		.byte	0x91
 2302 0991 00       		.sleb128 0
 2303 0992 2A       		.uleb128 0x2a
 2304 0993 747000   		.ascii	"tp\000"
 2305 0996 01       		.byte	0x1
 2306 0997 B6       		.byte	0xb6
 2307 0998 0B       		.byte	0xb
 2308 0999 41020000 		.4byte	0x241
 2309 099d 9E020000 		.4byte	.LLST11
 2310 09a1 9A020000 		.4byte	.LVUS11
 2311 09a5 2B       		.uleb128 0x2b
 2312 09a6 4F0A0000 		.4byte	0xa4f
 2313 09aa 14000000 		.4byte	.LBI18
 2314 09ae 03       		.byte	.LVU111
 2315 09af 14000000 		.4byte	.LBB18
 2316 09b3 7C000000 		.4byte	.LBE18-.LBB18
 2317 09b7 01       		.byte	0x1
 2318 09b8 C1       		.byte	0xc1
 2319 09b9 15       		.byte	0x15
 2320 09ba 390A0000 		.4byte	0xa39
 2321 09be 19       		.uleb128 0x19
 2322 09bf 8F0A0000 		.4byte	0xa8f
 2323 09c3 BE020000 		.4byte	.LLST12
 2324 09c7 BC020000 		.4byte	.LVUS12
 2325 09cb 19       		.uleb128 0x19
 2326 09cc 840A0000 		.4byte	0xa84
 2327 09d0 D9020000 		.4byte	.LLST13
 2328 09d4 D1020000 		.4byte	.LVUS13
 2329 09d8 19       		.uleb128 0x19
 2330 09d9 780A0000 		.4byte	0xa78
 2331 09dd 17030000 		.4byte	.LLST14
 2332 09e1 13030000 		.4byte	.LVUS14
 2333 09e5 19       		.uleb128 0x19
 2334 09e6 6C0A0000 		.4byte	0xa6c
 2335 09ea 3E030000 		.4byte	.LLST15
 2336 09ee 36030000 		.4byte	.LVUS15
 2337 09f2 19       		.uleb128 0x19
ARM GAS  /tmp/cc4u5hVj.s 			page 42


 2338 09f3 600A0000 		.4byte	0xa60
 2339 09f7 79030000 		.4byte	.LLST16
 2340 09fb 77030000 		.4byte	.LVUS16
 2341 09ff 20       		.uleb128 0x20
 2342 0a00 9B0A0000 		.4byte	0xa9b
 2343 0a04 90030000 		.4byte	.LLST17
 2344 0a08 8C030000 		.4byte	.LVUS17
 2345 0a0c 2C       		.uleb128 0x2c
 2346 0a0d A70A0000 		.4byte	0xaa7
 2347 0a11 44000000 		.4byte	.LBI20
 2348 0a15 02       		.byte	.LVU133
 2349 0a16 20000000 		.4byte	.Ldebug_ranges0+0x20
 2350 0a1a 01       		.byte	0x1
 2351 0a1b A1       		.byte	0xa1
 2352 0a1c 0A       		.byte	0xa
 2353 0a1d 19       		.uleb128 0x19
 2354 0a1e C30A0000 		.4byte	0xac3
 2355 0a22 B2030000 		.4byte	.LLST18
 2356 0a26 AE030000 		.4byte	.LVUS18
 2357 0a2a 19       		.uleb128 0x19
 2358 0a2b B80A0000 		.4byte	0xab8
 2359 0a2f D3030000 		.4byte	.LLST19
 2360 0a33 D1030000 		.4byte	.LVUS19
 2361 0a37 00       		.byte	0
 2362 0a38 00       		.byte	0
 2363 0a39 1D       		.uleb128 0x1d
 2364 0a3a 94000000 		.4byte	.LVL22
 2365 0a3e 0B0C0000 		.4byte	0xc0b
 2366 0a42 1C       		.uleb128 0x1c
 2367 0a43 01       		.uleb128 0x1
 2368 0a44 50       		.byte	0x50
 2369 0a45 02       		.uleb128 0x2
 2370 0a46 74       		.byte	0x74
 2371 0a47 00       		.sleb128 0
 2372 0a48 1C       		.uleb128 0x1c
 2373 0a49 01       		.uleb128 0x1
 2374 0a4a 51       		.byte	0x51
 2375 0a4b 01       		.uleb128 0x1
 2376 0a4c 30       		.byte	0x30
 2377 0a4d 00       		.byte	0
 2378 0a4e 00       		.byte	0
 2379 0a4f 2D       		.uleb128 0x2d
 2380 0a50 A2010000 		.4byte	.LASF111
 2381 0a54 01       		.byte	0x1
 2382 0a55 96       		.byte	0x96
 2383 0a56 09       		.byte	0x9
 2384 0a57 41020000 		.4byte	0x241
 2385 0a5b 01       		.byte	0x1
 2386 0a5c A70A0000 		.4byte	0xaa7
 2387 0a60 2E       		.uleb128 0x2e
 2388 0a61 77737000 		.ascii	"wsp\000"
 2389 0a65 01       		.byte	0x1
 2390 0a66 96       		.byte	0x96
 2391 0a67 1C       		.byte	0x1c
 2392 0a68 8E020000 		.4byte	0x28e
 2393 0a6c 2F       		.uleb128 0x2f
 2394 0a6d 8D020000 		.4byte	.LASF109
ARM GAS  /tmp/cc4u5hVj.s 			page 43


 2395 0a71 01       		.byte	0x1
 2396 0a72 96       		.byte	0x96
 2397 0a73 28       		.byte	0x28
 2398 0a74 2C000000 		.4byte	0x2c
 2399 0a78 2F       		.uleb128 0x2f
 2400 0a79 EF000000 		.4byte	.LASF110
 2401 0a7d 01       		.byte	0x1
 2402 0a7e 97       		.byte	0x97
 2403 0a7f 1E       		.byte	0x1e
 2404 0a80 D7000000 		.4byte	0xd7
 2405 0a84 2E       		.uleb128 0x2e
 2406 0a85 706600   		.ascii	"pf\000"
 2407 0a88 01       		.byte	0x1
 2408 0a89 97       		.byte	0x97
 2409 0a8a 2C       		.byte	0x2c
 2410 0a8b 0A050000 		.4byte	0x50a
 2411 0a8f 2E       		.uleb128 0x2e
 2412 0a90 61726700 		.ascii	"arg\000"
 2413 0a94 01       		.byte	0x1
 2414 0a95 97       		.byte	0x97
 2415 0a96 36       		.byte	0x36
 2416 0a97 8E020000 		.4byte	0x28e
 2417 0a9b 30       		.uleb128 0x30
 2418 0a9c 747000   		.ascii	"tp\000"
 2419 0a9f 01       		.byte	0x1
 2420 0aa0 99       		.byte	0x99
 2421 0aa1 0B       		.byte	0xb
 2422 0aa2 41020000 		.4byte	0x241
 2423 0aa6 00       		.byte	0
 2424 0aa7 2D       		.uleb128 0x2d
 2425 0aa8 47020000 		.4byte	.LASF112
 2426 0aac 01       		.byte	0x1
 2427 0aad 45       		.byte	0x45
 2428 0aae 09       		.byte	0x9
 2429 0aaf 41020000 		.4byte	0x241
 2430 0ab3 01       		.byte	0x1
 2431 0ab4 D00A0000 		.4byte	0xad0
 2432 0ab8 2E       		.uleb128 0x2e
 2433 0ab9 747000   		.ascii	"tp\000"
 2434 0abc 01       		.byte	0x1
 2435 0abd 45       		.byte	0x45
 2436 0abe 1E       		.byte	0x1e
 2437 0abf 41020000 		.4byte	0x241
 2438 0ac3 2F       		.uleb128 0x2f
 2439 0ac4 EF000000 		.4byte	.LASF110
 2440 0ac8 01       		.byte	0x1
 2441 0ac9 45       		.byte	0x45
 2442 0aca 2A       		.byte	0x2a
 2443 0acb D7000000 		.4byte	0xd7
 2444 0acf 00       		.byte	0
 2445 0ad0 31       		.uleb128 0x31
 2446 0ad1 EC010000 		.4byte	.LASF123
 2447 0ad5 02       		.byte	0x2
 2448 0ad6 4F       		.byte	0x4f
 2449 0ad7 17       		.byte	0x17
 2450 0ad8 41020000 		.4byte	0x241
 2451 0adc 03       		.byte	0x3
ARM GAS  /tmp/cc4u5hVj.s 			page 44


 2452 0add F90A0000 		.4byte	0xaf9
 2453 0ae1 2E       		.uleb128 0x2e
 2454 0ae2 746C7000 		.ascii	"tlp\000"
 2455 0ae6 02       		.byte	0x2
 2456 0ae7 4F       		.byte	0x4f
 2457 0ae8 30       		.byte	0x30
 2458 0ae9 F90A0000 		.4byte	0xaf9
 2459 0aed 30       		.uleb128 0x30
 2460 0aee 747000   		.ascii	"tp\000"
 2461 0af1 02       		.byte	0x2
 2462 0af2 51       		.byte	0x51
 2463 0af3 0B       		.byte	0xb
 2464 0af4 41020000 		.4byte	0x241
 2465 0af8 00       		.byte	0
 2466 0af9 0A       		.uleb128 0xa
 2467 0afa 04       		.byte	0x4
 2468 0afb 6A020000 		.4byte	0x26a
 2469 0aff 32       		.uleb128 0x32
 2470 0b00 A2030000 		.4byte	.LASF124
 2471 0b04 02       		.byte	0x2
 2472 0b05 49       		.byte	0x49
 2473 0b06 14       		.byte	0x14
 2474 0b07 03       		.byte	0x3
 2475 0b08 240B0000 		.4byte	0xb24
 2476 0b0c 2E       		.uleb128 0x2e
 2477 0b0d 747000   		.ascii	"tp\000"
 2478 0b10 02       		.byte	0x2
 2479 0b11 49       		.byte	0x49
 2480 0b12 28       		.byte	0x28
 2481 0b13 41020000 		.4byte	0x241
 2482 0b17 2E       		.uleb128 0x2e
 2483 0b18 746C7000 		.ascii	"tlp\000"
 2484 0b1c 02       		.byte	0x2
 2485 0b1d 49       		.byte	0x49
 2486 0b1e 39       		.byte	0x39
 2487 0b1f F90A0000 		.4byte	0xaf9
 2488 0b23 00       		.byte	0
 2489 0b24 33       		.uleb128 0x33
 2490 0b25 A70A0000 		.4byte	0xaa7
 2491 0b29 00000000 		.4byte	.LFB7
 2492 0b2d 6C000000 		.4byte	.LFE7-.LFB7
 2493 0b31 01       		.uleb128 0x1
 2494 0b32 9C       		.byte	0x9c
 2495 0b33 4C0B0000 		.4byte	0xb4c
 2496 0b37 34       		.uleb128 0x34
 2497 0b38 B80A0000 		.4byte	0xab8
 2498 0b3c 01       		.uleb128 0x1
 2499 0b3d 50       		.byte	0x50
 2500 0b3e 19       		.uleb128 0x19
 2501 0b3f C30A0000 		.4byte	0xac3
 2502 0b43 EA030000 		.4byte	.LLST0
 2503 0b47 E6030000 		.4byte	.LVUS0
 2504 0b4b 00       		.byte	0
 2505 0b4c 33       		.uleb128 0x33
 2506 0b4d 4F0A0000 		.4byte	0xa4f
 2507 0b51 00000000 		.4byte	.LFB8
 2508 0b55 90000000 		.4byte	.LFE8-.LFB8
ARM GAS  /tmp/cc4u5hVj.s 			page 45


 2509 0b59 01       		.uleb128 0x1
 2510 0b5a 9C       		.byte	0x9c
 2511 0b5b CF0B0000 		.4byte	0xbcf
 2512 0b5f 34       		.uleb128 0x34
 2513 0b60 600A0000 		.4byte	0xa60
 2514 0b64 01       		.uleb128 0x1
 2515 0b65 50       		.byte	0x50
 2516 0b66 19       		.uleb128 0x19
 2517 0b67 6C0A0000 		.4byte	0xa6c
 2518 0b6b 0F040000 		.4byte	.LLST1
 2519 0b6f 09040000 		.4byte	.LVUS1
 2520 0b73 19       		.uleb128 0x19
 2521 0b74 780A0000 		.4byte	0xa78
 2522 0b78 41040000 		.4byte	.LLST2
 2523 0b7c 3D040000 		.4byte	.LVUS2
 2524 0b80 19       		.uleb128 0x19
 2525 0b81 840A0000 		.4byte	0xa84
 2526 0b85 68040000 		.4byte	.LLST3
 2527 0b89 60040000 		.4byte	.LVUS3
 2528 0b8d 34       		.uleb128 0x34
 2529 0b8e 8F0A0000 		.4byte	0xa8f
 2530 0b92 02       		.uleb128 0x2
 2531 0b93 91       		.byte	0x91
 2532 0b94 00       		.sleb128 0
 2533 0b95 20       		.uleb128 0x20
 2534 0b96 9B0A0000 		.4byte	0xa9b
 2535 0b9a A4040000 		.4byte	.LLST4
 2536 0b9e A2040000 		.4byte	.LVUS4
 2537 0ba2 2C       		.uleb128 0x2c
 2538 0ba3 A70A0000 		.4byte	0xaa7
 2539 0ba7 38000000 		.4byte	.LBI12
 2540 0bab 02       		.byte	.LVU65
 2541 0bac 00000000 		.4byte	.Ldebug_ranges0+0
 2542 0bb0 01       		.byte	0x1
 2543 0bb1 A1       		.byte	0xa1
 2544 0bb2 0A       		.byte	0xa
 2545 0bb3 19       		.uleb128 0x19
 2546 0bb4 C30A0000 		.4byte	0xac3
 2547 0bb8 BB040000 		.4byte	.LLST5
 2548 0bbc B7040000 		.4byte	.LVUS5
 2549 0bc0 19       		.uleb128 0x19
 2550 0bc1 B80A0000 		.4byte	0xab8
 2551 0bc5 DC040000 		.4byte	.LLST6
 2552 0bc9 DA040000 		.4byte	.LVUS6
 2553 0bcd 00       		.byte	0
 2554 0bce 00       		.byte	0
 2555 0bcf 35       		.uleb128 0x35
 2556 0bd0 A4040000 		.4byte	.LASF113
 2557 0bd4 A4040000 		.4byte	.LASF113
 2558 0bd8 0A       		.byte	0xa
 2559 0bd9 8C       		.byte	0x8c
 2560 0bda 08       		.byte	0x8
 2561 0bdb 35       		.uleb128 0x35
 2562 0bdc 83040000 		.4byte	.LASF114
 2563 0be0 83040000 		.4byte	.LASF114
 2564 0be4 0E       		.byte	0xe
 2565 0be5 33       		.byte	0x33
ARM GAS  /tmp/cc4u5hVj.s 			page 46


 2566 0be6 08       		.byte	0x8
 2567 0be7 35       		.uleb128 0x35
 2568 0be8 55050000 		.4byte	.LASF115
 2569 0bec 55050000 		.4byte	.LASF115
 2570 0bf0 0A       		.byte	0xa
 2571 0bf1 89       		.byte	0x89
 2572 0bf2 0B       		.byte	0xb
 2573 0bf3 35       		.uleb128 0x35
 2574 0bf4 56030000 		.4byte	.LASF116
 2575 0bf8 56030000 		.4byte	.LASF116
 2576 0bfc 0A       		.byte	0xa
 2577 0bfd 9B       		.byte	0x9b
 2578 0bfe 08       		.byte	0x8
 2579 0bff 35       		.uleb128 0x35
 2580 0c00 FE050000 		.4byte	.LASF117
 2581 0c04 FE050000 		.4byte	.LASF117
 2582 0c08 0A       		.byte	0xa
 2583 0c09 8F       		.byte	0x8f
 2584 0c0a 09       		.byte	0x9
 2585 0c0b 35       		.uleb128 0x35
 2586 0c0c A5020000 		.4byte	.LASF118
 2587 0c10 A5020000 		.4byte	.LASF118
 2588 0c14 0A       		.byte	0xa
 2589 0c15 92       		.byte	0x92
 2590 0c16 08       		.byte	0x8
 2591 0c17 35       		.uleb128 0x35
 2592 0c18 F8010000 		.4byte	.LASF119
 2593 0c1c F8010000 		.4byte	.LASF119
 2594 0c20 0A       		.byte	0xa
 2595 0c21 95       		.byte	0x95
 2596 0c22 08       		.byte	0x8
 2597 0c23 00       		.byte	0
 2598              		.section	.debug_abbrev,"",%progbits
 2599              	.Ldebug_abbrev0:
 2600 0000 01       		.uleb128 0x1
 2601 0001 11       		.uleb128 0x11
 2602 0002 01       		.byte	0x1
 2603 0003 25       		.uleb128 0x25
 2604 0004 0E       		.uleb128 0xe
 2605 0005 13       		.uleb128 0x13
 2606 0006 0B       		.uleb128 0xb
 2607 0007 03       		.uleb128 0x3
 2608 0008 0E       		.uleb128 0xe
 2609 0009 1B       		.uleb128 0x1b
 2610 000a 0E       		.uleb128 0xe
 2611 000b 55       		.uleb128 0x55
 2612 000c 17       		.uleb128 0x17
 2613 000d 11       		.uleb128 0x11
 2614 000e 01       		.uleb128 0x1
 2615 000f 10       		.uleb128 0x10
 2616 0010 17       		.uleb128 0x17
 2617 0011 00       		.byte	0
 2618 0012 00       		.byte	0
 2619 0013 02       		.uleb128 0x2
 2620 0014 24       		.uleb128 0x24
 2621 0015 00       		.byte	0
 2622 0016 0B       		.uleb128 0xb
ARM GAS  /tmp/cc4u5hVj.s 			page 47


 2623 0017 0B       		.uleb128 0xb
 2624 0018 3E       		.uleb128 0x3e
 2625 0019 0B       		.uleb128 0xb
 2626 001a 03       		.uleb128 0x3
 2627 001b 08       		.uleb128 0x8
 2628 001c 00       		.byte	0
 2629 001d 00       		.byte	0
 2630 001e 03       		.uleb128 0x3
 2631 001f 16       		.uleb128 0x16
 2632 0020 00       		.byte	0
 2633 0021 03       		.uleb128 0x3
 2634 0022 0E       		.uleb128 0xe
 2635 0023 3A       		.uleb128 0x3a
 2636 0024 0B       		.uleb128 0xb
 2637 0025 3B       		.uleb128 0x3b
 2638 0026 0B       		.uleb128 0xb
 2639 0027 39       		.uleb128 0x39
 2640 0028 0B       		.uleb128 0xb
 2641 0029 49       		.uleb128 0x49
 2642 002a 13       		.uleb128 0x13
 2643 002b 00       		.byte	0
 2644 002c 00       		.byte	0
 2645 002d 04       		.uleb128 0x4
 2646 002e 24       		.uleb128 0x24
 2647 002f 00       		.byte	0
 2648 0030 0B       		.uleb128 0xb
 2649 0031 0B       		.uleb128 0xb
 2650 0032 3E       		.uleb128 0x3e
 2651 0033 0B       		.uleb128 0xb
 2652 0034 03       		.uleb128 0x3
 2653 0035 0E       		.uleb128 0xe
 2654 0036 00       		.byte	0
 2655 0037 00       		.byte	0
 2656 0038 05       		.uleb128 0x5
 2657 0039 35       		.uleb128 0x35
 2658 003a 00       		.byte	0
 2659 003b 49       		.uleb128 0x49
 2660 003c 13       		.uleb128 0x13
 2661 003d 00       		.byte	0
 2662 003e 00       		.byte	0
 2663 003f 06       		.uleb128 0x6
 2664 0040 13       		.uleb128 0x13
 2665 0041 01       		.byte	0x1
 2666 0042 03       		.uleb128 0x3
 2667 0043 0E       		.uleb128 0xe
 2668 0044 0B       		.uleb128 0xb
 2669 0045 0B       		.uleb128 0xb
 2670 0046 3A       		.uleb128 0x3a
 2671 0047 0B       		.uleb128 0xb
 2672 0048 3B       		.uleb128 0x3b
 2673 0049 0B       		.uleb128 0xb
 2674 004a 39       		.uleb128 0x39
 2675 004b 0B       		.uleb128 0xb
 2676 004c 01       		.uleb128 0x1
 2677 004d 13       		.uleb128 0x13
 2678 004e 00       		.byte	0
 2679 004f 00       		.byte	0
ARM GAS  /tmp/cc4u5hVj.s 			page 48


 2680 0050 07       		.uleb128 0x7
 2681 0051 0D       		.uleb128 0xd
 2682 0052 00       		.byte	0
 2683 0053 03       		.uleb128 0x3
 2684 0054 0E       		.uleb128 0xe
 2685 0055 3A       		.uleb128 0x3a
 2686 0056 0B       		.uleb128 0xb
 2687 0057 3B       		.uleb128 0x3b
 2688 0058 0B       		.uleb128 0xb
 2689 0059 39       		.uleb128 0x39
 2690 005a 0B       		.uleb128 0xb
 2691 005b 49       		.uleb128 0x49
 2692 005c 13       		.uleb128 0x13
 2693 005d 38       		.uleb128 0x38
 2694 005e 0B       		.uleb128 0xb
 2695 005f 00       		.byte	0
 2696 0060 00       		.byte	0
 2697 0061 08       		.uleb128 0x8
 2698 0062 0D       		.uleb128 0xd
 2699 0063 00       		.byte	0
 2700 0064 03       		.uleb128 0x3
 2701 0065 08       		.uleb128 0x8
 2702 0066 3A       		.uleb128 0x3a
 2703 0067 0B       		.uleb128 0xb
 2704 0068 3B       		.uleb128 0x3b
 2705 0069 0B       		.uleb128 0xb
 2706 006a 39       		.uleb128 0x39
 2707 006b 0B       		.uleb128 0xb
 2708 006c 49       		.uleb128 0x49
 2709 006d 13       		.uleb128 0x13
 2710 006e 38       		.uleb128 0x38
 2711 006f 0B       		.uleb128 0xb
 2712 0070 00       		.byte	0
 2713 0071 00       		.byte	0
 2714 0072 09       		.uleb128 0x9
 2715 0073 13       		.uleb128 0x13
 2716 0074 01       		.byte	0x1
 2717 0075 0B       		.uleb128 0xb
 2718 0076 0B       		.uleb128 0xb
 2719 0077 3A       		.uleb128 0x3a
 2720 0078 0B       		.uleb128 0xb
 2721 0079 3B       		.uleb128 0x3b
 2722 007a 0B       		.uleb128 0xb
 2723 007b 39       		.uleb128 0x39
 2724 007c 0B       		.uleb128 0xb
 2725 007d 01       		.uleb128 0x1
 2726 007e 13       		.uleb128 0x13
 2727 007f 00       		.byte	0
 2728 0080 00       		.byte	0
 2729 0081 0A       		.uleb128 0xa
 2730 0082 0F       		.uleb128 0xf
 2731 0083 00       		.byte	0
 2732 0084 0B       		.uleb128 0xb
 2733 0085 0B       		.uleb128 0xb
 2734 0086 49       		.uleb128 0x49
 2735 0087 13       		.uleb128 0x13
 2736 0088 00       		.byte	0
ARM GAS  /tmp/cc4u5hVj.s 			page 49


 2737 0089 00       		.byte	0
 2738 008a 0B       		.uleb128 0xb
 2739 008b 0F       		.uleb128 0xf
 2740 008c 00       		.byte	0
 2741 008d 0B       		.uleb128 0xb
 2742 008e 0B       		.uleb128 0xb
 2743 008f 00       		.byte	0
 2744 0090 00       		.byte	0
 2745 0091 0C       		.uleb128 0xc
 2746 0092 15       		.uleb128 0x15
 2747 0093 01       		.byte	0x1
 2748 0094 27       		.uleb128 0x27
 2749 0095 19       		.uleb128 0x19
 2750 0096 01       		.uleb128 0x1
 2751 0097 13       		.uleb128 0x13
 2752 0098 00       		.byte	0
 2753 0099 00       		.byte	0
 2754 009a 0D       		.uleb128 0xd
 2755 009b 05       		.uleb128 0x5
 2756 009c 00       		.byte	0
 2757 009d 49       		.uleb128 0x49
 2758 009e 13       		.uleb128 0x13
 2759 009f 00       		.byte	0
 2760 00a0 00       		.byte	0
 2761 00a1 0E       		.uleb128 0xe
 2762 00a2 34       		.uleb128 0x34
 2763 00a3 00       		.byte	0
 2764 00a4 03       		.uleb128 0x3
 2765 00a5 0E       		.uleb128 0xe
 2766 00a6 3A       		.uleb128 0x3a
 2767 00a7 0B       		.uleb128 0xb
 2768 00a8 3B       		.uleb128 0x3b
 2769 00a9 0B       		.uleb128 0xb
 2770 00aa 39       		.uleb128 0x39
 2771 00ab 0B       		.uleb128 0xb
 2772 00ac 49       		.uleb128 0x49
 2773 00ad 13       		.uleb128 0x13
 2774 00ae 3F       		.uleb128 0x3f
 2775 00af 19       		.uleb128 0x19
 2776 00b0 3C       		.uleb128 0x3c
 2777 00b1 19       		.uleb128 0x19
 2778 00b2 00       		.byte	0
 2779 00b3 00       		.byte	0
 2780 00b4 0F       		.uleb128 0xf
 2781 00b5 17       		.uleb128 0x17
 2782 00b6 01       		.byte	0x1
 2783 00b7 0B       		.uleb128 0xb
 2784 00b8 0B       		.uleb128 0xb
 2785 00b9 3A       		.uleb128 0x3a
 2786 00ba 0B       		.uleb128 0xb
 2787 00bb 3B       		.uleb128 0x3b
 2788 00bc 0B       		.uleb128 0xb
 2789 00bd 39       		.uleb128 0x39
 2790 00be 0B       		.uleb128 0xb
 2791 00bf 01       		.uleb128 0x1
 2792 00c0 13       		.uleb128 0x13
 2793 00c1 00       		.byte	0
ARM GAS  /tmp/cc4u5hVj.s 			page 50


 2794 00c2 00       		.byte	0
 2795 00c3 10       		.uleb128 0x10
 2796 00c4 0D       		.uleb128 0xd
 2797 00c5 00       		.byte	0
 2798 00c6 03       		.uleb128 0x3
 2799 00c7 0E       		.uleb128 0xe
 2800 00c8 3A       		.uleb128 0x3a
 2801 00c9 0B       		.uleb128 0xb
 2802 00ca 3B       		.uleb128 0x3b
 2803 00cb 0B       		.uleb128 0xb
 2804 00cc 39       		.uleb128 0x39
 2805 00cd 0B       		.uleb128 0xb
 2806 00ce 49       		.uleb128 0x49
 2807 00cf 13       		.uleb128 0x13
 2808 00d0 00       		.byte	0
 2809 00d1 00       		.byte	0
 2810 00d2 11       		.uleb128 0x11
 2811 00d3 26       		.uleb128 0x26
 2812 00d4 00       		.byte	0
 2813 00d5 49       		.uleb128 0x49
 2814 00d6 13       		.uleb128 0x13
 2815 00d7 00       		.byte	0
 2816 00d8 00       		.byte	0
 2817 00d9 12       		.uleb128 0x12
 2818 00da 15       		.uleb128 0x15
 2819 00db 01       		.byte	0x1
 2820 00dc 27       		.uleb128 0x27
 2821 00dd 19       		.uleb128 0x19
 2822 00de 49       		.uleb128 0x49
 2823 00df 13       		.uleb128 0x13
 2824 00e0 01       		.uleb128 0x1
 2825 00e1 13       		.uleb128 0x13
 2826 00e2 00       		.byte	0
 2827 00e3 00       		.byte	0
 2828 00e4 13       		.uleb128 0x13
 2829 00e5 01       		.uleb128 0x1
 2830 00e6 01       		.byte	0x1
 2831 00e7 49       		.uleb128 0x49
 2832 00e8 13       		.uleb128 0x13
 2833 00e9 01       		.uleb128 0x1
 2834 00ea 13       		.uleb128 0x13
 2835 00eb 00       		.byte	0
 2836 00ec 00       		.byte	0
 2837 00ed 14       		.uleb128 0x14
 2838 00ee 21       		.uleb128 0x21
 2839 00ef 00       		.byte	0
 2840 00f0 49       		.uleb128 0x49
 2841 00f1 13       		.uleb128 0x13
 2842 00f2 2F       		.uleb128 0x2f
 2843 00f3 0B       		.uleb128 0xb
 2844 00f4 00       		.byte	0
 2845 00f5 00       		.byte	0
 2846 00f6 15       		.uleb128 0x15
 2847 00f7 2E       		.uleb128 0x2e
 2848 00f8 01       		.byte	0x1
 2849 00f9 3F       		.uleb128 0x3f
 2850 00fa 19       		.uleb128 0x19
ARM GAS  /tmp/cc4u5hVj.s 			page 51


 2851 00fb 03       		.uleb128 0x3
 2852 00fc 0E       		.uleb128 0xe
 2853 00fd 3A       		.uleb128 0x3a
 2854 00fe 0B       		.uleb128 0xb
 2855 00ff 3B       		.uleb128 0x3b
 2856 0100 05       		.uleb128 0x5
 2857 0101 39       		.uleb128 0x39
 2858 0102 0B       		.uleb128 0xb
 2859 0103 27       		.uleb128 0x27
 2860 0104 19       		.uleb128 0x19
 2861 0105 49       		.uleb128 0x49
 2862 0106 13       		.uleb128 0x13
 2863 0107 11       		.uleb128 0x11
 2864 0108 01       		.uleb128 0x1
 2865 0109 12       		.uleb128 0x12
 2866 010a 06       		.uleb128 0x6
 2867 010b 40       		.uleb128 0x40
 2868 010c 18       		.uleb128 0x18
 2869 010d 9742     		.uleb128 0x2117
 2870 010f 19       		.uleb128 0x19
 2871 0110 01       		.uleb128 0x1
 2872 0111 13       		.uleb128 0x13
 2873 0112 00       		.byte	0
 2874 0113 00       		.byte	0
 2875 0114 16       		.uleb128 0x16
 2876 0115 05       		.uleb128 0x5
 2877 0116 00       		.byte	0
 2878 0117 03       		.uleb128 0x3
 2879 0118 08       		.uleb128 0x8
 2880 0119 3A       		.uleb128 0x3a
 2881 011a 0B       		.uleb128 0xb
 2882 011b 3B       		.uleb128 0x3b
 2883 011c 05       		.uleb128 0x5
 2884 011d 39       		.uleb128 0x39
 2885 011e 0B       		.uleb128 0xb
 2886 011f 49       		.uleb128 0x49
 2887 0120 13       		.uleb128 0x13
 2888 0121 02       		.uleb128 0x2
 2889 0122 17       		.uleb128 0x17
 2890 0123 B742     		.uleb128 0x2137
 2891 0125 17       		.uleb128 0x17
 2892 0126 00       		.byte	0
 2893 0127 00       		.byte	0
 2894 0128 17       		.uleb128 0x17
 2895 0129 34       		.uleb128 0x34
 2896 012a 00       		.byte	0
 2897 012b 03       		.uleb128 0x3
 2898 012c 08       		.uleb128 0x8
 2899 012d 3A       		.uleb128 0x3a
 2900 012e 0B       		.uleb128 0xb
 2901 012f 3B       		.uleb128 0x3b
 2902 0130 05       		.uleb128 0x5
 2903 0131 39       		.uleb128 0x39
 2904 0132 0B       		.uleb128 0xb
 2905 0133 49       		.uleb128 0x49
 2906 0134 13       		.uleb128 0x13
 2907 0135 02       		.uleb128 0x2
ARM GAS  /tmp/cc4u5hVj.s 			page 52


 2908 0136 17       		.uleb128 0x17
 2909 0137 B742     		.uleb128 0x2137
 2910 0139 17       		.uleb128 0x17
 2911 013a 00       		.byte	0
 2912 013b 00       		.byte	0
 2913 013c 18       		.uleb128 0x18
 2914 013d 1D       		.uleb128 0x1d
 2915 013e 01       		.byte	0x1
 2916 013f 31       		.uleb128 0x31
 2917 0140 13       		.uleb128 0x13
 2918 0141 52       		.uleb128 0x52
 2919 0142 01       		.uleb128 0x1
 2920 0143 B842     		.uleb128 0x2138
 2921 0145 0B       		.uleb128 0xb
 2922 0146 55       		.uleb128 0x55
 2923 0147 17       		.uleb128 0x17
 2924 0148 58       		.uleb128 0x58
 2925 0149 0B       		.uleb128 0xb
 2926 014a 59       		.uleb128 0x59
 2927 014b 05       		.uleb128 0x5
 2928 014c 57       		.uleb128 0x57
 2929 014d 0B       		.uleb128 0xb
 2930 014e 01       		.uleb128 0x1
 2931 014f 13       		.uleb128 0x13
 2932 0150 00       		.byte	0
 2933 0151 00       		.byte	0
 2934 0152 19       		.uleb128 0x19
 2935 0153 05       		.uleb128 0x5
 2936 0154 00       		.byte	0
 2937 0155 31       		.uleb128 0x31
 2938 0156 13       		.uleb128 0x13
 2939 0157 02       		.uleb128 0x2
 2940 0158 17       		.uleb128 0x17
 2941 0159 B742     		.uleb128 0x2137
 2942 015b 17       		.uleb128 0x17
 2943 015c 00       		.byte	0
 2944 015d 00       		.byte	0
 2945 015e 1A       		.uleb128 0x1a
 2946 015f 05       		.uleb128 0x5
 2947 0160 00       		.byte	0
 2948 0161 31       		.uleb128 0x31
 2949 0162 13       		.uleb128 0x13
 2950 0163 00       		.byte	0
 2951 0164 00       		.byte	0
 2952 0165 1B       		.uleb128 0x1b
 2953 0166 898201   		.uleb128 0x4109
 2954 0169 01       		.byte	0x1
 2955 016a 11       		.uleb128 0x11
 2956 016b 01       		.uleb128 0x1
 2957 016c 31       		.uleb128 0x31
 2958 016d 13       		.uleb128 0x13
 2959 016e 01       		.uleb128 0x1
 2960 016f 13       		.uleb128 0x13
 2961 0170 00       		.byte	0
 2962 0171 00       		.byte	0
 2963 0172 1C       		.uleb128 0x1c
 2964 0173 8A8201   		.uleb128 0x410a
ARM GAS  /tmp/cc4u5hVj.s 			page 53


 2965 0176 00       		.byte	0
 2966 0177 02       		.uleb128 0x2
 2967 0178 18       		.uleb128 0x18
 2968 0179 9142     		.uleb128 0x2111
 2969 017b 18       		.uleb128 0x18
 2970 017c 00       		.byte	0
 2971 017d 00       		.byte	0
 2972 017e 1D       		.uleb128 0x1d
 2973 017f 898201   		.uleb128 0x4109
 2974 0182 01       		.byte	0x1
 2975 0183 11       		.uleb128 0x11
 2976 0184 01       		.uleb128 0x1
 2977 0185 31       		.uleb128 0x31
 2978 0186 13       		.uleb128 0x13
 2979 0187 00       		.byte	0
 2980 0188 00       		.byte	0
 2981 0189 1E       		.uleb128 0x1e
 2982 018a 2E       		.uleb128 0x2e
 2983 018b 01       		.byte	0x1
 2984 018c 3F       		.uleb128 0x3f
 2985 018d 19       		.uleb128 0x19
 2986 018e 03       		.uleb128 0x3
 2987 018f 0E       		.uleb128 0xe
 2988 0190 3A       		.uleb128 0x3a
 2989 0191 0B       		.uleb128 0xb
 2990 0192 3B       		.uleb128 0x3b
 2991 0193 05       		.uleb128 0x5
 2992 0194 39       		.uleb128 0x39
 2993 0195 0B       		.uleb128 0xb
 2994 0196 27       		.uleb128 0x27
 2995 0197 19       		.uleb128 0x19
 2996 0198 11       		.uleb128 0x11
 2997 0199 01       		.uleb128 0x1
 2998 019a 12       		.uleb128 0x12
 2999 019b 06       		.uleb128 0x6
 3000 019c 40       		.uleb128 0x40
 3001 019d 18       		.uleb128 0x18
 3002 019e 9742     		.uleb128 0x2117
 3003 01a0 19       		.uleb128 0x19
 3004 01a1 01       		.uleb128 0x1
 3005 01a2 13       		.uleb128 0x13
 3006 01a3 00       		.byte	0
 3007 01a4 00       		.byte	0
 3008 01a5 1F       		.uleb128 0x1f
 3009 01a6 1D       		.uleb128 0x1d
 3010 01a7 01       		.byte	0x1
 3011 01a8 31       		.uleb128 0x31
 3012 01a9 13       		.uleb128 0x13
 3013 01aa 52       		.uleb128 0x52
 3014 01ab 01       		.uleb128 0x1
 3015 01ac B842     		.uleb128 0x2138
 3016 01ae 0B       		.uleb128 0xb
 3017 01af 11       		.uleb128 0x11
 3018 01b0 01       		.uleb128 0x1
 3019 01b1 12       		.uleb128 0x12
 3020 01b2 06       		.uleb128 0x6
 3021 01b3 58       		.uleb128 0x58
ARM GAS  /tmp/cc4u5hVj.s 			page 54


 3022 01b4 0B       		.uleb128 0xb
 3023 01b5 59       		.uleb128 0x59
 3024 01b6 05       		.uleb128 0x5
 3025 01b7 57       		.uleb128 0x57
 3026 01b8 0B       		.uleb128 0xb
 3027 01b9 01       		.uleb128 0x1
 3028 01ba 13       		.uleb128 0x13
 3029 01bb 00       		.byte	0
 3030 01bc 00       		.byte	0
 3031 01bd 20       		.uleb128 0x20
 3032 01be 34       		.uleb128 0x34
 3033 01bf 00       		.byte	0
 3034 01c0 31       		.uleb128 0x31
 3035 01c1 13       		.uleb128 0x13
 3036 01c2 02       		.uleb128 0x2
 3037 01c3 17       		.uleb128 0x17
 3038 01c4 B742     		.uleb128 0x2137
 3039 01c6 17       		.uleb128 0x17
 3040 01c7 00       		.byte	0
 3041 01c8 00       		.byte	0
 3042 01c9 21       		.uleb128 0x21
 3043 01ca 898201   		.uleb128 0x4109
 3044 01cd 00       		.byte	0
 3045 01ce 11       		.uleb128 0x11
 3046 01cf 01       		.uleb128 0x1
 3047 01d0 31       		.uleb128 0x31
 3048 01d1 13       		.uleb128 0x13
 3049 01d2 00       		.byte	0
 3050 01d3 00       		.byte	0
 3051 01d4 22       		.uleb128 0x22
 3052 01d5 898201   		.uleb128 0x4109
 3053 01d8 01       		.byte	0x1
 3054 01d9 11       		.uleb128 0x11
 3055 01da 01       		.uleb128 0x1
 3056 01db 9542     		.uleb128 0x2115
 3057 01dd 19       		.uleb128 0x19
 3058 01de 31       		.uleb128 0x31
 3059 01df 13       		.uleb128 0x13
 3060 01e0 00       		.byte	0
 3061 01e1 00       		.byte	0
 3062 01e2 23       		.uleb128 0x23
 3063 01e3 05       		.uleb128 0x5
 3064 01e4 00       		.byte	0
 3065 01e5 03       		.uleb128 0x3
 3066 01e6 0E       		.uleb128 0xe
 3067 01e7 3A       		.uleb128 0x3a
 3068 01e8 0B       		.uleb128 0xb
 3069 01e9 3B       		.uleb128 0x3b
 3070 01ea 05       		.uleb128 0x5
 3071 01eb 39       		.uleb128 0x39
 3072 01ec 0B       		.uleb128 0xb
 3073 01ed 49       		.uleb128 0x49
 3074 01ee 13       		.uleb128 0x13
 3075 01ef 02       		.uleb128 0x2
 3076 01f0 17       		.uleb128 0x17
 3077 01f1 B742     		.uleb128 0x2137
 3078 01f3 17       		.uleb128 0x17
ARM GAS  /tmp/cc4u5hVj.s 			page 55


 3079 01f4 00       		.byte	0
 3080 01f5 00       		.byte	0
 3081 01f6 24       		.uleb128 0x24
 3082 01f7 05       		.uleb128 0x5
 3083 01f8 00       		.byte	0
 3084 01f9 03       		.uleb128 0x3
 3085 01fa 08       		.uleb128 0x8
 3086 01fb 3A       		.uleb128 0x3a
 3087 01fc 0B       		.uleb128 0xb
 3088 01fd 3B       		.uleb128 0x3b
 3089 01fe 05       		.uleb128 0x5
 3090 01ff 39       		.uleb128 0x39
 3091 0200 0B       		.uleb128 0xb
 3092 0201 49       		.uleb128 0x49
 3093 0202 13       		.uleb128 0x13
 3094 0203 02       		.uleb128 0x2
 3095 0204 18       		.uleb128 0x18
 3096 0205 00       		.byte	0
 3097 0206 00       		.byte	0
 3098 0207 25       		.uleb128 0x25
 3099 0208 2E       		.uleb128 0x2e
 3100 0209 01       		.byte	0x1
 3101 020a 3F       		.uleb128 0x3f
 3102 020b 19       		.uleb128 0x19
 3103 020c 03       		.uleb128 0x3
 3104 020d 0E       		.uleb128 0xe
 3105 020e 3A       		.uleb128 0x3a
 3106 020f 0B       		.uleb128 0xb
 3107 0210 3B       		.uleb128 0x3b
 3108 0211 0B       		.uleb128 0xb
 3109 0212 39       		.uleb128 0x39
 3110 0213 0B       		.uleb128 0xb
 3111 0214 27       		.uleb128 0x27
 3112 0215 19       		.uleb128 0x19
 3113 0216 49       		.uleb128 0x49
 3114 0217 13       		.uleb128 0x13
 3115 0218 11       		.uleb128 0x11
 3116 0219 01       		.uleb128 0x1
 3117 021a 12       		.uleb128 0x12
 3118 021b 06       		.uleb128 0x6
 3119 021c 40       		.uleb128 0x40
 3120 021d 18       		.uleb128 0x18
 3121 021e 9742     		.uleb128 0x2117
 3122 0220 19       		.uleb128 0x19
 3123 0221 01       		.uleb128 0x1
 3124 0222 13       		.uleb128 0x13
 3125 0223 00       		.byte	0
 3126 0224 00       		.byte	0
 3127 0225 26       		.uleb128 0x26
 3128 0226 05       		.uleb128 0x5
 3129 0227 00       		.byte	0
 3130 0228 03       		.uleb128 0x3
 3131 0229 08       		.uleb128 0x8
 3132 022a 3A       		.uleb128 0x3a
 3133 022b 0B       		.uleb128 0xb
 3134 022c 3B       		.uleb128 0x3b
 3135 022d 0B       		.uleb128 0xb
ARM GAS  /tmp/cc4u5hVj.s 			page 56


 3136 022e 39       		.uleb128 0x39
 3137 022f 0B       		.uleb128 0xb
 3138 0230 49       		.uleb128 0x49
 3139 0231 13       		.uleb128 0x13
 3140 0232 02       		.uleb128 0x2
 3141 0233 17       		.uleb128 0x17
 3142 0234 B742     		.uleb128 0x2137
 3143 0236 17       		.uleb128 0x17
 3144 0237 00       		.byte	0
 3145 0238 00       		.byte	0
 3146 0239 27       		.uleb128 0x27
 3147 023a 05       		.uleb128 0x5
 3148 023b 00       		.byte	0
 3149 023c 03       		.uleb128 0x3
 3150 023d 0E       		.uleb128 0xe
 3151 023e 3A       		.uleb128 0x3a
 3152 023f 0B       		.uleb128 0xb
 3153 0240 3B       		.uleb128 0x3b
 3154 0241 0B       		.uleb128 0xb
 3155 0242 39       		.uleb128 0x39
 3156 0243 0B       		.uleb128 0xb
 3157 0244 49       		.uleb128 0x49
 3158 0245 13       		.uleb128 0x13
 3159 0246 02       		.uleb128 0x2
 3160 0247 17       		.uleb128 0x17
 3161 0248 B742     		.uleb128 0x2137
 3162 024a 17       		.uleb128 0x17
 3163 024b 00       		.byte	0
 3164 024c 00       		.byte	0
 3165 024d 28       		.uleb128 0x28
 3166 024e 34       		.uleb128 0x34
 3167 024f 00       		.byte	0
 3168 0250 03       		.uleb128 0x3
 3169 0251 0E       		.uleb128 0xe
 3170 0252 3A       		.uleb128 0x3a
 3171 0253 0B       		.uleb128 0xb
 3172 0254 3B       		.uleb128 0x3b
 3173 0255 0B       		.uleb128 0xb
 3174 0256 39       		.uleb128 0x39
 3175 0257 0B       		.uleb128 0xb
 3176 0258 49       		.uleb128 0x49
 3177 0259 13       		.uleb128 0x13
 3178 025a 02       		.uleb128 0x2
 3179 025b 17       		.uleb128 0x17
 3180 025c B742     		.uleb128 0x2137
 3181 025e 17       		.uleb128 0x17
 3182 025f 00       		.byte	0
 3183 0260 00       		.byte	0
 3184 0261 29       		.uleb128 0x29
 3185 0262 05       		.uleb128 0x5
 3186 0263 00       		.byte	0
 3187 0264 03       		.uleb128 0x3
 3188 0265 08       		.uleb128 0x8
 3189 0266 3A       		.uleb128 0x3a
 3190 0267 0B       		.uleb128 0xb
 3191 0268 3B       		.uleb128 0x3b
 3192 0269 0B       		.uleb128 0xb
ARM GAS  /tmp/cc4u5hVj.s 			page 57


 3193 026a 39       		.uleb128 0x39
 3194 026b 0B       		.uleb128 0xb
 3195 026c 49       		.uleb128 0x49
 3196 026d 13       		.uleb128 0x13
 3197 026e 02       		.uleb128 0x2
 3198 026f 18       		.uleb128 0x18
 3199 0270 00       		.byte	0
 3200 0271 00       		.byte	0
 3201 0272 2A       		.uleb128 0x2a
 3202 0273 34       		.uleb128 0x34
 3203 0274 00       		.byte	0
 3204 0275 03       		.uleb128 0x3
 3205 0276 08       		.uleb128 0x8
 3206 0277 3A       		.uleb128 0x3a
 3207 0278 0B       		.uleb128 0xb
 3208 0279 3B       		.uleb128 0x3b
 3209 027a 0B       		.uleb128 0xb
 3210 027b 39       		.uleb128 0x39
 3211 027c 0B       		.uleb128 0xb
 3212 027d 49       		.uleb128 0x49
 3213 027e 13       		.uleb128 0x13
 3214 027f 02       		.uleb128 0x2
 3215 0280 17       		.uleb128 0x17
 3216 0281 B742     		.uleb128 0x2137
 3217 0283 17       		.uleb128 0x17
 3218 0284 00       		.byte	0
 3219 0285 00       		.byte	0
 3220 0286 2B       		.uleb128 0x2b
 3221 0287 1D       		.uleb128 0x1d
 3222 0288 01       		.byte	0x1
 3223 0289 31       		.uleb128 0x31
 3224 028a 13       		.uleb128 0x13
 3225 028b 52       		.uleb128 0x52
 3226 028c 01       		.uleb128 0x1
 3227 028d B842     		.uleb128 0x2138
 3228 028f 0B       		.uleb128 0xb
 3229 0290 11       		.uleb128 0x11
 3230 0291 01       		.uleb128 0x1
 3231 0292 12       		.uleb128 0x12
 3232 0293 06       		.uleb128 0x6
 3233 0294 58       		.uleb128 0x58
 3234 0295 0B       		.uleb128 0xb
 3235 0296 59       		.uleb128 0x59
 3236 0297 0B       		.uleb128 0xb
 3237 0298 57       		.uleb128 0x57
 3238 0299 0B       		.uleb128 0xb
 3239 029a 01       		.uleb128 0x1
 3240 029b 13       		.uleb128 0x13
 3241 029c 00       		.byte	0
 3242 029d 00       		.byte	0
 3243 029e 2C       		.uleb128 0x2c
 3244 029f 1D       		.uleb128 0x1d
 3245 02a0 01       		.byte	0x1
 3246 02a1 31       		.uleb128 0x31
 3247 02a2 13       		.uleb128 0x13
 3248 02a3 52       		.uleb128 0x52
 3249 02a4 01       		.uleb128 0x1
ARM GAS  /tmp/cc4u5hVj.s 			page 58


 3250 02a5 B842     		.uleb128 0x2138
 3251 02a7 0B       		.uleb128 0xb
 3252 02a8 55       		.uleb128 0x55
 3253 02a9 17       		.uleb128 0x17
 3254 02aa 58       		.uleb128 0x58
 3255 02ab 0B       		.uleb128 0xb
 3256 02ac 59       		.uleb128 0x59
 3257 02ad 0B       		.uleb128 0xb
 3258 02ae 57       		.uleb128 0x57
 3259 02af 0B       		.uleb128 0xb
 3260 02b0 00       		.byte	0
 3261 02b1 00       		.byte	0
 3262 02b2 2D       		.uleb128 0x2d
 3263 02b3 2E       		.uleb128 0x2e
 3264 02b4 01       		.byte	0x1
 3265 02b5 3F       		.uleb128 0x3f
 3266 02b6 19       		.uleb128 0x19
 3267 02b7 03       		.uleb128 0x3
 3268 02b8 0E       		.uleb128 0xe
 3269 02b9 3A       		.uleb128 0x3a
 3270 02ba 0B       		.uleb128 0xb
 3271 02bb 3B       		.uleb128 0x3b
 3272 02bc 0B       		.uleb128 0xb
 3273 02bd 39       		.uleb128 0x39
 3274 02be 0B       		.uleb128 0xb
 3275 02bf 27       		.uleb128 0x27
 3276 02c0 19       		.uleb128 0x19
 3277 02c1 49       		.uleb128 0x49
 3278 02c2 13       		.uleb128 0x13
 3279 02c3 20       		.uleb128 0x20
 3280 02c4 0B       		.uleb128 0xb
 3281 02c5 01       		.uleb128 0x1
 3282 02c6 13       		.uleb128 0x13
 3283 02c7 00       		.byte	0
 3284 02c8 00       		.byte	0
 3285 02c9 2E       		.uleb128 0x2e
 3286 02ca 05       		.uleb128 0x5
 3287 02cb 00       		.byte	0
 3288 02cc 03       		.uleb128 0x3
 3289 02cd 08       		.uleb128 0x8
 3290 02ce 3A       		.uleb128 0x3a
 3291 02cf 0B       		.uleb128 0xb
 3292 02d0 3B       		.uleb128 0x3b
 3293 02d1 0B       		.uleb128 0xb
 3294 02d2 39       		.uleb128 0x39
 3295 02d3 0B       		.uleb128 0xb
 3296 02d4 49       		.uleb128 0x49
 3297 02d5 13       		.uleb128 0x13
 3298 02d6 00       		.byte	0
 3299 02d7 00       		.byte	0
 3300 02d8 2F       		.uleb128 0x2f
 3301 02d9 05       		.uleb128 0x5
 3302 02da 00       		.byte	0
 3303 02db 03       		.uleb128 0x3
 3304 02dc 0E       		.uleb128 0xe
 3305 02dd 3A       		.uleb128 0x3a
 3306 02de 0B       		.uleb128 0xb
ARM GAS  /tmp/cc4u5hVj.s 			page 59


 3307 02df 3B       		.uleb128 0x3b
 3308 02e0 0B       		.uleb128 0xb
 3309 02e1 39       		.uleb128 0x39
 3310 02e2 0B       		.uleb128 0xb
 3311 02e3 49       		.uleb128 0x49
 3312 02e4 13       		.uleb128 0x13
 3313 02e5 00       		.byte	0
 3314 02e6 00       		.byte	0
 3315 02e7 30       		.uleb128 0x30
 3316 02e8 34       		.uleb128 0x34
 3317 02e9 00       		.byte	0
 3318 02ea 03       		.uleb128 0x3
 3319 02eb 08       		.uleb128 0x8
 3320 02ec 3A       		.uleb128 0x3a
 3321 02ed 0B       		.uleb128 0xb
 3322 02ee 3B       		.uleb128 0x3b
 3323 02ef 0B       		.uleb128 0xb
 3324 02f0 39       		.uleb128 0x39
 3325 02f1 0B       		.uleb128 0xb
 3326 02f2 49       		.uleb128 0x49
 3327 02f3 13       		.uleb128 0x13
 3328 02f4 00       		.byte	0
 3329 02f5 00       		.byte	0
 3330 02f6 31       		.uleb128 0x31
 3331 02f7 2E       		.uleb128 0x2e
 3332 02f8 01       		.byte	0x1
 3333 02f9 03       		.uleb128 0x3
 3334 02fa 0E       		.uleb128 0xe
 3335 02fb 3A       		.uleb128 0x3a
 3336 02fc 0B       		.uleb128 0xb
 3337 02fd 3B       		.uleb128 0x3b
 3338 02fe 0B       		.uleb128 0xb
 3339 02ff 39       		.uleb128 0x39
 3340 0300 0B       		.uleb128 0xb
 3341 0301 27       		.uleb128 0x27
 3342 0302 19       		.uleb128 0x19
 3343 0303 49       		.uleb128 0x49
 3344 0304 13       		.uleb128 0x13
 3345 0305 20       		.uleb128 0x20
 3346 0306 0B       		.uleb128 0xb
 3347 0307 01       		.uleb128 0x1
 3348 0308 13       		.uleb128 0x13
 3349 0309 00       		.byte	0
 3350 030a 00       		.byte	0
 3351 030b 32       		.uleb128 0x32
 3352 030c 2E       		.uleb128 0x2e
 3353 030d 01       		.byte	0x1
 3354 030e 03       		.uleb128 0x3
 3355 030f 0E       		.uleb128 0xe
 3356 0310 3A       		.uleb128 0x3a
 3357 0311 0B       		.uleb128 0xb
 3358 0312 3B       		.uleb128 0x3b
 3359 0313 0B       		.uleb128 0xb
 3360 0314 39       		.uleb128 0x39
 3361 0315 0B       		.uleb128 0xb
 3362 0316 27       		.uleb128 0x27
 3363 0317 19       		.uleb128 0x19
ARM GAS  /tmp/cc4u5hVj.s 			page 60


 3364 0318 20       		.uleb128 0x20
 3365 0319 0B       		.uleb128 0xb
 3366 031a 01       		.uleb128 0x1
 3367 031b 13       		.uleb128 0x13
 3368 031c 00       		.byte	0
 3369 031d 00       		.byte	0
 3370 031e 33       		.uleb128 0x33
 3371 031f 2E       		.uleb128 0x2e
 3372 0320 01       		.byte	0x1
 3373 0321 31       		.uleb128 0x31
 3374 0322 13       		.uleb128 0x13
 3375 0323 11       		.uleb128 0x11
 3376 0324 01       		.uleb128 0x1
 3377 0325 12       		.uleb128 0x12
 3378 0326 06       		.uleb128 0x6
 3379 0327 40       		.uleb128 0x40
 3380 0328 18       		.uleb128 0x18
 3381 0329 9742     		.uleb128 0x2117
 3382 032b 19       		.uleb128 0x19
 3383 032c 01       		.uleb128 0x1
 3384 032d 13       		.uleb128 0x13
 3385 032e 00       		.byte	0
 3386 032f 00       		.byte	0
 3387 0330 34       		.uleb128 0x34
 3388 0331 05       		.uleb128 0x5
 3389 0332 00       		.byte	0
 3390 0333 31       		.uleb128 0x31
 3391 0334 13       		.uleb128 0x13
 3392 0335 02       		.uleb128 0x2
 3393 0336 18       		.uleb128 0x18
 3394 0337 00       		.byte	0
 3395 0338 00       		.byte	0
 3396 0339 35       		.uleb128 0x35
 3397 033a 2E       		.uleb128 0x2e
 3398 033b 00       		.byte	0
 3399 033c 3F       		.uleb128 0x3f
 3400 033d 19       		.uleb128 0x19
 3401 033e 3C       		.uleb128 0x3c
 3402 033f 19       		.uleb128 0x19
 3403 0340 6E       		.uleb128 0x6e
 3404 0341 0E       		.uleb128 0xe
 3405 0342 03       		.uleb128 0x3
 3406 0343 0E       		.uleb128 0xe
 3407 0344 3A       		.uleb128 0x3a
 3408 0345 0B       		.uleb128 0xb
 3409 0346 3B       		.uleb128 0x3b
 3410 0347 0B       		.uleb128 0xb
 3411 0348 39       		.uleb128 0x39
 3412 0349 0B       		.uleb128 0xb
 3413 034a 00       		.byte	0
 3414 034b 00       		.byte	0
 3415 034c 00       		.byte	0
 3416              		.section	.debug_loc,"",%progbits
 3417              	.Ldebug_loc0:
 3418              	.LVUS30:
 3419 0000 00       		.uleb128 0
 3420 0001 00       		.uleb128 .LVU342
ARM GAS  /tmp/cc4u5hVj.s 			page 61


 3421 0002 00       		.uleb128 .LVU342
 3422 0003 00       		.uleb128 0
 3423              	.LLST30:
 3424 0004 00000000 		.4byte	.LVL49
 3425 0008 28000000 		.4byte	.LVL51
 3426 000c 0100     		.2byte	0x1
 3427 000e 50       		.byte	0x50
 3428 000f 28000000 		.4byte	.LVL51
 3429 0013 50000000 		.4byte	.LFE18
 3430 0017 0100     		.2byte	0x1
 3431 0019 54       		.byte	0x54
 3432 001a 00000000 		.4byte	0
 3433 001e 00000000 		.4byte	0
 3434              	.LVUS31:
 3435 0022 00       		.uleb128 .LVU349
 3436 0023 00       		.uleb128 0
 3437              	.LLST31:
 3438 0024 38000000 		.4byte	.LVL54
 3439 0028 50000000 		.4byte	.LFE18
 3440 002c 0100     		.2byte	0x1
 3441 002e 55       		.byte	0x55
 3442 002f 00000000 		.4byte	0
 3443 0033 00000000 		.4byte	0
 3444              	.LVUS32:
 3445 0037 02       		.uleb128 .LVU340
 3446 0038 00       		.uleb128 .LVU342
 3447 0039 00       		.uleb128 .LVU342
 3448 003a 00       		.uleb128 .LVU347
 3449              	.LLST32:
 3450 003b 24000000 		.4byte	.LVL50
 3451 003f 28000000 		.4byte	.LVL51
 3452 0043 0300     		.2byte	0x3
 3453 0045 70       		.byte	0x70
 3454 0046 28       		.sleb128 40
 3455 0047 9F       		.byte	0x9f
 3456 0048 28000000 		.4byte	.LVL51
 3457 004c 34000000 		.4byte	.LVL53
 3458 0050 0300     		.2byte	0x3
 3459 0052 74       		.byte	0x74
 3460 0053 28       		.sleb128 40
 3461 0054 9F       		.byte	0x9f
 3462 0055 00000000 		.4byte	0
 3463 0059 00000000 		.4byte	0
 3464              	.LVUS25:
 3465 005d 00       		.uleb128 0
 3466 005e 00       		.uleb128 .LVU286
 3467 005f 00       		.uleb128 .LVU286
 3468 0060 00       		.uleb128 .LVU291
 3469 0061 00       		.uleb128 .LVU291
 3470 0062 00       		.uleb128 0
 3471              	.LLST25:
 3472 0063 00000000 		.4byte	.LVL38
 3473 0067 18000000 		.4byte	.LVL40
 3474 006b 0100     		.2byte	0x1
 3475 006d 50       		.byte	0x50
 3476 006e 18000000 		.4byte	.LVL40
 3477 0072 24000000 		.4byte	.LVL41
ARM GAS  /tmp/cc4u5hVj.s 			page 62


 3478 0076 0100     		.2byte	0x1
 3479 0078 53       		.byte	0x53
 3480 0079 24000000 		.4byte	.LVL41
 3481 007d 64000000 		.4byte	.LFE17
 3482 0081 0400     		.2byte	0x4
 3483 0083 F3       		.byte	0xf3
 3484 0084 01       		.uleb128 0x1
 3485 0085 50       		.byte	0x50
 3486 0086 9F       		.byte	0x9f
 3487 0087 00000000 		.4byte	0
 3488 008b 00000000 		.4byte	0
 3489              	.LVUS26:
 3490 008f 00       		.uleb128 .LVU283
 3491 0090 00       		.uleb128 .LVU309
 3492              	.LLST26:
 3493 0091 0C000000 		.4byte	.LVL39
 3494 0095 54000000 		.4byte	.LVL45
 3495 0099 0100     		.2byte	0x1
 3496 009b 54       		.byte	0x54
 3497 009c 00000000 		.4byte	0
 3498 00a0 00000000 		.4byte	0
 3499              	.LVUS27:
 3500 00a4 02       		.uleb128 .LVU293
 3501 00a5 00       		.uleb128 .LVU303
 3502              	.LLST27:
 3503 00a6 24000000 		.4byte	.LVL41
 3504 00aa 3C000000 		.4byte	.LVL44
 3505 00ae 0100     		.2byte	0x1
 3506 00b0 55       		.byte	0x55
 3507 00b1 00000000 		.4byte	0
 3508 00b5 00000000 		.4byte	0
 3509              	.LVUS28:
 3510 00b9 03       		.uleb128 .LVU294
 3511 00ba 01       		.uleb128 .LVU298
 3512              	.LLST28:
 3513 00bb 24000000 		.4byte	.LVL41
 3514 00bf 2C000000 		.4byte	.LVL42
 3515 00c3 0100     		.2byte	0x1
 3516 00c5 50       		.byte	0x50
 3517 00c6 00000000 		.4byte	0
 3518 00ca 00000000 		.4byte	0
 3519              	.LVUS29:
 3520 00ce 00       		.uleb128 0
 3521 00cf 00       		.uleb128 .LVU318
 3522 00d0 00       		.uleb128 .LVU318
 3523 00d1 00       		.uleb128 0
 3524              	.LLST29:
 3525 00d2 00000000 		.4byte	.LVL47
 3526 00d6 07000000 		.4byte	.LVL48-1
 3527 00da 0100     		.2byte	0x1
 3528 00dc 50       		.byte	0x50
 3529 00dd 07000000 		.4byte	.LVL48-1
 3530 00e1 08000000 		.4byte	.LFE16
 3531 00e5 0400     		.2byte	0x4
 3532 00e7 F3       		.byte	0xf3
 3533 00e8 01       		.uleb128 0x1
 3534 00e9 50       		.byte	0x50
ARM GAS  /tmp/cc4u5hVj.s 			page 63


 3535 00ea 9F       		.byte	0x9f
 3536 00eb 00000000 		.4byte	0
 3537 00ef 00000000 		.4byte	0
 3538              	.LVUS24:
 3539 00f3 00       		.uleb128 0
 3540 00f4 00       		.uleb128 .LVU247
 3541 00f5 00       		.uleb128 .LVU247
 3542 00f6 00       		.uleb128 .LVU248
 3543 00f7 00       		.uleb128 .LVU248
 3544 00f8 00       		.uleb128 .LVU256
 3545              	.LLST24:
 3546 00f9 00000000 		.4byte	.LVL33
 3547 00fd 0C000000 		.4byte	.LVL34
 3548 0101 0100     		.2byte	0x1
 3549 0103 50       		.byte	0x50
 3550 0104 0C000000 		.4byte	.LVL34
 3551 0108 10000000 		.4byte	.LVL35
 3552 010c 0600     		.2byte	0x6
 3553 010e 70       		.byte	0x70
 3554 010f 00       		.sleb128 0
 3555 0110 71       		.byte	0x71
 3556 0111 00       		.sleb128 0
 3557 0112 1C       		.byte	0x1c
 3558 0113 9F       		.byte	0x9f
 3559 0114 10000000 		.4byte	.LVL35
 3560 0118 27000000 		.4byte	.LVL36-1
 3561 011c 0100     		.2byte	0x1
 3562 011e 51       		.byte	0x51
 3563 011f 00000000 		.4byte	0
 3564 0123 00000000 		.4byte	0
 3565              	.LVUS23:
 3566 0127 00       		.uleb128 0
 3567 0128 00       		.uleb128 .LVU236
 3568 0129 00       		.uleb128 .LVU236
 3569 012a 00       		.uleb128 .LVU237
 3570 012b 00       		.uleb128 .LVU237
 3571 012c 00       		.uleb128 0
 3572              	.LLST23:
 3573 012d 00000000 		.4byte	.LVL30
 3574 0131 10000000 		.4byte	.LVL31
 3575 0135 0100     		.2byte	0x1
 3576 0137 50       		.byte	0x50
 3577 0138 10000000 		.4byte	.LVL31
 3578 013c 13000000 		.4byte	.LVL32-1
 3579 0140 0100     		.2byte	0x1
 3580 0142 51       		.byte	0x51
 3581 0143 13000000 		.4byte	.LVL32-1
 3582 0147 1C000000 		.4byte	.LFE13
 3583 014b 0400     		.2byte	0x4
 3584 014d F3       		.byte	0xf3
 3585 014e 01       		.uleb128 0x1
 3586 014f 50       		.byte	0x50
 3587 0150 9F       		.byte	0x9f
 3588 0151 00000000 		.4byte	0
 3589 0155 00000000 		.4byte	0
 3590              	.LVUS22:
 3591 0159 00       		.uleb128 0
ARM GAS  /tmp/cc4u5hVj.s 			page 64


 3592 015a 00       		.uleb128 .LVU212
 3593 015b 00       		.uleb128 .LVU212
 3594 015c 00       		.uleb128 0
 3595              	.LLST22:
 3596 015d 00000000 		.4byte	.LVL27
 3597 0161 13000000 		.4byte	.LVL28-1
 3598 0165 0100     		.2byte	0x1
 3599 0167 50       		.byte	0x50
 3600 0168 13000000 		.4byte	.LVL28-1
 3601 016c 20000000 		.4byte	.LFE11
 3602 0170 0100     		.2byte	0x1
 3603 0172 54       		.byte	0x54
 3604 0173 00000000 		.4byte	0
 3605 0177 00000000 		.4byte	0
 3606              	.LVUS20:
 3607 017b 00       		.uleb128 0
 3608 017c 00       		.uleb128 .LVU188
 3609 017d 00       		.uleb128 .LVU188
 3610 017e 00       		.uleb128 .LVU197
 3611 017f 00       		.uleb128 .LVU197
 3612 0180 00       		.uleb128 0
 3613              	.LLST20:
 3614 0181 00000000 		.4byte	.LVL23
 3615 0185 18000000 		.4byte	.LVL24
 3616 0189 0100     		.2byte	0x1
 3617 018b 50       		.byte	0x50
 3618 018c 18000000 		.4byte	.LVL24
 3619 0190 3F000000 		.4byte	.LVL26-1
 3620 0194 0100     		.2byte	0x1
 3621 0196 53       		.byte	0x53
 3622 0197 3F000000 		.4byte	.LVL26-1
 3623 019b 50000000 		.4byte	.LFE10
 3624 019f 0400     		.2byte	0x4
 3625 01a1 F3       		.byte	0xf3
 3626 01a2 01       		.uleb128 0x1
 3627 01a3 50       		.byte	0x50
 3628 01a4 9F       		.byte	0x9f
 3629 01a5 00000000 		.4byte	0
 3630 01a9 00000000 		.4byte	0
 3631              	.LVUS21:
 3632 01ad 00       		.uleb128 .LVU189
 3633 01ae 00       		.uleb128 0
 3634              	.LLST21:
 3635 01af 1C000000 		.4byte	.LVL25
 3636 01b3 50000000 		.4byte	.LFE10
 3637 01b7 0100     		.2byte	0x1
 3638 01b9 54       		.byte	0x54
 3639 01ba 00000000 		.4byte	0
 3640 01be 00000000 		.4byte	0
 3641              	.LVUS7:
 3642 01c2 00       		.uleb128 0
 3643 01c3 00       		.uleb128 .LVU170
 3644 01c4 00       		.uleb128 .LVU170
 3645 01c5 00       		.uleb128 0
 3646              	.LLST7:
 3647 01c6 00000000 		.4byte	.LVL11
 3648 01ca 93000000 		.4byte	.LVL22-1
ARM GAS  /tmp/cc4u5hVj.s 			page 65


 3649 01ce 0100     		.2byte	0x1
 3650 01d0 50       		.byte	0x50
 3651 01d1 93000000 		.4byte	.LVL22-1
 3652 01d5 A8000000 		.4byte	.LFE9
 3653 01d9 0100     		.2byte	0x1
 3654 01db 54       		.byte	0x54
 3655 01dc 00000000 		.4byte	0
 3656 01e0 00000000 		.4byte	0
 3657              	.LVUS8:
 3658 01e4 00       		.uleb128 0
 3659 01e5 00       		.uleb128 .LVU119
 3660 01e6 00       		.uleb128 .LVU119
 3661 01e7 00       		.uleb128 .LVU123
 3662 01e8 00       		.uleb128 .LVU123
 3663 01e9 00       		.uleb128 .LVU129
 3664 01ea 00       		.uleb128 .LVU129
 3665 01eb 00       		.uleb128 0
 3666              	.LLST8:
 3667 01ec 00000000 		.4byte	.LVL11
 3668 01f0 18000000 		.4byte	.LVL13
 3669 01f4 0100     		.2byte	0x1
 3670 01f6 51       		.byte	0x51
 3671 01f7 18000000 		.4byte	.LVL13
 3672 01fb 28000000 		.4byte	.LVL14
 3673 01ff 0100     		.2byte	0x1
 3674 0201 5C       		.byte	0x5c
 3675 0202 28000000 		.4byte	.LVL14
 3676 0206 3C000000 		.4byte	.LVL16
 3677 020a 0300     		.2byte	0x3
 3678 020c 7C       		.byte	0x7c
 3679 020d 24       		.sleb128 36
 3680 020e 9F       		.byte	0x9f
 3681 020f 3C000000 		.4byte	.LVL16
 3682 0213 A8000000 		.4byte	.LFE9
 3683 0217 0400     		.2byte	0x4
 3684 0219 F3       		.byte	0xf3
 3685 021a 01       		.uleb128 0x1
 3686 021b 51       		.byte	0x51
 3687 021c 9F       		.byte	0x9f
 3688 021d 00000000 		.4byte	0
 3689 0221 00000000 		.4byte	0
 3690              	.LVUS9:
 3691 0225 00       		.uleb128 0
 3692 0226 00       		.uleb128 .LVU142
 3693 0227 00       		.uleb128 .LVU142
 3694 0228 00       		.uleb128 .LVU170
 3695 0229 00       		.uleb128 .LVU170
 3696 022a 00       		.uleb128 0
 3697              	.LLST9:
 3698 022b 00000000 		.4byte	.LVL11
 3699 022f 58000000 		.4byte	.LVL19
 3700 0233 0100     		.2byte	0x1
 3701 0235 52       		.byte	0x52
 3702 0236 58000000 		.4byte	.LVL19
 3703 023a 93000000 		.4byte	.LVL22-1
 3704 023e 0200     		.2byte	0x2
 3705 0240 70       		.byte	0x70
ARM GAS  /tmp/cc4u5hVj.s 			page 66


 3706 0241 08       		.sleb128 8
 3707 0242 93000000 		.4byte	.LVL22-1
 3708 0246 A8000000 		.4byte	.LFE9
 3709 024a 0400     		.2byte	0x4
 3710 024c F3       		.byte	0xf3
 3711 024d 01       		.uleb128 0x1
 3712 024e 52       		.byte	0x52
 3713 024f 9F       		.byte	0x9f
 3714 0250 00000000 		.4byte	0
 3715 0254 00000000 		.4byte	0
 3716              	.LVUS10:
 3717 0258 00       		.uleb128 0
 3718 0259 00       		.uleb128 .LVU127
 3719 025a 00       		.uleb128 .LVU127
 3720 025b 00       		.uleb128 .LVU141
 3721 025c 00       		.uleb128 .LVU141
 3722 025d 00       		.uleb128 .LVU144
 3723 025e 00       		.uleb128 .LVU144
 3724 025f 00       		.uleb128 0
 3725              	.LLST10:
 3726 0260 00000000 		.4byte	.LVL11
 3727 0264 38000000 		.4byte	.LVL15
 3728 0268 0100     		.2byte	0x1
 3729 026a 53       		.byte	0x53
 3730 026b 38000000 		.4byte	.LVL15
 3731 026f 54000000 		.4byte	.LVL18
 3732 0273 0200     		.2byte	0x2
 3733 0275 7E       		.byte	0x7e
 3734 0276 00       		.sleb128 0
 3735 0277 54000000 		.4byte	.LVL18
 3736 027b 64000000 		.4byte	.LVL20
 3737 027f 0300     		.2byte	0x3
 3738 0281 70       		.byte	0x70
 3739 0282 0C       		.sleb128 12
 3740 0283 06       		.byte	0x6
 3741 0284 64000000 		.4byte	.LVL20
 3742 0288 A8000000 		.4byte	.LFE9
 3743 028c 0400     		.2byte	0x4
 3744 028e F3       		.byte	0xf3
 3745 028f 01       		.uleb128 0x1
 3746 0290 53       		.byte	0x53
 3747 0291 9F       		.byte	0x9f
 3748 0292 00000000 		.4byte	0
 3749 0296 00000000 		.4byte	0
 3750              	.LVUS11:
 3751 029a 04       		.uleb128 .LVU168
 3752 029b 00       		.uleb128 .LVU170
 3753 029c 00       		.uleb128 .LVU170
 3754 029d 00       		.uleb128 0
 3755              	.LLST11:
 3756 029e 90000000 		.4byte	.LVL21
 3757 02a2 93000000 		.4byte	.LVL22-1
 3758 02a6 0100     		.2byte	0x1
 3759 02a8 50       		.byte	0x50
 3760 02a9 93000000 		.4byte	.LVL22-1
 3761 02ad A8000000 		.4byte	.LFE9
 3762 02b1 0100     		.2byte	0x1
ARM GAS  /tmp/cc4u5hVj.s 			page 67


 3763 02b3 54       		.byte	0x54
 3764 02b4 00000000 		.4byte	0
 3765 02b8 00000000 		.4byte	0
 3766              	.LVUS12:
 3767 02bc 03       		.uleb128 .LVU111
 3768 02bd 04       		.uleb128 .LVU168
 3769              	.LLST12:
 3770 02be 14000000 		.4byte	.LVL12
 3771 02c2 90000000 		.4byte	.LVL21
 3772 02c6 0100     		.2byte	0x1
 3773 02c8 58       		.byte	0x58
 3774 02c9 00000000 		.4byte	0
 3775 02cd 00000000 		.4byte	0
 3776              	.LVUS13:
 3777 02d1 03       		.uleb128 .LVU111
 3778 02d2 00       		.uleb128 .LVU127
 3779 02d3 00       		.uleb128 .LVU127
 3780 02d4 00       		.uleb128 .LVU141
 3781 02d5 00       		.uleb128 .LVU141
 3782 02d6 00       		.uleb128 .LVU144
 3783 02d7 00       		.uleb128 .LVU144
 3784 02d8 04       		.uleb128 .LVU168
 3785              	.LLST13:
 3786 02d9 14000000 		.4byte	.LVL12
 3787 02dd 38000000 		.4byte	.LVL15
 3788 02e1 0100     		.2byte	0x1
 3789 02e3 53       		.byte	0x53
 3790 02e4 38000000 		.4byte	.LVL15
 3791 02e8 54000000 		.4byte	.LVL18
 3792 02ec 0200     		.2byte	0x2
 3793 02ee 7E       		.byte	0x7e
 3794 02ef 00       		.sleb128 0
 3795 02f0 54000000 		.4byte	.LVL18
 3796 02f4 64000000 		.4byte	.LVL20
 3797 02f8 0300     		.2byte	0x3
 3798 02fa 70       		.byte	0x70
 3799 02fb 0C       		.sleb128 12
 3800 02fc 06       		.byte	0x6
 3801 02fd 64000000 		.4byte	.LVL20
 3802 0301 90000000 		.4byte	.LVL21
 3803 0305 0400     		.2byte	0x4
 3804 0307 F3       		.byte	0xf3
 3805 0308 01       		.uleb128 0x1
 3806 0309 53       		.byte	0x53
 3807 030a 9F       		.byte	0x9f
 3808 030b 00000000 		.4byte	0
 3809 030f 00000000 		.4byte	0
 3810              	.LVUS14:
 3811 0313 03       		.uleb128 .LVU111
 3812 0314 00       		.uleb128 .LVU142
 3813 0315 00       		.uleb128 .LVU142
 3814 0316 04       		.uleb128 .LVU168
 3815              	.LLST14:
 3816 0317 14000000 		.4byte	.LVL12
 3817 031b 58000000 		.4byte	.LVL19
 3818 031f 0100     		.2byte	0x1
 3819 0321 52       		.byte	0x52
ARM GAS  /tmp/cc4u5hVj.s 			page 68


 3820 0322 58000000 		.4byte	.LVL19
 3821 0326 90000000 		.4byte	.LVL21
 3822 032a 0200     		.2byte	0x2
 3823 032c 70       		.byte	0x70
 3824 032d 08       		.sleb128 8
 3825 032e 00000000 		.4byte	0
 3826 0332 00000000 		.4byte	0
 3827              	.LVUS15:
 3828 0336 03       		.uleb128 .LVU111
 3829 0337 00       		.uleb128 .LVU119
 3830 0338 00       		.uleb128 .LVU119
 3831 0339 00       		.uleb128 .LVU123
 3832 033a 00       		.uleb128 .LVU123
 3833 033b 00       		.uleb128 .LVU129
 3834 033c 00       		.uleb128 .LVU129
 3835 033d 04       		.uleb128 .LVU168
 3836              	.LLST15:
 3837 033e 14000000 		.4byte	.LVL12
 3838 0342 18000000 		.4byte	.LVL13
 3839 0346 0100     		.2byte	0x1
 3840 0348 51       		.byte	0x51
 3841 0349 18000000 		.4byte	.LVL13
 3842 034d 28000000 		.4byte	.LVL14
 3843 0351 0100     		.2byte	0x1
 3844 0353 5C       		.byte	0x5c
 3845 0354 28000000 		.4byte	.LVL14
 3846 0358 3C000000 		.4byte	.LVL16
 3847 035c 0300     		.2byte	0x3
 3848 035e 7C       		.byte	0x7c
 3849 035f 24       		.sleb128 36
 3850 0360 9F       		.byte	0x9f
 3851 0361 3C000000 		.4byte	.LVL16
 3852 0365 90000000 		.4byte	.LVL21
 3853 0369 0400     		.2byte	0x4
 3854 036b F3       		.byte	0xf3
 3855 036c 01       		.uleb128 0x1
 3856 036d 51       		.byte	0x51
 3857 036e 9F       		.byte	0x9f
 3858 036f 00000000 		.4byte	0
 3859 0373 00000000 		.4byte	0
 3860              	.LVUS16:
 3861 0377 03       		.uleb128 .LVU111
 3862 0378 04       		.uleb128 .LVU168
 3863              	.LLST16:
 3864 0379 14000000 		.4byte	.LVL12
 3865 037d 90000000 		.4byte	.LVL21
 3866 0381 0100     		.2byte	0x1
 3867 0383 50       		.byte	0x50
 3868 0384 00000000 		.4byte	0
 3869 0388 00000000 		.4byte	0
 3870              	.LVUS17:
 3871 038c 05       		.uleb128 .LVU113
 3872 038d 00       		.uleb128 .LVU170
 3873 038e 00       		.uleb128 .LVU170
 3874 038f 00       		.uleb128 0
 3875              	.LLST17:
 3876 0390 14000000 		.4byte	.LVL12
ARM GAS  /tmp/cc4u5hVj.s 			page 69


 3877 0394 93000000 		.4byte	.LVL22-1
 3878 0398 0100     		.2byte	0x1
 3879 039a 50       		.byte	0x50
 3880 039b 93000000 		.4byte	.LVL22-1
 3881 039f A8000000 		.4byte	.LFE9
 3882 03a3 0100     		.2byte	0x1
 3883 03a5 54       		.byte	0x54
 3884 03a6 00000000 		.4byte	0
 3885 03aa 00000000 		.4byte	0
 3886              	.LVUS18:
 3887 03ae 02       		.uleb128 .LVU133
 3888 03af 00       		.uleb128 .LVU142
 3889 03b0 00       		.uleb128 .LVU142
 3890 03b1 04       		.uleb128 .LVU168
 3891              	.LLST18:
 3892 03b2 44000000 		.4byte	.LVL17
 3893 03b6 58000000 		.4byte	.LVL19
 3894 03ba 0100     		.2byte	0x1
 3895 03bc 52       		.byte	0x52
 3896 03bd 58000000 		.4byte	.LVL19
 3897 03c1 90000000 		.4byte	.LVL21
 3898 03c5 0200     		.2byte	0x2
 3899 03c7 70       		.byte	0x70
 3900 03c8 08       		.sleb128 8
 3901 03c9 00000000 		.4byte	0
 3902 03cd 00000000 		.4byte	0
 3903              	.LVUS19:
 3904 03d1 02       		.uleb128 .LVU133
 3905 03d2 04       		.uleb128 .LVU168
 3906              	.LLST19:
 3907 03d3 44000000 		.4byte	.LVL17
 3908 03d7 90000000 		.4byte	.LVL21
 3909 03db 0100     		.2byte	0x1
 3910 03dd 50       		.byte	0x50
 3911 03de 00000000 		.4byte	0
 3912 03e2 00000000 		.4byte	0
 3913              	.LVUS0:
 3914 03e6 00       		.uleb128 0
 3915 03e7 00       		.uleb128 .LVU16
 3916 03e8 00       		.uleb128 .LVU16
 3917 03e9 00       		.uleb128 0
 3918              	.LLST0:
 3919 03ea 00000000 		.4byte	.LVL0
 3920 03ee 30000000 		.4byte	.LVL1
 3921 03f2 0100     		.2byte	0x1
 3922 03f4 51       		.byte	0x51
 3923 03f5 30000000 		.4byte	.LVL1
 3924 03f9 6C000000 		.4byte	.LFE7
 3925 03fd 0200     		.2byte	0x2
 3926 03ff 70       		.byte	0x70
 3927 0400 08       		.sleb128 8
 3928 0401 00000000 		.4byte	0
 3929 0405 00000000 		.4byte	0
 3930              	.LVUS1:
 3931 0409 00       		.uleb128 0
 3932 040a 00       		.uleb128 .LVU55
 3933 040b 00       		.uleb128 .LVU55
ARM GAS  /tmp/cc4u5hVj.s 			page 70


 3934 040c 00       		.uleb128 .LVU59
 3935 040d 00       		.uleb128 .LVU59
 3936 040e 00       		.uleb128 0
 3937              	.LLST1:
 3938 040f 00000000 		.4byte	.LVL2
 3939 0413 18000000 		.4byte	.LVL3
 3940 0417 0100     		.2byte	0x1
 3941 0419 51       		.byte	0x51
 3942 041a 18000000 		.4byte	.LVL3
 3943 041e 28000000 		.4byte	.LVL4
 3944 0422 0300     		.2byte	0x3
 3945 0424 71       		.byte	0x71
 3946 0425 24       		.sleb128 36
 3947 0426 9F       		.byte	0x9f
 3948 0427 28000000 		.4byte	.LVL4
 3949 042b 90000000 		.4byte	.LFE8
 3950 042f 0400     		.2byte	0x4
 3951 0431 F3       		.byte	0xf3
 3952 0432 01       		.uleb128 0x1
 3953 0433 51       		.byte	0x51
 3954 0434 9F       		.byte	0x9f
 3955 0435 00000000 		.4byte	0
 3956 0439 00000000 		.4byte	0
 3957              	.LVUS2:
 3958 043d 00       		.uleb128 0
 3959 043e 00       		.uleb128 .LVU74
 3960 043f 00       		.uleb128 .LVU74
 3961 0440 00       		.uleb128 0
 3962              	.LLST2:
 3963 0441 00000000 		.4byte	.LVL2
 3964 0445 4C000000 		.4byte	.LVL8
 3965 0449 0100     		.2byte	0x1
 3966 044b 52       		.byte	0x52
 3967 044c 4C000000 		.4byte	.LVL8
 3968 0450 90000000 		.4byte	.LFE8
 3969 0454 0200     		.2byte	0x2
 3970 0456 70       		.byte	0x70
 3971 0457 08       		.sleb128 8
 3972 0458 00000000 		.4byte	0
 3973 045c 00000000 		.4byte	0
 3974              	.LVUS3:
 3975 0460 00       		.uleb128 0
 3976 0461 00       		.uleb128 .LVU60
 3977 0462 00       		.uleb128 .LVU60
 3978 0463 00       		.uleb128 .LVU73
 3979 0464 00       		.uleb128 .LVU73
 3980 0465 00       		.uleb128 .LVU76
 3981 0466 00       		.uleb128 .LVU76
 3982 0467 00       		.uleb128 0
 3983              	.LLST3:
 3984 0468 00000000 		.4byte	.LVL2
 3985 046c 2C000000 		.4byte	.LVL5
 3986 0470 0100     		.2byte	0x1
 3987 0472 53       		.byte	0x53
 3988 0473 2C000000 		.4byte	.LVL5
 3989 0477 48000000 		.4byte	.LVL7
 3990 047b 0200     		.2byte	0x2
ARM GAS  /tmp/cc4u5hVj.s 			page 71


 3991 047d 74       		.byte	0x74
 3992 047e 00       		.sleb128 0
 3993 047f 48000000 		.4byte	.LVL7
 3994 0483 58000000 		.4byte	.LVL9
 3995 0487 0300     		.2byte	0x3
 3996 0489 70       		.byte	0x70
 3997 048a 0C       		.sleb128 12
 3998 048b 06       		.byte	0x6
 3999 048c 58000000 		.4byte	.LVL9
 4000 0490 90000000 		.4byte	.LFE8
 4001 0494 0400     		.2byte	0x4
 4002 0496 F3       		.byte	0xf3
 4003 0497 01       		.uleb128 0x1
 4004 0498 53       		.byte	0x53
 4005 0499 9F       		.byte	0x9f
 4006 049a 00000000 		.4byte	0
 4007 049e 00000000 		.4byte	0
 4008              	.LVUS4:
 4009 04a2 02       		.uleb128 .LVU44
 4010 04a3 00       		.uleb128 0
 4011              	.LLST4:
 4012 04a4 00000000 		.4byte	.LVL2
 4013 04a8 90000000 		.4byte	.LFE8
 4014 04ac 0100     		.2byte	0x1
 4015 04ae 50       		.byte	0x50
 4016 04af 00000000 		.4byte	0
 4017 04b3 00000000 		.4byte	0
 4018              	.LVUS5:
 4019 04b7 02       		.uleb128 .LVU65
 4020 04b8 00       		.uleb128 .LVU74
 4021 04b9 00       		.uleb128 .LVU74
 4022 04ba 04       		.uleb128 .LVU100
 4023              	.LLST5:
 4024 04bb 38000000 		.4byte	.LVL6
 4025 04bf 4C000000 		.4byte	.LVL8
 4026 04c3 0100     		.2byte	0x1
 4027 04c5 52       		.byte	0x52
 4028 04c6 4C000000 		.4byte	.LVL8
 4029 04ca 84000000 		.4byte	.LVL10
 4030 04ce 0200     		.2byte	0x2
 4031 04d0 70       		.byte	0x70
 4032 04d1 08       		.sleb128 8
 4033 04d2 00000000 		.4byte	0
 4034 04d6 00000000 		.4byte	0
 4035              	.LVUS6:
 4036 04da 02       		.uleb128 .LVU65
 4037 04db 04       		.uleb128 .LVU100
 4038              	.LLST6:
 4039 04dc 38000000 		.4byte	.LVL6
 4040 04e0 84000000 		.4byte	.LVL10
 4041 04e4 0100     		.2byte	0x1
 4042 04e6 50       		.byte	0x50
 4043 04e7 00000000 		.4byte	0
 4044 04eb 00000000 		.4byte	0
 4045              		.section	.debug_aranges,"",%progbits
 4046 0000 74000000 		.4byte	0x74
 4047 0004 0200     		.2byte	0x2
ARM GAS  /tmp/cc4u5hVj.s 			page 72


 4048 0006 00000000 		.4byte	.Ldebug_info0
 4049 000a 04       		.byte	0x4
 4050 000b 00       		.byte	0
 4051 000c 0000     		.2byte	0
 4052 000e 0000     		.2byte	0
 4053 0010 00000000 		.4byte	.LFB7
 4054 0014 6C000000 		.4byte	.LFE7-.LFB7
 4055 0018 00000000 		.4byte	.LFB8
 4056 001c 90000000 		.4byte	.LFE8-.LFB8
 4057 0020 00000000 		.4byte	.LFB9
 4058 0024 A8000000 		.4byte	.LFE9-.LFB9
 4059 0028 00000000 		.4byte	.LFB10
 4060 002c 50000000 		.4byte	.LFE10-.LFB10
 4061 0030 00000000 		.4byte	.LFB11
 4062 0034 20000000 		.4byte	.LFE11-.LFB11
 4063 0038 00000000 		.4byte	.LFB12
 4064 003c 18000000 		.4byte	.LFE12-.LFB12
 4065 0040 00000000 		.4byte	.LFB13
 4066 0044 1C000000 		.4byte	.LFE13-.LFB13
 4067 0048 00000000 		.4byte	.LFB14
 4068 004c 34000000 		.4byte	.LFE14-.LFB14
 4069 0050 00000000 		.4byte	.LFB15
 4070 0054 3C000000 		.4byte	.LFE15-.LFB15
 4071 0058 00000000 		.4byte	.LFB17
 4072 005c 64000000 		.4byte	.LFE17-.LFB17
 4073 0060 00000000 		.4byte	.LFB16
 4074 0064 08000000 		.4byte	.LFE16-.LFB16
 4075 0068 00000000 		.4byte	.LFB18
 4076 006c 50000000 		.4byte	.LFE18-.LFB18
 4077 0070 00000000 		.4byte	0
 4078 0074 00000000 		.4byte	0
 4079              		.section	.debug_ranges,"",%progbits
 4080              	.Ldebug_ranges0:
 4081 0000 04000000 		.4byte	.LBB12
 4082 0004 14000000 		.4byte	.LBE12
 4083 0008 28000000 		.4byte	.LBB16
 4084 000c 2C000000 		.4byte	.LBE16
 4085 0010 38000000 		.4byte	.LBB17
 4086 0014 84000000 		.4byte	.LBE17
 4087 0018 00000000 		.4byte	0
 4088 001c 00000000 		.4byte	0
 4089 0020 14000000 		.4byte	.LBB20
 4090 0024 24000000 		.4byte	.LBE20
 4091 0028 34000000 		.4byte	.LBB24
 4092 002c 38000000 		.4byte	.LBE24
 4093 0030 44000000 		.4byte	.LBB25
 4094 0034 90000000 		.4byte	.LBE25
 4095 0038 00000000 		.4byte	0
 4096 003c 00000000 		.4byte	0
 4097 0040 1C000000 		.4byte	.LBB28
 4098 0044 20000000 		.4byte	.LBE28
 4099 0048 24000000 		.4byte	.LBB32
 4100 004c 24000000 		.4byte	.LBE32
 4101 0050 28000000 		.4byte	.LBB33
 4102 0054 30000000 		.4byte	.LBE33
 4103 0058 00000000 		.4byte	0
 4104 005c 00000000 		.4byte	0
ARM GAS  /tmp/cc4u5hVj.s 			page 73


 4105 0060 00000000 		.4byte	.LFB7
 4106 0064 6C000000 		.4byte	.LFE7
 4107 0068 00000000 		.4byte	.LFB8
 4108 006c 90000000 		.4byte	.LFE8
 4109 0070 00000000 		.4byte	.LFB9
 4110 0074 A8000000 		.4byte	.LFE9
 4111 0078 00000000 		.4byte	.LFB10
 4112 007c 50000000 		.4byte	.LFE10
 4113 0080 00000000 		.4byte	.LFB11
 4114 0084 20000000 		.4byte	.LFE11
 4115 0088 00000000 		.4byte	.LFB12
 4116 008c 18000000 		.4byte	.LFE12
 4117 0090 00000000 		.4byte	.LFB13
 4118 0094 1C000000 		.4byte	.LFE13
 4119 0098 00000000 		.4byte	.LFB14
 4120 009c 34000000 		.4byte	.LFE14
 4121 00a0 00000000 		.4byte	.LFB15
 4122 00a4 3C000000 		.4byte	.LFE15
 4123 00a8 00000000 		.4byte	.LFB17
 4124 00ac 64000000 		.4byte	.LFE17
 4125 00b0 00000000 		.4byte	.LFB16
 4126 00b4 08000000 		.4byte	.LFE16
 4127 00b8 00000000 		.4byte	.LFB18
 4128 00bc 50000000 		.4byte	.LFE18
 4129 00c0 00000000 		.4byte	0
 4130 00c4 00000000 		.4byte	0
 4131              		.section	.debug_line,"",%progbits
 4132              	.Ldebug_line0:
 4133 0000 80060000 		.section	.debug_str,"MS",%progbits,1
 4133      03002801 
 4133      00000201 
 4133      FB0E0D00 
 4133      01010101 
 4134              	.LASF74:
 4135 0000 7466756E 		.ascii	"tfunc_t\000"
 4135      635F7400 
 4136              	.LASF85:
 4137 0008 63665F6F 		.ascii	"cf_off_older\000"
 4137      66665F6F 
 4137      6C646572 
 4137      00
 4138              	.LASF37:
 4139 0015 705F6D73 		.ascii	"p_msg\000"
 4139      6700
 4140              	.LASF120:
 4141 001b 474E5520 		.ascii	"GNU C17 9.2.1 20191025 (release) [ARM/arm-9-branch "
 4141      43313720 
 4141      392E322E 
 4141      31203230 
 4141      31393130 
 4142 004e 72657669 		.ascii	"revision 277599] -mcpu=arm1176jz-s -mno-thumb-inter"
 4142      73696F6E 
 4142      20323737 
 4142      3539395D 
 4142      202D6D63 
 4143 0081 776F726B 		.ascii	"work -mfloat-abi=soft -marm -march=armv6kz -ggdb -O"
 4143      202D6D66 
ARM GAS  /tmp/cc4u5hVj.s 			page 74


 4143      6C6F6174 
 4143      2D616269 
 4143      3D736F66 
 4144 00b4 32202D66 		.ascii	"2 -fomit-frame-pointer -ffunction-sections -fdata-s"
 4144      6F6D6974 
 4144      2D667261 
 4144      6D652D70 
 4144      6F696E74 
 4145 00e7 65637469 		.ascii	"ections\000"
 4145      6F6E7300 
 4146              	.LASF110:
 4147 00ef 7072696F 		.ascii	"prio\000"
 4147      00
 4148              	.LASF69:
 4149 00f4 7264796D 		.ascii	"rdymsg\000"
 4149      736700
 4150              	.LASF63:
 4151 00fb 76746C69 		.ascii	"vtlist\000"
 4151      737400
 4152              	.LASF96:
 4153 0102 63685468 		.ascii	"chThdExitS\000"
 4153      64457869 
 4153      745300
 4154              	.LASF13:
 4155 010d 6C6F6E67 		.ascii	"long long unsigned int\000"
 4155      206C6F6E 
 4155      6720756E 
 4155      7369676E 
 4155      65642069 
 4156              	.LASF81:
 4157 0124 63685F74 		.ascii	"ch_threadsize\000"
 4157      68726561 
 4157      6473697A 
 4157      6500
 4158              	.LASF70:
 4159 0132 65786974 		.ascii	"exitcode\000"
 4159      636F6465 
 4159      00
 4160              	.LASF25:
 4161 013b 705F7072 		.ascii	"p_prio\000"
 4161      696F00
 4162              	.LASF88:
 4163 0142 63665F6F 		.ascii	"cf_off_state\000"
 4163      66665F73 
 4163      74617465 
 4163      00
 4164              	.LASF6:
 4165 014f 6C6F6E67 		.ascii	"long long int\000"
 4165      206C6F6E 
 4165      6720696E 
 4165      7400
 4166              	.LASF1:
 4167 015d 7369676E 		.ascii	"signed char\000"
 4167      65642063 
 4167      68617200 
 4168              	.LASF97:
 4169 0169 63685468 		.ascii	"chThdExit\000"
ARM GAS  /tmp/cc4u5hVj.s 			page 75


 4169      64457869 
 4169      7400
 4170              	.LASF87:
 4171 0173 63665F6F 		.ascii	"cf_off_stklimit\000"
 4171      66665F73 
 4171      746B6C69 
 4171      6D697400 
 4172              	.LASF89:
 4173 0183 63665F6F 		.ascii	"cf_off_flags\000"
 4173      66665F66 
 4173      6C616773 
 4173      00
 4174              	.LASF66:
 4175 0190 6D5F7175 		.ascii	"m_queue\000"
 4175      65756500 
 4176              	.LASF17:
 4177 0198 74736C69 		.ascii	"tslices_t\000"
 4177      6365735F 
 4177      7400
 4178              	.LASF111:
 4179 01a2 63685468 		.ascii	"chThdCreateI\000"
 4179      64437265 
 4179      61746549 
 4179      00
 4180              	.LASF5:
 4181 01af 6C6F6E67 		.ascii	"long int\000"
 4181      20696E74 
 4181      00
 4182              	.LASF15:
 4183 01b8 74737461 		.ascii	"tstate_t\000"
 4183      74655F74 
 4183      00
 4184              	.LASF9:
 4185 01c1 75696E74 		.ascii	"uint16_t\000"
 4185      31365F74 
 4185      00
 4186              	.LASF93:
 4187 01ca 63686465 		.ascii	"chdebug_t\000"
 4187      6275675F 
 4187      7400
 4188              	.LASF27:
 4189 01d4 705F6E65 		.ascii	"p_newer\000"
 4189      77657200 
 4190              	.LASF95:
 4191 01dc 5F69646C 		.ascii	"_idle_thread_wa\000"
 4191      655F7468 
 4191      72656164 
 4191      5F776100 
 4192              	.LASF123:
 4193 01ec 6C697374 		.ascii	"list_remove\000"
 4193      5F72656D 
 4193      6F766500 
 4194              	.LASF119:
 4195 01f8 63685363 		.ascii	"chSchRescheduleS\000"
 4195      68526573 
 4195      63686564 
 4195      756C6553 
ARM GAS  /tmp/cc4u5hVj.s 			page 76


 4195      00
 4196              	.LASF59:
 4197 0209 725F6E65 		.ascii	"r_newer\000"
 4197      77657200 
 4198              	.LASF44:
 4199 0211 72656761 		.ascii	"regarm_t\000"
 4199      726D5F74 
 4199      00
 4200              	.LASF50:
 4201 021a 76745F70 		.ascii	"vt_prev\000"
 4201      72657600 
 4202              	.LASF3:
 4203 0222 73697A65 		.ascii	"size_t\000"
 4203      5F7400
 4204              	.LASF105:
 4205 0229 63685468 		.ascii	"chThdSetPriority\000"
 4205      64536574 
 4205      5072696F 
 4205      72697479 
 4205      00
 4206              	.LASF0:
 4207 023a 756E7369 		.ascii	"unsigned int\000"
 4207      676E6564 
 4207      20696E74 
 4207      00
 4208              	.LASF112:
 4209 0247 5F746872 		.ascii	"_thread_init\000"
 4209      6561645F 
 4209      696E6974 
 4209      00
 4210              	.LASF49:
 4211 0254 76745F6E 		.ascii	"vt_next\000"
 4211      65787400 
 4212              	.LASF12:
 4213 025c 6C6F6E67 		.ascii	"long unsigned int\000"
 4213      20756E73 
 4213      69676E65 
 4213      6420696E 
 4213      7400
 4214              	.LASF94:
 4215 026e 63685F64 		.ascii	"ch_debug\000"
 4215      65627567 
 4215      00
 4216              	.LASF75:
 4217 0277 63685F69 		.ascii	"ch_identifier\000"
 4217      64656E74 
 4217      69666965 
 4217      7200
 4218              	.LASF46:
 4219 0285 636F6E74 		.ascii	"context\000"
 4219      65787400 
 4220              	.LASF109:
 4221 028d 73697A65 		.ascii	"size\000"
 4221      00
 4222              	.LASF10:
 4223 0292 73686F72 		.ascii	"short unsigned int\000"
 4223      7420756E 
ARM GAS  /tmp/cc4u5hVj.s 			page 77


 4223      7369676E 
 4223      65642069 
 4223      6E7400
 4224              	.LASF118:
 4225 02a5 63685363 		.ascii	"chSchWakeupS\000"
 4225      6857616B 
 4225      65757053 
 4225      00
 4226              	.LASF19:
 4227 02b2 6D73675F 		.ascii	"msg_t\000"
 4227      7400
 4228              	.LASF106:
 4229 02b8 6E657770 		.ascii	"newprio\000"
 4229      72696F00 
 4230              	.LASF14:
 4231 02c0 746D6F64 		.ascii	"tmode_t\000"
 4231      655F7400 
 4232              	.LASF102:
 4233 02c8 63685468 		.ascii	"chThdTerminate\000"
 4233      64546572 
 4233      6D696E61 
 4233      746500
 4234              	.LASF42:
 4235 02d7 54687265 		.ascii	"ThreadsList\000"
 4235      6164734C 
 4235      69737400 
 4236              	.LASF20:
 4237 02e3 6576656E 		.ascii	"eventmask_t\000"
 4237      746D6173 
 4237      6B5F7400 
 4238              	.LASF65:
 4239 02ef 4D757465 		.ascii	"Mutex\000"
 4239      7800
 4240              	.LASF107:
 4241 02f5 6F6C6470 		.ascii	"oldprio\000"
 4241      72696F00 
 4242              	.LASF43:
 4243 02fd 73746B61 		.ascii	"stkalign_t\000"
 4243      6C69676E 
 4243      5F7400
 4244              	.LASF108:
 4245 0308 63685468 		.ascii	"chThdCreateStatic\000"
 4245      64437265 
 4245      61746553 
 4245      74617469 
 4245      6300
 4246              	.LASF76:
 4247 031a 63685F7A 		.ascii	"ch_zero\000"
 4247      65726F00 
 4248              	.LASF90:
 4249 0322 63665F6F 		.ascii	"cf_off_refs\000"
 4249      66665F72 
 4249      65667300 
 4250              	.LASF51:
 4251 032e 76745F74 		.ascii	"vt_time\000"
 4251      696D6500 
 4252              	.LASF52:
ARM GAS  /tmp/cc4u5hVj.s 			page 78


 4253 0336 76745F66 		.ascii	"vt_func\000"
 4253      756E6300 
 4254              	.LASF80:
 4255 033e 63685F74 		.ascii	"ch_timesize\000"
 4255      696D6573 
 4255      697A6500 
 4256              	.LASF104:
 4257 034a 63685468 		.ascii	"chThdResume\000"
 4257      64526573 
 4257      756D6500 
 4258              	.LASF116:
 4259 0356 63685363 		.ascii	"chSchDoRescheduleBehind\000"
 4259      68446F52 
 4259      65736368 
 4259      6564756C 
 4259      65426568 
 4260              	.LASF86:
 4261 036e 63665F6F 		.ascii	"cf_off_name\000"
 4261      66665F6E 
 4261      616D6500 
 4262              	.LASF28:
 4263 037a 705F6F6C 		.ascii	"p_older\000"
 4263      64657200 
 4264              	.LASF58:
 4265 0382 725F6374 		.ascii	"r_ctx\000"
 4265      7800
 4266              	.LASF41:
 4267 0388 54687265 		.ascii	"ThreadsQueue\000"
 4267      61647351 
 4267      75657565 
 4267      00
 4268              	.LASF77:
 4269 0395 63685F73 		.ascii	"ch_size\000"
 4269      697A6500 
 4270              	.LASF100:
 4271 039d 74696D65 		.ascii	"time\000"
 4271      00
 4272              	.LASF124:
 4273 03a2 6C697374 		.ascii	"list_insert\000"
 4273      5F696E73 
 4273      65727400 
 4274              	.LASF61:
 4275 03ae 725F6375 		.ascii	"r_current\000"
 4275      7272656E 
 4275      7400
 4276              	.LASF60:
 4277 03b8 725F6F6C 		.ascii	"r_older\000"
 4277      64657200 
 4278              	.LASF99:
 4279 03c0 63685468 		.ascii	"chThdSleepUntil\000"
 4279      64536C65 
 4279      6570556E 
 4279      74696C00 
 4280              	.LASF16:
 4281 03d0 74726566 		.ascii	"trefs_t\000"
 4281      735F7400 
 4282              	.LASF79:
ARM GAS  /tmp/cc4u5hVj.s 			page 79


 4283 03d8 63685F70 		.ascii	"ch_ptrsize\000"
 4283      74727369 
 4283      7A6500
 4284              	.LASF24:
 4285 03e3 705F7072 		.ascii	"p_prev\000"
 4285      657600
 4286              	.LASF121:
 4287 03ea 2E2E2F6F 		.ascii	"../os/kernel/src/chthreads.c\000"
 4287      732F6B65 
 4287      726E656C 
 4287      2F737263 
 4287      2F636874 
 4288              	.LASF18:
 4289 0407 74707269 		.ascii	"tprio_t\000"
 4289      6F5F7400 
 4290              	.LASF4:
 4291 040f 696E7433 		.ascii	"int32_t\000"
 4291      325F7400 
 4292              	.LASF8:
 4293 0417 756E7369 		.ascii	"unsigned char\000"
 4293      676E6564 
 4293      20636861 
 4293      7200
 4294              	.LASF39:
 4295 0425 705F6D74 		.ascii	"p_mtxlist\000"
 4295      786C6973 
 4295      7400
 4296              	.LASF2:
 4297 042f 73686F72 		.ascii	"short int\000"
 4297      7420696E 
 4297      7400
 4298              	.LASF30:
 4299 0439 705F7374 		.ascii	"p_state\000"
 4299      61746500 
 4300              	.LASF33:
 4301 0441 705F7072 		.ascii	"p_preempt\000"
 4301      65656D70 
 4301      7400
 4302              	.LASF92:
 4303 044b 63665F6F 		.ascii	"cf_off_time\000"
 4303      66665F74 
 4303      696D6500 
 4304              	.LASF57:
 4305 0457 725F7072 		.ascii	"r_prio\000"
 4305      696F00
 4306              	.LASF72:
 4307 045e 65776D61 		.ascii	"ewmask\000"
 4307      736B00
 4308              	.LASF23:
 4309 0465 705F6E65 		.ascii	"p_next\000"
 4309      787400
 4310              	.LASF91:
 4311 046c 63665F6F 		.ascii	"cf_off_preempt\000"
 4311      66665F70 
 4311      7265656D 
 4311      707400
 4312              	.LASF31:
ARM GAS  /tmp/cc4u5hVj.s 			page 80


 4313 047b 705F666C 		.ascii	"p_flags\000"
 4313      61677300 
 4314              	.LASF114:
 4315 0483 63685468 		.ascii	"chThdRelease\000"
 4315      6452656C 
 4315      65617365 
 4315      00
 4316              	.LASF22:
 4317 0490 54687265 		.ascii	"Thread\000"
 4317      616400
 4318              	.LASF84:
 4319 0497 63665F6F 		.ascii	"cf_off_newer\000"
 4319      66665F6E 
 4319      65776572 
 4319      00
 4320              	.LASF113:
 4321 04a4 63685363 		.ascii	"chSchGoSleepS\000"
 4321      68476F53 
 4321      6C656570 
 4321      5300
 4322              	.LASF38:
 4323 04b2 705F6570 		.ascii	"p_epending\000"
 4323      656E6469 
 4323      6E6700
 4324              	.LASF101:
 4325 04bd 63685468 		.ascii	"chThdSleep\000"
 4325      64536C65 
 4325      657000
 4326              	.LASF11:
 4327 04c8 75696E74 		.ascii	"uint32_t\000"
 4327      33325F74 
 4327      00
 4328              	.LASF82:
 4329 04d1 63665F6F 		.ascii	"cf_off_prio\000"
 4329      66665F70 
 4329      72696F00 
 4330              	.LASF56:
 4331 04dd 725F7175 		.ascii	"r_queue\000"
 4331      65756500 
 4332              	.LASF48:
 4333 04e5 56697274 		.ascii	"VirtualTimer\000"
 4333      75616C54 
 4333      696D6572 
 4333      00
 4334              	.LASF122:
 4335 04f2 2F686F6D 		.ascii	"/home/taskman/arduino/embedded-wind-turbine/Data_Co"
 4335      652F7461 
 4335      736B6D61 
 4335      6E2F6172 
 4335      6475696E 
 4336 0525 6C6C6563 		.ascii	"llector/raspberry/compiler/ChibiOS-RPi/led\000"
 4336      746F722F 
 4336      72617370 
 4336      62657272 
 4336      792F636F 
 4337              	.LASF73:
 4338 0550 63686172 		.ascii	"char\000"
ARM GAS  /tmp/cc4u5hVj.s 			page 81


 4338      00
 4339              	.LASF115:
 4340 0555 63685363 		.ascii	"chSchReadyI\000"
 4340      68526561 
 4340      64794900 
 4341              	.LASF68:
 4342 0561 6D5F6E65 		.ascii	"m_next\000"
 4342      787400
 4343              	.LASF21:
 4344 0568 73797374 		.ascii	"systime_t\000"
 4344      696D655F 
 4344      7400
 4345              	.LASF40:
 4346 0572 705F7265 		.ascii	"p_realprio\000"
 4346      616C7072 
 4346      696F00
 4347              	.LASF47:
 4348 057d 76746675 		.ascii	"vtfunc_t\000"
 4348      6E635F74 
 4348      00
 4349              	.LASF34:
 4350 0586 705F7469 		.ascii	"p_time\000"
 4350      6D6500
 4351              	.LASF45:
 4352 058d 696E7463 		.ascii	"intctx\000"
 4352      747800
 4353              	.LASF36:
 4354 0594 705F6D73 		.ascii	"p_msgqueue\000"
 4354      67717565 
 4354      756500
 4355              	.LASF103:
 4356 059f 63685468 		.ascii	"chThdWait\000"
 4356      64576169 
 4356      7400
 4357              	.LASF53:
 4358 05a9 76745F70 		.ascii	"vt_par\000"
 4358      617200
 4359              	.LASF83:
 4360 05b0 63665F6F 		.ascii	"cf_off_ctx\000"
 4360      66665F63 
 4360      747800
 4361              	.LASF32:
 4362 05bb 705F7265 		.ascii	"p_refs\000"
 4362      667300
 4363              	.LASF62:
 4364 05c2 52656164 		.ascii	"ReadyList\000"
 4364      794C6973 
 4364      7400
 4365              	.LASF64:
 4366 05cc 726C6973 		.ascii	"rlist\000"
 4366      7400
 4367              	.LASF7:
 4368 05d2 75696E74 		.ascii	"uint8_t\000"
 4368      385F7400 
 4369              	.LASF98:
 4370 05da 63685468 		.ascii	"chThdYield\000"
 4370      64596965 
ARM GAS  /tmp/cc4u5hVj.s 			page 82


 4370      6C6400
 4371              	.LASF71:
 4372 05e5 77746F62 		.ascii	"wtobjp\000"
 4372      6A7000
 4373              	.LASF29:
 4374 05ec 705F6E61 		.ascii	"p_name\000"
 4374      6D6500
 4375              	.LASF54:
 4376 05f3 76745F73 		.ascii	"vt_systime\000"
 4376      79737469 
 4376      6D6500
 4377              	.LASF117:
 4378 05fe 63685363 		.ascii	"chSchGoSleepTimeoutS\000"
 4378      68476F53 
 4378      6C656570 
 4378      54696D65 
 4378      6F757453 
 4379              	.LASF78:
 4380 0613 63685F76 		.ascii	"ch_version\000"
 4380      65727369 
 4380      6F6E00
 4381              	.LASF55:
 4382 061e 56544C69 		.ascii	"VTList\000"
 4382      737400
 4383              	.LASF67:
 4384 0625 6D5F6F77 		.ascii	"m_owner\000"
 4384      6E657200 
 4385              	.LASF26:
 4386 062d 705F6374 		.ascii	"p_ctx\000"
 4386      7800
 4387              	.LASF35:
 4388 0633 705F7761 		.ascii	"p_waiting\000"
 4388      6974696E 
 4388      6700
 4389              		.ident	"GCC: (15:9-2019-q4-0ubuntu1) 9.2.1 20191025 (release) [ARM/arm-9-branch revision 277599]"
ARM GAS  /tmp/cc4u5hVj.s 			page 83


DEFINED SYMBOLS
                            *ABS*:0000000000000000 chthreads.c
     /tmp/cc4u5hVj.s:16     .text._thread_init:0000000000000000 $a
     /tmp/cc4u5hVj.s:23     .text._thread_init:0000000000000000 _thread_init
     /tmp/cc4u5hVj.s:106    .text._thread_init:0000000000000068 $d
     /tmp/cc4u5hVj.s:111    .text.chThdCreateI:0000000000000000 $a
     /tmp/cc4u5hVj.s:117    .text.chThdCreateI:0000000000000000 chThdCreateI
     /tmp/cc4u5hVj.s:247    .text.chThdCreateI:0000000000000088 $d
     /tmp/cc4u5hVj.s:253    .text.chThdCreateStatic:0000000000000000 $a
     /tmp/cc4u5hVj.s:259    .text.chThdCreateStatic:0000000000000000 chThdCreateStatic
     /tmp/cc4u5hVj.s:427    .text.chThdCreateStatic:00000000000000a0 $d
     /tmp/cc4u5hVj.s:433    .text.chThdSetPriority:0000000000000000 $a
     /tmp/cc4u5hVj.s:439    .text.chThdSetPriority:0000000000000000 chThdSetPriority
     /tmp/cc4u5hVj.s:510    .text.chThdSetPriority:000000000000004c $d
     /tmp/cc4u5hVj.s:515    .text.chThdResume:0000000000000000 $a
     /tmp/cc4u5hVj.s:521    .text.chThdResume:0000000000000000 chThdResume
     /tmp/cc4u5hVj.s:568    .text.chThdTerminate:0000000000000000 $a
     /tmp/cc4u5hVj.s:574    .text.chThdTerminate:0000000000000000 chThdTerminate
     /tmp/cc4u5hVj.s:611    .text.chThdSleep:0000000000000000 $a
     /tmp/cc4u5hVj.s:617    .text.chThdSleep:0000000000000000 chThdSleep
     /tmp/cc4u5hVj.s:663    .text.chThdSleepUntil:0000000000000000 $a
     /tmp/cc4u5hVj.s:669    .text.chThdSleepUntil:0000000000000000 chThdSleepUntil
     /tmp/cc4u5hVj.s:731    .text.chThdSleepUntil:0000000000000030 $d
     /tmp/cc4u5hVj.s:736    .text.chThdYield:0000000000000000 $a
     /tmp/cc4u5hVj.s:742    .text.chThdYield:0000000000000000 chThdYield
     /tmp/cc4u5hVj.s:802    .text.chThdYield:0000000000000038 $d
     /tmp/cc4u5hVj.s:807    .text.chThdExitS:0000000000000000 $a
     /tmp/cc4u5hVj.s:813    .text.chThdExitS:0000000000000000 chThdExitS
     /tmp/cc4u5hVj.s:907    .text.chThdExitS:0000000000000060 $d
     /tmp/cc4u5hVj.s:912    .text.chThdExit:0000000000000000 $a
     /tmp/cc4u5hVj.s:918    .text.chThdExit:0000000000000000 chThdExit
     /tmp/cc4u5hVj.s:943    .text.chThdWait:0000000000000000 $a
     /tmp/cc4u5hVj.s:949    .text.chThdWait:0000000000000000 chThdWait
     /tmp/cc4u5hVj.s:1048   .text.chThdWait:000000000000004c $d

UNDEFINED SYMBOLS
rlist
_port_thread_start
chSchWakeupS
chSchRescheduleS
chSchGoSleepTimeoutS
vtlist
chSchDoRescheduleBehind
chSchReadyI
chSchGoSleepS
chThdRelease
