ARM GAS  /tmp/cc4u5hVj.s 			page 1


   1              		.cpu arm1176jz-s
   2              		.eabi_attribute 20, 1
   3              		.eabi_attribute 21, 1
   4              		.eabi_attribute 23, 3
   5              		.eabi_attribute 24, 1
   6              		.eabi_attribute 25, 1
   7              		.eabi_attribute 26, 1
   8              		.eabi_attribute 30, 2
   9              		.eabi_attribute 34, 1
  10              		.eabi_attribute 18, 4
  11              		.file	"chthreads.c"
  12              		.text
  13              	.Ltext0:
  14              		.cfi_sections	.debug_frame
  15              		.section	.text._thread_init,"ax",%progbits
  16              		.align	2
  17              		.global	_thread_init
  18              		.arch armv6kz
  19              		.syntax unified
  20              		.arm
  21              		.fpu softvfp
  22              		.type	_thread_init, %function
  23              	_thread_init:
  24              	.LVL0:
  25              	.LFB7:
  26              		.file 1 "../os/kernel/src/chthreads.c"
  27              		.loc 1 69 48 view -0
  28              		.cfi_startproc
  29              		@ args = 0, pretend = 0, frame = 0
  30              		@ frame_needed = 0, uses_anonymous_args = 0
  31              		.loc 1 71 3 view .LVU1
  32              		.loc 1 69 48 is_stmt 0 view .LVU2
  33 0000 30402DE9 		push	{r4, r5, lr}
  34              		.cfi_def_cfa_offset 12
  35              		.cfi_offset 4, -12
  36              		.cfi_offset 5, -8
  37              		.cfi_offset 14, -4
  38              		.loc 1 75 17 view .LVU3
  39 0004 14E0A0E3 		mov	lr, #20
  40              		.loc 1 88 14 view .LVU4
  41 0008 0140A0E3 		mov	r4, #1
  42              		.loc 1 79 17 view .LVU5
  43 000c 0020A0E3 		mov	r2, #0
  44              		.loc 1 72 15 view .LVU6
  45 0010 0250A0E3 		mov	r5, #2
  46              		.loc 1 92 3 view .LVU7
  47 0014 4CC09FE5 		ldr	ip, .L4
  48              		.loc 1 75 17 view .LVU8
  49 0018 1FE0C0E5 		strb	lr, [r0, #31]
  50              		.loc 1 92 3 view .LVU9
  51 001c 14E09CE5 		ldr	lr, [ip, #20]
  52              		.loc 1 71 14 view .LVU10
  53 0020 081080E5 		str	r1, [r0, #8]
  54              		.loc 1 72 3 is_stmt 1 view .LVU11
  55              		.loc 1 73 3 view .LVU12
  56              		.loc 1 78 18 is_stmt 0 view .LVU13
  57 0024 401080E5 		str	r1, [r0, #64]
ARM GAS  /tmp/cc4u5hVj.s 			page 2


  58              		.loc 1 88 14 view .LVU14
  59 0028 1E40C0E5 		strb	r4, [r0, #30]
  60              		.loc 1 98 3 view .LVU15
  61 002c 2C1080E2 		add	r1, r0, #44
  62              	.LVL1:
  63              		.loc 1 95 3 view .LVU16
  64 0030 284080E2 		add	r4, r0, #40
  65              		.loc 1 92 3 view .LVU17
  66 0034 10C080E5 		str	ip, [r0, #16]
  67 0038 14E080E5 		str	lr, [r0, #20]
  68              		.loc 1 72 15 view .LVU18
  69 003c BC51C0E1 		strh	r5, [r0, #28]	@ movhi
  70              		.loc 1 75 3 is_stmt 1 view .LVU19
  71              		.loc 1 78 3 view .LVU20
  72              		.loc 1 79 3 view .LVU21
  73              		.loc 1 79 17 is_stmt 0 view .LVU22
  74 0040 3C2080E5 		str	r2, [r0, #60]
  75              		.loc 1 82 3 is_stmt 1 view .LVU23
  76              		.loc 1 92 3 is_stmt 0 view .LVU24
  77 0044 14008CE5 		str	r0, [ip, #20]
  78              		.loc 1 82 18 view .LVU25
  79 0048 382080E5 		str	r2, [r0, #56]
  80              		.loc 1 85 3 is_stmt 1 view .LVU26
  81              		.loc 1 85 14 is_stmt 0 view .LVU27
  82 004c 202080E5 		str	r2, [r0, #32]
  83              		.loc 1 88 3 is_stmt 1 view .LVU28
  84              		.loc 1 91 3 view .LVU29
  85              		.loc 1 91 14 is_stmt 0 view .LVU30
  86 0050 182080E5 		str	r2, [r0, #24]
  87              		.loc 1 92 3 is_stmt 1 view .LVU31
  88              		.loc 1 92 3 view .LVU32
  89              		.loc 1 92 3 view .LVU33
  90 0054 10008EE5 		str	r0, [lr, #16]
  91              		.loc 1 92 17 view .LVU34
  92              		.loc 1 95 3 view .LVU35
  93 0058 284080E5 		str	r4, [r0, #40]
  94              		.loc 1 98 3 view .LVU36
  95 005c 301080E5 		str	r1, [r0, #48]
  96 0060 2C1080E5 		str	r1, [r0, #44]
  97              		.loc 1 98 30 view .LVU37
  98              		.loc 1 104 3 view .LVU38
  99              		.loc 1 104 27 view .LVU39
 100              		.loc 1 106 3 view .LVU40
 101              		.loc 1 107 1 is_stmt 0 view .LVU41
 102 0064 3080BDE8 		pop	{r4, r5, pc}
 103              	.L5:
 104              		.align	2
 105              	.L4:
 106 0068 00000000 		.word	rlist
 107              		.cfi_endproc
 108              	.LFE7:
 109              		.size	_thread_init, .-_thread_init
 110              		.section	.text.chThdCreateI,"ax",%progbits
 111              		.align	2
 112              		.global	chThdCreateI
 113              		.syntax unified
 114              		.arm
ARM GAS  /tmp/cc4u5hVj.s 			page 3


 115              		.fpu softvfp
 116              		.type	chThdCreateI, %function
 117              	chThdCreateI:
 118              	.LVL2:
 119              	.LFB8:
 120              		.loc 1 151 59 is_stmt 1 view -0
 121              		.cfi_startproc
 122              		@ args = 4, pretend = 0, frame = 0
 123              		@ frame_needed = 0, uses_anonymous_args = 0
 124              		.loc 1 153 3 view .LVU43
 125              		.loc 1 155 3 view .LVU44
 126              		.loc 1 155 21 view .LVU45
 127              		.loc 1 157 3 view .LVU46
 128              		.loc 1 159 29 view .LVU47
 129              		.loc 1 160 3 view .LVU48
 130              		.loc 1 151 59 is_stmt 0 view .LVU49
 131 0000 F0402DE9 		push	{r4, r5, r6, r7, lr}
 132              		.cfi_def_cfa_offset 20
 133              		.cfi_offset 4, -20
 134              		.cfi_offset 5, -16
 135              		.cfi_offset 6, -12
 136              		.cfi_offset 7, -8
 137              		.cfi_offset 14, -4
 138              	.LBB12:
 139              	.LBB13:
 140              		.loc 1 79 17 view .LVU50
 141 0004 00E0A0E3 		mov	lr, #0
 142              		.loc 1 72 15 view .LVU51
 143 0008 0270A0E3 		mov	r7, #2
 144              		.loc 1 75 17 view .LVU52
 145 000c 1460A0E3 		mov	r6, #20
 146              		.loc 1 88 14 view .LVU53
 147 0010 0150A0E3 		mov	r5, #1
 148              	.LBE13:
 149              	.LBE12:
 150              		.loc 1 160 3 view .LVU54
 151 0014 241041E2 		sub	r1, r1, #36
 152              	.LVL3:
 153              		.loc 1 160 3 view .LVU55
 154 0018 014080E0 		add	r4, r0, r1
 155 001c 0C4080E5 		str	r4, [r0, #12]
 156              		.loc 1 160 3 is_stmt 1 view .LVU56
 157 0020 013080E7 		str	r3, [r0, r1]
 158              		.loc 1 160 3 view .LVU57
 159              		.loc 1 151 59 is_stmt 0 view .LVU58
 160 0024 14109DE5 		ldr	r1, [sp, #20]
 161              	.LVL4:
 162              	.LBB16:
 163              	.LBB14:
 164              		.loc 1 92 3 view .LVU59
 165 0028 58309FE5 		ldr	r3, .L8
 166              	.LVL5:
 167              		.loc 1 92 3 view .LVU60
 168              	.LBE14:
 169              	.LBE16:
 170              		.loc 1 160 3 view .LVU61
 171 002c 041084E5 		str	r1, [r4, #4]
ARM GAS  /tmp/cc4u5hVj.s 			page 4


 172              		.loc 1 160 3 is_stmt 1 view .LVU62
 173 0030 54109FE5 		ldr	r1, .L8+4
 174 0034 201084E5 		str	r1, [r4, #32]
 175              		.loc 1 160 36 view .LVU63
 176              		.loc 1 161 3 view .LVU64
 177              	.LVL6:
 178              	.LBB17:
 179              	.LBI12:
 180              		.loc 1 69 9 view .LVU65
 181              	.LBB15:
 182              		.loc 1 71 3 view .LVU66
 183              		.loc 1 92 3 is_stmt 0 view .LVU67
 184 0038 141093E5 		ldr	r1, [r3, #20]
 185              		.loc 1 71 14 view .LVU68
 186 003c 082080E5 		str	r2, [r0, #8]
 187              		.loc 1 72 3 is_stmt 1 view .LVU69
 188              		.loc 1 73 3 view .LVU70
 189              		.loc 1 78 18 is_stmt 0 view .LVU71
 190 0040 402080E5 		str	r2, [r0, #64]
 191              		.loc 1 95 3 view .LVU72
 192 0044 284080E2 		add	r4, r0, #40
 193              	.LVL7:
 194              		.loc 1 98 3 view .LVU73
 195 0048 2C2080E2 		add	r2, r0, #44
 196              	.LVL8:
 197              		.loc 1 92 3 view .LVU74
 198 004c 103080E5 		str	r3, [r0, #16]
 199 0050 141080E5 		str	r1, [r0, #20]
 200              		.loc 1 72 15 view .LVU75
 201 0054 BC71C0E1 		strh	r7, [r0, #28]	@ movhi
 202              	.LVL9:
 203              		.loc 1 75 3 is_stmt 1 view .LVU76
 204              		.loc 1 75 17 is_stmt 0 view .LVU77
 205 0058 1F60C0E5 		strb	r6, [r0, #31]
 206              		.loc 1 78 3 is_stmt 1 view .LVU78
 207              		.loc 1 79 3 view .LVU79
 208              		.loc 1 88 14 is_stmt 0 view .LVU80
 209 005c 1E50C0E5 		strb	r5, [r0, #30]
 210              		.loc 1 79 17 view .LVU81
 211 0060 3CE080E5 		str	lr, [r0, #60]
 212              		.loc 1 82 3 is_stmt 1 view .LVU82
 213              		.loc 1 92 3 is_stmt 0 view .LVU83
 214 0064 140083E5 		str	r0, [r3, #20]
 215              		.loc 1 82 18 view .LVU84
 216 0068 38E080E5 		str	lr, [r0, #56]
 217              		.loc 1 85 3 is_stmt 1 view .LVU85
 218              		.loc 1 85 14 is_stmt 0 view .LVU86
 219 006c 20E080E5 		str	lr, [r0, #32]
 220              		.loc 1 88 3 is_stmt 1 view .LVU87
 221              		.loc 1 91 3 view .LVU88
 222              		.loc 1 91 14 is_stmt 0 view .LVU89
 223 0070 18E080E5 		str	lr, [r0, #24]
 224              		.loc 1 92 3 is_stmt 1 view .LVU90
 225              		.loc 1 92 3 view .LVU91
 226              		.loc 1 92 3 view .LVU92
 227 0074 100081E5 		str	r0, [r1, #16]
 228              		.loc 1 92 17 view .LVU93
ARM GAS  /tmp/cc4u5hVj.s 			page 5


 229              		.loc 1 95 3 view .LVU94
 230 0078 284080E5 		str	r4, [r0, #40]
 231              		.loc 1 98 3 view .LVU95
 232 007c 302080E5 		str	r2, [r0, #48]
 233 0080 2C2080E5 		str	r2, [r0, #44]
 234              		.loc 1 98 30 view .LVU96
 235              		.loc 1 104 3 view .LVU97
 236              		.loc 1 104 27 view .LVU98
 237              		.loc 1 106 3 view .LVU99
 238              	.LVL10:
 239              		.loc 1 106 3 is_stmt 0 view .LVU100
 240              	.LBE15:
 241              	.LBE17:
 242              		.loc 1 162 1 view .LVU101
 243 0084 F080BDE8 		pop	{r4, r5, r6, r7, pc}
 244              	.L9:
 245              		.align	2
 246              	.L8:
 247 0088 00000000 		.word	rlist
 248 008c 00000000 		.word	_port_thread_start
 249              		.cfi_endproc
 250              	.LFE8:
 251              		.size	chThdCreateI, .-chThdCreateI
 252              		.section	.text.chThdCreateStatic,"ax",%progbits
 253              		.align	2
 254              		.global	chThdCreateStatic
 255              		.syntax unified
 256              		.arm
 257              		.fpu softvfp
 258              		.type	chThdCreateStatic, %function
 259              	chThdCreateStatic:
 260              	.LVL11:
 261              	.LFB9:
 262              		.loc 1 181 64 is_stmt 1 view -0
 263              		.cfi_startproc
 264              		@ args = 4, pretend = 0, frame = 0
 265              		@ frame_needed = 0, uses_anonymous_args = 0
 266              		.loc 1 182 3 view .LVU103
 267              		.loc 1 192 3 view .LVU104
 268              		.loc 1 181 64 is_stmt 0 view .LVU105
 269 0000 F0412DE9 		push	{r4, r5, r6, r7, r8, lr}
 270              		.cfi_def_cfa_offset 24
 271              		.cfi_offset 4, -24
 272              		.cfi_offset 5, -20
 273              		.cfi_offset 6, -16
 274              		.cfi_offset 7, -12
 275              		.cfi_offset 8, -8
 276              		.cfi_offset 14, -4
 277              		.loc 1 181 64 view .LVU106
 278 0004 01C0A0E1 		mov	ip, r1
 279 0008 0040A0E1 		mov	r4, r0
 280 000c 18809DE5 		ldr	r8, [sp, #24]
 281              		.loc 1 192 3 view .LVU107
 282              		.syntax divided
 283              	@ 192 "../os/kernel/src/chthreads.c" 1
 284 0010 9FF021E3 		msr     CPSR_c, #0x9F
 285              	@ 0 "" 2
ARM GAS  /tmp/cc4u5hVj.s 			page 6


 286              		.loc 1 192 3 is_stmt 1 view .LVU108
 287              		.loc 1 192 14 view .LVU109
 288              		.loc 1 193 3 view .LVU110
 289              	.LVL12:
 290              		.arm
 291              		.syntax unified
 292              	.LBB18:
 293              	.LBI18:
 294              		.loc 1 150 9 view .LVU111
 295              	.LBB19:
 296              		.loc 1 153 3 view .LVU112
 297              		.loc 1 155 3 view .LVU113
 298              		.loc 1 155 21 view .LVU114
 299              		.loc 1 157 3 view .LVU115
 300              		.loc 1 159 29 view .LVU116
 301              		.loc 1 160 3 view .LVU117
 302              	.LBB20:
 303              	.LBB21:
 304              		.loc 1 79 17 is_stmt 0 view .LVU118
 305 0014 0010A0E3 		mov	r1, #0
 306              	.LVL13:
 307              		.loc 1 72 15 view .LVU119
 308 0018 0270A0E3 		mov	r7, #2
 309              		.loc 1 75 17 view .LVU120
 310 001c 1460A0E3 		mov	r6, #20
 311              		.loc 1 88 14 view .LVU121
 312 0020 0150A0E3 		mov	r5, #1
 313              	.LBE21:
 314              	.LBE20:
 315              		.loc 1 160 3 view .LVU122
 316 0024 24C04CE2 		sub	ip, ip, #36
 317              	.LVL14:
 318              		.loc 1 160 3 view .LVU123
 319 0028 0CE080E0 		add	lr, r0, ip
 320 002c 0CE080E5 		str	lr, [r0, #12]
 321              		.loc 1 160 3 is_stmt 1 view .LVU124
 322 0030 0C3080E7 		str	r3, [r0, ip]
 323              		.loc 1 160 3 view .LVU125
 324              	.LBB24:
 325              	.LBB22:
 326              		.loc 1 92 3 is_stmt 0 view .LVU126
 327 0034 64309FE5 		ldr	r3, .L12
 328              	.LVL15:
 329              		.loc 1 92 3 view .LVU127
 330              	.LBE22:
 331              	.LBE24:
 332              		.loc 1 160 3 view .LVU128
 333 0038 64C09FE5 		ldr	ip, .L12+4
 334              	.LVL16:
 335              		.loc 1 160 3 view .LVU129
 336 003c 04808EE5 		str	r8, [lr, #4]
 337              		.loc 1 160 3 is_stmt 1 view .LVU130
 338 0040 20C08EE5 		str	ip, [lr, #32]
 339              		.loc 1 160 36 view .LVU131
 340              		.loc 1 161 3 view .LVU132
 341              	.LVL17:
 342              	.LBB25:
ARM GAS  /tmp/cc4u5hVj.s 			page 7


 343              	.LBI20:
 344              		.loc 1 69 9 view .LVU133
 345              	.LBB23:
 346              		.loc 1 71 3 view .LVU134
 347              		.loc 1 92 3 is_stmt 0 view .LVU135
 348 0044 14C093E5 		ldr	ip, [r3, #20]
 349              		.loc 1 71 14 view .LVU136
 350 0048 082080E5 		str	r2, [r0, #8]
 351              		.loc 1 72 3 is_stmt 1 view .LVU137
 352              		.loc 1 73 3 view .LVU138
 353              		.loc 1 78 18 is_stmt 0 view .LVU139
 354 004c 402080E5 		str	r2, [r0, #64]
 355              		.loc 1 95 3 view .LVU140
 356 0050 28E080E2 		add	lr, r0, #40
 357              	.LVL18:
 358              		.loc 1 98 3 view .LVU141
 359 0054 2C2080E2 		add	r2, r0, #44
 360              	.LVL19:
 361              		.loc 1 92 3 view .LVU142
 362 0058 103080E5 		str	r3, [r0, #16]
 363 005c 14C080E5 		str	ip, [r0, #20]
 364              		.loc 1 72 15 view .LVU143
 365 0060 BC71C0E1 		strh	r7, [r0, #28]	@ movhi
 366              	.LVL20:
 367              		.loc 1 75 3 is_stmt 1 view .LVU144
 368              		.loc 1 75 17 is_stmt 0 view .LVU145
 369 0064 1F60C0E5 		strb	r6, [r0, #31]
 370              		.loc 1 78 3 is_stmt 1 view .LVU146
 371              		.loc 1 79 3 view .LVU147
 372              		.loc 1 88 14 is_stmt 0 view .LVU148
 373 0068 1E50C0E5 		strb	r5, [r0, #30]
 374              		.loc 1 79 17 view .LVU149
 375 006c 3C1080E5 		str	r1, [r0, #60]
 376              		.loc 1 82 3 is_stmt 1 view .LVU150
 377              		.loc 1 92 3 is_stmt 0 view .LVU151
 378 0070 140083E5 		str	r0, [r3, #20]
 379              		.loc 1 82 18 view .LVU152
 380 0074 381080E5 		str	r1, [r0, #56]
 381              		.loc 1 85 3 is_stmt 1 view .LVU153
 382              		.loc 1 85 14 is_stmt 0 view .LVU154
 383 0078 201080E5 		str	r1, [r0, #32]
 384              		.loc 1 88 3 is_stmt 1 view .LVU155
 385              		.loc 1 91 3 view .LVU156
 386              		.loc 1 91 14 is_stmt 0 view .LVU157
 387 007c 181080E5 		str	r1, [r0, #24]
 388              		.loc 1 92 3 is_stmt 1 view .LVU158
 389              		.loc 1 92 3 view .LVU159
 390              		.loc 1 92 3 view .LVU160
 391 0080 10008CE5 		str	r0, [ip, #16]
 392              		.loc 1 92 17 view .LVU161
 393              		.loc 1 95 3 view .LVU162
 394 0084 28E080E5 		str	lr, [r0, #40]
 395              		.loc 1 98 3 view .LVU163
 396 0088 302080E5 		str	r2, [r0, #48]
 397 008c 2C2080E5 		str	r2, [r0, #44]
 398              		.loc 1 98 30 view .LVU164
 399              		.loc 1 104 3 view .LVU165
ARM GAS  /tmp/cc4u5hVj.s 			page 8


 400              		.loc 1 104 27 view .LVU166
 401              		.loc 1 106 3 view .LVU167
 402              	.LVL21:
 403              		.loc 1 106 3 is_stmt 0 view .LVU168
 404              	.LBE23:
 405              	.LBE25:
 406              	.LBE19:
 407              	.LBE18:
 408              		.loc 1 193 3 view .LVU169
 409 0090 FEFFFFEB 		bl	chSchWakeupS
 410              	.LVL22:
 411              		.loc 1 194 3 is_stmt 1 view .LVU170
 412              		.loc 1 194 3 view .LVU171
 413              		.syntax divided
 414              	@ 194 "../os/kernel/src/chthreads.c" 1
 415 0094 1FF021E3 		msr     CPSR_c, #0x1F
 416              	@ 0 "" 2
 417              		.loc 1 194 16 view .LVU172
 418              		.loc 1 195 3 view .LVU173
 419              		.loc 1 196 1 is_stmt 0 view .LVU174
 420              		.arm
 421              		.syntax unified
 422 0098 0400A0E1 		mov	r0, r4
 423 009c F081BDE8 		pop	{r4, r5, r6, r7, r8, pc}
 424              	.L13:
 425              		.align	2
 426              	.L12:
 427 00a0 00000000 		.word	rlist
 428 00a4 00000000 		.word	_port_thread_start
 429              		.cfi_endproc
 430              	.LFE9:
 431              		.size	chThdCreateStatic, .-chThdCreateStatic
 432              		.section	.text.chThdSetPriority,"ax",%progbits
 433              		.align	2
 434              		.global	chThdSetPriority
 435              		.syntax unified
 436              		.arm
 437              		.fpu softvfp
 438              		.type	chThdSetPriority, %function
 439              	chThdSetPriority:
 440              	.LVL23:
 441              	.LFB10:
 442              		.loc 1 210 43 is_stmt 1 view -0
 443              		.cfi_startproc
 444              		@ args = 0, pretend = 0, frame = 0
 445              		@ frame_needed = 0, uses_anonymous_args = 0
 446              		.loc 1 211 3 view .LVU176
 447              		.loc 1 213 3 view .LVU177
 448              		.loc 1 213 54 view .LVU178
 449              		.loc 1 215 3 view .LVU179
 450              		.loc 1 210 43 is_stmt 0 view .LVU180
 451 0000 10402DE9 		push	{r4, lr}
 452              		.cfi_def_cfa_offset 8
 453              		.cfi_offset 4, -8
 454              		.cfi_offset 14, -4
 455              		.loc 1 210 43 view .LVU181
 456 0004 0030A0E1 		mov	r3, r0
ARM GAS  /tmp/cc4u5hVj.s 			page 9


 457              		.loc 1 215 3 view .LVU182
 458              		.syntax divided
 459              	@ 215 "../os/kernel/src/chthreads.c" 1
 460 0008 9FF021E3 		msr     CPSR_c, #0x9F
 461              	@ 0 "" 2
 462              		.loc 1 215 3 is_stmt 1 view .LVU183
 463              		.loc 1 215 14 view .LVU184
 464              		.loc 1 217 3 view .LVU185
 465              		.loc 1 217 13 is_stmt 0 view .LVU186
 466              		.arm
 467              		.syntax unified
 468 000c 38209FE5 		ldr	r2, .L20
 469 0010 182092E5 		ldr	r2, [r2, #24]
 470              		.loc 1 218 13 view .LVU187
 471 0014 080092E5 		ldr	r0, [r2, #8]
 472              	.LVL24:
 473              		.loc 1 217 11 view .LVU188
 474 0018 404092E5 		ldr	r4, [r2, #64]
 475              	.LVL25:
 476              		.loc 1 218 3 is_stmt 1 view .LVU189
 477              		.loc 1 220 21 is_stmt 0 view .LVU190
 478 001c 403082E5 		str	r3, [r2, #64]
 479              		.loc 1 218 6 view .LVU191
 480 0020 041040E0 		sub	r1, r0, r4
 481 0024 111F6FE1 		clz	r1, r1
 482 0028 A112A0E1 		lsr	r1, r1, #5
 483              		.loc 1 218 44 view .LVU192
 484 002c 030050E1 		cmp	r0, r3
 485 0030 01108133 		orrcc	r1, r1, #1
 486 0034 000051E3 		cmp	r1, #0
 487              		.loc 1 219 5 is_stmt 1 view .LVU193
 488              		.loc 1 219 19 is_stmt 0 view .LVU194
 489 0038 08308215 		strne	r3, [r2, #8]
 490              		.loc 1 220 3 is_stmt 1 view .LVU195
 491              		.loc 1 225 3 view .LVU196
 492 003c FEFFFFEB 		bl	chSchRescheduleS
 493              	.LVL26:
 494              		.loc 1 226 3 view .LVU197
 495              		.loc 1 226 3 view .LVU198
 496              		.syntax divided
 497              	@ 226 "../os/kernel/src/chthreads.c" 1
 498 0040 1FF021E3 		msr     CPSR_c, #0x1F
 499              	@ 0 "" 2
 500              		.loc 1 226 16 view .LVU199
 501              		.loc 1 227 3 view .LVU200
 502              		.loc 1 228 1 is_stmt 0 view .LVU201
 503              		.arm
 504              		.syntax unified
 505 0044 0400A0E1 		mov	r0, r4
 506 0048 1080BDE8 		pop	{r4, pc}
 507              	.L21:
 508              		.align	2
 509              	.L20:
 510 004c 00000000 		.word	rlist
 511              		.cfi_endproc
 512              	.LFE10:
 513              		.size	chThdSetPriority, .-chThdSetPriority
ARM GAS  /tmp/cc4u5hVj.s 			page 10


 514              		.section	.text.chThdResume,"ax",%progbits
 515              		.align	2
 516              		.global	chThdResume
 517              		.syntax unified
 518              		.arm
 519              		.fpu softvfp
 520              		.type	chThdResume, %function
 521              	chThdResume:
 522              	.LVL27:
 523              	.LFB11:
 524              		.loc 1 243 33 is_stmt 1 view -0
 525              		.cfi_startproc
 526              		@ args = 0, pretend = 0, frame = 0
 527              		@ frame_needed = 0, uses_anonymous_args = 0
 528              		.loc 1 245 3 view .LVU203
 529              		.loc 1 243 33 is_stmt 0 view .LVU204
 530 0000 10402DE9 		push	{r4, lr}
 531              		.cfi_def_cfa_offset 8
 532              		.cfi_offset 4, -8
 533              		.cfi_offset 14, -4
 534              		.loc 1 243 33 view .LVU205
 535 0004 0040A0E1 		mov	r4, r0
 536              		.loc 1 245 3 view .LVU206
 537              		.syntax divided
 538              	@ 245 "../os/kernel/src/chthreads.c" 1
 539 0008 9FF021E3 		msr     CPSR_c, #0x9F
 540              	@ 0 "" 2
 541              		.loc 1 245 3 is_stmt 1 view .LVU207
 542              		.loc 1 245 14 view .LVU208
 543              		.loc 1 246 3 view .LVU209
 544              		.loc 1 248 57 view .LVU210
 545              		.loc 1 249 3 view .LVU211
 546              		.arm
 547              		.syntax unified
 548 000c 0010A0E3 		mov	r1, #0
 549 0010 FEFFFFEB 		bl	chSchWakeupS
 550              	.LVL28:
 551              		.loc 1 250 3 view .LVU212
 552              		.loc 1 250 3 view .LVU213
 553              		.syntax divided
 554              	@ 250 "../os/kernel/src/chthreads.c" 1
 555 0014 1FF021E3 		msr     CPSR_c, #0x1F
 556              	@ 0 "" 2
 557              		.loc 1 250 16 view .LVU214
 558              		.loc 1 251 3 view .LVU215
 559              		.loc 1 252 1 is_stmt 0 view .LVU216
 560              		.arm
 561              		.syntax unified
 562 0018 0400A0E1 		mov	r0, r4
 563 001c 1080BDE8 		pop	{r4, pc}
 564              		.cfi_endproc
 565              	.LFE11:
 566              		.size	chThdResume, .-chThdResume
 567              		.section	.text.chThdTerminate,"ax",%progbits
 568              		.align	2
 569              		.global	chThdTerminate
 570              		.syntax unified
ARM GAS  /tmp/cc4u5hVj.s 			page 11


 571              		.arm
 572              		.fpu softvfp
 573              		.type	chThdTerminate, %function
 574              	chThdTerminate:
 575              	.LVL29:
 576              	.LFB12:
 577              		.loc 1 266 33 is_stmt 1 view -0
 578              		.cfi_startproc
 579              		@ args = 0, pretend = 0, frame = 0
 580              		@ frame_needed = 0, uses_anonymous_args = 0
 581              		@ link register save eliminated.
 582              		.loc 1 268 3 view .LVU218
 583              		.syntax divided
 584              	@ 268 "../os/kernel/src/chthreads.c" 1
 585 0000 9FF021E3 		msr     CPSR_c, #0x9F
 586              	@ 0 "" 2
 587              		.loc 1 268 3 view .LVU219
 588              		.loc 1 268 14 view .LVU220
 589              		.loc 1 269 3 view .LVU221
 590              		.loc 1 269 15 is_stmt 0 view .LVU222
 591              		.arm
 592              		.syntax unified
 593 0004 1D30D0E5 		ldrb	r3, [r0, #29]	@ zero_extendqisi2
 594 0008 043083E3 		orr	r3, r3, #4
 595 000c 1D30C0E5 		strb	r3, [r0, #29]
 596              		.loc 1 270 3 is_stmt 1 view .LVU223
 597              		.loc 1 270 3 view .LVU224
 598              		.syntax divided
 599              	@ 270 "../os/kernel/src/chthreads.c" 1
 600 0010 1FF021E3 		msr     CPSR_c, #0x1F
 601              	@ 0 "" 2
 602              		.loc 1 270 16 view .LVU225
 603              		.loc 1 271 1 is_stmt 0 view .LVU226
 604              		.arm
 605              		.syntax unified
 606 0014 1EFF2FE1 		bx	lr
 607              		.cfi_endproc
 608              	.LFE12:
 609              		.size	chThdTerminate, .-chThdTerminate
 610              		.section	.text.chThdSleep,"ax",%progbits
 611              		.align	2
 612              		.global	chThdSleep
 613              		.syntax unified
 614              		.arm
 615              		.fpu softvfp
 616              		.type	chThdSleep, %function
 617              	chThdSleep:
 618              	.LVL30:
 619              	.LFB13:
 620              		.loc 1 285 33 is_stmt 1 view -0
 621              		.cfi_startproc
 622              		@ args = 0, pretend = 0, frame = 0
 623              		@ frame_needed = 0, uses_anonymous_args = 0
 624              		.loc 1 287 3 view .LVU228
 625              		.loc 1 287 51 view .LVU229
 626              		.loc 1 289 3 view .LVU230
 627              		.loc 1 285 33 is_stmt 0 view .LVU231
ARM GAS  /tmp/cc4u5hVj.s 			page 12


 628 0000 0010A0E1 		mov	r1, r0
 629 0004 10402DE9 		push	{r4, lr}
 630              		.cfi_def_cfa_offset 8
 631              		.cfi_offset 4, -8
 632              		.cfi_offset 14, -4
 633              		.loc 1 289 3 view .LVU232
 634              		.syntax divided
 635              	@ 289 "../os/kernel/src/chthreads.c" 1
 636 0008 9FF021E3 		msr     CPSR_c, #0x9F
 637              	@ 0 "" 2
 638              		.loc 1 289 3 is_stmt 1 view .LVU233
 639              		.loc 1 289 14 view .LVU234
 640              		.loc 1 290 3 view .LVU235
 641              		.arm
 642              		.syntax unified
 643 000c 0600A0E3 		mov	r0, #6
 644              	.LVL31:
 645              		.loc 1 290 3 is_stmt 0 view .LVU236
 646 0010 FEFFFFEB 		bl	chSchGoSleepTimeoutS
 647              	.LVL32:
 648              		.loc 1 291 3 is_stmt 1 view .LVU237
 649              		.loc 1 291 3 view .LVU238
 650              		.syntax divided
 651              	@ 291 "../os/kernel/src/chthreads.c" 1
 652 0014 1FF021E3 		msr     CPSR_c, #0x1F
 653              	@ 0 "" 2
 654              		.loc 1 291 16 view .LVU239
 655              		.loc 1 292 1 is_stmt 0 view .LVU240
 656              		.arm
 657              		.syntax unified
 658 0018 1080BDE8 		pop	{r4, pc}
 659              		.cfi_endproc
 660              	.LFE13:
 661              		.size	chThdSleep, .-chThdSleep
 662              		.section	.text.chThdSleepUntil,"ax",%progbits
 663              		.align	2
 664              		.global	chThdSleepUntil
 665              		.syntax unified
 666              		.arm
 667              		.fpu softvfp
 668              		.type	chThdSleepUntil, %function
 669              	chThdSleepUntil:
 670              	.LVL33:
 671              	.LFB14:
 672              		.loc 1 302 38 is_stmt 1 view -0
 673              		.cfi_startproc
 674              		@ args = 0, pretend = 0, frame = 0
 675              		@ frame_needed = 0, uses_anonymous_args = 0
 676              		.loc 1 304 3 view .LVU242
 677              		.syntax divided
 678              	@ 304 "../os/kernel/src/chthreads.c" 1
 679 0000 9FF021E3 		msr     CPSR_c, #0x9F
 680              	@ 0 "" 2
 681              		.loc 1 304 3 view .LVU243
 682              		.loc 1 304 14 view .LVU244
 683              		.loc 1 305 3 view .LVU245
 684              		.loc 1 305 16 is_stmt 0 view .LVU246
ARM GAS  /tmp/cc4u5hVj.s 			page 13


 685              		.arm
 686              		.syntax unified
 687 0004 24309FE5 		ldr	r3, .L37
 688 0008 0C1093E5 		ldr	r1, [r3, #12]
 689              	.LVL34:
 690              		.loc 1 305 6 view .LVU247
 691 000c 011050E0 		subs	r1, r0, r1
 692              	.LVL35:
 693              		.loc 1 305 6 view .LVU248
 694 0010 0100001A 		bne	.L36
 695              		.loc 1 307 3 is_stmt 1 view .LVU249
 696              		.loc 1 307 3 view .LVU250
 697              		.syntax divided
 698              	@ 307 "../os/kernel/src/chthreads.c" 1
 699 0014 1FF021E3 		msr     CPSR_c, #0x1F
 700              	@ 0 "" 2
 701              		.loc 1 307 16 view .LVU251
 702              		.loc 1 307 3 is_stmt 0 view .LVU252
 703              		.arm
 704              		.syntax unified
 705 0018 1EFF2FE1 		bx	lr
 706              	.L36:
 707              		.loc 1 306 5 is_stmt 1 view .LVU253
 708              		.loc 1 302 38 is_stmt 0 view .LVU254
 709 001c 10402DE9 		push	{r4, lr}
 710              		.cfi_def_cfa_offset 8
 711              		.cfi_offset 4, -8
 712              		.cfi_offset 14, -4
 713              		.loc 1 306 5 view .LVU255
 714 0020 0600A0E3 		mov	r0, #6
 715 0024 FEFFFFEB 		bl	chSchGoSleepTimeoutS
 716              	.LVL36:
 717              		.loc 1 307 3 is_stmt 1 view .LVU256
 718              		.loc 1 307 3 view .LVU257
 719              		.syntax divided
 720              	@ 307 "../os/kernel/src/chthreads.c" 1
 721 0028 1FF021E3 		msr     CPSR_c, #0x1F
 722              	@ 0 "" 2
 723              		.loc 1 307 16 view .LVU258
 724              		.loc 1 308 1 is_stmt 0 view .LVU259
 725              		.arm
 726              		.syntax unified
 727 002c 1080BDE8 		pop	{r4, pc}
 728              	.L38:
 729              		.align	2
 730              	.L37:
 731 0030 00000000 		.word	vtlist
 732              		.cfi_endproc
 733              	.LFE14:
 734              		.size	chThdSleepUntil, .-chThdSleepUntil
 735              		.section	.text.chThdYield,"ax",%progbits
 736              		.align	2
 737              		.global	chThdYield
 738              		.syntax unified
 739              		.arm
 740              		.fpu softvfp
 741              		.type	chThdYield, %function
ARM GAS  /tmp/cc4u5hVj.s 			page 14


 742              	chThdYield:
 743              	.LFB15:
 744              		.loc 1 317 23 is_stmt 1 view -0
 745              		.cfi_startproc
 746              		@ args = 0, pretend = 0, frame = 0
 747              		@ frame_needed = 0, uses_anonymous_args = 0
 748              		.loc 1 319 3 view .LVU261
 749              		.syntax divided
 750              	@ 319 "../os/kernel/src/chthreads.c" 1
 751 0000 9FF021E3 		msr     CPSR_c, #0x9F
 752              	@ 0 "" 2
 753              		.loc 1 319 3 view .LVU262
 754              		.loc 1 319 14 view .LVU263
 755              		.loc 1 320 3 view .LVU264
 756              		.arm
 757              		.syntax unified
 758 0004 2C309FE5 		ldr	r3, .L46
 759 0008 002093E5 		ldr	r2, [r3]
 760 000c 183093E5 		ldr	r3, [r3, #24]
 761 0010 082092E5 		ldr	r2, [r2, #8]
 762 0014 083093E5 		ldr	r3, [r3, #8]
 763 0018 030052E1 		cmp	r2, r3
 764 001c 0100002A 		bcs	.L45
 765              		.loc 1 320 18 view .LVU265
 766              		.loc 1 321 3 view .LVU266
 767              		.loc 1 321 3 view .LVU267
 768              		.syntax divided
 769              	@ 321 "../os/kernel/src/chthreads.c" 1
 770 0020 1FF021E3 		msr     CPSR_c, #0x1F
 771              	@ 0 "" 2
 772              		.loc 1 321 16 view .LVU268
 773              		.loc 1 321 3 is_stmt 0 view .LVU269
 774              		.arm
 775              		.syntax unified
 776 0024 1EFF2FE1 		bx	lr
 777              	.L45:
 778              		.loc 1 320 3 is_stmt 1 discriminator 1 view .LVU270
 779              		.loc 1 317 23 is_stmt 0 discriminator 1 view .LVU271
 780 0028 10402DE9 		push	{r4, lr}
 781              		.cfi_def_cfa_offset 8
 782              		.cfi_offset 4, -8
 783              		.cfi_offset 14, -4
 784              		.loc 1 320 3 discriminator 1 view .LVU272
 785 002c FEFFFFEB 		bl	chSchDoRescheduleBehind
 786              	.LVL37:
 787              		.loc 1 320 18 is_stmt 1 discriminator 1 view .LVU273
 788              		.loc 1 321 3 discriminator 1 view .LVU274
 789              		.loc 1 321 3 discriminator 1 view .LVU275
 790              		.syntax divided
 791              	@ 321 "../os/kernel/src/chthreads.c" 1
 792 0030 1FF021E3 		msr     CPSR_c, #0x1F
 793              	@ 0 "" 2
 794              		.loc 1 321 16 discriminator 1 view .LVU276
 795              		.loc 1 322 1 is_stmt 0 discriminator 1 view .LVU277
 796              		.arm
 797              		.syntax unified
 798 0034 1080BDE8 		pop	{r4, pc}
ARM GAS  /tmp/cc4u5hVj.s 			page 15


 799              	.L47:
 800              		.align	2
 801              	.L46:
 802 0038 00000000 		.word	rlist
 803              		.cfi_endproc
 804              	.LFE15:
 805              		.size	chThdYield, .-chThdYield
 806              		.section	.text.chThdExitS,"ax",%progbits
 807              		.align	2
 808              		.global	chThdExitS
 809              		.syntax unified
 810              		.arm
 811              		.fpu softvfp
 812              		.type	chThdExitS, %function
 813              	chThdExitS:
 814              	.LVL38:
 815              	.LFB17:
 816              		.loc 1 359 28 is_stmt 1 view -0
 817              		.cfi_startproc
 818              		@ args = 0, pretend = 0, frame = 0
 819              		@ frame_needed = 0, uses_anonymous_args = 0
 820              		.loc 1 360 3 view .LVU279
 821              		.loc 1 360 11 is_stmt 0 view .LVU280
 822 0000 58209FE5 		ldr	r2, .L54
 823              		.loc 1 359 28 view .LVU281
 824 0004 70402DE9 		push	{r4, r5, r6, lr}
 825              		.cfi_def_cfa_offset 16
 826              		.cfi_offset 4, -16
 827              		.cfi_offset 5, -12
 828              		.cfi_offset 6, -8
 829              		.cfi_offset 14, -4
 830              		.loc 1 360 11 view .LVU282
 831 0008 184092E5 		ldr	r4, [r2, #24]
 832              	.LVL39:
 833              		.loc 1 362 3 is_stmt 1 view .LVU283
 834              		.loc 1 359 28 is_stmt 0 view .LVU284
 835 000c 0030A0E1 		mov	r3, r0
 836              		.loc 1 367 10 view .LVU285
 837 0010 0450A0E1 		mov	r5, r4
 838 0014 2800B5E5 		ldr	r0, [r5, #40]!
 839              	.LVL40:
 840              		.loc 1 362 20 view .LVU286
 841 0018 243084E5 		str	r3, [r4, #36]
 842              		.loc 1 364 3 is_stmt 1 view .LVU287
 843              		.loc 1 364 27 view .LVU288
 844              		.loc 1 367 3 view .LVU289
 845              		.loc 1 367 9 view .LVU290
 846 001c 000055E1 		cmp	r5, r0
 847 0020 0500000A 		beq	.L49
 848              	.LVL41:
 849              	.L50:
 850              		.loc 1 368 5 view .LVU291
 851              	.LBB26:
 852              	.LBI26:
 853              		.file 2 "../os/kernel/include/chinline.h"
 854              		.loc 2 79 23 view .LVU292
 855              	.LBB27:
ARM GAS  /tmp/cc4u5hVj.s 			page 16


 856              		.loc 2 81 3 view .LVU293
 857              		.loc 2 82 3 view .LVU294
 858              		.loc 2 82 19 is_stmt 0 view .LVU295
 859 0024 003090E5 		ldr	r3, [r0]
 860              		.loc 2 82 15 view .LVU296
 861 0028 283084E5 		str	r3, [r4, #40]
 862              		.loc 2 83 3 is_stmt 1 view .LVU297
 863              	.LVL42:
 864              		.loc 2 83 3 is_stmt 0 view .LVU298
 865              	.LBE27:
 866              	.LBE26:
 867              		.loc 1 368 5 view .LVU299
 868 002c FEFFFFEB 		bl	chSchReadyI
 869              	.LVL43:
 870              		.loc 1 367 9 is_stmt 1 view .LVU300
 871              		.loc 1 367 10 is_stmt 0 view .LVU301
 872 0030 280094E5 		ldr	r0, [r4, #40]
 873              		.loc 1 367 9 view .LVU302
 874 0034 050050E1 		cmp	r0, r5
 875 0038 F9FFFF1A 		bne	.L50
 876              	.LVL44:
 877              	.L49:
 878              		.loc 1 373 3 is_stmt 1 view .LVU303
 879              		.loc 1 373 6 is_stmt 0 view .LVU304
 880 003c 1D30D4E5 		ldrb	r3, [r4, #29]	@ zero_extendqisi2
 881              		.loc 1 376 3 view .LVU305
 882 0040 0E00A0E3 		mov	r0, #14
 883              		.loc 1 373 6 view .LVU306
 884 0044 030013E3 		tst	r3, #3
 885              		.loc 1 374 5 is_stmt 1 view .LVU307
 886 0048 14209405 		ldreq	r2, [r4, #20]
 887 004c 10309405 		ldreq	r3, [r4, #16]
 888              		.loc 1 379 1 is_stmt 0 view .LVU308
 889 0050 7040BDE8 		pop	{r4, r5, r6, lr}
 890              		.cfi_restore 14
 891              		.cfi_restore 6
 892              		.cfi_restore 5
 893              		.cfi_restore 4
 894              		.cfi_def_cfa_offset 0
 895              	.LVL45:
 896              		.loc 1 374 5 view .LVU309
 897 0054 10308205 		streq	r3, [r2, #16]
 898              		.loc 1 374 5 is_stmt 1 view .LVU310
 899 0058 14208305 		streq	r2, [r3, #20]
 900              		.loc 1 374 19 view .LVU311
 901              		.loc 1 376 3 view .LVU312
 902 005c FEFFFFEA 		b	chSchGoSleepS
 903              	.LVL46:
 904              	.L55:
 905              		.align	2
 906              	.L54:
 907 0060 00000000 		.word	rlist
 908              		.cfi_endproc
 909              	.LFE17:
 910              		.size	chThdExitS, .-chThdExitS
 911              		.section	.text.chThdExit,"ax",%progbits
 912              		.align	2
ARM GAS  /tmp/cc4u5hVj.s 			page 17


 913              		.global	chThdExit
 914              		.syntax unified
 915              		.arm
 916              		.fpu softvfp
 917              		.type	chThdExit, %function
 918              	chThdExit:
 919              	.LVL47:
 920              	.LFB16:
 921              		.loc 1 338 27 view -0
 922              		.cfi_startproc
 923              		@ args = 0, pretend = 0, frame = 0
 924              		@ frame_needed = 0, uses_anonymous_args = 0
 925              		@ link register save eliminated.
 926              		.loc 1 340 3 view .LVU314
 927              		.syntax divided
 928              	@ 340 "../os/kernel/src/chthreads.c" 1
 929 0000 9FF021E3 		msr     CPSR_c, #0x9F
 930              	@ 0 "" 2
 931              		.loc 1 340 3 view .LVU315
 932              		.loc 1 340 14 view .LVU316
 933              		.loc 1 341 3 view .LVU317
 934              		.arm
 935              		.syntax unified
 936 0004 FEFFFFEA 		b	chThdExitS
 937              	.LVL48:
 938              		.loc 1 341 3 is_stmt 0 view .LVU318
 939              		.cfi_endproc
 940              	.LFE16:
 941              		.size	chThdExit, .-chThdExit
 942              		.section	.text.chThdWait,"ax",%progbits
 943              		.align	2
 944              		.global	chThdWait
 945              		.syntax unified
 946              		.arm
 947              		.fpu softvfp
 948              		.type	chThdWait, %function
 949              	chThdWait:
 950              	.LVL49:
 951              	.LFB18:
 952              		.loc 1 413 29 is_stmt 1 view -0
 953              		.cfi_startproc
 954              		@ args = 0, pretend = 0, frame = 0
 955              		@ frame_needed = 0, uses_anonymous_args = 0
 956              		.loc 1 414 3 view .LVU320
 957              		.loc 1 416 3 view .LVU321
 958              		.loc 1 416 38 view .LVU322
 959              		.loc 1 418 3 view .LVU323
 960              		.loc 1 413 29 is_stmt 0 view .LVU324
 961 0000 70402DE9 		push	{r4, r5, r6, lr}
 962              		.cfi_def_cfa_offset 16
 963              		.cfi_offset 4, -16
 964              		.cfi_offset 5, -12
 965              		.cfi_offset 6, -8
 966              		.cfi_offset 14, -4
 967              		.loc 1 413 29 view .LVU325
 968 0004 0040A0E1 		mov	r4, r0
 969              		.loc 1 418 3 view .LVU326
ARM GAS  /tmp/cc4u5hVj.s 			page 18


 970              		.syntax divided
 971              	@ 418 "../os/kernel/src/chthreads.c" 1
 972 0008 9FF021E3 		msr     CPSR_c, #0x9F
 973              	@ 0 "" 2
 974              		.loc 1 418 3 is_stmt 1 view .LVU327
 975              		.loc 1 418 14 view .LVU328
 976              		.loc 1 419 3 view .LVU329
 977              		.loc 1 419 62 view .LVU330
 978              		.loc 1 421 3 view .LVU331
 979              		.loc 1 421 67 view .LVU332
 980              		.loc 1 423 3 view .LVU333
 981              		.loc 1 423 6 is_stmt 0 view .LVU334
 982              		.arm
 983              		.syntax unified
 984 000c 1C30D0E5 		ldrb	r3, [r0, #28]	@ zero_extendqisi2
 985 0010 0E0053E3 		cmp	r3, #14
 986 0014 0600000A 		beq	.L58
 987              		.loc 1 419 3 view .LVU335
 988 0018 2C309FE5 		ldr	r3, .L63
 989              	.LBB28:
 990              	.LBB29:
 991              		.loc 2 75 19 view .LVU336
 992 001c 282090E5 		ldr	r2, [r0, #40]
 993              	.LBE29:
 994              	.LBE28:
 995              		.loc 1 419 3 view .LVU337
 996 0020 183093E5 		ldr	r3, [r3, #24]
 997              		.loc 1 424 5 is_stmt 1 view .LVU338
 998              	.LVL50:
 999              	.LBB32:
 1000              	.LBI28:
 1001              		.loc 2 73 20 view .LVU339
 1002              	.LBB30:
 1003              		.loc 2 75 3 view .LVU340
 1004              	.LBE30:
 1005              	.LBE32:
 1006              		.loc 1 425 5 is_stmt 0 view .LVU341
 1007 0024 0700A0E3 		mov	r0, #7
 1008              	.LVL51:
 1009              	.LBB33:
 1010              	.LBB31:
 1011              		.loc 2 75 14 view .LVU342
 1012 0028 002083E5 		str	r2, [r3]
 1013              		.loc 2 76 3 is_stmt 1 view .LVU343
 1014              		.loc 2 76 15 is_stmt 0 view .LVU344
 1015 002c 283084E5 		str	r3, [r4, #40]
 1016              	.LVL52:
 1017              		.loc 2 76 15 view .LVU345
 1018              	.LBE31:
 1019              	.LBE33:
 1020              		.loc 1 425 5 is_stmt 1 view .LVU346
 1021 0030 FEFFFFEB 		bl	chSchGoSleepS
 1022              	.LVL53:
 1023              	.L58:
 1024              		.loc 1 427 3 view .LVU347
 1025              		.loc 1 427 7 is_stmt 0 view .LVU348
 1026 0034 245094E5 		ldr	r5, [r4, #36]
ARM GAS  /tmp/cc4u5hVj.s 			page 19


 1027              	.LVL54:
 1028              		.loc 1 428 3 is_stmt 1 view .LVU349
 1029              		.loc 1 428 3 view .LVU350
 1030              		.syntax divided
 1031              	@ 428 "../os/kernel/src/chthreads.c" 1
 1032 0038 1FF021E3 		msr     CPSR_c, #0x1F
 1033              	@ 0 "" 2
 1034              		.loc 1 428 16 view .LVU351
 1035              		.loc 1 430 3 view .LVU352
 1036              		.arm
 1037              		.syntax unified
 1038 003c 0400A0E1 		mov	r0, r4
 1039 0040 FEFFFFEB 		bl	chThdRelease
 1040              	.LVL55:
 1041              		.loc 1 432 3 view .LVU353
 1042              		.loc 1 433 1 is_stmt 0 view .LVU354
 1043 0044 0500A0E1 		mov	r0, r5
 1044 0048 7080BDE8 		pop	{r4, r5, r6, pc}
 1045              	.L64:
 1046              		.align	2
 1047              	.L63:
 1048 004c 00000000 		.word	rlist
 1049              		.cfi_endproc
 1050              	.LFE18:
 1051              		.size	chThdWait, .-chThdWait
 1052              		.text
 1053              	.Letext0:
 1054              		.file 3 "/usr/lib/gcc/arm-none-eabi/9.2.1/include/stddef.h"
 1055              		.file 4 "/usr/lib/gcc/arm-none-eabi/9.2.1/include/stdint.h"
 1056              		.file 5 "../os/ports/GCC/ARM/chtypes.h"
 1057              		.file 6 "../os/kernel/include/chlists.h"
 1058              		.file 7 "../os/kernel/include/chthreads.h"
 1059              		.file 8 "../os/ports/GCC/ARM/chcore.h"
 1060              		.file 9 "../os/kernel/include/chvt.h"
 1061              		.file 10 "../os/kernel/include/chschd.h"
 1062              		.file 11 "../os/kernel/include/chmtx.h"
 1063              		.file 12 "../os/kernel/include/chregistry.h"
 1064              		.file 13 "../os/kernel/include/ch.h"
 1065              		.file 14 "../os/kernel/include/chdynamic.h"