ARM GAS  /tmp/ccDJZAH9.s 			page 1


   1              		.cpu arm1176jz-s
   2              		.eabi_attribute 20, 1
   3              		.eabi_attribute 21, 1
   4              		.eabi_attribute 23, 3
   5              		.eabi_attribute 24, 1
   6              		.eabi_attribute 25, 1
   7              		.eabi_attribute 26, 1
   8              		.eabi_attribute 30, 2
   9              		.eabi_attribute 34, 1
  10              		.eabi_attribute 18, 4
  11              		.file	"chvt.c"
  12              		.text
  13              	.Ltext0:
  14              		.cfi_sections	.debug_frame
  15              		.section	.text._vt_init,"ax",%progbits
  16              		.align	2
  17              		.global	_vt_init
  18              		.arch armv6kz
  19              		.syntax unified
  20              		.arm
  21              		.fpu softvfp
  22              		.type	_vt_init, %function
  23              	_vt_init:
  24              	.LFB7:
  25              		.file 1 "../os/kernel/src/chvt.c"
  26              		.loc 1 43 21 view -0
  27              		.cfi_startproc
  28              		@ args = 0, pretend = 0, frame = 0
  29              		@ frame_needed = 0, uses_anonymous_args = 0
  30              		@ link register save eliminated.
  31              		.loc 1 45 3 view .LVU1
  32              		.loc 1 46 18 is_stmt 0 view .LVU2
  33 0000 0010E0E3 		mvn	r1, #0
  34              		.loc 1 47 21 view .LVU3
  35 0004 0020A0E3 		mov	r2, #0
  36              		.loc 1 45 35 view .LVU4
  37 0008 10309FE5 		ldr	r3, .L3
  38              		.loc 1 46 18 view .LVU5
  39 000c 081083E5 		str	r1, [r3, #8]
  40              		.loc 1 45 35 view .LVU6
  41 0010 043083E5 		str	r3, [r3, #4]
  42              		.loc 1 45 18 view .LVU7
  43 0014 003083E5 		str	r3, [r3]
  44              		.loc 1 46 3 is_stmt 1 view .LVU8
  45              		.loc 1 47 3 view .LVU9
  46              		.loc 1 47 21 is_stmt 0 view .LVU10
  47 0018 0C2083E5 		str	r2, [r3, #12]
  48              		.loc 1 48 1 view .LVU11
  49 001c 1EFF2FE1 		bx	lr
  50              	.L4:
  51              		.align	2
  52              	.L3:
  53 0020 00000000 		.word	vtlist
  54              		.cfi_endproc
  55              	.LFE7:
  56              		.size	_vt_init, .-_vt_init
  57              		.section	.text.chVTSetI,"ax",%progbits
ARM GAS  /tmp/ccDJZAH9.s 			page 2


  58              		.align	2
  59              		.global	chVTSetI
  60              		.syntax unified
  61              		.arm
  62              		.fpu softvfp
  63              		.type	chVTSetI, %function
  64              	chVTSetI:
  65              	.LVL0:
  66              	.LFB8:
  67              		.loc 1 69 78 is_stmt 1 view -0
  68              		.cfi_startproc
  69              		@ args = 0, pretend = 0, frame = 0
  70              		@ frame_needed = 0, uses_anonymous_args = 0
  71              		@ link register save eliminated.
  72              		.loc 1 70 3 view .LVU13
  73              		.loc 1 72 3 view .LVU14
  74              		.loc 1 72 21 view .LVU15
  75              		.loc 1 73 3 view .LVU16
  76              		.loc 1 74 25 view .LVU17
  77              		.loc 1 76 3 view .LVU18
  78              		.loc 1 78 5 is_stmt 0 view .LVU19
  79 0000 54C09FE5 		ldr	ip, .L10
  80              		.loc 1 77 16 view .LVU20
  81 0004 0C2080E5 		str	r2, [r0, #12]
  82              		.loc 1 78 5 view .LVU21
  83 0008 00209CE5 		ldr	r2, [ip]
  84              	.LVL1:
  85              		.loc 1 76 15 view .LVU22
  86 000c 103080E5 		str	r3, [r0, #16]
  87              		.loc 1 77 3 is_stmt 1 view .LVU23
  88              		.loc 1 78 3 view .LVU24
  89              	.LVL2:
  90              		.loc 1 79 3 view .LVU25
  91              		.loc 1 79 9 view .LVU26
  92              		.loc 1 79 11 is_stmt 0 view .LVU27
  93 0010 083092E5 		ldr	r3, [r2, #8]
  94              	.LVL3:
  95              		.loc 1 79 9 view .LVU28
  96 0014 030051E1 		cmp	r1, r3
  97 0018 0400009A 		bls	.L6
  98              	.L7:
  99              		.loc 1 80 5 is_stmt 1 view .LVU29
 100              		.loc 1 81 7 is_stmt 0 view .LVU30
 101 001c 002092E5 		ldr	r2, [r2]
 102              	.LVL4:
 103              		.loc 1 80 10 view .LVU31
 104 0020 031041E0 		sub	r1, r1, r3
 105              	.LVL5:
 106              		.loc 1 81 5 is_stmt 1 view .LVU32
 107              		.loc 1 79 9 view .LVU33
 108              		.loc 1 79 11 is_stmt 0 view .LVU34
 109 0024 083092E5 		ldr	r3, [r2, #8]
 110              		.loc 1 79 9 view .LVU35
 111 0028 010053E1 		cmp	r3, r1
 112 002c FAFFFF3A 		bcc	.L7
 113              	.L6:
 114              		.loc 1 84 3 is_stmt 1 view .LVU36
ARM GAS  /tmp/ccDJZAH9.s 			page 3


 115              		.loc 1 84 36 is_stmt 0 view .LVU37
 116 0030 043092E5 		ldr	r3, [r2, #4]
 117              		.loc 1 87 6 view .LVU38
 118 0034 0C0052E1 		cmp	r2, ip
 119              		.loc 1 84 16 view .LVU39
 120 0038 F020C0E1 		strd	r2, [r0]
 121              		.loc 1 85 3 is_stmt 1 view .LVU40
 122              		.loc 1 85 38 is_stmt 0 view .LVU41
 123 003c 040082E5 		str	r0, [r2, #4]
 124              		.loc 1 85 25 view .LVU42
 125 0040 043090E5 		ldr	r3, [r0, #4]
 126 0044 000083E5 		str	r0, [r3]
 127              		.loc 1 86 3 is_stmt 1 view .LVU43
 128              		.loc 1 86 16 is_stmt 0 view .LVU44
 129 0048 081080E5 		str	r1, [r0, #8]
 130              		.loc 1 87 3 is_stmt 1 view .LVU45
 131              		.loc 1 88 5 view .LVU46
 132              		.loc 1 88 16 is_stmt 0 view .LVU47
 133 004c 08309215 		ldrne	r3, [r2, #8]
 134 0050 01104310 		subne	r1, r3, r1
 135              	.LVL6:
 136              		.loc 1 88 16 view .LVU48
 137 0054 08108215 		strne	r1, [r2, #8]
 138              	.LVL7:
 139              		.loc 1 89 1 view .LVU49
 140 0058 1EFF2FE1 		bx	lr
 141              	.L11:
 142              		.align	2
 143              	.L10:
 144 005c 00000000 		.word	vtlist
 145              		.cfi_endproc
 146              	.LFE8:
 147              		.size	chVTSetI, .-chVTSetI
 148              		.section	.text.chVTResetI,"ax",%progbits
 149              		.align	2
 150              		.global	chVTResetI
 151              		.syntax unified
 152              		.arm
 153              		.fpu softvfp
 154              		.type	chVTResetI, %function
 155              	chVTResetI:
 156              	.LVL8:
 157              	.LFB9:
 158              		.loc 1 99 36 is_stmt 1 view -0
 159              		.cfi_startproc
 160              		@ args = 0, pretend = 0, frame = 0
 161              		@ frame_needed = 0, uses_anonymous_args = 0
 162              		@ link register save eliminated.
 163              		.loc 1 101 3 view .LVU51
 164              		.loc 1 101 21 view .LVU52
 165              		.loc 1 102 3 view .LVU53
 166              		.loc 1 102 40 view .LVU54
 167              		.loc 1 103 3 view .LVU55
 168              		.loc 1 105 52 view .LVU56
 169              		.loc 1 107 3 view .LVU57
 170              		.loc 1 107 10 is_stmt 0 view .LVU58
 171 0000 003090E5 		ldr	r3, [r0]
ARM GAS  /tmp/ccDJZAH9.s 			page 4


 172              		.loc 1 107 6 view .LVU59
 173 0004 2C209FE5 		ldr	r2, .L14
 174 0008 020053E1 		cmp	r3, r2
 175              		.loc 1 108 5 is_stmt 1 view .LVU60
 176              		.loc 1 108 27 is_stmt 0 view .LVU61
 177 000c 08209315 		ldrne	r2, [r3, #8]
 178 0010 08109015 		ldrne	r1, [r0, #8]
 179 0014 01208210 		addne	r2, r2, r1
 180              		.loc 1 111 16 view .LVU62
 181 0018 0010A0E3 		mov	r1, #0
 182              		.loc 1 108 27 view .LVU63
 183 001c 08208315 		strne	r2, [r3, #8]
 184              		.loc 1 109 3 is_stmt 1 view .LVU64
 185              		.loc 1 109 6 is_stmt 0 view .LVU65
 186 0020 042090E5 		ldr	r2, [r0, #4]
 187              		.loc 1 109 25 view .LVU66
 188 0024 003082E5 		str	r3, [r2]
 189              		.loc 1 110 3 is_stmt 1 view .LVU67
 190              		.loc 1 110 25 is_stmt 0 view .LVU68
 191 0028 003090E5 		ldr	r3, [r0]
 192 002c 042083E5 		str	r2, [r3, #4]
 193              		.loc 1 111 3 is_stmt 1 view .LVU69
 194              		.loc 1 111 16 is_stmt 0 view .LVU70
 195 0030 0C1080E5 		str	r1, [r0, #12]
 196              		.loc 1 112 1 view .LVU71
 197 0034 1EFF2FE1 		bx	lr
 198              	.L15:
 199              		.align	2
 200              	.L14:
 201 0038 00000000 		.word	vtlist
 202              		.cfi_endproc
 203              	.LFE9:
 204              		.size	chVTResetI, .-chVTResetI
 205              		.section	.text.chTimeIsWithin,"ax",%progbits
 206              		.align	2
 207              		.global	chTimeIsWithin
 208              		.syntax unified
 209              		.arm
 210              		.fpu softvfp
 211              		.type	chTimeIsWithin, %function
 212              	chTimeIsWithin:
 213              	.LVL9:
 214              	.LFB10:
 215              		.loc 1 127 55 is_stmt 1 view -0
 216              		.cfi_startproc
 217              		@ args = 0, pretend = 0, frame = 0
 218              		@ frame_needed = 0, uses_anonymous_args = 0
 219              		@ link register save eliminated.
 220              		.loc 1 129 3 view .LVU73
 221              		.loc 1 129 13 is_stmt 0 view .LVU74
 222 0000 3C309FE5 		ldr	r3, .L19
 223              		.loc 1 130 56 view .LVU75
 224 0004 000051E1 		cmp	r1, r0
 225              		.loc 1 129 13 view .LVU76
 226 0008 0C3093E5 		ldr	r3, [r3, #12]
 227              	.LVL10:
 228              		.loc 1 130 3 is_stmt 1 view .LVU77
ARM GAS  /tmp/ccDJZAH9.s 			page 5


 229              		.loc 1 130 56 is_stmt 0 view .LVU78
 230 000c 0500009A 		bls	.L17
 231              		.loc 1 130 56 discriminator 1 view .LVU79
 232 0010 000053E1 		cmp	r3, r0
 233 0014 0100A023 		movcs	r0, #1
 234              	.LVL11:
 235              		.loc 1 130 56 discriminator 1 view .LVU80
 236 0018 0000A033 		movcc	r0, #0
 237 001c 010053E1 		cmp	r3, r1
 238 0020 0000A023 		movcs	r0, #0
 239 0024 1EFF2FE1 		bx	lr
 240              	.LVL12:
 241              	.L17:
 242              		.loc 1 131 49 discriminator 2 view .LVU81
 243 0028 010053E1 		cmp	r3, r1
 244 002c 0010A023 		movcs	r1, #0
 245              	.LVL13:
 246              		.loc 1 131 49 discriminator 2 view .LVU82
 247 0030 0110A033 		movcc	r1, #1
 248              		.loc 1 130 56 discriminator 2 view .LVU83
 249 0034 000053E1 		cmp	r3, r0
 250 0038 0100A031 		movcc	r0, r1
 251 003c 01008123 		orrcs	r0, r1, #1
 252              	.LVL14:
 253              		.loc 1 132 1 discriminator 2 view .LVU84
 254 0040 1EFF2FE1 		bx	lr
 255              	.L20:
 256              		.align	2
 257              	.L19:
 258 0044 00000000 		.word	vtlist
 259              		.cfi_endproc
 260              	.LFE10:
 261              		.size	chTimeIsWithin, .-chTimeIsWithin
 262              		.comm	vtlist,16,4
 263              		.text
 264              	.Letext0:
 265              		.file 2 "/usr/lib/gcc/arm-none-eabi/9.2.1/include/stdint.h"
 266              		.file 3 "../os/ports/GCC/ARM/chtypes.h"
 267              		.file 4 "../os/kernel/include/chlists.h"
 268              		.file 5 "../os/kernel/include/chthreads.h"
 269              		.file 6 "../os/ports/GCC/ARM/chcore.h"
 270              		.file 7 "../os/kernel/include/chvt.h"
 271              		.file 8 "../os/kernel/include/chschd.h"
 272              		.file 9 "../os/kernel/include/chmtx.h"
 273              		.file 10 "../os/kernel/include/chregistry.h"
 274              		.file 11 "../os/kernel/include/ch.h"