ARM GAS  /tmp/ccmffYtC.s 			page 1


   1              		.cpu arm1176jz-s
   2              		.eabi_attribute 20, 1
   3              		.eabi_attribute 21, 1
   4              		.eabi_attribute 23, 3
   5              		.eabi_attribute 24, 1
   6              		.eabi_attribute 25, 1
   7              		.eabi_attribute 26, 1
   8              		.eabi_attribute 30, 2
   9              		.eabi_attribute 34, 1
  10              		.eabi_attribute 18, 4
  11              		.file	"hal_lld.c"
  12              		.text
  13              	.Ltext0:
  14              		.cfi_sections	.debug_frame
  15              		.section	.text.IrqHandler,"ax",%progbits
  16              		.align	2
  17              		.global	IrqHandler
  18              		.arch armv6kz
  19              		.syntax unified
  20              		.arm
  21              		.fpu softvfp
  22              		.type	IrqHandler, %function
  23              	IrqHandler:
  24              	.LFB9:
  25              		.file 1 "../os/hal/platforms/BCM2835/hal_lld.c"
  26              		.loc 1 91 1 view -0
  27              		.cfi_startproc
  28              		@ Naked Function: prologue and epilogue provided by programmer.
  29              		@ args = 0, pretend = 0, frame = 0
  30              		@ frame_needed = 0, uses_anonymous_args = 0
  31              		.loc 1 92 3 view .LVU1
  32              		.syntax divided
  33              	@ 92 "../os/hal/platforms/BCM2835/hal_lld.c" 1
  34 0000 0F502DE9 		stmfd    sp!, {r0-r3, r12, lr}
  35              	@ 0 "" 2
  36              		.loc 1 92 3 view .LVU2
  37              		.loc 1 92 3 view .LVU3
  38              		.loc 1 92 20 view .LVU4
  39              		.loc 1 94 3 view .LVU5
  40              		.arm
  41              		.syntax unified
  42              	.LBB6:
  43              	.LBI6:
  44              		.loc 1 71 13 view .LVU6
  45              	.LBB7:
  46              		.loc 1 74 3 view .LVU7
  47              		.loc 1 74 3 view .LVU8
  48              		.loc 1 74 21 view .LVU9
  49              		.loc 1 75 3 view .LVU10
  50 0004 FEFFFFEB 		bl	chSysTimerHandlerI
  51              	.LVL0:
  52              		.loc 1 76 3 view .LVU11
  53              		.loc 1 76 3 view .LVU12
  54              		.loc 1 76 23 view .LVU13
  55              		.loc 1 79 3 view .LVU14
  56              		.loc 1 79 17 is_stmt 0 view .LVU15
  57 0008 0020A0E3 		mov	r2, #0
ARM GAS  /tmp/ccmffYtC.s 			page 2


  58 000c 1C309FE5 		ldr	r3, .L3
  59              	.LBE7:
  60              	.LBE6:
  61              		.loc 1 97 3 view .LVU16
  62 0010 1C009FE5 		ldr	r0, .L3+4
  63              	.LBB9:
  64              	.LBB8:
  65              		.loc 1 79 17 view .LVU17
  66 0014 0C2483E5 		str	r2, [r3, #1036]
  67              	.LBE8:
  68              	.LBE9:
  69              		.loc 1 97 3 is_stmt 1 view .LVU18
  70 0018 FEFFFFEB 		bl	sd_lld_serve_interrupt
  71              	.LVL1:
  72              		.loc 1 101 3 view .LVU19
  73 001c 14009FE5 		ldr	r0, .L3+8
  74 0020 FEFFFFEB 		bl	i2c_lld_serve_interrupt
  75              	.LVL2:
  76              		.loc 1 105 3 view .LVU20
  77 0024 10009FE5 		ldr	r0, .L3+12
  78 0028 FEFFFFEB 		bl	spi_lld_serve_interrupt
  79              	.LVL3:
  80              		.loc 1 112 3 view .LVU21
  81              		.loc 1 112 3 view .LVU22
  82              		.syntax divided
  83              	@ 112 "../os/hal/platforms/BCM2835/hal_lld.c" 1
  84 002c FEFFFFEA 		b       _port_irq_common
  85              	@ 0 "" 2
  86              		.loc 1 112 3 view .LVU23
  87              		.loc 1 112 20 view .LVU24
  88              		.loc 1 113 1 is_stmt 0 view .LVU25
  89              		.arm
  90              		.syntax unified
  91              	.L4:
  92              		.align	2
  93              	.L3:
  94 0030 00B00020 		.word	536915968
  95 0034 00000000 		.word	SD1
  96 0038 00000000 		.word	I2C0
  97 003c 00000000 		.word	SPI0
  98              		.cfi_endproc
  99              	.LFE9:
 100              		.size	IrqHandler, .-IrqHandler
 101              		.section	.text.delayMicroseconds,"ax",%progbits
 102              		.align	2
 103              		.global	delayMicroseconds
 104              		.syntax unified
 105              		.arm
 106              		.fpu softvfp
 107              		.type	delayMicroseconds, %function
 108              	delayMicroseconds:
 109              	.LVL4:
 110              	.LFB10:
 111              		.loc 1 124 1 is_stmt 1 view -0
 112              		.cfi_startproc
 113              		@ args = 0, pretend = 0, frame = 0
 114              		@ frame_needed = 0, uses_anonymous_args = 0
ARM GAS  /tmp/ccmffYtC.s 			page 3


 115              		@ link register save eliminated.
 116              		.loc 1 125 3 view .LVU27
 117              		.loc 1 125 22 is_stmt 0 view .LVU28
 118 0000 18309FE5 		ldr	r3, .L9
 119              		.loc 1 126 10 view .LVU29
 120 0004 0320A0E1 		mov	r2, r3
 121              		.loc 1 125 22 view .LVU30
 122 0008 043093E5 		ldr	r3, [r3, #4]
 123              		.loc 1 125 12 view .LVU31
 124 000c 000083E0 		add	r0, r3, r0
 125              	.LVL5:
 126              		.loc 1 126 3 is_stmt 1 view .LVU32
 127              	.L6:
 128              		.loc 1 126 33 discriminator 1 view .LVU33
 129              		.loc 1 126 9 discriminator 1 view .LVU34
 130              		.loc 1 126 10 is_stmt 0 discriminator 1 view .LVU35
 131 0010 043092E5 		ldr	r3, [r2, #4]
 132              		.loc 1 126 9 discriminator 1 view .LVU36
 133 0014 000053E1 		cmp	r3, r0
 134 0018 FCFFFF3A 		bcc	.L6
 135 001c 1EFF2FE1 		bx	lr
 136              	.L10:
 137              		.align	2
 138              	.L9:
 139 0020 00300020 		.word	536883200
 140              		.cfi_endproc
 141              	.LFE10:
 142              		.size	delayMicroseconds, .-delayMicroseconds
 143              		.section	.text.hal_lld_init,"ax",%progbits
 144              		.align	2
 145              		.global	hal_lld_init
 146              		.syntax unified
 147              		.arm
 148              		.fpu softvfp
 149              		.type	hal_lld_init, %function
 150              	hal_lld_init:
 151              	.LFB11:
 152              		.loc 1 134 25 is_stmt 1 view -0
 153              		.cfi_startproc
 154              		@ args = 0, pretend = 0, frame = 0
 155              		@ frame_needed = 0, uses_anonymous_args = 0
 156              		.loc 1 135 3 view .LVU38
 157              	.LBB10:
 158              	.LBI10:
 159              		.loc 1 53 13 view .LVU39
 160              	.LBB11:
 161              		.loc 1 56 3 view .LVU40
 162              	.LBE11:
 163              	.LBE10:
 164              		.loc 1 134 25 is_stmt 0 view .LVU41
 165 0000 04E02DE5 		str	lr, [sp, #-4]!
 166              		.cfi_def_cfa_offset 4
 167              		.cfi_offset 14, -4
 168              	.LBB13:
 169              	.LBB12:
 170              		.loc 1 59 17 view .LVU42
 171 0004 F9C0A0E3 		mov	ip, #249
ARM GAS  /tmp/ccmffYtC.s 			page 4


 172              		.loc 1 56 17 view .LVU43
 173 0008 3EE8A0E3 		mov	lr, #4063232
 174              		.loc 1 60 17 view .LVU44
 175 000c 0000A0E3 		mov	r0, #0
 176              		.loc 1 56 17 view .LVU45
 177 0010 2C309FE5 		ldr	r3, .L13
 178              		.loc 1 57 17 view .LVU46
 179 0014 2C209FE5 		ldr	r2, .L13+4
 180              		.loc 1 61 17 view .LVU47
 181 0018 2C109FE5 		ldr	r1, .L13+8
 182              		.loc 1 56 17 view .LVU48
 183 001c 08E483E5 		str	lr, [r3, #1032]
 184              		.loc 1 57 3 is_stmt 1 view .LVU49
 185              		.loc 1 57 17 is_stmt 0 view .LVU50
 186 0020 002483E5 		str	r2, [r3, #1024]
 187              		.loc 1 58 3 is_stmt 1 view .LVU51
 188              		.loc 1 58 17 is_stmt 0 view .LVU52
 189 0024 182483E5 		str	r2, [r3, #1048]
 190              		.loc 1 59 3 is_stmt 1 view .LVU53
 191              		.loc 1 59 17 is_stmt 0 view .LVU54
 192 0028 1CC483E5 		str	ip, [r3, #1052]
 193              		.loc 1 60 3 is_stmt 1 view .LVU55
 194              		.loc 1 60 17 is_stmt 0 view .LVU56
 195 002c 0C0483E5 		str	r0, [r3, #1036]
 196              		.loc 1 61 3 is_stmt 1 view .LVU57
 197              		.loc 1 61 17 is_stmt 0 view .LVU58
 198 0030 081483E5 		str	r1, [r3, #1032]
 199              		.loc 1 63 3 is_stmt 1 view .LVU59
 200              		.loc 1 63 20 is_stmt 0 view .LVU60
 201 0034 182293E5 		ldr	r2, [r3, #536]
 202 0038 012082E3 		orr	r2, r2, #1
 203 003c 182283E5 		str	r2, [r3, #536]
 204              	.LBE12:
 205              	.LBE13:
 206              		.loc 1 136 1 view .LVU61
 207 0040 04F09DE4 		ldr	pc, [sp], #4
 208              	.L14:
 209              		.align	2
 210              	.L13:
 211 0044 00B00020 		.word	536915968
 212 0048 E7030000 		.word	999
 213 004c A2003E00 		.word	4063394
 214              		.cfi_endproc
 215              	.LFE11:
 216              		.size	hal_lld_init, .-hal_lld_init
 217              		.section	.text.watchdog_start,"ax",%progbits
 218              		.align	2
 219              		.global	watchdog_start
 220              		.syntax unified
 221              		.arm
 222              		.fpu softvfp
 223              		.type	watchdog_start, %function
 224              	watchdog_start:
 225              	.LVL6:
 226              	.LFB12:
 227              		.loc 1 142 1 is_stmt 1 view -0
 228              		.cfi_startproc
ARM GAS  /tmp/ccmffYtC.s 			page 5


 229              		@ args = 0, pretend = 0, frame = 0
 230              		@ frame_needed = 0, uses_anonymous_args = 0
 231              		@ link register save eliminated.
 232              		.loc 1 144 5 view .LVU63
 233              		.loc 1 144 14 is_stmt 0 view .LVU64
 234 0000 28209FE5 		ldr	r2, .L16
 235              		.loc 1 147 47 view .LVU65
 236 0004 FF04C0E3 		bic	r0, r0, #-16777216
 237              	.LVL7:
 238              		.loc 1 144 14 view .LVU66
 239 0008 1C3092E5 		ldr	r3, [r2, #28]
 240              	.LVL8:
 241              		.loc 1 147 5 is_stmt 1 view .LVU67
 242              		.loc 1 147 47 is_stmt 0 view .LVU68
 243 000c 0F06C0E3 		bic	r0, r0, #15728640
 244              		.loc 1 148 27 view .LVU69
 245 0010 5A34C3E3 		bic	r3, r3, #1509949440
 246              	.LVL9:
 247              		.loc 1 148 27 view .LVU70
 248 0014 3030C3E3 		bic	r3, r3, #48
 249              		.loc 1 148 13 view .LVU71
 250 0018 5A3483E3 		orr	r3, r3, #1509949440
 251              		.loc 1 147 14 view .LVU72
 252 001c 5A0480E3 		orr	r0, r0, #1509949440
 253              	.LVL10:
 254              		.loc 1 148 5 is_stmt 1 view .LVU73
 255              		.loc 1 148 13 is_stmt 0 view .LVU74
 256 0020 203083E3 		orr	r3, r3, #32
 257              	.LVL11:
 258              		.loc 1 149 5 is_stmt 1 view .LVU75
 259              		.loc 1 149 13 is_stmt 0 view .LVU76
 260 0024 240082E5 		str	r0, [r2, #36]
 261              		.loc 1 150 5 is_stmt 1 view .LVU77
 262              		.loc 1 150 13 is_stmt 0 view .LVU78
 263 0028 1C3082E5 		str	r3, [r2, #28]
 264              		.loc 1 151 1 view .LVU79
 265 002c 1EFF2FE1 		bx	lr
 266              	.L17:
 267              		.align	2
 268              	.L16:
 269 0030 00001020 		.word	537919488
 270              		.cfi_endproc
 271              	.LFE12:
 272              		.size	watchdog_start, .-watchdog_start
 273              		.section	.text.watchdog_stop,"ax",%progbits
 274              		.align	2
 275              		.global	watchdog_stop
 276              		.syntax unified
 277              		.arm
 278              		.fpu softvfp
 279              		.type	watchdog_stop, %function
 280              	watchdog_stop:
 281              	.LFB13:
 282              		.loc 1 157 1 is_stmt 1 view -0
 283              		.cfi_startproc
 284              		@ args = 0, pretend = 0, frame = 0
 285              		@ frame_needed = 0, uses_anonymous_args = 0
ARM GAS  /tmp/ccmffYtC.s 			page 6


 286              		@ link register save eliminated.
 287              		.loc 1 158 3 view .LVU81
 288              		.loc 1 158 11 is_stmt 0 view .LVU82
 289 0000 08309FE5 		ldr	r3, .L19
 290 0004 08209FE5 		ldr	r2, .L19+4
 291 0008 1C2083E5 		str	r2, [r3, #28]
 292              		.loc 1 159 1 view .LVU83
 293 000c 1EFF2FE1 		bx	lr
 294              	.L20:
 295              		.align	2
 296              	.L19:
 297 0010 00001020 		.word	537919488
 298 0014 0201005A 		.word	1509949698
 299              		.cfi_endproc
 300              	.LFE13:
 301              		.size	watchdog_stop, .-watchdog_stop
 302              		.section	.text.watchdog_get_remaining,"ax",%progbits
 303              		.align	2
 304              		.global	watchdog_get_remaining
 305              		.syntax unified
 306              		.arm
 307              		.fpu softvfp
 308              		.type	watchdog_get_remaining, %function
 309              	watchdog_get_remaining:
 310              	.LFB14:
 311              		.loc 1 165 1 is_stmt 1 view -0
 312              		.cfi_startproc
 313              		@ args = 0, pretend = 0, frame = 0
 314              		@ frame_needed = 0, uses_anonymous_args = 0
 315              		@ link register save eliminated.
 316              		.loc 1 166 3 view .LVU85
 317              		.loc 1 166 18 is_stmt 0 view .LVU86
 318 0000 0C309FE5 		ldr	r3, .L22
 319 0004 240093E5 		ldr	r0, [r3, #36]
 320              		.loc 1 167 1 view .LVU87
 321 0008 FF04C0E3 		bic	r0, r0, #-16777216
 322 000c 0F06C0E3 		bic	r0, r0, #15728640
 323 0010 1EFF2FE1 		bx	lr
 324              	.L23:
 325              		.align	2
 326              	.L22:
 327 0014 00001020 		.word	537919488
 328              		.cfi_endproc
 329              	.LFE14:
 330              		.size	watchdog_get_remaining, .-watchdog_get_remaining
 331              		.text
 332              	.Letext0:
 333              		.file 2 "/usr/lib/gcc/arm-none-eabi/9.2.1/include/stddef.h"
 334              		.file 3 "/usr/lib/gcc/arm-none-eabi/9.2.1/include/stdint.h"
 335              		.file 4 "../os/ports/GCC/ARM/chtypes.h"
 336              		.file 5 "../os/kernel/include/chlists.h"
 337              		.file 6 "../os/kernel/include/chthreads.h"
 338              		.file 7 "../os/ports/GCC/ARM/chcore.h"
 339              		.file 8 "../os/kernel/include/chvt.h"
 340              		.file 9 "../os/kernel/include/chschd.h"
 341              		.file 10 "../os/kernel/include/chmtx.h"
 342              		.file 11 "../os/kernel/include/chevents.h"
ARM GAS  /tmp/ccmffYtC.s 			page 7


 343              		.file 12 "../os/kernel/include/chregistry.h"
 344              		.file 13 "../os/kernel/include/chqueues.h"
 345              		.file 14 "../os/kernel/include/ch.h"
 346              		.file 15 "../os/hal/platforms/BCM2835/bcm2835.h"
 347              		.file 16 "../os/hal/platforms/BCM2835/pal_lld.h"
 348              		.file 17 "../os/hal/include/i2c.h"
 349              		.file 18 "../os/hal/platforms/BCM2835/i2c_lld.h"
 350              		.file 19 "../os/hal/include/serial.h"
 351              		.file 20 "../os/hal/include/spi.h"
 352              		.file 21 "../os/hal/platforms/BCM2835/spi_lld.h"
 353              		.file 22 "../os/kernel/include/chsys.h"
 354              		.file 23 "../os/hal/platforms/BCM2835/serial_lld.h"