ARM GAS  /tmp/ccplGi6c.s 			page 1


   1              		.cpu arm1176jz-s
   2              		.eabi_attribute 20, 1
   3              		.eabi_attribute 21, 1
   4              		.eabi_attribute 23, 3
   5              		.eabi_attribute 24, 1
   6              		.eabi_attribute 25, 1
   7              		.eabi_attribute 26, 1
   8              		.eabi_attribute 30, 2
   9              		.eabi_attribute 34, 1
  10              		.eabi_attribute 18, 4
  11              		.file	"i2c.c"
  12              		.text
  13              	.Ltext0:
  14              		.cfi_sections	.debug_frame
  15              		.section	.text.i2cInit,"ax",%progbits
  16              		.align	2
  17              		.global	i2cInit
  18              		.arch armv6kz
  19              		.syntax unified
  20              		.arm
  21              		.fpu softvfp
  22              		.type	i2cInit, %function
  23              	i2cInit:
  24              	.LFB7:
  25              		.file 1 "../os/hal/src/i2c.c"
  26              		.loc 1 64 20 view -0
  27              		.cfi_startproc
  28              		@ args = 0, pretend = 0, frame = 0
  29              		@ frame_needed = 0, uses_anonymous_args = 0
  30              		@ link register save eliminated.
  31              		.loc 1 65 3 view .LVU1
  32 0000 FEFFFFEA 		b	i2c_lld_init
  33              	.LVL0:
  34              		.cfi_endproc
  35              	.LFE7:
  36              		.size	i2cInit, .-i2cInit
  37              		.section	.text.i2cObjectInit,"ax",%progbits
  38              		.align	2
  39              		.global	i2cObjectInit
  40              		.syntax unified
  41              		.arm
  42              		.fpu softvfp
  43              		.type	i2cObjectInit, %function
  44              	i2cObjectInit:
  45              	.LVL1:
  46              	.LFB8:
  47              		.loc 1 75 37 view -0
  48              		.cfi_startproc
  49              		@ args = 0, pretend = 0, frame = 0
  50              		@ frame_needed = 0, uses_anonymous_args = 0
  51              		@ link register save eliminated.
  52              		.loc 1 77 3 view .LVU3
  53              		.loc 1 77 16 is_stmt 0 view .LVU4
  54 0000 0120A0E3 		mov	r2, #1
  55              		.loc 1 78 16 view .LVU5
  56 0004 0030A0E3 		mov	r3, #0
  57              		.loc 1 77 16 view .LVU6
ARM GAS  /tmp/ccplGi6c.s 			page 2


  58 0008 0020C0E5 		strb	r2, [r0]
  59              		.loc 1 78 3 is_stmt 1 view .LVU7
  60              		.loc 1 78 16 is_stmt 0 view .LVU8
  61 000c 043080E5 		str	r3, [r0, #4]
  62              		.loc 1 82 3 is_stmt 1 view .LVU9
  63 0010 100080E2 		add	r0, r0, #16
  64              	.LVL2:
  65              		.loc 1 82 3 is_stmt 0 view .LVU10
  66 0014 FEFFFFEA 		b	chMtxInit
  67              	.LVL3:
  68              		.loc 1 82 3 view .LVU11
  69              		.cfi_endproc
  70              	.LFE8:
  71              		.size	i2cObjectInit, .-i2cObjectInit
  72              		.section	.text.i2cStart,"ax",%progbits
  73              		.align	2
  74              		.global	i2cStart
  75              		.syntax unified
  76              		.arm
  77              		.fpu softvfp
  78              		.type	i2cStart, %function
  79              	i2cStart:
  80              	.LVL4:
  81              	.LFB9:
  82              		.loc 1 101 57 is_stmt 1 view -0
  83              		.cfi_startproc
  84              		@ args = 0, pretend = 0, frame = 0
  85              		@ frame_needed = 0, uses_anonymous_args = 0
  86              		.loc 1 103 3 view .LVU13
  87              		.loc 1 103 61 view .LVU14
  88              		.loc 1 104 3 view .LVU15
  89              		.loc 1 107 31 view .LVU16
  90              		.loc 1 109 3 view .LVU17
  91              		.loc 1 101 57 is_stmt 0 view .LVU18
  92 0000 10402DE9 		push	{r4, lr}
  93              		.cfi_def_cfa_offset 8
  94              		.cfi_offset 4, -8
  95              		.cfi_offset 14, -4
  96              		.loc 1 101 57 view .LVU19
  97 0004 0040A0E1 		mov	r4, r0
  98              		.loc 1 109 3 view .LVU20
  99              		.syntax divided
 100              	@ 109 "../os/hal/src/i2c.c" 1
 101 0008 9FF021E3 		msr     CPSR_c, #0x9F
 102              	@ 0 "" 2
 103              		.loc 1 109 3 is_stmt 1 view .LVU21
 104              		.loc 1 109 14 view .LVU22
 105              		.loc 1 110 3 view .LVU23
 106              		.loc 1 110 16 is_stmt 0 view .LVU24
 107              		.arm
 108              		.syntax unified
 109 000c 041080E5 		str	r1, [r0, #4]
 110              		.loc 1 111 3 is_stmt 1 view .LVU25
 111 0010 FEFFFFEB 		bl	i2c_lld_start
 112              	.LVL5:
 113              		.loc 1 112 3 view .LVU26
 114              		.loc 1 112 15 is_stmt 0 view .LVU27
ARM GAS  /tmp/ccplGi6c.s 			page 3


 115 0014 0230A0E3 		mov	r3, #2
 116 0018 0030C4E5 		strb	r3, [r4]
 117              		.loc 1 113 3 is_stmt 1 view .LVU28
 118              		.loc 1 113 3 view .LVU29
 119              		.syntax divided
 120              	@ 113 "../os/hal/src/i2c.c" 1
 121 001c 1FF021E3 		msr     CPSR_c, #0x1F
 122              	@ 0 "" 2
 123              		.loc 1 113 16 view .LVU30
 124              		.loc 1 114 1 is_stmt 0 view .LVU31
 125              		.arm
 126              		.syntax unified
 127 0020 1080BDE8 		pop	{r4, pc}
 128              		.cfi_endproc
 129              	.LFE9:
 130              		.size	i2cStart, .-i2cStart
 131              		.section	.text.i2cStop,"ax",%progbits
 132              		.align	2
 133              		.global	i2cStop
 134              		.syntax unified
 135              		.arm
 136              		.fpu softvfp
 137              		.type	i2cStop, %function
 138              	i2cStop:
 139              	.LVL6:
 140              	.LFB10:
 141              		.loc 1 123 31 is_stmt 1 view -0
 142              		.cfi_startproc
 143              		@ args = 0, pretend = 0, frame = 0
 144              		@ frame_needed = 0, uses_anonymous_args = 0
 145              		.loc 1 125 3 view .LVU33
 146              		.loc 1 125 38 view .LVU34
 147              		.loc 1 126 3 view .LVU35
 148              		.loc 1 129 31 view .LVU36
 149              		.loc 1 131 3 view .LVU37
 150              		.loc 1 123 31 is_stmt 0 view .LVU38
 151 0000 10402DE9 		push	{r4, lr}
 152              		.cfi_def_cfa_offset 8
 153              		.cfi_offset 4, -8
 154              		.cfi_offset 14, -4
 155              		.loc 1 123 31 view .LVU39
 156 0004 0040A0E1 		mov	r4, r0
 157              		.loc 1 131 3 view .LVU40
 158              		.syntax divided
 159              	@ 131 "../os/hal/src/i2c.c" 1
 160 0008 9FF021E3 		msr     CPSR_c, #0x9F
 161              	@ 0 "" 2
 162              		.loc 1 131 3 is_stmt 1 view .LVU41
 163              		.loc 1 131 14 view .LVU42
 164              		.loc 1 132 3 view .LVU43
 165              		.arm
 166              		.syntax unified
 167 000c FEFFFFEB 		bl	i2c_lld_stop
 168              	.LVL7:
 169              		.loc 1 133 3 view .LVU44
 170              		.loc 1 133 15 is_stmt 0 view .LVU45
 171 0010 0130A0E3 		mov	r3, #1
ARM GAS  /tmp/ccplGi6c.s 			page 4


 172 0014 0030C4E5 		strb	r3, [r4]
 173              		.loc 1 134 3 is_stmt 1 view .LVU46
 174              		.loc 1 134 3 view .LVU47
 175              		.syntax divided
 176              	@ 134 "../os/hal/src/i2c.c" 1
 177 0018 1FF021E3 		msr     CPSR_c, #0x1F
 178              	@ 0 "" 2
 179              		.loc 1 134 16 view .LVU48
 180              		.loc 1 135 1 is_stmt 0 view .LVU49
 181              		.arm
 182              		.syntax unified
 183 001c 1080BDE8 		pop	{r4, pc}
 184              		.cfi_endproc
 185              	.LFE10:
 186              		.size	i2cStop, .-i2cStop
 187              		.section	.text.i2cGetErrors,"ax",%progbits
 188              		.align	2
 189              		.global	i2cGetErrors
 190              		.syntax unified
 191              		.arm
 192              		.fpu softvfp
 193              		.type	i2cGetErrors, %function
 194              	i2cGetErrors:
 195              	.LVL8:
 196              	.LFB11:
 197              		.loc 1 145 42 is_stmt 1 view -0
 198              		.cfi_startproc
 199              		@ args = 0, pretend = 0, frame = 0
 200              		@ frame_needed = 0, uses_anonymous_args = 0
 201              		@ link register save eliminated.
 202              		.loc 1 147 3 view .LVU51
 203              		.loc 1 147 43 view .LVU52
 204              		.loc 1 149 3 view .LVU53
 205              		.loc 1 150 1 is_stmt 0 view .LVU54
 206 0000 080090E5 		ldr	r0, [r0, #8]
 207              	.LVL9:
 208              		.loc 1 150 1 view .LVU55
 209 0004 1EFF2FE1 		bx	lr
 210              		.cfi_endproc
 211              	.LFE11:
 212              		.size	i2cGetErrors, .-i2cGetErrors
 213              		.section	.text.i2cMasterTransmitTimeout,"ax",%progbits
 214              		.align	2
 215              		.global	i2cMasterTransmitTimeout
 216              		.syntax unified
 217              		.arm
 218              		.fpu softvfp
 219              		.type	i2cMasterTransmitTimeout, %function
 220              	i2cMasterTransmitTimeout:
 221              	.LVL10:
 222              	.LFB12:
 223              		.loc 1 184 51 is_stmt 1 view -0
 224              		.cfi_startproc
 225              		@ args = 12, pretend = 0, frame = 0
 226              		@ frame_needed = 0, uses_anonymous_args = 0
 227              		.loc 1 185 3 view .LVU57
 228              		.loc 1 187 3 view .LVU58
ARM GAS  /tmp/ccplGi6c.s 			page 5


 229              		.loc 1 191 41 view .LVU59
 230              		.loc 1 193 3 view .LVU60
 231              		.loc 1 194 61 view .LVU61
 232              		.loc 1 196 3 view .LVU62
 233              		.loc 1 184 51 is_stmt 0 view .LVU63
 234 0000 70402DE9 		push	{r4, r5, r6, lr}
 235              		.cfi_def_cfa_offset 16
 236              		.cfi_offset 4, -16
 237              		.cfi_offset 5, -12
 238              		.cfi_offset 6, -8
 239              		.cfi_offset 14, -4
 240 0004 10D04DE2 		sub	sp, sp, #16
 241              		.cfi_def_cfa_offset 32
 242              		.loc 1 184 51 view .LVU64
 243 0008 0040A0E1 		mov	r4, r0
 244 000c 20C09DE5 		ldr	ip, [sp, #32]
 245 0010 28609DE5 		ldr	r6, [sp, #40]
 246              		.loc 1 196 3 view .LVU65
 247              		.syntax divided
 248              	@ 196 "../os/hal/src/i2c.c" 1
 249 0014 9FF021E3 		msr     CPSR_c, #0x9F
 250              	@ 0 "" 2
 251              		.loc 1 196 3 is_stmt 1 view .LVU66
 252              		.loc 1 196 14 view .LVU67
 253              		.loc 1 197 3 view .LVU68
 254              		.loc 1 198 15 is_stmt 0 view .LVU69
 255              		.arm
 256              		.syntax unified
 257 0018 03E0A0E3 		mov	lr, #3
 258              		.loc 1 197 16 view .LVU70
 259 001c 0050A0E3 		mov	r5, #0
 260              		.loc 1 199 12 view .LVU71
 261 0020 00C08DE5 		str	ip, [sp]
 262 0024 24C09DE5 		ldr	ip, [sp, #36]
 263 0028 08608DE5 		str	r6, [sp, #8]
 264 002c 7CC0EFE6 		uxtb	ip, ip
 265              		.loc 1 197 16 view .LVU72
 266 0030 085080E5 		str	r5, [r0, #8]
 267              		.loc 1 198 3 is_stmt 1 view .LVU73
 268              		.loc 1 198 15 is_stmt 0 view .LVU74
 269 0034 00E0C0E5 		strb	lr, [r0]
 270              		.loc 1 199 3 is_stmt 1 view .LVU75
 271              		.loc 1 199 12 is_stmt 0 view .LVU76
 272 0038 04C08DE5 		str	ip, [sp, #4]
 273 003c FEFFFFEB 		bl	i2c_lld_master_transmit_timeout
 274              	.LVL11:
 275              		.loc 1 201 3 is_stmt 1 view .LVU77
 276              		.loc 1 201 6 is_stmt 0 view .LVU78
 277 0040 010070E3 		cmn	r0, #1
 278              		.loc 1 202 17 view .LVU79
 279 0044 0230A013 		movne	r3, #2
 280 0048 0530A003 		moveq	r3, #5
 281 004c 0030C4E5 		strb	r3, [r4]
 282              		.loc 1 205 3 is_stmt 1 view .LVU80
 283              		.loc 1 205 3 view .LVU81
 284              		.syntax divided
 285              	@ 205 "../os/hal/src/i2c.c" 1
ARM GAS  /tmp/ccplGi6c.s 			page 6


 286 0050 1FF021E3 		msr     CPSR_c, #0x1F
 287              	@ 0 "" 2
 288              		.loc 1 205 16 view .LVU82
 289              		.loc 1 206 3 view .LVU83
 290              		.loc 1 207 1 is_stmt 0 view .LVU84
 291              		.arm
 292              		.syntax unified
 293 0054 10D08DE2 		add	sp, sp, #16
 294              		.cfi_def_cfa_offset 16
 295              		@ sp needed
 296 0058 7080BDE8 		pop	{r4, r5, r6, pc}
 297              		.loc 1 207 1 view .LVU85
 298              		.cfi_endproc
 299              	.LFE12:
 300              		.size	i2cMasterTransmitTimeout, .-i2cMasterTransmitTimeout
 301              		.section	.text.i2cMasterReceiveTimeout,"ax",%progbits
 302              		.align	2
 303              		.global	i2cMasterReceiveTimeout
 304              		.syntax unified
 305              		.arm
 306              		.fpu softvfp
 307              		.type	i2cMasterReceiveTimeout, %function
 308              	i2cMasterReceiveTimeout:
 309              	.LVL12:
 310              	.LFB13:
 311              		.loc 1 233 49 is_stmt 1 view -0
 312              		.cfi_startproc
 313              		@ args = 4, pretend = 0, frame = 0
 314              		@ frame_needed = 0, uses_anonymous_args = 0
 315              		.loc 1 235 3 view .LVU87
 316              		.loc 1 237 3 view .LVU88
 317              		.loc 1 240 40 view .LVU89
 318              		.loc 1 242 3 view .LVU90
 319              		.loc 1 243 53 view .LVU91
 320              		.loc 1 245 3 view .LVU92
 321              		.loc 1 233 49 is_stmt 0 view .LVU93
 322 0000 30402DE9 		push	{r4, r5, lr}
 323              		.cfi_def_cfa_offset 12
 324              		.cfi_offset 4, -12
 325              		.cfi_offset 5, -8
 326              		.cfi_offset 14, -4
 327 0004 0CD04DE2 		sub	sp, sp, #12
 328              		.cfi_def_cfa_offset 24
 329              		.loc 1 233 49 view .LVU94
 330 0008 0040A0E1 		mov	r4, r0
 331 000c 18509DE5 		ldr	r5, [sp, #24]
 332              		.loc 1 245 3 view .LVU95
 333              		.syntax divided
 334              	@ 245 "../os/hal/src/i2c.c" 1
 335 0010 9FF021E3 		msr     CPSR_c, #0x9F
 336              	@ 0 "" 2
 337              		.loc 1 245 3 is_stmt 1 view .LVU96
 338              		.loc 1 245 14 view .LVU97
 339              		.loc 1 246 3 view .LVU98
 340              		.loc 1 246 16 is_stmt 0 view .LVU99
 341              		.arm
 342              		.syntax unified
ARM GAS  /tmp/ccplGi6c.s 			page 7


 343 0014 00E0A0E3 		mov	lr, #0
 344              		.loc 1 247 15 view .LVU100
 345 0018 04C0A0E3 		mov	ip, #4
 346              		.loc 1 248 12 view .LVU101
 347 001c 00508DE5 		str	r5, [sp]
 348              		.loc 1 246 16 view .LVU102
 349 0020 08E080E5 		str	lr, [r0, #8]
 350              		.loc 1 247 3 is_stmt 1 view .LVU103
 351              		.loc 1 247 15 is_stmt 0 view .LVU104
 352 0024 00C0C0E5 		strb	ip, [r0]
 353              		.loc 1 248 3 is_stmt 1 view .LVU105
 354              		.loc 1 248 12 is_stmt 0 view .LVU106
 355 0028 FEFFFFEB 		bl	i2c_lld_master_receive_timeout
 356              	.LVL13:
 357              		.loc 1 249 3 is_stmt 1 view .LVU107
 358              		.loc 1 249 6 is_stmt 0 view .LVU108
 359 002c 010070E3 		cmn	r0, #1
 360              		.loc 1 250 17 view .LVU109
 361 0030 0230A013 		movne	r3, #2
 362 0034 0530A003 		moveq	r3, #5
 363 0038 0030C4E5 		strb	r3, [r4]
 364              		.loc 1 253 3 is_stmt 1 view .LVU110
 365              		.loc 1 253 3 view .LVU111
 366              		.syntax divided
 367              	@ 253 "../os/hal/src/i2c.c" 1
 368 003c 1FF021E3 		msr     CPSR_c, #0x1F
 369              	@ 0 "" 2
 370              		.loc 1 253 16 view .LVU112
 371              		.loc 1 254 3 view .LVU113
 372              		.loc 1 255 1 is_stmt 0 view .LVU114
 373              		.arm
 374              		.syntax unified
 375 0040 0CD08DE2 		add	sp, sp, #12
 376              		.cfi_def_cfa_offset 12
 377              		@ sp needed
 378 0044 3080BDE8 		pop	{r4, r5, pc}
 379              		.loc 1 255 1 view .LVU115
 380              		.cfi_endproc
 381              	.LFE13:
 382              		.size	i2cMasterReceiveTimeout, .-i2cMasterReceiveTimeout
 383              		.section	.text.i2cAcquireBus,"ax",%progbits
 384              		.align	2
 385              		.global	i2cAcquireBus
 386              		.syntax unified
 387              		.arm
 388              		.fpu softvfp
 389              		.type	i2cAcquireBus, %function
 390              	i2cAcquireBus:
 391              	.LVL14:
 392              	.LFB14:
 393              		.loc 1 269 37 is_stmt 1 view -0
 394              		.cfi_startproc
 395              		@ args = 0, pretend = 0, frame = 0
 396              		@ frame_needed = 0, uses_anonymous_args = 0
 397              		@ link register save eliminated.
 398              		.loc 1 271 3 view .LVU117
 399              		.loc 1 271 44 view .LVU118
ARM GAS  /tmp/ccplGi6c.s 			page 8


 400              		.loc 1 274 3 view .LVU119
 401 0000 100080E2 		add	r0, r0, #16
 402              	.LVL15:
 403              		.loc 1 274 3 is_stmt 0 view .LVU120
 404 0004 FEFFFFEA 		b	chMtxLock
 405              	.LVL16:
 406              		.loc 1 274 3 view .LVU121
 407              		.cfi_endproc
 408              	.LFE14:
 409              		.size	i2cAcquireBus, .-i2cAcquireBus
 410              		.section	.text.i2cReleaseBus,"ax",%progbits
 411              		.align	2
 412              		.global	i2cReleaseBus
 413              		.syntax unified
 414              		.arm
 415              		.fpu softvfp
 416              		.type	i2cReleaseBus, %function
 417              	i2cReleaseBus:
 418              	.LVL17:
 419              	.LFB15:
 420              		.loc 1 289 37 is_stmt 1 view -0
 421              		.cfi_startproc
 422              		@ args = 0, pretend = 0, frame = 0
 423              		@ frame_needed = 0, uses_anonymous_args = 0
 424              		@ link register save eliminated.
 425              		.loc 1 291 3 view .LVU123
 426              		.loc 1 291 44 view .LVU124
 427              		.loc 1 294 3 view .LVU125
 428 0000 FEFFFFEA 		b	chMtxUnlock
 429              	.LVL18:
 430              		.loc 1 294 3 is_stmt 0 view .LVU126
 431              		.cfi_endproc
 432              	.LFE15:
 433              		.size	i2cReleaseBus, .-i2cReleaseBus
 434              		.text
 435              	.Letext0:
 436              		.file 2 "/usr/lib/gcc/arm-none-eabi/9.2.1/include/stddef.h"
 437              		.file 3 "/usr/lib/gcc/arm-none-eabi/9.2.1/include/stdint.h"
 438              		.file 4 "../os/ports/GCC/ARM/chtypes.h"
 439              		.file 5 "../os/kernel/include/chlists.h"
 440              		.file 6 "../os/kernel/include/chthreads.h"
 441              		.file 7 "../os/ports/GCC/ARM/chcore.h"
 442              		.file 8 "../os/kernel/include/chvt.h"
 443              		.file 9 "../os/kernel/include/chschd.h"
 444              		.file 10 "../os/kernel/include/chmtx.h"
 445              		.file 11 "../os/kernel/include/chevents.h"
 446              		.file 12 "../os/kernel/include/chregistry.h"
 447              		.file 13 "../os/kernel/include/chqueues.h"
 448              		.file 14 "../os/kernel/include/ch.h"
 449              		.file 15 "../os/hal/platforms/BCM2835/bcm2835.h"
 450              		.file 16 "../os/hal/platforms/BCM2835/pal_lld.h"
 451              		.file 17 "../os/hal/include/i2c.h"
 452              		.file 18 "../os/hal/platforms/BCM2835/i2c_lld.h"
 453              		.file 19 "../os/hal/include/serial.h"
 454              		.file 20 "../os/hal/include/spi.h"
 455              		.file 21 "../os/hal/platforms/BCM2835/spi_lld.h"
 456              		.file 22 "../os/hal/platforms/BCM2835/serial_lld.h"
ARM GAS  /tmp/ccplGi6c.s 			page 9


 457              		.section	.debug_info,"",%progbits
 458              	.Ldebug_info0:
 459 0000 41110000 		.4byte	0x1141
 460 0004 0400     		.2byte	0x4
 461 0006 00000000 		.4byte	.Ldebug_abbrev0
 462 000a 04       		.byte	0x4
 463 000b 01       		.uleb128 0x1
 464 000c 13000000 		.4byte	.LASF215
 465 0010 0C       		.byte	0xc
 466 0011 33060000 		.4byte	.LASF216
 467 0015 4D070000 		.4byte	.LASF217
 468 0019 00000000 		.4byte	.Ldebug_ranges0+0
 469 001d 00000000 		.4byte	0
 470 0021 00000000 		.4byte	.Ldebug_line0
 471 0025 02       		.uleb128 0x2
 472 0026 04       		.byte	0x4
 473 0027 05       		.byte	0x5
 474 0028 696E7400 		.ascii	"int\000"
 475 002c 03       		.uleb128 0x3
 476 002d 87030000 		.4byte	.LASF3
 477 0031 02       		.byte	0x2
 478 0032 D1       		.byte	0xd1
 479 0033 17       		.byte	0x17
 480 0034 38000000 		.4byte	0x38
 481 0038 04       		.uleb128 0x4
 482 0039 04       		.byte	0x4
 483 003a 07       		.byte	0x7
 484 003b AD030000 		.4byte	.LASF0
 485 003f 05       		.uleb128 0x5
 486 0040 38000000 		.4byte	0x38
 487 0044 04       		.uleb128 0x4
 488 0045 01       		.byte	0x1
 489 0046 06       		.byte	0x6
 490 0047 E0010000 		.4byte	.LASF1
 491 004b 04       		.uleb128 0x4
 492 004c 02       		.byte	0x2
 493 004d 05       		.byte	0x5
 494 004e 7C060000 		.4byte	.LASF2
 495 0052 03       		.uleb128 0x3
 496 0053 47060000 		.4byte	.LASF4
 497 0057 03       		.byte	0x3
 498 0058 28       		.byte	0x28
 499 0059 18       		.byte	0x18
 500 005a 5E000000 		.4byte	0x5e
 501 005e 04       		.uleb128 0x4
 502 005f 04       		.byte	0x4
 503 0060 05       		.byte	0x5
 504 0061 8B020000 		.4byte	.LASF5
 505 0065 04       		.uleb128 0x4
 506 0066 08       		.byte	0x8
 507 0067 05       		.byte	0x5
 508 0068 D2010000 		.4byte	.LASF6
 509 006c 03       		.uleb128 0x3
 510 006d F3080000 		.4byte	.LASF7
 511 0071 03       		.byte	0x3
 512 0072 2E       		.byte	0x2e
 513 0073 18       		.byte	0x18
ARM GAS  /tmp/ccplGi6c.s 			page 10


 514 0074 7D000000 		.4byte	0x7d
 515 0078 06       		.uleb128 0x6
 516 0079 6C000000 		.4byte	0x6c
 517 007d 04       		.uleb128 0x4
 518 007e 01       		.byte	0x1
 519 007f 08       		.byte	0x8
 520 0080 4F060000 		.4byte	.LASF8
 521 0084 03       		.uleb128 0x3
 522 0085 D6020000 		.4byte	.LASF9
 523 0089 03       		.byte	0x3
 524 008a 31       		.byte	0x31
 525 008b 19       		.byte	0x19
 526 008c 90000000 		.4byte	0x90
 527 0090 04       		.uleb128 0x4
 528 0091 02       		.byte	0x2
 529 0092 07       		.byte	0x7
 530 0093 3F040000 		.4byte	.LASF10
 531 0097 03       		.uleb128 0x3
 532 0098 23070000 		.4byte	.LASF11
 533 009c 03       		.byte	0x3
 534 009d 34       		.byte	0x34
 535 009e 19       		.byte	0x19
 536 009f A8000000 		.4byte	0xa8
 537 00a3 05       		.uleb128 0x5
 538 00a4 97000000 		.4byte	0x97
 539 00a8 04       		.uleb128 0x4
 540 00a9 04       		.byte	0x4
 541 00aa 07       		.byte	0x7
 542 00ab E6030000 		.4byte	.LASF12
 543 00af 04       		.uleb128 0x4
 544 00b0 08       		.byte	0x8
 545 00b1 07       		.byte	0x7
 546 00b2 2A010000 		.4byte	.LASF13
 547 00b6 03       		.uleb128 0x3
 548 00b7 80040000 		.4byte	.LASF14
 549 00bb 04       		.byte	0x4
 550 00bc 2A       		.byte	0x2a
 551 00bd 19       		.byte	0x19
 552 00be 6C000000 		.4byte	0x6c
 553 00c2 03       		.uleb128 0x3
 554 00c3 AD020000 		.4byte	.LASF15
 555 00c7 04       		.byte	0x4
 556 00c8 2B       		.byte	0x2b
 557 00c9 19       		.byte	0x19
 558 00ca 6C000000 		.4byte	0x6c
 559 00ce 03       		.uleb128 0x3
 560 00cf D5050000 		.4byte	.LASF16
 561 00d3 04       		.byte	0x4
 562 00d4 2C       		.byte	0x2c
 563 00d5 19       		.byte	0x19
 564 00d6 6C000000 		.4byte	0x6c
 565 00da 03       		.uleb128 0x3
 566 00db 66020000 		.4byte	.LASF17
 567 00df 04       		.byte	0x4
 568 00e0 2D       		.byte	0x2d
 569 00e1 19       		.byte	0x19
 570 00e2 6C000000 		.4byte	0x6c
ARM GAS  /tmp/ccplGi6c.s 			page 11


 571 00e6 03       		.uleb128 0x3
 572 00e7 12060000 		.4byte	.LASF18
 573 00eb 04       		.byte	0x4
 574 00ec 2E       		.byte	0x2e
 575 00ed 19       		.byte	0x19
 576 00ee 97000000 		.4byte	0x97
 577 00f2 03       		.uleb128 0x3
 578 00f3 64040000 		.4byte	.LASF19
 579 00f7 04       		.byte	0x4
 580 00f8 2F       		.byte	0x2f
 581 00f9 19       		.byte	0x19
 582 00fa 52000000 		.4byte	0x52
 583 00fe 03       		.uleb128 0x3
 584 00ff 94040000 		.4byte	.LASF20
 585 0103 04       		.byte	0x4
 586 0104 31       		.byte	0x31
 587 0105 19       		.byte	0x19
 588 0106 97000000 		.4byte	0x97
 589 010a 03       		.uleb128 0x3
 590 010b 8E080000 		.4byte	.LASF21
 591 010f 04       		.byte	0x4
 592 0110 32       		.byte	0x32
 593 0111 19       		.byte	0x19
 594 0112 97000000 		.4byte	0x97
 595 0116 03       		.uleb128 0x3
 596 0117 F7070000 		.4byte	.LASF22
 597 011b 04       		.byte	0x4
 598 011c 33       		.byte	0x33
 599 011d 19       		.byte	0x19
 600 011e 97000000 		.4byte	0x97
 601 0122 05       		.uleb128 0x5
 602 0123 16010000 		.4byte	0x116
 603 0127 03       		.uleb128 0x3
 604 0128 E1060000 		.4byte	.LASF23
 605 012c 05       		.byte	0x5
 606 012d 23       		.byte	0x23
 607 012e 17       		.byte	0x17
 608 012f 33010000 		.4byte	0x133
 609 0133 07       		.uleb128 0x7
 610 0134 E1060000 		.4byte	.LASF23
 611 0138 44       		.byte	0x44
 612 0139 06       		.byte	0x6
 613 013a 57       		.byte	0x57
 614 013b 08       		.byte	0x8
 615 013c 38020000 		.4byte	0x238
 616 0140 08       		.uleb128 0x8
 617 0141 BB060000 		.4byte	.LASF24
 618 0145 06       		.byte	0x6
 619 0146 58       		.byte	0x58
 620 0147 1A       		.byte	0x1a
 621 0148 5C020000 		.4byte	0x25c
 622 014c 00       		.byte	0
 623 014d 08       		.uleb128 0x8
 624 014e FD050000 		.4byte	.LASF25
 625 0152 06       		.byte	0x6
 626 0153 5A       		.byte	0x5a
 627 0154 1A       		.byte	0x1a
ARM GAS  /tmp/ccplGi6c.s 			page 12


 628 0155 5C020000 		.4byte	0x25c
 629 0159 04       		.byte	0x4
 630 015a 08       		.uleb128 0x8
 631 015b A0010000 		.4byte	.LASF26
 632 015f 06       		.byte	0x6
 633 0160 5C       		.byte	0x5c
 634 0161 19       		.byte	0x19
 635 0162 E6000000 		.4byte	0xe6
 636 0166 08       		.byte	0x8
 637 0167 08       		.uleb128 0x8
 638 0168 A9090000 		.4byte	.LASF27
 639 016c 06       		.byte	0x6
 640 016d 5D       		.byte	0x5d
 641 016e 19       		.byte	0x19
 642 016f 27030000 		.4byte	0x327
 643 0173 0C       		.byte	0xc
 644 0174 08       		.uleb128 0x8
 645 0175 08030000 		.4byte	.LASF28
 646 0179 06       		.byte	0x6
 647 017a 5F       		.byte	0x5f
 648 017b 1A       		.byte	0x1a
 649 017c 5C020000 		.4byte	0x25c
 650 0180 10       		.byte	0x10
 651 0181 08       		.uleb128 0x8
 652 0182 50050000 		.4byte	.LASF29
 653 0186 06       		.byte	0x6
 654 0187 60       		.byte	0x60
 655 0188 1A       		.byte	0x1a
 656 0189 5C020000 		.4byte	0x25c
 657 018d 14       		.byte	0x14
 658 018e 08       		.uleb128 0x8
 659 018f 34090000 		.4byte	.LASF30
 660 0193 06       		.byte	0x6
 661 0194 67       		.byte	0x67
 662 0195 1A       		.byte	0x1a
 663 0196 88050000 		.4byte	0x588
 664 019a 18       		.byte	0x18
 665 019b 08       		.uleb128 0x8
 666 019c 86060000 		.4byte	.LASF31
 667 01a0 06       		.byte	0x6
 668 01a1 72       		.byte	0x72
 669 01a2 19       		.byte	0x19
 670 01a3 C2000000 		.4byte	0xc2
 671 01a7 1C       		.byte	0x1c
 672 01a8 08       		.uleb128 0x8
 673 01a9 D9060000 		.4byte	.LASF32
 674 01ad 06       		.byte	0x6
 675 01ae 76       		.byte	0x76
 676 01af 19       		.byte	0x19
 677 01b0 B6000000 		.4byte	0xb6
 678 01b4 1D       		.byte	0x1d
 679 01b5 08       		.uleb128 0x8
 680 01b6 CC080000 		.4byte	.LASF33
 681 01ba 06       		.byte	0x6
 682 01bb 7B       		.byte	0x7b
 683 01bc 19       		.byte	0x19
 684 01bd CE000000 		.4byte	0xce
ARM GAS  /tmp/ccplGi6c.s 			page 13


 685 01c1 1E       		.byte	0x1e
 686 01c2 08       		.uleb128 0x8
 687 01c3 8E060000 		.4byte	.LASF34
 688 01c7 06       		.byte	0x6
 689 01c8 81       		.byte	0x81
 690 01c9 19       		.byte	0x19
 691 01ca DA000000 		.4byte	0xda
 692 01ce 1F       		.byte	0x1f
 693 01cf 08       		.uleb128 0x8
 694 01d0 29080000 		.4byte	.LASF35
 695 01d4 06       		.byte	0x6
 696 01d5 88       		.byte	0x88
 697 01d6 19       		.byte	0x19
 698 01d7 22010000 		.4byte	0x122
 699 01db 20       		.byte	0x20
 700 01dc 09       		.uleb128 0x9
 701 01dd 705F7500 		.ascii	"p_u\000"
 702 01e1 06       		.byte	0x6
 703 01e2 AD       		.byte	0xad
 704 01e3 19       		.byte	0x19
 705 01e4 4E050000 		.4byte	0x54e
 706 01e8 24       		.byte	0x24
 707 01e9 08       		.uleb128 0x8
 708 01ea AF090000 		.4byte	.LASF36
 709 01ee 06       		.byte	0x6
 710 01ef B2       		.byte	0xb2
 711 01f0 19       		.byte	0x19
 712 01f1 85020000 		.4byte	0x285
 713 01f5 28       		.byte	0x28
 714 01f6 08       		.uleb128 0x8
 715 01f7 54080000 		.4byte	.LASF37
 716 01fb 06       		.byte	0x6
 717 01fc B8       		.byte	0xb8
 718 01fd 19       		.byte	0x19
 719 01fe 62020000 		.4byte	0x262
 720 0202 2C       		.byte	0x2c
 721 0203 08       		.uleb128 0x8
 722 0204 0D000000 		.4byte	.LASF38
 723 0208 06       		.byte	0x6
 724 0209 BC       		.byte	0xbc
 725 020a 19       		.byte	0x19
 726 020b F2000000 		.4byte	0xf2
 727 020f 34       		.byte	0x34
 728 0210 08       		.uleb128 0x8
 729 0211 0E070000 		.4byte	.LASF39
 730 0215 06       		.byte	0x6
 731 0216 C2       		.byte	0xc2
 732 0217 19       		.byte	0x19
 733 0218 FE000000 		.4byte	0xfe
 734 021c 38       		.byte	0x38
 735 021d 08       		.uleb128 0x8
 736 021e 72060000 		.4byte	.LASF40
 737 0222 06       		.byte	0x6
 738 0223 C9       		.byte	0xc9
 739 0224 1A       		.byte	0x1a
 740 0225 9A050000 		.4byte	0x59a
 741 0229 3C       		.byte	0x3c
ARM GAS  /tmp/ccplGi6c.s 			page 14


 742 022a 08       		.uleb128 0x8
 743 022b 01080000 		.4byte	.LASF41
 744 022f 06       		.byte	0x6
 745 0230 CD       		.byte	0xcd
 746 0231 19       		.byte	0x19
 747 0232 E6000000 		.4byte	0xe6
 748 0236 40       		.byte	0x40
 749 0237 00       		.byte	0
 750 0238 0A       		.uleb128 0xa
 751 0239 08       		.byte	0x8
 752 023a 05       		.byte	0x5
 753 023b 5A       		.byte	0x5a
 754 023c 09       		.byte	0x9
 755 023d 5C020000 		.4byte	0x25c
 756 0241 08       		.uleb128 0x8
 757 0242 BB060000 		.4byte	.LASF24
 758 0246 05       		.byte	0x5
 759 0247 5B       		.byte	0x5b
 760 0248 1A       		.byte	0x1a
 761 0249 5C020000 		.4byte	0x25c
 762 024d 00       		.byte	0
 763 024e 08       		.uleb128 0x8
 764 024f FD050000 		.4byte	.LASF25
 765 0253 05       		.byte	0x5
 766 0254 5D       		.byte	0x5d
 767 0255 1A       		.byte	0x1a
 768 0256 5C020000 		.4byte	0x25c
 769 025a 04       		.byte	0x4
 770 025b 00       		.byte	0
 771 025c 0B       		.uleb128 0xb
 772 025d 04       		.byte	0x4
 773 025e 27010000 		.4byte	0x127
 774 0262 03       		.uleb128 0x3
 775 0263 6E050000 		.4byte	.LASF42
 776 0267 05       		.byte	0x5
 777 0268 5F       		.byte	0x5f
 778 0269 03       		.byte	0x3
 779 026a 38020000 		.4byte	0x238
 780 026e 0A       		.uleb128 0xa
 781 026f 04       		.byte	0x4
 782 0270 05       		.byte	0x5
 783 0271 64       		.byte	0x64
 784 0272 09       		.byte	0x9
 785 0273 85020000 		.4byte	0x285
 786 0277 08       		.uleb128 0x8
 787 0278 BB060000 		.4byte	.LASF24
 788 027c 05       		.byte	0x5
 789 027d 66       		.byte	0x66
 790 027e 16       		.byte	0x16
 791 027f 5C020000 		.4byte	0x25c
 792 0283 00       		.byte	0
 793 0284 00       		.byte	0
 794 0285 03       		.uleb128 0x3
 795 0286 88040000 		.4byte	.LASF43
 796 028a 05       		.byte	0x5
 797 028b 69       		.byte	0x69
 798 028c 03       		.byte	0x3
ARM GAS  /tmp/ccplGi6c.s 			page 15


 799 028d 6E020000 		.4byte	0x26e
 800 0291 03       		.uleb128 0x3
 801 0292 BE040000 		.4byte	.LASF44
 802 0296 07       		.byte	0x7
 803 0297 9D       		.byte	0x9d
 804 0298 12       		.byte	0x12
 805 0299 97000000 		.4byte	0x97
 806 029d 03       		.uleb128 0x3
 807 029e 69030000 		.4byte	.LASF45
 808 02a2 07       		.byte	0x7
 809 02a3 A2       		.byte	0xa2
 810 02a4 0F       		.byte	0xf
 811 02a5 A9020000 		.4byte	0x2a9
 812 02a9 0C       		.uleb128 0xc
 813 02aa 04       		.byte	0x4
 814 02ab 07       		.uleb128 0x7
 815 02ac 4D080000 		.4byte	.LASF46
 816 02b0 24       		.byte	0x24
 817 02b1 07       		.byte	0x7
 818 02b2 B9       		.byte	0xb9
 819 02b3 08       		.byte	0x8
 820 02b4 27030000 		.4byte	0x327
 821 02b8 09       		.uleb128 0x9
 822 02b9 723400   		.ascii	"r4\000"
 823 02bc 07       		.byte	0x7
 824 02bd BA       		.byte	0xba
 825 02be 11       		.byte	0x11
 826 02bf 9D020000 		.4byte	0x29d
 827 02c3 00       		.byte	0
 828 02c4 09       		.uleb128 0x9
 829 02c5 723500   		.ascii	"r5\000"
 830 02c8 07       		.byte	0x7
 831 02c9 BB       		.byte	0xbb
 832 02ca 11       		.byte	0x11
 833 02cb 9D020000 		.4byte	0x29d
 834 02cf 04       		.byte	0x4
 835 02d0 09       		.uleb128 0x9
 836 02d1 723600   		.ascii	"r6\000"
 837 02d4 07       		.byte	0x7
 838 02d5 BC       		.byte	0xbc
 839 02d6 11       		.byte	0x11
 840 02d7 9D020000 		.4byte	0x29d
 841 02db 08       		.byte	0x8
 842 02dc 09       		.uleb128 0x9
 843 02dd 723700   		.ascii	"r7\000"
 844 02e0 07       		.byte	0x7
 845 02e1 BD       		.byte	0xbd
 846 02e2 11       		.byte	0x11
 847 02e3 9D020000 		.4byte	0x29d
 848 02e7 0C       		.byte	0xc
 849 02e8 09       		.uleb128 0x9
 850 02e9 723800   		.ascii	"r8\000"
 851 02ec 07       		.byte	0x7
 852 02ed BE       		.byte	0xbe
 853 02ee 11       		.byte	0x11
 854 02ef 9D020000 		.4byte	0x29d
 855 02f3 10       		.byte	0x10
ARM GAS  /tmp/ccplGi6c.s 			page 16


 856 02f4 09       		.uleb128 0x9
 857 02f5 723900   		.ascii	"r9\000"
 858 02f8 07       		.byte	0x7
 859 02f9 BF       		.byte	0xbf
 860 02fa 11       		.byte	0x11
 861 02fb 9D020000 		.4byte	0x29d
 862 02ff 14       		.byte	0x14
 863 0300 09       		.uleb128 0x9
 864 0301 72313000 		.ascii	"r10\000"
 865 0305 07       		.byte	0x7
 866 0306 C0       		.byte	0xc0
 867 0307 11       		.byte	0x11
 868 0308 9D020000 		.4byte	0x29d
 869 030c 18       		.byte	0x18
 870 030d 09       		.uleb128 0x9
 871 030e 72313100 		.ascii	"r11\000"
 872 0312 07       		.byte	0x7
 873 0313 C1       		.byte	0xc1
 874 0314 11       		.byte	0x11
 875 0315 9D020000 		.4byte	0x29d
 876 0319 1C       		.byte	0x1c
 877 031a 09       		.uleb128 0x9
 878 031b 6C7200   		.ascii	"lr\000"
 879 031e 07       		.byte	0x7
 880 031f C2       		.byte	0xc2
 881 0320 11       		.byte	0x11
 882 0321 9D020000 		.4byte	0x29d
 883 0325 20       		.byte	0x20
 884 0326 00       		.byte	0
 885 0327 07       		.uleb128 0x7
 886 0328 37040000 		.4byte	.LASF47
 887 032c 04       		.byte	0x4
 888 032d 07       		.byte	0x7
 889 032e CA       		.byte	0xca
 890 032f 08       		.byte	0x8
 891 0330 42030000 		.4byte	0x342
 892 0334 09       		.uleb128 0x9
 893 0335 72313300 		.ascii	"r13\000"
 894 0339 07       		.byte	0x7
 895 033a CB       		.byte	0xcb
 896 033b 12       		.byte	0x12
 897 033c 42030000 		.4byte	0x342
 898 0340 00       		.byte	0
 899 0341 00       		.byte	0
 900 0342 0B       		.uleb128 0xb
 901 0343 04       		.byte	0x4
 902 0344 AB020000 		.4byte	0x2ab
 903 0348 03       		.uleb128 0x3
 904 0349 0C080000 		.4byte	.LASF48
 905 034d 08       		.byte	0x8
 906 034e 4E       		.byte	0x4e
 907 034f 10       		.byte	0x10
 908 0350 54030000 		.4byte	0x354
 909 0354 0B       		.uleb128 0xb
 910 0355 04       		.byte	0x4
 911 0356 5A030000 		.4byte	0x35a
 912 035a 0D       		.uleb128 0xd
ARM GAS  /tmp/ccplGi6c.s 			page 17


 913 035b 65030000 		.4byte	0x365
 914 035f 0E       		.uleb128 0xe
 915 0360 A9020000 		.4byte	0x2a9
 916 0364 00       		.byte	0
 917 0365 03       		.uleb128 0x3
 918 0366 40070000 		.4byte	.LASF49
 919 036a 08       		.byte	0x8
 920 036b 53       		.byte	0x53
 921 036c 1D       		.byte	0x1d
 922 036d 71030000 		.4byte	0x371
 923 0371 07       		.uleb128 0x7
 924 0372 40070000 		.4byte	.LASF49
 925 0376 14       		.byte	0x14
 926 0377 08       		.byte	0x8
 927 0378 5A       		.byte	0x5a
 928 0379 08       		.byte	0x8
 929 037a C0030000 		.4byte	0x3c0
 930 037e 08       		.uleb128 0x8
 931 037f BA030000 		.4byte	.LASF50
 932 0383 08       		.byte	0x8
 933 0384 5B       		.byte	0x5b
 934 0385 1A       		.byte	0x1a
 935 0386 C0030000 		.4byte	0x3c0
 936 038a 00       		.byte	0
 937 038b 08       		.uleb128 0x8
 938 038c 72030000 		.4byte	.LASF51
 939 0390 08       		.byte	0x8
 940 0391 5D       		.byte	0x5d
 941 0392 1A       		.byte	0x1a
 942 0393 C0030000 		.4byte	0x3c0
 943 0397 04       		.byte	0x4
 944 0398 08       		.uleb128 0x8
 945 0399 F5040000 		.4byte	.LASF52
 946 039d 08       		.byte	0x8
 947 039e 5F       		.byte	0x5f
 948 039f 19       		.byte	0x19
 949 03a0 16010000 		.4byte	0x116
 950 03a4 08       		.byte	0x8
 951 03a5 08       		.uleb128 0x8
 952 03a6 1D050000 		.4byte	.LASF53
 953 03aa 08       		.byte	0x8
 954 03ab 60       		.byte	0x60
 955 03ac 19       		.byte	0x19
 956 03ad 48030000 		.4byte	0x348
 957 03b1 0C       		.byte	0xc
 958 03b2 08       		.uleb128 0x8
 959 03b3 7D080000 		.4byte	.LASF54
 960 03b7 08       		.byte	0x8
 961 03b8 62       		.byte	0x62
 962 03b9 1A       		.byte	0x1a
 963 03ba A9020000 		.4byte	0x2a9
 964 03be 10       		.byte	0x10
 965 03bf 00       		.byte	0
 966 03c0 0B       		.uleb128 0xb
 967 03c1 04       		.byte	0x4
 968 03c2 65030000 		.4byte	0x365
 969 03c6 0A       		.uleb128 0xa
ARM GAS  /tmp/ccplGi6c.s 			page 18


 970 03c7 10       		.byte	0x10
 971 03c8 08       		.byte	0x8
 972 03c9 6C       		.byte	0x6c
 973 03ca 09       		.byte	0x9
 974 03cb 04040000 		.4byte	0x404
 975 03cf 08       		.uleb128 0x8
 976 03d0 BA030000 		.4byte	.LASF50
 977 03d4 08       		.byte	0x8
 978 03d5 6D       		.byte	0x6d
 979 03d6 1A       		.byte	0x1a
 980 03d7 C0030000 		.4byte	0x3c0
 981 03db 00       		.byte	0
 982 03dc 08       		.uleb128 0x8
 983 03dd 72030000 		.4byte	.LASF51
 984 03e1 08       		.byte	0x8
 985 03e2 6F       		.byte	0x6f
 986 03e3 1A       		.byte	0x1a
 987 03e4 C0030000 		.4byte	0x3c0
 988 03e8 04       		.byte	0x4
 989 03e9 08       		.uleb128 0x8
 990 03ea F5040000 		.4byte	.LASF52
 991 03ee 08       		.byte	0x8
 992 03ef 71       		.byte	0x71
 993 03f0 19       		.byte	0x19
 994 03f1 16010000 		.4byte	0x116
 995 03f5 08       		.byte	0x8
 996 03f6 08       		.uleb128 0x8
 997 03f7 3B090000 		.4byte	.LASF55
 998 03fb 08       		.byte	0x8
 999 03fc 72       		.byte	0x72
 1000 03fd 19       		.byte	0x19
 1001 03fe 22010000 		.4byte	0x122
 1002 0402 0C       		.byte	0xc
 1003 0403 00       		.byte	0
 1004 0404 03       		.uleb128 0x3
 1005 0405 76090000 		.4byte	.LASF56
 1006 0409 08       		.byte	0x8
 1007 040a 73       		.byte	0x73
 1008 040b 03       		.byte	0x3
 1009 040c C6030000 		.4byte	0x3c6
 1010 0410 0F       		.uleb128 0xf
 1011 0411 0B010000 		.4byte	.LASF64
 1012 0415 08       		.byte	0x8
 1013 0416 D1       		.byte	0xd1
 1014 0417 0F       		.byte	0xf
 1015 0418 04040000 		.4byte	0x404
 1016 041c 0A       		.uleb128 0xa
 1017 041d 1C       		.byte	0x1c
 1018 041e 09       		.byte	0x9
 1019 041f 57       		.byte	0x57
 1020 0420 09       		.byte	0x9
 1021 0421 74040000 		.4byte	0x474
 1022 0425 08       		.uleb128 0x8
 1023 0426 38070000 		.4byte	.LASF57
 1024 042a 09       		.byte	0x9
 1025 042b 58       		.byte	0x58
 1026 042c 19       		.byte	0x19
ARM GAS  /tmp/ccplGi6c.s 			page 19


 1027 042d 62020000 		.4byte	0x262
 1028 0431 00       		.byte	0
 1029 0432 08       		.uleb128 0x8
 1030 0433 A4060000 		.4byte	.LASF58
 1031 0437 09       		.byte	0x9
 1032 0438 59       		.byte	0x59
 1033 0439 19       		.byte	0x19
 1034 043a E6000000 		.4byte	0xe6
 1035 043e 08       		.byte	0x8
 1036 043f 08       		.uleb128 0x8
 1037 0440 68050000 		.4byte	.LASF59
 1038 0444 09       		.byte	0x9
 1039 0445 5B       		.byte	0x5b
 1040 0446 19       		.byte	0x19
 1041 0447 27030000 		.4byte	0x327
 1042 044b 0C       		.byte	0xc
 1043 044c 08       		.uleb128 0x8
 1044 044d 61030000 		.4byte	.LASF60
 1045 0451 09       		.byte	0x9
 1046 0452 5E       		.byte	0x5e
 1047 0453 1A       		.byte	0x1a
 1048 0454 5C020000 		.4byte	0x25c
 1049 0458 10       		.byte	0x10
 1050 0459 08       		.uleb128 0x8
 1051 045a 95050000 		.4byte	.LASF61
 1052 045e 09       		.byte	0x9
 1053 045f 5F       		.byte	0x5f
 1054 0460 1A       		.byte	0x1a
 1055 0461 5C020000 		.4byte	0x25c
 1056 0465 14       		.byte	0x14
 1057 0466 08       		.uleb128 0x8
 1058 0467 8B050000 		.4byte	.LASF62
 1059 046b 09       		.byte	0x9
 1060 046c 62       		.byte	0x62
 1061 046d 1A       		.byte	0x1a
 1062 046e 5C020000 		.4byte	0x25c
 1063 0472 18       		.byte	0x18
 1064 0473 00       		.byte	0
 1065 0474 03       		.uleb128 0x3
 1066 0475 DA080000 		.4byte	.LASF63
 1067 0479 09       		.byte	0x9
 1068 047a 64       		.byte	0x64
 1069 047b 03       		.byte	0x3
 1070 047c 1C040000 		.4byte	0x41c
 1071 0480 0F       		.uleb128 0xf
 1072 0481 ED080000 		.4byte	.LASF65
 1073 0485 09       		.byte	0x9
 1074 0486 68       		.byte	0x68
 1075 0487 12       		.byte	0x12
 1076 0488 74040000 		.4byte	0x474
 1077 048c 07       		.uleb128 0x7
 1078 048d AB040000 		.4byte	.LASF66
 1079 0491 10       		.byte	0x10
 1080 0492 0A       		.byte	0xa
 1081 0493 25       		.byte	0x25
 1082 0494 10       		.byte	0x10
 1083 0495 C1040000 		.4byte	0x4c1
ARM GAS  /tmp/ccplGi6c.s 			page 20


 1084 0499 08       		.uleb128 0x8
 1085 049a 1A020000 		.4byte	.LASF67
 1086 049e 0A       		.byte	0xa
 1087 049f 26       		.byte	0x26
 1088 04a0 19       		.byte	0x19
 1089 04a1 62020000 		.4byte	0x262
 1090 04a5 00       		.byte	0
 1091 04a6 08       		.uleb128 0x8
 1092 04a7 8E090000 		.4byte	.LASF68
 1093 04ab 0A       		.byte	0xa
 1094 04ac 28       		.byte	0x28
 1095 04ad 1A       		.byte	0x1a
 1096 04ae 5C020000 		.4byte	0x25c
 1097 04b2 08       		.byte	0x8
 1098 04b3 08       		.uleb128 0x8
 1099 04b4 F0070000 		.4byte	.LASF69
 1100 04b8 0A       		.byte	0xa
 1101 04b9 2A       		.byte	0x2a
 1102 04ba 1A       		.byte	0x1a
 1103 04bb C1040000 		.4byte	0x4c1
 1104 04bf 0C       		.byte	0xc
 1105 04c0 00       		.byte	0
 1106 04c1 0B       		.uleb128 0xb
 1107 04c2 04       		.byte	0x4
 1108 04c3 8C040000 		.4byte	0x48c
 1109 04c7 03       		.uleb128 0x3
 1110 04c8 AB040000 		.4byte	.LASF66
 1111 04cc 0A       		.byte	0xa
 1112 04cd 2C       		.byte	0x2c
 1113 04ce 03       		.byte	0x3
 1114 04cf 8C040000 		.4byte	0x48c
 1115 04d3 03       		.uleb128 0x3
 1116 04d4 1F090000 		.4byte	.LASF70
 1117 04d8 0B       		.byte	0xb
 1118 04d9 25       		.byte	0x25
 1119 04da 1E       		.byte	0x1e
 1120 04db DF040000 		.4byte	0x4df
 1121 04df 07       		.uleb128 0x7
 1122 04e0 1F090000 		.4byte	.LASF70
 1123 04e4 10       		.byte	0x10
 1124 04e5 0B       		.byte	0xb
 1125 04e6 2A       		.byte	0x2a
 1126 04e7 08       		.byte	0x8
 1127 04e8 21050000 		.4byte	0x521
 1128 04ec 08       		.uleb128 0x8
 1129 04ed 71040000 		.4byte	.LASF71
 1130 04f1 0B       		.byte	0xb
 1131 04f2 2B       		.byte	0x2b
 1132 04f3 1A       		.byte	0x1a
 1133 04f4 21050000 		.4byte	0x521
 1134 04f8 00       		.byte	0
 1135 04f9 08       		.uleb128 0x8
 1136 04fa 5D060000 		.4byte	.LASF72
 1137 04fe 0B       		.byte	0xb
 1138 04ff 2E       		.byte	0x2e
 1139 0500 1A       		.byte	0x1a
 1140 0501 5C020000 		.4byte	0x25c
ARM GAS  /tmp/ccplGi6c.s 			page 21


 1141 0505 04       		.byte	0x4
 1142 0506 08       		.uleb128 0x8
 1143 0507 9D050000 		.4byte	.LASF73
 1144 050b 0B       		.byte	0xb
 1145 050c 30       		.byte	0x30
 1146 050d 19       		.byte	0x19
 1147 050e FE000000 		.4byte	0xfe
 1148 0512 08       		.byte	0x8
 1149 0513 08       		.uleb128 0x8
 1150 0514 69060000 		.4byte	.LASF74
 1151 0518 0B       		.byte	0xb
 1152 0519 33       		.byte	0x33
 1153 051a 19       		.byte	0x19
 1154 051b 0A010000 		.4byte	0x10a
 1155 051f 0C       		.byte	0xc
 1156 0520 00       		.byte	0
 1157 0521 0B       		.uleb128 0xb
 1158 0522 04       		.byte	0x4
 1159 0523 D3040000 		.4byte	0x4d3
 1160 0527 07       		.uleb128 0x7
 1161 0528 A1030000 		.4byte	.LASF75
 1162 052c 04       		.byte	0x4
 1163 052d 0B       		.byte	0xb
 1164 052e 3A       		.byte	0x3a
 1165 052f 10       		.byte	0x10
 1166 0530 42050000 		.4byte	0x542
 1167 0534 08       		.uleb128 0x8
 1168 0535 46090000 		.4byte	.LASF76
 1169 0539 0B       		.byte	0xb
 1170 053a 3B       		.byte	0x3b
 1171 053b 1A       		.byte	0x1a
 1172 053c 21050000 		.4byte	0x521
 1173 0540 00       		.byte	0
 1174 0541 00       		.byte	0
 1175 0542 03       		.uleb128 0x3
 1176 0543 A1030000 		.4byte	.LASF75
 1177 0547 0B       		.byte	0xb
 1178 0548 3E       		.byte	0x3e
 1179 0549 03       		.byte	0x3
 1180 054a 27050000 		.4byte	0x527
 1181 054e 10       		.uleb128 0x10
 1182 054f 04       		.byte	0x4
 1183 0550 06       		.byte	0x6
 1184 0551 8F       		.byte	0x8f
 1185 0552 03       		.byte	0x3
 1186 0553 88050000 		.4byte	0x588
 1187 0557 11       		.uleb128 0x11
 1188 0558 E7000000 		.4byte	.LASF77
 1189 055c 06       		.byte	0x6
 1190 055d 96       		.byte	0x96
 1191 055e 19       		.byte	0x19
 1192 055f F2000000 		.4byte	0xf2
 1193 0563 11       		.uleb128 0x11
 1194 0564 64010000 		.4byte	.LASF78
 1195 0568 06       		.byte	0x6
 1196 0569 9D       		.byte	0x9d
 1197 056a 19       		.byte	0x19
ARM GAS  /tmp/ccplGi6c.s 			page 22


 1198 056b F2000000 		.4byte	0xf2
 1199 056f 11       		.uleb128 0x11
 1200 0570 2D090000 		.4byte	.LASF79
 1201 0574 06       		.byte	0x6
 1202 0575 A4       		.byte	0xa4
 1203 0576 1A       		.byte	0x1a
 1204 0577 A9020000 		.4byte	0x2a9
 1205 057b 11       		.uleb128 0x11
 1206 057c B4060000 		.4byte	.LASF80
 1207 0580 06       		.byte	0x6
 1208 0581 AB       		.byte	0xab
 1209 0582 19       		.byte	0x19
 1210 0583 FE000000 		.4byte	0xfe
 1211 0587 00       		.byte	0
 1212 0588 0B       		.uleb128 0xb
 1213 0589 04       		.byte	0x4
 1214 058a 95050000 		.4byte	0x595
 1215 058e 04       		.uleb128 0x4
 1216 058f 01       		.byte	0x1
 1217 0590 08       		.byte	0x8
 1218 0591 BE070000 		.4byte	.LASF81
 1219 0595 06       		.uleb128 0x6
 1220 0596 8E050000 		.4byte	0x58e
 1221 059a 0B       		.uleb128 0xb
 1222 059b 04       		.byte	0x4
 1223 059c C7040000 		.4byte	0x4c7
 1224 05a0 0B       		.uleb128 0xb
 1225 05a1 04       		.byte	0x4
 1226 05a2 A6050000 		.4byte	0x5a6
 1227 05a6 12       		.uleb128 0x12
 1228 05a7 F2000000 		.4byte	0xf2
 1229 05ab B5050000 		.4byte	0x5b5
 1230 05af 0E       		.uleb128 0xe
 1231 05b0 A9020000 		.4byte	0x2a9
 1232 05b4 00       		.byte	0
 1233 05b5 0A       		.uleb128 0xa
 1234 05b6 16       		.byte	0x16
 1235 05b7 0C       		.byte	0xc
 1236 05b8 25       		.byte	0x25
 1237 05b9 09       		.byte	0x9
 1238 05ba A9060000 		.4byte	0x6a9
 1239 05be 08       		.uleb128 0x8
 1240 05bf 0E040000 		.4byte	.LASF82
 1241 05c3 0C       		.byte	0xc
 1242 05c4 26       		.byte	0x26
 1243 05c5 0D       		.byte	0xd
 1244 05c6 A9060000 		.4byte	0x6a9
 1245 05ca 00       		.byte	0
 1246 05cb 08       		.uleb128 0x8
 1247 05cc D6040000 		.4byte	.LASF83
 1248 05d0 0C       		.byte	0xc
 1249 05d1 27       		.byte	0x27
 1250 05d2 0D       		.byte	0xd
 1251 05d3 6C000000 		.4byte	0x6c
 1252 05d7 04       		.byte	0x4
 1253 05d8 08       		.uleb128 0x8
 1254 05d9 7B050000 		.4byte	.LASF84
ARM GAS  /tmp/ccplGi6c.s 			page 23


 1255 05dd 0C       		.byte	0xc
 1256 05de 28       		.byte	0x28
 1257 05df 0D       		.byte	0xd
 1258 05e0 6C000000 		.4byte	0x6c
 1259 05e4 05       		.byte	0x5
 1260 05e5 08       		.uleb128 0x8
 1261 05e6 60090000 		.4byte	.LASF85
 1262 05ea 0C       		.byte	0xc
 1263 05eb 29       		.byte	0x29
 1264 05ec 0D       		.byte	0xd
 1265 05ed 84000000 		.4byte	0x84
 1266 05f1 06       		.byte	0x6
 1267 05f2 08       		.uleb128 0x8
 1268 05f3 E8050000 		.4byte	.LASF86
 1269 05f7 0C       		.byte	0xc
 1270 05f8 2A       		.byte	0x2a
 1271 05f9 0D       		.byte	0xd
 1272 05fa 6C000000 		.4byte	0x6c
 1273 05fe 08       		.byte	0x8
 1274 05ff 08       		.uleb128 0x8
 1275 0600 25050000 		.4byte	.LASF87
 1276 0604 0C       		.byte	0xc
 1277 0605 2B       		.byte	0x2b
 1278 0606 0D       		.byte	0xd
 1279 0607 6C000000 		.4byte	0x6c
 1280 060b 09       		.byte	0x9
 1281 060c 08       		.uleb128 0x8
 1282 060d 4D010000 		.4byte	.LASF88
 1283 0611 0C       		.byte	0xc
 1284 0612 2C       		.byte	0x2c
 1285 0613 0D       		.byte	0xd
 1286 0614 6C000000 		.4byte	0x6c
 1287 0618 0A       		.byte	0xa
 1288 0619 08       		.uleb128 0x8
 1289 061a 2C070000 		.4byte	.LASF89
 1290 061e 0C       		.byte	0xc
 1291 061f 2D       		.byte	0x2d
 1292 0620 0D       		.byte	0xd
 1293 0621 6C000000 		.4byte	0x6c
 1294 0625 0B       		.byte	0xb
 1295 0626 08       		.uleb128 0x8
 1296 0627 B4080000 		.4byte	.LASF90
 1297 062b 0C       		.byte	0xc
 1298 062c 2E       		.byte	0x2e
 1299 062d 0D       		.byte	0xd
 1300 062e 6C000000 		.4byte	0x6c
 1301 0632 0C       		.byte	0xc
 1302 0633 08       		.uleb128 0x8
 1303 0634 F6060000 		.4byte	.LASF91
 1304 0638 0C       		.byte	0xc
 1305 0639 2F       		.byte	0x2f
 1306 063a 0D       		.byte	0xd
 1307 063b 6C000000 		.4byte	0x6c
 1308 063f 0D       		.byte	0xd
 1309 0640 08       		.uleb128 0x8
 1310 0641 00000000 		.4byte	.LASF92
 1311 0645 0C       		.byte	0xc
ARM GAS  /tmp/ccplGi6c.s 			page 24


 1312 0646 30       		.byte	0x30
 1313 0647 0D       		.byte	0xd
 1314 0648 6C000000 		.4byte	0x6c
 1315 064c 0E       		.byte	0xe
 1316 064d 08       		.uleb128 0x8
 1317 064e 3A050000 		.4byte	.LASF93
 1318 0652 0C       		.byte	0xc
 1319 0653 31       		.byte	0x31
 1320 0654 0D       		.byte	0xd
 1321 0655 6C000000 		.4byte	0x6c
 1322 0659 0F       		.byte	0xf
 1323 065a 08       		.uleb128 0x8
 1324 065b EC010000 		.4byte	.LASF94
 1325 065f 0C       		.byte	0xc
 1326 0660 32       		.byte	0x32
 1327 0661 0D       		.byte	0xd
 1328 0662 6C000000 		.4byte	0x6c
 1329 0666 10       		.byte	0x10
 1330 0667 08       		.uleb128 0x8
 1331 0668 A7010000 		.4byte	.LASF95
 1332 066c 0C       		.byte	0xc
 1333 066d 34       		.byte	0x34
 1334 066e 0D       		.byte	0xd
 1335 066f 6C000000 		.4byte	0x6c
 1336 0673 11       		.byte	0x11
 1337 0674 08       		.uleb128 0x8
 1338 0675 05020000 		.4byte	.LASF96
 1339 0679 0C       		.byte	0xc
 1340 067a 35       		.byte	0x35
 1341 067b 0D       		.byte	0xd
 1342 067c 6C000000 		.4byte	0x6c
 1343 0680 12       		.byte	0x12
 1344 0681 08       		.uleb128 0x8
 1345 0682 DE040000 		.4byte	.LASF97
 1346 0686 0C       		.byte	0xc
 1347 0687 36       		.byte	0x36
 1348 0688 0D       		.byte	0xd
 1349 0689 6C000000 		.4byte	0x6c
 1350 068d 13       		.byte	0x13
 1351 068e 08       		.uleb128 0x8
 1352 068f CA060000 		.4byte	.LASF98
 1353 0693 0C       		.byte	0xc
 1354 0694 37       		.byte	0x37
 1355 0695 0D       		.byte	0xd
 1356 0696 6C000000 		.4byte	0x6c
 1357 069a 14       		.byte	0x14
 1358 069b 08       		.uleb128 0x8
 1359 069c 98060000 		.4byte	.LASF99
 1360 06a0 0C       		.byte	0xc
 1361 06a1 39       		.byte	0x39
 1362 06a2 0D       		.byte	0xd
 1363 06a3 6C000000 		.4byte	0x6c
 1364 06a7 15       		.byte	0x15
 1365 06a8 00       		.byte	0
 1366 06a9 13       		.uleb128 0x13
 1367 06aa 8E050000 		.4byte	0x58e
 1368 06ae B9060000 		.4byte	0x6b9
ARM GAS  /tmp/ccplGi6c.s 			page 25


 1369 06b2 14       		.uleb128 0x14
 1370 06b3 38000000 		.4byte	0x38
 1371 06b7 03       		.byte	0x3
 1372 06b8 00       		.byte	0
 1373 06b9 03       		.uleb128 0x3
 1374 06ba E4020000 		.4byte	.LASF100
 1375 06be 0C       		.byte	0xc
 1376 06bf 3A       		.byte	0x3a
 1377 06c0 03       		.byte	0x3
 1378 06c1 B5050000 		.4byte	0x5b5
 1379 06c5 06       		.uleb128 0x6
 1380 06c6 B9060000 		.4byte	0x6b9
 1381 06ca 0F       		.uleb128 0xf
 1382 06cb F8030000 		.4byte	.LASF101
 1383 06cf 0C       		.byte	0xc
 1384 06d0 77       		.byte	0x77
 1385 06d1 1D       		.byte	0x1d
 1386 06d2 C5060000 		.4byte	0x6c5
 1387 06d6 03       		.uleb128 0x3
 1388 06d7 B1040000 		.4byte	.LASF102
 1389 06db 0D       		.byte	0xd
 1390 06dc 30       		.byte	0x30
 1391 06dd 1D       		.byte	0x1d
 1392 06de E2060000 		.4byte	0x6e2
 1393 06e2 07       		.uleb128 0x7
 1394 06e3 B1040000 		.4byte	.LASF102
 1395 06e7 24       		.byte	0x24
 1396 06e8 0D       		.byte	0xd
 1397 06e9 3E       		.byte	0x3e
 1398 06ea 08       		.byte	0x8
 1399 06eb 58070000 		.4byte	0x758
 1400 06ef 08       		.uleb128 0x8
 1401 06f0 C8010000 		.4byte	.LASF103
 1402 06f4 0D       		.byte	0xd
 1403 06f5 3F       		.byte	0x3f
 1404 06f6 19       		.byte	0x19
 1405 06f7 62020000 		.4byte	0x262
 1406 06fb 00       		.byte	0
 1407 06fc 08       		.uleb128 0x8
 1408 06fd 13050000 		.4byte	.LASF104
 1409 0701 0D       		.byte	0xd
 1410 0702 40       		.byte	0x40
 1411 0703 19       		.byte	0x19
 1412 0704 2C000000 		.4byte	0x2c
 1413 0708 08       		.byte	0x8
 1414 0709 08       		.uleb128 0x8
 1415 070a CD020000 		.4byte	.LASF105
 1416 070e 0D       		.byte	0xd
 1417 070f 41       		.byte	0x41
 1418 0710 1A       		.byte	0x1a
 1419 0711 7B070000 		.4byte	0x77b
 1420 0715 0C       		.byte	0xc
 1421 0716 08       		.uleb128 0x8
 1422 0717 24010000 		.4byte	.LASF106
 1423 071b 0D       		.byte	0xd
 1424 071c 42       		.byte	0x42
 1425 071d 1A       		.byte	0x1a
ARM GAS  /tmp/ccplGi6c.s 			page 26


 1426 071e 7B070000 		.4byte	0x77b
 1427 0722 10       		.byte	0x10
 1428 0723 08       		.uleb128 0x8
 1429 0724 60050000 		.4byte	.LASF107
 1430 0728 0D       		.byte	0xd
 1431 0729 44       		.byte	0x44
 1432 072a 1A       		.byte	0x1a
 1433 072b 7B070000 		.4byte	0x77b
 1434 072f 14       		.byte	0x14
 1435 0730 08       		.uleb128 0x8
 1436 0731 1A060000 		.4byte	.LASF108
 1437 0735 0D       		.byte	0xd
 1438 0736 45       		.byte	0x45
 1439 0737 1A       		.byte	0x1a
 1440 0738 7B070000 		.4byte	0x77b
 1441 073c 18       		.byte	0x18
 1442 073d 08       		.uleb128 0x8
 1443 073e E4080000 		.4byte	.LASF109
 1444 0742 0D       		.byte	0xd
 1445 0743 46       		.byte	0x46
 1446 0744 19       		.byte	0x19
 1447 0745 58070000 		.4byte	0x758
 1448 0749 1C       		.byte	0x1c
 1449 074a 08       		.uleb128 0x8
 1450 074b 7D090000 		.4byte	.LASF110
 1451 074f 0D       		.byte	0xd
 1452 0750 47       		.byte	0x47
 1453 0751 1A       		.byte	0x1a
 1454 0752 A9020000 		.4byte	0x2a9
 1455 0756 20       		.byte	0x20
 1456 0757 00       		.byte	0
 1457 0758 03       		.uleb128 0x3
 1458 0759 F3050000 		.4byte	.LASF111
 1459 075d 0D       		.byte	0xd
 1460 075e 33       		.byte	0x33
 1461 075f 10       		.byte	0x10
 1462 0760 64070000 		.4byte	0x764
 1463 0764 0B       		.uleb128 0xb
 1464 0765 04       		.byte	0x4
 1465 0766 6A070000 		.4byte	0x76a
 1466 076a 0D       		.uleb128 0xd
 1467 076b 75070000 		.4byte	0x775
 1468 076f 0E       		.uleb128 0xe
 1469 0770 75070000 		.4byte	0x775
 1470 0774 00       		.byte	0
 1471 0775 0B       		.uleb128 0xb
 1472 0776 04       		.byte	0x4
 1473 0777 D6060000 		.4byte	0x6d6
 1474 077b 0B       		.uleb128 0xb
 1475 077c 04       		.byte	0x4
 1476 077d 6C000000 		.4byte	0x6c
 1477 0781 03       		.uleb128 0x3
 1478 0782 A0040000 		.4byte	.LASF112
 1479 0786 0D       		.byte	0xd
 1480 0787 7B       		.byte	0x7b
 1481 0788 16       		.byte	0x16
 1482 0789 D6060000 		.4byte	0x6d6
ARM GAS  /tmp/ccplGi6c.s 			page 27


 1483 078d 03       		.uleb128 0x3
 1484 078e F4000000 		.4byte	.LASF113
 1485 0792 0D       		.byte	0xd
 1486 0793 EE       		.byte	0xee
 1487 0794 16       		.byte	0x16
 1488 0795 D6060000 		.4byte	0x6d6
 1489 0799 12       		.uleb128 0x12
 1490 079a 2C000000 		.4byte	0x2c
 1491 079e B2070000 		.4byte	0x7b2
 1492 07a2 0E       		.uleb128 0xe
 1493 07a3 A9020000 		.4byte	0x2a9
 1494 07a7 0E       		.uleb128 0xe
 1495 07a8 B2070000 		.4byte	0x7b2
 1496 07ac 0E       		.uleb128 0xe
 1497 07ad 2C000000 		.4byte	0x2c
 1498 07b1 00       		.byte	0
 1499 07b2 0B       		.uleb128 0xb
 1500 07b3 04       		.byte	0x4
 1501 07b4 78000000 		.4byte	0x78
 1502 07b8 0B       		.uleb128 0xb
 1503 07b9 04       		.byte	0x4
 1504 07ba 99070000 		.4byte	0x799
 1505 07be 12       		.uleb128 0x12
 1506 07bf 2C000000 		.4byte	0x2c
 1507 07c3 D7070000 		.4byte	0x7d7
 1508 07c7 0E       		.uleb128 0xe
 1509 07c8 A9020000 		.4byte	0x2a9
 1510 07cc 0E       		.uleb128 0xe
 1511 07cd 7B070000 		.4byte	0x77b
 1512 07d1 0E       		.uleb128 0xe
 1513 07d2 2C000000 		.4byte	0x2c
 1514 07d6 00       		.byte	0
 1515 07d7 0B       		.uleb128 0xb
 1516 07d8 04       		.byte	0x4
 1517 07d9 BE070000 		.4byte	0x7be
 1518 07dd 12       		.uleb128 0x12
 1519 07de F2000000 		.4byte	0xf2
 1520 07e2 F1070000 		.4byte	0x7f1
 1521 07e6 0E       		.uleb128 0xe
 1522 07e7 A9020000 		.4byte	0x2a9
 1523 07eb 0E       		.uleb128 0xe
 1524 07ec 6C000000 		.4byte	0x6c
 1525 07f0 00       		.byte	0
 1526 07f1 0B       		.uleb128 0xb
 1527 07f2 04       		.byte	0x4
 1528 07f3 DD070000 		.4byte	0x7dd
 1529 07f7 13       		.uleb128 0x13
 1530 07f8 91020000 		.4byte	0x291
 1531 07fc 07080000 		.4byte	0x807
 1532 0800 14       		.uleb128 0x14
 1533 0801 38000000 		.4byte	0x38
 1534 0805 26       		.byte	0x26
 1535 0806 00       		.byte	0
 1536 0807 0F       		.uleb128 0xf
 1537 0808 10030000 		.4byte	.LASF114
 1538 080c 0E       		.byte	0xe
 1539 080d 82       		.byte	0x82
ARM GAS  /tmp/ccplGi6c.s 			page 28


 1540 080e 08       		.byte	0x8
 1541 080f F7070000 		.4byte	0x7f7
 1542 0813 07       		.uleb128 0x7
 1543 0814 12010000 		.4byte	.LASF115
 1544 0818 20       		.byte	0x20
 1545 0819 0F       		.byte	0xf
 1546 081a FD       		.byte	0xfd
 1547 081b 08       		.byte	0x8
 1548 081c 8F080000 		.4byte	0x88f
 1549 0820 08       		.uleb128 0x8
 1550 0821 59030000 		.4byte	.LASF116
 1551 0825 0F       		.byte	0xf
 1552 0826 FE       		.byte	0xfe
 1553 0827 19       		.byte	0x19
 1554 0828 3F000000 		.4byte	0x3f
 1555 082c 00       		.byte	0
 1556 082d 08       		.uleb128 0x8
 1557 082e D3080000 		.4byte	.LASF117
 1558 0832 0F       		.byte	0xf
 1559 0833 FF       		.byte	0xff
 1560 0834 19       		.byte	0x19
 1561 0835 3F000000 		.4byte	0x3f
 1562 0839 04       		.byte	0x4
 1563 083a 15       		.uleb128 0x15
 1564 083b 6B090000 		.4byte	.LASF118
 1565 083f 0F       		.byte	0xf
 1566 0840 0001     		.2byte	0x100
 1567 0842 19       		.byte	0x19
 1568 0843 3F000000 		.4byte	0x3f
 1569 0847 08       		.byte	0x8
 1570 0848 15       		.uleb128 0x15
 1571 0849 7A030000 		.4byte	.LASF119
 1572 084d 0F       		.byte	0xf
 1573 084e 0101     		.2byte	0x101
 1574 0850 19       		.byte	0x19
 1575 0851 3F000000 		.4byte	0x3f
 1576 0855 0C       		.byte	0xc
 1577 0856 15       		.uleb128 0x15
 1578 0857 97010000 		.4byte	.LASF120
 1579 085b 0F       		.byte	0xf
 1580 085c 0201     		.2byte	0x102
 1581 085e 19       		.byte	0x19
 1582 085f 3F000000 		.4byte	0x3f
 1583 0863 10       		.byte	0x10
 1584 0864 15       		.uleb128 0x15
 1585 0865 06050000 		.4byte	.LASF121
 1586 0869 0F       		.byte	0xf
 1587 086a 0301     		.2byte	0x103
 1588 086c 19       		.byte	0x19
 1589 086d 3F000000 		.4byte	0x3f
 1590 0871 14       		.byte	0x14
 1591 0872 15       		.uleb128 0x15
 1592 0873 BD020000 		.4byte	.LASF122
 1593 0877 0F       		.byte	0xf
 1594 0878 0401     		.2byte	0x104
 1595 087a 19       		.byte	0x19
 1596 087b 3F000000 		.4byte	0x3f
ARM GAS  /tmp/ccplGi6c.s 			page 29


 1597 087f 18       		.byte	0x18
 1598 0880 15       		.uleb128 0x15
 1599 0881 C1090000 		.4byte	.LASF123
 1600 0885 0F       		.byte	0xf
 1601 0886 0501     		.2byte	0x105
 1602 0888 19       		.byte	0x19
 1603 0889 3F000000 		.4byte	0x3f
 1604 088d 1C       		.byte	0x1c
 1605 088e 00       		.byte	0
 1606 088f 16       		.uleb128 0x16
 1607 0890 12010000 		.4byte	.LASF115
 1608 0894 0F       		.byte	0xf
 1609 0895 0801     		.2byte	0x108
 1610 0897 1C       		.byte	0x1c
 1611 0898 13080000 		.4byte	0x813
 1612 089c 12       		.uleb128 0x12
 1613 089d F2000000 		.4byte	0xf2
 1614 08a1 B5080000 		.4byte	0x8b5
 1615 08a5 0E       		.uleb128 0xe
 1616 08a6 A9020000 		.4byte	0x2a9
 1617 08aa 0E       		.uleb128 0xe
 1618 08ab 6C000000 		.4byte	0x6c
 1619 08af 0E       		.uleb128 0xe
 1620 08b0 16010000 		.4byte	0x116
 1621 08b4 00       		.byte	0
 1622 08b5 0B       		.uleb128 0xb
 1623 08b6 04       		.byte	0x4
 1624 08b7 9C080000 		.4byte	0x89c
 1625 08bb 12       		.uleb128 0x12
 1626 08bc F2000000 		.4byte	0xf2
 1627 08c0 CF080000 		.4byte	0x8cf
 1628 08c4 0E       		.uleb128 0xe
 1629 08c5 A9020000 		.4byte	0x2a9
 1630 08c9 0E       		.uleb128 0xe
 1631 08ca 16010000 		.4byte	0x116
 1632 08ce 00       		.byte	0
 1633 08cf 0B       		.uleb128 0xb
 1634 08d0 04       		.byte	0x4
 1635 08d1 BB080000 		.4byte	0x8bb
 1636 08d5 12       		.uleb128 0x12
 1637 08d6 2C000000 		.4byte	0x2c
 1638 08da F3080000 		.4byte	0x8f3
 1639 08de 0E       		.uleb128 0xe
 1640 08df A9020000 		.4byte	0x2a9
 1641 08e3 0E       		.uleb128 0xe
 1642 08e4 B2070000 		.4byte	0x7b2
 1643 08e8 0E       		.uleb128 0xe
 1644 08e9 2C000000 		.4byte	0x2c
 1645 08ed 0E       		.uleb128 0xe
 1646 08ee 16010000 		.4byte	0x116
 1647 08f2 00       		.byte	0
 1648 08f3 0B       		.uleb128 0xb
 1649 08f4 04       		.byte	0x4
 1650 08f5 D5080000 		.4byte	0x8d5
 1651 08f9 12       		.uleb128 0x12
 1652 08fa 2C000000 		.4byte	0x2c
 1653 08fe 17090000 		.4byte	0x917
ARM GAS  /tmp/ccplGi6c.s 			page 30


 1654 0902 0E       		.uleb128 0xe
 1655 0903 A9020000 		.4byte	0x2a9
 1656 0907 0E       		.uleb128 0xe
 1657 0908 7B070000 		.4byte	0x77b
 1658 090c 0E       		.uleb128 0xe
 1659 090d 2C000000 		.4byte	0x2c
 1660 0911 0E       		.uleb128 0xe
 1661 0912 16010000 		.4byte	0x116
 1662 0916 00       		.byte	0
 1663 0917 0B       		.uleb128 0xb
 1664 0918 04       		.byte	0x4
 1665 0919 F9080000 		.4byte	0x8f9
 1666 091d 0A       		.uleb128 0xa
 1667 091e 18       		.byte	0x18
 1668 091f 10       		.byte	0x10
 1669 0920 2A       		.byte	0x2a
 1670 0921 09       		.byte	0x9
 1671 0922 75090000 		.4byte	0x975
 1672 0926 08       		.uleb128 0x8
 1673 0927 01090000 		.4byte	.LASF124
 1674 092b 10       		.byte	0x10
 1675 092c 2F       		.byte	0x2f
 1676 092d 15       		.byte	0x15
 1677 092e 97000000 		.4byte	0x97
 1678 0932 00       		.byte	0
 1679 0933 08       		.uleb128 0x8
 1680 0934 AD050000 		.4byte	.LASF125
 1681 0938 10       		.byte	0x10
 1682 0939 31       		.byte	0x31
 1683 093a 16       		.byte	0x16
 1684 093b 75090000 		.4byte	0x975
 1685 093f 04       		.byte	0x4
 1686 0940 08       		.uleb128 0x8
 1687 0941 5E040000 		.4byte	.LASF126
 1688 0945 10       		.byte	0x10
 1689 0946 32       		.byte	0x32
 1690 0947 16       		.byte	0x16
 1691 0948 75090000 		.4byte	0x975
 1692 094c 08       		.byte	0x8
 1693 094d 08       		.uleb128 0x8
 1694 094e EA040000 		.4byte	.LASF127
 1695 0952 10       		.byte	0x10
 1696 0953 33       		.byte	0x33
 1697 0954 16       		.byte	0x16
 1698 0955 75090000 		.4byte	0x975
 1699 0959 0C       		.byte	0xc
 1700 095a 08       		.uleb128 0x8
 1701 095b B3050000 		.4byte	.LASF128
 1702 095f 10       		.byte	0x10
 1703 0960 34       		.byte	0x34
 1704 0961 16       		.byte	0x16
 1705 0962 75090000 		.4byte	0x975
 1706 0966 10       		.byte	0x10
 1707 0967 08       		.uleb128 0x8
 1708 0968 AB060000 		.4byte	.LASF129
 1709 096c 10       		.byte	0x10
 1710 096d 35       		.byte	0x35
ARM GAS  /tmp/ccplGi6c.s 			page 31


 1711 096e 10       		.byte	0x10
 1712 096f 38000000 		.4byte	0x38
 1713 0973 14       		.byte	0x14
 1714 0974 00       		.byte	0
 1715 0975 0B       		.uleb128 0xb
 1716 0976 04       		.byte	0x4
 1717 0977 A3000000 		.4byte	0xa3
 1718 097b 03       		.uleb128 0x3
 1719 097c 52040000 		.4byte	.LASF130
 1720 0980 10       		.byte	0x10
 1721 0981 37       		.byte	0x37
 1722 0982 03       		.byte	0x3
 1723 0983 1D090000 		.4byte	0x91d
 1724 0987 17       		.uleb128 0x17
 1725 0988 00       		.byte	0
 1726 0989 10       		.byte	0x10
 1727 098a 43       		.byte	0x43
 1728 098b 09       		.byte	0x9
 1729 098c 03       		.uleb128 0x3
 1730 098d 84090000 		.4byte	.LASF131
 1731 0991 10       		.byte	0x10
 1732 0992 45       		.byte	0x45
 1733 0993 03       		.byte	0x3
 1734 0994 87090000 		.4byte	0x987
 1735 0998 06       		.uleb128 0x6
 1736 0999 8C090000 		.4byte	0x98c
 1737 099d 0F       		.uleb128 0xf
 1738 099e 83050000 		.4byte	.LASF132
 1739 09a2 10       		.byte	0x10
 1740 09a3 6D       		.byte	0x6d
 1741 09a4 14       		.byte	0x14
 1742 09a5 7B090000 		.4byte	0x97b
 1743 09a9 0F       		.uleb128 0xf
 1744 09aa C2060000 		.4byte	.LASF133
 1745 09ae 10       		.byte	0x10
 1746 09af 6E       		.byte	0x6e
 1747 09b0 14       		.byte	0x14
 1748 09b1 7B090000 		.4byte	0x97b
 1749 09b5 0F       		.uleb128 0xf
 1750 09b6 96090000 		.4byte	.LASF134
 1751 09ba 10       		.byte	0x10
 1752 09bb 75       		.byte	0x75
 1753 09bc 18       		.byte	0x18
 1754 09bd 98090000 		.4byte	0x998
 1755 09c1 18       		.uleb128 0x18
 1756 09c2 07       		.byte	0x7
 1757 09c3 01       		.byte	0x1
 1758 09c4 7D000000 		.4byte	0x7d
 1759 09c8 11       		.byte	0x11
 1760 09c9 54       		.byte	0x54
 1761 09ca 0E       		.byte	0xe
 1762 09cb F4090000 		.4byte	0x9f4
 1763 09cf 19       		.uleb128 0x19
 1764 09d0 70020000 		.4byte	.LASF135
 1765 09d4 00       		.byte	0
 1766 09d5 19       		.uleb128 0x19
 1767 09d6 FD040000 		.4byte	.LASF136
ARM GAS  /tmp/ccplGi6c.s 			page 32


 1768 09da 01       		.byte	0x1
 1769 09db 19       		.uleb128 0x19
 1770 09dc 15080000 		.4byte	.LASF137
 1771 09e0 02       		.byte	0x2
 1772 09e1 19       		.uleb128 0x19
 1773 09e2 EE020000 		.4byte	.LASF138
 1774 09e6 03       		.byte	0x3
 1775 09e7 19       		.uleb128 0x19
 1776 09e8 AB070000 		.4byte	.LASF139
 1777 09ec 04       		.byte	0x4
 1778 09ed 19       		.uleb128 0x19
 1779 09ee 03070000 		.4byte	.LASF140
 1780 09f2 05       		.byte	0x5
 1781 09f3 00       		.byte	0
 1782 09f4 03       		.uleb128 0x3
 1783 09f5 DD050000 		.4byte	.LASF141
 1784 09f9 11       		.byte	0x11
 1785 09fa 5B       		.byte	0x5b
 1786 09fb 03       		.byte	0x3
 1787 09fc C1090000 		.4byte	0x9c1
 1788 0a00 03       		.uleb128 0x3
 1789 0a01 1F080000 		.4byte	.LASF142
 1790 0a05 12       		.byte	0x12
 1791 0a06 38       		.byte	0x38
 1792 0a07 1A       		.byte	0x1a
 1793 0a08 0C0A0000 		.4byte	0xa0c
 1794 0a0c 07       		.uleb128 0x7
 1795 0a0d 1F080000 		.4byte	.LASF142
 1796 0a11 40       		.byte	0x40
 1797 0a12 12       		.byte	0x12
 1798 0a13 62       		.byte	0x62
 1799 0a14 08       		.byte	0x8
 1800 0a15 C30A0000 		.4byte	0xac3
 1801 0a19 08       		.uleb128 0x8
 1802 0a1a 85020000 		.4byte	.LASF143
 1803 0a1e 12       		.byte	0x12
 1804 0a1f 64       		.byte	0x64
 1805 0a20 1D       		.byte	0x1d
 1806 0a21 F4090000 		.4byte	0x9f4
 1807 0a25 00       		.byte	0
 1808 0a26 08       		.uleb128 0x8
 1809 0a27 D0070000 		.4byte	.LASF144
 1810 0a2b 12       		.byte	0x12
 1811 0a2c 66       		.byte	0x66
 1812 0a2d 1E       		.byte	0x1e
 1813 0a2e 090B0000 		.4byte	0xb09
 1814 0a32 04       		.byte	0x4
 1815 0a33 08       		.uleb128 0x8
 1816 0a34 D8030000 		.4byte	.LASF145
 1817 0a38 12       		.byte	0x12
 1818 0a39 68       		.byte	0x68
 1819 0a3a 1D       		.byte	0x1d
 1820 0a3b C30A0000 		.4byte	0xac3
 1821 0a3f 08       		.byte	0x8
 1822 0a40 08       		.uleb128 0x8
 1823 0a41 C1010000 		.4byte	.LASF146
 1824 0a45 12       		.byte	0x12
ARM GAS  /tmp/ccplGi6c.s 			page 33


 1825 0a46 6A       		.byte	0x6a
 1826 0a47 1E       		.byte	0x1e
 1827 0a48 0F0B0000 		.4byte	0xb0f
 1828 0a4c 0C       		.byte	0xc
 1829 0a4d 08       		.uleb128 0x8
 1830 0a4e 2D060000 		.4byte	.LASF147
 1831 0a52 12       		.byte	0x12
 1832 0a53 6D       		.byte	0x6d
 1833 0a54 1D       		.byte	0x1d
 1834 0a55 C7040000 		.4byte	0x4c7
 1835 0a59 10       		.byte	0x10
 1836 0a5a 08       		.uleb128 0x8
 1837 0a5b B6020000 		.4byte	.LASF148
 1838 0a5f 12       		.byte	0x12
 1839 0a60 77       		.byte	0x77
 1840 0a61 1E       		.byte	0x1e
 1841 0a62 5C020000 		.4byte	0x25c
 1842 0a66 20       		.byte	0x20
 1843 0a67 08       		.uleb128 0x8
 1844 0a68 41020000 		.4byte	.LASF149
 1845 0a6c 12       		.byte	0x12
 1846 0a6d 7B       		.byte	0x7b
 1847 0a6e 1D       		.byte	0x1d
 1848 0a6f CF0A0000 		.4byte	0xacf
 1849 0a73 24       		.byte	0x24
 1850 0a74 08       		.uleb128 0x8
 1851 0a75 C2030000 		.4byte	.LASF150
 1852 0a79 12       		.byte	0x12
 1853 0a7a 7F       		.byte	0x7f
 1854 0a7b 1E       		.byte	0x1e
 1855 0a7c B2070000 		.4byte	0x7b2
 1856 0a80 28       		.byte	0x28
 1857 0a81 08       		.uleb128 0x8
 1858 0a82 B9090000 		.4byte	.LASF151
 1859 0a86 12       		.byte	0x12
 1860 0a87 83       		.byte	0x83
 1861 0a88 1D       		.byte	0x1d
 1862 0a89 2C000000 		.4byte	0x2c
 1863 0a8d 2C       		.byte	0x2c
 1864 0a8e 08       		.uleb128 0x8
 1865 0a8f AE080000 		.4byte	.LASF152
 1866 0a93 12       		.byte	0x12
 1867 0a94 87       		.byte	0x87
 1868 0a95 1D       		.byte	0x1d
 1869 0a96 2C000000 		.4byte	0x2c
 1870 0a9a 30       		.byte	0x30
 1871 0a9b 08       		.uleb128 0x8
 1872 0a9c 1E010000 		.4byte	.LASF153
 1873 0aa0 12       		.byte	0x12
 1874 0aa1 8B       		.byte	0x8b
 1875 0aa2 1E       		.byte	0x1e
 1876 0aa3 7B070000 		.4byte	0x77b
 1877 0aa7 34       		.byte	0x34
 1878 0aa8 08       		.uleb128 0x8
 1879 0aa9 58050000 		.4byte	.LASF154
 1880 0aad 12       		.byte	0x12
 1881 0aae 8F       		.byte	0x8f
ARM GAS  /tmp/ccplGi6c.s 			page 34


 1882 0aaf 1D       		.byte	0x1d
 1883 0ab0 2C000000 		.4byte	0x2c
 1884 0ab4 38       		.byte	0x38
 1885 0ab5 08       		.uleb128 0x8
 1886 0ab6 C7020000 		.4byte	.LASF155
 1887 0aba 12       		.byte	0x12
 1888 0abb 93       		.byte	0x93
 1889 0abc 1D       		.byte	0x1d
 1890 0abd 2C000000 		.4byte	0x2c
 1891 0ac1 3C       		.byte	0x3c
 1892 0ac2 00       		.byte	0
 1893 0ac3 03       		.uleb128 0x3
 1894 0ac4 22060000 		.4byte	.LASF156
 1895 0ac8 12       		.byte	0x12
 1896 0ac9 42       		.byte	0x42
 1897 0aca 12       		.byte	0x12
 1898 0acb 97000000 		.4byte	0x97
 1899 0acf 03       		.uleb128 0x3
 1900 0ad0 7B020000 		.4byte	.LASF157
 1901 0ad4 12       		.byte	0x12
 1902 0ad5 48       		.byte	0x48
 1903 0ad6 12       		.byte	0x12
 1904 0ad7 84000000 		.4byte	0x84
 1905 0adb 0B       		.uleb128 0xb
 1906 0adc 04       		.byte	0x4
 1907 0add 000A0000 		.4byte	0xa00
 1908 0ae1 0A       		.uleb128 0xa
 1909 0ae2 04       		.byte	0x4
 1910 0ae3 12       		.byte	0x12
 1911 0ae4 57       		.byte	0x57
 1912 0ae5 09       		.byte	0x9
 1913 0ae6 F80A0000 		.4byte	0xaf8
 1914 0aea 08       		.uleb128 0x8
 1915 0aeb 31050000 		.4byte	.LASF158
 1916 0aef 12       		.byte	0x12
 1917 0af0 59       		.byte	0x59
 1918 0af1 1D       		.byte	0x1d
 1919 0af2 97000000 		.4byte	0x97
 1920 0af6 00       		.byte	0
 1921 0af7 00       		.byte	0
 1922 0af8 03       		.uleb128 0x3
 1923 0af9 9A080000 		.4byte	.LASF159
 1924 0afd 12       		.byte	0x12
 1925 0afe 5B       		.byte	0x5b
 1926 0aff 03       		.byte	0x3
 1927 0b00 E10A0000 		.4byte	0xae1
 1928 0b04 06       		.uleb128 0x6
 1929 0b05 F80A0000 		.4byte	0xaf8
 1930 0b09 0B       		.uleb128 0xb
 1931 0b0a 04       		.byte	0x4
 1932 0b0b 040B0000 		.4byte	0xb04
 1933 0b0f 0B       		.uleb128 0xb
 1934 0b10 04       		.byte	0x4
 1935 0b11 8F080000 		.4byte	0x88f
 1936 0b15 0F       		.uleb128 0xf
 1937 0b16 9C030000 		.4byte	.LASF160
 1938 0b1a 12       		.byte	0x12
ARM GAS  /tmp/ccplGi6c.s 			page 35


 1939 0b1b A6       		.byte	0xa6
 1940 0b1c 12       		.byte	0x12
 1941 0b1d 000A0000 		.4byte	0xa00
 1942 0b21 18       		.uleb128 0x18
 1943 0b22 07       		.byte	0x7
 1944 0b23 01       		.byte	0x1
 1945 0b24 7D000000 		.4byte	0x7d
 1946 0b28 13       		.byte	0x13
 1947 0b29 5D       		.byte	0x5d
 1948 0b2a 0E       		.byte	0xe
 1949 0b2b 420B0000 		.4byte	0xb42
 1950 0b2f 19       		.uleb128 0x19
 1951 0b30 19070000 		.4byte	.LASF161
 1952 0b34 00       		.byte	0
 1953 0b35 19       		.uleb128 0x19
 1954 0b36 12020000 		.4byte	.LASF162
 1955 0b3a 01       		.byte	0x1
 1956 0b3b 19       		.uleb128 0x19
 1957 0b3c 5F080000 		.4byte	.LASF163
 1958 0b40 02       		.byte	0x2
 1959 0b41 00       		.byte	0
 1960 0b42 03       		.uleb128 0x3
 1961 0b43 A4080000 		.4byte	.LASF164
 1962 0b47 13       		.byte	0x13
 1963 0b48 61       		.byte	0x61
 1964 0b49 03       		.byte	0x3
 1965 0b4a 210B0000 		.4byte	0xb21
 1966 0b4e 03       		.uleb128 0x3
 1967 0b4f B4010000 		.4byte	.LASF165
 1968 0b53 13       		.byte	0x13
 1969 0b54 66       		.byte	0x66
 1970 0b55 1D       		.byte	0x1d
 1971 0b56 5A0B0000 		.4byte	0xb5a
 1972 0b5a 07       		.uleb128 0x7
 1973 0b5b B4010000 		.4byte	.LASF165
 1974 0b5f 74       		.byte	0x74
 1975 0b60 13       		.byte	0x13
 1976 0b61 80       		.byte	0x80
 1977 0b62 08       		.byte	0x8
 1978 0b63 C10B0000 		.4byte	0xbc1
 1979 0b67 09       		.uleb128 0x9
 1980 0b68 766D7400 		.ascii	"vmt\000"
 1981 0b6c 13       		.byte	0x13
 1982 0b6d 82       		.byte	0x82
 1983 0b6e 21       		.byte	0x21
 1984 0b6f 480C0000 		.4byte	0xc48
 1985 0b73 00       		.byte	0
 1986 0b74 08       		.uleb128 0x8
 1987 0b75 31040000 		.4byte	.LASF166
 1988 0b79 13       		.byte	0x13
 1989 0b7a 83       		.byte	0x83
 1990 0b7b 03       		.byte	0x3
 1991 0b7c 42050000 		.4byte	0x542
 1992 0b80 04       		.byte	0x4
 1993 0b81 08       		.uleb128 0x8
 1994 0b82 85020000 		.4byte	.LASF143
 1995 0b86 13       		.byte	0x13
ARM GAS  /tmp/ccplGi6c.s 			page 36


 1996 0b87 83       		.byte	0x83
 1997 0b88 03       		.byte	0x3
 1998 0b89 420B0000 		.4byte	0xb42
 1999 0b8d 08       		.byte	0x8
 2000 0b8e 08       		.uleb128 0x8
 2001 0b8f DF030000 		.4byte	.LASF167
 2002 0b93 13       		.byte	0x13
 2003 0b94 83       		.byte	0x83
 2004 0b95 03       		.byte	0x3
 2005 0b96 81070000 		.4byte	0x781
 2006 0b9a 0C       		.byte	0xc
 2007 0b9b 08       		.uleb128 0x8
 2008 0b9c 6A040000 		.4byte	.LASF168
 2009 0ba0 13       		.byte	0x13
 2010 0ba1 83       		.byte	0x83
 2011 0ba2 03       		.byte	0x3
 2012 0ba3 8D070000 		.4byte	0x78d
 2013 0ba7 30       		.byte	0x30
 2014 0ba8 09       		.uleb128 0x9
 2015 0ba9 696200   		.ascii	"ib\000"
 2016 0bac 13       		.byte	0x13
 2017 0bad 83       		.byte	0x83
 2018 0bae 03       		.byte	0x3
 2019 0baf 4E0C0000 		.4byte	0xc4e
 2020 0bb3 54       		.byte	0x54
 2021 0bb4 09       		.uleb128 0x9
 2022 0bb5 6F6200   		.ascii	"ob\000"
 2023 0bb8 13       		.byte	0x13
 2024 0bb9 83       		.byte	0x83
 2025 0bba 03       		.byte	0x3
 2026 0bbb 4E0C0000 		.4byte	0xc4e
 2027 0bbf 64       		.byte	0x64
 2028 0bc0 00       		.byte	0
 2029 0bc1 1A       		.uleb128 0x1a
 2030 0bc2 53443100 		.ascii	"SD1\000"
 2031 0bc6 16       		.byte	0x16
 2032 0bc7 62       		.byte	0x62
 2033 0bc8 15       		.byte	0x15
 2034 0bc9 4E0B0000 		.4byte	0xb4e
 2035 0bcd 07       		.uleb128 0x7
 2036 0bce C8030000 		.4byte	.LASF169
 2037 0bd2 20       		.byte	0x20
 2038 0bd3 13       		.byte	0x13
 2039 0bd4 75       		.byte	0x75
 2040 0bd5 08       		.byte	0x8
 2041 0bd6 430C0000 		.4byte	0xc43
 2042 0bda 08       		.uleb128 0x8
 2043 0bdb EE000000 		.4byte	.LASF170
 2044 0bdf 13       		.byte	0x13
 2045 0be0 76       		.byte	0x76
 2046 0be1 03       		.byte	0x3
 2047 0be2 B8070000 		.4byte	0x7b8
 2048 0be6 00       		.byte	0
 2049 0be7 08       		.uleb128 0x8
 2050 0be8 B9070000 		.4byte	.LASF171
 2051 0bec 13       		.byte	0x13
 2052 0bed 76       		.byte	0x76
ARM GAS  /tmp/ccplGi6c.s 			page 37


 2053 0bee 03       		.byte	0x3
 2054 0bef D7070000 		.4byte	0x7d7
 2055 0bf3 04       		.byte	0x4
 2056 0bf4 09       		.uleb128 0x9
 2057 0bf5 70757400 		.ascii	"put\000"
 2058 0bf9 13       		.byte	0x13
 2059 0bfa 76       		.byte	0x76
 2060 0bfb 03       		.byte	0x3
 2061 0bfc F1070000 		.4byte	0x7f1
 2062 0c00 08       		.byte	0x8
 2063 0c01 09       		.uleb128 0x9
 2064 0c02 67657400 		.ascii	"get\000"
 2065 0c06 13       		.byte	0x13
 2066 0c07 76       		.byte	0x76
 2067 0c08 03       		.byte	0x3
 2068 0c09 A0050000 		.4byte	0x5a0
 2069 0c0d 0C       		.byte	0xc
 2070 0c0e 08       		.uleb128 0x8
 2071 0c0f F0040000 		.4byte	.LASF172
 2072 0c13 13       		.byte	0x13
 2073 0c14 76       		.byte	0x76
 2074 0c15 03       		.byte	0x3
 2075 0c16 B5080000 		.4byte	0x8b5
 2076 0c1a 10       		.byte	0x10
 2077 0c1b 08       		.uleb128 0x8
 2078 0c1c 09040000 		.4byte	.LASF173
 2079 0c20 13       		.byte	0x13
 2080 0c21 76       		.byte	0x76
 2081 0c22 03       		.byte	0x3
 2082 0c23 CF080000 		.4byte	0x8cf
 2083 0c27 14       		.byte	0x14
 2084 0c28 08       		.uleb128 0x8
 2085 0c29 79040000 		.4byte	.LASF174
 2086 0c2d 13       		.byte	0x13
 2087 0c2e 76       		.byte	0x76
 2088 0c2f 03       		.byte	0x3
 2089 0c30 F3080000 		.4byte	0x8f3
 2090 0c34 18       		.byte	0x18
 2091 0c35 08       		.uleb128 0x8
 2092 0c36 FB080000 		.4byte	.LASF175
 2093 0c3a 13       		.byte	0x13
 2094 0c3b 76       		.byte	0x76
 2095 0c3c 03       		.byte	0x3
 2096 0c3d 17090000 		.4byte	0x917
 2097 0c41 1C       		.byte	0x1c
 2098 0c42 00       		.byte	0
 2099 0c43 06       		.uleb128 0x6
 2100 0c44 CD0B0000 		.4byte	0xbcd
 2101 0c48 0B       		.uleb128 0xb
 2102 0c49 04       		.byte	0x4
 2103 0c4a 430C0000 		.4byte	0xc43
 2104 0c4e 13       		.uleb128 0x13
 2105 0c4f 6C000000 		.4byte	0x6c
 2106 0c53 5E0C0000 		.4byte	0xc5e
 2107 0c57 14       		.uleb128 0x14
 2108 0c58 38000000 		.4byte	0x38
 2109 0c5c 0F       		.byte	0xf
ARM GAS  /tmp/ccplGi6c.s 			page 38


 2110 0c5d 00       		.byte	0
 2111 0c5e 18       		.uleb128 0x18
 2112 0c5f 07       		.byte	0x7
 2113 0c60 01       		.byte	0x1
 2114 0c61 7D000000 		.4byte	0x7d
 2115 0c65 14       		.byte	0x14
 2116 0c66 4E       		.byte	0x4e
 2117 0c67 0E       		.byte	0xe
 2118 0c68 8B0C0000 		.4byte	0xc8b
 2119 0c6c 19       		.uleb128 0x19
 2120 0c6d 72080000 		.4byte	.LASF176
 2121 0c71 00       		.byte	0
 2122 0c72 19       		.uleb128 0x19
 2123 0c73 FC010000 		.4byte	.LASF177
 2124 0c77 01       		.byte	0x1
 2125 0c78 19       		.uleb128 0x19
 2126 0c79 68080000 		.4byte	.LASF178
 2127 0c7d 02       		.byte	0x2
 2128 0c7e 19       		.uleb128 0x19
 2129 0c7f 00010000 		.4byte	.LASF179
 2130 0c83 03       		.byte	0x3
 2131 0c84 19       		.uleb128 0x19
 2132 0c85 C3070000 		.4byte	.LASF180
 2133 0c89 04       		.byte	0x4
 2134 0c8a 00       		.byte	0
 2135 0c8b 03       		.uleb128 0x3
 2136 0c8c E5070000 		.4byte	.LASF181
 2137 0c90 14       		.byte	0x14
 2138 0c91 54       		.byte	0x54
 2139 0c92 03       		.byte	0x3
 2140 0c93 5E0C0000 		.4byte	0xc5e
 2141 0c97 03       		.uleb128 0x3
 2142 0c98 88010000 		.4byte	.LASF182
 2143 0c9c 15       		.byte	0x15
 2144 0c9d 35       		.byte	0x35
 2145 0c9e 1A       		.byte	0x1a
 2146 0c9f A30C0000 		.4byte	0xca3
 2147 0ca3 07       		.uleb128 0x7
 2148 0ca4 88010000 		.4byte	.LASF182
 2149 0ca8 28       		.byte	0x28
 2150 0ca9 15       		.byte	0x15
 2151 0caa 7C       		.byte	0x7c
 2152 0cab 08       		.byte	0x8
 2153 0cac 0C0D0000 		.4byte	0xd0c
 2154 0cb0 08       		.uleb128 0x8
 2155 0cb1 85020000 		.4byte	.LASF143
 2156 0cb5 15       		.byte	0x15
 2157 0cb6 80       		.byte	0x80
 2158 0cb7 19       		.byte	0x19
 2159 0cb8 8B0C0000 		.4byte	0xc8b
 2160 0cbc 00       		.byte	0
 2161 0cbd 08       		.uleb128 0x8
 2162 0cbe D0070000 		.4byte	.LASF144
 2163 0cc2 15       		.byte	0x15
 2164 0cc3 84       		.byte	0x84
 2165 0cc4 1A       		.byte	0x1a
 2166 0cc5 BF0D0000 		.4byte	0xdbf
ARM GAS  /tmp/ccplGi6c.s 			page 39


 2167 0cc9 04       		.byte	0x4
 2168 0cca 08       		.uleb128 0x8
 2169 0ccb B6020000 		.4byte	.LASF148
 2170 0ccf 15       		.byte	0x15
 2171 0cd0 89       		.byte	0x89
 2172 0cd1 1A       		.byte	0x1a
 2173 0cd2 5C020000 		.4byte	0x25c
 2174 0cd6 08       		.byte	0x8
 2175 0cd7 08       		.uleb128 0x8
 2176 0cd8 2D060000 		.4byte	.LASF147
 2177 0cdc 15       		.byte	0x15
 2178 0cdd 90       		.byte	0x90
 2179 0cde 19       		.byte	0x19
 2180 0cdf C7040000 		.4byte	0x4c7
 2181 0ce3 0C       		.byte	0xc
 2182 0ce4 08       		.uleb128 0x8
 2183 0ce5 1E010000 		.4byte	.LASF153
 2184 0ce9 15       		.byte	0x15
 2185 0cea 98       		.byte	0x98
 2186 0ceb 1A       		.byte	0x1a
 2187 0cec A9020000 		.4byte	0x2a9
 2188 0cf0 1C       		.byte	0x1c
 2189 0cf1 08       		.uleb128 0x8
 2190 0cf2 C2030000 		.4byte	.LASF150
 2191 0cf6 15       		.byte	0x15
 2192 0cf7 9D       		.byte	0x9d
 2193 0cf8 1A       		.byte	0x1a
 2194 0cf9 C50D0000 		.4byte	0xdc5
 2195 0cfd 20       		.byte	0x20
 2196 0cfe 08       		.uleb128 0x8
 2197 0cff 27030000 		.4byte	.LASF183
 2198 0d03 15       		.byte	0x15
 2199 0d04 A2       		.byte	0xa2
 2200 0d05 17       		.byte	0x17
 2201 0d06 2C000000 		.4byte	0x2c
 2202 0d0a 24       		.byte	0x24
 2203 0d0b 00       		.byte	0
 2204 0d0c 03       		.uleb128 0x3
 2205 0d0d 8E030000 		.4byte	.LASF184
 2206 0d11 15       		.byte	0x15
 2207 0d12 3D       		.byte	0x3d
 2208 0d13 10       		.byte	0x10
 2209 0d14 180D0000 		.4byte	0xd18
 2210 0d18 0B       		.uleb128 0xb
 2211 0d19 04       		.byte	0x4
 2212 0d1a 1E0D0000 		.4byte	0xd1e
 2213 0d1e 0D       		.uleb128 0xd
 2214 0d1f 290D0000 		.4byte	0xd29
 2215 0d23 0E       		.uleb128 0xe
 2216 0d24 290D0000 		.4byte	0xd29
 2217 0d28 00       		.byte	0
 2218 0d29 0B       		.uleb128 0xb
 2219 0d2a 04       		.byte	0x4
 2220 0d2b 970C0000 		.4byte	0xc97
 2221 0d2f 0A       		.uleb128 0xa
 2222 0d30 10       		.byte	0x10
 2223 0d31 15       		.byte	0x15
ARM GAS  /tmp/ccplGi6c.s 			page 40


 2224 0d32 44       		.byte	0x44
 2225 0d33 09       		.byte	0x9
 2226 0d34 AE0D0000 		.4byte	0xdae
 2227 0d38 08       		.uleb128 0x8
 2228 0d39 20030000 		.4byte	.LASF185
 2229 0d3d 15       		.byte	0x15
 2230 0d3e 48       		.byte	0x48
 2231 0d3f 19       		.byte	0x19
 2232 0d40 0C0D0000 		.4byte	0xd0c
 2233 0d44 00       		.byte	0
 2234 0d45 08       		.uleb128 0x8
 2235 0d46 BC050000 		.4byte	.LASF186
 2236 0d4a 15       		.byte	0x15
 2237 0d4b 4F       		.byte	0x4f
 2238 0d4c 19       		.byte	0x19
 2239 0d4d 6C000000 		.4byte	0x6c
 2240 0d51 04       		.byte	0x4
 2241 0d52 08       		.uleb128 0x8
 2242 0d53 C9050000 		.4byte	.LASF187
 2243 0d57 15       		.byte	0x15
 2244 0d58 52       		.byte	0x52
 2245 0d59 19       		.byte	0x19
 2246 0d5a 6C000000 		.4byte	0x6c
 2247 0d5e 05       		.byte	0x5
 2248 0d5f 08       		.uleb128 0x8
 2249 0d60 1C040000 		.4byte	.LASF188
 2250 0d64 15       		.byte	0x15
 2251 0d65 58       		.byte	0x58
 2252 0d66 19       		.byte	0x19
 2253 0d67 6C000000 		.4byte	0x6c
 2254 0d6b 06       		.byte	0x6
 2255 0d6c 08       		.uleb128 0x8
 2256 0d6d 2D030000 		.4byte	.LASF189
 2257 0d71 15       		.byte	0x15
 2258 0d72 5E       		.byte	0x5e
 2259 0d73 19       		.byte	0x19
 2260 0d74 6C000000 		.4byte	0x6c
 2261 0d78 07       		.byte	0x7
 2262 0d79 08       		.uleb128 0x8
 2263 0d7a 43030000 		.4byte	.LASF190
 2264 0d7e 15       		.byte	0x15
 2265 0d7f 64       		.byte	0x64
 2266 0d80 19       		.byte	0x19
 2267 0d81 6C000000 		.4byte	0x6c
 2268 0d85 08       		.byte	0x8
 2269 0d86 08       		.uleb128 0x8
 2270 0d87 30080000 		.4byte	.LASF191
 2271 0d8b 15       		.byte	0x15
 2272 0d8c 6A       		.byte	0x6a
 2273 0d8d 19       		.byte	0x19
 2274 0d8e 6C000000 		.4byte	0x6c
 2275 0d92 09       		.byte	0x9
 2276 0d93 08       		.uleb128 0x8
 2277 0d94 FC020000 		.4byte	.LASF192
 2278 0d98 15       		.byte	0x15
 2279 0d99 70       		.byte	0x70
 2280 0d9a 19       		.byte	0x19
ARM GAS  /tmp/ccplGi6c.s 			page 41


 2281 0d9b 6C000000 		.4byte	0x6c
 2282 0d9f 0A       		.byte	0xa
 2283 0da0 08       		.uleb128 0x8
 2284 0da1 E8060000 		.4byte	.LASF193
 2285 0da5 15       		.byte	0x15
 2286 0da6 73       		.byte	0x73
 2287 0da7 19       		.byte	0x19
 2288 0da8 97000000 		.4byte	0x97
 2289 0dac 0C       		.byte	0xc
 2290 0dad 00       		.byte	0
 2291 0dae 03       		.uleb128 0x3
 2292 0daf 4E090000 		.4byte	.LASF194
 2293 0db3 15       		.byte	0x15
 2294 0db4 75       		.byte	0x75
 2295 0db5 03       		.byte	0x3
 2296 0db6 2F0D0000 		.4byte	0xd2f
 2297 0dba 06       		.uleb128 0x6
 2298 0dbb AE0D0000 		.4byte	0xdae
 2299 0dbf 0B       		.uleb128 0xb
 2300 0dc0 04       		.byte	0x4
 2301 0dc1 BA0D0000 		.4byte	0xdba
 2302 0dc5 0B       		.uleb128 0xb
 2303 0dc6 04       		.byte	0x4
 2304 0dc7 CB0D0000 		.4byte	0xdcb
 2305 0dcb 1B       		.uleb128 0x1b
 2306 0dcc 0F       		.uleb128 0xf
 2307 0dcd DF020000 		.4byte	.LASF195
 2308 0dd1 15       		.byte	0x15
 2309 0dd2 B6       		.byte	0xb6
 2310 0dd3 14       		.byte	0x14
 2311 0dd4 970C0000 		.4byte	0xc97
 2312 0dd8 1C       		.uleb128 0x1c
 2313 0dd9 7A010000 		.4byte	.LASF196
 2314 0ddd 01       		.byte	0x1
 2315 0dde 2101     		.2byte	0x121
 2316 0de0 06       		.byte	0x6
 2317 0de1 00000000 		.4byte	.LFB15
 2318 0de5 04000000 		.4byte	.LFE15-.LFB15
 2319 0de9 01       		.uleb128 0x1
 2320 0dea 9C       		.byte	0x9c
 2321 0deb 0E0E0000 		.4byte	0xe0e
 2322 0def 1D       		.uleb128 0x1d
 2323 0df0 92010000 		.4byte	.LASF198
 2324 0df4 01       		.byte	0x1
 2325 0df5 2101     		.2byte	0x121
 2326 0df7 1F       		.byte	0x1f
 2327 0df8 DB0A0000 		.4byte	0xadb
 2328 0dfc 04000000 		.4byte	.LLST16
 2329 0e00 00000000 		.4byte	.LVUS16
 2330 0e04 1E       		.uleb128 0x1e
 2331 0e05 04000000 		.4byte	.LVL18
 2332 0e09 E4100000 		.4byte	0x10e4
 2333 0e0d 00       		.byte	0
 2334 0e0e 1C       		.uleb128 0x1c
 2335 0e0f 04060000 		.4byte	.LASF197
 2336 0e13 01       		.byte	0x1
 2337 0e14 0D01     		.2byte	0x10d
ARM GAS  /tmp/ccplGi6c.s 			page 42


 2338 0e16 06       		.byte	0x6
 2339 0e17 00000000 		.4byte	.LFB14
 2340 0e1b 08000000 		.4byte	.LFE14-.LFB14
 2341 0e1f 01       		.uleb128 0x1
 2342 0e20 9C       		.byte	0x9c
 2343 0e21 4E0E0000 		.4byte	0xe4e
 2344 0e25 1D       		.uleb128 0x1d
 2345 0e26 92010000 		.4byte	.LASF198
 2346 0e2a 01       		.byte	0x1
 2347 0e2b 0D01     		.2byte	0x10d
 2348 0e2d 1F       		.byte	0x1f
 2349 0e2e DB0A0000 		.4byte	0xadb
 2350 0e32 2B000000 		.4byte	.LLST15
 2351 0e36 25000000 		.4byte	.LVUS15
 2352 0e3a 1F       		.uleb128 0x1f
 2353 0e3b 08000000 		.4byte	.LVL16
 2354 0e3f F0100000 		.4byte	0x10f0
 2355 0e43 20       		.uleb128 0x20
 2356 0e44 01       		.uleb128 0x1
 2357 0e45 50       		.byte	0x50
 2358 0e46 05       		.uleb128 0x5
 2359 0e47 F3       		.byte	0xf3
 2360 0e48 01       		.uleb128 0x1
 2361 0e49 50       		.byte	0x50
 2362 0e4a 23       		.byte	0x23
 2363 0e4b 10       		.uleb128 0x10
 2364 0e4c 00       		.byte	0
 2365 0e4d 00       		.byte	0
 2366 0e4e 21       		.uleb128 0x21
 2367 0e4f 07090000 		.4byte	.LASF199
 2368 0e53 01       		.byte	0x1
 2369 0e54 E5       		.byte	0xe5
 2370 0e55 07       		.byte	0x7
 2371 0e56 F2000000 		.4byte	0xf2
 2372 0e5a 00000000 		.4byte	.LFB13
 2373 0e5e 48000000 		.4byte	.LFE13-.LFB13
 2374 0e62 01       		.uleb128 0x1
 2375 0e63 9C       		.byte	0x9c
 2376 0e64 FA0E0000 		.4byte	0xefa
 2377 0e68 22       		.uleb128 0x22
 2378 0e69 92010000 		.4byte	.LASF198
 2379 0e6d 01       		.byte	0x1
 2380 0e6e E5       		.byte	0xe5
 2381 0e6f 2A       		.byte	0x2a
 2382 0e70 DB0A0000 		.4byte	0xadb
 2383 0e74 5D000000 		.4byte	.LLST10
 2384 0e78 59000000 		.4byte	.LVUS10
 2385 0e7c 22       		.uleb128 0x22
 2386 0e7d 41020000 		.4byte	.LASF149
 2387 0e81 01       		.byte	0x1
 2388 0e82 E6       		.byte	0xe6
 2389 0e83 29       		.byte	0x29
 2390 0e84 CF0A0000 		.4byte	0xacf
 2391 0e88 7F000000 		.4byte	.LLST11
 2392 0e8c 7B000000 		.4byte	.LVUS11
 2393 0e90 22       		.uleb128 0x22
 2394 0e91 1E010000 		.4byte	.LASF153
ARM GAS  /tmp/ccplGi6c.s 			page 43


 2395 0e95 01       		.byte	0x1
 2396 0e96 E7       		.byte	0xe7
 2397 0e97 28       		.byte	0x28
 2398 0e98 7B070000 		.4byte	0x77b
 2399 0e9c A4000000 		.4byte	.LLST12
 2400 0ea0 A0000000 		.4byte	.LVUS12
 2401 0ea4 22       		.uleb128 0x22
 2402 0ea5 58050000 		.4byte	.LASF154
 2403 0ea9 01       		.byte	0x1
 2404 0eaa E8       		.byte	0xe8
 2405 0eab 26       		.byte	0x26
 2406 0eac 2C000000 		.4byte	0x2c
 2407 0eb0 C9000000 		.4byte	.LLST13
 2408 0eb4 C5000000 		.4byte	.LVUS13
 2409 0eb8 23       		.uleb128 0x23
 2410 0eb9 01040000 		.4byte	.LASF201
 2411 0ebd 01       		.byte	0x1
 2412 0ebe E9       		.byte	0xe9
 2413 0ebf 29       		.byte	0x29
 2414 0ec0 16010000 		.4byte	0x116
 2415 0ec4 02       		.uleb128 0x2
 2416 0ec5 91       		.byte	0x91
 2417 0ec6 00       		.sleb128 0
 2418 0ec7 24       		.uleb128 0x24
 2419 0ec8 E7000000 		.4byte	.LASF77
 2420 0ecc 01       		.byte	0x1
 2421 0ecd EB       		.byte	0xeb
 2422 0ece 09       		.byte	0x9
 2423 0ecf F2000000 		.4byte	0xf2
 2424 0ed3 EC000000 		.4byte	.LLST14
 2425 0ed7 EA000000 		.4byte	.LVUS14
 2426 0edb 25       		.uleb128 0x25
 2427 0edc 2C000000 		.4byte	.LVL13
 2428 0ee0 FC100000 		.4byte	0x10fc
 2429 0ee4 20       		.uleb128 0x20
 2430 0ee5 01       		.uleb128 0x1
 2431 0ee6 50       		.byte	0x50
 2432 0ee7 02       		.uleb128 0x2
 2433 0ee8 74       		.byte	0x74
 2434 0ee9 00       		.sleb128 0
 2435 0eea 20       		.uleb128 0x20
 2436 0eeb 01       		.uleb128 0x1
 2437 0eec 52       		.byte	0x52
 2438 0eed 03       		.uleb128 0x3
 2439 0eee F3       		.byte	0xf3
 2440 0eef 01       		.uleb128 0x1
 2441 0ef0 52       		.byte	0x52
 2442 0ef1 20       		.uleb128 0x20
 2443 0ef2 01       		.uleb128 0x1
 2444 0ef3 53       		.byte	0x53
 2445 0ef4 03       		.uleb128 0x3
 2446 0ef5 F3       		.byte	0xf3
 2447 0ef6 01       		.uleb128 0x1
 2448 0ef7 53       		.byte	0x53
 2449 0ef8 00       		.byte	0
 2450 0ef9 00       		.byte	0
 2451 0efa 21       		.uleb128 0x21
ARM GAS  /tmp/ccplGi6c.s 			page 44


 2452 0efb 94020000 		.4byte	.LASF200
 2453 0eff 01       		.byte	0x1
 2454 0f00 B2       		.byte	0xb2
 2455 0f01 07       		.byte	0x7
 2456 0f02 F2000000 		.4byte	0xf2
 2457 0f06 00000000 		.4byte	.LFB12
 2458 0f0a 5C000000 		.4byte	.LFE12-.LFB12
 2459 0f0e 01       		.uleb128 0x1
 2460 0f0f 9C       		.byte	0x9c
 2461 0f10 CD0F0000 		.4byte	0xfcd
 2462 0f14 22       		.uleb128 0x22
 2463 0f15 92010000 		.4byte	.LASF198
 2464 0f19 01       		.byte	0x1
 2465 0f1a B2       		.byte	0xb2
 2466 0f1b 2B       		.byte	0x2b
 2467 0f1c DB0A0000 		.4byte	0xadb
 2468 0f20 03010000 		.4byte	.LLST5
 2469 0f24 FF000000 		.4byte	.LVUS5
 2470 0f28 22       		.uleb128 0x22
 2471 0f29 41020000 		.4byte	.LASF149
 2472 0f2d 01       		.byte	0x1
 2473 0f2e B3       		.byte	0xb3
 2474 0f2f 2A       		.byte	0x2a
 2475 0f30 CF0A0000 		.4byte	0xacf
 2476 0f34 25010000 		.4byte	.LLST6
 2477 0f38 21010000 		.4byte	.LVUS6
 2478 0f3c 22       		.uleb128 0x22
 2479 0f3d C2030000 		.4byte	.LASF150
 2480 0f41 01       		.byte	0x1
 2481 0f42 B4       		.byte	0xb4
 2482 0f43 2F       		.byte	0x2f
 2483 0f44 B2070000 		.4byte	0x7b2
 2484 0f48 4A010000 		.4byte	.LLST7
 2485 0f4c 46010000 		.4byte	.LVUS7
 2486 0f50 22       		.uleb128 0x22
 2487 0f51 B9090000 		.4byte	.LASF151
 2488 0f55 01       		.byte	0x1
 2489 0f56 B5       		.byte	0xb5
 2490 0f57 27       		.byte	0x27
 2491 0f58 2C000000 		.4byte	0x2c
 2492 0f5c 6F010000 		.4byte	.LLST8
 2493 0f60 6B010000 		.4byte	.LVUS8
 2494 0f64 23       		.uleb128 0x23
 2495 0f65 1E010000 		.4byte	.LASF153
 2496 0f69 01       		.byte	0x1
 2497 0f6a B6       		.byte	0xb6
 2498 0f6b 29       		.byte	0x29
 2499 0f6c 7B070000 		.4byte	0x77b
 2500 0f70 02       		.uleb128 0x2
 2501 0f71 91       		.byte	0x91
 2502 0f72 00       		.sleb128 0
 2503 0f73 23       		.uleb128 0x23
 2504 0f74 58050000 		.4byte	.LASF154
 2505 0f78 01       		.byte	0x1
 2506 0f79 B7       		.byte	0xb7
 2507 0f7a 27       		.byte	0x27
 2508 0f7b 2C000000 		.4byte	0x2c
ARM GAS  /tmp/ccplGi6c.s 			page 45


 2509 0f7f 02       		.uleb128 0x2
 2510 0f80 91       		.byte	0x91
 2511 0f81 04       		.sleb128 4
 2512 0f82 23       		.uleb128 0x23
 2513 0f83 01040000 		.4byte	.LASF201
 2514 0f87 01       		.byte	0x1
 2515 0f88 B8       		.byte	0xb8
 2516 0f89 2A       		.byte	0x2a
 2517 0f8a 16010000 		.4byte	0x116
 2518 0f8e 02       		.uleb128 0x2
 2519 0f8f 91       		.byte	0x91
 2520 0f90 08       		.sleb128 8
 2521 0f91 24       		.uleb128 0x24
 2522 0f92 E7000000 		.4byte	.LASF77
 2523 0f96 01       		.byte	0x1
 2524 0f97 B9       		.byte	0xb9
 2525 0f98 09       		.byte	0x9
 2526 0f99 F2000000 		.4byte	0xf2
 2527 0f9d 92010000 		.4byte	.LLST9
 2528 0fa1 90010000 		.4byte	.LVUS9
 2529 0fa5 25       		.uleb128 0x25
 2530 0fa6 40000000 		.4byte	.LVL11
 2531 0faa 08110000 		.4byte	0x1108
 2532 0fae 20       		.uleb128 0x20
 2533 0faf 01       		.uleb128 0x1
 2534 0fb0 50       		.byte	0x50
 2535 0fb1 02       		.uleb128 0x2
 2536 0fb2 74       		.byte	0x74
 2537 0fb3 00       		.sleb128 0
 2538 0fb4 20       		.uleb128 0x20
 2539 0fb5 01       		.uleb128 0x1
 2540 0fb6 52       		.byte	0x52
 2541 0fb7 03       		.uleb128 0x3
 2542 0fb8 F3       		.byte	0xf3
 2543 0fb9 01       		.uleb128 0x1
 2544 0fba 52       		.byte	0x52
 2545 0fbb 20       		.uleb128 0x20
 2546 0fbc 01       		.uleb128 0x1
 2547 0fbd 53       		.byte	0x53
 2548 0fbe 03       		.uleb128 0x3
 2549 0fbf F3       		.byte	0xf3
 2550 0fc0 01       		.uleb128 0x1
 2551 0fc1 53       		.byte	0x53
 2552 0fc2 20       		.uleb128 0x20
 2553 0fc3 02       		.uleb128 0x2
 2554 0fc4 7D       		.byte	0x7d
 2555 0fc5 04       		.sleb128 4
 2556 0fc6 04       		.uleb128 0x4
 2557 0fc7 91       		.byte	0x91
 2558 0fc8 7C       		.sleb128 -4
 2559 0fc9 94       		.byte	0x94
 2560 0fca 01       		.byte	0x1
 2561 0fcb 00       		.byte	0
 2562 0fcc 00       		.byte	0
 2563 0fcd 21       		.uleb128 0x21
 2564 0fce 6D010000 		.4byte	.LASF202
 2565 0fd2 01       		.byte	0x1
ARM GAS  /tmp/ccplGi6c.s 			page 46


 2566 0fd3 91       		.byte	0x91
 2567 0fd4 0C       		.byte	0xc
 2568 0fd5 C30A0000 		.4byte	0xac3
 2569 0fd9 00000000 		.4byte	.LFB11
 2570 0fdd 08000000 		.4byte	.LFE11-.LFB11
 2571 0fe1 01       		.uleb128 0x1
 2572 0fe2 9C       		.byte	0x9c
 2573 0fe3 FC0F0000 		.4byte	0xffc
 2574 0fe7 22       		.uleb128 0x22
 2575 0fe8 92010000 		.4byte	.LASF198
 2576 0fec 01       		.byte	0x1
 2577 0fed 91       		.byte	0x91
 2578 0fee 24       		.byte	0x24
 2579 0fef DB0A0000 		.4byte	0xadb
 2580 0ff3 A9010000 		.4byte	.LLST4
 2581 0ff7 A5010000 		.4byte	.LVUS4
 2582 0ffb 00       		.byte	0
 2583 0ffc 26       		.uleb128 0x26
 2584 0ffd A5050000 		.4byte	.LASF203
 2585 1001 01       		.byte	0x1
 2586 1002 7B       		.byte	0x7b
 2587 1003 06       		.byte	0x6
 2588 1004 00000000 		.4byte	.LFB10
 2589 1008 20000000 		.4byte	.LFE10-.LFB10
 2590 100c 01       		.uleb128 0x1
 2591 100d 9C       		.byte	0x9c
 2592 100e 37100000 		.4byte	0x1037
 2593 1012 22       		.uleb128 0x22
 2594 1013 92010000 		.4byte	.LASF198
 2595 1017 01       		.byte	0x1
 2596 1018 7B       		.byte	0x7b
 2597 1019 19       		.byte	0x19
 2598 101a DB0A0000 		.4byte	0xadb
 2599 101e CE010000 		.4byte	.LLST3
 2600 1022 CA010000 		.4byte	.LVUS3
 2601 1026 25       		.uleb128 0x25
 2602 1027 10000000 		.4byte	.LVL7
 2603 102b 14110000 		.4byte	0x1114
 2604 102f 20       		.uleb128 0x20
 2605 1030 01       		.uleb128 0x1
 2606 1031 50       		.byte	0x50
 2607 1032 02       		.uleb128 0x2
 2608 1033 74       		.byte	0x74
 2609 1034 00       		.sleb128 0
 2610 1035 00       		.byte	0
 2611 1036 00       		.byte	0
 2612 1037 26       		.uleb128 0x26
 2613 1038 5B010000 		.4byte	.LASF204
 2614 103c 01       		.byte	0x1
 2615 103d 65       		.byte	0x65
 2616 103e 06       		.byte	0x6
 2617 103f 00000000 		.4byte	.LFB9
 2618 1043 24000000 		.4byte	.LFE9-.LFB9
 2619 1047 01       		.uleb128 0x1
 2620 1048 9C       		.byte	0x9c
 2621 1049 86100000 		.4byte	0x1086
 2622 104d 22       		.uleb128 0x22
ARM GAS  /tmp/ccplGi6c.s 			page 47


 2623 104e 92010000 		.4byte	.LASF198
 2624 1052 01       		.byte	0x1
 2625 1053 65       		.byte	0x65
 2626 1054 1A       		.byte	0x1a
 2627 1055 DB0A0000 		.4byte	0xadb
 2628 1059 F0010000 		.4byte	.LLST1
 2629 105d EC010000 		.4byte	.LVUS1
 2630 1061 22       		.uleb128 0x22
 2631 1062 D0070000 		.4byte	.LASF144
 2632 1066 01       		.byte	0x1
 2633 1067 65       		.byte	0x65
 2634 1068 31       		.byte	0x31
 2635 1069 090B0000 		.4byte	0xb09
 2636 106d 12020000 		.4byte	.LLST2
 2637 1071 0E020000 		.4byte	.LVUS2
 2638 1075 25       		.uleb128 0x25
 2639 1076 14000000 		.4byte	.LVL5
 2640 107a 20110000 		.4byte	0x1120
 2641 107e 20       		.uleb128 0x20
 2642 107f 01       		.uleb128 0x1
 2643 1080 50       		.byte	0x50
 2644 1081 02       		.uleb128 0x2
 2645 1082 74       		.byte	0x74
 2646 1083 00       		.sleb128 0
 2647 1084 00       		.byte	0
 2648 1085 00       		.byte	0
 2649 1086 26       		.uleb128 0x26
 2650 1087 3F080000 		.4byte	.LASF205
 2651 108b 01       		.byte	0x1
 2652 108c 4B       		.byte	0x4b
 2653 108d 06       		.byte	0x6
 2654 108e 00000000 		.4byte	.LFB8
 2655 1092 18000000 		.4byte	.LFE8-.LFB8
 2656 1096 01       		.uleb128 0x1
 2657 1097 9C       		.byte	0x9c
 2658 1098 C4100000 		.4byte	0x10c4
 2659 109c 22       		.uleb128 0x22
 2660 109d 92010000 		.4byte	.LASF198
 2661 10a1 01       		.byte	0x1
 2662 10a2 4B       		.byte	0x4b
 2663 10a3 1F       		.byte	0x1f
 2664 10a4 DB0A0000 		.4byte	0xadb
 2665 10a8 39020000 		.4byte	.LLST0
 2666 10ac 33020000 		.4byte	.LVUS0
 2667 10b0 1F       		.uleb128 0x1f
 2668 10b1 18000000 		.4byte	.LVL3
 2669 10b5 2C110000 		.4byte	0x112c
 2670 10b9 20       		.uleb128 0x20
 2671 10ba 01       		.uleb128 0x1
 2672 10bb 50       		.byte	0x50
 2673 10bc 05       		.uleb128 0x5
 2674 10bd F3       		.byte	0xf3
 2675 10be 01       		.uleb128 0x1
 2676 10bf 50       		.byte	0x50
 2677 10c0 23       		.byte	0x23
 2678 10c1 10       		.uleb128 0x10
 2679 10c2 00       		.byte	0
ARM GAS  /tmp/ccplGi6c.s 			page 48


 2680 10c3 00       		.byte	0
 2681 10c4 26       		.uleb128 0x26
 2682 10c5 58090000 		.4byte	.LASF206
 2683 10c9 01       		.byte	0x1
 2684 10ca 40       		.byte	0x40
 2685 10cb 06       		.byte	0x6
 2686 10cc 00000000 		.4byte	.LFB7
 2687 10d0 04000000 		.4byte	.LFE7-.LFB7
 2688 10d4 01       		.uleb128 0x1
 2689 10d5 9C       		.byte	0x9c
 2690 10d6 E4100000 		.4byte	0x10e4
 2691 10da 1E       		.uleb128 0x1e
 2692 10db 04000000 		.4byte	.LVL0
 2693 10df 38110000 		.4byte	0x1138
 2694 10e3 00       		.byte	0
 2695 10e4 27       		.uleb128 0x27
 2696 10e5 41010000 		.4byte	.LASF207
 2697 10e9 41010000 		.4byte	.LASF207
 2698 10ed 0A       		.byte	0xa
 2699 10ee 36       		.byte	0x36
 2700 10ef 0A       		.byte	0xa
 2701 10f0 27       		.uleb128 0x27
 2702 10f1 46050000 		.4byte	.LASF208
 2703 10f5 46050000 		.4byte	.LASF208
 2704 10f9 0A       		.byte	0xa
 2705 10fa 32       		.byte	0x32
 2706 10fb 08       		.byte	0x8
 2707 10fc 27       		.uleb128 0x27
 2708 10fd 22020000 		.4byte	.LASF209
 2709 1101 22020000 		.4byte	.LASF209
 2710 1105 12       		.byte	0x12
 2711 1106 B4       		.byte	0xb4
 2712 1107 09       		.byte	0x9
 2713 1108 27       		.uleb128 0x27
 2714 1109 46020000 		.4byte	.LASF210
 2715 110d 46020000 		.4byte	.LASF210
 2716 1111 12       		.byte	0x12
 2717 1112 AF       		.byte	0xaf
 2718 1113 09       		.byte	0x9
 2719 1114 27       		.uleb128 0x27
 2720 1115 C9040000 		.4byte	.LASF211
 2721 1119 C9040000 		.4byte	.LASF211
 2722 111d 12       		.byte	0x12
 2723 111e AD       		.byte	0xad
 2724 111f 08       		.byte	0x8
 2725 1120 27       		.uleb128 0x27
 2726 1121 D7070000 		.4byte	.LASF212
 2727 1125 D7070000 		.4byte	.LASF212
 2728 1129 12       		.byte	0x12
 2729 112a AC       		.byte	0xac
 2730 112b 08       		.byte	0x8
 2731 112c 27       		.uleb128 0x27
 2732 112d 84080000 		.4byte	.LASF213
 2733 1131 84080000 		.4byte	.LASF213
 2734 1135 0A       		.byte	0xa
 2735 1136 31       		.byte	0x31
 2736 1137 08       		.byte	0x8
ARM GAS  /tmp/ccplGi6c.s 			page 49


 2737 1138 27       		.uleb128 0x27
 2738 1139 BF080000 		.4byte	.LASF214
 2739 113d BF080000 		.4byte	.LASF214
 2740 1141 12       		.byte	0x12
 2741 1142 AB       		.byte	0xab
 2742 1143 08       		.byte	0x8
 2743 1144 00       		.byte	0
 2744              		.section	.debug_abbrev,"",%progbits
 2745              	.Ldebug_abbrev0:
 2746 0000 01       		.uleb128 0x1
 2747 0001 11       		.uleb128 0x11
 2748 0002 01       		.byte	0x1
 2749 0003 25       		.uleb128 0x25
 2750 0004 0E       		.uleb128 0xe
 2751 0005 13       		.uleb128 0x13
 2752 0006 0B       		.uleb128 0xb
 2753 0007 03       		.uleb128 0x3
 2754 0008 0E       		.uleb128 0xe
 2755 0009 1B       		.uleb128 0x1b
 2756 000a 0E       		.uleb128 0xe
 2757 000b 55       		.uleb128 0x55
 2758 000c 17       		.uleb128 0x17
 2759 000d 11       		.uleb128 0x11
 2760 000e 01       		.uleb128 0x1
 2761 000f 10       		.uleb128 0x10
 2762 0010 17       		.uleb128 0x17
 2763 0011 00       		.byte	0
 2764 0012 00       		.byte	0
 2765 0013 02       		.uleb128 0x2
 2766 0014 24       		.uleb128 0x24
 2767 0015 00       		.byte	0
 2768 0016 0B       		.uleb128 0xb
 2769 0017 0B       		.uleb128 0xb
 2770 0018 3E       		.uleb128 0x3e
 2771 0019 0B       		.uleb128 0xb
 2772 001a 03       		.uleb128 0x3
 2773 001b 08       		.uleb128 0x8
 2774 001c 00       		.byte	0
 2775 001d 00       		.byte	0
 2776 001e 03       		.uleb128 0x3
 2777 001f 16       		.uleb128 0x16
 2778 0020 00       		.byte	0
 2779 0021 03       		.uleb128 0x3
 2780 0022 0E       		.uleb128 0xe
 2781 0023 3A       		.uleb128 0x3a
 2782 0024 0B       		.uleb128 0xb
 2783 0025 3B       		.uleb128 0x3b
 2784 0026 0B       		.uleb128 0xb
 2785 0027 39       		.uleb128 0x39
 2786 0028 0B       		.uleb128 0xb
 2787 0029 49       		.uleb128 0x49
 2788 002a 13       		.uleb128 0x13
 2789 002b 00       		.byte	0
 2790 002c 00       		.byte	0
 2791 002d 04       		.uleb128 0x4
 2792 002e 24       		.uleb128 0x24
 2793 002f 00       		.byte	0
ARM GAS  /tmp/ccplGi6c.s 			page 50


 2794 0030 0B       		.uleb128 0xb
 2795 0031 0B       		.uleb128 0xb
 2796 0032 3E       		.uleb128 0x3e
 2797 0033 0B       		.uleb128 0xb
 2798 0034 03       		.uleb128 0x3
 2799 0035 0E       		.uleb128 0xe
 2800 0036 00       		.byte	0
 2801 0037 00       		.byte	0
 2802 0038 05       		.uleb128 0x5
 2803 0039 35       		.uleb128 0x35
 2804 003a 00       		.byte	0
 2805 003b 49       		.uleb128 0x49
 2806 003c 13       		.uleb128 0x13
 2807 003d 00       		.byte	0
 2808 003e 00       		.byte	0
 2809 003f 06       		.uleb128 0x6
 2810 0040 26       		.uleb128 0x26
 2811 0041 00       		.byte	0
 2812 0042 49       		.uleb128 0x49
 2813 0043 13       		.uleb128 0x13
 2814 0044 00       		.byte	0
 2815 0045 00       		.byte	0
 2816 0046 07       		.uleb128 0x7
 2817 0047 13       		.uleb128 0x13
 2818 0048 01       		.byte	0x1
 2819 0049 03       		.uleb128 0x3
 2820 004a 0E       		.uleb128 0xe
 2821 004b 0B       		.uleb128 0xb
 2822 004c 0B       		.uleb128 0xb
 2823 004d 3A       		.uleb128 0x3a
 2824 004e 0B       		.uleb128 0xb
 2825 004f 3B       		.uleb128 0x3b
 2826 0050 0B       		.uleb128 0xb
 2827 0051 39       		.uleb128 0x39
 2828 0052 0B       		.uleb128 0xb
 2829 0053 01       		.uleb128 0x1
 2830 0054 13       		.uleb128 0x13
 2831 0055 00       		.byte	0
 2832 0056 00       		.byte	0
 2833 0057 08       		.uleb128 0x8
 2834 0058 0D       		.uleb128 0xd
 2835 0059 00       		.byte	0
 2836 005a 03       		.uleb128 0x3
 2837 005b 0E       		.uleb128 0xe
 2838 005c 3A       		.uleb128 0x3a
 2839 005d 0B       		.uleb128 0xb
 2840 005e 3B       		.uleb128 0x3b
 2841 005f 0B       		.uleb128 0xb
 2842 0060 39       		.uleb128 0x39
 2843 0061 0B       		.uleb128 0xb
 2844 0062 49       		.uleb128 0x49
 2845 0063 13       		.uleb128 0x13
 2846 0064 38       		.uleb128 0x38
 2847 0065 0B       		.uleb128 0xb
 2848 0066 00       		.byte	0
 2849 0067 00       		.byte	0
 2850 0068 09       		.uleb128 0x9
ARM GAS  /tmp/ccplGi6c.s 			page 51


 2851 0069 0D       		.uleb128 0xd
 2852 006a 00       		.byte	0
 2853 006b 03       		.uleb128 0x3
 2854 006c 08       		.uleb128 0x8
 2855 006d 3A       		.uleb128 0x3a
 2856 006e 0B       		.uleb128 0xb
 2857 006f 3B       		.uleb128 0x3b
 2858 0070 0B       		.uleb128 0xb
 2859 0071 39       		.uleb128 0x39
 2860 0072 0B       		.uleb128 0xb
 2861 0073 49       		.uleb128 0x49
 2862 0074 13       		.uleb128 0x13
 2863 0075 38       		.uleb128 0x38
 2864 0076 0B       		.uleb128 0xb
 2865 0077 00       		.byte	0
 2866 0078 00       		.byte	0
 2867 0079 0A       		.uleb128 0xa
 2868 007a 13       		.uleb128 0x13
 2869 007b 01       		.byte	0x1
 2870 007c 0B       		.uleb128 0xb
 2871 007d 0B       		.uleb128 0xb
 2872 007e 3A       		.uleb128 0x3a
 2873 007f 0B       		.uleb128 0xb
 2874 0080 3B       		.uleb128 0x3b
 2875 0081 0B       		.uleb128 0xb
 2876 0082 39       		.uleb128 0x39
 2877 0083 0B       		.uleb128 0xb
 2878 0084 01       		.uleb128 0x1
 2879 0085 13       		.uleb128 0x13
 2880 0086 00       		.byte	0
 2881 0087 00       		.byte	0
 2882 0088 0B       		.uleb128 0xb
 2883 0089 0F       		.uleb128 0xf
 2884 008a 00       		.byte	0
 2885 008b 0B       		.uleb128 0xb
 2886 008c 0B       		.uleb128 0xb
 2887 008d 49       		.uleb128 0x49
 2888 008e 13       		.uleb128 0x13
 2889 008f 00       		.byte	0
 2890 0090 00       		.byte	0
 2891 0091 0C       		.uleb128 0xc
 2892 0092 0F       		.uleb128 0xf
 2893 0093 00       		.byte	0
 2894 0094 0B       		.uleb128 0xb
 2895 0095 0B       		.uleb128 0xb
 2896 0096 00       		.byte	0
 2897 0097 00       		.byte	0
 2898 0098 0D       		.uleb128 0xd
 2899 0099 15       		.uleb128 0x15
 2900 009a 01       		.byte	0x1
 2901 009b 27       		.uleb128 0x27
 2902 009c 19       		.uleb128 0x19
 2903 009d 01       		.uleb128 0x1
 2904 009e 13       		.uleb128 0x13
 2905 009f 00       		.byte	0
 2906 00a0 00       		.byte	0
 2907 00a1 0E       		.uleb128 0xe
ARM GAS  /tmp/ccplGi6c.s 			page 52


 2908 00a2 05       		.uleb128 0x5
 2909 00a3 00       		.byte	0
 2910 00a4 49       		.uleb128 0x49
 2911 00a5 13       		.uleb128 0x13
 2912 00a6 00       		.byte	0
 2913 00a7 00       		.byte	0
 2914 00a8 0F       		.uleb128 0xf
 2915 00a9 34       		.uleb128 0x34
 2916 00aa 00       		.byte	0
 2917 00ab 03       		.uleb128 0x3
 2918 00ac 0E       		.uleb128 0xe
 2919 00ad 3A       		.uleb128 0x3a
 2920 00ae 0B       		.uleb128 0xb
 2921 00af 3B       		.uleb128 0x3b
 2922 00b0 0B       		.uleb128 0xb
 2923 00b1 39       		.uleb128 0x39
 2924 00b2 0B       		.uleb128 0xb
 2925 00b3 49       		.uleb128 0x49
 2926 00b4 13       		.uleb128 0x13
 2927 00b5 3F       		.uleb128 0x3f
 2928 00b6 19       		.uleb128 0x19
 2929 00b7 3C       		.uleb128 0x3c
 2930 00b8 19       		.uleb128 0x19
 2931 00b9 00       		.byte	0
 2932 00ba 00       		.byte	0
 2933 00bb 10       		.uleb128 0x10
 2934 00bc 17       		.uleb128 0x17
 2935 00bd 01       		.byte	0x1
 2936 00be 0B       		.uleb128 0xb
 2937 00bf 0B       		.uleb128 0xb
 2938 00c0 3A       		.uleb128 0x3a
 2939 00c1 0B       		.uleb128 0xb
 2940 00c2 3B       		.uleb128 0x3b
 2941 00c3 0B       		.uleb128 0xb
 2942 00c4 39       		.uleb128 0x39
 2943 00c5 0B       		.uleb128 0xb
 2944 00c6 01       		.uleb128 0x1
 2945 00c7 13       		.uleb128 0x13
 2946 00c8 00       		.byte	0
 2947 00c9 00       		.byte	0
 2948 00ca 11       		.uleb128 0x11
 2949 00cb 0D       		.uleb128 0xd
 2950 00cc 00       		.byte	0
 2951 00cd 03       		.uleb128 0x3
 2952 00ce 0E       		.uleb128 0xe
 2953 00cf 3A       		.uleb128 0x3a
 2954 00d0 0B       		.uleb128 0xb
 2955 00d1 3B       		.uleb128 0x3b
 2956 00d2 0B       		.uleb128 0xb
 2957 00d3 39       		.uleb128 0x39
 2958 00d4 0B       		.uleb128 0xb
 2959 00d5 49       		.uleb128 0x49
 2960 00d6 13       		.uleb128 0x13
 2961 00d7 00       		.byte	0
 2962 00d8 00       		.byte	0
 2963 00d9 12       		.uleb128 0x12
 2964 00da 15       		.uleb128 0x15
ARM GAS  /tmp/ccplGi6c.s 			page 53


 2965 00db 01       		.byte	0x1
 2966 00dc 27       		.uleb128 0x27
 2967 00dd 19       		.uleb128 0x19
 2968 00de 49       		.uleb128 0x49
 2969 00df 13       		.uleb128 0x13
 2970 00e0 01       		.uleb128 0x1
 2971 00e1 13       		.uleb128 0x13
 2972 00e2 00       		.byte	0
 2973 00e3 00       		.byte	0
 2974 00e4 13       		.uleb128 0x13
 2975 00e5 01       		.uleb128 0x1
 2976 00e6 01       		.byte	0x1
 2977 00e7 49       		.uleb128 0x49
 2978 00e8 13       		.uleb128 0x13
 2979 00e9 01       		.uleb128 0x1
 2980 00ea 13       		.uleb128 0x13
 2981 00eb 00       		.byte	0
 2982 00ec 00       		.byte	0
 2983 00ed 14       		.uleb128 0x14
 2984 00ee 21       		.uleb128 0x21
 2985 00ef 00       		.byte	0
 2986 00f0 49       		.uleb128 0x49
 2987 00f1 13       		.uleb128 0x13
 2988 00f2 2F       		.uleb128 0x2f
 2989 00f3 0B       		.uleb128 0xb
 2990 00f4 00       		.byte	0
 2991 00f5 00       		.byte	0
 2992 00f6 15       		.uleb128 0x15
 2993 00f7 0D       		.uleb128 0xd
 2994 00f8 00       		.byte	0
 2995 00f9 03       		.uleb128 0x3
 2996 00fa 0E       		.uleb128 0xe
 2997 00fb 3A       		.uleb128 0x3a
 2998 00fc 0B       		.uleb128 0xb
 2999 00fd 3B       		.uleb128 0x3b
 3000 00fe 05       		.uleb128 0x5
 3001 00ff 39       		.uleb128 0x39
 3002 0100 0B       		.uleb128 0xb
 3003 0101 49       		.uleb128 0x49
 3004 0102 13       		.uleb128 0x13
 3005 0103 38       		.uleb128 0x38
 3006 0104 0B       		.uleb128 0xb
 3007 0105 00       		.byte	0
 3008 0106 00       		.byte	0
 3009 0107 16       		.uleb128 0x16
 3010 0108 16       		.uleb128 0x16
 3011 0109 00       		.byte	0
 3012 010a 03       		.uleb128 0x3
 3013 010b 0E       		.uleb128 0xe
 3014 010c 3A       		.uleb128 0x3a
 3015 010d 0B       		.uleb128 0xb
 3016 010e 3B       		.uleb128 0x3b
 3017 010f 05       		.uleb128 0x5
 3018 0110 39       		.uleb128 0x39
 3019 0111 0B       		.uleb128 0xb
 3020 0112 49       		.uleb128 0x49
 3021 0113 13       		.uleb128 0x13
ARM GAS  /tmp/ccplGi6c.s 			page 54


 3022 0114 00       		.byte	0
 3023 0115 00       		.byte	0
 3024 0116 17       		.uleb128 0x17
 3025 0117 13       		.uleb128 0x13
 3026 0118 00       		.byte	0
 3027 0119 0B       		.uleb128 0xb
 3028 011a 0B       		.uleb128 0xb
 3029 011b 3A       		.uleb128 0x3a
 3030 011c 0B       		.uleb128 0xb
 3031 011d 3B       		.uleb128 0x3b
 3032 011e 0B       		.uleb128 0xb
 3033 011f 39       		.uleb128 0x39
 3034 0120 0B       		.uleb128 0xb
 3035 0121 00       		.byte	0
 3036 0122 00       		.byte	0
 3037 0123 18       		.uleb128 0x18
 3038 0124 04       		.uleb128 0x4
 3039 0125 01       		.byte	0x1
 3040 0126 3E       		.uleb128 0x3e
 3041 0127 0B       		.uleb128 0xb
 3042 0128 0B       		.uleb128 0xb
 3043 0129 0B       		.uleb128 0xb
 3044 012a 49       		.uleb128 0x49
 3045 012b 13       		.uleb128 0x13
 3046 012c 3A       		.uleb128 0x3a
 3047 012d 0B       		.uleb128 0xb
 3048 012e 3B       		.uleb128 0x3b
 3049 012f 0B       		.uleb128 0xb
 3050 0130 39       		.uleb128 0x39
 3051 0131 0B       		.uleb128 0xb
 3052 0132 01       		.uleb128 0x1
 3053 0133 13       		.uleb128 0x13
 3054 0134 00       		.byte	0
 3055 0135 00       		.byte	0
 3056 0136 19       		.uleb128 0x19
 3057 0137 28       		.uleb128 0x28
 3058 0138 00       		.byte	0
 3059 0139 03       		.uleb128 0x3
 3060 013a 0E       		.uleb128 0xe
 3061 013b 1C       		.uleb128 0x1c
 3062 013c 0B       		.uleb128 0xb
 3063 013d 00       		.byte	0
 3064 013e 00       		.byte	0
 3065 013f 1A       		.uleb128 0x1a
 3066 0140 34       		.uleb128 0x34
 3067 0141 00       		.byte	0
 3068 0142 03       		.uleb128 0x3
 3069 0143 08       		.uleb128 0x8
 3070 0144 3A       		.uleb128 0x3a
 3071 0145 0B       		.uleb128 0xb
 3072 0146 3B       		.uleb128 0x3b
 3073 0147 0B       		.uleb128 0xb
 3074 0148 39       		.uleb128 0x39
 3075 0149 0B       		.uleb128 0xb
 3076 014a 49       		.uleb128 0x49
 3077 014b 13       		.uleb128 0x13
 3078 014c 3F       		.uleb128 0x3f
ARM GAS  /tmp/ccplGi6c.s 			page 55


 3079 014d 19       		.uleb128 0x19
 3080 014e 3C       		.uleb128 0x3c
 3081 014f 19       		.uleb128 0x19
 3082 0150 00       		.byte	0
 3083 0151 00       		.byte	0
 3084 0152 1B       		.uleb128 0x1b
 3085 0153 26       		.uleb128 0x26
 3086 0154 00       		.byte	0
 3087 0155 00       		.byte	0
 3088 0156 00       		.byte	0
 3089 0157 1C       		.uleb128 0x1c
 3090 0158 2E       		.uleb128 0x2e
 3091 0159 01       		.byte	0x1
 3092 015a 3F       		.uleb128 0x3f
 3093 015b 19       		.uleb128 0x19
 3094 015c 03       		.uleb128 0x3
 3095 015d 0E       		.uleb128 0xe
 3096 015e 3A       		.uleb128 0x3a
 3097 015f 0B       		.uleb128 0xb
 3098 0160 3B       		.uleb128 0x3b
 3099 0161 05       		.uleb128 0x5
 3100 0162 39       		.uleb128 0x39
 3101 0163 0B       		.uleb128 0xb
 3102 0164 27       		.uleb128 0x27
 3103 0165 19       		.uleb128 0x19
 3104 0166 11       		.uleb128 0x11
 3105 0167 01       		.uleb128 0x1
 3106 0168 12       		.uleb128 0x12
 3107 0169 06       		.uleb128 0x6
 3108 016a 40       		.uleb128 0x40
 3109 016b 18       		.uleb128 0x18
 3110 016c 9742     		.uleb128 0x2117
 3111 016e 19       		.uleb128 0x19
 3112 016f 01       		.uleb128 0x1
 3113 0170 13       		.uleb128 0x13
 3114 0171 00       		.byte	0
 3115 0172 00       		.byte	0
 3116 0173 1D       		.uleb128 0x1d
 3117 0174 05       		.uleb128 0x5
 3118 0175 00       		.byte	0
 3119 0176 03       		.uleb128 0x3
 3120 0177 0E       		.uleb128 0xe
 3121 0178 3A       		.uleb128 0x3a
 3122 0179 0B       		.uleb128 0xb
 3123 017a 3B       		.uleb128 0x3b
 3124 017b 05       		.uleb128 0x5
 3125 017c 39       		.uleb128 0x39
 3126 017d 0B       		.uleb128 0xb
 3127 017e 49       		.uleb128 0x49
 3128 017f 13       		.uleb128 0x13
 3129 0180 02       		.uleb128 0x2
 3130 0181 17       		.uleb128 0x17
 3131 0182 B742     		.uleb128 0x2137
 3132 0184 17       		.uleb128 0x17
 3133 0185 00       		.byte	0
 3134 0186 00       		.byte	0
 3135 0187 1E       		.uleb128 0x1e
ARM GAS  /tmp/ccplGi6c.s 			page 56


 3136 0188 898201   		.uleb128 0x4109
 3137 018b 00       		.byte	0
 3138 018c 11       		.uleb128 0x11
 3139 018d 01       		.uleb128 0x1
 3140 018e 9542     		.uleb128 0x2115
 3141 0190 19       		.uleb128 0x19
 3142 0191 31       		.uleb128 0x31
 3143 0192 13       		.uleb128 0x13
 3144 0193 00       		.byte	0
 3145 0194 00       		.byte	0
 3146 0195 1F       		.uleb128 0x1f
 3147 0196 898201   		.uleb128 0x4109
 3148 0199 01       		.byte	0x1
 3149 019a 11       		.uleb128 0x11
 3150 019b 01       		.uleb128 0x1
 3151 019c 9542     		.uleb128 0x2115
 3152 019e 19       		.uleb128 0x19
 3153 019f 31       		.uleb128 0x31
 3154 01a0 13       		.uleb128 0x13
 3155 01a1 00       		.byte	0
 3156 01a2 00       		.byte	0
 3157 01a3 20       		.uleb128 0x20
 3158 01a4 8A8201   		.uleb128 0x410a
 3159 01a7 00       		.byte	0
 3160 01a8 02       		.uleb128 0x2
 3161 01a9 18       		.uleb128 0x18
 3162 01aa 9142     		.uleb128 0x2111
 3163 01ac 18       		.uleb128 0x18
 3164 01ad 00       		.byte	0
 3165 01ae 00       		.byte	0
 3166 01af 21       		.uleb128 0x21
 3167 01b0 2E       		.uleb128 0x2e
 3168 01b1 01       		.byte	0x1
 3169 01b2 3F       		.uleb128 0x3f
 3170 01b3 19       		.uleb128 0x19
 3171 01b4 03       		.uleb128 0x3
 3172 01b5 0E       		.uleb128 0xe
 3173 01b6 3A       		.uleb128 0x3a
 3174 01b7 0B       		.uleb128 0xb
 3175 01b8 3B       		.uleb128 0x3b
 3176 01b9 0B       		.uleb128 0xb
 3177 01ba 39       		.uleb128 0x39
 3178 01bb 0B       		.uleb128 0xb
 3179 01bc 27       		.uleb128 0x27
 3180 01bd 19       		.uleb128 0x19
 3181 01be 49       		.uleb128 0x49
 3182 01bf 13       		.uleb128 0x13
 3183 01c0 11       		.uleb128 0x11
 3184 01c1 01       		.uleb128 0x1
 3185 01c2 12       		.uleb128 0x12
 3186 01c3 06       		.uleb128 0x6
 3187 01c4 40       		.uleb128 0x40
 3188 01c5 18       		.uleb128 0x18
 3189 01c6 9742     		.uleb128 0x2117
 3190 01c8 19       		.uleb128 0x19
 3191 01c9 01       		.uleb128 0x1
 3192 01ca 13       		.uleb128 0x13
ARM GAS  /tmp/ccplGi6c.s 			page 57


 3193 01cb 00       		.byte	0
 3194 01cc 00       		.byte	0
 3195 01cd 22       		.uleb128 0x22
 3196 01ce 05       		.uleb128 0x5
 3197 01cf 00       		.byte	0
 3198 01d0 03       		.uleb128 0x3
 3199 01d1 0E       		.uleb128 0xe
 3200 01d2 3A       		.uleb128 0x3a
 3201 01d3 0B       		.uleb128 0xb
 3202 01d4 3B       		.uleb128 0x3b
 3203 01d5 0B       		.uleb128 0xb
 3204 01d6 39       		.uleb128 0x39
 3205 01d7 0B       		.uleb128 0xb
 3206 01d8 49       		.uleb128 0x49
 3207 01d9 13       		.uleb128 0x13
 3208 01da 02       		.uleb128 0x2
 3209 01db 17       		.uleb128 0x17
 3210 01dc B742     		.uleb128 0x2137
 3211 01de 17       		.uleb128 0x17
 3212 01df 00       		.byte	0
 3213 01e0 00       		.byte	0
 3214 01e1 23       		.uleb128 0x23
 3215 01e2 05       		.uleb128 0x5
 3216 01e3 00       		.byte	0
 3217 01e4 03       		.uleb128 0x3
 3218 01e5 0E       		.uleb128 0xe
 3219 01e6 3A       		.uleb128 0x3a
 3220 01e7 0B       		.uleb128 0xb
 3221 01e8 3B       		.uleb128 0x3b
 3222 01e9 0B       		.uleb128 0xb
 3223 01ea 39       		.uleb128 0x39
 3224 01eb 0B       		.uleb128 0xb
 3225 01ec 49       		.uleb128 0x49
 3226 01ed 13       		.uleb128 0x13
 3227 01ee 02       		.uleb128 0x2
 3228 01ef 18       		.uleb128 0x18
 3229 01f0 00       		.byte	0
 3230 01f1 00       		.byte	0
 3231 01f2 24       		.uleb128 0x24
 3232 01f3 34       		.uleb128 0x34
 3233 01f4 00       		.byte	0
 3234 01f5 03       		.uleb128 0x3
 3235 01f6 0E       		.uleb128 0xe
 3236 01f7 3A       		.uleb128 0x3a
 3237 01f8 0B       		.uleb128 0xb
 3238 01f9 3B       		.uleb128 0x3b
 3239 01fa 0B       		.uleb128 0xb
 3240 01fb 39       		.uleb128 0x39
 3241 01fc 0B       		.uleb128 0xb
 3242 01fd 49       		.uleb128 0x49
 3243 01fe 13       		.uleb128 0x13
 3244 01ff 02       		.uleb128 0x2
 3245 0200 17       		.uleb128 0x17
 3246 0201 B742     		.uleb128 0x2137
 3247 0203 17       		.uleb128 0x17
 3248 0204 00       		.byte	0
 3249 0205 00       		.byte	0
ARM GAS  /tmp/ccplGi6c.s 			page 58


 3250 0206 25       		.uleb128 0x25
 3251 0207 898201   		.uleb128 0x4109
 3252 020a 01       		.byte	0x1
 3253 020b 11       		.uleb128 0x11
 3254 020c 01       		.uleb128 0x1
 3255 020d 31       		.uleb128 0x31
 3256 020e 13       		.uleb128 0x13
 3257 020f 00       		.byte	0
 3258 0210 00       		.byte	0
 3259 0211 26       		.uleb128 0x26
 3260 0212 2E       		.uleb128 0x2e
 3261 0213 01       		.byte	0x1
 3262 0214 3F       		.uleb128 0x3f
 3263 0215 19       		.uleb128 0x19
 3264 0216 03       		.uleb128 0x3
 3265 0217 0E       		.uleb128 0xe
 3266 0218 3A       		.uleb128 0x3a
 3267 0219 0B       		.uleb128 0xb
 3268 021a 3B       		.uleb128 0x3b
 3269 021b 0B       		.uleb128 0xb
 3270 021c 39       		.uleb128 0x39
 3271 021d 0B       		.uleb128 0xb
 3272 021e 27       		.uleb128 0x27
 3273 021f 19       		.uleb128 0x19
 3274 0220 11       		.uleb128 0x11
 3275 0221 01       		.uleb128 0x1
 3276 0222 12       		.uleb128 0x12
 3277 0223 06       		.uleb128 0x6
 3278 0224 40       		.uleb128 0x40
 3279 0225 18       		.uleb128 0x18
 3280 0226 9742     		.uleb128 0x2117
 3281 0228 19       		.uleb128 0x19
 3282 0229 01       		.uleb128 0x1
 3283 022a 13       		.uleb128 0x13
 3284 022b 00       		.byte	0
 3285 022c 00       		.byte	0
 3286 022d 27       		.uleb128 0x27
 3287 022e 2E       		.uleb128 0x2e
 3288 022f 00       		.byte	0
 3289 0230 3F       		.uleb128 0x3f
 3290 0231 19       		.uleb128 0x19
 3291 0232 3C       		.uleb128 0x3c
 3292 0233 19       		.uleb128 0x19
 3293 0234 6E       		.uleb128 0x6e
 3294 0235 0E       		.uleb128 0xe
 3295 0236 03       		.uleb128 0x3
 3296 0237 0E       		.uleb128 0xe
 3297 0238 3A       		.uleb128 0x3a
 3298 0239 0B       		.uleb128 0xb
 3299 023a 3B       		.uleb128 0x3b
 3300 023b 0B       		.uleb128 0xb
 3301 023c 39       		.uleb128 0x39
 3302 023d 0B       		.uleb128 0xb
 3303 023e 00       		.byte	0
 3304 023f 00       		.byte	0
 3305 0240 00       		.byte	0
 3306              		.section	.debug_loc,"",%progbits
ARM GAS  /tmp/ccplGi6c.s 			page 59


 3307              	.Ldebug_loc0:
 3308              	.LVUS16:
 3309 0000 00       		.uleb128 0
 3310 0001 00       		.uleb128 .LVU126
 3311 0002 00       		.uleb128 .LVU126
 3312 0003 00       		.uleb128 0
 3313              	.LLST16:
 3314 0004 00000000 		.4byte	.LVL17
 3315 0008 03000000 		.4byte	.LVL18-1
 3316 000c 0100     		.2byte	0x1
 3317 000e 50       		.byte	0x50
 3318 000f 03000000 		.4byte	.LVL18-1
 3319 0013 04000000 		.4byte	.LFE15
 3320 0017 0400     		.2byte	0x4
 3321 0019 F3       		.byte	0xf3
 3322 001a 01       		.uleb128 0x1
 3323 001b 50       		.byte	0x50
 3324 001c 9F       		.byte	0x9f
 3325 001d 00000000 		.4byte	0
 3326 0021 00000000 		.4byte	0
 3327              	.LVUS15:
 3328 0025 00       		.uleb128 0
 3329 0026 00       		.uleb128 .LVU120
 3330 0027 00       		.uleb128 .LVU120
 3331 0028 00       		.uleb128 .LVU121
 3332 0029 00       		.uleb128 .LVU121
 3333 002a 00       		.uleb128 0
 3334              	.LLST15:
 3335 002b 00000000 		.4byte	.LVL14
 3336 002f 04000000 		.4byte	.LVL15
 3337 0033 0100     		.2byte	0x1
 3338 0035 50       		.byte	0x50
 3339 0036 04000000 		.4byte	.LVL15
 3340 003a 07000000 		.4byte	.LVL16-1
 3341 003e 0300     		.2byte	0x3
 3342 0040 70       		.byte	0x70
 3343 0041 70       		.sleb128 -16
 3344 0042 9F       		.byte	0x9f
 3345 0043 07000000 		.4byte	.LVL16-1
 3346 0047 08000000 		.4byte	.LFE14
 3347 004b 0400     		.2byte	0x4
 3348 004d F3       		.byte	0xf3
 3349 004e 01       		.uleb128 0x1
 3350 004f 50       		.byte	0x50
 3351 0050 9F       		.byte	0x9f
 3352 0051 00000000 		.4byte	0
 3353 0055 00000000 		.4byte	0
 3354              	.LVUS10:
 3355 0059 00       		.uleb128 0
 3356 005a 00       		.uleb128 .LVU107
 3357 005b 00       		.uleb128 .LVU107
 3358 005c 00       		.uleb128 0
 3359              	.LLST10:
 3360 005d 00000000 		.4byte	.LVL12
 3361 0061 2B000000 		.4byte	.LVL13-1
 3362 0065 0100     		.2byte	0x1
 3363 0067 50       		.byte	0x50
ARM GAS  /tmp/ccplGi6c.s 			page 60


 3364 0068 2B000000 		.4byte	.LVL13-1
 3365 006c 48000000 		.4byte	.LFE13
 3366 0070 0100     		.2byte	0x1
 3367 0072 54       		.byte	0x54
 3368 0073 00000000 		.4byte	0
 3369 0077 00000000 		.4byte	0
 3370              	.LVUS11:
 3371 007b 00       		.uleb128 0
 3372 007c 00       		.uleb128 .LVU107
 3373 007d 00       		.uleb128 .LVU107
 3374 007e 00       		.uleb128 0
 3375              	.LLST11:
 3376 007f 00000000 		.4byte	.LVL12
 3377 0083 2B000000 		.4byte	.LVL13-1
 3378 0087 0100     		.2byte	0x1
 3379 0089 51       		.byte	0x51
 3380 008a 2B000000 		.4byte	.LVL13-1
 3381 008e 48000000 		.4byte	.LFE13
 3382 0092 0400     		.2byte	0x4
 3383 0094 F3       		.byte	0xf3
 3384 0095 01       		.uleb128 0x1
 3385 0096 51       		.byte	0x51
 3386 0097 9F       		.byte	0x9f
 3387 0098 00000000 		.4byte	0
 3388 009c 00000000 		.4byte	0
 3389              	.LVUS12:
 3390 00a0 00       		.uleb128 0
 3391 00a1 00       		.uleb128 .LVU107
 3392 00a2 00       		.uleb128 .LVU107
 3393 00a3 00       		.uleb128 0
 3394              	.LLST12:
 3395 00a4 00000000 		.4byte	.LVL12
 3396 00a8 2B000000 		.4byte	.LVL13-1
 3397 00ac 0100     		.2byte	0x1
 3398 00ae 52       		.byte	0x52
 3399 00af 2B000000 		.4byte	.LVL13-1
 3400 00b3 48000000 		.4byte	.LFE13
 3401 00b7 0400     		.2byte	0x4
 3402 00b9 F3       		.byte	0xf3
 3403 00ba 01       		.uleb128 0x1
 3404 00bb 52       		.byte	0x52
 3405 00bc 9F       		.byte	0x9f
 3406 00bd 00000000 		.4byte	0
 3407 00c1 00000000 		.4byte	0
 3408              	.LVUS13:
 3409 00c5 00       		.uleb128 0
 3410 00c6 00       		.uleb128 .LVU107
 3411 00c7 00       		.uleb128 .LVU107
 3412 00c8 00       		.uleb128 0
 3413              	.LLST13:
 3414 00c9 00000000 		.4byte	.LVL12
 3415 00cd 2B000000 		.4byte	.LVL13-1
 3416 00d1 0100     		.2byte	0x1
 3417 00d3 53       		.byte	0x53
 3418 00d4 2B000000 		.4byte	.LVL13-1
 3419 00d8 48000000 		.4byte	.LFE13
 3420 00dc 0400     		.2byte	0x4
ARM GAS  /tmp/ccplGi6c.s 			page 61


 3421 00de F3       		.byte	0xf3
 3422 00df 01       		.uleb128 0x1
 3423 00e0 53       		.byte	0x53
 3424 00e1 9F       		.byte	0x9f
 3425 00e2 00000000 		.4byte	0
 3426 00e6 00000000 		.4byte	0
 3427              	.LVUS14:
 3428 00ea 00       		.uleb128 .LVU107
 3429 00eb 00       		.uleb128 0
 3430              	.LLST14:
 3431 00ec 2C000000 		.4byte	.LVL13
 3432 00f0 48000000 		.4byte	.LFE13
 3433 00f4 0100     		.2byte	0x1
 3434 00f6 50       		.byte	0x50
 3435 00f7 00000000 		.4byte	0
 3436 00fb 00000000 		.4byte	0
 3437              	.LVUS5:
 3438 00ff 00       		.uleb128 0
 3439 0100 00       		.uleb128 .LVU77
 3440 0101 00       		.uleb128 .LVU77
 3441 0102 00       		.uleb128 0
 3442              	.LLST5:
 3443 0103 00000000 		.4byte	.LVL10
 3444 0107 3F000000 		.4byte	.LVL11-1
 3445 010b 0100     		.2byte	0x1
 3446 010d 50       		.byte	0x50
 3447 010e 3F000000 		.4byte	.LVL11-1
 3448 0112 5C000000 		.4byte	.LFE12
 3449 0116 0100     		.2byte	0x1
 3450 0118 54       		.byte	0x54
 3451 0119 00000000 		.4byte	0
 3452 011d 00000000 		.4byte	0
 3453              	.LVUS6:
 3454 0121 00       		.uleb128 0
 3455 0122 00       		.uleb128 .LVU77
 3456 0123 00       		.uleb128 .LVU77
 3457 0124 00       		.uleb128 0
 3458              	.LLST6:
 3459 0125 00000000 		.4byte	.LVL10
 3460 0129 3F000000 		.4byte	.LVL11-1
 3461 012d 0100     		.2byte	0x1
 3462 012f 51       		.byte	0x51
 3463 0130 3F000000 		.4byte	.LVL11-1
 3464 0134 5C000000 		.4byte	.LFE12
 3465 0138 0400     		.2byte	0x4
 3466 013a F3       		.byte	0xf3
 3467 013b 01       		.uleb128 0x1
 3468 013c 51       		.byte	0x51
 3469 013d 9F       		.byte	0x9f
 3470 013e 00000000 		.4byte	0
 3471 0142 00000000 		.4byte	0
 3472              	.LVUS7:
 3473 0146 00       		.uleb128 0
 3474 0147 00       		.uleb128 .LVU77
 3475 0148 00       		.uleb128 .LVU77
 3476 0149 00       		.uleb128 0
 3477              	.LLST7:
ARM GAS  /tmp/ccplGi6c.s 			page 62


 3478 014a 00000000 		.4byte	.LVL10
 3479 014e 3F000000 		.4byte	.LVL11-1
 3480 0152 0100     		.2byte	0x1
 3481 0154 52       		.byte	0x52
 3482 0155 3F000000 		.4byte	.LVL11-1
 3483 0159 5C000000 		.4byte	.LFE12
 3484 015d 0400     		.2byte	0x4
 3485 015f F3       		.byte	0xf3
 3486 0160 01       		.uleb128 0x1
 3487 0161 52       		.byte	0x52
 3488 0162 9F       		.byte	0x9f
 3489 0163 00000000 		.4byte	0
 3490 0167 00000000 		.4byte	0
 3491              	.LVUS8:
 3492 016b 00       		.uleb128 0
 3493 016c 00       		.uleb128 .LVU77
 3494 016d 00       		.uleb128 .LVU77
 3495 016e 00       		.uleb128 0
 3496              	.LLST8:
 3497 016f 00000000 		.4byte	.LVL10
 3498 0173 3F000000 		.4byte	.LVL11-1
 3499 0177 0100     		.2byte	0x1
 3500 0179 53       		.byte	0x53
 3501 017a 3F000000 		.4byte	.LVL11-1
 3502 017e 5C000000 		.4byte	.LFE12
 3503 0182 0400     		.2byte	0x4
 3504 0184 F3       		.byte	0xf3
 3505 0185 01       		.uleb128 0x1
 3506 0186 53       		.byte	0x53
 3507 0187 9F       		.byte	0x9f
 3508 0188 00000000 		.4byte	0
 3509 018c 00000000 		.4byte	0
 3510              	.LVUS9:
 3511 0190 00       		.uleb128 .LVU77
 3512 0191 00       		.uleb128 0
 3513              	.LLST9:
 3514 0192 40000000 		.4byte	.LVL11
 3515 0196 5C000000 		.4byte	.LFE12
 3516 019a 0100     		.2byte	0x1
 3517 019c 50       		.byte	0x50
 3518 019d 00000000 		.4byte	0
 3519 01a1 00000000 		.4byte	0
 3520              	.LVUS4:
 3521 01a5 00       		.uleb128 0
 3522 01a6 00       		.uleb128 .LVU55
 3523 01a7 00       		.uleb128 .LVU55
 3524 01a8 00       		.uleb128 0
 3525              	.LLST4:
 3526 01a9 00000000 		.4byte	.LVL8
 3527 01ad 04000000 		.4byte	.LVL9
 3528 01b1 0100     		.2byte	0x1
 3529 01b3 50       		.byte	0x50
 3530 01b4 04000000 		.4byte	.LVL9
 3531 01b8 08000000 		.4byte	.LFE11
 3532 01bc 0400     		.2byte	0x4
 3533 01be F3       		.byte	0xf3
 3534 01bf 01       		.uleb128 0x1
ARM GAS  /tmp/ccplGi6c.s 			page 63


 3535 01c0 50       		.byte	0x50
 3536 01c1 9F       		.byte	0x9f
 3537 01c2 00000000 		.4byte	0
 3538 01c6 00000000 		.4byte	0
 3539              	.LVUS3:
 3540 01ca 00       		.uleb128 0
 3541 01cb 00       		.uleb128 .LVU44
 3542 01cc 00       		.uleb128 .LVU44
 3543 01cd 00       		.uleb128 0
 3544              	.LLST3:
 3545 01ce 00000000 		.4byte	.LVL6
 3546 01d2 0F000000 		.4byte	.LVL7-1
 3547 01d6 0100     		.2byte	0x1
 3548 01d8 50       		.byte	0x50
 3549 01d9 0F000000 		.4byte	.LVL7-1
 3550 01dd 20000000 		.4byte	.LFE10
 3551 01e1 0100     		.2byte	0x1
 3552 01e3 54       		.byte	0x54
 3553 01e4 00000000 		.4byte	0
 3554 01e8 00000000 		.4byte	0
 3555              	.LVUS1:
 3556 01ec 00       		.uleb128 0
 3557 01ed 00       		.uleb128 .LVU26
 3558 01ee 00       		.uleb128 .LVU26
 3559 01ef 00       		.uleb128 0
 3560              	.LLST1:
 3561 01f0 00000000 		.4byte	.LVL4
 3562 01f4 13000000 		.4byte	.LVL5-1
 3563 01f8 0100     		.2byte	0x1
 3564 01fa 50       		.byte	0x50
 3565 01fb 13000000 		.4byte	.LVL5-1
 3566 01ff 24000000 		.4byte	.LFE9
 3567 0203 0100     		.2byte	0x1
 3568 0205 54       		.byte	0x54
 3569 0206 00000000 		.4byte	0
 3570 020a 00000000 		.4byte	0
 3571              	.LVUS2:
 3572 020e 00       		.uleb128 0
 3573 020f 00       		.uleb128 .LVU26
 3574 0210 00       		.uleb128 .LVU26
 3575 0211 00       		.uleb128 0
 3576              	.LLST2:
 3577 0212 00000000 		.4byte	.LVL4
 3578 0216 13000000 		.4byte	.LVL5-1
 3579 021a 0100     		.2byte	0x1
 3580 021c 51       		.byte	0x51
 3581 021d 13000000 		.4byte	.LVL5-1
 3582 0221 24000000 		.4byte	.LFE9
 3583 0225 0400     		.2byte	0x4
 3584 0227 F3       		.byte	0xf3
 3585 0228 01       		.uleb128 0x1
 3586 0229 51       		.byte	0x51
 3587 022a 9F       		.byte	0x9f
 3588 022b 00000000 		.4byte	0
 3589 022f 00000000 		.4byte	0
 3590              	.LVUS0:
 3591 0233 00       		.uleb128 0
ARM GAS  /tmp/ccplGi6c.s 			page 64


 3592 0234 00       		.uleb128 .LVU10
 3593 0235 00       		.uleb128 .LVU10
 3594 0236 00       		.uleb128 .LVU11
 3595 0237 00       		.uleb128 .LVU11
 3596 0238 00       		.uleb128 0
 3597              	.LLST0:
 3598 0239 00000000 		.4byte	.LVL1
 3599 023d 14000000 		.4byte	.LVL2
 3600 0241 0100     		.2byte	0x1
 3601 0243 50       		.byte	0x50
 3602 0244 14000000 		.4byte	.LVL2
 3603 0248 17000000 		.4byte	.LVL3-1
 3604 024c 0300     		.2byte	0x3
 3605 024e 70       		.byte	0x70
 3606 024f 70       		.sleb128 -16
 3607 0250 9F       		.byte	0x9f
 3608 0251 17000000 		.4byte	.LVL3-1
 3609 0255 18000000 		.4byte	.LFE8
 3610 0259 0400     		.2byte	0x4
 3611 025b F3       		.byte	0xf3
 3612 025c 01       		.uleb128 0x1
 3613 025d 50       		.byte	0x50
 3614 025e 9F       		.byte	0x9f
 3615 025f 00000000 		.4byte	0
 3616 0263 00000000 		.4byte	0
 3617              		.section	.debug_aranges,"",%progbits
 3618 0000 5C000000 		.4byte	0x5c
 3619 0004 0200     		.2byte	0x2
 3620 0006 00000000 		.4byte	.Ldebug_info0
 3621 000a 04       		.byte	0x4
 3622 000b 00       		.byte	0
 3623 000c 0000     		.2byte	0
 3624 000e 0000     		.2byte	0
 3625 0010 00000000 		.4byte	.LFB7
 3626 0014 04000000 		.4byte	.LFE7-.LFB7
 3627 0018 00000000 		.4byte	.LFB8
 3628 001c 18000000 		.4byte	.LFE8-.LFB8
 3629 0020 00000000 		.4byte	.LFB9
 3630 0024 24000000 		.4byte	.LFE9-.LFB9
 3631 0028 00000000 		.4byte	.LFB10
 3632 002c 20000000 		.4byte	.LFE10-.LFB10
 3633 0030 00000000 		.4byte	.LFB11
 3634 0034 08000000 		.4byte	.LFE11-.LFB11
 3635 0038 00000000 		.4byte	.LFB12
 3636 003c 5C000000 		.4byte	.LFE12-.LFB12
 3637 0040 00000000 		.4byte	.LFB13
 3638 0044 48000000 		.4byte	.LFE13-.LFB13
 3639 0048 00000000 		.4byte	.LFB14
 3640 004c 08000000 		.4byte	.LFE14-.LFB14
 3641 0050 00000000 		.4byte	.LFB15
 3642 0054 04000000 		.4byte	.LFE15-.LFB15
 3643 0058 00000000 		.4byte	0
 3644 005c 00000000 		.4byte	0
 3645              		.section	.debug_ranges,"",%progbits
 3646              	.Ldebug_ranges0:
 3647 0000 00000000 		.4byte	.LFB7
 3648 0004 04000000 		.4byte	.LFE7
ARM GAS  /tmp/ccplGi6c.s 			page 65


 3649 0008 00000000 		.4byte	.LFB8
 3650 000c 18000000 		.4byte	.LFE8
 3651 0010 00000000 		.4byte	.LFB9
 3652 0014 24000000 		.4byte	.LFE9
 3653 0018 00000000 		.4byte	.LFB10
 3654 001c 20000000 		.4byte	.LFE10
 3655 0020 00000000 		.4byte	.LFB11
 3656 0024 08000000 		.4byte	.LFE11
 3657 0028 00000000 		.4byte	.LFB12
 3658 002c 5C000000 		.4byte	.LFE12
 3659 0030 00000000 		.4byte	.LFB13
 3660 0034 48000000 		.4byte	.LFE13
 3661 0038 00000000 		.4byte	.LFB14
 3662 003c 08000000 		.4byte	.LFE14
 3663 0040 00000000 		.4byte	.LFB15
 3664 0044 04000000 		.4byte	.LFE15
 3665 0048 00000000 		.4byte	0
 3666 004c 00000000 		.4byte	0
 3667              		.section	.debug_line,"",%progbits
 3668              	.Ldebug_line0:
 3669 0000 AF030000 		.section	.debug_str,"MS",%progbits,1
 3669      0300AE01 
 3669      00000201 
 3669      FB0E0D00 
 3669      01010101 
 3670              	.LASF92:
 3671 0000 63665F6F 		.ascii	"cf_off_older\000"
 3671      66665F6F 
 3671      6C646572 
 3671      00
 3672              	.LASF38:
 3673 000d 705F6D73 		.ascii	"p_msg\000"
 3673      6700
 3674              	.LASF215:
 3675 0013 474E5520 		.ascii	"GNU C17 9.2.1 20191025 (release) [ARM/arm-9-branch "
 3675      43313720 
 3675      392E322E 
 3675      31203230 
 3675      31393130 
 3676 0046 72657669 		.ascii	"revision 277599] -mcpu=arm1176jz-s -mno-thumb-inter"
 3676      73696F6E 
 3676      20323737 
 3676      3539395D 
 3676      202D6D63 
 3677 0079 776F726B 		.ascii	"work -mfloat-abi=soft -marm -march=armv6kz -ggdb -O"
 3677      202D6D66 
 3677      6C6F6174 
 3677      2D616269 
 3677      3D736F66 
 3678 00ac 32202D66 		.ascii	"2 -fomit-frame-pointer -ffunction-sections -fdata-s"
 3678      6F6D6974 
 3678      2D667261 
 3678      6D652D70 
 3678      6F696E74 
 3679 00df 65637469 		.ascii	"ections\000"
 3679      6F6E7300 
 3680              	.LASF77:
ARM GAS  /tmp/ccplGi6c.s 			page 66


 3681 00e7 7264796D 		.ascii	"rdymsg\000"
 3681      736700
 3682              	.LASF170:
 3683 00ee 77726974 		.ascii	"write\000"
 3683      6500
 3684              	.LASF113:
 3685 00f4 4F757470 		.ascii	"OutputQueue\000"
 3685      75745175 
 3685      65756500 
 3686              	.LASF179:
 3687 0100 5350495F 		.ascii	"SPI_ACTIVE\000"
 3687      41435449 
 3687      564500
 3688              	.LASF64:
 3689 010b 76746C69 		.ascii	"vtlist\000"
 3689      737400
 3690              	.LASF115:
 3691 0112 62736364 		.ascii	"bscdevice_t\000"
 3691      65766963 
 3691      655F7400 
 3692              	.LASF153:
 3693 011e 72786275 		.ascii	"rxbuf\000"
 3693      6600
 3694              	.LASF106:
 3695 0124 715F746F 		.ascii	"q_top\000"
 3695      7000
 3696              	.LASF13:
 3697 012a 6C6F6E67 		.ascii	"long long unsigned int\000"
 3697      206C6F6E 
 3697      6720756E 
 3697      7369676E 
 3697      65642069 
 3698              	.LASF207:
 3699 0141 63684D74 		.ascii	"chMtxUnlock\000"
 3699      78556E6C 
 3699      6F636B00 
 3700              	.LASF88:
 3701 014d 63685F74 		.ascii	"ch_threadsize\000"
 3701      68726561 
 3701      6473697A 
 3701      6500
 3702              	.LASF204:
 3703 015b 69326353 		.ascii	"i2cStart\000"
 3703      74617274 
 3703      00
 3704              	.LASF78:
 3705 0164 65786974 		.ascii	"exitcode\000"
 3705      636F6465 
 3705      00
 3706              	.LASF202:
 3707 016d 69326347 		.ascii	"i2cGetErrors\000"
 3707      65744572 
 3707      726F7273 
 3707      00
 3708              	.LASF196:
 3709 017a 69326352 		.ascii	"i2cReleaseBus\000"
 3709      656C6561 
ARM GAS  /tmp/ccplGi6c.s 			page 67


 3709      73654275 
 3709      7300
 3710              	.LASF182:
 3711 0188 53504944 		.ascii	"SPIDriver\000"
 3711      72697665 
 3711      7200
 3712              	.LASF198:
 3713 0192 69326370 		.ascii	"i2cp\000"
 3713      00
 3714              	.LASF120:
 3715 0197 64617461 		.ascii	"dataFifo\000"
 3715      4669666F 
 3715      00
 3716              	.LASF26:
 3717 01a0 705F7072 		.ascii	"p_prio\000"
 3717      696F00
 3718              	.LASF95:
 3719 01a7 63665F6F 		.ascii	"cf_off_state\000"
 3719      66665F73 
 3719      74617465 
 3719      00
 3720              	.LASF165:
 3721 01b4 53657269 		.ascii	"SerialDriver\000"
 3721      616C4472 
 3721      69766572 
 3721      00
 3722              	.LASF146:
 3723 01c1 64657669 		.ascii	"device\000"
 3723      636500
 3724              	.LASF103:
 3725 01c8 715F7761 		.ascii	"q_waiting\000"
 3725      6974696E 
 3725      6700
 3726              	.LASF6:
 3727 01d2 6C6F6E67 		.ascii	"long long int\000"
 3727      206C6F6E 
 3727      6720696E 
 3727      7400
 3728              	.LASF1:
 3729 01e0 7369676E 		.ascii	"signed char\000"
 3729      65642063 
 3729      68617200 
 3730              	.LASF94:
 3731 01ec 63665F6F 		.ascii	"cf_off_stklimit\000"
 3731      66665F73 
 3731      746B6C69 
 3731      6D697400 
 3732              	.LASF177:
 3733 01fc 5350495F 		.ascii	"SPI_STOP\000"
 3733      53544F50 
 3733      00
 3734              	.LASF96:
 3735 0205 63665F6F 		.ascii	"cf_off_flags\000"
 3735      66665F66 
 3735      6C616773 
 3735      00
 3736              	.LASF162:
ARM GAS  /tmp/ccplGi6c.s 			page 68


 3737 0212 53445F53 		.ascii	"SD_STOP\000"
 3737      544F5000 
 3738              	.LASF67:
 3739 021a 6D5F7175 		.ascii	"m_queue\000"
 3739      65756500 
 3740              	.LASF209:
 3741 0222 6932635F 		.ascii	"i2c_lld_master_receive_timeout\000"
 3741      6C6C645F 
 3741      6D617374 
 3741      65725F72 
 3741      65636569 
 3742              	.LASF149:
 3743 0241 61646472 		.ascii	"addr\000"
 3743      00
 3744              	.LASF210:
 3745 0246 6932635F 		.ascii	"i2c_lld_master_transmit_timeout\000"
 3745      6C6C645F 
 3745      6D617374 
 3745      65725F74 
 3745      72616E73 
 3746              	.LASF17:
 3747 0266 74736C69 		.ascii	"tslices_t\000"
 3747      6365735F 
 3747      7400
 3748              	.LASF135:
 3749 0270 4932435F 		.ascii	"I2C_UNINIT\000"
 3749      554E494E 
 3749      495400
 3750              	.LASF157:
 3751 027b 69326361 		.ascii	"i2caddr_t\000"
 3751      6464725F 
 3751      7400
 3752              	.LASF143:
 3753 0285 73746174 		.ascii	"state\000"
 3753      6500
 3754              	.LASF5:
 3755 028b 6C6F6E67 		.ascii	"long int\000"
 3755      20696E74 
 3755      00
 3756              	.LASF200:
 3757 0294 6932634D 		.ascii	"i2cMasterTransmitTimeout\000"
 3757      61737465 
 3757      72547261 
 3757      6E736D69 
 3757      7454696D 
 3758              	.LASF15:
 3759 02ad 74737461 		.ascii	"tstate_t\000"
 3759      74655F74 
 3759      00
 3760              	.LASF148:
 3761 02b6 74687265 		.ascii	"thread\000"
 3761      616400
 3762              	.LASF122:
 3763 02bd 64617461 		.ascii	"dataDelay\000"
 3763      44656C61 
 3763      7900
 3764              	.LASF155:
ARM GAS  /tmp/ccplGi6c.s 			page 69


 3765 02c7 72786964 		.ascii	"rxidx\000"
 3765      7800
 3766              	.LASF105:
 3767 02cd 715F6275 		.ascii	"q_buffer\000"
 3767      66666572 
 3767      00
 3768              	.LASF9:
 3769 02d6 75696E74 		.ascii	"uint16_t\000"
 3769      31365F74 
 3769      00
 3770              	.LASF195:
 3771 02df 53504930 		.ascii	"SPI0\000"
 3771      00
 3772              	.LASF100:
 3773 02e4 63686465 		.ascii	"chdebug_t\000"
 3773      6275675F 
 3773      7400
 3774              	.LASF138:
 3775 02ee 4932435F 		.ascii	"I2C_ACTIVE_TX\000"
 3775      41435449 
 3775      56455F54 
 3775      5800
 3776              	.LASF192:
 3777 02fc 636C6F63 		.ascii	"clock_phase\000"
 3777      6B5F7068 
 3777      61736500 
 3778              	.LASF28:
 3779 0308 705F6E65 		.ascii	"p_newer\000"
 3779      77657200 
 3780              	.LASF114:
 3781 0310 5F69646C 		.ascii	"_idle_thread_wa\000"
 3781      655F7468 
 3781      72656164 
 3781      5F776100 
 3782              	.LASF185:
 3783 0320 656E645F 		.ascii	"end_cb\000"
 3783      636200
 3784              	.LASF183:
 3785 0327 7478636E 		.ascii	"txcnt\000"
 3785      7400
 3786              	.LASF189:
 3787 032d 63686970 		.ascii	"chip_select_polarity0\000"
 3787      5F73656C 
 3787      6563745F 
 3787      706F6C61 
 3787      72697479 
 3788              	.LASF190:
 3789 0343 63686970 		.ascii	"chip_select_polarity1\000"
 3789      5F73656C 
 3789      6563745F 
 3789      706F6C61 
 3789      72697479 
 3790              	.LASF116:
 3791 0359 636F6E74 		.ascii	"control\000"
 3791      726F6C00 
 3792              	.LASF60:
 3793 0361 725F6E65 		.ascii	"r_newer\000"
ARM GAS  /tmp/ccplGi6c.s 			page 70


 3793      77657200 
 3794              	.LASF45:
 3795 0369 72656761 		.ascii	"regarm_t\000"
 3795      726D5F74 
 3795      00
 3796              	.LASF51:
 3797 0372 76745F70 		.ascii	"vt_prev\000"
 3797      72657600 
 3798              	.LASF119:
 3799 037a 736C6176 		.ascii	"slaveAddress\000"
 3799      65416464 
 3799      72657373 
 3799      00
 3800              	.LASF3:
 3801 0387 73697A65 		.ascii	"size_t\000"
 3801      5F7400
 3802              	.LASF184:
 3803 038e 73706963 		.ascii	"spicallback_t\000"
 3803      616C6C62 
 3803      61636B5F 
 3803      7400
 3804              	.LASF160:
 3805 039c 49324330 		.ascii	"I2C0\000"
 3805      00
 3806              	.LASF75:
 3807 03a1 4576656E 		.ascii	"EventSource\000"
 3807      74536F75 
 3807      72636500 
 3808              	.LASF0:
 3809 03ad 756E7369 		.ascii	"unsigned int\000"
 3809      676E6564 
 3809      20696E74 
 3809      00
 3810              	.LASF50:
 3811 03ba 76745F6E 		.ascii	"vt_next\000"
 3811      65787400 
 3812              	.LASF150:
 3813 03c2 74786275 		.ascii	"txbuf\000"
 3813      6600
 3814              	.LASF169:
 3815 03c8 53657269 		.ascii	"SerialDriverVMT\000"
 3815      616C4472 
 3815      69766572 
 3815      564D5400 
 3816              	.LASF145:
 3817 03d8 6572726F 		.ascii	"errors\000"
 3817      727300
 3818              	.LASF167:
 3819 03df 69717565 		.ascii	"iqueue\000"
 3819      756500
 3820              	.LASF12:
 3821 03e6 6C6F6E67 		.ascii	"long unsigned int\000"
 3821      20756E73 
 3821      69676E65 
 3821      6420696E 
 3821      7400
 3822              	.LASF101:
ARM GAS  /tmp/ccplGi6c.s 			page 71


 3823 03f8 63685F64 		.ascii	"ch_debug\000"
 3823      65627567 
 3823      00
 3824              	.LASF201:
 3825 0401 74696D65 		.ascii	"timeout\000"
 3825      6F757400 
 3826              	.LASF173:
 3827 0409 67657474 		.ascii	"gett\000"
 3827      00
 3828              	.LASF82:
 3829 040e 63685F69 		.ascii	"ch_identifier\000"
 3829      64656E74 
 3829      69666965 
 3829      7200
 3830              	.LASF188:
 3831 041c 63686970 		.ascii	"chip_select_polarity\000"
 3831      5F73656C 
 3831      6563745F 
 3831      706F6C61 
 3831      72697479 
 3832              	.LASF166:
 3833 0431 6576656E 		.ascii	"event\000"
 3833      7400
 3834              	.LASF47:
 3835 0437 636F6E74 		.ascii	"context\000"
 3835      65787400 
 3836              	.LASF10:
 3837 043f 73686F72 		.ascii	"short unsigned int\000"
 3837      7420756E 
 3837      7369676E 
 3837      65642069 
 3837      6E7400
 3838              	.LASF130:
 3839 0452 6770696F 		.ascii	"gpio_port_t\000"
 3839      5F706F72 
 3839      745F7400 
 3840              	.LASF126:
 3841 045e 6770636C 		.ascii	"gpclr\000"
 3841      7200
 3842              	.LASF19:
 3843 0464 6D73675F 		.ascii	"msg_t\000"
 3843      7400
 3844              	.LASF168:
 3845 046a 6F717565 		.ascii	"oqueue\000"
 3845      756500
 3846              	.LASF71:
 3847 0471 656C5F6E 		.ascii	"el_next\000"
 3847      65787400 
 3848              	.LASF174:
 3849 0479 77726974 		.ascii	"writet\000"
 3849      657400
 3850              	.LASF14:
 3851 0480 746D6F64 		.ascii	"tmode_t\000"
 3851      655F7400 
 3852              	.LASF43:
 3853 0488 54687265 		.ascii	"ThreadsList\000"
 3853      6164734C 
ARM GAS  /tmp/ccplGi6c.s 			page 72


 3853      69737400 
 3854              	.LASF20:
 3855 0494 6576656E 		.ascii	"eventmask_t\000"
 3855      746D6173 
 3855      6B5F7400 
 3856              	.LASF112:
 3857 04a0 496E7075 		.ascii	"InputQueue\000"
 3857      74517565 
 3857      756500
 3858              	.LASF66:
 3859 04ab 4D757465 		.ascii	"Mutex\000"
 3859      7800
 3860              	.LASF102:
 3861 04b1 47656E65 		.ascii	"GenericQueue\000"
 3861      72696351 
 3861      75657565 
 3861      00
 3862              	.LASF44:
 3863 04be 73746B61 		.ascii	"stkalign_t\000"
 3863      6C69676E 
 3863      5F7400
 3864              	.LASF211:
 3865 04c9 6932635F 		.ascii	"i2c_lld_stop\000"
 3865      6C6C645F 
 3865      73746F70 
 3865      00
 3866              	.LASF83:
 3867 04d6 63685F7A 		.ascii	"ch_zero\000"
 3867      65726F00 
 3868              	.LASF97:
 3869 04de 63665F6F 		.ascii	"cf_off_refs\000"
 3869      66665F72 
 3869      65667300 
 3870              	.LASF127:
 3871 04ea 67706C65 		.ascii	"gplev\000"
 3871      7600
 3872              	.LASF172:
 3873 04f0 70757474 		.ascii	"putt\000"
 3873      00
 3874              	.LASF52:
 3875 04f5 76745F74 		.ascii	"vt_time\000"
 3875      696D6500 
 3876              	.LASF136:
 3877 04fd 4932435F 		.ascii	"I2C_STOP\000"
 3877      53544F50 
 3877      00
 3878              	.LASF121:
 3879 0506 636C6F63 		.ascii	"clockDivider\000"
 3879      6B446976 
 3879      69646572 
 3879      00
 3880              	.LASF104:
 3881 0513 715F636F 		.ascii	"q_counter\000"
 3881      756E7465 
 3881      7200
 3882              	.LASF53:
 3883 051d 76745F66 		.ascii	"vt_func\000"
ARM GAS  /tmp/ccplGi6c.s 			page 73


 3883      756E6300 
 3884              	.LASF87:
 3885 0525 63685F74 		.ascii	"ch_timesize\000"
 3885      696D6573 
 3885      697A6500 
 3886              	.LASF158:
 3887 0531 69635F73 		.ascii	"ic_speed\000"
 3887      70656564 
 3887      00
 3888              	.LASF93:
 3889 053a 63665F6F 		.ascii	"cf_off_name\000"
 3889      66665F6E 
 3889      616D6500 
 3890              	.LASF208:
 3891 0546 63684D74 		.ascii	"chMtxLock\000"
 3891      784C6F63 
 3891      6B00
 3892              	.LASF29:
 3893 0550 705F6F6C 		.ascii	"p_older\000"
 3893      64657200 
 3894              	.LASF154:
 3895 0558 72786279 		.ascii	"rxbytes\000"
 3895      74657300 
 3896              	.LASF107:
 3897 0560 715F7772 		.ascii	"q_wrptr\000"
 3897      70747200 
 3898              	.LASF59:
 3899 0568 725F6374 		.ascii	"r_ctx\000"
 3899      7800
 3900              	.LASF42:
 3901 056e 54687265 		.ascii	"ThreadsQueue\000"
 3901      61647351 
 3901      75657565 
 3901      00
 3902              	.LASF84:
 3903 057b 63685F73 		.ascii	"ch_size\000"
 3903      697A6500 
 3904              	.LASF132:
 3905 0583 494F504F 		.ascii	"IOPORT0\000"
 3905      52543000 
 3906              	.LASF62:
 3907 058b 725F6375 		.ascii	"r_current\000"
 3907      7272656E 
 3907      7400
 3908              	.LASF61:
 3909 0595 725F6F6C 		.ascii	"r_older\000"
 3909      64657200 
 3910              	.LASF73:
 3911 059d 656C5F6D 		.ascii	"el_mask\000"
 3911      61736B00 
 3912              	.LASF203:
 3913 05a5 69326353 		.ascii	"i2cStop\000"
 3913      746F7000 
 3914              	.LASF125:
 3915 05ad 67707365 		.ascii	"gpset\000"
 3915      7400
 3916              	.LASF128:
ARM GAS  /tmp/ccplGi6c.s 			page 74


 3917 05b3 67707075 		.ascii	"gppudclk\000"
 3917      64636C6B 
 3917      00
 3918              	.LASF186:
 3919 05bc 6C6F7373 		.ascii	"lossiEnabled\000"
 3919      69456E61 
 3919      626C6564 
 3919      00
 3920              	.LASF187:
 3921 05c9 63686970 		.ascii	"chip_select\000"
 3921      5F73656C 
 3921      65637400 
 3922              	.LASF16:
 3923 05d5 74726566 		.ascii	"trefs_t\000"
 3923      735F7400 
 3924              	.LASF141:
 3925 05dd 69326373 		.ascii	"i2cstate_t\000"
 3925      74617465 
 3925      5F7400
 3926              	.LASF86:
 3927 05e8 63685F70 		.ascii	"ch_ptrsize\000"
 3927      74727369 
 3927      7A6500
 3928              	.LASF111:
 3929 05f3 716E6F74 		.ascii	"qnotify_t\000"
 3929      6966795F 
 3929      7400
 3930              	.LASF25:
 3931 05fd 705F7072 		.ascii	"p_prev\000"
 3931      657600
 3932              	.LASF197:
 3933 0604 69326341 		.ascii	"i2cAcquireBus\000"
 3933      63717569 
 3933      72654275 
 3933      7300
 3934              	.LASF18:
 3935 0612 74707269 		.ascii	"tprio_t\000"
 3935      6F5F7400 
 3936              	.LASF108:
 3937 061a 715F7264 		.ascii	"q_rdptr\000"
 3937      70747200 
 3938              	.LASF156:
 3939 0622 69326366 		.ascii	"i2cflags_t\000"
 3939      6C616773 
 3939      5F7400
 3940              	.LASF147:
 3941 062d 6D757465 		.ascii	"mutex\000"
 3941      7800
 3942              	.LASF216:
 3943 0633 2E2E2F6F 		.ascii	"../os/hal/src/i2c.c\000"
 3943      732F6861 
 3943      6C2F7372 
 3943      632F6932 
 3943      632E6300 
 3944              	.LASF4:
 3945 0647 696E7433 		.ascii	"int32_t\000"
 3945      325F7400 
ARM GAS  /tmp/ccplGi6c.s 			page 75


 3946              	.LASF8:
 3947 064f 756E7369 		.ascii	"unsigned char\000"
 3947      676E6564 
 3947      20636861 
 3947      7200
 3948              	.LASF72:
 3949 065d 656C5F6C 		.ascii	"el_listener\000"
 3949      69737465 
 3949      6E657200 
 3950              	.LASF74:
 3951 0669 656C5F66 		.ascii	"el_flags\000"
 3951      6C616773 
 3951      00
 3952              	.LASF40:
 3953 0672 705F6D74 		.ascii	"p_mtxlist\000"
 3953      786C6973 
 3953      7400
 3954              	.LASF2:
 3955 067c 73686F72 		.ascii	"short int\000"
 3955      7420696E 
 3955      7400
 3956              	.LASF31:
 3957 0686 705F7374 		.ascii	"p_state\000"
 3957      61746500 
 3958              	.LASF34:
 3959 068e 705F7072 		.ascii	"p_preempt\000"
 3959      65656D70 
 3959      7400
 3960              	.LASF99:
 3961 0698 63665F6F 		.ascii	"cf_off_time\000"
 3961      66665F74 
 3961      696D6500 
 3962              	.LASF58:
 3963 06a4 725F7072 		.ascii	"r_prio\000"
 3963      696F00
 3964              	.LASF129:
 3965 06ab 70696E5F 		.ascii	"pin_base\000"
 3965      62617365 
 3965      00
 3966              	.LASF80:
 3967 06b4 65776D61 		.ascii	"ewmask\000"
 3967      736B00
 3968              	.LASF24:
 3969 06bb 705F6E65 		.ascii	"p_next\000"
 3969      787400
 3970              	.LASF133:
 3971 06c2 494F504F 		.ascii	"IOPORT1\000"
 3971      52543100 
 3972              	.LASF98:
 3973 06ca 63665F6F 		.ascii	"cf_off_preempt\000"
 3973      66665F70 
 3973      7265656D 
 3973      707400
 3974              	.LASF32:
 3975 06d9 705F666C 		.ascii	"p_flags\000"
 3975      61677300 
 3976              	.LASF23:
ARM GAS  /tmp/ccplGi6c.s 			page 76


 3977 06e1 54687265 		.ascii	"Thread\000"
 3977      616400
 3978              	.LASF193:
 3979 06e8 636C6F63 		.ascii	"clock_divider\000"
 3979      6B5F6469 
 3979      76696465 
 3979      7200
 3980              	.LASF91:
 3981 06f6 63665F6F 		.ascii	"cf_off_newer\000"
 3981      66665F6E 
 3981      65776572 
 3981      00
 3982              	.LASF140:
 3983 0703 4932435F 		.ascii	"I2C_LOCKED\000"
 3983      4C4F434B 
 3983      454400
 3984              	.LASF39:
 3985 070e 705F6570 		.ascii	"p_epending\000"
 3985      656E6469 
 3985      6E6700
 3986              	.LASF161:
 3987 0719 53445F55 		.ascii	"SD_UNINIT\000"
 3987      4E494E49 
 3987      5400
 3988              	.LASF11:
 3989 0723 75696E74 		.ascii	"uint32_t\000"
 3989      33325F74 
 3989      00
 3990              	.LASF89:
 3991 072c 63665F6F 		.ascii	"cf_off_prio\000"
 3991      66665F70 
 3991      72696F00 
 3992              	.LASF57:
 3993 0738 725F7175 		.ascii	"r_queue\000"
 3993      65756500 
 3994              	.LASF49:
 3995 0740 56697274 		.ascii	"VirtualTimer\000"
 3995      75616C54 
 3995      696D6572 
 3995      00
 3996              	.LASF217:
 3997 074d 2F686F6D 		.ascii	"/home/taskman/arduino/embedded-wind-turbine/Data_Co"
 3997      652F7461 
 3997      736B6D61 
 3997      6E2F6172 
 3997      6475696E 
 3998 0780 6C6C6563 		.ascii	"llector/raspberry/compiler/ChibiOS-RPi/led\000"
 3998      746F722F 
 3998      72617370 
 3998      62657272 
 3998      792F636F 
 3999              	.LASF139:
 4000 07ab 4932435F 		.ascii	"I2C_ACTIVE_RX\000"
 4000      41435449 
 4000      56455F52 
 4000      5800
 4001              	.LASF171:
ARM GAS  /tmp/ccplGi6c.s 			page 77


 4002 07b9 72656164 		.ascii	"read\000"
 4002      00
 4003              	.LASF81:
 4004 07be 63686172 		.ascii	"char\000"
 4004      00
 4005              	.LASF180:
 4006 07c3 5350495F 		.ascii	"SPI_COMPLETE\000"
 4006      434F4D50 
 4006      4C455445 
 4006      00
 4007              	.LASF144:
 4008 07d0 636F6E66 		.ascii	"config\000"
 4008      696700
 4009              	.LASF212:
 4010 07d7 6932635F 		.ascii	"i2c_lld_start\000"
 4010      6C6C645F 
 4010      73746172 
 4010      7400
 4011              	.LASF181:
 4012 07e5 73706973 		.ascii	"spistate_t\000"
 4012      74617465 
 4012      5F7400
 4013              	.LASF69:
 4014 07f0 6D5F6E65 		.ascii	"m_next\000"
 4014      787400
 4015              	.LASF22:
 4016 07f7 73797374 		.ascii	"systime_t\000"
 4016      696D655F 
 4016      7400
 4017              	.LASF41:
 4018 0801 705F7265 		.ascii	"p_realprio\000"
 4018      616C7072 
 4018      696F00
 4019              	.LASF48:
 4020 080c 76746675 		.ascii	"vtfunc_t\000"
 4020      6E635F74 
 4020      00
 4021              	.LASF137:
 4022 0815 4932435F 		.ascii	"I2C_READY\000"
 4022      52454144 
 4022      5900
 4023              	.LASF142:
 4024 081f 49324344 		.ascii	"I2CDriver\000"
 4024      72697665 
 4024      7200
 4025              	.LASF35:
 4026 0829 705F7469 		.ascii	"p_time\000"
 4026      6D6500
 4027              	.LASF191:
 4028 0830 636C6F63 		.ascii	"clock_polarity\000"
 4028      6B5F706F 
 4028      6C617269 
 4028      747900
 4029              	.LASF205:
 4030 083f 6932634F 		.ascii	"i2cObjectInit\000"
 4030      626A6563 
 4030      74496E69 
ARM GAS  /tmp/ccplGi6c.s 			page 78


 4030      7400
 4031              	.LASF46:
 4032 084d 696E7463 		.ascii	"intctx\000"
 4032      747800
 4033              	.LASF37:
 4034 0854 705F6D73 		.ascii	"p_msgqueue\000"
 4034      67717565 
 4034      756500
 4035              	.LASF163:
 4036 085f 53445F52 		.ascii	"SD_READY\000"
 4036      45414459 
 4036      00
 4037              	.LASF178:
 4038 0868 5350495F 		.ascii	"SPI_READY\000"
 4038      52454144 
 4038      5900
 4039              	.LASF176:
 4040 0872 5350495F 		.ascii	"SPI_UNINIT\000"
 4040      554E494E 
 4040      495400
 4041              	.LASF54:
 4042 087d 76745F70 		.ascii	"vt_par\000"
 4042      617200
 4043              	.LASF213:
 4044 0884 63684D74 		.ascii	"chMtxInit\000"
 4044      78496E69 
 4044      7400
 4045              	.LASF21:
 4046 088e 666C6167 		.ascii	"flagsmask_t\000"
 4046      736D6173 
 4046      6B5F7400 
 4047              	.LASF159:
 4048 089a 49324343 		.ascii	"I2CConfig\000"
 4048      6F6E6669 
 4048      6700
 4049              	.LASF164:
 4050 08a4 73647374 		.ascii	"sdstate_t\000"
 4050      6174655F 
 4050      7400
 4051              	.LASF152:
 4052 08ae 74786964 		.ascii	"txidx\000"
 4052      7800
 4053              	.LASF90:
 4054 08b4 63665F6F 		.ascii	"cf_off_ctx\000"
 4054      66665F63 
 4054      747800
 4055              	.LASF214:
 4056 08bf 6932635F 		.ascii	"i2c_lld_init\000"
 4056      6C6C645F 
 4056      696E6974 
 4056      00
 4057              	.LASF33:
 4058 08cc 705F7265 		.ascii	"p_refs\000"
 4058      667300
 4059              	.LASF117:
 4060 08d3 73746174 		.ascii	"status\000"
 4060      757300
ARM GAS  /tmp/ccplGi6c.s 			page 79


 4061              	.LASF63:
 4062 08da 52656164 		.ascii	"ReadyList\000"
 4062      794C6973 
 4062      7400
 4063              	.LASF109:
 4064 08e4 715F6E6F 		.ascii	"q_notify\000"
 4064      74696679 
 4064      00
 4065              	.LASF65:
 4066 08ed 726C6973 		.ascii	"rlist\000"
 4066      7400
 4067              	.LASF7:
 4068 08f3 75696E74 		.ascii	"uint8_t\000"
 4068      385F7400 
 4069              	.LASF175:
 4070 08fb 72656164 		.ascii	"readt\000"
 4070      7400
 4071              	.LASF124:
 4072 0901 6C617463 		.ascii	"latch\000"
 4072      6800
 4073              	.LASF199:
 4074 0907 6932634D 		.ascii	"i2cMasterReceiveTimeout\000"
 4074      61737465 
 4074      72526563 
 4074      65697665 
 4074      54696D65 
 4075              	.LASF70:
 4076 091f 4576656E 		.ascii	"EventListener\000"
 4076      744C6973 
 4076      74656E65 
 4076      7200
 4077              	.LASF79:
 4078 092d 77746F62 		.ascii	"wtobjp\000"
 4078      6A7000
 4079              	.LASF30:
 4080 0934 705F6E61 		.ascii	"p_name\000"
 4080      6D6500
 4081              	.LASF55:
 4082 093b 76745F73 		.ascii	"vt_systime\000"
 4082      79737469 
 4082      6D6500
 4083              	.LASF76:
 4084 0946 65735F6E 		.ascii	"es_next\000"
 4084      65787400 
 4085              	.LASF194:
 4086 094e 53504943 		.ascii	"SPIConfig\000"
 4086      6F6E6669 
 4086      6700
 4087              	.LASF206:
 4088 0958 69326349 		.ascii	"i2cInit\000"
 4088      6E697400 
 4089              	.LASF85:
 4090 0960 63685F76 		.ascii	"ch_version\000"
 4090      65727369 
 4090      6F6E00
 4091              	.LASF118:
 4092 096b 64617461 		.ascii	"dataLength\000"
ARM GAS  /tmp/ccplGi6c.s 			page 80


 4092      4C656E67 
 4092      746800
 4093              	.LASF56:
 4094 0976 56544C69 		.ascii	"VTList\000"
 4094      737400
 4095              	.LASF110:
 4096 097d 715F6C69 		.ascii	"q_link\000"
 4096      6E6B00
 4097              	.LASF131:
 4098 0984 50414C43 		.ascii	"PALConfig\000"
 4098      6F6E6669 
 4098      6700
 4099              	.LASF68:
 4100 098e 6D5F6F77 		.ascii	"m_owner\000"
 4100      6E657200 
 4101              	.LASF134:
 4102 0996 70616C5F 		.ascii	"pal_default_config\000"
 4102      64656661 
 4102      756C745F 
 4102      636F6E66 
 4102      696700
 4103              	.LASF27:
 4104 09a9 705F6374 		.ascii	"p_ctx\000"
 4104      7800
 4105              	.LASF36:
 4106 09af 705F7761 		.ascii	"p_waiting\000"
 4106      6974696E 
 4106      6700
 4107              	.LASF151:
 4108 09b9 74786279 		.ascii	"txbytes\000"
 4108      74657300 
 4109              	.LASF123:
 4110 09c1 636C6F63 		.ascii	"clockStretchTimeout\000"
 4110      6B537472 
 4110      65746368 
 4110      54696D65 
 4110      6F757400 
 4111              		.ident	"GCC: (15:9-2019-q4-0ubuntu1) 9.2.1 20191025 (release) [ARM/arm-9-branch revision 277599]"
ARM GAS  /tmp/ccplGi6c.s 			page 81


DEFINED SYMBOLS
                            *ABS*:0000000000000000 i2c.c
     /tmp/ccplGi6c.s:16     .text.i2cInit:0000000000000000 $a
     /tmp/ccplGi6c.s:23     .text.i2cInit:0000000000000000 i2cInit
     /tmp/ccplGi6c.s:38     .text.i2cObjectInit:0000000000000000 $a
     /tmp/ccplGi6c.s:44     .text.i2cObjectInit:0000000000000000 i2cObjectInit
     /tmp/ccplGi6c.s:73     .text.i2cStart:0000000000000000 $a
     /tmp/ccplGi6c.s:79     .text.i2cStart:0000000000000000 i2cStart
     /tmp/ccplGi6c.s:132    .text.i2cStop:0000000000000000 $a
     /tmp/ccplGi6c.s:138    .text.i2cStop:0000000000000000 i2cStop
     /tmp/ccplGi6c.s:188    .text.i2cGetErrors:0000000000000000 $a
     /tmp/ccplGi6c.s:194    .text.i2cGetErrors:0000000000000000 i2cGetErrors
     /tmp/ccplGi6c.s:214    .text.i2cMasterTransmitTimeout:0000000000000000 $a
     /tmp/ccplGi6c.s:220    .text.i2cMasterTransmitTimeout:0000000000000000 i2cMasterTransmitTimeout
     /tmp/ccplGi6c.s:302    .text.i2cMasterReceiveTimeout:0000000000000000 $a
     /tmp/ccplGi6c.s:308    .text.i2cMasterReceiveTimeout:0000000000000000 i2cMasterReceiveTimeout
     /tmp/ccplGi6c.s:384    .text.i2cAcquireBus:0000000000000000 $a
     /tmp/ccplGi6c.s:390    .text.i2cAcquireBus:0000000000000000 i2cAcquireBus
     /tmp/ccplGi6c.s:411    .text.i2cReleaseBus:0000000000000000 $a
     /tmp/ccplGi6c.s:417    .text.i2cReleaseBus:0000000000000000 i2cReleaseBus

UNDEFINED SYMBOLS
i2c_lld_init
chMtxInit
i2c_lld_start
i2c_lld_stop
i2c_lld_master_transmit_timeout
i2c_lld_master_receive_timeout
chMtxLock
chMtxUnlock
