ARM GAS  /tmp/ccJAVx7t.s 			page 1


   1              		.cpu arm1176jz-s
   2              		.eabi_attribute 20, 1
   3              		.eabi_attribute 21, 1
   4              		.eabi_attribute 23, 3
   5              		.eabi_attribute 24, 1
   6              		.eabi_attribute 25, 1
   7              		.eabi_attribute 26, 1
   8              		.eabi_attribute 30, 2
   9              		.eabi_attribute 34, 1
  10              		.eabi_attribute 18, 4
  11              		.file	"i2c_lld.c"
  12              		.text
  13              	.Ltext0:
  14              		.cfi_sections	.debug_frame
  15              		.section	.text.i2c_lld_safety_timeout,"ax",%progbits
  16              		.align	2
  17              		.arch armv6kz
  18              		.syntax unified
  19              		.arm
  20              		.fpu softvfp
  21              		.type	i2c_lld_safety_timeout, %function
  22              	i2c_lld_safety_timeout:
  23              	.LVL0:
  24              	.LFB7:
  25              		.file 1 "../os/hal/platforms/BCM2835/i2c_lld.c"
  26              		.loc 1 79 45 view -0
  27              		.cfi_startproc
  28              		@ args = 0, pretend = 0, frame = 0
  29              		@ frame_needed = 0, uses_anonymous_args = 0
  30              		.loc 1 80 3 view .LVU1
  31              		.loc 1 79 45 is_stmt 0 view .LVU2
  32 0000 0030A0E1 		mov	r3, r0
  33              	.LVL1:
  34              		.loc 1 81 3 is_stmt 1 view .LVU3
  35              		.loc 1 81 3 view .LVU4
  36              		.loc 1 81 21 view .LVU5
  37              		.loc 1 82 3 view .LVU6
  38              		.loc 1 82 11 is_stmt 0 view .LVU7
  39 0004 200090E5 		ldr	r0, [r0, #32]
  40              	.LVL2:
  41              		.loc 1 82 6 view .LVU8
  42 0008 000050E3 		cmp	r0, #0
  43 000c 1EFF2F01 		bxeq	lr
  44              	.LBB2:
  45              		.loc 1 83 5 is_stmt 1 view .LVU9
  46              		.loc 1 83 18 is_stmt 0 view .LVU10
  47 0010 0C2093E5 		ldr	r2, [r3, #12]
  48              	.LVL3:
  49              		.loc 1 85 5 is_stmt 1 view .LVU11
  50              	.LBE2:
  51              		.loc 1 79 45 is_stmt 0 view .LVU12
  52 0014 04E02DE5 		str	lr, [sp, #-4]!
  53              		.cfi_def_cfa_offset 4
  54              		.cfi_offset 14, -4
  55              	.LBB3:
  56              		.loc 1 86 15 view .LVU13
  57 0018 04E092E5 		ldr	lr, [r2, #4]
ARM GAS  /tmp/ccJAVx7t.s 			page 2


  58              		.loc 1 85 18 view .LVU14
  59 001c 081093E5 		ldr	r1, [r3, #8]
  60              		.loc 1 86 8 view .LVU15
  61 0020 020C1EE3 		tst	lr, #512
  62              		.loc 1 85 18 view .LVU16
  63 0024 20C081E3 		orr	ip, r1, #32
  64              		.loc 1 87 20 view .LVU17
  65 0028 21108113 		orrne	r1, r1, #33
  66              		.loc 1 85 18 view .LVU18
  67 002c 08C083E5 		str	ip, [r3, #8]
  68              		.loc 1 86 5 is_stmt 1 view .LVU19
  69              		.loc 1 87 7 view .LVU20
  70              		.loc 1 88 5 view .LVU21
  71              		.loc 1 87 20 is_stmt 0 view .LVU22
  72 0030 08108315 		strne	r1, [r3, #8]
  73              		.loc 1 88 15 view .LVU23
  74 0034 041092E5 		ldr	r1, [r2, #4]
  75              		.loc 1 96 20 view .LVU24
  76 0038 00C0E0E3 		mvn	ip, #0
  77              		.loc 1 88 8 view .LVU25
  78 003c 010C11E3 		tst	r1, #256
  79              		.loc 1 89 7 is_stmt 1 view .LVU26
  80              		.loc 1 89 20 is_stmt 0 view .LVU27
  81 0040 08109315 		ldrne	r1, [r3, #8]
  82              		.loc 1 92 20 view .LVU28
  83 0044 20E09FE5 		ldr	lr, .L15
  84              		.loc 1 89 20 view .LVU29
  85 0048 04108113 		orrne	r1, r1, #4
  86 004c 08108315 		strne	r1, [r3, #8]
  87              		.loc 1 91 5 is_stmt 1 view .LVU30
  88              		.loc 1 91 21 is_stmt 0 view .LVU31
  89 0050 0010A0E3 		mov	r1, #0
  90 0054 001082E5 		str	r1, [r2]
  91              		.loc 1 92 5 is_stmt 1 view .LVU32
  92              		.loc 1 92 20 is_stmt 0 view .LVU33
  93 0058 04E082E5 		str	lr, [r2, #4]
  94              		.loc 1 94 5 is_stmt 1 view .LVU34
  95              	.LVL4:
  96              		.loc 1 95 5 view .LVU35
  97              		.loc 1 95 18 is_stmt 0 view .LVU36
  98 005c 201083E5 		str	r1, [r3, #32]
  99              		.loc 1 96 5 is_stmt 1 view .LVU37
 100              	.LBE3:
 101              		.loc 1 100 1 is_stmt 0 view .LVU38
 102 0060 04E09DE4 		ldr	lr, [sp], #4
 103              		.cfi_restore 14
 104              		.cfi_def_cfa_offset 0
 105              	.LBB4:
 106              		.loc 1 96 20 view .LVU39
 107 0064 24C080E5 		str	ip, [r0, #36]
 108              		.loc 1 97 5 is_stmt 1 view .LVU40
 109 0068 FEFFFFEA 		b	chSchReadyI
 110              	.LVL5:
 111              	.L16:
 112              		.loc 1 97 5 is_stmt 0 view .LVU41
 113              		.align	2
 114              	.L15:
ARM GAS  /tmp/ccJAVx7t.s 			page 3


 115 006c 02030000 		.word	770
 116              	.LBE4:
 117              		.cfi_endproc
 118              	.LFE7:
 119              		.size	i2c_lld_safety_timeout, .-i2c_lld_safety_timeout
 120              		.section	.text.i2c_lld_serve_interrupt,"ax",%progbits
 121              		.align	2
 122              		.global	i2c_lld_serve_interrupt
 123              		.syntax unified
 124              		.arm
 125              		.fpu softvfp
 126              		.type	i2c_lld_serve_interrupt, %function
 127              	i2c_lld_serve_interrupt:
 128              	.LVL6:
 129              	.LFB8:
 130              		.loc 1 106 47 is_stmt 1 view -0
 131              		.cfi_startproc
 132              		@ args = 0, pretend = 0, frame = 0
 133              		@ frame_needed = 0, uses_anonymous_args = 0
 134              		.loc 1 107 3 view .LVU43
 135              		.loc 1 108 3 view .LVU44
 136              		.loc 1 108 16 is_stmt 0 view .LVU45
 137 0000 0C2090E5 		ldr	r2, [r0, #12]
 138              	.LVL7:
 139              		.loc 1 109 3 is_stmt 1 view .LVU46
 140              		.loc 1 109 12 is_stmt 0 view .LVU47
 141 0004 041092E5 		ldr	r1, [r2, #4]
 142              	.LVL8:
 143              		.loc 1 111 3 is_stmt 1 view .LVU48
 144              		.loc 1 111 6 is_stmt 0 view .LVU49
 145 0008 030C11E3 		tst	r1, #768
 146 000c 0800000A 		beq	.L18
 147              		.loc 1 113 5 is_stmt 1 view .LVU50
 148              		.loc 1 113 5 view .LVU51
 149              		.loc 1 113 5 view .LVU52
 150              		.loc 1 113 5 view .LVU53
 151 0010 203090E5 		ldr	r3, [r0, #32]
 152 0014 000053E3 		cmp	r3, #0
 153 0018 1EFF2F01 		bxeq	lr
 154              	.LBB5:
 155              		.loc 1 113 5 discriminator 1 view .LVU54
 156              	.LVL9:
 157              		.loc 1 113 5 discriminator 1 view .LVU55
 158 001c 0010A0E3 		mov	r1, #0
 159              	.LVL10:
 160              		.loc 1 113 5 is_stmt 0 discriminator 1 view .LVU56
 161 0020 0120E0E3 		mvn	r2, #1
 162              	.LVL11:
 163              		.loc 1 113 5 discriminator 1 view .LVU57
 164 0024 201080E5 		str	r1, [r0, #32]
 165              		.loc 1 113 5 is_stmt 1 discriminator 1 view .LVU58
 166 0028 0300A0E1 		mov	r0, r3
 167              	.LVL12:
 168              		.loc 1 113 5 is_stmt 0 discriminator 1 view .LVU59
 169 002c 242083E5 		str	r2, [r3, #36]
 170              		.loc 1 113 5 is_stmt 1 discriminator 1 view .LVU60
 171 0030 FEFFFFEA 		b	chSchReadyI
ARM GAS  /tmp/ccJAVx7t.s 			page 4


 172              	.LVL13:
 173              	.L18:
 174              		.loc 1 113 5 is_stmt 0 discriminator 1 view .LVU61
 175              	.LBE5:
 176              		.loc 1 115 8 is_stmt 1 view .LVU62
 177              		.loc 1 115 11 is_stmt 0 view .LVU63
 178 0034 020011E3 		tst	r1, #2
 179              		.loc 1 106 47 view .LVU64
 180 0038 04E02DE5 		str	lr, [sp, #-4]!
 181              		.cfi_def_cfa_offset 4
 182              		.cfi_offset 14, -4
 183              		.loc 1 115 11 view .LVU65
 184 003c 1700000A 		beq	.L20
 185              		.loc 1 116 11 is_stmt 1 view .LVU66
 186 0040 200011E3 		tst	r1, #32
 187 0044 0400001A 		bne	.L21
 188 0048 080000EA 		b	.L24
 189              	.LVL14:
 190              	.L23:
 191              		.loc 1 117 42 is_stmt 0 view .LVU67
 192 004c 10E092E5 		ldr	lr, [r2, #16]
 193              		.loc 1 117 11 view .LVU68
 194 0050 341090E5 		ldr	r1, [r0, #52]
 195              		.loc 1 117 30 view .LVU69
 196 0054 3CC080E5 		str	ip, [r0, #60]
 197              		.loc 1 117 34 view .LVU70
 198 0058 03E0C1E7 		strb	lr, [r1, r3]
 199              		.loc 1 116 11 is_stmt 1 view .LVU71
 200              	.L21:
 201              		.loc 1 117 7 discriminator 1 view .LVU72
 202              		.loc 1 116 39 is_stmt 0 discriminator 1 view .LVU73
 203 005c 3C3090E5 		ldr	r3, [r0, #60]
 204              		.loc 1 116 31 discriminator 1 view .LVU74
 205 0060 381090E5 		ldr	r1, [r0, #56]
 206              		.loc 1 117 30 discriminator 1 view .LVU75
 207 0064 01C083E2 		add	ip, r3, #1
 208              		.loc 1 116 31 discriminator 1 view .LVU76
 209 0068 010053E1 		cmp	r3, r1
 210 006c F6FFFF3A 		bcc	.L23
 211              	.L24:
 212              		.loc 1 118 5 is_stmt 1 view .LVU77
 213              		.loc 1 118 21 is_stmt 0 view .LVU78
 214 0070 0010A0E3 		mov	r1, #0
 215              		.loc 1 120 5 view .LVU79
 216 0074 203090E5 		ldr	r3, [r0, #32]
 217              		.loc 1 119 20 view .LVU80
 218 0078 BCC09FE5 		ldr	ip, .L48
 219              		.loc 1 120 5 view .LVU81
 220 007c 010053E1 		cmp	r3, r1
 221              		.loc 1 118 21 view .LVU82
 222 0080 001082E5 		str	r1, [r2]
 223              		.loc 1 119 5 is_stmt 1 view .LVU83
 224              		.loc 1 119 20 is_stmt 0 view .LVU84
 225 0084 04C082E5 		str	ip, [r2, #4]
 226              		.loc 1 120 5 is_stmt 1 view .LVU85
 227              		.loc 1 120 5 view .LVU86
 228              		.loc 1 120 5 view .LVU87
ARM GAS  /tmp/ccJAVx7t.s 			page 5


 229              		.loc 1 120 5 view .LVU88
 230 0088 04F09D04 		ldreq	pc, [sp], #4
 231              	.LBB6:
 232              		.loc 1 120 5 discriminator 1 view .LVU89
 233              	.LVL15:
 234              		.loc 1 120 5 discriminator 1 view .LVU90
 235 008c 201080E5 		str	r1, [r0, #32]
 236              		.loc 1 120 5 discriminator 1 view .LVU91
 237              	.LBE6:
 238              		.loc 1 130 1 is_stmt 0 discriminator 1 view .LVU92
 239 0090 04E09DE4 		ldr	lr, [sp], #4
 240              		.cfi_remember_state
 241              		.cfi_restore 14
 242              		.cfi_def_cfa_offset 0
 243              	.LBB7:
 244              		.loc 1 120 5 discriminator 1 view .LVU93
 245 0094 0300A0E1 		mov	r0, r3
 246              	.LVL16:
 247              		.loc 1 120 5 discriminator 1 view .LVU94
 248 0098 241083E5 		str	r1, [r3, #36]
 249              		.loc 1 120 5 is_stmt 1 discriminator 1 view .LVU95
 250 009c FEFFFFEA 		b	chSchReadyI
 251              	.LVL17:
 252              	.L20:
 253              		.cfi_restore_state
 254              		.loc 1 120 5 is_stmt 0 discriminator 1 view .LVU96
 255              	.LBE7:
 256              		.loc 1 122 8 is_stmt 1 view .LVU97
 257              		.loc 1 122 11 is_stmt 0 view .LVU98
 258 00a0 040011E3 		tst	r1, #4
 259 00a4 1200000A 		beq	.L25
 260              		.loc 1 123 11 is_stmt 1 view .LVU99
 261              		.loc 1 123 17 is_stmt 0 view .LVU100
 262 00a8 303090E5 		ldr	r3, [r0, #48]
 263              		.loc 1 123 31 view .LVU101
 264 00ac 2CC090E5 		ldr	ip, [r0, #44]
 265              		.loc 1 123 11 view .LVU102
 266 00b0 03005CE1 		cmp	ip, r3
 267 00b4 04F09D94 		ldrls	pc, [sp], #4
 268              		.loc 1 123 42 view .LVU103
 269 00b8 100011E3 		tst	r1, #16
 270 00bc 04F09D04 		ldreq	pc, [sp], #4
 271              		.loc 1 124 30 view .LVU104
 272 00c0 28E090E5 		ldr	lr, [r0, #40]
 273 00c4 013043E2 		sub	r3, r3, #1
 274 00c8 01C04CE2 		sub	ip, ip, #1
 275 00cc 03308EE0 		add	r3, lr, r3
 276 00d0 0CC08EE0 		add	ip, lr, ip
 277 00d4 02E06EE2 		rsb	lr, lr, #2
 278              	.LVL18:
 279              	.L26:
 280              		.loc 1 124 7 is_stmt 1 view .LVU105
 281              		.loc 1 124 49 is_stmt 0 view .LVU106
 282 00d8 03108EE0 		add	r1, lr, r3
 283 00dc 301080E5 		str	r1, [r0, #48]
 284              		.loc 1 124 37 view .LVU107
 285 00e0 0110F3E5 		ldrb	r1, [r3, #1]!	@ zero_extendqisi2
ARM GAS  /tmp/ccJAVx7t.s 			page 6


 286              		.loc 1 123 11 view .LVU108
 287 00e4 0C0053E1 		cmp	r3, ip
 288              		.loc 1 124 24 view .LVU109
 289 00e8 101082E5 		str	r1, [r2, #16]
 290              		.loc 1 123 11 is_stmt 1 view .LVU110
 291 00ec F9FFFF1A 		bne	.L26
 292 00f0 04F09DE4 		ldr	pc, [sp], #4
 293              	.LVL19:
 294              	.L25:
 295              		.loc 1 126 8 view .LVU111
 296              		.loc 1 126 11 is_stmt 0 view .LVU112
 297 00f4 080011E3 		tst	r1, #8
 298 00f8 04F09D04 		ldreq	pc, [sp], #4
 299              		.loc 1 127 11 is_stmt 1 view .LVU113
 300              		.loc 1 127 17 is_stmt 0 view .LVU114
 301 00fc 3C3090E5 		ldr	r3, [r0, #60]
 302              		.loc 1 127 11 view .LVU115
 303 0100 38C090E5 		ldr	ip, [r0, #56]
 304 0104 03005CE1 		cmp	ip, r3
 305 0108 04F09D94 		ldrls	pc, [sp], #4
 306              		.loc 1 127 42 view .LVU116
 307 010c 200011E3 		tst	r1, #32
 308 0110 04F09D04 		ldreq	pc, [sp], #4
 309              	.LVL20:
 310              	.L27:
 311              		.loc 1 128 7 is_stmt 1 view .LVU117
 312              		.loc 1 128 42 is_stmt 0 view .LVU118
 313 0114 10C092E5 		ldr	ip, [r2, #16]
 314              		.loc 1 128 11 view .LVU119
 315 0118 341090E5 		ldr	r1, [r0, #52]
 316              		.loc 1 128 30 view .LVU120
 317 011c 01E083E2 		add	lr, r3, #1
 318 0120 3CE080E5 		str	lr, [r0, #60]
 319              		.loc 1 128 34 view .LVU121
 320 0124 03C0C1E7 		strb	ip, [r1, r3]
 321              		.loc 1 127 11 is_stmt 1 view .LVU122
 322              		.loc 1 127 17 is_stmt 0 view .LVU123
 323 0128 3C3090E5 		ldr	r3, [r0, #60]
 324              		.loc 1 127 11 view .LVU124
 325 012c 381090E5 		ldr	r1, [r0, #56]
 326 0130 010053E1 		cmp	r3, r1
 327 0134 F6FFFF3A 		bcc	.L27
 328 0138 04F09DE4 		ldr	pc, [sp], #4
 329              	.L49:
 330              		.align	2
 331              	.L48:
 332 013c 02030000 		.word	770
 333              		.cfi_endproc
 334              	.LFE8:
 335              		.size	i2c_lld_serve_interrupt, .-i2c_lld_serve_interrupt
 336              		.section	.text.i2c_lld_init,"ax",%progbits
 337              		.align	2
 338              		.global	i2c_lld_init
 339              		.syntax unified
 340              		.arm
 341              		.fpu softvfp
 342              		.type	i2c_lld_init, %function
ARM GAS  /tmp/ccJAVx7t.s 			page 7


 343              	i2c_lld_init:
 344              	.LFB9:
 345              		.loc 1 141 25 is_stmt 1 view -0
 346              		.cfi_startproc
 347              		@ args = 0, pretend = 0, frame = 0
 348              		@ frame_needed = 0, uses_anonymous_args = 0
 349              		@ link register save eliminated.
 350              		.loc 1 142 3 view .LVU126
 351              		.loc 1 142 15 is_stmt 0 view .LVU127
 352 0000 08009FE5 		ldr	r0, .L51
 353 0004 08309FE5 		ldr	r3, .L51+4
 354 0008 0C3080E5 		str	r3, [r0, #12]
 355              		.loc 1 143 3 is_stmt 1 view .LVU128
 356 000c FEFFFFEA 		b	i2cObjectInit
 357              	.LVL21:
 358              	.L52:
 359              		.align	2
 360              	.L51:
 361 0010 00000000 		.word	I2C0
 362 0014 00408020 		.word	545275904
 363              		.cfi_endproc
 364              	.LFE9:
 365              		.size	i2c_lld_init, .-i2c_lld_init
 366              		.global	__aeabi_uidiv
 367              		.section	.text.i2c_lld_start,"ax",%progbits
 368              		.align	2
 369              		.global	i2c_lld_start
 370              		.syntax unified
 371              		.arm
 372              		.fpu softvfp
 373              		.type	i2c_lld_start, %function
 374              	i2c_lld_start:
 375              	.LVL22:
 376              	.LFB10:
 377              		.loc 1 153 37 view -0
 378              		.cfi_startproc
 379              		@ args = 0, pretend = 0, frame = 0
 380              		@ frame_needed = 0, uses_anonymous_args = 0
 381              		.loc 1 160 3 view .LVU130
 382              		.loc 1 153 37 is_stmt 0 view .LVU131
 383 0000 10402DE9 		push	{r4, lr}
 384              		.cfi_def_cfa_offset 8
 385              		.cfi_offset 4, -8
 386              		.cfi_offset 14, -4
 387              		.loc 1 153 37 view .LVU132
 388 0004 0040A0E1 		mov	r4, r0
 389              		.loc 1 160 3 view .LVU133
 390 0008 0410A0E3 		mov	r1, #4
 391 000c 0200A0E3 		mov	r0, #2
 392              	.LVL23:
 393              		.loc 1 160 3 view .LVU134
 394 0010 FEFFFFEB 		bl	bcm2835_gpio_fnsel
 395              	.LVL24:
 396              		.loc 1 161 3 is_stmt 1 view .LVU135
 397 0014 0410A0E3 		mov	r1, #4
 398 0018 0300A0E3 		mov	r0, #3
 399 001c FEFFFFEB 		bl	bcm2835_gpio_fnsel
ARM GAS  /tmp/ccJAVx7t.s 			page 8


 400              	.LVL25:
 401              		.loc 1 163 3 view .LVU136
 402              		.loc 1 163 12 is_stmt 0 view .LVU137
 403 0020 042094E5 		ldr	r2, [r4, #4]
 404              		.loc 1 164 27 view .LVU138
 405 0024 34309FE5 		ldr	r3, .L57
 406              		.loc 1 163 12 view .LVU139
 407 0028 001092E5 		ldr	r1, [r2]
 408              	.LVL26:
 409              		.loc 1 164 3 is_stmt 1 view .LVU140
 410              		.loc 1 164 6 is_stmt 0 view .LVU141
 411 002c 000051E3 		cmp	r1, #0
 412 0030 03005111 		cmpne	r1, r3
 413 0034 0400001A 		bne	.L54
 414 0038 0C2094E5 		ldr	r2, [r4, #12]
 415              	.LVL27:
 416              	.L55:
 417              		.loc 1 167 3 is_stmt 1 view .LVU142
 418              		.loc 1 167 25 is_stmt 0 view .LVU143
 419 003c 003092E5 		ldr	r3, [r2]
 420 0040 023983E3 		orr	r3, r3, #32768
 421 0044 003082E5 		str	r3, [r2]
 422              		.loc 1 168 1 view .LVU144
 423 0048 1080BDE8 		pop	{r4, pc}
 424              	.LVL28:
 425              	.L54:
 426              		.loc 1 165 5 is_stmt 1 view .LVU145
 427              		.loc 1 165 49 is_stmt 0 view .LVU146
 428 004c 10009FE5 		ldr	r0, .L57+4
 429 0050 FEFFFFEB 		bl	__aeabi_uidiv
 430              	.LVL29:
 431              		.loc 1 165 9 view .LVU147
 432 0054 0C2094E5 		ldr	r2, [r4, #12]
 433              		.loc 1 165 32 view .LVU148
 434 0058 140082E5 		str	r0, [r2, #20]
 435 005c F6FFFFEA 		b	.L55
 436              	.L58:
 437              		.align	2
 438              	.L57:
 439 0060 A0860100 		.word	100000
 440 0064 80D1F008 		.word	150000000
 441              		.cfi_endproc
 442              	.LFE10:
 443              		.size	i2c_lld_start, .-i2c_lld_start
 444              		.section	.text.i2c_lld_stop,"ax",%progbits
 445              		.align	2
 446              		.global	i2c_lld_stop
 447              		.syntax unified
 448              		.arm
 449              		.fpu softvfp
 450              		.type	i2c_lld_stop, %function
 451              	i2c_lld_stop:
 452              	.LVL30:
 453              	.LFB11:
 454              		.loc 1 177 36 is_stmt 1 view -0
 455              		.cfi_startproc
 456              		@ args = 0, pretend = 0, frame = 0
ARM GAS  /tmp/ccJAVx7t.s 			page 9


 457              		@ frame_needed = 0, uses_anonymous_args = 0
 458              		.loc 1 183 3 view .LVU150
 459              		.loc 1 177 36 is_stmt 0 view .LVU151
 460 0000 10402DE9 		push	{r4, lr}
 461              		.cfi_def_cfa_offset 8
 462              		.cfi_offset 4, -8
 463              		.cfi_offset 14, -4
 464              		.loc 1 177 36 view .LVU152
 465 0004 0040A0E1 		mov	r4, r0
 466              		.loc 1 183 3 view .LVU153
 467 0008 0010A0E3 		mov	r1, #0
 468 000c 0200A0E3 		mov	r0, #2
 469              	.LVL31:
 470              		.loc 1 183 3 view .LVU154
 471 0010 FEFFFFEB 		bl	bcm2835_gpio_fnsel
 472              	.LVL32:
 473              		.loc 1 184 3 is_stmt 1 view .LVU155
 474 0014 0010A0E3 		mov	r1, #0
 475 0018 0300A0E3 		mov	r0, #3
 476 001c FEFFFFEB 		bl	bcm2835_gpio_fnsel
 477              	.LVL33:
 478              		.loc 1 186 3 view .LVU156
 479              		.loc 1 186 7 is_stmt 0 view .LVU157
 480 0020 0C2094E5 		ldr	r2, [r4, #12]
 481              		.loc 1 186 25 view .LVU158
 482 0024 003092E5 		ldr	r3, [r2]
 483 0028 0239C3E3 		bic	r3, r3, #32768
 484 002c 003082E5 		str	r3, [r2]
 485              		.loc 1 187 1 view .LVU159
 486 0030 1080BDE8 		pop	{r4, pc}
 487              		.cfi_endproc
 488              	.LFE11:
 489              		.size	i2c_lld_stop, .-i2c_lld_stop
 490              		.section	.text.i2c_lld_master_receive_timeout,"ax",%progbits
 491              		.align	2
 492              		.global	i2c_lld_master_receive_timeout
 493              		.syntax unified
 494              		.arm
 495              		.fpu softvfp
 496              		.type	i2c_lld_master_receive_timeout, %function
 497              	i2c_lld_master_receive_timeout:
 498              	.LVL34:
 499              	.LFB13:
 500              		.loc 1 271 29 is_stmt 1 view -0
 501              		.cfi_startproc
 502              		@ args = 4, pretend = 0, frame = 24
 503              		@ frame_needed = 0, uses_anonymous_args = 0
 504              		.loc 1 272 3 view .LVU161
 505              		.loc 1 275 3 view .LVU162
 506              		.loc 1 271 29 is_stmt 0 view .LVU163
 507 0000 F0412DE9 		push	{r4, r5, r6, r7, r8, lr}
 508              		.cfi_def_cfa_offset 24
 509              		.cfi_offset 4, -24
 510              		.cfi_offset 5, -20
 511              		.cfi_offset 6, -16
 512              		.cfi_offset 7, -12
 513              		.cfi_offset 8, -8
ARM GAS  /tmp/ccJAVx7t.s 			page 10


 514              		.cfi_offset 14, -4
 515 0004 18D04DE2 		sub	sp, sp, #24
 516              		.cfi_def_cfa_offset 48
 517              		.loc 1 271 29 view .LVU164
 518 0008 30809DE5 		ldr	r8, [sp, #48]
 519 000c 0040A0E1 		mov	r4, r0
 520              		.loc 1 275 6 view .LVU165
 521 0010 010078E3 		cmn	r8, #1
 522              		.loc 1 271 29 view .LVU166
 523 0014 0160A0E1 		mov	r6, r1
 524 0018 0270A0E1 		mov	r7, r2
 525 001c 0350A0E1 		mov	r5, r3
 526              		.loc 1 275 6 view .LVU167
 527 0020 0400000A 		beq	.L62
 528              		.loc 1 276 5 is_stmt 1 view .LVU168
 529 0024 0030A0E1 		mov	r3, r0
 530              	.LVL35:
 531              		.loc 1 276 5 is_stmt 0 view .LVU169
 532 0028 0810A0E1 		mov	r1, r8
 533              	.LVL36:
 534              		.loc 1 276 5 view .LVU170
 535 002c 88209FE5 		ldr	r2, .L74
 536              	.LVL37:
 537              		.loc 1 276 5 view .LVU171
 538 0030 04008DE2 		add	r0, sp, #4
 539              	.LVL38:
 540              		.loc 1 276 5 view .LVU172
 541 0034 FEFFFFEB 		bl	chVTSetI
 542              	.LVL39:
 543              	.L62:
 544              		.loc 1 278 3 is_stmt 1 view .LVU173
 545              		.loc 1 279 15 is_stmt 0 view .LVU174
 546 0038 0030A0E3 		mov	r3, #0
 547              		.loc 1 287 16 view .LVU175
 548 003c 0C2094E5 		ldr	r2, [r4, #12]
 549              		.loc 1 279 15 view .LVU176
 550 0040 283084E5 		str	r3, [r4, #40]
 551              		.loc 1 280 17 view .LVU177
 552 0044 2C3084E5 		str	r3, [r4, #44]
 553              		.loc 1 281 15 view .LVU178
 554 0048 303084E5 		str	r3, [r4, #48]
 555              		.loc 1 284 15 view .LVU179
 556 004c 3C3084E5 		str	r3, [r4, #60]
 557              		.loc 1 290 18 view .LVU180
 558 0050 68109FE5 		ldr	r1, .L74+4
 559              		.loc 1 293 19 view .LVU181
 560 0054 68309FE5 		ldr	r3, .L74+8
 561              		.loc 1 278 14 view .LVU182
 562 0058 B462C4E1 		strh	r6, [r4, #36]	@ movhi
 563              		.loc 1 279 3 is_stmt 1 view .LVU183
 564              		.loc 1 280 3 view .LVU184
 565              		.loc 1 281 3 view .LVU185
 566              		.loc 1 282 3 view .LVU186
 567              		.loc 1 283 3 view .LVU187
 568              		.loc 1 284 3 view .LVU188
 569              		.loc 1 287 3 view .LVU189
 570              	.LVL40:
ARM GAS  /tmp/ccJAVx7t.s 			page 11


 571              		.loc 1 288 3 view .LVU190
 572              		.loc 1 282 15 is_stmt 0 view .LVU191
 573 005c 347084E5 		str	r7, [r4, #52]
 574              		.loc 1 283 17 view .LVU192
 575 0060 385084E5 		str	r5, [r4, #56]
 576              		.loc 1 288 24 view .LVU193
 577 0064 0C6082E5 		str	r6, [r2, #12]
 578              		.loc 1 289 3 is_stmt 1 view .LVU194
 579              		.loc 1 289 22 is_stmt 0 view .LVU195
 580 0068 085082E5 		str	r5, [r2, #8]
 581              		.loc 1 290 3 is_stmt 1 view .LVU196
 582              		.loc 1 290 18 is_stmt 0 view .LVU197
 583 006c 041082E5 		str	r1, [r2, #4]
 584              		.loc 1 293 3 is_stmt 1 view .LVU198
 585              		.loc 1 293 19 is_stmt 0 view .LVU199
 586 0070 003082E5 		str	r3, [r2]
 587              		.loc 1 296 3 is_stmt 1 view .LVU200
 588              		.syntax divided
 589              	@ 296 "../os/hal/platforms/BCM2835/i2c_lld.c" 1
 590 0074 9FF021E3 		msr     CPSR_c, #0x9F
 591              	@ 0 "" 2
 592              		.loc 1 296 3 view .LVU201
 593              		.loc 1 296 14 view .LVU202
 594              		.loc 1 297 3 view .LVU203
 595              		.loc 1 297 18 is_stmt 0 view .LVU204
 596              		.arm
 597              		.syntax unified
 598 0078 48509FE5 		ldr	r5, .L74+12
 599              	.LVL41:
 600              		.loc 1 298 3 view .LVU205
 601 007c 0200A0E3 		mov	r0, #2
 602              		.loc 1 297 16 view .LVU206
 603 0080 183095E5 		ldr	r3, [r5, #24]
 604 0084 203084E5 		str	r3, [r4, #32]
 605              		.loc 1 298 3 is_stmt 1 view .LVU207
 606 0088 FEFFFFEB 		bl	chSchGoSleepS
 607              	.LVL42:
 608              		.loc 1 299 3 view .LVU208
 609              		.loc 1 299 6 is_stmt 0 view .LVU209
 610 008c 010078E3 		cmn	r8, #1
 611 0090 0400000A 		beq	.L63
 612              		.loc 1 299 34 discriminator 1 view .LVU210
 613 0094 10309DE5 		ldr	r3, [sp, #16]
 614 0098 000053E3 		cmp	r3, #0
 615 009c 0100000A 		beq	.L63
 616              		.loc 1 300 5 is_stmt 1 view .LVU211
 617 00a0 04008DE2 		add	r0, sp, #4
 618 00a4 FEFFFFEB 		bl	chVTResetI
 619              	.LVL43:
 620              	.L63:
 621              		.loc 1 301 3 view .LVU212
 622              		.loc 1 301 3 view .LVU213
 623              		.syntax divided
 624              	@ 301 "../os/hal/platforms/BCM2835/i2c_lld.c" 1
 625 00a8 1FF021E3 		msr     CPSR_c, #0x1F
 626              	@ 0 "" 2
 627              		.loc 1 301 16 view .LVU214
ARM GAS  /tmp/ccJAVx7t.s 			page 12


 628              		.loc 1 303 3 view .LVU215
 629              		.loc 1 303 26 is_stmt 0 view .LVU216
 630              		.arm
 631              		.syntax unified
 632 00ac 183095E5 		ldr	r3, [r5, #24]
 633              		.loc 1 304 1 view .LVU217
 634 00b0 240093E5 		ldr	r0, [r3, #36]
 635 00b4 18D08DE2 		add	sp, sp, #24
 636              		.cfi_def_cfa_offset 24
 637              		@ sp needed
 638 00b8 F081BDE8 		pop	{r4, r5, r6, r7, r8, pc}
 639              	.LVL44:
 640              	.L75:
 641              		.loc 1 304 1 view .LVU218
 642              		.align	2
 643              	.L74:
 644 00bc 00000000 		.word	i2c_lld_safety_timeout
 645 00c0 02030000 		.word	770
 646 00c4 91850000 		.word	34193
 647 00c8 00000000 		.word	rlist
 648              		.cfi_endproc
 649              	.LFE13:
 650              		.size	i2c_lld_master_receive_timeout, .-i2c_lld_master_receive_timeout
 651              		.section	.text.i2c_lld_master_transmit_timeout,"ax",%progbits
 652              		.align	2
 653              		.global	i2c_lld_master_transmit_timeout
 654              		.syntax unified
 655              		.arm
 656              		.fpu softvfp
 657              		.type	i2c_lld_master_transmit_timeout, %function
 658              	i2c_lld_master_transmit_timeout:
 659              	.LVL45:
 660              	.LFB12:
 661              		.loc 1 208 59 is_stmt 1 view -0
 662              		.cfi_startproc
 663              		@ args = 12, pretend = 0, frame = 24
 664              		@ frame_needed = 0, uses_anonymous_args = 0
 665              		.loc 1 209 3 view .LVU220
 666              		.loc 1 212 3 view .LVU221
 667              		.loc 1 208 59 is_stmt 0 view .LVU222
 668 0000 F0472DE9 		push	{r4, r5, r6, r7, r8, r9, r10, lr}
 669              		.cfi_def_cfa_offset 32
 670              		.cfi_offset 4, -32
 671              		.cfi_offset 5, -28
 672              		.cfi_offset 6, -24
 673              		.cfi_offset 7, -20
 674              		.cfi_offset 8, -16
 675              		.cfi_offset 9, -12
 676              		.cfi_offset 10, -8
 677              		.cfi_offset 14, -4
 678 0004 20D04DE2 		sub	sp, sp, #32
 679              		.cfi_def_cfa_offset 64
 680              		.loc 1 208 59 view .LVU223
 681 0008 48609DE5 		ldr	r6, [sp, #72]
 682 000c 0040A0E1 		mov	r4, r0
 683              		.loc 1 212 6 view .LVU224
 684 0010 010076E3 		cmn	r6, #1
ARM GAS  /tmp/ccJAVx7t.s 			page 13


 685              		.loc 1 208 59 view .LVU225
 686 0014 0150A0E1 		mov	r5, r1
 687 0018 02A0A0E1 		mov	r10, r2
 688 001c 0390A0E1 		mov	r9, r3
 689 0020 40809DE5 		ldr	r8, [sp, #64]
 690 0024 4470DDE5 		ldrb	r7, [sp, #68]	@ zero_extendqisi2
 691              		.loc 1 212 6 view .LVU226
 692 0028 0400000A 		beq	.L77
 693              		.loc 1 213 5 is_stmt 1 view .LVU227
 694 002c 0030A0E1 		mov	r3, r0
 695              	.LVL46:
 696              		.loc 1 213 5 is_stmt 0 view .LVU228
 697 0030 0610A0E1 		mov	r1, r6
 698              	.LVL47:
 699              		.loc 1 213 5 view .LVU229
 700 0034 F4209FE5 		ldr	r2, .L100
 701              	.LVL48:
 702              		.loc 1 213 5 view .LVU230
 703 0038 0C008DE2 		add	r0, sp, #12
 704              	.LVL49:
 705              		.loc 1 213 5 view .LVU231
 706 003c FEFFFFEB 		bl	chVTSetI
 707              	.LVL50:
 708              	.L77:
 709              		.loc 1 215 3 is_stmt 1 view .LVU232
 710              		.loc 1 218 15 is_stmt 0 view .LVU233
 711 0040 0030A0E3 		mov	r3, #0
 712              		.loc 1 223 16 view .LVU234
 713 0044 0C2094E5 		ldr	r2, [r4, #12]
 714              		.loc 1 226 18 view .LVU235
 715 0048 E4109FE5 		ldr	r1, .L100+4
 716              		.loc 1 218 15 view .LVU236
 717 004c 303084E5 		str	r3, [r4, #48]
 718              		.loc 1 221 15 view .LVU237
 719 0050 3C3084E5 		str	r3, [r4, #60]
 720              		.loc 1 215 14 view .LVU238
 721 0054 B452C4E1 		strh	r5, [r4, #36]	@ movhi
 722              		.loc 1 216 3 is_stmt 1 view .LVU239
 723              		.loc 1 216 15 is_stmt 0 view .LVU240
 724 0058 28A084E5 		str	r10, [r4, #40]
 725              		.loc 1 217 3 is_stmt 1 view .LVU241
 726              		.loc 1 217 17 is_stmt 0 view .LVU242
 727 005c 2C9084E5 		str	r9, [r4, #44]
 728              		.loc 1 218 3 is_stmt 1 view .LVU243
 729              		.loc 1 219 3 view .LVU244
 730              		.loc 1 220 3 view .LVU245
 731              		.loc 1 221 3 view .LVU246
 732              		.loc 1 223 3 view .LVU247
 733              	.LVL51:
 734              		.loc 1 224 3 view .LVU248
 735              		.loc 1 219 15 is_stmt 0 view .LVU249
 736 0060 348084E5 		str	r8, [r4, #52]
 737              		.loc 1 220 17 view .LVU250
 738 0064 387084E5 		str	r7, [r4, #56]
 739              		.loc 1 224 24 view .LVU251
 740 0068 0C5082E5 		str	r5, [r2, #12]
 741              		.loc 1 225 3 is_stmt 1 view .LVU252
ARM GAS  /tmp/ccJAVx7t.s 			page 14


 742              		.loc 1 225 22 is_stmt 0 view .LVU253
 743 006c 089082E5 		str	r9, [r2, #8]
 744              		.loc 1 226 3 is_stmt 1 view .LVU254
 745              		.loc 1 226 18 is_stmt 0 view .LVU255
 746 0070 041082E5 		str	r1, [r2, #4]
 747              		.loc 1 229 3 is_stmt 1 view .LVU256
 748              		.loc 1 229 19 is_stmt 0 view .LVU257
 749 0074 003092E5 		ldr	r3, [r2]
 750 0078 833C83E3 		orr	r3, r3, #33536
 751 007c 803083E3 		orr	r3, r3, #128
 752 0080 003082E5 		str	r3, [r2]
 753              		.loc 1 232 3 is_stmt 1 view .LVU258
 754              		.syntax divided
 755              	@ 232 "../os/hal/platforms/BCM2835/i2c_lld.c" 1
 756 0084 9FF021E3 		msr     CPSR_c, #0x9F
 757              	@ 0 "" 2
 758              		.loc 1 232 3 view .LVU259
 759              		.loc 1 232 14 view .LVU260
 760              		.loc 1 234 3 view .LVU261
 761              		.loc 1 234 18 is_stmt 0 view .LVU262
 762              		.arm
 763              		.syntax unified
 764 0088 A8909FE5 		ldr	r9, .L100+8
 765              	.LVL52:
 766              		.loc 1 235 3 view .LVU263
 767 008c 0200A0E3 		mov	r0, #2
 768              		.loc 1 234 16 view .LVU264
 769 0090 183099E5 		ldr	r3, [r9, #24]
 770 0094 203084E5 		str	r3, [r4, #32]
 771              		.loc 1 235 3 is_stmt 1 view .LVU265
 772 0098 FEFFFFEB 		bl	chSchGoSleepS
 773              	.LVL53:
 774              		.loc 1 236 3 view .LVU266
 775              		.loc 1 236 6 is_stmt 0 view .LVU267
 776 009c 010076E3 		cmn	r6, #1
 777 00a0 0400000A 		beq	.L78
 778              		.loc 1 236 34 discriminator 1 view .LVU268
 779 00a4 18309DE5 		ldr	r3, [sp, #24]
 780 00a8 000053E3 		cmp	r3, #0
 781 00ac 0100000A 		beq	.L78
 782              		.loc 1 237 5 is_stmt 1 view .LVU269
 783 00b0 0C008DE2 		add	r0, sp, #12
 784 00b4 FEFFFFEB 		bl	chVTResetI
 785              	.LVL54:
 786              	.L78:
 787              		.loc 1 239 3 view .LVU270
 788              		.loc 1 239 3 view .LVU271
 789              		.syntax divided
 790              	@ 239 "../os/hal/platforms/BCM2835/i2c_lld.c" 1
 791 00b8 1FF021E3 		msr     CPSR_c, #0x1F
 792              	@ 0 "" 2
 793              		.loc 1 239 16 view .LVU272
 794              		.loc 1 241 3 view .LVU273
 795              		.loc 1 241 9 is_stmt 0 view .LVU274
 796              		.arm
 797              		.syntax unified
 798 00bc 182099E5 		ldr	r2, [r9, #24]
ARM GAS  /tmp/ccJAVx7t.s 			page 15


 799              		.loc 1 243 35 view .LVU275
 800 00c0 003057E2 		subs	r3, r7, #0
 801              		.loc 1 241 9 view .LVU276
 802 00c4 249092E5 		ldr	r9, [r2, #36]
 803              	.LVL55:
 804              		.loc 1 243 3 is_stmt 1 view .LVU277
 805              		.loc 1 243 35 is_stmt 0 view .LVU278
 806 00c8 0130A013 		movne	r3, #1
 807              		.loc 1 243 6 view .LVU279
 808 00cc 000059E3 		cmp	r9, #0
 809 00d0 0030A013 		movne	r3, #0
 810 00d4 000053E3 		cmp	r3, #0
 811 00d8 0200001A 		bne	.L99
 812              	.L76:
 813              		.loc 1 252 1 view .LVU280
 814 00dc 0900A0E1 		mov	r0, r9
 815 00e0 20D08DE2 		add	sp, sp, #32
 816              		.cfi_remember_state
 817              		.cfi_def_cfa_offset 32
 818              		@ sp needed
 819 00e4 F087BDE8 		pop	{r4, r5, r6, r7, r8, r9, r10, pc}
 820              	.LVL56:
 821              	.L99:
 822              		.cfi_restore_state
 823              		.loc 1 245 5 is_stmt 1 view .LVU281
 824              		.loc 1 245 14 is_stmt 0 view .LVU282
 825 00e8 00C0E0E3 		mvn	ip, #0
 826 00ec 0730A0E1 		mov	r3, r7
 827 00f0 0820A0E1 		mov	r2, r8
 828 00f4 0510A0E1 		mov	r1, r5
 829 00f8 0400A0E1 		mov	r0, r4
 830 00fc 00C08DE5 		str	ip, [sp]
 831 0100 FEFFFFEB 		bl	i2c_lld_master_receive_timeout
 832              	.LVL57:
 833              		.loc 1 247 8 view .LVU283
 834 0104 010076E3 		cmn	r6, #1
 835              		.loc 1 245 14 view .LVU284
 836 0108 0090A0E1 		mov	r9, r0
 837              	.LVL58:
 838              		.loc 1 247 5 is_stmt 1 view .LVU285
 839              		.loc 1 247 8 is_stmt 0 view .LVU286
 840 010c F2FFFF0A 		beq	.L76
 841              		.loc 1 247 36 discriminator 1 view .LVU287
 842 0110 18309DE5 		ldr	r3, [sp, #24]
 843 0114 000053E3 		cmp	r3, #0
 844 0118 EFFFFF0A 		beq	.L76
 845              		.loc 1 248 7 is_stmt 1 view .LVU288
 846 011c 0C008DE2 		add	r0, sp, #12
 847              	.LVL59:
 848              		.loc 1 248 7 is_stmt 0 view .LVU289
 849 0120 FEFFFFEB 		bl	chVTResetI
 850              	.LVL60:
 851              		.loc 1 251 3 is_stmt 1 view .LVU290
 852              		.loc 1 252 1 is_stmt 0 view .LVU291
 853 0124 0900A0E1 		mov	r0, r9
 854 0128 20D08DE2 		add	sp, sp, #32
 855              		.cfi_def_cfa_offset 32
ARM GAS  /tmp/ccJAVx7t.s 			page 16


 856              		@ sp needed
 857 012c F087BDE8 		pop	{r4, r5, r6, r7, r8, r9, r10, pc}
 858              	.LVL61:
 859              	.L101:
 860              		.loc 1 252 1 view .LVU292
 861              		.align	2
 862              	.L100:
 863 0130 00000000 		.word	i2c_lld_safety_timeout
 864 0134 02030000 		.word	770
 865 0138 00000000 		.word	rlist
 866              		.cfi_endproc
 867              	.LFE12:
 868              		.size	i2c_lld_master_transmit_timeout, .-i2c_lld_master_transmit_timeout
 869              		.comm	I2C1,64,4
 870              		.comm	I2C0,64,4
 871              		.text
 872              	.Letext0:
 873              		.file 2 "/usr/lib/gcc/arm-none-eabi/9.2.1/include/stddef.h"
 874              		.file 3 "/usr/lib/gcc/arm-none-eabi/9.2.1/include/stdint.h"
 875              		.file 4 "../os/ports/GCC/ARM/chtypes.h"
 876              		.file 5 "../os/kernel/include/chlists.h"
 877              		.file 6 "../os/kernel/include/chthreads.h"
 878              		.file 7 "../os/ports/GCC/ARM/chcore.h"
 879              		.file 8 "../os/kernel/include/chvt.h"
 880              		.file 9 "../os/kernel/include/chschd.h"
 881              		.file 10 "../os/kernel/include/chmtx.h"
 882              		.file 11 "../os/kernel/include/chevents.h"
 883              		.file 12 "../os/kernel/include/chregistry.h"
 884              		.file 13 "../os/kernel/include/chqueues.h"
 885              		.file 14 "../os/kernel/include/ch.h"
 886              		.file 15 "../os/hal/platforms/BCM2835/bcm2835.h"
 887              		.file 16 "../os/hal/platforms/BCM2835/pal_lld.h"
 888              		.file 17 "../os/hal/include/i2c.h"
 889              		.file 18 "../os/hal/platforms/BCM2835/i2c_lld.h"
 890              		.file 19 "../os/hal/include/serial.h"
 891              		.file 20 "../os/hal/include/spi.h"
 892              		.file 21 "../os/hal/platforms/BCM2835/spi_lld.h"
 893              		.file 22 "../os/hal/platforms/BCM2835/serial_lld.h"