ARM GAS  /tmp/ccJAVx7t.s 			page 1


   1              		.cpu arm1176jz-s
   2              		.eabi_attribute 20, 1
   3              		.eabi_attribute 21, 1
   4              		.eabi_attribute 23, 3
   5              		.eabi_attribute 24, 1
   6              		.eabi_attribute 25, 1
   7              		.eabi_attribute 26, 1
   8              		.eabi_attribute 30, 2
   9              		.eabi_attribute 34, 1
  10              		.eabi_attribute 18, 4
  11              		.file	"i2c_lld.c"
  12              		.text
  13              	.Ltext0:
  14              		.cfi_sections	.debug_frame
  15              		.section	.text.i2c_lld_safety_timeout,"ax",%progbits
  16              		.align	2
  17              		.arch armv6kz
  18              		.syntax unified
  19              		.arm
  20              		.fpu softvfp
  21              		.type	i2c_lld_safety_timeout, %function
  22              	i2c_lld_safety_timeout:
  23              	.LVL0:
  24              	.LFB7:
  25              		.file 1 "../os/hal/platforms/BCM2835/i2c_lld.c"
  26              		.loc 1 79 45 view -0
  27              		.cfi_startproc
  28              		@ args = 0, pretend = 0, frame = 0
  29              		@ frame_needed = 0, uses_anonymous_args = 0
  30              		.loc 1 80 3 view .LVU1
  31              		.loc 1 79 45 is_stmt 0 view .LVU2
  32 0000 0030A0E1 		mov	r3, r0
  33              	.LVL1:
  34              		.loc 1 81 3 is_stmt 1 view .LVU3
  35              		.loc 1 81 3 view .LVU4
  36              		.loc 1 81 21 view .LVU5
  37              		.loc 1 82 3 view .LVU6
  38              		.loc 1 82 11 is_stmt 0 view .LVU7
  39 0004 200090E5 		ldr	r0, [r0, #32]
  40              	.LVL2:
  41              		.loc 1 82 6 view .LVU8
  42 0008 000050E3 		cmp	r0, #0
  43 000c 1EFF2F01 		bxeq	lr
  44              	.LBB2:
  45              		.loc 1 83 5 is_stmt 1 view .LVU9
  46              		.loc 1 83 18 is_stmt 0 view .LVU10
  47 0010 0C2093E5 		ldr	r2, [r3, #12]
  48              	.LVL3:
  49              		.loc 1 85 5 is_stmt 1 view .LVU11
  50              	.LBE2:
  51              		.loc 1 79 45 is_stmt 0 view .LVU12
  52 0014 04E02DE5 		str	lr, [sp, #-4]!
  53              		.cfi_def_cfa_offset 4
  54              		.cfi_offset 14, -4
  55              	.LBB3:
  56              		.loc 1 86 15 view .LVU13
  57 0018 04E092E5 		ldr	lr, [r2, #4]
ARM GAS  /tmp/ccJAVx7t.s 			page 2


  58              		.loc 1 85 18 view .LVU14
  59 001c 081093E5 		ldr	r1, [r3, #8]
  60              		.loc 1 86 8 view .LVU15
  61 0020 020C1EE3 		tst	lr, #512
  62              		.loc 1 85 18 view .LVU16
  63 0024 20C081E3 		orr	ip, r1, #32
  64              		.loc 1 87 20 view .LVU17
  65 0028 21108113 		orrne	r1, r1, #33
  66              		.loc 1 85 18 view .LVU18
  67 002c 08C083E5 		str	ip, [r3, #8]
  68              		.loc 1 86 5 is_stmt 1 view .LVU19
  69              		.loc 1 87 7 view .LVU20
  70              		.loc 1 88 5 view .LVU21
  71              		.loc 1 87 20 is_stmt 0 view .LVU22
  72 0030 08108315 		strne	r1, [r3, #8]
  73              		.loc 1 88 15 view .LVU23
  74 0034 041092E5 		ldr	r1, [r2, #4]
  75              		.loc 1 96 20 view .LVU24
  76 0038 00C0E0E3 		mvn	ip, #0
  77              		.loc 1 88 8 view .LVU25
  78 003c 010C11E3 		tst	r1, #256
  79              		.loc 1 89 7 is_stmt 1 view .LVU26
  80              		.loc 1 89 20 is_stmt 0 view .LVU27
  81 0040 08109315 		ldrne	r1, [r3, #8]
  82              		.loc 1 92 20 view .LVU28
  83 0044 20E09FE5 		ldr	lr, .L15
  84              		.loc 1 89 20 view .LVU29
  85 0048 04108113 		orrne	r1, r1, #4
  86 004c 08108315 		strne	r1, [r3, #8]
  87              		.loc 1 91 5 is_stmt 1 view .LVU30
  88              		.loc 1 91 21 is_stmt 0 view .LVU31
  89 0050 0010A0E3 		mov	r1, #0
  90 0054 001082E5 		str	r1, [r2]
  91              		.loc 1 92 5 is_stmt 1 view .LVU32
  92              		.loc 1 92 20 is_stmt 0 view .LVU33
  93 0058 04E082E5 		str	lr, [r2, #4]
  94              		.loc 1 94 5 is_stmt 1 view .LVU34
  95              	.LVL4:
  96              		.loc 1 95 5 view .LVU35
  97              		.loc 1 95 18 is_stmt 0 view .LVU36
  98 005c 201083E5 		str	r1, [r3, #32]
  99              		.loc 1 96 5 is_stmt 1 view .LVU37
 100              	.LBE3:
 101              		.loc 1 100 1 is_stmt 0 view .LVU38
 102 0060 04E09DE4 		ldr	lr, [sp], #4
 103              		.cfi_restore 14
 104              		.cfi_def_cfa_offset 0
 105              	.LBB4:
 106              		.loc 1 96 20 view .LVU39
 107 0064 24C080E5 		str	ip, [r0, #36]
 108              		.loc 1 97 5 is_stmt 1 view .LVU40
 109 0068 FEFFFFEA 		b	chSchReadyI
 110              	.LVL5:
 111              	.L16:
 112              		.loc 1 97 5 is_stmt 0 view .LVU41
 113              		.align	2
 114              	.L15:
ARM GAS  /tmp/ccJAVx7t.s 			page 3


 115 006c 02030000 		.word	770
 116              	.LBE4:
 117              		.cfi_endproc
 118              	.LFE7:
 119              		.size	i2c_lld_safety_timeout, .-i2c_lld_safety_timeout
 120              		.section	.text.i2c_lld_serve_interrupt,"ax",%progbits
 121              		.align	2
 122              		.global	i2c_lld_serve_interrupt
 123              		.syntax unified
 124              		.arm
 125              		.fpu softvfp
 126              		.type	i2c_lld_serve_interrupt, %function
 127              	i2c_lld_serve_interrupt:
 128              	.LVL6:
 129              	.LFB8:
 130              		.loc 1 106 47 is_stmt 1 view -0
 131              		.cfi_startproc
 132              		@ args = 0, pretend = 0, frame = 0
 133              		@ frame_needed = 0, uses_anonymous_args = 0
 134              		.loc 1 107 3 view .LVU43
 135              		.loc 1 108 3 view .LVU44
 136              		.loc 1 108 16 is_stmt 0 view .LVU45
 137 0000 0C2090E5 		ldr	r2, [r0, #12]
 138              	.LVL7:
 139              		.loc 1 109 3 is_stmt 1 view .LVU46
 140              		.loc 1 109 12 is_stmt 0 view .LVU47
 141 0004 041092E5 		ldr	r1, [r2, #4]
 142              	.LVL8:
 143              		.loc 1 111 3 is_stmt 1 view .LVU48
 144              		.loc 1 111 6 is_stmt 0 view .LVU49
 145 0008 030C11E3 		tst	r1, #768
 146 000c 0800000A 		beq	.L18
 147              		.loc 1 113 5 is_stmt 1 view .LVU50
 148              		.loc 1 113 5 view .LVU51
 149              		.loc 1 113 5 view .LVU52
 150              		.loc 1 113 5 view .LVU53
 151 0010 203090E5 		ldr	r3, [r0, #32]
 152 0014 000053E3 		cmp	r3, #0
 153 0018 1EFF2F01 		bxeq	lr
 154              	.LBB5:
 155              		.loc 1 113 5 discriminator 1 view .LVU54
 156              	.LVL9:
 157              		.loc 1 113 5 discriminator 1 view .LVU55
 158 001c 0010A0E3 		mov	r1, #0
 159              	.LVL10:
 160              		.loc 1 113 5 is_stmt 0 discriminator 1 view .LVU56
 161 0020 0120E0E3 		mvn	r2, #1
 162              	.LVL11:
 163              		.loc 1 113 5 discriminator 1 view .LVU57
 164 0024 201080E5 		str	r1, [r0, #32]
 165              		.loc 1 113 5 is_stmt 1 discriminator 1 view .LVU58
 166 0028 0300A0E1 		mov	r0, r3
 167              	.LVL12:
 168              		.loc 1 113 5 is_stmt 0 discriminator 1 view .LVU59
 169 002c 242083E5 		str	r2, [r3, #36]
 170              		.loc 1 113 5 is_stmt 1 discriminator 1 view .LVU60
 171 0030 FEFFFFEA 		b	chSchReadyI
ARM GAS  /tmp/ccJAVx7t.s 			page 4


 172              	.LVL13:
 173              	.L18:
 174              		.loc 1 113 5 is_stmt 0 discriminator 1 view .LVU61
 175              	.LBE5:
 176              		.loc 1 115 8 is_stmt 1 view .LVU62
 177              		.loc 1 115 11 is_stmt 0 view .LVU63
 178 0034 020011E3 		tst	r1, #2
 179              		.loc 1 106 47 view .LVU64
 180 0038 04E02DE5 		str	lr, [sp, #-4]!
 181              		.cfi_def_cfa_offset 4
 182              		.cfi_offset 14, -4
 183              		.loc 1 115 11 view .LVU65
 184 003c 1700000A 		beq	.L20
 185              		.loc 1 116 11 is_stmt 1 view .LVU66
 186 0040 200011E3 		tst	r1, #32
 187 0044 0400001A 		bne	.L21
 188 0048 080000EA 		b	.L24
 189              	.LVL14:
 190              	.L23:
 191              		.loc 1 117 42 is_stmt 0 view .LVU67
 192 004c 10E092E5 		ldr	lr, [r2, #16]
 193              		.loc 1 117 11 view .LVU68
 194 0050 341090E5 		ldr	r1, [r0, #52]
 195              		.loc 1 117 30 view .LVU69
 196 0054 3CC080E5 		str	ip, [r0, #60]
 197              		.loc 1 117 34 view .LVU70
 198 0058 03E0C1E7 		strb	lr, [r1, r3]
 199              		.loc 1 116 11 is_stmt 1 view .LVU71
 200              	.L21:
 201              		.loc 1 117 7 discriminator 1 view .LVU72
 202              		.loc 1 116 39 is_stmt 0 discriminator 1 view .LVU73
 203 005c 3C3090E5 		ldr	r3, [r0, #60]
 204              		.loc 1 116 31 discriminator 1 view .LVU74
 205 0060 381090E5 		ldr	r1, [r0, #56]
 206              		.loc 1 117 30 discriminator 1 view .LVU75
 207 0064 01C083E2 		add	ip, r3, #1
 208              		.loc 1 116 31 discriminator 1 view .LVU76
 209 0068 010053E1 		cmp	r3, r1
 210 006c F6FFFF3A 		bcc	.L23
 211              	.L24:
 212              		.loc 1 118 5 is_stmt 1 view .LVU77
 213              		.loc 1 118 21 is_stmt 0 view .LVU78
 214 0070 0010A0E3 		mov	r1, #0
 215              		.loc 1 120 5 view .LVU79
 216 0074 203090E5 		ldr	r3, [r0, #32]
 217              		.loc 1 119 20 view .LVU80
 218 0078 BCC09FE5 		ldr	ip, .L48
 219              		.loc 1 120 5 view .LVU81
 220 007c 010053E1 		cmp	r3, r1
 221              		.loc 1 118 21 view .LVU82
 222 0080 001082E5 		str	r1, [r2]
 223              		.loc 1 119 5 is_stmt 1 view .LVU83
 224              		.loc 1 119 20 is_stmt 0 view .LVU84
 225 0084 04C082E5 		str	ip, [r2, #4]
 226              		.loc 1 120 5 is_stmt 1 view .LVU85
 227              		.loc 1 120 5 view .LVU86
 228              		.loc 1 120 5 view .LVU87
ARM GAS  /tmp/ccJAVx7t.s 			page 5


 229              		.loc 1 120 5 view .LVU88
 230 0088 04F09D04 		ldreq	pc, [sp], #4
 231              	.LBB6:
 232              		.loc 1 120 5 discriminator 1 view .LVU89
 233              	.LVL15:
 234              		.loc 1 120 5 discriminator 1 view .LVU90
 235 008c 201080E5 		str	r1, [r0, #32]
 236              		.loc 1 120 5 discriminator 1 view .LVU91
 237              	.LBE6:
 238              		.loc 1 130 1 is_stmt 0 discriminator 1 view .LVU92
 239 0090 04E09DE4 		ldr	lr, [sp], #4
 240              		.cfi_remember_state
 241              		.cfi_restore 14
 242              		.cfi_def_cfa_offset 0
 243              	.LBB7:
 244              		.loc 1 120 5 discriminator 1 view .LVU93
 245 0094 0300A0E1 		mov	r0, r3
 246              	.LVL16:
 247              		.loc 1 120 5 discriminator 1 view .LVU94
 248 0098 241083E5 		str	r1, [r3, #36]
 249              		.loc 1 120 5 is_stmt 1 discriminator 1 view .LVU95
 250 009c FEFFFFEA 		b	chSchReadyI
 251              	.LVL17:
 252              	.L20:
 253              		.cfi_restore_state
 254              		.loc 1 120 5 is_stmt 0 discriminator 1 view .LVU96
 255              	.LBE7:
 256              		.loc 1 122 8 is_stmt 1 view .LVU97
 257              		.loc 1 122 11 is_stmt 0 view .LVU98
 258 00a0 040011E3 		tst	r1, #4
 259 00a4 1200000A 		beq	.L25
 260              		.loc 1 123 11 is_stmt 1 view .LVU99
 261              		.loc 1 123 17 is_stmt 0 view .LVU100
 262 00a8 303090E5 		ldr	r3, [r0, #48]
 263              		.loc 1 123 31 view .LVU101
 264 00ac 2CC090E5 		ldr	ip, [r0, #44]
 265              		.loc 1 123 11 view .LVU102
 266 00b0 03005CE1 		cmp	ip, r3
 267 00b4 04F09D94 		ldrls	pc, [sp], #4
 268              		.loc 1 123 42 view .LVU103
 269 00b8 100011E3 		tst	r1, #16
 270 00bc 04F09D04 		ldreq	pc, [sp], #4
 271              		.loc 1 124 30 view .LVU104
 272 00c0 28E090E5 		ldr	lr, [r0, #40]
 273 00c4 013043E2 		sub	r3, r3, #1
 274 00c8 01C04CE2 		sub	ip, ip, #1
 275 00cc 03308EE0 		add	r3, lr, r3
 276 00d0 0CC08EE0 		add	ip, lr, ip
 277 00d4 02E06EE2 		rsb	lr, lr, #2
 278              	.LVL18:
 279              	.L26:
 280              		.loc 1 124 7 is_stmt 1 view .LVU105
 281              		.loc 1 124 49 is_stmt 0 view .LVU106
 282 00d8 03108EE0 		add	r1, lr, r3
 283 00dc 301080E5 		str	r1, [r0, #48]
 284              		.loc 1 124 37 view .LVU107
 285 00e0 0110F3E5 		ldrb	r1, [r3, #1]!	@ zero_extendqisi2
ARM GAS  /tmp/ccJAVx7t.s 			page 6


 286              		.loc 1 123 11 view .LVU108
 287 00e4 0C0053E1 		cmp	r3, ip
 288              		.loc 1 124 24 view .LVU109
 289 00e8 101082E5 		str	r1, [r2, #16]
 290              		.loc 1 123 11 is_stmt 1 view .LVU110
 291 00ec F9FFFF1A 		bne	.L26
 292 00f0 04F09DE4 		ldr	pc, [sp], #4
 293              	.LVL19:
 294              	.L25:
 295              		.loc 1 126 8 view .LVU111
 296              		.loc 1 126 11 is_stmt 0 view .LVU112
 297 00f4 080011E3 		tst	r1, #8
 298 00f8 04F09D04 		ldreq	pc, [sp], #4
 299              		.loc 1 127 11 is_stmt 1 view .LVU113
 300              		.loc 1 127 17 is_stmt 0 view .LVU114
 301 00fc 3C3090E5 		ldr	r3, [r0, #60]
 302              		.loc 1 127 11 view .LVU115
 303 0100 38C090E5 		ldr	ip, [r0, #56]
 304 0104 03005CE1 		cmp	ip, r3
 305 0108 04F09D94 		ldrls	pc, [sp], #4
 306              		.loc 1 127 42 view .LVU116
 307 010c 200011E3 		tst	r1, #32
 308 0110 04F09D04 		ldreq	pc, [sp], #4
 309              	.LVL20:
 310              	.L27:
 311              		.loc 1 128 7 is_stmt 1 view .LVU117
 312              		.loc 1 128 42 is_stmt 0 view .LVU118
 313 0114 10C092E5 		ldr	ip, [r2, #16]
 314              		.loc 1 128 11 view .LVU119
 315 0118 341090E5 		ldr	r1, [r0, #52]
 316              		.loc 1 128 30 view .LVU120
 317 011c 01E083E2 		add	lr, r3, #1
 318 0120 3CE080E5 		str	lr, [r0, #60]
 319              		.loc 1 128 34 view .LVU121
 320 0124 03C0C1E7 		strb	ip, [r1, r3]
 321              		.loc 1 127 11 is_stmt 1 view .LVU122
 322              		.loc 1 127 17 is_stmt 0 view .LVU123
 323 0128 3C3090E5 		ldr	r3, [r0, #60]
 324              		.loc 1 127 11 view .LVU124
 325 012c 381090E5 		ldr	r1, [r0, #56]
 326 0130 010053E1 		cmp	r3, r1
 327 0134 F6FFFF3A 		bcc	.L27
 328 0138 04F09DE4 		ldr	pc, [sp], #4
 329              	.L49:
 330              		.align	2
 331              	.L48:
 332 013c 02030000 		.word	770
 333              		.cfi_endproc
 334              	.LFE8:
 335              		.size	i2c_lld_serve_interrupt, .-i2c_lld_serve_interrupt
 336              		.section	.text.i2c_lld_init,"ax",%progbits
 337              		.align	2
 338              		.global	i2c_lld_init
 339              		.syntax unified
 340              		.arm
 341              		.fpu softvfp
 342              		.type	i2c_lld_init, %function
ARM GAS  /tmp/ccJAVx7t.s 			page 7


 343              	i2c_lld_init:
 344              	.LFB9:
 345              		.loc 1 141 25 is_stmt 1 view -0
 346              		.cfi_startproc
 347              		@ args = 0, pretend = 0, frame = 0
 348              		@ frame_needed = 0, uses_anonymous_args = 0
 349              		@ link register save eliminated.
 350              		.loc 1 142 3 view .LVU126
 351              		.loc 1 142 15 is_stmt 0 view .LVU127
 352 0000 08009FE5 		ldr	r0, .L51
 353 0004 08309FE5 		ldr	r3, .L51+4
 354 0008 0C3080E5 		str	r3, [r0, #12]
 355              		.loc 1 143 3 is_stmt 1 view .LVU128
 356 000c FEFFFFEA 		b	i2cObjectInit
 357              	.LVL21:
 358              	.L52:
 359              		.align	2
 360              	.L51:
 361 0010 00000000 		.word	I2C0
 362 0014 00408020 		.word	545275904
 363              		.cfi_endproc
 364              	.LFE9:
 365              		.size	i2c_lld_init, .-i2c_lld_init
 366              		.global	__aeabi_uidiv
 367              		.section	.text.i2c_lld_start,"ax",%progbits
 368              		.align	2
 369              		.global	i2c_lld_start
 370              		.syntax unified
 371              		.arm
 372              		.fpu softvfp
 373              		.type	i2c_lld_start, %function
 374              	i2c_lld_start:
 375              	.LVL22:
 376              	.LFB10:
 377              		.loc 1 153 37 view -0
 378              		.cfi_startproc
 379              		@ args = 0, pretend = 0, frame = 0
 380              		@ frame_needed = 0, uses_anonymous_args = 0
 381              		.loc 1 160 3 view .LVU130
 382              		.loc 1 153 37 is_stmt 0 view .LVU131
 383 0000 10402DE9 		push	{r4, lr}
 384              		.cfi_def_cfa_offset 8
 385              		.cfi_offset 4, -8
 386              		.cfi_offset 14, -4
 387              		.loc 1 153 37 view .LVU132
 388 0004 0040A0E1 		mov	r4, r0
 389              		.loc 1 160 3 view .LVU133
 390 0008 0410A0E3 		mov	r1, #4
 391 000c 0200A0E3 		mov	r0, #2
 392              	.LVL23:
 393              		.loc 1 160 3 view .LVU134
 394 0010 FEFFFFEB 		bl	bcm2835_gpio_fnsel
 395              	.LVL24:
 396              		.loc 1 161 3 is_stmt 1 view .LVU135
 397 0014 0410A0E3 		mov	r1, #4
 398 0018 0300A0E3 		mov	r0, #3
 399 001c FEFFFFEB 		bl	bcm2835_gpio_fnsel
ARM GAS  /tmp/ccJAVx7t.s 			page 8


 400              	.LVL25:
 401              		.loc 1 163 3 view .LVU136
 402              		.loc 1 163 12 is_stmt 0 view .LVU137
 403 0020 042094E5 		ldr	r2, [r4, #4]
 404              		.loc 1 164 27 view .LVU138
 405 0024 34309FE5 		ldr	r3, .L57
 406              		.loc 1 163 12 view .LVU139
 407 0028 001092E5 		ldr	r1, [r2]
 408              	.LVL26:
 409              		.loc 1 164 3 is_stmt 1 view .LVU140
 410              		.loc 1 164 6 is_stmt 0 view .LVU141
 411 002c 000051E3 		cmp	r1, #0
 412 0030 03005111 		cmpne	r1, r3
 413 0034 0400001A 		bne	.L54
 414 0038 0C2094E5 		ldr	r2, [r4, #12]
 415              	.LVL27:
 416              	.L55:
 417              		.loc 1 167 3 is_stmt 1 view .LVU142
 418              		.loc 1 167 25 is_stmt 0 view .LVU143
 419 003c 003092E5 		ldr	r3, [r2]
 420 0040 023983E3 		orr	r3, r3, #32768
 421 0044 003082E5 		str	r3, [r2]
 422              		.loc 1 168 1 view .LVU144
 423 0048 1080BDE8 		pop	{r4, pc}
 424              	.LVL28:
 425              	.L54:
 426              		.loc 1 165 5 is_stmt 1 view .LVU145
 427              		.loc 1 165 49 is_stmt 0 view .LVU146
 428 004c 10009FE5 		ldr	r0, .L57+4
 429 0050 FEFFFFEB 		bl	__aeabi_uidiv
 430              	.LVL29:
 431              		.loc 1 165 9 view .LVU147
 432 0054 0C2094E5 		ldr	r2, [r4, #12]
 433              		.loc 1 165 32 view .LVU148
 434 0058 140082E5 		str	r0, [r2, #20]
 435 005c F6FFFFEA 		b	.L55
 436              	.L58:
 437              		.align	2
 438              	.L57:
 439 0060 A0860100 		.word	100000
 440 0064 80D1F008 		.word	150000000
 441              		.cfi_endproc
 442              	.LFE10:
 443              		.size	i2c_lld_start, .-i2c_lld_start
 444              		.section	.text.i2c_lld_stop,"ax",%progbits
 445              		.align	2
 446              		.global	i2c_lld_stop
 447              		.syntax unified
 448              		.arm
 449              		.fpu softvfp
 450              		.type	i2c_lld_stop, %function
 451              	i2c_lld_stop:
 452              	.LVL30:
 453              	.LFB11:
 454              		.loc 1 177 36 is_stmt 1 view -0
 455              		.cfi_startproc
 456              		@ args = 0, pretend = 0, frame = 0
ARM GAS  /tmp/ccJAVx7t.s 			page 9


 457              		@ frame_needed = 0, uses_anonymous_args = 0
 458              		.loc 1 183 3 view .LVU150
 459              		.loc 1 177 36 is_stmt 0 view .LVU151
 460 0000 10402DE9 		push	{r4, lr}
 461              		.cfi_def_cfa_offset 8
 462              		.cfi_offset 4, -8
 463              		.cfi_offset 14, -4
 464              		.loc 1 177 36 view .LVU152
 465 0004 0040A0E1 		mov	r4, r0
 466              		.loc 1 183 3 view .LVU153
 467 0008 0010A0E3 		mov	r1, #0
 468 000c 0200A0E3 		mov	r0, #2
 469              	.LVL31:
 470              		.loc 1 183 3 view .LVU154
 471 0010 FEFFFFEB 		bl	bcm2835_gpio_fnsel
 472              	.LVL32:
 473              		.loc 1 184 3 is_stmt 1 view .LVU155
 474 0014 0010A0E3 		mov	r1, #0
 475 0018 0300A0E3 		mov	r0, #3
 476 001c FEFFFFEB 		bl	bcm2835_gpio_fnsel
 477              	.LVL33:
 478              		.loc 1 186 3 view .LVU156
 479              		.loc 1 186 7 is_stmt 0 view .LVU157
 480 0020 0C2094E5 		ldr	r2, [r4, #12]
 481              		.loc 1 186 25 view .LVU158
 482 0024 003092E5 		ldr	r3, [r2]
 483 0028 0239C3E3 		bic	r3, r3, #32768
 484 002c 003082E5 		str	r3, [r2]
 485              		.loc 1 187 1 view .LVU159
 486 0030 1080BDE8 		pop	{r4, pc}
 487              		.cfi_endproc
 488              	.LFE11:
 489              		.size	i2c_lld_stop, .-i2c_lld_stop
 490              		.section	.text.i2c_lld_master_receive_timeout,"ax",%progbits
 491              		.align	2
 492              		.global	i2c_lld_master_receive_timeout
 493              		.syntax unified
 494              		.arm
 495              		.fpu softvfp
 496              		.type	i2c_lld_master_receive_timeout, %function
 497              	i2c_lld_master_receive_timeout:
 498              	.LVL34:
 499              	.LFB13:
 500              		.loc 1 271 29 is_stmt 1 view -0
 501              		.cfi_startproc
 502              		@ args = 4, pretend = 0, frame = 24
 503              		@ frame_needed = 0, uses_anonymous_args = 0
 504              		.loc 1 272 3 view .LVU161
 505              		.loc 1 275 3 view .LVU162
 506              		.loc 1 271 29 is_stmt 0 view .LVU163
 507 0000 F0412DE9 		push	{r4, r5, r6, r7, r8, lr}
 508              		.cfi_def_cfa_offset 24
 509              		.cfi_offset 4, -24
 510              		.cfi_offset 5, -20
 511              		.cfi_offset 6, -16
 512              		.cfi_offset 7, -12
 513              		.cfi_offset 8, -8
ARM GAS  /tmp/ccJAVx7t.s 			page 10


 514              		.cfi_offset 14, -4
 515 0004 18D04DE2 		sub	sp, sp, #24
 516              		.cfi_def_cfa_offset 48
 517              		.loc 1 271 29 view .LVU164
 518 0008 30809DE5 		ldr	r8, [sp, #48]
 519 000c 0040A0E1 		mov	r4, r0
 520              		.loc 1 275 6 view .LVU165
 521 0010 010078E3 		cmn	r8, #1
 522              		.loc 1 271 29 view .LVU166
 523 0014 0160A0E1 		mov	r6, r1
 524 0018 0270A0E1 		mov	r7, r2
 525 001c 0350A0E1 		mov	r5, r3
 526              		.loc 1 275 6 view .LVU167
 527 0020 0400000A 		beq	.L62
 528              		.loc 1 276 5 is_stmt 1 view .LVU168
 529 0024 0030A0E1 		mov	r3, r0
 530              	.LVL35:
 531              		.loc 1 276 5 is_stmt 0 view .LVU169
 532 0028 0810A0E1 		mov	r1, r8
 533              	.LVL36:
 534              		.loc 1 276 5 view .LVU170
 535 002c 88209FE5 		ldr	r2, .L74
 536              	.LVL37:
 537              		.loc 1 276 5 view .LVU171
 538 0030 04008DE2 		add	r0, sp, #4
 539              	.LVL38:
 540              		.loc 1 276 5 view .LVU172
 541 0034 FEFFFFEB 		bl	chVTSetI
 542              	.LVL39:
 543              	.L62:
 544              		.loc 1 278 3 is_stmt 1 view .LVU173
 545              		.loc 1 279 15 is_stmt 0 view .LVU174
 546 0038 0030A0E3 		mov	r3, #0
 547              		.loc 1 287 16 view .LVU175
 548 003c 0C2094E5 		ldr	r2, [r4, #12]
 549              		.loc 1 279 15 view .LVU176
 550 0040 283084E5 		str	r3, [r4, #40]
 551              		.loc 1 280 17 view .LVU177
 552 0044 2C3084E5 		str	r3, [r4, #44]
 553              		.loc 1 281 15 view .LVU178
 554 0048 303084E5 		str	r3, [r4, #48]
 555              		.loc 1 284 15 view .LVU179
 556 004c 3C3084E5 		str	r3, [r4, #60]
 557              		.loc 1 290 18 view .LVU180
 558 0050 68109FE5 		ldr	r1, .L74+4
 559              		.loc 1 293 19 view .LVU181
 560 0054 68309FE5 		ldr	r3, .L74+8
 561              		.loc 1 278 14 view .LVU182
 562 0058 B462C4E1 		strh	r6, [r4, #36]	@ movhi
 563              		.loc 1 279 3 is_stmt 1 view .LVU183
 564              		.loc 1 280 3 view .LVU184
 565              		.loc 1 281 3 view .LVU185
 566              		.loc 1 282 3 view .LVU186
 567              		.loc 1 283 3 view .LVU187
 568              		.loc 1 284 3 view .LVU188
 569              		.loc 1 287 3 view .LVU189
 570              	.LVL40:
ARM GAS  /tmp/ccJAVx7t.s 			page 11


 571              		.loc 1 288 3 view .LVU190
 572              		.loc 1 282 15 is_stmt 0 view .LVU191
 573 005c 347084E5 		str	r7, [r4, #52]
 574              		.loc 1 283 17 view .LVU192
 575 0060 385084E5 		str	r5, [r4, #56]
 576              		.loc 1 288 24 view .LVU193
 577 0064 0C6082E5 		str	r6, [r2, #12]
 578              		.loc 1 289 3 is_stmt 1 view .LVU194
 579              		.loc 1 289 22 is_stmt 0 view .LVU195
 580 0068 085082E5 		str	r5, [r2, #8]
 581              		.loc 1 290 3 is_stmt 1 view .LVU196
 582              		.loc 1 290 18 is_stmt 0 view .LVU197
 583 006c 041082E5 		str	r1, [r2, #4]
 584              		.loc 1 293 3 is_stmt 1 view .LVU198
 585              		.loc 1 293 19 is_stmt 0 view .LVU199
 586 0070 003082E5 		str	r3, [r2]
 587              		.loc 1 296 3 is_stmt 1 view .LVU200
 588              		.syntax divided
 589              	@ 296 "../os/hal/platforms/BCM2835/i2c_lld.c" 1
 590 0074 9FF021E3 		msr     CPSR_c, #0x9F
 591              	@ 0 "" 2
 592              		.loc 1 296 3 view .LVU201
 593              		.loc 1 296 14 view .LVU202
 594              		.loc 1 297 3 view .LVU203
 595              		.loc 1 297 18 is_stmt 0 view .LVU204
 596              		.arm
 597              		.syntax unified
 598 0078 48509FE5 		ldr	r5, .L74+12
 599              	.LVL41:
 600              		.loc 1 298 3 view .LVU205
 601 007c 0200A0E3 		mov	r0, #2
 602              		.loc 1 297 16 view .LVU206
 603 0080 183095E5 		ldr	r3, [r5, #24]
 604 0084 203084E5 		str	r3, [r4, #32]
 605              		.loc 1 298 3 is_stmt 1 view .LVU207
 606 0088 FEFFFFEB 		bl	chSchGoSleepS
 607              	.LVL42:
 608              		.loc 1 299 3 view .LVU208
 609              		.loc 1 299 6 is_stmt 0 view .LVU209
 610 008c 010078E3 		cmn	r8, #1
 611 0090 0400000A 		beq	.L63
 612              		.loc 1 299 34 discriminator 1 view .LVU210
 613 0094 10309DE5 		ldr	r3, [sp, #16]
 614 0098 000053E3 		cmp	r3, #0
 615 009c 0100000A 		beq	.L63
 616              		.loc 1 300 5 is_stmt 1 view .LVU211
 617 00a0 04008DE2 		add	r0, sp, #4
 618 00a4 FEFFFFEB 		bl	chVTResetI
 619              	.LVL43:
 620              	.L63:
 621              		.loc 1 301 3 view .LVU212
 622              		.loc 1 301 3 view .LVU213
 623              		.syntax divided
 624              	@ 301 "../os/hal/platforms/BCM2835/i2c_lld.c" 1
 625 00a8 1FF021E3 		msr     CPSR_c, #0x1F
 626              	@ 0 "" 2
 627              		.loc 1 301 16 view .LVU214
ARM GAS  /tmp/ccJAVx7t.s 			page 12


 628              		.loc 1 303 3 view .LVU215
 629              		.loc 1 303 26 is_stmt 0 view .LVU216
 630              		.arm
 631              		.syntax unified
 632 00ac 183095E5 		ldr	r3, [r5, #24]
 633              		.loc 1 304 1 view .LVU217
 634 00b0 240093E5 		ldr	r0, [r3, #36]
 635 00b4 18D08DE2 		add	sp, sp, #24
 636              		.cfi_def_cfa_offset 24
 637              		@ sp needed
 638 00b8 F081BDE8 		pop	{r4, r5, r6, r7, r8, pc}
 639              	.LVL44:
 640              	.L75:
 641              		.loc 1 304 1 view .LVU218
 642              		.align	2
 643              	.L74:
 644 00bc 00000000 		.word	i2c_lld_safety_timeout
 645 00c0 02030000 		.word	770
 646 00c4 91850000 		.word	34193
 647 00c8 00000000 		.word	rlist
 648              		.cfi_endproc
 649              	.LFE13:
 650              		.size	i2c_lld_master_receive_timeout, .-i2c_lld_master_receive_timeout
 651              		.section	.text.i2c_lld_master_transmit_timeout,"ax",%progbits
 652              		.align	2
 653              		.global	i2c_lld_master_transmit_timeout
 654              		.syntax unified
 655              		.arm
 656              		.fpu softvfp
 657              		.type	i2c_lld_master_transmit_timeout, %function
 658              	i2c_lld_master_transmit_timeout:
 659              	.LVL45:
 660              	.LFB12:
 661              		.loc 1 208 59 is_stmt 1 view -0
 662              		.cfi_startproc
 663              		@ args = 12, pretend = 0, frame = 24
 664              		@ frame_needed = 0, uses_anonymous_args = 0
 665              		.loc 1 209 3 view .LVU220
 666              		.loc 1 212 3 view .LVU221
 667              		.loc 1 208 59 is_stmt 0 view .LVU222
 668 0000 F0472DE9 		push	{r4, r5, r6, r7, r8, r9, r10, lr}
 669              		.cfi_def_cfa_offset 32
 670              		.cfi_offset 4, -32
 671              		.cfi_offset 5, -28
 672              		.cfi_offset 6, -24
 673              		.cfi_offset 7, -20
 674              		.cfi_offset 8, -16
 675              		.cfi_offset 9, -12
 676              		.cfi_offset 10, -8
 677              		.cfi_offset 14, -4
 678 0004 20D04DE2 		sub	sp, sp, #32
 679              		.cfi_def_cfa_offset 64
 680              		.loc 1 208 59 view .LVU223
 681 0008 48609DE5 		ldr	r6, [sp, #72]
 682 000c 0040A0E1 		mov	r4, r0
 683              		.loc 1 212 6 view .LVU224
 684 0010 010076E3 		cmn	r6, #1
ARM GAS  /tmp/ccJAVx7t.s 			page 13


 685              		.loc 1 208 59 view .LVU225
 686 0014 0150A0E1 		mov	r5, r1
 687 0018 02A0A0E1 		mov	r10, r2
 688 001c 0390A0E1 		mov	r9, r3
 689 0020 40809DE5 		ldr	r8, [sp, #64]
 690 0024 4470DDE5 		ldrb	r7, [sp, #68]	@ zero_extendqisi2
 691              		.loc 1 212 6 view .LVU226
 692 0028 0400000A 		beq	.L77
 693              		.loc 1 213 5 is_stmt 1 view .LVU227
 694 002c 0030A0E1 		mov	r3, r0
 695              	.LVL46:
 696              		.loc 1 213 5 is_stmt 0 view .LVU228
 697 0030 0610A0E1 		mov	r1, r6
 698              	.LVL47:
 699              		.loc 1 213 5 view .LVU229
 700 0034 F4209FE5 		ldr	r2, .L100
 701              	.LVL48:
 702              		.loc 1 213 5 view .LVU230
 703 0038 0C008DE2 		add	r0, sp, #12
 704              	.LVL49:
 705              		.loc 1 213 5 view .LVU231
 706 003c FEFFFFEB 		bl	chVTSetI
 707              	.LVL50:
 708              	.L77:
 709              		.loc 1 215 3 is_stmt 1 view .LVU232
 710              		.loc 1 218 15 is_stmt 0 view .LVU233
 711 0040 0030A0E3 		mov	r3, #0
 712              		.loc 1 223 16 view .LVU234
 713 0044 0C2094E5 		ldr	r2, [r4, #12]
 714              		.loc 1 226 18 view .LVU235
 715 0048 E4109FE5 		ldr	r1, .L100+4
 716              		.loc 1 218 15 view .LVU236
 717 004c 303084E5 		str	r3, [r4, #48]
 718              		.loc 1 221 15 view .LVU237
 719 0050 3C3084E5 		str	r3, [r4, #60]
 720              		.loc 1 215 14 view .LVU238
 721 0054 B452C4E1 		strh	r5, [r4, #36]	@ movhi
 722              		.loc 1 216 3 is_stmt 1 view .LVU239
 723              		.loc 1 216 15 is_stmt 0 view .LVU240
 724 0058 28A084E5 		str	r10, [r4, #40]
 725              		.loc 1 217 3 is_stmt 1 view .LVU241
 726              		.loc 1 217 17 is_stmt 0 view .LVU242
 727 005c 2C9084E5 		str	r9, [r4, #44]
 728              		.loc 1 218 3 is_stmt 1 view .LVU243
 729              		.loc 1 219 3 view .LVU244
 730              		.loc 1 220 3 view .LVU245
 731              		.loc 1 221 3 view .LVU246
 732              		.loc 1 223 3 view .LVU247
 733              	.LVL51:
 734              		.loc 1 224 3 view .LVU248
 735              		.loc 1 219 15 is_stmt 0 view .LVU249
 736 0060 348084E5 		str	r8, [r4, #52]
 737              		.loc 1 220 17 view .LVU250
 738 0064 387084E5 		str	r7, [r4, #56]
 739              		.loc 1 224 24 view .LVU251
 740 0068 0C5082E5 		str	r5, [r2, #12]
 741              		.loc 1 225 3 is_stmt 1 view .LVU252
ARM GAS  /tmp/ccJAVx7t.s 			page 14


 742              		.loc 1 225 22 is_stmt 0 view .LVU253
 743 006c 089082E5 		str	r9, [r2, #8]
 744              		.loc 1 226 3 is_stmt 1 view .LVU254
 745              		.loc 1 226 18 is_stmt 0 view .LVU255
 746 0070 041082E5 		str	r1, [r2, #4]
 747              		.loc 1 229 3 is_stmt 1 view .LVU256
 748              		.loc 1 229 19 is_stmt 0 view .LVU257
 749 0074 003092E5 		ldr	r3, [r2]
 750 0078 833C83E3 		orr	r3, r3, #33536
 751 007c 803083E3 		orr	r3, r3, #128
 752 0080 003082E5 		str	r3, [r2]
 753              		.loc 1 232 3 is_stmt 1 view .LVU258
 754              		.syntax divided
 755              	@ 232 "../os/hal/platforms/BCM2835/i2c_lld.c" 1
 756 0084 9FF021E3 		msr     CPSR_c, #0x9F
 757              	@ 0 "" 2
 758              		.loc 1 232 3 view .LVU259
 759              		.loc 1 232 14 view .LVU260
 760              		.loc 1 234 3 view .LVU261
 761              		.loc 1 234 18 is_stmt 0 view .LVU262
 762              		.arm
 763              		.syntax unified
 764 0088 A8909FE5 		ldr	r9, .L100+8
 765              	.LVL52:
 766              		.loc 1 235 3 view .LVU263
 767 008c 0200A0E3 		mov	r0, #2
 768              		.loc 1 234 16 view .LVU264
 769 0090 183099E5 		ldr	r3, [r9, #24]
 770 0094 203084E5 		str	r3, [r4, #32]
 771              		.loc 1 235 3 is_stmt 1 view .LVU265
 772 0098 FEFFFFEB 		bl	chSchGoSleepS
 773              	.LVL53:
 774              		.loc 1 236 3 view .LVU266
 775              		.loc 1 236 6 is_stmt 0 view .LVU267
 776 009c 010076E3 		cmn	r6, #1
 777 00a0 0400000A 		beq	.L78
 778              		.loc 1 236 34 discriminator 1 view .LVU268
 779 00a4 18309DE5 		ldr	r3, [sp, #24]
 780 00a8 000053E3 		cmp	r3, #0
 781 00ac 0100000A 		beq	.L78
 782              		.loc 1 237 5 is_stmt 1 view .LVU269
 783 00b0 0C008DE2 		add	r0, sp, #12
 784 00b4 FEFFFFEB 		bl	chVTResetI
 785              	.LVL54:
 786              	.L78:
 787              		.loc 1 239 3 view .LVU270
 788              		.loc 1 239 3 view .LVU271
 789              		.syntax divided
 790              	@ 239 "../os/hal/platforms/BCM2835/i2c_lld.c" 1
 791 00b8 1FF021E3 		msr     CPSR_c, #0x1F
 792              	@ 0 "" 2
 793              		.loc 1 239 16 view .LVU272
 794              		.loc 1 241 3 view .LVU273
 795              		.loc 1 241 9 is_stmt 0 view .LVU274
 796              		.arm
 797              		.syntax unified
 798 00bc 182099E5 		ldr	r2, [r9, #24]
ARM GAS  /tmp/ccJAVx7t.s 			page 15


 799              		.loc 1 243 35 view .LVU275
 800 00c0 003057E2 		subs	r3, r7, #0
 801              		.loc 1 241 9 view .LVU276
 802 00c4 249092E5 		ldr	r9, [r2, #36]
 803              	.LVL55:
 804              		.loc 1 243 3 is_stmt 1 view .LVU277
 805              		.loc 1 243 35 is_stmt 0 view .LVU278
 806 00c8 0130A013 		movne	r3, #1
 807              		.loc 1 243 6 view .LVU279
 808 00cc 000059E3 		cmp	r9, #0
 809 00d0 0030A013 		movne	r3, #0
 810 00d4 000053E3 		cmp	r3, #0
 811 00d8 0200001A 		bne	.L99
 812              	.L76:
 813              		.loc 1 252 1 view .LVU280
 814 00dc 0900A0E1 		mov	r0, r9
 815 00e0 20D08DE2 		add	sp, sp, #32
 816              		.cfi_remember_state
 817              		.cfi_def_cfa_offset 32
 818              		@ sp needed
 819 00e4 F087BDE8 		pop	{r4, r5, r6, r7, r8, r9, r10, pc}
 820              	.LVL56:
 821              	.L99:
 822              		.cfi_restore_state
 823              		.loc 1 245 5 is_stmt 1 view .LVU281
 824              		.loc 1 245 14 is_stmt 0 view .LVU282
 825 00e8 00C0E0E3 		mvn	ip, #0
 826 00ec 0730A0E1 		mov	r3, r7
 827 00f0 0820A0E1 		mov	r2, r8
 828 00f4 0510A0E1 		mov	r1, r5
 829 00f8 0400A0E1 		mov	r0, r4
 830 00fc 00C08DE5 		str	ip, [sp]
 831 0100 FEFFFFEB 		bl	i2c_lld_master_receive_timeout
 832              	.LVL57:
 833              		.loc 1 247 8 view .LVU283
 834 0104 010076E3 		cmn	r6, #1
 835              		.loc 1 245 14 view .LVU284
 836 0108 0090A0E1 		mov	r9, r0
 837              	.LVL58:
 838              		.loc 1 247 5 is_stmt 1 view .LVU285
 839              		.loc 1 247 8 is_stmt 0 view .LVU286
 840 010c F2FFFF0A 		beq	.L76
 841              		.loc 1 247 36 discriminator 1 view .LVU287
 842 0110 18309DE5 		ldr	r3, [sp, #24]
 843 0114 000053E3 		cmp	r3, #0
 844 0118 EFFFFF0A 		beq	.L76
 845              		.loc 1 248 7 is_stmt 1 view .LVU288
 846 011c 0C008DE2 		add	r0, sp, #12
 847              	.LVL59:
 848              		.loc 1 248 7 is_stmt 0 view .LVU289
 849 0120 FEFFFFEB 		bl	chVTResetI
 850              	.LVL60:
 851              		.loc 1 251 3 is_stmt 1 view .LVU290
 852              		.loc 1 252 1 is_stmt 0 view .LVU291
 853 0124 0900A0E1 		mov	r0, r9
 854 0128 20D08DE2 		add	sp, sp, #32
 855              		.cfi_def_cfa_offset 32
ARM GAS  /tmp/ccJAVx7t.s 			page 16


 856              		@ sp needed
 857 012c F087BDE8 		pop	{r4, r5, r6, r7, r8, r9, r10, pc}
 858              	.LVL61:
 859              	.L101:
 860              		.loc 1 252 1 view .LVU292
 861              		.align	2
 862              	.L100:
 863 0130 00000000 		.word	i2c_lld_safety_timeout
 864 0134 02030000 		.word	770
 865 0138 00000000 		.word	rlist
 866              		.cfi_endproc
 867              	.LFE12:
 868              		.size	i2c_lld_master_transmit_timeout, .-i2c_lld_master_transmit_timeout
 869              		.comm	I2C1,64,4
 870              		.comm	I2C0,64,4
 871              		.text
 872              	.Letext0:
 873              		.file 2 "/usr/lib/gcc/arm-none-eabi/9.2.1/include/stddef.h"
 874              		.file 3 "/usr/lib/gcc/arm-none-eabi/9.2.1/include/stdint.h"
 875              		.file 4 "../os/ports/GCC/ARM/chtypes.h"
 876              		.file 5 "../os/kernel/include/chlists.h"
 877              		.file 6 "../os/kernel/include/chthreads.h"
 878              		.file 7 "../os/ports/GCC/ARM/chcore.h"
 879              		.file 8 "../os/kernel/include/chvt.h"
 880              		.file 9 "../os/kernel/include/chschd.h"
 881              		.file 10 "../os/kernel/include/chmtx.h"
 882              		.file 11 "../os/kernel/include/chevents.h"
 883              		.file 12 "../os/kernel/include/chregistry.h"
 884              		.file 13 "../os/kernel/include/chqueues.h"
 885              		.file 14 "../os/kernel/include/ch.h"
 886              		.file 15 "../os/hal/platforms/BCM2835/bcm2835.h"
 887              		.file 16 "../os/hal/platforms/BCM2835/pal_lld.h"
 888              		.file 17 "../os/hal/include/i2c.h"
 889              		.file 18 "../os/hal/platforms/BCM2835/i2c_lld.h"
 890              		.file 19 "../os/hal/include/serial.h"
 891              		.file 20 "../os/hal/include/spi.h"
 892              		.file 21 "../os/hal/platforms/BCM2835/spi_lld.h"
 893              		.file 22 "../os/hal/platforms/BCM2835/serial_lld.h"
 894              		.section	.debug_info,"",%progbits
 895              	.Ldebug_info0:
 896 0000 87120000 		.4byte	0x1287
 897 0004 0400     		.2byte	0x4
 898 0006 00000000 		.4byte	.Ldebug_abbrev0
 899 000a 04       		.byte	0x4
 900 000b 01       		.uleb128 0x1
 901 000c 1E000000 		.4byte	.LASF212
 902 0010 0C       		.byte	0xc
 903 0011 23060000 		.4byte	.LASF213
 904 0015 EE010000 		.4byte	.LASF214
 905 0019 38000000 		.4byte	.Ldebug_ranges0+0x38
 906 001d 00000000 		.4byte	0
 907 0021 00000000 		.4byte	.Ldebug_line0
 908 0025 02       		.uleb128 0x2
 909 0026 04       		.byte	0x4
 910 0027 05       		.byte	0x5
 911 0028 696E7400 		.ascii	"int\000"
 912 002c 03       		.uleb128 0x3
ARM GAS  /tmp/ccJAVx7t.s 			page 17


 913 002d B8030000 		.4byte	.LASF3
 914 0031 02       		.byte	0x2
 915 0032 D1       		.byte	0xd1
 916 0033 17       		.byte	0x17
 917 0034 38000000 		.4byte	0x38
 918 0038 04       		.uleb128 0x4
 919 0039 04       		.byte	0x4
 920 003a 07       		.byte	0x7
 921 003b E3030000 		.4byte	.LASF0
 922 003f 05       		.uleb128 0x5
 923 0040 38000000 		.4byte	0x38
 924 0044 04       		.uleb128 0x4
 925 0045 01       		.byte	0x1
 926 0046 06       		.byte	0x6
 927 0047 B4010000 		.4byte	.LASF1
 928 004b 04       		.uleb128 0x4
 929 004c 02       		.byte	0x2
 930 004d 05       		.byte	0x5
 931 004e C9060000 		.4byte	.LASF2
 932 0052 03       		.uleb128 0x3
 933 0053 94060000 		.4byte	.LASF4
 934 0057 03       		.byte	0x3
 935 0058 28       		.byte	0x28
 936 0059 18       		.byte	0x18
 937 005a 5E000000 		.4byte	0x5e
 938 005e 04       		.uleb128 0x4
 939 005f 04       		.byte	0x4
 940 0060 05       		.byte	0x5
 941 0061 CA020000 		.4byte	.LASF5
 942 0065 04       		.uleb128 0x4
 943 0066 08       		.byte	0x8
 944 0067 05       		.byte	0x5
 945 0068 A6010000 		.4byte	.LASF6
 946 006c 03       		.uleb128 0x3
 947 006d 08090000 		.4byte	.LASF7
 948 0071 03       		.byte	0x3
 949 0072 2E       		.byte	0x2e
 950 0073 18       		.byte	0x18
 951 0074 7D000000 		.4byte	0x7d
 952 0078 06       		.uleb128 0x6
 953 0079 6C000000 		.4byte	0x6c
 954 007d 04       		.uleb128 0x4
 955 007e 01       		.byte	0x1
 956 007f 08       		.byte	0x8
 957 0080 9C060000 		.4byte	.LASF8
 958 0084 03       		.uleb128 0x3
 959 0085 07030000 		.4byte	.LASF9
 960 0089 03       		.byte	0x3
 961 008a 31       		.byte	0x31
 962 008b 19       		.byte	0x19
 963 008c 90000000 		.4byte	0x90
 964 0090 04       		.uleb128 0x4
 965 0091 02       		.byte	0x2
 966 0092 07       		.byte	0x7
 967 0093 75040000 		.4byte	.LASF10
 968 0097 03       		.uleb128 0x3
 969 0098 7E070000 		.4byte	.LASF11
ARM GAS  /tmp/ccJAVx7t.s 			page 18


 970 009c 03       		.byte	0x3
 971 009d 34       		.byte	0x34
 972 009e 19       		.byte	0x19
 973 009f A8000000 		.4byte	0xa8
 974 00a3 05       		.uleb128 0x5
 975 00a4 97000000 		.4byte	0x97
 976 00a8 04       		.uleb128 0x4
 977 00a9 04       		.byte	0x4
 978 00aa 07       		.byte	0x7
 979 00ab 1C040000 		.4byte	.LASF12
 980 00af 04       		.uleb128 0x4
 981 00b0 08       		.byte	0x8
 982 00b1 07       		.byte	0x7
 983 00b2 35010000 		.4byte	.LASF13
 984 00b6 03       		.uleb128 0x3
 985 00b7 B6040000 		.4byte	.LASF14
 986 00bb 04       		.byte	0x4
 987 00bc 2A       		.byte	0x2a
 988 00bd 19       		.byte	0x19
 989 00be 6C000000 		.4byte	0x6c
 990 00c2 03       		.uleb128 0x3
 991 00c3 DE020000 		.4byte	.LASF15
 992 00c7 04       		.byte	0x4
 993 00c8 2B       		.byte	0x2b
 994 00c9 19       		.byte	0x19
 995 00ca 6C000000 		.4byte	0x6c
 996 00ce 03       		.uleb128 0x3
 997 00cf 1B060000 		.4byte	.LASF16
 998 00d3 04       		.byte	0x4
 999 00d4 2C       		.byte	0x2c
 1000 00d5 19       		.byte	0x19
 1001 00d6 6C000000 		.4byte	0x6c
 1002 00da 03       		.uleb128 0x3
 1003 00db A5020000 		.4byte	.LASF17
 1004 00df 04       		.byte	0x4
 1005 00e0 2D       		.byte	0x2d
 1006 00e1 19       		.byte	0x19
 1007 00e2 6C000000 		.4byte	0x6c
 1008 00e6 03       		.uleb128 0x3
 1009 00e7 65060000 		.4byte	.LASF18
 1010 00eb 04       		.byte	0x4
 1011 00ec 2E       		.byte	0x2e
 1012 00ed 19       		.byte	0x19
 1013 00ee 97000000 		.4byte	0x97
 1014 00f2 03       		.uleb128 0x3
 1015 00f3 9A040000 		.4byte	.LASF19
 1016 00f7 04       		.byte	0x4
 1017 00f8 2F       		.byte	0x2f
 1018 00f9 19       		.byte	0x19
 1019 00fa 52000000 		.4byte	0x52
 1020 00fe 03       		.uleb128 0x3
 1021 00ff CA040000 		.4byte	.LASF20
 1022 0103 04       		.byte	0x4
 1023 0104 31       		.byte	0x31
 1024 0105 19       		.byte	0x19
 1025 0106 97000000 		.4byte	0x97
 1026 010a 03       		.uleb128 0x3
ARM GAS  /tmp/ccJAVx7t.s 			page 19


 1027 010b A3080000 		.4byte	.LASF21
 1028 010f 04       		.byte	0x4
 1029 0110 32       		.byte	0x32
 1030 0111 19       		.byte	0x19
 1031 0112 97000000 		.4byte	0x97
 1032 0116 03       		.uleb128 0x3
 1033 0117 16080000 		.4byte	.LASF22
 1034 011b 04       		.byte	0x4
 1035 011c 33       		.byte	0x33
 1036 011d 19       		.byte	0x19
 1037 011e 97000000 		.4byte	0x97
 1038 0122 05       		.uleb128 0x5
 1039 0123 16010000 		.4byte	0x116
 1040 0127 03       		.uleb128 0x3
 1041 0128 2E070000 		.4byte	.LASF23
 1042 012c 05       		.byte	0x5
 1043 012d 23       		.byte	0x23
 1044 012e 17       		.byte	0x17
 1045 012f 33010000 		.4byte	0x133
 1046 0133 07       		.uleb128 0x7
 1047 0134 2E070000 		.4byte	.LASF23
 1048 0138 44       		.byte	0x44
 1049 0139 06       		.byte	0x6
 1050 013a 57       		.byte	0x57
 1051 013b 08       		.byte	0x8
 1052 013c 38020000 		.4byte	0x238
 1053 0140 08       		.uleb128 0x8
 1054 0141 08070000 		.4byte	.LASF24
 1055 0145 06       		.byte	0x6
 1056 0146 58       		.byte	0x58
 1057 0147 1A       		.byte	0x1a
 1058 0148 5C020000 		.4byte	0x25c
 1059 014c 00       		.byte	0
 1060 014d 08       		.uleb128 0x8
 1061 014e 5E060000 		.4byte	.LASF25
 1062 0152 06       		.byte	0x6
 1063 0153 5A       		.byte	0x5a
 1064 0154 1A       		.byte	0x1a
 1065 0155 5C020000 		.4byte	0x25c
 1066 0159 04       		.byte	0x4
 1067 015a 08       		.uleb128 0x8
 1068 015b 7B010000 		.4byte	.LASF26
 1069 015f 06       		.byte	0x6
 1070 0160 5C       		.byte	0x5c
 1071 0161 19       		.byte	0x19
 1072 0162 E6000000 		.4byte	0xe6
 1073 0166 08       		.byte	0x8
 1074 0167 08       		.uleb128 0x8
 1075 0168 98090000 		.4byte	.LASF27
 1076 016c 06       		.byte	0x6
 1077 016d 5D       		.byte	0x5d
 1078 016e 19       		.byte	0x19
 1079 016f 27030000 		.4byte	0x327
 1080 0173 0C       		.byte	0xc
 1081 0174 08       		.uleb128 0x8
 1082 0175 39030000 		.4byte	.LASF28
 1083 0179 06       		.byte	0x6
ARM GAS  /tmp/ccJAVx7t.s 			page 20


 1084 017a 5F       		.byte	0x5f
 1085 017b 1A       		.byte	0x1a
 1086 017c 5C020000 		.4byte	0x25c
 1087 0180 10       		.byte	0x10
 1088 0181 08       		.uleb128 0x8
 1089 0182 8B050000 		.4byte	.LASF29
 1090 0186 06       		.byte	0x6
 1091 0187 60       		.byte	0x60
 1092 0188 1A       		.byte	0x1a
 1093 0189 5C020000 		.4byte	0x25c
 1094 018d 14       		.byte	0x14
 1095 018e 08       		.uleb128 0x8
 1096 018f 2B090000 		.4byte	.LASF30
 1097 0193 06       		.byte	0x6
 1098 0194 67       		.byte	0x67
 1099 0195 1A       		.byte	0x1a
 1100 0196 88050000 		.4byte	0x588
 1101 019a 18       		.byte	0x18
 1102 019b 08       		.uleb128 0x8
 1103 019c D3060000 		.4byte	.LASF31
 1104 01a0 06       		.byte	0x6
 1105 01a1 72       		.byte	0x72
 1106 01a2 19       		.byte	0x19
 1107 01a3 C2000000 		.4byte	0xc2
 1108 01a7 1C       		.byte	0x1c
 1109 01a8 08       		.uleb128 0x8
 1110 01a9 26070000 		.4byte	.LASF32
 1111 01ad 06       		.byte	0x6
 1112 01ae 76       		.byte	0x76
 1113 01af 19       		.byte	0x19
 1114 01b0 B6000000 		.4byte	0xb6
 1115 01b4 1D       		.byte	0x1d
 1116 01b5 08       		.uleb128 0x8
 1117 01b6 E1080000 		.4byte	.LASF33
 1118 01ba 06       		.byte	0x6
 1119 01bb 7B       		.byte	0x7b
 1120 01bc 19       		.byte	0x19
 1121 01bd CE000000 		.4byte	0xce
 1122 01c1 1E       		.byte	0x1e
 1123 01c2 08       		.uleb128 0x8
 1124 01c3 DB060000 		.4byte	.LASF34
 1125 01c7 06       		.byte	0x6
 1126 01c8 81       		.byte	0x81
 1127 01c9 19       		.byte	0x19
 1128 01ca DA000000 		.4byte	0xda
 1129 01ce 1F       		.byte	0x1f
 1130 01cf 08       		.uleb128 0x8
 1131 01d0 48080000 		.4byte	.LASF35
 1132 01d4 06       		.byte	0x6
 1133 01d5 88       		.byte	0x88
 1134 01d6 19       		.byte	0x19
 1135 01d7 22010000 		.4byte	0x122
 1136 01db 20       		.byte	0x20
 1137 01dc 09       		.uleb128 0x9
 1138 01dd 705F7500 		.ascii	"p_u\000"
 1139 01e1 06       		.byte	0x6
 1140 01e2 AD       		.byte	0xad
ARM GAS  /tmp/ccJAVx7t.s 			page 21


 1141 01e3 19       		.byte	0x19
 1142 01e4 4E050000 		.4byte	0x54e
 1143 01e8 24       		.byte	0x24
 1144 01e9 08       		.uleb128 0x8
 1145 01ea 9E090000 		.4byte	.LASF36
 1146 01ee 06       		.byte	0x6
 1147 01ef B2       		.byte	0xb2
 1148 01f0 19       		.byte	0x19
 1149 01f1 85020000 		.4byte	0x285
 1150 01f5 28       		.byte	0x28
 1151 01f6 08       		.uleb128 0x8
 1152 01f7 73080000 		.4byte	.LASF37
 1153 01fb 06       		.byte	0x6
 1154 01fc B8       		.byte	0xb8
 1155 01fd 19       		.byte	0x19
 1156 01fe 62020000 		.4byte	0x262
 1157 0202 2C       		.byte	0x2c
 1158 0203 08       		.uleb128 0x8
 1159 0204 18000000 		.4byte	.LASF38
 1160 0208 06       		.byte	0x6
 1161 0209 BC       		.byte	0xbc
 1162 020a 19       		.byte	0x19
 1163 020b F2000000 		.4byte	0xf2
 1164 020f 34       		.byte	0x34
 1165 0210 08       		.uleb128 0x8
 1166 0211 69070000 		.4byte	.LASF39
 1167 0215 06       		.byte	0x6
 1168 0216 C2       		.byte	0xc2
 1169 0217 19       		.byte	0x19
 1170 0218 FE000000 		.4byte	0xfe
 1171 021c 38       		.byte	0x38
 1172 021d 08       		.uleb128 0x8
 1173 021e BF060000 		.4byte	.LASF40
 1174 0222 06       		.byte	0x6
 1175 0223 C9       		.byte	0xc9
 1176 0224 1A       		.byte	0x1a
 1177 0225 9A050000 		.4byte	0x59a
 1178 0229 3C       		.byte	0x3c
 1179 022a 08       		.uleb128 0x8
 1180 022b 20080000 		.4byte	.LASF41
 1181 022f 06       		.byte	0x6
 1182 0230 CD       		.byte	0xcd
 1183 0231 19       		.byte	0x19
 1184 0232 E6000000 		.4byte	0xe6
 1185 0236 40       		.byte	0x40
 1186 0237 00       		.byte	0
 1187 0238 0A       		.uleb128 0xa
 1188 0239 08       		.byte	0x8
 1189 023a 05       		.byte	0x5
 1190 023b 5A       		.byte	0x5a
 1191 023c 09       		.byte	0x9
 1192 023d 5C020000 		.4byte	0x25c
 1193 0241 08       		.uleb128 0x8
 1194 0242 08070000 		.4byte	.LASF24
 1195 0246 05       		.byte	0x5
 1196 0247 5B       		.byte	0x5b
 1197 0248 1A       		.byte	0x1a
ARM GAS  /tmp/ccJAVx7t.s 			page 22


 1198 0249 5C020000 		.4byte	0x25c
 1199 024d 00       		.byte	0
 1200 024e 08       		.uleb128 0x8
 1201 024f 5E060000 		.4byte	.LASF25
 1202 0253 05       		.byte	0x5
 1203 0254 5D       		.byte	0x5d
 1204 0255 1A       		.byte	0x1a
 1205 0256 5C020000 		.4byte	0x25c
 1206 025a 04       		.byte	0x4
 1207 025b 00       		.byte	0
 1208 025c 0B       		.uleb128 0xb
 1209 025d 04       		.byte	0x4
 1210 025e 27010000 		.4byte	0x127
 1211 0262 03       		.uleb128 0x3
 1212 0263 A9050000 		.4byte	.LASF42
 1213 0267 05       		.byte	0x5
 1214 0268 5F       		.byte	0x5f
 1215 0269 03       		.byte	0x3
 1216 026a 38020000 		.4byte	0x238
 1217 026e 0A       		.uleb128 0xa
 1218 026f 04       		.byte	0x4
 1219 0270 05       		.byte	0x5
 1220 0271 64       		.byte	0x64
 1221 0272 09       		.byte	0x9
 1222 0273 85020000 		.4byte	0x285
 1223 0277 08       		.uleb128 0x8
 1224 0278 08070000 		.4byte	.LASF24
 1225 027c 05       		.byte	0x5
 1226 027d 66       		.byte	0x66
 1227 027e 16       		.byte	0x16
 1228 027f 5C020000 		.4byte	0x25c
 1229 0283 00       		.byte	0
 1230 0284 00       		.byte	0
 1231 0285 03       		.uleb128 0x3
 1232 0286 BE040000 		.4byte	.LASF43
 1233 028a 05       		.byte	0x5
 1234 028b 69       		.byte	0x69
 1235 028c 03       		.byte	0x3
 1236 028d 6E020000 		.4byte	0x26e
 1237 0291 03       		.uleb128 0x3
 1238 0292 FA040000 		.4byte	.LASF44
 1239 0296 07       		.byte	0x7
 1240 0297 9D       		.byte	0x9d
 1241 0298 12       		.byte	0x12
 1242 0299 97000000 		.4byte	0x97
 1243 029d 03       		.uleb128 0x3
 1244 029e 9A030000 		.4byte	.LASF45
 1245 02a2 07       		.byte	0x7
 1246 02a3 A2       		.byte	0xa2
 1247 02a4 0F       		.byte	0xf
 1248 02a5 A9020000 		.4byte	0x2a9
 1249 02a9 0C       		.uleb128 0xc
 1250 02aa 04       		.byte	0x4
 1251 02ab 07       		.uleb128 0x7
 1252 02ac 6C080000 		.4byte	.LASF46
 1253 02b0 24       		.byte	0x24
 1254 02b1 07       		.byte	0x7
ARM GAS  /tmp/ccJAVx7t.s 			page 23


 1255 02b2 B9       		.byte	0xb9
 1256 02b3 08       		.byte	0x8
 1257 02b4 27030000 		.4byte	0x327
 1258 02b8 09       		.uleb128 0x9
 1259 02b9 723400   		.ascii	"r4\000"
 1260 02bc 07       		.byte	0x7
 1261 02bd BA       		.byte	0xba
 1262 02be 11       		.byte	0x11
 1263 02bf 9D020000 		.4byte	0x29d
 1264 02c3 00       		.byte	0
 1265 02c4 09       		.uleb128 0x9
 1266 02c5 723500   		.ascii	"r5\000"
 1267 02c8 07       		.byte	0x7
 1268 02c9 BB       		.byte	0xbb
 1269 02ca 11       		.byte	0x11
 1270 02cb 9D020000 		.4byte	0x29d
 1271 02cf 04       		.byte	0x4
 1272 02d0 09       		.uleb128 0x9
 1273 02d1 723600   		.ascii	"r6\000"
 1274 02d4 07       		.byte	0x7
 1275 02d5 BC       		.byte	0xbc
 1276 02d6 11       		.byte	0x11
 1277 02d7 9D020000 		.4byte	0x29d
 1278 02db 08       		.byte	0x8
 1279 02dc 09       		.uleb128 0x9
 1280 02dd 723700   		.ascii	"r7\000"
 1281 02e0 07       		.byte	0x7
 1282 02e1 BD       		.byte	0xbd
 1283 02e2 11       		.byte	0x11
 1284 02e3 9D020000 		.4byte	0x29d
 1285 02e7 0C       		.byte	0xc
 1286 02e8 09       		.uleb128 0x9
 1287 02e9 723800   		.ascii	"r8\000"
 1288 02ec 07       		.byte	0x7
 1289 02ed BE       		.byte	0xbe
 1290 02ee 11       		.byte	0x11
 1291 02ef 9D020000 		.4byte	0x29d
 1292 02f3 10       		.byte	0x10
 1293 02f4 09       		.uleb128 0x9
 1294 02f5 723900   		.ascii	"r9\000"
 1295 02f8 07       		.byte	0x7
 1296 02f9 BF       		.byte	0xbf
 1297 02fa 11       		.byte	0x11
 1298 02fb 9D020000 		.4byte	0x29d
 1299 02ff 14       		.byte	0x14
 1300 0300 09       		.uleb128 0x9
 1301 0301 72313000 		.ascii	"r10\000"
 1302 0305 07       		.byte	0x7
 1303 0306 C0       		.byte	0xc0
 1304 0307 11       		.byte	0x11
 1305 0308 9D020000 		.4byte	0x29d
 1306 030c 18       		.byte	0x18
 1307 030d 09       		.uleb128 0x9
 1308 030e 72313100 		.ascii	"r11\000"
 1309 0312 07       		.byte	0x7
 1310 0313 C1       		.byte	0xc1
 1311 0314 11       		.byte	0x11
ARM GAS  /tmp/ccJAVx7t.s 			page 24


 1312 0315 9D020000 		.4byte	0x29d
 1313 0319 1C       		.byte	0x1c
 1314 031a 09       		.uleb128 0x9
 1315 031b 6C7200   		.ascii	"lr\000"
 1316 031e 07       		.byte	0x7
 1317 031f C2       		.byte	0xc2
 1318 0320 11       		.byte	0x11
 1319 0321 9D020000 		.4byte	0x29d
 1320 0325 20       		.byte	0x20
 1321 0326 00       		.byte	0
 1322 0327 07       		.uleb128 0x7
 1323 0328 6D040000 		.4byte	.LASF47
 1324 032c 04       		.byte	0x4
 1325 032d 07       		.byte	0x7
 1326 032e CA       		.byte	0xca
 1327 032f 08       		.byte	0x8
 1328 0330 42030000 		.4byte	0x342
 1329 0334 09       		.uleb128 0x9
 1330 0335 72313300 		.ascii	"r13\000"
 1331 0339 07       		.byte	0x7
 1332 033a CB       		.byte	0xcb
 1333 033b 12       		.byte	0x12
 1334 033c 42030000 		.4byte	0x342
 1335 0340 00       		.byte	0
 1336 0341 00       		.byte	0
 1337 0342 0B       		.uleb128 0xb
 1338 0343 04       		.byte	0x4
 1339 0344 AB020000 		.4byte	0x2ab
 1340 0348 03       		.uleb128 0x3
 1341 0349 2B080000 		.4byte	.LASF48
 1342 034d 08       		.byte	0x8
 1343 034e 4E       		.byte	0x4e
 1344 034f 10       		.byte	0x10
 1345 0350 54030000 		.4byte	0x354
 1346 0354 0B       		.uleb128 0xb
 1347 0355 04       		.byte	0x4
 1348 0356 5A030000 		.4byte	0x35a
 1349 035a 0D       		.uleb128 0xd
 1350 035b 65030000 		.4byte	0x365
 1351 035f 0E       		.uleb128 0xe
 1352 0360 A9020000 		.4byte	0x2a9
 1353 0364 00       		.byte	0
 1354 0365 03       		.uleb128 0x3
 1355 0366 9B070000 		.4byte	.LASF49
 1356 036a 08       		.byte	0x8
 1357 036b 53       		.byte	0x53
 1358 036c 1D       		.byte	0x1d
 1359 036d 71030000 		.4byte	0x371
 1360 0371 07       		.uleb128 0x7
 1361 0372 9B070000 		.4byte	.LASF49
 1362 0376 14       		.byte	0x14
 1363 0377 08       		.byte	0x8
 1364 0378 5A       		.byte	0x5a
 1365 0379 08       		.byte	0x8
 1366 037a C0030000 		.4byte	0x3c0
 1367 037e 08       		.uleb128 0x8
 1368 037f F0030000 		.4byte	.LASF50
ARM GAS  /tmp/ccJAVx7t.s 			page 25


 1369 0383 08       		.byte	0x8
 1370 0384 5B       		.byte	0x5b
 1371 0385 1A       		.byte	0x1a
 1372 0386 C0030000 		.4byte	0x3c0
 1373 038a 00       		.byte	0
 1374 038b 08       		.uleb128 0x8
 1375 038c A3030000 		.4byte	.LASF51
 1376 0390 08       		.byte	0x8
 1377 0391 5D       		.byte	0x5d
 1378 0392 1A       		.byte	0x1a
 1379 0393 C0030000 		.4byte	0x3c0
 1380 0397 04       		.byte	0x4
 1381 0398 08       		.uleb128 0x8
 1382 0399 31050000 		.4byte	.LASF52
 1383 039d 08       		.byte	0x8
 1384 039e 5F       		.byte	0x5f
 1385 039f 19       		.byte	0x19
 1386 03a0 16010000 		.4byte	0x116
 1387 03a4 08       		.byte	0x8
 1388 03a5 08       		.uleb128 0x8
 1389 03a6 59050000 		.4byte	.LASF53
 1390 03aa 08       		.byte	0x8
 1391 03ab 60       		.byte	0x60
 1392 03ac 19       		.byte	0x19
 1393 03ad 48030000 		.4byte	0x348
 1394 03b1 0C       		.byte	0xc
 1395 03b2 08       		.uleb128 0x8
 1396 03b3 9C080000 		.4byte	.LASF54
 1397 03b7 08       		.byte	0x8
 1398 03b8 62       		.byte	0x62
 1399 03b9 1A       		.byte	0x1a
 1400 03ba A9020000 		.4byte	0x2a9
 1401 03be 10       		.byte	0x10
 1402 03bf 00       		.byte	0
 1403 03c0 0B       		.uleb128 0xb
 1404 03c1 04       		.byte	0x4
 1405 03c2 65030000 		.4byte	0x365
 1406 03c6 0A       		.uleb128 0xa
 1407 03c7 10       		.byte	0x10
 1408 03c8 08       		.byte	0x8
 1409 03c9 6C       		.byte	0x6c
 1410 03ca 09       		.byte	0x9
 1411 03cb 04040000 		.4byte	0x404
 1412 03cf 08       		.uleb128 0x8
 1413 03d0 F0030000 		.4byte	.LASF50
 1414 03d4 08       		.byte	0x8
 1415 03d5 6D       		.byte	0x6d
 1416 03d6 1A       		.byte	0x1a
 1417 03d7 C0030000 		.4byte	0x3c0
 1418 03db 00       		.byte	0
 1419 03dc 08       		.uleb128 0x8
 1420 03dd A3030000 		.4byte	.LASF51
 1421 03e1 08       		.byte	0x8
 1422 03e2 6F       		.byte	0x6f
 1423 03e3 1A       		.byte	0x1a
 1424 03e4 C0030000 		.4byte	0x3c0
 1425 03e8 04       		.byte	0x4
ARM GAS  /tmp/ccJAVx7t.s 			page 26


 1426 03e9 08       		.uleb128 0x8
 1427 03ea 31050000 		.4byte	.LASF52
 1428 03ee 08       		.byte	0x8
 1429 03ef 71       		.byte	0x71
 1430 03f0 19       		.byte	0x19
 1431 03f1 16010000 		.4byte	0x116
 1432 03f5 08       		.byte	0x8
 1433 03f6 08       		.uleb128 0x8
 1434 03f7 32090000 		.4byte	.LASF55
 1435 03fb 08       		.byte	0x8
 1436 03fc 72       		.byte	0x72
 1437 03fd 19       		.byte	0x19
 1438 03fe 22010000 		.4byte	0x122
 1439 0402 0C       		.byte	0xc
 1440 0403 00       		.byte	0
 1441 0404 03       		.uleb128 0x3
 1442 0405 65090000 		.4byte	.LASF56
 1443 0409 08       		.byte	0x8
 1444 040a 73       		.byte	0x73
 1445 040b 03       		.byte	0x3
 1446 040c C6030000 		.4byte	0x3c6
 1447 0410 0F       		.uleb128 0xf
 1448 0411 16010000 		.4byte	.LASF64
 1449 0415 08       		.byte	0x8
 1450 0416 D1       		.byte	0xd1
 1451 0417 0F       		.byte	0xf
 1452 0418 04040000 		.4byte	0x404
 1453 041c 0A       		.uleb128 0xa
 1454 041d 1C       		.byte	0x1c
 1455 041e 09       		.byte	0x9
 1456 041f 57       		.byte	0x57
 1457 0420 09       		.byte	0x9
 1458 0421 74040000 		.4byte	0x474
 1459 0425 08       		.uleb128 0x8
 1460 0426 93070000 		.4byte	.LASF57
 1461 042a 09       		.byte	0x9
 1462 042b 58       		.byte	0x58
 1463 042c 19       		.byte	0x19
 1464 042d 62020000 		.4byte	0x262
 1465 0431 00       		.byte	0
 1466 0432 08       		.uleb128 0x8
 1467 0433 F1060000 		.4byte	.LASF58
 1468 0437 09       		.byte	0x9
 1469 0438 59       		.byte	0x59
 1470 0439 19       		.byte	0x19
 1471 043a E6000000 		.4byte	0xe6
 1472 043e 08       		.byte	0x8
 1473 043f 08       		.uleb128 0x8
 1474 0440 A3050000 		.4byte	.LASF59
 1475 0444 09       		.byte	0x9
 1476 0445 5B       		.byte	0x5b
 1477 0446 19       		.byte	0x19
 1478 0447 27030000 		.4byte	0x327
 1479 044b 0C       		.byte	0xc
 1480 044c 08       		.uleb128 0x8
 1481 044d 92030000 		.4byte	.LASF60
 1482 0451 09       		.byte	0x9
ARM GAS  /tmp/ccJAVx7t.s 			page 27


 1483 0452 5E       		.byte	0x5e
 1484 0453 1A       		.byte	0x1a
 1485 0454 5C020000 		.4byte	0x25c
 1486 0458 10       		.byte	0x10
 1487 0459 08       		.uleb128 0x8
 1488 045a D0050000 		.4byte	.LASF61
 1489 045e 09       		.byte	0x9
 1490 045f 5F       		.byte	0x5f
 1491 0460 1A       		.byte	0x1a
 1492 0461 5C020000 		.4byte	0x25c
 1493 0465 14       		.byte	0x14
 1494 0466 08       		.uleb128 0x8
 1495 0467 C6050000 		.4byte	.LASF62
 1496 046b 09       		.byte	0x9
 1497 046c 62       		.byte	0x62
 1498 046d 1A       		.byte	0x1a
 1499 046e 5C020000 		.4byte	0x25c
 1500 0472 18       		.byte	0x18
 1501 0473 00       		.byte	0
 1502 0474 03       		.uleb128 0x3
 1503 0475 EF080000 		.4byte	.LASF63
 1504 0479 09       		.byte	0x9
 1505 047a 64       		.byte	0x64
 1506 047b 03       		.byte	0x3
 1507 047c 1C040000 		.4byte	0x41c
 1508 0480 0F       		.uleb128 0xf
 1509 0481 02090000 		.4byte	.LASF65
 1510 0485 09       		.byte	0x9
 1511 0486 68       		.byte	0x68
 1512 0487 12       		.byte	0x12
 1513 0488 74040000 		.4byte	0x474
 1514 048c 07       		.uleb128 0x7
 1515 048d E1040000 		.4byte	.LASF66
 1516 0491 10       		.byte	0x10
 1517 0492 0A       		.byte	0xa
 1518 0493 25       		.byte	0x25
 1519 0494 10       		.byte	0x10
 1520 0495 C1040000 		.4byte	0x4c1
 1521 0499 08       		.uleb128 0x8
 1522 049a 41020000 		.4byte	.LASF67
 1523 049e 0A       		.byte	0xa
 1524 049f 26       		.byte	0x26
 1525 04a0 19       		.byte	0x19
 1526 04a1 62020000 		.4byte	0x262
 1527 04a5 00       		.byte	0
 1528 04a6 08       		.uleb128 0x8
 1529 04a7 7D090000 		.4byte	.LASF68
 1530 04ab 0A       		.byte	0xa
 1531 04ac 28       		.byte	0x28
 1532 04ad 1A       		.byte	0x1a
 1533 04ae 5C020000 		.4byte	0x25c
 1534 04b2 08       		.byte	0x8
 1535 04b3 08       		.uleb128 0x8
 1536 04b4 0F080000 		.4byte	.LASF69
 1537 04b8 0A       		.byte	0xa
 1538 04b9 2A       		.byte	0x2a
 1539 04ba 1A       		.byte	0x1a
ARM GAS  /tmp/ccJAVx7t.s 			page 28


 1540 04bb C1040000 		.4byte	0x4c1
 1541 04bf 0C       		.byte	0xc
 1542 04c0 00       		.byte	0
 1543 04c1 0B       		.uleb128 0xb
 1544 04c2 04       		.byte	0x4
 1545 04c3 8C040000 		.4byte	0x48c
 1546 04c7 03       		.uleb128 0x3
 1547 04c8 E1040000 		.4byte	.LASF66
 1548 04cc 0A       		.byte	0xa
 1549 04cd 2C       		.byte	0x2c
 1550 04ce 03       		.byte	0x3
 1551 04cf 8C040000 		.4byte	0x48c
 1552 04d3 03       		.uleb128 0x3
 1553 04d4 16090000 		.4byte	.LASF70
 1554 04d8 0B       		.byte	0xb
 1555 04d9 25       		.byte	0x25
 1556 04da 1E       		.byte	0x1e
 1557 04db DF040000 		.4byte	0x4df
 1558 04df 07       		.uleb128 0x7
 1559 04e0 16090000 		.4byte	.LASF70
 1560 04e4 10       		.byte	0x10
 1561 04e5 0B       		.byte	0xb
 1562 04e6 2A       		.byte	0x2a
 1563 04e7 08       		.byte	0x8
 1564 04e8 21050000 		.4byte	0x521
 1565 04ec 08       		.uleb128 0x8
 1566 04ed A7040000 		.4byte	.LASF71
 1567 04f1 0B       		.byte	0xb
 1568 04f2 2B       		.byte	0x2b
 1569 04f3 1A       		.byte	0x1a
 1570 04f4 21050000 		.4byte	0x521
 1571 04f8 00       		.byte	0
 1572 04f9 08       		.uleb128 0x8
 1573 04fa AA060000 		.4byte	.LASF72
 1574 04fe 0B       		.byte	0xb
 1575 04ff 2E       		.byte	0x2e
 1576 0500 1A       		.byte	0x1a
 1577 0501 5C020000 		.4byte	0x25c
 1578 0505 04       		.byte	0x4
 1579 0506 08       		.uleb128 0x8
 1580 0507 D8050000 		.4byte	.LASF73
 1581 050b 0B       		.byte	0xb
 1582 050c 30       		.byte	0x30
 1583 050d 19       		.byte	0x19
 1584 050e FE000000 		.4byte	0xfe
 1585 0512 08       		.byte	0x8
 1586 0513 08       		.uleb128 0x8
 1587 0514 B6060000 		.4byte	.LASF74
 1588 0518 0B       		.byte	0xb
 1589 0519 33       		.byte	0x33
 1590 051a 19       		.byte	0x19
 1591 051b 0A010000 		.4byte	0x10a
 1592 051f 0C       		.byte	0xc
 1593 0520 00       		.byte	0
 1594 0521 0B       		.uleb128 0xb
 1595 0522 04       		.byte	0x4
 1596 0523 D3040000 		.4byte	0x4d3
ARM GAS  /tmp/ccJAVx7t.s 			page 29


 1597 0527 07       		.uleb128 0x7
 1598 0528 D7030000 		.4byte	.LASF75
 1599 052c 04       		.byte	0x4
 1600 052d 0B       		.byte	0xb
 1601 052e 3A       		.byte	0x3a
 1602 052f 10       		.byte	0x10
 1603 0530 42050000 		.4byte	0x542
 1604 0534 08       		.uleb128 0x8
 1605 0535 3D090000 		.4byte	.LASF76
 1606 0539 0B       		.byte	0xb
 1607 053a 3B       		.byte	0x3b
 1608 053b 1A       		.byte	0x1a
 1609 053c 21050000 		.4byte	0x521
 1610 0540 00       		.byte	0
 1611 0541 00       		.byte	0
 1612 0542 03       		.uleb128 0x3
 1613 0543 D7030000 		.4byte	.LASF75
 1614 0547 0B       		.byte	0xb
 1615 0548 3E       		.byte	0x3e
 1616 0549 03       		.byte	0x3
 1617 054a 27050000 		.4byte	0x527
 1618 054e 10       		.uleb128 0x10
 1619 054f 04       		.byte	0x4
 1620 0550 06       		.byte	0x6
 1621 0551 8F       		.byte	0x8f
 1622 0552 03       		.byte	0x3
 1623 0553 88050000 		.4byte	0x588
 1624 0557 11       		.uleb128 0x11
 1625 0558 F2000000 		.4byte	.LASF77
 1626 055c 06       		.byte	0x6
 1627 055d 96       		.byte	0x96
 1628 055e 19       		.byte	0x19
 1629 055f F2000000 		.4byte	0xf2
 1630 0563 11       		.uleb128 0x11
 1631 0564 5A010000 		.4byte	.LASF78
 1632 0568 06       		.byte	0x6
 1633 0569 9D       		.byte	0x9d
 1634 056a 19       		.byte	0x19
 1635 056b F2000000 		.4byte	0xf2
 1636 056f 11       		.uleb128 0x11
 1637 0570 24090000 		.4byte	.LASF79
 1638 0574 06       		.byte	0x6
 1639 0575 A4       		.byte	0xa4
 1640 0576 1A       		.byte	0x1a
 1641 0577 A9020000 		.4byte	0x2a9
 1642 057b 11       		.uleb128 0x11
 1643 057c 01070000 		.4byte	.LASF80
 1644 0580 06       		.byte	0x6
 1645 0581 AB       		.byte	0xab
 1646 0582 19       		.byte	0x19
 1647 0583 FE000000 		.4byte	0xfe
 1648 0587 00       		.byte	0
 1649 0588 0B       		.uleb128 0xb
 1650 0589 04       		.byte	0x4
 1651 058a 95050000 		.4byte	0x595
 1652 058e 04       		.uleb128 0x4
 1653 058f 01       		.byte	0x1
ARM GAS  /tmp/ccJAVx7t.s 			page 30


 1654 0590 08       		.byte	0x8
 1655 0591 C8070000 		.4byte	.LASF81
 1656 0595 06       		.uleb128 0x6
 1657 0596 8E050000 		.4byte	0x58e
 1658 059a 0B       		.uleb128 0xb
 1659 059b 04       		.byte	0x4
 1660 059c C7040000 		.4byte	0x4c7
 1661 05a0 0B       		.uleb128 0xb
 1662 05a1 04       		.byte	0x4
 1663 05a2 A6050000 		.4byte	0x5a6
 1664 05a6 12       		.uleb128 0x12
 1665 05a7 F2000000 		.4byte	0xf2
 1666 05ab B5050000 		.4byte	0x5b5
 1667 05af 0E       		.uleb128 0xe
 1668 05b0 A9020000 		.4byte	0x2a9
 1669 05b4 00       		.byte	0
 1670 05b5 0A       		.uleb128 0xa
 1671 05b6 16       		.byte	0x16
 1672 05b7 0C       		.byte	0xc
 1673 05b8 25       		.byte	0x25
 1674 05b9 09       		.byte	0x9
 1675 05ba A9060000 		.4byte	0x6a9
 1676 05be 08       		.uleb128 0x8
 1677 05bf 44040000 		.4byte	.LASF82
 1678 05c3 0C       		.byte	0xc
 1679 05c4 26       		.byte	0x26
 1680 05c5 0D       		.byte	0xd
 1681 05c6 A9060000 		.4byte	0x6a9
 1682 05ca 00       		.byte	0
 1683 05cb 08       		.uleb128 0x8
 1684 05cc 12050000 		.4byte	.LASF83
 1685 05d0 0C       		.byte	0xc
 1686 05d1 27       		.byte	0x27
 1687 05d2 0D       		.byte	0xd
 1688 05d3 6C000000 		.4byte	0x6c
 1689 05d7 04       		.byte	0x4
 1690 05d8 08       		.uleb128 0x8
 1691 05d9 B6050000 		.4byte	.LASF84
 1692 05dd 0C       		.byte	0xc
 1693 05de 28       		.byte	0x28
 1694 05df 0D       		.byte	0xd
 1695 05e0 6C000000 		.4byte	0x6c
 1696 05e4 05       		.byte	0x5
 1697 05e5 08       		.uleb128 0x8
 1698 05e6 4F090000 		.4byte	.LASF85
 1699 05ea 0C       		.byte	0xc
 1700 05eb 29       		.byte	0x29
 1701 05ec 0D       		.byte	0xd
 1702 05ed 84000000 		.4byte	0x84
 1703 05f1 06       		.byte	0x6
 1704 05f2 08       		.uleb128 0x8
 1705 05f3 49060000 		.4byte	.LASF86
 1706 05f7 0C       		.byte	0xc
 1707 05f8 2A       		.byte	0x2a
 1708 05f9 0D       		.byte	0xd
 1709 05fa 6C000000 		.4byte	0x6c
 1710 05fe 08       		.byte	0x8
ARM GAS  /tmp/ccJAVx7t.s 			page 31


 1711 05ff 08       		.uleb128 0x8
 1712 0600 61050000 		.4byte	.LASF87
 1713 0604 0C       		.byte	0xc
 1714 0605 2B       		.byte	0x2b
 1715 0606 0D       		.byte	0xd
 1716 0607 6C000000 		.4byte	0x6c
 1717 060b 09       		.byte	0x9
 1718 060c 08       		.uleb128 0x8
 1719 060d 4C010000 		.4byte	.LASF88
 1720 0611 0C       		.byte	0xc
 1721 0612 2C       		.byte	0x2c
 1722 0613 0D       		.byte	0xd
 1723 0614 6C000000 		.4byte	0x6c
 1724 0618 0A       		.byte	0xa
 1725 0619 08       		.uleb128 0x8
 1726 061a 87070000 		.4byte	.LASF89
 1727 061e 0C       		.byte	0xc
 1728 061f 2D       		.byte	0x2d
 1729 0620 0D       		.byte	0xd
 1730 0621 6C000000 		.4byte	0x6c
 1731 0625 0B       		.byte	0xb
 1732 0626 08       		.uleb128 0x8
 1733 0627 C9080000 		.4byte	.LASF90
 1734 062b 0C       		.byte	0xc
 1735 062c 2E       		.byte	0x2e
 1736 062d 0D       		.byte	0xd
 1737 062e 6C000000 		.4byte	0x6c
 1738 0632 0C       		.byte	0xc
 1739 0633 08       		.uleb128 0x8
 1740 0634 43070000 		.4byte	.LASF91
 1741 0638 0C       		.byte	0xc
 1742 0639 2F       		.byte	0x2f
 1743 063a 0D       		.byte	0xd
 1744 063b 6C000000 		.4byte	0x6c
 1745 063f 0D       		.byte	0xd
 1746 0640 08       		.uleb128 0x8
 1747 0641 00000000 		.4byte	.LASF92
 1748 0645 0C       		.byte	0xc
 1749 0646 30       		.byte	0x30
 1750 0647 0D       		.byte	0xd
 1751 0648 6C000000 		.4byte	0x6c
 1752 064c 0E       		.byte	0xe
 1753 064d 08       		.uleb128 0x8
 1754 064e 76050000 		.4byte	.LASF93
 1755 0652 0C       		.byte	0xc
 1756 0653 31       		.byte	0x31
 1757 0654 0D       		.byte	0xd
 1758 0655 6C000000 		.4byte	0x6c
 1759 0659 0F       		.byte	0xf
 1760 065a 08       		.uleb128 0x8
 1761 065b C0010000 		.4byte	.LASF94
 1762 065f 0C       		.byte	0xc
 1763 0660 32       		.byte	0x32
 1764 0661 0D       		.byte	0xd
 1765 0662 6C000000 		.4byte	0x6c
 1766 0666 10       		.byte	0x10
 1767 0667 08       		.uleb128 0x8
ARM GAS  /tmp/ccJAVx7t.s 			page 32


 1768 0668 82010000 		.4byte	.LASF95
 1769 066c 0C       		.byte	0xc
 1770 066d 34       		.byte	0x34
 1771 066e 0D       		.byte	0xd
 1772 066f 6C000000 		.4byte	0x6c
 1773 0673 11       		.byte	0x11
 1774 0674 08       		.uleb128 0x8
 1775 0675 D9010000 		.4byte	.LASF96
 1776 0679 0C       		.byte	0xc
 1777 067a 35       		.byte	0x35
 1778 067b 0D       		.byte	0xd
 1779 067c 6C000000 		.4byte	0x6c
 1780 0680 12       		.byte	0x12
 1781 0681 08       		.uleb128 0x8
 1782 0682 1A050000 		.4byte	.LASF97
 1783 0686 0C       		.byte	0xc
 1784 0687 36       		.byte	0x36
 1785 0688 0D       		.byte	0xd
 1786 0689 6C000000 		.4byte	0x6c
 1787 068d 13       		.byte	0x13
 1788 068e 08       		.uleb128 0x8
 1789 068f 17070000 		.4byte	.LASF98
 1790 0693 0C       		.byte	0xc
 1791 0694 37       		.byte	0x37
 1792 0695 0D       		.byte	0xd
 1793 0696 6C000000 		.4byte	0x6c
 1794 069a 14       		.byte	0x14
 1795 069b 08       		.uleb128 0x8
 1796 069c E5060000 		.4byte	.LASF99
 1797 06a0 0C       		.byte	0xc
 1798 06a1 39       		.byte	0x39
 1799 06a2 0D       		.byte	0xd
 1800 06a3 6C000000 		.4byte	0x6c
 1801 06a7 15       		.byte	0x15
 1802 06a8 00       		.byte	0
 1803 06a9 13       		.uleb128 0x13
 1804 06aa 8E050000 		.4byte	0x58e
 1805 06ae B9060000 		.4byte	0x6b9
 1806 06b2 14       		.uleb128 0x14
 1807 06b3 38000000 		.4byte	0x38
 1808 06b7 03       		.byte	0x3
 1809 06b8 00       		.byte	0
 1810 06b9 03       		.uleb128 0x3
 1811 06ba 15030000 		.4byte	.LASF100
 1812 06be 0C       		.byte	0xc
 1813 06bf 3A       		.byte	0x3a
 1814 06c0 03       		.byte	0x3
 1815 06c1 B5050000 		.4byte	0x5b5
 1816 06c5 06       		.uleb128 0x6
 1817 06c6 B9060000 		.4byte	0x6b9
 1818 06ca 0F       		.uleb128 0xf
 1819 06cb 2E040000 		.4byte	.LASF101
 1820 06cf 0C       		.byte	0xc
 1821 06d0 77       		.byte	0x77
 1822 06d1 1D       		.byte	0x1d
 1823 06d2 C5060000 		.4byte	0x6c5
 1824 06d6 03       		.uleb128 0x3
ARM GAS  /tmp/ccJAVx7t.s 			page 33


 1825 06d7 ED040000 		.4byte	.LASF102
 1826 06db 0D       		.byte	0xd
 1827 06dc 30       		.byte	0x30
 1828 06dd 1D       		.byte	0x1d
 1829 06de E2060000 		.4byte	0x6e2
 1830 06e2 07       		.uleb128 0x7
 1831 06e3 ED040000 		.4byte	.LASF102
 1832 06e7 24       		.byte	0x24
 1833 06e8 0D       		.byte	0xd
 1834 06e9 3E       		.byte	0x3e
 1835 06ea 08       		.byte	0x8
 1836 06eb 58070000 		.4byte	0x758
 1837 06ef 08       		.uleb128 0x8
 1838 06f0 9C010000 		.4byte	.LASF103
 1839 06f4 0D       		.byte	0xd
 1840 06f5 3F       		.byte	0x3f
 1841 06f6 19       		.byte	0x19
 1842 06f7 62020000 		.4byte	0x262
 1843 06fb 00       		.byte	0
 1844 06fc 08       		.uleb128 0x8
 1845 06fd 4F050000 		.4byte	.LASF104
 1846 0701 0D       		.byte	0xd
 1847 0702 40       		.byte	0x40
 1848 0703 19       		.byte	0x19
 1849 0704 2C000000 		.4byte	0x2c
 1850 0708 08       		.byte	0x8
 1851 0709 08       		.uleb128 0x8
 1852 070a FE020000 		.4byte	.LASF105
 1853 070e 0D       		.byte	0xd
 1854 070f 41       		.byte	0x41
 1855 0710 1A       		.byte	0x1a
 1856 0711 7B070000 		.4byte	0x77b
 1857 0715 0C       		.byte	0xc
 1858 0716 08       		.uleb128 0x8
 1859 0717 2F010000 		.4byte	.LASF106
 1860 071b 0D       		.byte	0xd
 1861 071c 42       		.byte	0x42
 1862 071d 1A       		.byte	0x1a
 1863 071e 7B070000 		.4byte	0x77b
 1864 0722 10       		.byte	0x10
 1865 0723 08       		.uleb128 0x8
 1866 0724 9B050000 		.4byte	.LASF107
 1867 0728 0D       		.byte	0xd
 1868 0729 44       		.byte	0x44
 1869 072a 1A       		.byte	0x1a
 1870 072b 7B070000 		.4byte	0x77b
 1871 072f 14       		.byte	0x14
 1872 0730 08       		.uleb128 0x8
 1873 0731 6D060000 		.4byte	.LASF108
 1874 0735 0D       		.byte	0xd
 1875 0736 45       		.byte	0x45
 1876 0737 1A       		.byte	0x1a
 1877 0738 7B070000 		.4byte	0x77b
 1878 073c 18       		.byte	0x18
 1879 073d 08       		.uleb128 0x8
 1880 073e F9080000 		.4byte	.LASF109
 1881 0742 0D       		.byte	0xd
ARM GAS  /tmp/ccJAVx7t.s 			page 34


 1882 0743 46       		.byte	0x46
 1883 0744 19       		.byte	0x19
 1884 0745 58070000 		.4byte	0x758
 1885 0749 1C       		.byte	0x1c
 1886 074a 08       		.uleb128 0x8
 1887 074b 6C090000 		.4byte	.LASF110
 1888 074f 0D       		.byte	0xd
 1889 0750 47       		.byte	0x47
 1890 0751 1A       		.byte	0x1a
 1891 0752 A9020000 		.4byte	0x2a9
 1892 0756 20       		.byte	0x20
 1893 0757 00       		.byte	0
 1894 0758 03       		.uleb128 0x3
 1895 0759 54060000 		.4byte	.LASF111
 1896 075d 0D       		.byte	0xd
 1897 075e 33       		.byte	0x33
 1898 075f 10       		.byte	0x10
 1899 0760 64070000 		.4byte	0x764
 1900 0764 0B       		.uleb128 0xb
 1901 0765 04       		.byte	0x4
 1902 0766 6A070000 		.4byte	0x76a
 1903 076a 0D       		.uleb128 0xd
 1904 076b 75070000 		.4byte	0x775
 1905 076f 0E       		.uleb128 0xe
 1906 0770 75070000 		.4byte	0x775
 1907 0774 00       		.byte	0
 1908 0775 0B       		.uleb128 0xb
 1909 0776 04       		.byte	0x4
 1910 0777 D6060000 		.4byte	0x6d6
 1911 077b 0B       		.uleb128 0xb
 1912 077c 04       		.byte	0x4
 1913 077d 6C000000 		.4byte	0x6c
 1914 0781 03       		.uleb128 0x3
 1915 0782 D6040000 		.4byte	.LASF112
 1916 0786 0D       		.byte	0xd
 1917 0787 7B       		.byte	0x7b
 1918 0788 16       		.byte	0x16
 1919 0789 D6060000 		.4byte	0x6d6
 1920 078d 03       		.uleb128 0x3
 1921 078e FF000000 		.4byte	.LASF113
 1922 0792 0D       		.byte	0xd
 1923 0793 EE       		.byte	0xee
 1924 0794 16       		.byte	0x16
 1925 0795 D6060000 		.4byte	0x6d6
 1926 0799 12       		.uleb128 0x12
 1927 079a 2C000000 		.4byte	0x2c
 1928 079e B2070000 		.4byte	0x7b2
 1929 07a2 0E       		.uleb128 0xe
 1930 07a3 A9020000 		.4byte	0x2a9
 1931 07a7 0E       		.uleb128 0xe
 1932 07a8 B2070000 		.4byte	0x7b2
 1933 07ac 0E       		.uleb128 0xe
 1934 07ad 2C000000 		.4byte	0x2c
 1935 07b1 00       		.byte	0
 1936 07b2 0B       		.uleb128 0xb
 1937 07b3 04       		.byte	0x4
 1938 07b4 78000000 		.4byte	0x78
ARM GAS  /tmp/ccJAVx7t.s 			page 35


 1939 07b8 0B       		.uleb128 0xb
 1940 07b9 04       		.byte	0x4
 1941 07ba 99070000 		.4byte	0x799
 1942 07be 12       		.uleb128 0x12
 1943 07bf 2C000000 		.4byte	0x2c
 1944 07c3 D7070000 		.4byte	0x7d7
 1945 07c7 0E       		.uleb128 0xe
 1946 07c8 A9020000 		.4byte	0x2a9
 1947 07cc 0E       		.uleb128 0xe
 1948 07cd 7B070000 		.4byte	0x77b
 1949 07d1 0E       		.uleb128 0xe
 1950 07d2 2C000000 		.4byte	0x2c
 1951 07d6 00       		.byte	0
 1952 07d7 0B       		.uleb128 0xb
 1953 07d8 04       		.byte	0x4
 1954 07d9 BE070000 		.4byte	0x7be
 1955 07dd 12       		.uleb128 0x12
 1956 07de F2000000 		.4byte	0xf2
 1957 07e2 F1070000 		.4byte	0x7f1
 1958 07e6 0E       		.uleb128 0xe
 1959 07e7 A9020000 		.4byte	0x2a9
 1960 07eb 0E       		.uleb128 0xe
 1961 07ec 6C000000 		.4byte	0x6c
 1962 07f0 00       		.byte	0
 1963 07f1 0B       		.uleb128 0xb
 1964 07f2 04       		.byte	0x4
 1965 07f3 DD070000 		.4byte	0x7dd
 1966 07f7 13       		.uleb128 0x13
 1967 07f8 91020000 		.4byte	0x291
 1968 07fc 07080000 		.4byte	0x807
 1969 0800 14       		.uleb128 0x14
 1970 0801 38000000 		.4byte	0x38
 1971 0805 26       		.byte	0x26
 1972 0806 00       		.byte	0
 1973 0807 0F       		.uleb128 0xf
 1974 0808 41030000 		.4byte	.LASF114
 1975 080c 0E       		.byte	0xe
 1976 080d 82       		.byte	0x82
 1977 080e 08       		.byte	0x8
 1978 080f F7070000 		.4byte	0x7f7
 1979 0813 07       		.uleb128 0x7
 1980 0814 1D010000 		.4byte	.LASF115
 1981 0818 20       		.byte	0x20
 1982 0819 0F       		.byte	0xf
 1983 081a FD       		.byte	0xfd
 1984 081b 08       		.byte	0x8
 1985 081c 8F080000 		.4byte	0x88f
 1986 0820 08       		.uleb128 0x8
 1987 0821 8A030000 		.4byte	.LASF116
 1988 0825 0F       		.byte	0xf
 1989 0826 FE       		.byte	0xfe
 1990 0827 19       		.byte	0x19
 1991 0828 3F000000 		.4byte	0x3f
 1992 082c 00       		.byte	0
 1993 082d 08       		.uleb128 0x8
 1994 082e E8080000 		.4byte	.LASF117
 1995 0832 0F       		.byte	0xf
ARM GAS  /tmp/ccJAVx7t.s 			page 36


 1996 0833 FF       		.byte	0xff
 1997 0834 19       		.byte	0x19
 1998 0835 3F000000 		.4byte	0x3f
 1999 0839 04       		.byte	0x4
 2000 083a 15       		.uleb128 0x15
 2001 083b 5A090000 		.4byte	.LASF118
 2002 083f 0F       		.byte	0xf
 2003 0840 0001     		.2byte	0x100
 2004 0842 19       		.byte	0x19
 2005 0843 3F000000 		.4byte	0x3f
 2006 0847 08       		.byte	0x8
 2007 0848 15       		.uleb128 0x15
 2008 0849 AB030000 		.4byte	.LASF119
 2009 084d 0F       		.byte	0xf
 2010 084e 0101     		.2byte	0x101
 2011 0850 19       		.byte	0x19
 2012 0851 3F000000 		.4byte	0x3f
 2013 0855 0C       		.byte	0xc
 2014 0856 15       		.uleb128 0x15
 2015 0857 72010000 		.4byte	.LASF120
 2016 085b 0F       		.byte	0xf
 2017 085c 0201     		.2byte	0x102
 2018 085e 19       		.byte	0x19
 2019 085f 3F000000 		.4byte	0x3f
 2020 0863 10       		.byte	0x10
 2021 0864 15       		.uleb128 0x15
 2022 0865 42050000 		.4byte	.LASF121
 2023 0869 0F       		.byte	0xf
 2024 086a 0301     		.2byte	0x103
 2025 086c 19       		.byte	0x19
 2026 086d 3F000000 		.4byte	0x3f
 2027 0871 14       		.byte	0x14
 2028 0872 15       		.uleb128 0x15
 2029 0873 EE020000 		.4byte	.LASF122
 2030 0877 0F       		.byte	0xf
 2031 0878 0401     		.2byte	0x104
 2032 087a 19       		.byte	0x19
 2033 087b 3F000000 		.4byte	0x3f
 2034 087f 18       		.byte	0x18
 2035 0880 15       		.uleb128 0x15
 2036 0881 B0090000 		.4byte	.LASF123
 2037 0885 0F       		.byte	0xf
 2038 0886 0501     		.2byte	0x105
 2039 0888 19       		.byte	0x19
 2040 0889 3F000000 		.4byte	0x3f
 2041 088d 1C       		.byte	0x1c
 2042 088e 00       		.byte	0
 2043 088f 16       		.uleb128 0x16
 2044 0890 1D010000 		.4byte	.LASF115
 2045 0894 0F       		.byte	0xf
 2046 0895 0801     		.2byte	0x108
 2047 0897 1C       		.byte	0x1c
 2048 0898 13080000 		.4byte	0x813
 2049 089c 12       		.uleb128 0x12
 2050 089d F2000000 		.4byte	0xf2
 2051 08a1 B5080000 		.4byte	0x8b5
 2052 08a5 0E       		.uleb128 0xe
ARM GAS  /tmp/ccJAVx7t.s 			page 37


 2053 08a6 A9020000 		.4byte	0x2a9
 2054 08aa 0E       		.uleb128 0xe
 2055 08ab 6C000000 		.4byte	0x6c
 2056 08af 0E       		.uleb128 0xe
 2057 08b0 16010000 		.4byte	0x116
 2058 08b4 00       		.byte	0
 2059 08b5 0B       		.uleb128 0xb
 2060 08b6 04       		.byte	0x4
 2061 08b7 9C080000 		.4byte	0x89c
 2062 08bb 12       		.uleb128 0x12
 2063 08bc F2000000 		.4byte	0xf2
 2064 08c0 CF080000 		.4byte	0x8cf
 2065 08c4 0E       		.uleb128 0xe
 2066 08c5 A9020000 		.4byte	0x2a9
 2067 08c9 0E       		.uleb128 0xe
 2068 08ca 16010000 		.4byte	0x116
 2069 08ce 00       		.byte	0
 2070 08cf 0B       		.uleb128 0xb
 2071 08d0 04       		.byte	0x4
 2072 08d1 BB080000 		.4byte	0x8bb
 2073 08d5 12       		.uleb128 0x12
 2074 08d6 2C000000 		.4byte	0x2c
 2075 08da F3080000 		.4byte	0x8f3
 2076 08de 0E       		.uleb128 0xe
 2077 08df A9020000 		.4byte	0x2a9
 2078 08e3 0E       		.uleb128 0xe
 2079 08e4 B2070000 		.4byte	0x7b2
 2080 08e8 0E       		.uleb128 0xe
 2081 08e9 2C000000 		.4byte	0x2c
 2082 08ed 0E       		.uleb128 0xe
 2083 08ee 16010000 		.4byte	0x116
 2084 08f2 00       		.byte	0
 2085 08f3 0B       		.uleb128 0xb
 2086 08f4 04       		.byte	0x4
 2087 08f5 D5080000 		.4byte	0x8d5
 2088 08f9 12       		.uleb128 0x12
 2089 08fa 2C000000 		.4byte	0x2c
 2090 08fe 17090000 		.4byte	0x917
 2091 0902 0E       		.uleb128 0xe
 2092 0903 A9020000 		.4byte	0x2a9
 2093 0907 0E       		.uleb128 0xe
 2094 0908 7B070000 		.4byte	0x77b
 2095 090c 0E       		.uleb128 0xe
 2096 090d 2C000000 		.4byte	0x2c
 2097 0911 0E       		.uleb128 0xe
 2098 0912 16010000 		.4byte	0x116
 2099 0916 00       		.byte	0
 2100 0917 0B       		.uleb128 0xb
 2101 0918 04       		.byte	0x4
 2102 0919 F9080000 		.4byte	0x8f9
 2103 091d 0A       		.uleb128 0xa
 2104 091e 18       		.byte	0x18
 2105 091f 10       		.byte	0x10
 2106 0920 2A       		.byte	0x2a
 2107 0921 09       		.byte	0x9
 2108 0922 75090000 		.4byte	0x975
 2109 0926 08       		.uleb128 0x8
ARM GAS  /tmp/ccJAVx7t.s 			page 38


 2110 0927 10090000 		.4byte	.LASF124
 2111 092b 10       		.byte	0x10
 2112 092c 2F       		.byte	0x2f
 2113 092d 15       		.byte	0x15
 2114 092e 97000000 		.4byte	0x97
 2115 0932 00       		.byte	0
 2116 0933 08       		.uleb128 0x8
 2117 0934 E0050000 		.4byte	.LASF125
 2118 0938 10       		.byte	0x10
 2119 0939 31       		.byte	0x31
 2120 093a 16       		.byte	0x16
 2121 093b 75090000 		.4byte	0x975
 2122 093f 04       		.byte	0x4
 2123 0940 08       		.uleb128 0x8
 2124 0941 94040000 		.4byte	.LASF126
 2125 0945 10       		.byte	0x10
 2126 0946 32       		.byte	0x32
 2127 0947 16       		.byte	0x16
 2128 0948 75090000 		.4byte	0x975
 2129 094c 08       		.byte	0x8
 2130 094d 08       		.uleb128 0x8
 2131 094e 26050000 		.4byte	.LASF127
 2132 0952 10       		.byte	0x10
 2133 0953 33       		.byte	0x33
 2134 0954 16       		.byte	0x16
 2135 0955 75090000 		.4byte	0x975
 2136 0959 0C       		.byte	0xc
 2137 095a 08       		.uleb128 0x8
 2138 095b E6050000 		.4byte	.LASF128
 2139 095f 10       		.byte	0x10
 2140 0960 34       		.byte	0x34
 2141 0961 16       		.byte	0x16
 2142 0962 75090000 		.4byte	0x975
 2143 0966 10       		.byte	0x10
 2144 0967 08       		.uleb128 0x8
 2145 0968 F8060000 		.4byte	.LASF129
 2146 096c 10       		.byte	0x10
 2147 096d 35       		.byte	0x35
 2148 096e 10       		.byte	0x10
 2149 096f 38000000 		.4byte	0x38
 2150 0973 14       		.byte	0x14
 2151 0974 00       		.byte	0
 2152 0975 0B       		.uleb128 0xb
 2153 0976 04       		.byte	0x4
 2154 0977 A3000000 		.4byte	0xa3
 2155 097b 03       		.uleb128 0x3
 2156 097c 88040000 		.4byte	.LASF130
 2157 0980 10       		.byte	0x10
 2158 0981 37       		.byte	0x37
 2159 0982 03       		.byte	0x3
 2160 0983 1D090000 		.4byte	0x91d
 2161 0987 17       		.uleb128 0x17
 2162 0988 00       		.byte	0
 2163 0989 10       		.byte	0x10
 2164 098a 43       		.byte	0x43
 2165 098b 09       		.byte	0x9
 2166 098c 03       		.uleb128 0x3
ARM GAS  /tmp/ccJAVx7t.s 			page 39


 2167 098d 73090000 		.4byte	.LASF131
 2168 0991 10       		.byte	0x10
 2169 0992 45       		.byte	0x45
 2170 0993 03       		.byte	0x3
 2171 0994 87090000 		.4byte	0x987
 2172 0998 06       		.uleb128 0x6
 2173 0999 8C090000 		.4byte	0x98c
 2174 099d 0F       		.uleb128 0xf
 2175 099e BE050000 		.4byte	.LASF132
 2176 09a2 10       		.byte	0x10
 2177 09a3 6D       		.byte	0x6d
 2178 09a4 14       		.byte	0x14
 2179 09a5 7B090000 		.4byte	0x97b
 2180 09a9 0F       		.uleb128 0xf
 2181 09aa 0F070000 		.4byte	.LASF133
 2182 09ae 10       		.byte	0x10
 2183 09af 6E       		.byte	0x6e
 2184 09b0 14       		.byte	0x14
 2185 09b1 7B090000 		.4byte	0x97b
 2186 09b5 0F       		.uleb128 0xf
 2187 09b6 85090000 		.4byte	.LASF134
 2188 09ba 10       		.byte	0x10
 2189 09bb 75       		.byte	0x75
 2190 09bc 18       		.byte	0x18
 2191 09bd 98090000 		.4byte	0x998
 2192 09c1 18       		.uleb128 0x18
 2193 09c2 07       		.byte	0x7
 2194 09c3 01       		.byte	0x1
 2195 09c4 7D000000 		.4byte	0x7d
 2196 09c8 11       		.byte	0x11
 2197 09c9 54       		.byte	0x54
 2198 09ca 0E       		.byte	0xe
 2199 09cb F4090000 		.4byte	0x9f4
 2200 09cf 19       		.uleb128 0x19
 2201 09d0 AF020000 		.4byte	.LASF135
 2202 09d4 00       		.byte	0
 2203 09d5 19       		.uleb128 0x19
 2204 09d6 39050000 		.4byte	.LASF136
 2205 09da 01       		.byte	0x1
 2206 09db 19       		.uleb128 0x19
 2207 09dc 34080000 		.4byte	.LASF137
 2208 09e0 02       		.byte	0x2
 2209 09e1 19       		.uleb128 0x19
 2210 09e2 1F030000 		.4byte	.LASF138
 2211 09e6 03       		.byte	0x3
 2212 09e7 19       		.uleb128 0x19
 2213 09e8 B5070000 		.4byte	.LASF139
 2214 09ec 04       		.byte	0x4
 2215 09ed 19       		.uleb128 0x19
 2216 09ee 50070000 		.4byte	.LASF140
 2217 09f2 05       		.byte	0x5
 2218 09f3 00       		.byte	0
 2219 09f4 03       		.uleb128 0x3
 2220 09f5 0D000000 		.4byte	.LASF141
 2221 09f9 11       		.byte	0x11
 2222 09fa 5B       		.byte	0x5b
 2223 09fb 03       		.byte	0x3
ARM GAS  /tmp/ccJAVx7t.s 			page 40


 2224 09fc C1090000 		.4byte	0x9c1
 2225 0a00 03       		.uleb128 0x3
 2226 0a01 3E080000 		.4byte	.LASF142
 2227 0a05 12       		.byte	0x12
 2228 0a06 38       		.byte	0x38
 2229 0a07 1A       		.byte	0x1a
 2230 0a08 0C0A0000 		.4byte	0xa0c
 2231 0a0c 07       		.uleb128 0x7
 2232 0a0d 3E080000 		.4byte	.LASF142
 2233 0a11 40       		.byte	0x40
 2234 0a12 12       		.byte	0x12
 2235 0a13 62       		.byte	0x62
 2236 0a14 08       		.byte	0x8
 2237 0a15 C30A0000 		.4byte	0xac3
 2238 0a19 08       		.uleb128 0x8
 2239 0a1a C4020000 		.4byte	.LASF143
 2240 0a1e 12       		.byte	0x12
 2241 0a1f 64       		.byte	0x64
 2242 0a20 1D       		.byte	0x1d
 2243 0a21 F4090000 		.4byte	0x9f4
 2244 0a25 00       		.byte	0
 2245 0a26 08       		.uleb128 0x8
 2246 0a27 F1070000 		.4byte	.LASF144
 2247 0a2b 12       		.byte	0x12
 2248 0a2c 66       		.byte	0x66
 2249 0a2d 1E       		.byte	0x1e
 2250 0a2e 090B0000 		.4byte	0xb09
 2251 0a32 04       		.byte	0x4
 2252 0a33 08       		.uleb128 0x8
 2253 0a34 0E040000 		.4byte	.LASF145
 2254 0a38 12       		.byte	0x12
 2255 0a39 68       		.byte	0x68
 2256 0a3a 1D       		.byte	0x1d
 2257 0a3b C30A0000 		.4byte	0xac3
 2258 0a3f 08       		.byte	0x8
 2259 0a40 08       		.uleb128 0x8
 2260 0a41 95010000 		.4byte	.LASF146
 2261 0a45 12       		.byte	0x12
 2262 0a46 6A       		.byte	0x6a
 2263 0a47 1E       		.byte	0x1e
 2264 0a48 0F0B0000 		.4byte	0xb0f
 2265 0a4c 0C       		.byte	0xc
 2266 0a4d 08       		.uleb128 0x8
 2267 0a4e 80060000 		.4byte	.LASF147
 2268 0a52 12       		.byte	0x12
 2269 0a53 6D       		.byte	0x6d
 2270 0a54 1D       		.byte	0x1d
 2271 0a55 C7040000 		.4byte	0x4c7
 2272 0a59 10       		.byte	0x10
 2273 0a5a 08       		.uleb128 0x8
 2274 0a5b E7020000 		.4byte	.LASF148
 2275 0a5f 12       		.byte	0x12
 2276 0a60 77       		.byte	0x77
 2277 0a61 1E       		.byte	0x1e
 2278 0a62 5C020000 		.4byte	0x25c
 2279 0a66 20       		.byte	0x20
 2280 0a67 08       		.uleb128 0x8
ARM GAS  /tmp/ccJAVx7t.s 			page 41


 2281 0a68 80020000 		.4byte	.LASF149
 2282 0a6c 12       		.byte	0x12
 2283 0a6d 7B       		.byte	0x7b
 2284 0a6e 1D       		.byte	0x1d
 2285 0a6f CF0A0000 		.4byte	0xacf
 2286 0a73 24       		.byte	0x24
 2287 0a74 08       		.uleb128 0x8
 2288 0a75 F8030000 		.4byte	.LASF150
 2289 0a79 12       		.byte	0x12
 2290 0a7a 7F       		.byte	0x7f
 2291 0a7b 1E       		.byte	0x1e
 2292 0a7c B2070000 		.4byte	0x7b2
 2293 0a80 28       		.byte	0x28
 2294 0a81 08       		.uleb128 0x8
 2295 0a82 A8090000 		.4byte	.LASF151
 2296 0a86 12       		.byte	0x12
 2297 0a87 83       		.byte	0x83
 2298 0a88 1D       		.byte	0x1d
 2299 0a89 2C000000 		.4byte	0x2c
 2300 0a8d 2C       		.byte	0x2c
 2301 0a8e 08       		.uleb128 0x8
 2302 0a8f C3080000 		.4byte	.LASF152
 2303 0a93 12       		.byte	0x12
 2304 0a94 87       		.byte	0x87
 2305 0a95 1D       		.byte	0x1d
 2306 0a96 2C000000 		.4byte	0x2c
 2307 0a9a 30       		.byte	0x30
 2308 0a9b 08       		.uleb128 0x8
 2309 0a9c 29010000 		.4byte	.LASF153
 2310 0aa0 12       		.byte	0x12
 2311 0aa1 8B       		.byte	0x8b
 2312 0aa2 1E       		.byte	0x1e
 2313 0aa3 7B070000 		.4byte	0x77b
 2314 0aa7 34       		.byte	0x34
 2315 0aa8 08       		.uleb128 0x8
 2316 0aa9 93050000 		.4byte	.LASF154
 2317 0aad 12       		.byte	0x12
 2318 0aae 8F       		.byte	0x8f
 2319 0aaf 1D       		.byte	0x1d
 2320 0ab0 2C000000 		.4byte	0x2c
 2321 0ab4 38       		.byte	0x38
 2322 0ab5 08       		.uleb128 0x8
 2323 0ab6 F8020000 		.4byte	.LASF155
 2324 0aba 12       		.byte	0x12
 2325 0abb 93       		.byte	0x93
 2326 0abc 1D       		.byte	0x1d
 2327 0abd 2C000000 		.4byte	0x2c
 2328 0ac1 3C       		.byte	0x3c
 2329 0ac2 00       		.byte	0
 2330 0ac3 03       		.uleb128 0x3
 2331 0ac4 75060000 		.4byte	.LASF156
 2332 0ac8 12       		.byte	0x12
 2333 0ac9 42       		.byte	0x42
 2334 0aca 12       		.byte	0x12
 2335 0acb 97000000 		.4byte	0x97
 2336 0acf 03       		.uleb128 0x3
 2337 0ad0 BA020000 		.4byte	.LASF157
ARM GAS  /tmp/ccJAVx7t.s 			page 42


 2338 0ad4 12       		.byte	0x12
 2339 0ad5 48       		.byte	0x48
 2340 0ad6 12       		.byte	0x12
 2341 0ad7 84000000 		.4byte	0x84
 2342 0adb 0B       		.uleb128 0xb
 2343 0adc 04       		.byte	0x4
 2344 0add 000A0000 		.4byte	0xa00
 2345 0ae1 0A       		.uleb128 0xa
 2346 0ae2 04       		.byte	0x4
 2347 0ae3 12       		.byte	0x12
 2348 0ae4 57       		.byte	0x57
 2349 0ae5 09       		.byte	0x9
 2350 0ae6 F80A0000 		.4byte	0xaf8
 2351 0aea 08       		.uleb128 0x8
 2352 0aeb 6D050000 		.4byte	.LASF158
 2353 0aef 12       		.byte	0x12
 2354 0af0 59       		.byte	0x59
 2355 0af1 1D       		.byte	0x1d
 2356 0af2 97000000 		.4byte	0x97
 2357 0af6 00       		.byte	0
 2358 0af7 00       		.byte	0
 2359 0af8 03       		.uleb128 0x3
 2360 0af9 AF080000 		.4byte	.LASF159
 2361 0afd 12       		.byte	0x12
 2362 0afe 5B       		.byte	0x5b
 2363 0aff 03       		.byte	0x3
 2364 0b00 E10A0000 		.4byte	0xae1
 2365 0b04 06       		.uleb128 0x6
 2366 0b05 F80A0000 		.4byte	0xaf8
 2367 0b09 0B       		.uleb128 0xb
 2368 0b0a 04       		.byte	0x4
 2369 0b0b 040B0000 		.4byte	0xb04
 2370 0b0f 0B       		.uleb128 0xb
 2371 0b10 04       		.byte	0x4
 2372 0b11 8F080000 		.4byte	0x88f
 2373 0b15 0F       		.uleb128 0xf
 2374 0b16 CD030000 		.4byte	.LASF160
 2375 0b1a 12       		.byte	0x12
 2376 0b1b A6       		.byte	0xa6
 2377 0b1c 12       		.byte	0x12
 2378 0b1d 000A0000 		.4byte	0xa00
 2379 0b21 18       		.uleb128 0x18
 2380 0b22 07       		.byte	0x7
 2381 0b23 01       		.byte	0x1
 2382 0b24 7D000000 		.4byte	0x7d
 2383 0b28 13       		.byte	0x13
 2384 0b29 5D       		.byte	0x5d
 2385 0b2a 0E       		.byte	0xe
 2386 0b2b 420B0000 		.4byte	0xb42
 2387 0b2f 19       		.uleb128 0x19
 2388 0b30 74070000 		.4byte	.LASF161
 2389 0b34 00       		.byte	0
 2390 0b35 19       		.uleb128 0x19
 2391 0b36 E6010000 		.4byte	.LASF162
 2392 0b3a 01       		.byte	0x1
 2393 0b3b 19       		.uleb128 0x19
 2394 0b3c 7E080000 		.4byte	.LASF163
ARM GAS  /tmp/ccJAVx7t.s 			page 43


 2395 0b40 02       		.byte	0x2
 2396 0b41 00       		.byte	0
 2397 0b42 03       		.uleb128 0x3
 2398 0b43 B9080000 		.4byte	.LASF164
 2399 0b47 13       		.byte	0x13
 2400 0b48 61       		.byte	0x61
 2401 0b49 03       		.byte	0x3
 2402 0b4a 210B0000 		.4byte	0xb21
 2403 0b4e 03       		.uleb128 0x3
 2404 0b4f A8070000 		.4byte	.LASF165
 2405 0b53 13       		.byte	0x13
 2406 0b54 66       		.byte	0x66
 2407 0b55 1D       		.byte	0x1d
 2408 0b56 5A0B0000 		.4byte	0xb5a
 2409 0b5a 07       		.uleb128 0x7
 2410 0b5b A8070000 		.4byte	.LASF165
 2411 0b5f 74       		.byte	0x74
 2412 0b60 13       		.byte	0x13
 2413 0b61 80       		.byte	0x80
 2414 0b62 08       		.byte	0x8
 2415 0b63 C10B0000 		.4byte	0xbc1
 2416 0b67 09       		.uleb128 0x9
 2417 0b68 766D7400 		.ascii	"vmt\000"
 2418 0b6c 13       		.byte	0x13
 2419 0b6d 82       		.byte	0x82
 2420 0b6e 21       		.byte	0x21
 2421 0b6f 480C0000 		.4byte	0xc48
 2422 0b73 00       		.byte	0
 2423 0b74 08       		.uleb128 0x8
 2424 0b75 67040000 		.4byte	.LASF166
 2425 0b79 13       		.byte	0x13
 2426 0b7a 83       		.byte	0x83
 2427 0b7b 03       		.byte	0x3
 2428 0b7c 42050000 		.4byte	0x542
 2429 0b80 04       		.byte	0x4
 2430 0b81 08       		.uleb128 0x8
 2431 0b82 C4020000 		.4byte	.LASF143
 2432 0b86 13       		.byte	0x13
 2433 0b87 83       		.byte	0x83
 2434 0b88 03       		.byte	0x3
 2435 0b89 420B0000 		.4byte	0xb42
 2436 0b8d 08       		.byte	0x8
 2437 0b8e 08       		.uleb128 0x8
 2438 0b8f 15040000 		.4byte	.LASF167
 2439 0b93 13       		.byte	0x13
 2440 0b94 83       		.byte	0x83
 2441 0b95 03       		.byte	0x3
 2442 0b96 81070000 		.4byte	0x781
 2443 0b9a 0C       		.byte	0xc
 2444 0b9b 08       		.uleb128 0x8
 2445 0b9c A0040000 		.4byte	.LASF168
 2446 0ba0 13       		.byte	0x13
 2447 0ba1 83       		.byte	0x83
 2448 0ba2 03       		.byte	0x3
 2449 0ba3 8D070000 		.4byte	0x78d
 2450 0ba7 30       		.byte	0x30
 2451 0ba8 09       		.uleb128 0x9
ARM GAS  /tmp/ccJAVx7t.s 			page 44


 2452 0ba9 696200   		.ascii	"ib\000"
 2453 0bac 13       		.byte	0x13
 2454 0bad 83       		.byte	0x83
 2455 0bae 03       		.byte	0x3
 2456 0baf 4E0C0000 		.4byte	0xc4e
 2457 0bb3 54       		.byte	0x54
 2458 0bb4 09       		.uleb128 0x9
 2459 0bb5 6F6200   		.ascii	"ob\000"
 2460 0bb8 13       		.byte	0x13
 2461 0bb9 83       		.byte	0x83
 2462 0bba 03       		.byte	0x3
 2463 0bbb 4E0C0000 		.4byte	0xc4e
 2464 0bbf 64       		.byte	0x64
 2465 0bc0 00       		.byte	0
 2466 0bc1 1A       		.uleb128 0x1a
 2467 0bc2 53443100 		.ascii	"SD1\000"
 2468 0bc6 16       		.byte	0x16
 2469 0bc7 62       		.byte	0x62
 2470 0bc8 15       		.byte	0x15
 2471 0bc9 4E0B0000 		.4byte	0xb4e
 2472 0bcd 07       		.uleb128 0x7
 2473 0bce FE030000 		.4byte	.LASF169
 2474 0bd2 20       		.byte	0x20
 2475 0bd3 13       		.byte	0x13
 2476 0bd4 75       		.byte	0x75
 2477 0bd5 08       		.byte	0x8
 2478 0bd6 430C0000 		.4byte	0xc43
 2479 0bda 08       		.uleb128 0x8
 2480 0bdb F9000000 		.4byte	.LASF170
 2481 0bdf 13       		.byte	0x13
 2482 0be0 76       		.byte	0x76
 2483 0be1 03       		.byte	0x3
 2484 0be2 B8070000 		.4byte	0x7b8
 2485 0be6 00       		.byte	0
 2486 0be7 08       		.uleb128 0x8
 2487 0be8 C3070000 		.4byte	.LASF171
 2488 0bec 13       		.byte	0x13
 2489 0bed 76       		.byte	0x76
 2490 0bee 03       		.byte	0x3
 2491 0bef D7070000 		.4byte	0x7d7
 2492 0bf3 04       		.byte	0x4
 2493 0bf4 09       		.uleb128 0x9
 2494 0bf5 70757400 		.ascii	"put\000"
 2495 0bf9 13       		.byte	0x13
 2496 0bfa 76       		.byte	0x76
 2497 0bfb 03       		.byte	0x3
 2498 0bfc F1070000 		.4byte	0x7f1
 2499 0c00 08       		.byte	0x8
 2500 0c01 09       		.uleb128 0x9
 2501 0c02 67657400 		.ascii	"get\000"
 2502 0c06 13       		.byte	0x13
 2503 0c07 76       		.byte	0x76
 2504 0c08 03       		.byte	0x3
 2505 0c09 A0050000 		.4byte	0x5a0
 2506 0c0d 0C       		.byte	0xc
 2507 0c0e 08       		.uleb128 0x8
 2508 0c0f 2C050000 		.4byte	.LASF172
ARM GAS  /tmp/ccJAVx7t.s 			page 45


 2509 0c13 13       		.byte	0x13
 2510 0c14 76       		.byte	0x76
 2511 0c15 03       		.byte	0x3
 2512 0c16 B5080000 		.4byte	0x8b5
 2513 0c1a 10       		.byte	0x10
 2514 0c1b 08       		.uleb128 0x8
 2515 0c1c 3F040000 		.4byte	.LASF173
 2516 0c20 13       		.byte	0x13
 2517 0c21 76       		.byte	0x76
 2518 0c22 03       		.byte	0x3
 2519 0c23 CF080000 		.4byte	0x8cf
 2520 0c27 14       		.byte	0x14
 2521 0c28 08       		.uleb128 0x8
 2522 0c29 AF040000 		.4byte	.LASF174
 2523 0c2d 13       		.byte	0x13
 2524 0c2e 76       		.byte	0x76
 2525 0c2f 03       		.byte	0x3
 2526 0c30 F3080000 		.4byte	0x8f3
 2527 0c34 18       		.byte	0x18
 2528 0c35 08       		.uleb128 0x8
 2529 0c36 8F010000 		.4byte	.LASF175
 2530 0c3a 13       		.byte	0x13
 2531 0c3b 76       		.byte	0x76
 2532 0c3c 03       		.byte	0x3
 2533 0c3d 17090000 		.4byte	0x917
 2534 0c41 1C       		.byte	0x1c
 2535 0c42 00       		.byte	0
 2536 0c43 06       		.uleb128 0x6
 2537 0c44 CD0B0000 		.4byte	0xbcd
 2538 0c48 0B       		.uleb128 0xb
 2539 0c49 04       		.byte	0x4
 2540 0c4a 430C0000 		.4byte	0xc43
 2541 0c4e 13       		.uleb128 0x13
 2542 0c4f 6C000000 		.4byte	0x6c
 2543 0c53 5E0C0000 		.4byte	0xc5e
 2544 0c57 14       		.uleb128 0x14
 2545 0c58 38000000 		.4byte	0x38
 2546 0c5c 0F       		.byte	0xf
 2547 0c5d 00       		.byte	0
 2548 0c5e 18       		.uleb128 0x18
 2549 0c5f 07       		.byte	0x7
 2550 0c60 01       		.byte	0x1
 2551 0c61 7D000000 		.4byte	0x7d
 2552 0c65 14       		.byte	0x14
 2553 0c66 4E       		.byte	0x4e
 2554 0c67 0E       		.byte	0xe
 2555 0c68 8B0C0000 		.4byte	0xc8b
 2556 0c6c 19       		.uleb128 0x19
 2557 0c6d 91080000 		.4byte	.LASF176
 2558 0c71 00       		.byte	0
 2559 0c72 19       		.uleb128 0x19
 2560 0c73 D0010000 		.4byte	.LASF177
 2561 0c77 01       		.byte	0x1
 2562 0c78 19       		.uleb128 0x19
 2563 0c79 87080000 		.4byte	.LASF178
 2564 0c7d 02       		.byte	0x2
 2565 0c7e 19       		.uleb128 0x19
ARM GAS  /tmp/ccJAVx7t.s 			page 46


 2566 0c7f 0B010000 		.4byte	.LASF179
 2567 0c83 03       		.byte	0x3
 2568 0c84 19       		.uleb128 0x19
 2569 0c85 E4070000 		.4byte	.LASF180
 2570 0c89 04       		.byte	0x4
 2571 0c8a 00       		.byte	0
 2572 0c8b 03       		.uleb128 0x3
 2573 0c8c 04080000 		.4byte	.LASF181
 2574 0c90 14       		.byte	0x14
 2575 0c91 54       		.byte	0x54
 2576 0c92 03       		.byte	0x3
 2577 0c93 5E0C0000 		.4byte	0xc5e
 2578 0c97 03       		.uleb128 0x3
 2579 0c98 63010000 		.4byte	.LASF182
 2580 0c9c 15       		.byte	0x15
 2581 0c9d 35       		.byte	0x35
 2582 0c9e 1A       		.byte	0x1a
 2583 0c9f A30C0000 		.4byte	0xca3
 2584 0ca3 07       		.uleb128 0x7
 2585 0ca4 63010000 		.4byte	.LASF182
 2586 0ca8 28       		.byte	0x28
 2587 0ca9 15       		.byte	0x15
 2588 0caa 7C       		.byte	0x7c
 2589 0cab 08       		.byte	0x8
 2590 0cac 0C0D0000 		.4byte	0xd0c
 2591 0cb0 08       		.uleb128 0x8
 2592 0cb1 C4020000 		.4byte	.LASF143
 2593 0cb5 15       		.byte	0x15
 2594 0cb6 80       		.byte	0x80
 2595 0cb7 19       		.byte	0x19
 2596 0cb8 8B0C0000 		.4byte	0xc8b
 2597 0cbc 00       		.byte	0
 2598 0cbd 08       		.uleb128 0x8
 2599 0cbe F1070000 		.4byte	.LASF144
 2600 0cc2 15       		.byte	0x15
 2601 0cc3 84       		.byte	0x84
 2602 0cc4 1A       		.byte	0x1a
 2603 0cc5 BF0D0000 		.4byte	0xdbf
 2604 0cc9 04       		.byte	0x4
 2605 0cca 08       		.uleb128 0x8
 2606 0ccb E7020000 		.4byte	.LASF148
 2607 0ccf 15       		.byte	0x15
 2608 0cd0 89       		.byte	0x89
 2609 0cd1 1A       		.byte	0x1a
 2610 0cd2 5C020000 		.4byte	0x25c
 2611 0cd6 08       		.byte	0x8
 2612 0cd7 08       		.uleb128 0x8
 2613 0cd8 80060000 		.4byte	.LASF147
 2614 0cdc 15       		.byte	0x15
 2615 0cdd 90       		.byte	0x90
 2616 0cde 19       		.byte	0x19
 2617 0cdf C7040000 		.4byte	0x4c7
 2618 0ce3 0C       		.byte	0xc
 2619 0ce4 08       		.uleb128 0x8
 2620 0ce5 29010000 		.4byte	.LASF153
 2621 0ce9 15       		.byte	0x15
 2622 0cea 98       		.byte	0x98
ARM GAS  /tmp/ccJAVx7t.s 			page 47


 2623 0ceb 1A       		.byte	0x1a
 2624 0cec A9020000 		.4byte	0x2a9
 2625 0cf0 1C       		.byte	0x1c
 2626 0cf1 08       		.uleb128 0x8
 2627 0cf2 F8030000 		.4byte	.LASF150
 2628 0cf6 15       		.byte	0x15
 2629 0cf7 9D       		.byte	0x9d
 2630 0cf8 1A       		.byte	0x1a
 2631 0cf9 C50D0000 		.4byte	0xdc5
 2632 0cfd 20       		.byte	0x20
 2633 0cfe 08       		.uleb128 0x8
 2634 0cff 58030000 		.4byte	.LASF183
 2635 0d03 15       		.byte	0x15
 2636 0d04 A2       		.byte	0xa2
 2637 0d05 17       		.byte	0x17
 2638 0d06 2C000000 		.4byte	0x2c
 2639 0d0a 24       		.byte	0x24
 2640 0d0b 00       		.byte	0
 2641 0d0c 03       		.uleb128 0x3
 2642 0d0d BF030000 		.4byte	.LASF184
 2643 0d11 15       		.byte	0x15
 2644 0d12 3D       		.byte	0x3d
 2645 0d13 10       		.byte	0x10
 2646 0d14 180D0000 		.4byte	0xd18
 2647 0d18 0B       		.uleb128 0xb
 2648 0d19 04       		.byte	0x4
 2649 0d1a 1E0D0000 		.4byte	0xd1e
 2650 0d1e 0D       		.uleb128 0xd
 2651 0d1f 290D0000 		.4byte	0xd29
 2652 0d23 0E       		.uleb128 0xe
 2653 0d24 290D0000 		.4byte	0xd29
 2654 0d28 00       		.byte	0
 2655 0d29 0B       		.uleb128 0xb
 2656 0d2a 04       		.byte	0x4
 2657 0d2b 970C0000 		.4byte	0xc97
 2658 0d2f 0A       		.uleb128 0xa
 2659 0d30 10       		.byte	0x10
 2660 0d31 15       		.byte	0x15
 2661 0d32 44       		.byte	0x44
 2662 0d33 09       		.byte	0x9
 2663 0d34 AE0D0000 		.4byte	0xdae
 2664 0d38 08       		.uleb128 0x8
 2665 0d39 51030000 		.4byte	.LASF185
 2666 0d3d 15       		.byte	0x15
 2667 0d3e 48       		.byte	0x48
 2668 0d3f 19       		.byte	0x19
 2669 0d40 0C0D0000 		.4byte	0xd0c
 2670 0d44 00       		.byte	0
 2671 0d45 08       		.uleb128 0x8
 2672 0d46 EF050000 		.4byte	.LASF186
 2673 0d4a 15       		.byte	0x15
 2674 0d4b 4F       		.byte	0x4f
 2675 0d4c 19       		.byte	0x19
 2676 0d4d 6C000000 		.4byte	0x6c
 2677 0d51 04       		.byte	0x4
 2678 0d52 08       		.uleb128 0x8
 2679 0d53 0F060000 		.4byte	.LASF187
ARM GAS  /tmp/ccJAVx7t.s 			page 48


 2680 0d57 15       		.byte	0x15
 2681 0d58 52       		.byte	0x52
 2682 0d59 19       		.byte	0x19
 2683 0d5a 6C000000 		.4byte	0x6c
 2684 0d5e 05       		.byte	0x5
 2685 0d5f 08       		.uleb128 0x8
 2686 0d60 52040000 		.4byte	.LASF188
 2687 0d64 15       		.byte	0x15
 2688 0d65 58       		.byte	0x58
 2689 0d66 19       		.byte	0x19
 2690 0d67 6C000000 		.4byte	0x6c
 2691 0d6b 06       		.byte	0x6
 2692 0d6c 08       		.uleb128 0x8
 2693 0d6d 5E030000 		.4byte	.LASF189
 2694 0d71 15       		.byte	0x15
 2695 0d72 5E       		.byte	0x5e
 2696 0d73 19       		.byte	0x19
 2697 0d74 6C000000 		.4byte	0x6c
 2698 0d78 07       		.byte	0x7
 2699 0d79 08       		.uleb128 0x8
 2700 0d7a 74030000 		.4byte	.LASF190
 2701 0d7e 15       		.byte	0x15
 2702 0d7f 64       		.byte	0x64
 2703 0d80 19       		.byte	0x19
 2704 0d81 6C000000 		.4byte	0x6c
 2705 0d85 08       		.byte	0x8
 2706 0d86 08       		.uleb128 0x8
 2707 0d87 4F080000 		.4byte	.LASF191
 2708 0d8b 15       		.byte	0x15
 2709 0d8c 6A       		.byte	0x6a
 2710 0d8d 19       		.byte	0x19
 2711 0d8e 6C000000 		.4byte	0x6c
 2712 0d92 09       		.byte	0x9
 2713 0d93 08       		.uleb128 0x8
 2714 0d94 2D030000 		.4byte	.LASF192
 2715 0d98 15       		.byte	0x15
 2716 0d99 70       		.byte	0x70
 2717 0d9a 19       		.byte	0x19
 2718 0d9b 6C000000 		.4byte	0x6c
 2719 0d9f 0A       		.byte	0xa
 2720 0da0 08       		.uleb128 0x8
 2721 0da1 35070000 		.4byte	.LASF193
 2722 0da5 15       		.byte	0x15
 2723 0da6 73       		.byte	0x73
 2724 0da7 19       		.byte	0x19
 2725 0da8 97000000 		.4byte	0x97
 2726 0dac 0C       		.byte	0xc
 2727 0dad 00       		.byte	0
 2728 0dae 03       		.uleb128 0x3
 2729 0daf 45090000 		.4byte	.LASF194
 2730 0db3 15       		.byte	0x15
 2731 0db4 75       		.byte	0x75
 2732 0db5 03       		.byte	0x3
 2733 0db6 2F0D0000 		.4byte	0xd2f
 2734 0dba 06       		.uleb128 0x6
 2735 0dbb AE0D0000 		.4byte	0xdae
 2736 0dbf 0B       		.uleb128 0xb
ARM GAS  /tmp/ccJAVx7t.s 			page 49


 2737 0dc0 04       		.byte	0x4
 2738 0dc1 BA0D0000 		.4byte	0xdba
 2739 0dc5 0B       		.uleb128 0xb
 2740 0dc6 04       		.byte	0x4
 2741 0dc7 CB0D0000 		.4byte	0xdcb
 2742 0dcb 1B       		.uleb128 0x1b
 2743 0dcc 0F       		.uleb128 0xf
 2744 0dcd 10030000 		.4byte	.LASF195
 2745 0dd1 15       		.byte	0x15
 2746 0dd2 B6       		.byte	0xb6
 2747 0dd3 14       		.byte	0x14
 2748 0dd4 970C0000 		.4byte	0xc97
 2749 0dd8 1C       		.uleb128 0x1c
 2750 0dd9 150B0000 		.4byte	0xb15
 2751 0ddd 01       		.byte	0x1
 2752 0dde 2A       		.byte	0x2a
 2753 0ddf 0B       		.byte	0xb
 2754 0de0 05       		.uleb128 0x5
 2755 0de1 03       		.byte	0x3
 2756 0de2 00000000 		.4byte	I2C0
 2757 0de6 1D       		.uleb128 0x1d
 2758 0de7 D2030000 		.4byte	.LASF196
 2759 0deb 01       		.byte	0x1
 2760 0dec 2B       		.byte	0x2b
 2761 0ded 0B       		.byte	0xb
 2762 0dee 000A0000 		.4byte	0xa00
 2763 0df2 05       		.uleb128 0x5
 2764 0df3 03       		.byte	0x3
 2765 0df4 00000000 		.4byte	I2C1
 2766 0df8 1E       		.uleb128 0x1e
 2767 0df9 49020000 		.4byte	.LASF198
 2768 0dfd 01       		.byte	0x1
 2769 0dfe 0D01     		.2byte	0x10d
 2770 0e00 07       		.byte	0x7
 2771 0e01 F2000000 		.4byte	0xf2
 2772 0e05 00000000 		.4byte	.LFB13
 2773 0e09 CC000000 		.4byte	.LFE13-.LFB13
 2774 0e0d 01       		.uleb128 0x1
 2775 0e0e 9C       		.byte	0x9c
 2776 0e0f E80E0000 		.4byte	0xee8
 2777 0e13 1F       		.uleb128 0x1f
 2778 0e14 6D010000 		.4byte	.LASF197
 2779 0e18 01       		.byte	0x1
 2780 0e19 0D01     		.2byte	0x10d
 2781 0e1b 31       		.byte	0x31
 2782 0e1c DB0A0000 		.4byte	0xadb
 2783 0e20 08000000 		.4byte	.LLST12
 2784 0e24 00000000 		.4byte	.LVUS12
 2785 0e28 1F       		.uleb128 0x1f
 2786 0e29 80020000 		.4byte	.LASF149
 2787 0e2d 01       		.byte	0x1
 2788 0e2e 0D01     		.2byte	0x10d
 2789 0e30 41       		.byte	0x41
 2790 0e31 CF0A0000 		.4byte	0xacf
 2791 0e35 43000000 		.4byte	.LLST13
 2792 0e39 3F000000 		.4byte	.LVUS13
 2793 0e3d 1F       		.uleb128 0x1f
ARM GAS  /tmp/ccJAVx7t.s 			page 50


 2794 0e3e 29010000 		.4byte	.LASF153
 2795 0e42 01       		.byte	0x1
 2796 0e43 0E01     		.2byte	0x10e
 2797 0e45 13       		.byte	0x13
 2798 0e46 7B070000 		.4byte	0x77b
 2799 0e4a 6A000000 		.4byte	.LLST14
 2800 0e4e 64000000 		.4byte	.LVUS14
 2801 0e52 1F       		.uleb128 0x1f
 2802 0e53 93050000 		.4byte	.LASF154
 2803 0e57 01       		.byte	0x1
 2804 0e58 0E01     		.2byte	0x10e
 2805 0e5a 21       		.byte	0x21
 2806 0e5b 2C000000 		.4byte	0x2c
 2807 0e5f 9E000000 		.4byte	.LLST15
 2808 0e63 96000000 		.4byte	.LVUS15
 2809 0e67 20       		.uleb128 0x20
 2810 0e68 37040000 		.4byte	.LASF200
 2811 0e6c 01       		.byte	0x1
 2812 0e6d 0F01     		.2byte	0x10f
 2813 0e6f 14       		.byte	0x14
 2814 0e70 16010000 		.4byte	0x116
 2815 0e74 02       		.uleb128 0x2
 2816 0e75 91       		.byte	0x91
 2817 0e76 00       		.sleb128 0
 2818 0e77 21       		.uleb128 0x21
 2819 0e78 767400   		.ascii	"vt\000"
 2820 0e7b 01       		.byte	0x1
 2821 0e7c 1001     		.2byte	0x110
 2822 0e7e 10       		.byte	0x10
 2823 0e7f 65030000 		.4byte	0x365
 2824 0e83 02       		.uleb128 0x2
 2825 0e84 91       		.byte	0x91
 2826 0e85 54       		.sleb128 -44
 2827 0e86 22       		.uleb128 0x22
 2828 0e87 95010000 		.4byte	.LASF146
 2829 0e8b 01       		.byte	0x1
 2830 0e8c 1F01     		.2byte	0x11f
 2831 0e8e 10       		.byte	0x10
 2832 0e8f 0F0B0000 		.4byte	0xb0f
 2833 0e93 D8000000 		.4byte	.LLST16
 2834 0e97 D6000000 		.4byte	.LVUS16
 2835 0e9b 23       		.uleb128 0x23
 2836 0e9c 38000000 		.4byte	.LVL39
 2837 0ea0 41120000 		.4byte	0x1241
 2838 0ea4 C40E0000 		.4byte	0xec4
 2839 0ea8 24       		.uleb128 0x24
 2840 0ea9 01       		.uleb128 0x1
 2841 0eaa 50       		.byte	0x50
 2842 0eab 02       		.uleb128 0x2
 2843 0eac 91       		.byte	0x91
 2844 0ead 4C       		.sleb128 -52
 2845 0eae 24       		.uleb128 0x24
 2846 0eaf 01       		.uleb128 0x1
 2847 0eb0 51       		.byte	0x51
 2848 0eb1 02       		.uleb128 0x2
 2849 0eb2 78       		.byte	0x78
 2850 0eb3 00       		.sleb128 0
ARM GAS  /tmp/ccJAVx7t.s 			page 51


 2851 0eb4 24       		.uleb128 0x24
 2852 0eb5 01       		.uleb128 0x1
 2853 0eb6 52       		.byte	0x52
 2854 0eb7 05       		.uleb128 0x5
 2855 0eb8 03       		.byte	0x3
 2856 0eb9 00000000 		.4byte	i2c_lld_safety_timeout
 2857 0ebd 24       		.uleb128 0x24
 2858 0ebe 01       		.uleb128 0x1
 2859 0ebf 53       		.byte	0x53
 2860 0ec0 02       		.uleb128 0x2
 2861 0ec1 74       		.byte	0x74
 2862 0ec2 00       		.sleb128 0
 2863 0ec3 00       		.byte	0
 2864 0ec4 23       		.uleb128 0x23
 2865 0ec5 8C000000 		.4byte	.LVL42
 2866 0ec9 4D120000 		.4byte	0x124d
 2867 0ecd D70E0000 		.4byte	0xed7
 2868 0ed1 24       		.uleb128 0x24
 2869 0ed2 01       		.uleb128 0x1
 2870 0ed3 50       		.byte	0x50
 2871 0ed4 01       		.uleb128 0x1
 2872 0ed5 32       		.byte	0x32
 2873 0ed6 00       		.byte	0
 2874 0ed7 25       		.uleb128 0x25
 2875 0ed8 A8000000 		.4byte	.LVL43
 2876 0edc 59120000 		.4byte	0x1259
 2877 0ee0 24       		.uleb128 0x24
 2878 0ee1 01       		.uleb128 0x1
 2879 0ee2 50       		.byte	0x50
 2880 0ee3 02       		.uleb128 0x2
 2881 0ee4 91       		.byte	0x91
 2882 0ee5 4C       		.sleb128 -52
 2883 0ee6 00       		.byte	0
 2884 0ee7 00       		.byte	0
 2885 0ee8 26       		.uleb128 0x26
 2886 0ee9 85020000 		.4byte	.LASF199
 2887 0eed 01       		.byte	0x1
 2888 0eee CD       		.byte	0xcd
 2889 0eef 07       		.byte	0x7
 2890 0ef0 F2000000 		.4byte	0xf2
 2891 0ef4 00000000 		.4byte	.LFB12
 2892 0ef8 3C010000 		.4byte	.LFE12-.LFB12
 2893 0efc 01       		.uleb128 0x1
 2894 0efd 9C       		.byte	0x9c
 2895 0efe 43100000 		.4byte	0x1043
 2896 0f02 27       		.uleb128 0x27
 2897 0f03 6D010000 		.4byte	.LASF197
 2898 0f07 01       		.byte	0x1
 2899 0f08 CD       		.byte	0xcd
 2900 0f09 32       		.byte	0x32
 2901 0f0a DB0A0000 		.4byte	0xadb
 2902 0f0e F3000000 		.4byte	.LLST17
 2903 0f12 EB000000 		.4byte	.LVUS17
 2904 0f16 27       		.uleb128 0x27
 2905 0f17 80020000 		.4byte	.LASF149
 2906 0f1b 01       		.byte	0x1
 2907 0f1c CD       		.byte	0xcd
ARM GAS  /tmp/ccJAVx7t.s 			page 52


 2908 0f1d 42       		.byte	0x42
 2909 0f1e CF0A0000 		.4byte	0xacf
 2910 0f22 2E010000 		.4byte	.LLST18
 2911 0f26 2A010000 		.4byte	.LVUS18
 2912 0f2a 27       		.uleb128 0x27
 2913 0f2b F8030000 		.4byte	.LASF150
 2914 0f2f 01       		.byte	0x1
 2915 0f30 CE       		.byte	0xce
 2916 0f31 37       		.byte	0x37
 2917 0f32 B2070000 		.4byte	0x7b2
 2918 0f36 55010000 		.4byte	.LLST19
 2919 0f3a 4F010000 		.4byte	.LVUS19
 2920 0f3e 27       		.uleb128 0x27
 2921 0f3f A8090000 		.4byte	.LASF151
 2922 0f43 01       		.byte	0x1
 2923 0f44 CE       		.byte	0xce
 2924 0f45 45       		.byte	0x45
 2925 0f46 2C000000 		.4byte	0x2c
 2926 0f4a 89010000 		.4byte	.LLST20
 2927 0f4e 81010000 		.4byte	.LVUS20
 2928 0f52 28       		.uleb128 0x28
 2929 0f53 29010000 		.4byte	.LASF153
 2930 0f57 01       		.byte	0x1
 2931 0f58 CF       		.byte	0xcf
 2932 0f59 31       		.byte	0x31
 2933 0f5a 7B070000 		.4byte	0x77b
 2934 0f5e 02       		.uleb128 0x2
 2935 0f5f 91       		.byte	0x91
 2936 0f60 00       		.sleb128 0
 2937 0f61 28       		.uleb128 0x28
 2938 0f62 93050000 		.4byte	.LASF154
 2939 0f66 01       		.byte	0x1
 2940 0f67 CF       		.byte	0xcf
 2941 0f68 46       		.byte	0x46
 2942 0f69 78000000 		.4byte	0x78
 2943 0f6d 02       		.uleb128 0x2
 2944 0f6e 91       		.byte	0x91
 2945 0f6f 04       		.sleb128 4
 2946 0f70 28       		.uleb128 0x28
 2947 0f71 37040000 		.4byte	.LASF200
 2948 0f75 01       		.byte	0x1
 2949 0f76 D0       		.byte	0xd0
 2950 0f77 32       		.byte	0x32
 2951 0f78 16010000 		.4byte	0x116
 2952 0f7c 02       		.uleb128 0x2
 2953 0f7d 91       		.byte	0x91
 2954 0f7e 08       		.sleb128 8
 2955 0f7f 29       		.uleb128 0x29
 2956 0f80 767400   		.ascii	"vt\000"
 2957 0f83 01       		.byte	0x1
 2958 0f84 D1       		.byte	0xd1
 2959 0f85 10       		.byte	0x10
 2960 0f86 65030000 		.4byte	0x365
 2961 0f8a 02       		.uleb128 0x2
 2962 0f8b 91       		.byte	0x91
 2963 0f8c 4C       		.sleb128 -52
 2964 0f8d 2A       		.uleb128 0x2a
ARM GAS  /tmp/ccJAVx7t.s 			page 53


 2965 0f8e 95010000 		.4byte	.LASF146
 2966 0f92 01       		.byte	0x1
 2967 0f93 DF       		.byte	0xdf
 2968 0f94 10       		.byte	0x10
 2969 0f95 0F0B0000 		.4byte	0xb0f
 2970 0f99 C3010000 		.4byte	.LLST21
 2971 0f9d C1010000 		.4byte	.LVUS21
 2972 0fa1 2A       		.uleb128 0x2a
 2973 0fa2 E8080000 		.4byte	.LASF117
 2974 0fa6 01       		.byte	0x1
 2975 0fa7 F1       		.byte	0xf1
 2976 0fa8 09       		.byte	0x9
 2977 0fa9 F2000000 		.4byte	0xf2
 2978 0fad DE010000 		.4byte	.LLST22
 2979 0fb1 D6010000 		.4byte	.LVUS22
 2980 0fb5 23       		.uleb128 0x23
 2981 0fb6 40000000 		.4byte	.LVL50
 2982 0fba 41120000 		.4byte	0x1241
 2983 0fbe DE0F0000 		.4byte	0xfde
 2984 0fc2 24       		.uleb128 0x24
 2985 0fc3 01       		.uleb128 0x1
 2986 0fc4 50       		.byte	0x50
 2987 0fc5 02       		.uleb128 0x2
 2988 0fc6 91       		.byte	0x91
 2989 0fc7 44       		.sleb128 -60
 2990 0fc8 24       		.uleb128 0x24
 2991 0fc9 01       		.uleb128 0x1
 2992 0fca 51       		.byte	0x51
 2993 0fcb 02       		.uleb128 0x2
 2994 0fcc 76       		.byte	0x76
 2995 0fcd 00       		.sleb128 0
 2996 0fce 24       		.uleb128 0x24
 2997 0fcf 01       		.uleb128 0x1
 2998 0fd0 52       		.byte	0x52
 2999 0fd1 05       		.uleb128 0x5
 3000 0fd2 03       		.byte	0x3
 3001 0fd3 00000000 		.4byte	i2c_lld_safety_timeout
 3002 0fd7 24       		.uleb128 0x24
 3003 0fd8 01       		.uleb128 0x1
 3004 0fd9 53       		.byte	0x53
 3005 0fda 02       		.uleb128 0x2
 3006 0fdb 74       		.byte	0x74
 3007 0fdc 00       		.sleb128 0
 3008 0fdd 00       		.byte	0
 3009 0fde 23       		.uleb128 0x23
 3010 0fdf 9C000000 		.4byte	.LVL53
 3011 0fe3 4D120000 		.4byte	0x124d
 3012 0fe7 F10F0000 		.4byte	0xff1
 3013 0feb 24       		.uleb128 0x24
 3014 0fec 01       		.uleb128 0x1
 3015 0fed 50       		.byte	0x50
 3016 0fee 01       		.uleb128 0x1
 3017 0fef 32       		.byte	0x32
 3018 0ff0 00       		.byte	0
 3019 0ff1 23       		.uleb128 0x23
 3020 0ff2 B8000000 		.4byte	.LVL54
 3021 0ff6 59120000 		.4byte	0x1259
ARM GAS  /tmp/ccJAVx7t.s 			page 54


 3022 0ffa 05100000 		.4byte	0x1005
 3023 0ffe 24       		.uleb128 0x24
 3024 0fff 01       		.uleb128 0x1
 3025 1000 50       		.byte	0x50
 3026 1001 02       		.uleb128 0x2
 3027 1002 91       		.byte	0x91
 3028 1003 44       		.sleb128 -60
 3029 1004 00       		.byte	0
 3030 1005 23       		.uleb128 0x23
 3031 1006 04010000 		.4byte	.LVL57
 3032 100a F80D0000 		.4byte	0xdf8
 3033 100e 32100000 		.4byte	0x1032
 3034 1012 24       		.uleb128 0x24
 3035 1013 01       		.uleb128 0x1
 3036 1014 50       		.byte	0x50
 3037 1015 02       		.uleb128 0x2
 3038 1016 74       		.byte	0x74
 3039 1017 00       		.sleb128 0
 3040 1018 24       		.uleb128 0x24
 3041 1019 01       		.uleb128 0x1
 3042 101a 51       		.byte	0x51
 3043 101b 02       		.uleb128 0x2
 3044 101c 75       		.byte	0x75
 3045 101d 00       		.sleb128 0
 3046 101e 24       		.uleb128 0x24
 3047 101f 01       		.uleb128 0x1
 3048 1020 52       		.byte	0x52
 3049 1021 02       		.uleb128 0x2
 3050 1022 78       		.byte	0x78
 3051 1023 00       		.sleb128 0
 3052 1024 24       		.uleb128 0x24
 3053 1025 01       		.uleb128 0x1
 3054 1026 53       		.byte	0x53
 3055 1027 02       		.uleb128 0x2
 3056 1028 77       		.byte	0x77
 3057 1029 00       		.sleb128 0
 3058 102a 24       		.uleb128 0x24
 3059 102b 02       		.uleb128 0x2
 3060 102c 7D       		.byte	0x7d
 3061 102d 00       		.sleb128 0
 3062 102e 02       		.uleb128 0x2
 3063 102f 09       		.byte	0x9
 3064 1030 FF       		.byte	0xff
 3065 1031 00       		.byte	0
 3066 1032 25       		.uleb128 0x25
 3067 1033 24010000 		.4byte	.LVL60
 3068 1037 59120000 		.4byte	0x1259
 3069 103b 24       		.uleb128 0x24
 3070 103c 01       		.uleb128 0x1
 3071 103d 50       		.byte	0x50
 3072 103e 02       		.uleb128 0x2
 3073 103f 91       		.byte	0x91
 3074 1040 44       		.sleb128 -60
 3075 1041 00       		.byte	0
 3076 1042 00       		.byte	0
 3077 1043 2B       		.uleb128 0x2b
 3078 1044 05050000 		.4byte	.LASF201
ARM GAS  /tmp/ccJAVx7t.s 			page 55


 3079 1048 01       		.byte	0x1
 3080 1049 B1       		.byte	0xb1
 3081 104a 06       		.byte	0x6
 3082 104b 00000000 		.4byte	.LFB11
 3083 104f 34000000 		.4byte	.LFE11-.LFB11
 3084 1053 01       		.uleb128 0x1
 3085 1054 9C       		.byte	0x9c
 3086 1055 9A100000 		.4byte	0x109a
 3087 1059 27       		.uleb128 0x27
 3088 105a 6D010000 		.4byte	.LASF197
 3089 105e 01       		.byte	0x1
 3090 105f B1       		.byte	0xb1
 3091 1060 1E       		.byte	0x1e
 3092 1061 DB0A0000 		.4byte	0xadb
 3093 1065 16020000 		.4byte	.LLST11
 3094 1069 12020000 		.4byte	.LVUS11
 3095 106d 23       		.uleb128 0x23
 3096 106e 14000000 		.4byte	.LVL32
 3097 1072 65120000 		.4byte	0x1265
 3098 1076 85100000 		.4byte	0x1085
 3099 107a 24       		.uleb128 0x24
 3100 107b 01       		.uleb128 0x1
 3101 107c 50       		.byte	0x50
 3102 107d 01       		.uleb128 0x1
 3103 107e 32       		.byte	0x32
 3104 107f 24       		.uleb128 0x24
 3105 1080 01       		.uleb128 0x1
 3106 1081 51       		.byte	0x51
 3107 1082 01       		.uleb128 0x1
 3108 1083 30       		.byte	0x30
 3109 1084 00       		.byte	0
 3110 1085 25       		.uleb128 0x25
 3111 1086 20000000 		.4byte	.LVL33
 3112 108a 65120000 		.4byte	0x1265
 3113 108e 24       		.uleb128 0x24
 3114 108f 01       		.uleb128 0x1
 3115 1090 50       		.byte	0x50
 3116 1091 01       		.uleb128 0x1
 3117 1092 33       		.byte	0x33
 3118 1093 24       		.uleb128 0x24
 3119 1094 01       		.uleb128 0x1
 3120 1095 51       		.byte	0x51
 3121 1096 01       		.uleb128 0x1
 3122 1097 30       		.byte	0x30
 3123 1098 00       		.byte	0
 3124 1099 00       		.byte	0
 3125 109a 2C       		.uleb128 0x2c
 3126 109b 86060000 		.4byte	.LASF202
 3127 109f 01       		.byte	0x1
 3128 10a0 99       		.byte	0x99
 3129 10a1 06       		.byte	0x6
 3130 10a2 00000000 		.4byte	.LFB10
 3131 10a6 68000000 		.4byte	.LFE10-.LFB10
 3132 10aa 01       		.uleb128 0x1
 3133 10ab 9C       		.byte	0x9c
 3134 10ac 05110000 		.4byte	0x1105
 3135 10b0 27       		.uleb128 0x27
ARM GAS  /tmp/ccJAVx7t.s 			page 56


 3136 10b1 6D010000 		.4byte	.LASF197
 3137 10b5 01       		.byte	0x1
 3138 10b6 99       		.byte	0x99
 3139 10b7 1F       		.byte	0x1f
 3140 10b8 DB0A0000 		.4byte	0xadb
 3141 10bc 38020000 		.4byte	.LLST9
 3142 10c0 34020000 		.4byte	.LVUS9
 3143 10c4 2A       		.uleb128 0x2a
 3144 10c5 E7040000 		.4byte	.LASF203
 3145 10c9 01       		.byte	0x1
 3146 10ca A3       		.byte	0xa3
 3147 10cb 0C       		.byte	0xc
 3148 10cc 97000000 		.4byte	0x97
 3149 10d0 5A020000 		.4byte	.LLST10
 3150 10d4 56020000 		.4byte	.LVUS10
 3151 10d8 23       		.uleb128 0x23
 3152 10d9 14000000 		.4byte	.LVL24
 3153 10dd 65120000 		.4byte	0x1265
 3154 10e1 F0100000 		.4byte	0x10f0
 3155 10e5 24       		.uleb128 0x24
 3156 10e6 01       		.uleb128 0x1
 3157 10e7 50       		.byte	0x50
 3158 10e8 01       		.uleb128 0x1
 3159 10e9 32       		.byte	0x32
 3160 10ea 24       		.uleb128 0x24
 3161 10eb 01       		.uleb128 0x1
 3162 10ec 51       		.byte	0x51
 3163 10ed 01       		.uleb128 0x1
 3164 10ee 34       		.byte	0x34
 3165 10ef 00       		.byte	0
 3166 10f0 25       		.uleb128 0x25
 3167 10f1 20000000 		.4byte	.LVL25
 3168 10f5 65120000 		.4byte	0x1265
 3169 10f9 24       		.uleb128 0x24
 3170 10fa 01       		.uleb128 0x1
 3171 10fb 50       		.byte	0x50
 3172 10fc 01       		.uleb128 0x1
 3173 10fd 33       		.byte	0x33
 3174 10fe 24       		.uleb128 0x24
 3175 10ff 01       		.uleb128 0x1
 3176 1100 51       		.byte	0x51
 3177 1101 01       		.uleb128 0x1
 3178 1102 34       		.byte	0x34
 3179 1103 00       		.byte	0
 3180 1104 00       		.byte	0
 3181 1105 2B       		.uleb128 0x2b
 3182 1106 D4080000 		.4byte	.LASF204
 3183 110a 01       		.byte	0x1
 3184 110b 8D       		.byte	0x8d
 3185 110c 06       		.byte	0x6
 3186 110d 00000000 		.4byte	.LFB9
 3187 1111 18000000 		.4byte	.LFE9-.LFB9
 3188 1115 01       		.uleb128 0x1
 3189 1116 9C       		.byte	0x9c
 3190 1117 2F110000 		.4byte	0x112f
 3191 111b 2D       		.uleb128 0x2d
 3192 111c 10000000 		.4byte	.LVL21
ARM GAS  /tmp/ccJAVx7t.s 			page 57


 3193 1120 72120000 		.4byte	0x1272
 3194 1124 24       		.uleb128 0x24
 3195 1125 01       		.uleb128 0x1
 3196 1126 50       		.byte	0x50
 3197 1127 05       		.uleb128 0x5
 3198 1128 03       		.byte	0x3
 3199 1129 00000000 		.4byte	I2C0
 3200 112d 00       		.byte	0
 3201 112e 00       		.byte	0
 3202 112f 2B       		.uleb128 0x2b
 3203 1130 68020000 		.4byte	.LASF205
 3204 1134 01       		.byte	0x1
 3205 1135 6A       		.byte	0x6a
 3206 1136 06       		.byte	0x6
 3207 1137 00000000 		.4byte	.LFB8
 3208 113b 40010000 		.4byte	.LFE8-.LFB8
 3209 113f 01       		.uleb128 0x1
 3210 1140 9C       		.byte	0x9c
 3211 1141 CE110000 		.4byte	0x11ce
 3212 1145 27       		.uleb128 0x27
 3213 1146 6D010000 		.4byte	.LASF197
 3214 114a 01       		.byte	0x1
 3215 114b 6A       		.byte	0x6a
 3216 114c 29       		.byte	0x29
 3217 114d DB0A0000 		.4byte	0xadb
 3218 1151 82020000 		.4byte	.LLST4
 3219 1155 78020000 		.4byte	.LVUS4
 3220 1159 2A       		.uleb128 0x2a
 3221 115a 95010000 		.4byte	.LASF146
 3222 115e 01       		.byte	0x1
 3223 115f 6C       		.byte	0x6c
 3224 1160 10       		.byte	0x10
 3225 1161 0F0B0000 		.4byte	0xb0f
 3226 1165 D1020000 		.4byte	.LLST5
 3227 1169 C7020000 		.4byte	.LVUS5
 3228 116d 2A       		.uleb128 0x2a
 3229 116e E8080000 		.4byte	.LASF117
 3230 1172 01       		.byte	0x1
 3231 1173 6D       		.byte	0x6d
 3232 1174 0C       		.byte	0xc
 3233 1175 97000000 		.4byte	0x97
 3234 1179 1D030000 		.4byte	.LLST6
 3235 117d 15030000 		.4byte	.LVUS6
 3236 1181 2E       		.uleb128 0x2e
 3237 1182 1C000000 		.4byte	.LBB5
 3238 1186 18000000 		.4byte	.LBE5-.LBB5
 3239 118a AB110000 		.4byte	0x11ab
 3240 118e 2F       		.uleb128 0x2f
 3241 118f 747000   		.ascii	"tp\000"
 3242 1192 01       		.byte	0x1
 3243 1193 71       		.byte	0x71
 3244 1194 05       		.byte	0x5
 3245 1195 5C020000 		.4byte	0x25c
 3246 1199 53030000 		.4byte	.LLST7
 3247 119d 51030000 		.4byte	.LVUS7
 3248 11a1 30       		.uleb128 0x30
 3249 11a2 34000000 		.4byte	.LVL13
ARM GAS  /tmp/ccJAVx7t.s 			page 58


 3250 11a6 7E120000 		.4byte	0x127e
 3251 11aa 00       		.byte	0
 3252 11ab 31       		.uleb128 0x31
 3253 11ac 20000000 		.4byte	.Ldebug_ranges0+0x20
 3254 11b0 2F       		.uleb128 0x2f
 3255 11b1 747000   		.ascii	"tp\000"
 3256 11b4 01       		.byte	0x1
 3257 11b5 78       		.byte	0x78
 3258 11b6 05       		.byte	0x5
 3259 11b7 5C020000 		.4byte	0x25c
 3260 11bb 68030000 		.4byte	.LLST8
 3261 11bf 66030000 		.4byte	.LVUS8
 3262 11c3 30       		.uleb128 0x30
 3263 11c4 A0000000 		.4byte	.LVL17
 3264 11c8 7E120000 		.4byte	0x127e
 3265 11cc 00       		.byte	0
 3266 11cd 00       		.byte	0
 3267 11ce 32       		.uleb128 0x32
 3268 11cf CD070000 		.4byte	.LASF215
 3269 11d3 01       		.byte	0x1
 3270 11d4 4F       		.byte	0x4f
 3271 11d5 0D       		.byte	0xd
 3272 11d6 00000000 		.4byte	.LFB7
 3273 11da 70000000 		.4byte	.LFE7-.LFB7
 3274 11de 01       		.uleb128 0x1
 3275 11df 9C       		.byte	0x9c
 3276 11e0 41120000 		.4byte	0x1241
 3277 11e4 33       		.uleb128 0x33
 3278 11e5 7000     		.ascii	"p\000"
 3279 11e7 01       		.byte	0x1
 3280 11e8 4F       		.byte	0x4f
 3281 11e9 2A       		.byte	0x2a
 3282 11ea A9020000 		.4byte	0x2a9
 3283 11ee 81030000 		.4byte	.LLST0
 3284 11f2 7B030000 		.4byte	.LVUS0
 3285 11f6 2A       		.uleb128 0x2a
 3286 11f7 6D010000 		.4byte	.LASF197
 3287 11fb 01       		.byte	0x1
 3288 11fc 50       		.byte	0x50
 3289 11fd 0E       		.byte	0xe
 3290 11fe DB0A0000 		.4byte	0xadb
 3291 1202 B3030000 		.4byte	.LLST1
 3292 1206 AD030000 		.4byte	.LVUS1
 3293 120a 31       		.uleb128 0x31
 3294 120b 00000000 		.4byte	.Ldebug_ranges0+0
 3295 120f 2A       		.uleb128 0x2a
 3296 1210 95010000 		.4byte	.LASF146
 3297 1214 01       		.byte	0x1
 3298 1215 53       		.byte	0x53
 3299 1216 12       		.byte	0x12
 3300 1217 0F0B0000 		.4byte	0xb0f
 3301 121b E1030000 		.4byte	.LLST2
 3302 121f DF030000 		.4byte	.LVUS2
 3303 1223 2F       		.uleb128 0x2f
 3304 1224 747000   		.ascii	"tp\000"
 3305 1227 01       		.byte	0x1
 3306 1228 5E       		.byte	0x5e
ARM GAS  /tmp/ccJAVx7t.s 			page 59


 3307 1229 0D       		.byte	0xd
 3308 122a 5C020000 		.4byte	0x25c
 3309 122e F6030000 		.4byte	.LLST3
 3310 1232 F4030000 		.4byte	.LVUS3
 3311 1236 30       		.uleb128 0x30
 3312 1237 6C000000 		.4byte	.LVL5
 3313 123b 7E120000 		.4byte	0x127e
 3314 123f 00       		.byte	0
 3315 1240 00       		.byte	0
 3316 1241 34       		.uleb128 0x34
 3317 1242 82050000 		.4byte	.LASF206
 3318 1246 82050000 		.4byte	.LASF206
 3319 124a 08       		.byte	0x8
 3320 124b DA       		.byte	0xda
 3321 124c 08       		.byte	0x8
 3322 124d 34       		.uleb128 0x34
 3323 124e 5B070000 		.4byte	.LASF207
 3324 1252 5B070000 		.4byte	.LASF207
 3325 1256 09       		.byte	0x9
 3326 1257 8C       		.byte	0x8c
 3327 1258 08       		.byte	0x8
 3328 1259 34       		.uleb128 0x34
 3329 125a D3020000 		.4byte	.LASF208
 3330 125e D3020000 		.4byte	.LASF208
 3331 1262 08       		.byte	0x8
 3332 1263 DB       		.byte	0xdb
 3333 1264 08       		.byte	0x8
 3334 1265 35       		.uleb128 0x35
 3335 1266 FC050000 		.4byte	.LASF209
 3336 126a FC050000 		.4byte	.LASF209
 3337 126e 0F       		.byte	0xf
 3338 126f 8C01     		.2byte	0x18c
 3339 1271 08       		.byte	0x8
 3340 1272 34       		.uleb128 0x34
 3341 1273 5E080000 		.4byte	.LASF210
 3342 1277 5E080000 		.4byte	.LASF210
 3343 127b 11       		.byte	0x11
 3344 127c 7A       		.byte	0x7a
 3345 127d 08       		.byte	0x8
 3346 127e 34       		.uleb128 0x34
 3347 127f F8070000 		.4byte	.LASF211
 3348 1283 F8070000 		.4byte	.LASF211
 3349 1287 09       		.byte	0x9
 3350 1288 89       		.byte	0x89
 3351 1289 0B       		.byte	0xb
 3352 128a 00       		.byte	0
 3353              		.section	.debug_abbrev,"",%progbits
 3354              	.Ldebug_abbrev0:
 3355 0000 01       		.uleb128 0x1
 3356 0001 11       		.uleb128 0x11
 3357 0002 01       		.byte	0x1
 3358 0003 25       		.uleb128 0x25
 3359 0004 0E       		.uleb128 0xe
 3360 0005 13       		.uleb128 0x13
 3361 0006 0B       		.uleb128 0xb
 3362 0007 03       		.uleb128 0x3
 3363 0008 0E       		.uleb128 0xe
ARM GAS  /tmp/ccJAVx7t.s 			page 60


 3364 0009 1B       		.uleb128 0x1b
 3365 000a 0E       		.uleb128 0xe
 3366 000b 55       		.uleb128 0x55
 3367 000c 17       		.uleb128 0x17
 3368 000d 11       		.uleb128 0x11
 3369 000e 01       		.uleb128 0x1
 3370 000f 10       		.uleb128 0x10
 3371 0010 17       		.uleb128 0x17
 3372 0011 00       		.byte	0
 3373 0012 00       		.byte	0
 3374 0013 02       		.uleb128 0x2
 3375 0014 24       		.uleb128 0x24
 3376 0015 00       		.byte	0
 3377 0016 0B       		.uleb128 0xb
 3378 0017 0B       		.uleb128 0xb
 3379 0018 3E       		.uleb128 0x3e
 3380 0019 0B       		.uleb128 0xb
 3381 001a 03       		.uleb128 0x3
 3382 001b 08       		.uleb128 0x8
 3383 001c 00       		.byte	0
 3384 001d 00       		.byte	0
 3385 001e 03       		.uleb128 0x3
 3386 001f 16       		.uleb128 0x16
 3387 0020 00       		.byte	0
 3388 0021 03       		.uleb128 0x3
 3389 0022 0E       		.uleb128 0xe
 3390 0023 3A       		.uleb128 0x3a
 3391 0024 0B       		.uleb128 0xb
 3392 0025 3B       		.uleb128 0x3b
 3393 0026 0B       		.uleb128 0xb
 3394 0027 39       		.uleb128 0x39
 3395 0028 0B       		.uleb128 0xb
 3396 0029 49       		.uleb128 0x49
 3397 002a 13       		.uleb128 0x13
 3398 002b 00       		.byte	0
 3399 002c 00       		.byte	0
 3400 002d 04       		.uleb128 0x4
 3401 002e 24       		.uleb128 0x24
 3402 002f 00       		.byte	0
 3403 0030 0B       		.uleb128 0xb
 3404 0031 0B       		.uleb128 0xb
 3405 0032 3E       		.uleb128 0x3e
 3406 0033 0B       		.uleb128 0xb
 3407 0034 03       		.uleb128 0x3
 3408 0035 0E       		.uleb128 0xe
 3409 0036 00       		.byte	0
 3410 0037 00       		.byte	0
 3411 0038 05       		.uleb128 0x5
 3412 0039 35       		.uleb128 0x35
 3413 003a 00       		.byte	0
 3414 003b 49       		.uleb128 0x49
 3415 003c 13       		.uleb128 0x13
 3416 003d 00       		.byte	0
 3417 003e 00       		.byte	0
 3418 003f 06       		.uleb128 0x6
 3419 0040 26       		.uleb128 0x26
 3420 0041 00       		.byte	0
ARM GAS  /tmp/ccJAVx7t.s 			page 61


 3421 0042 49       		.uleb128 0x49
 3422 0043 13       		.uleb128 0x13
 3423 0044 00       		.byte	0
 3424 0045 00       		.byte	0
 3425 0046 07       		.uleb128 0x7
 3426 0047 13       		.uleb128 0x13
 3427 0048 01       		.byte	0x1
 3428 0049 03       		.uleb128 0x3
 3429 004a 0E       		.uleb128 0xe
 3430 004b 0B       		.uleb128 0xb
 3431 004c 0B       		.uleb128 0xb
 3432 004d 3A       		.uleb128 0x3a
 3433 004e 0B       		.uleb128 0xb
 3434 004f 3B       		.uleb128 0x3b
 3435 0050 0B       		.uleb128 0xb
 3436 0051 39       		.uleb128 0x39
 3437 0052 0B       		.uleb128 0xb
 3438 0053 01       		.uleb128 0x1
 3439 0054 13       		.uleb128 0x13
 3440 0055 00       		.byte	0
 3441 0056 00       		.byte	0
 3442 0057 08       		.uleb128 0x8
 3443 0058 0D       		.uleb128 0xd
 3444 0059 00       		.byte	0
 3445 005a 03       		.uleb128 0x3
 3446 005b 0E       		.uleb128 0xe
 3447 005c 3A       		.uleb128 0x3a
 3448 005d 0B       		.uleb128 0xb
 3449 005e 3B       		.uleb128 0x3b
 3450 005f 0B       		.uleb128 0xb
 3451 0060 39       		.uleb128 0x39
 3452 0061 0B       		.uleb128 0xb
 3453 0062 49       		.uleb128 0x49
 3454 0063 13       		.uleb128 0x13
 3455 0064 38       		.uleb128 0x38
 3456 0065 0B       		.uleb128 0xb
 3457 0066 00       		.byte	0
 3458 0067 00       		.byte	0
 3459 0068 09       		.uleb128 0x9
 3460 0069 0D       		.uleb128 0xd
 3461 006a 00       		.byte	0
 3462 006b 03       		.uleb128 0x3
 3463 006c 08       		.uleb128 0x8
 3464 006d 3A       		.uleb128 0x3a
 3465 006e 0B       		.uleb128 0xb
 3466 006f 3B       		.uleb128 0x3b
 3467 0070 0B       		.uleb128 0xb
 3468 0071 39       		.uleb128 0x39
 3469 0072 0B       		.uleb128 0xb
 3470 0073 49       		.uleb128 0x49
 3471 0074 13       		.uleb128 0x13
 3472 0075 38       		.uleb128 0x38
 3473 0076 0B       		.uleb128 0xb
 3474 0077 00       		.byte	0
 3475 0078 00       		.byte	0
 3476 0079 0A       		.uleb128 0xa
 3477 007a 13       		.uleb128 0x13
ARM GAS  /tmp/ccJAVx7t.s 			page 62


 3478 007b 01       		.byte	0x1
 3479 007c 0B       		.uleb128 0xb
 3480 007d 0B       		.uleb128 0xb
 3481 007e 3A       		.uleb128 0x3a
 3482 007f 0B       		.uleb128 0xb
 3483 0080 3B       		.uleb128 0x3b
 3484 0081 0B       		.uleb128 0xb
 3485 0082 39       		.uleb128 0x39
 3486 0083 0B       		.uleb128 0xb
 3487 0084 01       		.uleb128 0x1
 3488 0085 13       		.uleb128 0x13
 3489 0086 00       		.byte	0
 3490 0087 00       		.byte	0
 3491 0088 0B       		.uleb128 0xb
 3492 0089 0F       		.uleb128 0xf
 3493 008a 00       		.byte	0
 3494 008b 0B       		.uleb128 0xb
 3495 008c 0B       		.uleb128 0xb
 3496 008d 49       		.uleb128 0x49
 3497 008e 13       		.uleb128 0x13
 3498 008f 00       		.byte	0
 3499 0090 00       		.byte	0
 3500 0091 0C       		.uleb128 0xc
 3501 0092 0F       		.uleb128 0xf
 3502 0093 00       		.byte	0
 3503 0094 0B       		.uleb128 0xb
 3504 0095 0B       		.uleb128 0xb
 3505 0096 00       		.byte	0
 3506 0097 00       		.byte	0
 3507 0098 0D       		.uleb128 0xd
 3508 0099 15       		.uleb128 0x15
 3509 009a 01       		.byte	0x1
 3510 009b 27       		.uleb128 0x27
 3511 009c 19       		.uleb128 0x19
 3512 009d 01       		.uleb128 0x1
 3513 009e 13       		.uleb128 0x13
 3514 009f 00       		.byte	0
 3515 00a0 00       		.byte	0
 3516 00a1 0E       		.uleb128 0xe
 3517 00a2 05       		.uleb128 0x5
 3518 00a3 00       		.byte	0
 3519 00a4 49       		.uleb128 0x49
 3520 00a5 13       		.uleb128 0x13
 3521 00a6 00       		.byte	0
 3522 00a7 00       		.byte	0
 3523 00a8 0F       		.uleb128 0xf
 3524 00a9 34       		.uleb128 0x34
 3525 00aa 00       		.byte	0
 3526 00ab 03       		.uleb128 0x3
 3527 00ac 0E       		.uleb128 0xe
 3528 00ad 3A       		.uleb128 0x3a
 3529 00ae 0B       		.uleb128 0xb
 3530 00af 3B       		.uleb128 0x3b
 3531 00b0 0B       		.uleb128 0xb
 3532 00b1 39       		.uleb128 0x39
 3533 00b2 0B       		.uleb128 0xb
 3534 00b3 49       		.uleb128 0x49
ARM GAS  /tmp/ccJAVx7t.s 			page 63


 3535 00b4 13       		.uleb128 0x13
 3536 00b5 3F       		.uleb128 0x3f
 3537 00b6 19       		.uleb128 0x19
 3538 00b7 3C       		.uleb128 0x3c
 3539 00b8 19       		.uleb128 0x19
 3540 00b9 00       		.byte	0
 3541 00ba 00       		.byte	0
 3542 00bb 10       		.uleb128 0x10
 3543 00bc 17       		.uleb128 0x17
 3544 00bd 01       		.byte	0x1
 3545 00be 0B       		.uleb128 0xb
 3546 00bf 0B       		.uleb128 0xb
 3547 00c0 3A       		.uleb128 0x3a
 3548 00c1 0B       		.uleb128 0xb
 3549 00c2 3B       		.uleb128 0x3b
 3550 00c3 0B       		.uleb128 0xb
 3551 00c4 39       		.uleb128 0x39
 3552 00c5 0B       		.uleb128 0xb
 3553 00c6 01       		.uleb128 0x1
 3554 00c7 13       		.uleb128 0x13
 3555 00c8 00       		.byte	0
 3556 00c9 00       		.byte	0
 3557 00ca 11       		.uleb128 0x11
 3558 00cb 0D       		.uleb128 0xd
 3559 00cc 00       		.byte	0
 3560 00cd 03       		.uleb128 0x3
 3561 00ce 0E       		.uleb128 0xe
 3562 00cf 3A       		.uleb128 0x3a
 3563 00d0 0B       		.uleb128 0xb
 3564 00d1 3B       		.uleb128 0x3b
 3565 00d2 0B       		.uleb128 0xb
 3566 00d3 39       		.uleb128 0x39
 3567 00d4 0B       		.uleb128 0xb
 3568 00d5 49       		.uleb128 0x49
 3569 00d6 13       		.uleb128 0x13
 3570 00d7 00       		.byte	0
 3571 00d8 00       		.byte	0
 3572 00d9 12       		.uleb128 0x12
 3573 00da 15       		.uleb128 0x15
 3574 00db 01       		.byte	0x1
 3575 00dc 27       		.uleb128 0x27
 3576 00dd 19       		.uleb128 0x19
 3577 00de 49       		.uleb128 0x49
 3578 00df 13       		.uleb128 0x13
 3579 00e0 01       		.uleb128 0x1
 3580 00e1 13       		.uleb128 0x13
 3581 00e2 00       		.byte	0
 3582 00e3 00       		.byte	0
 3583 00e4 13       		.uleb128 0x13
 3584 00e5 01       		.uleb128 0x1
 3585 00e6 01       		.byte	0x1
 3586 00e7 49       		.uleb128 0x49
 3587 00e8 13       		.uleb128 0x13
 3588 00e9 01       		.uleb128 0x1
 3589 00ea 13       		.uleb128 0x13
 3590 00eb 00       		.byte	0
 3591 00ec 00       		.byte	0
ARM GAS  /tmp/ccJAVx7t.s 			page 64


 3592 00ed 14       		.uleb128 0x14
 3593 00ee 21       		.uleb128 0x21
 3594 00ef 00       		.byte	0
 3595 00f0 49       		.uleb128 0x49
 3596 00f1 13       		.uleb128 0x13
 3597 00f2 2F       		.uleb128 0x2f
 3598 00f3 0B       		.uleb128 0xb
 3599 00f4 00       		.byte	0
 3600 00f5 00       		.byte	0
 3601 00f6 15       		.uleb128 0x15
 3602 00f7 0D       		.uleb128 0xd
 3603 00f8 00       		.byte	0
 3604 00f9 03       		.uleb128 0x3
 3605 00fa 0E       		.uleb128 0xe
 3606 00fb 3A       		.uleb128 0x3a
 3607 00fc 0B       		.uleb128 0xb
 3608 00fd 3B       		.uleb128 0x3b
 3609 00fe 05       		.uleb128 0x5
 3610 00ff 39       		.uleb128 0x39
 3611 0100 0B       		.uleb128 0xb
 3612 0101 49       		.uleb128 0x49
 3613 0102 13       		.uleb128 0x13
 3614 0103 38       		.uleb128 0x38
 3615 0104 0B       		.uleb128 0xb
 3616 0105 00       		.byte	0
 3617 0106 00       		.byte	0
 3618 0107 16       		.uleb128 0x16
 3619 0108 16       		.uleb128 0x16
 3620 0109 00       		.byte	0
 3621 010a 03       		.uleb128 0x3
 3622 010b 0E       		.uleb128 0xe
 3623 010c 3A       		.uleb128 0x3a
 3624 010d 0B       		.uleb128 0xb
 3625 010e 3B       		.uleb128 0x3b
 3626 010f 05       		.uleb128 0x5
 3627 0110 39       		.uleb128 0x39
 3628 0111 0B       		.uleb128 0xb
 3629 0112 49       		.uleb128 0x49
 3630 0113 13       		.uleb128 0x13
 3631 0114 00       		.byte	0
 3632 0115 00       		.byte	0
 3633 0116 17       		.uleb128 0x17
 3634 0117 13       		.uleb128 0x13
 3635 0118 00       		.byte	0
 3636 0119 0B       		.uleb128 0xb
 3637 011a 0B       		.uleb128 0xb
 3638 011b 3A       		.uleb128 0x3a
 3639 011c 0B       		.uleb128 0xb
 3640 011d 3B       		.uleb128 0x3b
 3641 011e 0B       		.uleb128 0xb
 3642 011f 39       		.uleb128 0x39
 3643 0120 0B       		.uleb128 0xb
 3644 0121 00       		.byte	0
 3645 0122 00       		.byte	0
 3646 0123 18       		.uleb128 0x18
 3647 0124 04       		.uleb128 0x4
 3648 0125 01       		.byte	0x1
ARM GAS  /tmp/ccJAVx7t.s 			page 65


 3649 0126 3E       		.uleb128 0x3e
 3650 0127 0B       		.uleb128 0xb
 3651 0128 0B       		.uleb128 0xb
 3652 0129 0B       		.uleb128 0xb
 3653 012a 49       		.uleb128 0x49
 3654 012b 13       		.uleb128 0x13
 3655 012c 3A       		.uleb128 0x3a
 3656 012d 0B       		.uleb128 0xb
 3657 012e 3B       		.uleb128 0x3b
 3658 012f 0B       		.uleb128 0xb
 3659 0130 39       		.uleb128 0x39
 3660 0131 0B       		.uleb128 0xb
 3661 0132 01       		.uleb128 0x1
 3662 0133 13       		.uleb128 0x13
 3663 0134 00       		.byte	0
 3664 0135 00       		.byte	0
 3665 0136 19       		.uleb128 0x19
 3666 0137 28       		.uleb128 0x28
 3667 0138 00       		.byte	0
 3668 0139 03       		.uleb128 0x3
 3669 013a 0E       		.uleb128 0xe
 3670 013b 1C       		.uleb128 0x1c
 3671 013c 0B       		.uleb128 0xb
 3672 013d 00       		.byte	0
 3673 013e 00       		.byte	0
 3674 013f 1A       		.uleb128 0x1a
 3675 0140 34       		.uleb128 0x34
 3676 0141 00       		.byte	0
 3677 0142 03       		.uleb128 0x3
 3678 0143 08       		.uleb128 0x8
 3679 0144 3A       		.uleb128 0x3a
 3680 0145 0B       		.uleb128 0xb
 3681 0146 3B       		.uleb128 0x3b
 3682 0147 0B       		.uleb128 0xb
 3683 0148 39       		.uleb128 0x39
 3684 0149 0B       		.uleb128 0xb
 3685 014a 49       		.uleb128 0x49
 3686 014b 13       		.uleb128 0x13
 3687 014c 3F       		.uleb128 0x3f
 3688 014d 19       		.uleb128 0x19
 3689 014e 3C       		.uleb128 0x3c
 3690 014f 19       		.uleb128 0x19
 3691 0150 00       		.byte	0
 3692 0151 00       		.byte	0
 3693 0152 1B       		.uleb128 0x1b
 3694 0153 26       		.uleb128 0x26
 3695 0154 00       		.byte	0
 3696 0155 00       		.byte	0
 3697 0156 00       		.byte	0
 3698 0157 1C       		.uleb128 0x1c
 3699 0158 34       		.uleb128 0x34
 3700 0159 00       		.byte	0
 3701 015a 47       		.uleb128 0x47
 3702 015b 13       		.uleb128 0x13
 3703 015c 3A       		.uleb128 0x3a
 3704 015d 0B       		.uleb128 0xb
 3705 015e 3B       		.uleb128 0x3b
ARM GAS  /tmp/ccJAVx7t.s 			page 66


 3706 015f 0B       		.uleb128 0xb
 3707 0160 39       		.uleb128 0x39
 3708 0161 0B       		.uleb128 0xb
 3709 0162 02       		.uleb128 0x2
 3710 0163 18       		.uleb128 0x18
 3711 0164 00       		.byte	0
 3712 0165 00       		.byte	0
 3713 0166 1D       		.uleb128 0x1d
 3714 0167 34       		.uleb128 0x34
 3715 0168 00       		.byte	0
 3716 0169 03       		.uleb128 0x3
 3717 016a 0E       		.uleb128 0xe
 3718 016b 3A       		.uleb128 0x3a
 3719 016c 0B       		.uleb128 0xb
 3720 016d 3B       		.uleb128 0x3b
 3721 016e 0B       		.uleb128 0xb
 3722 016f 39       		.uleb128 0x39
 3723 0170 0B       		.uleb128 0xb
 3724 0171 49       		.uleb128 0x49
 3725 0172 13       		.uleb128 0x13
 3726 0173 3F       		.uleb128 0x3f
 3727 0174 19       		.uleb128 0x19
 3728 0175 02       		.uleb128 0x2
 3729 0176 18       		.uleb128 0x18
 3730 0177 00       		.byte	0
 3731 0178 00       		.byte	0
 3732 0179 1E       		.uleb128 0x1e
 3733 017a 2E       		.uleb128 0x2e
 3734 017b 01       		.byte	0x1
 3735 017c 3F       		.uleb128 0x3f
 3736 017d 19       		.uleb128 0x19
 3737 017e 03       		.uleb128 0x3
 3738 017f 0E       		.uleb128 0xe
 3739 0180 3A       		.uleb128 0x3a
 3740 0181 0B       		.uleb128 0xb
 3741 0182 3B       		.uleb128 0x3b
 3742 0183 05       		.uleb128 0x5
 3743 0184 39       		.uleb128 0x39
 3744 0185 0B       		.uleb128 0xb
 3745 0186 27       		.uleb128 0x27
 3746 0187 19       		.uleb128 0x19
 3747 0188 49       		.uleb128 0x49
 3748 0189 13       		.uleb128 0x13
 3749 018a 11       		.uleb128 0x11
 3750 018b 01       		.uleb128 0x1
 3751 018c 12       		.uleb128 0x12
 3752 018d 06       		.uleb128 0x6
 3753 018e 40       		.uleb128 0x40
 3754 018f 18       		.uleb128 0x18
 3755 0190 9742     		.uleb128 0x2117
 3756 0192 19       		.uleb128 0x19
 3757 0193 01       		.uleb128 0x1
 3758 0194 13       		.uleb128 0x13
 3759 0195 00       		.byte	0
 3760 0196 00       		.byte	0
 3761 0197 1F       		.uleb128 0x1f
 3762 0198 05       		.uleb128 0x5
ARM GAS  /tmp/ccJAVx7t.s 			page 67


 3763 0199 00       		.byte	0
 3764 019a 03       		.uleb128 0x3
 3765 019b 0E       		.uleb128 0xe
 3766 019c 3A       		.uleb128 0x3a
 3767 019d 0B       		.uleb128 0xb
 3768 019e 3B       		.uleb128 0x3b
 3769 019f 05       		.uleb128 0x5
 3770 01a0 39       		.uleb128 0x39
 3771 01a1 0B       		.uleb128 0xb
 3772 01a2 49       		.uleb128 0x49
 3773 01a3 13       		.uleb128 0x13
 3774 01a4 02       		.uleb128 0x2
 3775 01a5 17       		.uleb128 0x17
 3776 01a6 B742     		.uleb128 0x2137
 3777 01a8 17       		.uleb128 0x17
 3778 01a9 00       		.byte	0
 3779 01aa 00       		.byte	0
 3780 01ab 20       		.uleb128 0x20
 3781 01ac 05       		.uleb128 0x5
 3782 01ad 00       		.byte	0
 3783 01ae 03       		.uleb128 0x3
 3784 01af 0E       		.uleb128 0xe
 3785 01b0 3A       		.uleb128 0x3a
 3786 01b1 0B       		.uleb128 0xb
 3787 01b2 3B       		.uleb128 0x3b
 3788 01b3 05       		.uleb128 0x5
 3789 01b4 39       		.uleb128 0x39
 3790 01b5 0B       		.uleb128 0xb
 3791 01b6 49       		.uleb128 0x49
 3792 01b7 13       		.uleb128 0x13
 3793 01b8 02       		.uleb128 0x2
 3794 01b9 18       		.uleb128 0x18
 3795 01ba 00       		.byte	0
 3796 01bb 00       		.byte	0
 3797 01bc 21       		.uleb128 0x21
 3798 01bd 34       		.uleb128 0x34
 3799 01be 00       		.byte	0
 3800 01bf 03       		.uleb128 0x3
 3801 01c0 08       		.uleb128 0x8
 3802 01c1 3A       		.uleb128 0x3a
 3803 01c2 0B       		.uleb128 0xb
 3804 01c3 3B       		.uleb128 0x3b
 3805 01c4 05       		.uleb128 0x5
 3806 01c5 39       		.uleb128 0x39
 3807 01c6 0B       		.uleb128 0xb
 3808 01c7 49       		.uleb128 0x49
 3809 01c8 13       		.uleb128 0x13
 3810 01c9 02       		.uleb128 0x2
 3811 01ca 18       		.uleb128 0x18
 3812 01cb 00       		.byte	0
 3813 01cc 00       		.byte	0
 3814 01cd 22       		.uleb128 0x22
 3815 01ce 34       		.uleb128 0x34
 3816 01cf 00       		.byte	0
 3817 01d0 03       		.uleb128 0x3
 3818 01d1 0E       		.uleb128 0xe
 3819 01d2 3A       		.uleb128 0x3a
ARM GAS  /tmp/ccJAVx7t.s 			page 68


 3820 01d3 0B       		.uleb128 0xb
 3821 01d4 3B       		.uleb128 0x3b
 3822 01d5 05       		.uleb128 0x5
 3823 01d6 39       		.uleb128 0x39
 3824 01d7 0B       		.uleb128 0xb
 3825 01d8 49       		.uleb128 0x49
 3826 01d9 13       		.uleb128 0x13
 3827 01da 02       		.uleb128 0x2
 3828 01db 17       		.uleb128 0x17
 3829 01dc B742     		.uleb128 0x2137
 3830 01de 17       		.uleb128 0x17
 3831 01df 00       		.byte	0
 3832 01e0 00       		.byte	0
 3833 01e1 23       		.uleb128 0x23
 3834 01e2 898201   		.uleb128 0x4109
 3835 01e5 01       		.byte	0x1
 3836 01e6 11       		.uleb128 0x11
 3837 01e7 01       		.uleb128 0x1
 3838 01e8 31       		.uleb128 0x31
 3839 01e9 13       		.uleb128 0x13
 3840 01ea 01       		.uleb128 0x1
 3841 01eb 13       		.uleb128 0x13
 3842 01ec 00       		.byte	0
 3843 01ed 00       		.byte	0
 3844 01ee 24       		.uleb128 0x24
 3845 01ef 8A8201   		.uleb128 0x410a
 3846 01f2 00       		.byte	0
 3847 01f3 02       		.uleb128 0x2
 3848 01f4 18       		.uleb128 0x18
 3849 01f5 9142     		.uleb128 0x2111
 3850 01f7 18       		.uleb128 0x18
 3851 01f8 00       		.byte	0
 3852 01f9 00       		.byte	0
 3853 01fa 25       		.uleb128 0x25
 3854 01fb 898201   		.uleb128 0x4109
 3855 01fe 01       		.byte	0x1
 3856 01ff 11       		.uleb128 0x11
 3857 0200 01       		.uleb128 0x1
 3858 0201 31       		.uleb128 0x31
 3859 0202 13       		.uleb128 0x13
 3860 0203 00       		.byte	0
 3861 0204 00       		.byte	0
 3862 0205 26       		.uleb128 0x26
 3863 0206 2E       		.uleb128 0x2e
 3864 0207 01       		.byte	0x1
 3865 0208 3F       		.uleb128 0x3f
 3866 0209 19       		.uleb128 0x19
 3867 020a 03       		.uleb128 0x3
 3868 020b 0E       		.uleb128 0xe
 3869 020c 3A       		.uleb128 0x3a
 3870 020d 0B       		.uleb128 0xb
 3871 020e 3B       		.uleb128 0x3b
 3872 020f 0B       		.uleb128 0xb
 3873 0210 39       		.uleb128 0x39
 3874 0211 0B       		.uleb128 0xb
 3875 0212 27       		.uleb128 0x27
 3876 0213 19       		.uleb128 0x19
ARM GAS  /tmp/ccJAVx7t.s 			page 69


 3877 0214 49       		.uleb128 0x49
 3878 0215 13       		.uleb128 0x13
 3879 0216 11       		.uleb128 0x11
 3880 0217 01       		.uleb128 0x1
 3881 0218 12       		.uleb128 0x12
 3882 0219 06       		.uleb128 0x6
 3883 021a 40       		.uleb128 0x40
 3884 021b 18       		.uleb128 0x18
 3885 021c 9742     		.uleb128 0x2117
 3886 021e 19       		.uleb128 0x19
 3887 021f 01       		.uleb128 0x1
 3888 0220 13       		.uleb128 0x13
 3889 0221 00       		.byte	0
 3890 0222 00       		.byte	0
 3891 0223 27       		.uleb128 0x27
 3892 0224 05       		.uleb128 0x5
 3893 0225 00       		.byte	0
 3894 0226 03       		.uleb128 0x3
 3895 0227 0E       		.uleb128 0xe
 3896 0228 3A       		.uleb128 0x3a
 3897 0229 0B       		.uleb128 0xb
 3898 022a 3B       		.uleb128 0x3b
 3899 022b 0B       		.uleb128 0xb
 3900 022c 39       		.uleb128 0x39
 3901 022d 0B       		.uleb128 0xb
 3902 022e 49       		.uleb128 0x49
 3903 022f 13       		.uleb128 0x13
 3904 0230 02       		.uleb128 0x2
 3905 0231 17       		.uleb128 0x17
 3906 0232 B742     		.uleb128 0x2137
 3907 0234 17       		.uleb128 0x17
 3908 0235 00       		.byte	0
 3909 0236 00       		.byte	0
 3910 0237 28       		.uleb128 0x28
 3911 0238 05       		.uleb128 0x5
 3912 0239 00       		.byte	0
 3913 023a 03       		.uleb128 0x3
 3914 023b 0E       		.uleb128 0xe
 3915 023c 3A       		.uleb128 0x3a
 3916 023d 0B       		.uleb128 0xb
 3917 023e 3B       		.uleb128 0x3b
 3918 023f 0B       		.uleb128 0xb
 3919 0240 39       		.uleb128 0x39
 3920 0241 0B       		.uleb128 0xb
 3921 0242 49       		.uleb128 0x49
 3922 0243 13       		.uleb128 0x13
 3923 0244 02       		.uleb128 0x2
 3924 0245 18       		.uleb128 0x18
 3925 0246 00       		.byte	0
 3926 0247 00       		.byte	0
 3927 0248 29       		.uleb128 0x29
 3928 0249 34       		.uleb128 0x34
 3929 024a 00       		.byte	0
 3930 024b 03       		.uleb128 0x3
 3931 024c 08       		.uleb128 0x8
 3932 024d 3A       		.uleb128 0x3a
 3933 024e 0B       		.uleb128 0xb
ARM GAS  /tmp/ccJAVx7t.s 			page 70


 3934 024f 3B       		.uleb128 0x3b
 3935 0250 0B       		.uleb128 0xb
 3936 0251 39       		.uleb128 0x39
 3937 0252 0B       		.uleb128 0xb
 3938 0253 49       		.uleb128 0x49
 3939 0254 13       		.uleb128 0x13
 3940 0255 02       		.uleb128 0x2
 3941 0256 18       		.uleb128 0x18
 3942 0257 00       		.byte	0
 3943 0258 00       		.byte	0
 3944 0259 2A       		.uleb128 0x2a
 3945 025a 34       		.uleb128 0x34
 3946 025b 00       		.byte	0
 3947 025c 03       		.uleb128 0x3
 3948 025d 0E       		.uleb128 0xe
 3949 025e 3A       		.uleb128 0x3a
 3950 025f 0B       		.uleb128 0xb
 3951 0260 3B       		.uleb128 0x3b
 3952 0261 0B       		.uleb128 0xb
 3953 0262 39       		.uleb128 0x39
 3954 0263 0B       		.uleb128 0xb
 3955 0264 49       		.uleb128 0x49
 3956 0265 13       		.uleb128 0x13
 3957 0266 02       		.uleb128 0x2
 3958 0267 17       		.uleb128 0x17
 3959 0268 B742     		.uleb128 0x2137
 3960 026a 17       		.uleb128 0x17
 3961 026b 00       		.byte	0
 3962 026c 00       		.byte	0
 3963 026d 2B       		.uleb128 0x2b
 3964 026e 2E       		.uleb128 0x2e
 3965 026f 01       		.byte	0x1
 3966 0270 3F       		.uleb128 0x3f
 3967 0271 19       		.uleb128 0x19
 3968 0272 03       		.uleb128 0x3
 3969 0273 0E       		.uleb128 0xe
 3970 0274 3A       		.uleb128 0x3a
 3971 0275 0B       		.uleb128 0xb
 3972 0276 3B       		.uleb128 0x3b
 3973 0277 0B       		.uleb128 0xb
 3974 0278 39       		.uleb128 0x39
 3975 0279 0B       		.uleb128 0xb
 3976 027a 27       		.uleb128 0x27
 3977 027b 19       		.uleb128 0x19
 3978 027c 11       		.uleb128 0x11
 3979 027d 01       		.uleb128 0x1
 3980 027e 12       		.uleb128 0x12
 3981 027f 06       		.uleb128 0x6
 3982 0280 40       		.uleb128 0x40
 3983 0281 18       		.uleb128 0x18
 3984 0282 9742     		.uleb128 0x2117
 3985 0284 19       		.uleb128 0x19
 3986 0285 01       		.uleb128 0x1
 3987 0286 13       		.uleb128 0x13
 3988 0287 00       		.byte	0
 3989 0288 00       		.byte	0
 3990 0289 2C       		.uleb128 0x2c
ARM GAS  /tmp/ccJAVx7t.s 			page 71


 3991 028a 2E       		.uleb128 0x2e
 3992 028b 01       		.byte	0x1
 3993 028c 3F       		.uleb128 0x3f
 3994 028d 19       		.uleb128 0x19
 3995 028e 03       		.uleb128 0x3
 3996 028f 0E       		.uleb128 0xe
 3997 0290 3A       		.uleb128 0x3a
 3998 0291 0B       		.uleb128 0xb
 3999 0292 3B       		.uleb128 0x3b
 4000 0293 0B       		.uleb128 0xb
 4001 0294 39       		.uleb128 0x39
 4002 0295 0B       		.uleb128 0xb
 4003 0296 27       		.uleb128 0x27
 4004 0297 19       		.uleb128 0x19
 4005 0298 11       		.uleb128 0x11
 4006 0299 01       		.uleb128 0x1
 4007 029a 12       		.uleb128 0x12
 4008 029b 06       		.uleb128 0x6
 4009 029c 40       		.uleb128 0x40
 4010 029d 18       		.uleb128 0x18
 4011 029e 9642     		.uleb128 0x2116
 4012 02a0 19       		.uleb128 0x19
 4013 02a1 01       		.uleb128 0x1
 4014 02a2 13       		.uleb128 0x13
 4015 02a3 00       		.byte	0
 4016 02a4 00       		.byte	0
 4017 02a5 2D       		.uleb128 0x2d
 4018 02a6 898201   		.uleb128 0x4109
 4019 02a9 01       		.byte	0x1
 4020 02aa 11       		.uleb128 0x11
 4021 02ab 01       		.uleb128 0x1
 4022 02ac 9542     		.uleb128 0x2115
 4023 02ae 19       		.uleb128 0x19
 4024 02af 31       		.uleb128 0x31
 4025 02b0 13       		.uleb128 0x13
 4026 02b1 00       		.byte	0
 4027 02b2 00       		.byte	0
 4028 02b3 2E       		.uleb128 0x2e
 4029 02b4 0B       		.uleb128 0xb
 4030 02b5 01       		.byte	0x1
 4031 02b6 11       		.uleb128 0x11
 4032 02b7 01       		.uleb128 0x1
 4033 02b8 12       		.uleb128 0x12
 4034 02b9 06       		.uleb128 0x6
 4035 02ba 01       		.uleb128 0x1
 4036 02bb 13       		.uleb128 0x13
 4037 02bc 00       		.byte	0
 4038 02bd 00       		.byte	0
 4039 02be 2F       		.uleb128 0x2f
 4040 02bf 34       		.uleb128 0x34
 4041 02c0 00       		.byte	0
 4042 02c1 03       		.uleb128 0x3
 4043 02c2 08       		.uleb128 0x8
 4044 02c3 3A       		.uleb128 0x3a
 4045 02c4 0B       		.uleb128 0xb
 4046 02c5 3B       		.uleb128 0x3b
 4047 02c6 0B       		.uleb128 0xb
ARM GAS  /tmp/ccJAVx7t.s 			page 72


 4048 02c7 39       		.uleb128 0x39
 4049 02c8 0B       		.uleb128 0xb
 4050 02c9 49       		.uleb128 0x49
 4051 02ca 13       		.uleb128 0x13
 4052 02cb 02       		.uleb128 0x2
 4053 02cc 17       		.uleb128 0x17
 4054 02cd B742     		.uleb128 0x2137
 4055 02cf 17       		.uleb128 0x17
 4056 02d0 00       		.byte	0
 4057 02d1 00       		.byte	0
 4058 02d2 30       		.uleb128 0x30
 4059 02d3 898201   		.uleb128 0x4109
 4060 02d6 00       		.byte	0
 4061 02d7 11       		.uleb128 0x11
 4062 02d8 01       		.uleb128 0x1
 4063 02d9 9542     		.uleb128 0x2115
 4064 02db 19       		.uleb128 0x19
 4065 02dc 31       		.uleb128 0x31
 4066 02dd 13       		.uleb128 0x13
 4067 02de 00       		.byte	0
 4068 02df 00       		.byte	0
 4069 02e0 31       		.uleb128 0x31
 4070 02e1 0B       		.uleb128 0xb
 4071 02e2 01       		.byte	0x1
 4072 02e3 55       		.uleb128 0x55
 4073 02e4 17       		.uleb128 0x17
 4074 02e5 00       		.byte	0
 4075 02e6 00       		.byte	0
 4076 02e7 32       		.uleb128 0x32
 4077 02e8 2E       		.uleb128 0x2e
 4078 02e9 01       		.byte	0x1
 4079 02ea 03       		.uleb128 0x3
 4080 02eb 0E       		.uleb128 0xe
 4081 02ec 3A       		.uleb128 0x3a
 4082 02ed 0B       		.uleb128 0xb
 4083 02ee 3B       		.uleb128 0x3b
 4084 02ef 0B       		.uleb128 0xb
 4085 02f0 39       		.uleb128 0x39
 4086 02f1 0B       		.uleb128 0xb
 4087 02f2 27       		.uleb128 0x27
 4088 02f3 19       		.uleb128 0x19
 4089 02f4 11       		.uleb128 0x11
 4090 02f5 01       		.uleb128 0x1
 4091 02f6 12       		.uleb128 0x12
 4092 02f7 06       		.uleb128 0x6
 4093 02f8 40       		.uleb128 0x40
 4094 02f9 18       		.uleb128 0x18
 4095 02fa 9742     		.uleb128 0x2117
 4096 02fc 19       		.uleb128 0x19
 4097 02fd 01       		.uleb128 0x1
 4098 02fe 13       		.uleb128 0x13
 4099 02ff 00       		.byte	0
 4100 0300 00       		.byte	0
 4101 0301 33       		.uleb128 0x33
 4102 0302 05       		.uleb128 0x5
 4103 0303 00       		.byte	0
 4104 0304 03       		.uleb128 0x3
ARM GAS  /tmp/ccJAVx7t.s 			page 73


 4105 0305 08       		.uleb128 0x8
 4106 0306 3A       		.uleb128 0x3a
 4107 0307 0B       		.uleb128 0xb
 4108 0308 3B       		.uleb128 0x3b
 4109 0309 0B       		.uleb128 0xb
 4110 030a 39       		.uleb128 0x39
 4111 030b 0B       		.uleb128 0xb
 4112 030c 49       		.uleb128 0x49
 4113 030d 13       		.uleb128 0x13
 4114 030e 02       		.uleb128 0x2
 4115 030f 17       		.uleb128 0x17
 4116 0310 B742     		.uleb128 0x2137
 4117 0312 17       		.uleb128 0x17
 4118 0313 00       		.byte	0
 4119 0314 00       		.byte	0
 4120 0315 34       		.uleb128 0x34
 4121 0316 2E       		.uleb128 0x2e
 4122 0317 00       		.byte	0
 4123 0318 3F       		.uleb128 0x3f
 4124 0319 19       		.uleb128 0x19
 4125 031a 3C       		.uleb128 0x3c
 4126 031b 19       		.uleb128 0x19
 4127 031c 6E       		.uleb128 0x6e
 4128 031d 0E       		.uleb128 0xe
 4129 031e 03       		.uleb128 0x3
 4130 031f 0E       		.uleb128 0xe
 4131 0320 3A       		.uleb128 0x3a
 4132 0321 0B       		.uleb128 0xb
 4133 0322 3B       		.uleb128 0x3b
 4134 0323 0B       		.uleb128 0xb
 4135 0324 39       		.uleb128 0x39
 4136 0325 0B       		.uleb128 0xb
 4137 0326 00       		.byte	0
 4138 0327 00       		.byte	0
 4139 0328 35       		.uleb128 0x35
 4140 0329 2E       		.uleb128 0x2e
 4141 032a 00       		.byte	0
 4142 032b 3F       		.uleb128 0x3f
 4143 032c 19       		.uleb128 0x19
 4144 032d 3C       		.uleb128 0x3c
 4145 032e 19       		.uleb128 0x19
 4146 032f 6E       		.uleb128 0x6e
 4147 0330 0E       		.uleb128 0xe
 4148 0331 03       		.uleb128 0x3
 4149 0332 0E       		.uleb128 0xe
 4150 0333 3A       		.uleb128 0x3a
 4151 0334 0B       		.uleb128 0xb
 4152 0335 3B       		.uleb128 0x3b
 4153 0336 05       		.uleb128 0x5
 4154 0337 39       		.uleb128 0x39
 4155 0338 0B       		.uleb128 0xb
 4156 0339 00       		.byte	0
 4157 033a 00       		.byte	0
 4158 033b 00       		.byte	0
 4159              		.section	.debug_loc,"",%progbits
 4160              	.Ldebug_loc0:
 4161              	.LVUS12:
ARM GAS  /tmp/ccJAVx7t.s 			page 74


 4162 0000 00       		.uleb128 0
 4163 0001 00       		.uleb128 .LVU172
 4164 0002 00       		.uleb128 .LVU172
 4165 0003 00       		.uleb128 .LVU173
 4166 0004 00       		.uleb128 .LVU173
 4167 0005 00       		.uleb128 .LVU218
 4168 0006 00       		.uleb128 .LVU218
 4169 0007 00       		.uleb128 0
 4170              	.LLST12:
 4171 0008 00000000 		.4byte	.LVL34
 4172 000c 34000000 		.4byte	.LVL38
 4173 0010 0100     		.2byte	0x1
 4174 0012 50       		.byte	0x50
 4175 0013 34000000 		.4byte	.LVL38
 4176 0017 37000000 		.4byte	.LVL39-1
 4177 001b 0100     		.2byte	0x1
 4178 001d 53       		.byte	0x53
 4179 001e 37000000 		.4byte	.LVL39-1
 4180 0022 BC000000 		.4byte	.LVL44
 4181 0026 0100     		.2byte	0x1
 4182 0028 54       		.byte	0x54
 4183 0029 BC000000 		.4byte	.LVL44
 4184 002d CC000000 		.4byte	.LFE13
 4185 0031 0400     		.2byte	0x4
 4186 0033 F3       		.byte	0xf3
 4187 0034 01       		.uleb128 0x1
 4188 0035 50       		.byte	0x50
 4189 0036 9F       		.byte	0x9f
 4190 0037 00000000 		.4byte	0
 4191 003b 00000000 		.4byte	0
 4192              	.LVUS13:
 4193 003f 00       		.uleb128 0
 4194 0040 00       		.uleb128 .LVU170
 4195 0041 00       		.uleb128 .LVU170
 4196 0042 00       		.uleb128 0
 4197              	.LLST13:
 4198 0043 00000000 		.4byte	.LVL34
 4199 0047 2C000000 		.4byte	.LVL36
 4200 004b 0100     		.2byte	0x1
 4201 004d 51       		.byte	0x51
 4202 004e 2C000000 		.4byte	.LVL36
 4203 0052 CC000000 		.4byte	.LFE13
 4204 0056 0400     		.2byte	0x4
 4205 0058 F3       		.byte	0xf3
 4206 0059 01       		.uleb128 0x1
 4207 005a 51       		.byte	0x51
 4208 005b 9F       		.byte	0x9f
 4209 005c 00000000 		.4byte	0
 4210 0060 00000000 		.4byte	0
 4211              	.LVUS14:
 4212 0064 00       		.uleb128 0
 4213 0065 00       		.uleb128 .LVU171
 4214 0066 00       		.uleb128 .LVU171
 4215 0067 00       		.uleb128 .LVU218
 4216 0068 00       		.uleb128 .LVU218
 4217 0069 00       		.uleb128 0
 4218              	.LLST14:
ARM GAS  /tmp/ccJAVx7t.s 			page 75


 4219 006a 00000000 		.4byte	.LVL34
 4220 006e 30000000 		.4byte	.LVL37
 4221 0072 0100     		.2byte	0x1
 4222 0074 52       		.byte	0x52
 4223 0075 30000000 		.4byte	.LVL37
 4224 0079 BC000000 		.4byte	.LVL44
 4225 007d 0100     		.2byte	0x1
 4226 007f 57       		.byte	0x57
 4227 0080 BC000000 		.4byte	.LVL44
 4228 0084 CC000000 		.4byte	.LFE13
 4229 0088 0400     		.2byte	0x4
 4230 008a F3       		.byte	0xf3
 4231 008b 01       		.uleb128 0x1
 4232 008c 52       		.byte	0x52
 4233 008d 9F       		.byte	0x9f
 4234 008e 00000000 		.4byte	0
 4235 0092 00000000 		.4byte	0
 4236              	.LVUS15:
 4237 0096 00       		.uleb128 0
 4238 0097 00       		.uleb128 .LVU169
 4239 0098 00       		.uleb128 .LVU169
 4240 0099 00       		.uleb128 .LVU205
 4241 009a 00       		.uleb128 .LVU205
 4242 009b 00       		.uleb128 .LVU208
 4243 009c 00       		.uleb128 .LVU208
 4244 009d 00       		.uleb128 0
 4245              	.LLST15:
 4246 009e 00000000 		.4byte	.LVL34
 4247 00a2 28000000 		.4byte	.LVL35
 4248 00a6 0100     		.2byte	0x1
 4249 00a8 53       		.byte	0x53
 4250 00a9 28000000 		.4byte	.LVL35
 4251 00ad 7C000000 		.4byte	.LVL41
 4252 00b1 0100     		.2byte	0x1
 4253 00b3 55       		.byte	0x55
 4254 00b4 7C000000 		.4byte	.LVL41
 4255 00b8 8B000000 		.4byte	.LVL42-1
 4256 00bc 0200     		.2byte	0x2
 4257 00be 74       		.byte	0x74
 4258 00bf 38       		.sleb128 56
 4259 00c0 8B000000 		.4byte	.LVL42-1
 4260 00c4 CC000000 		.4byte	.LFE13
 4261 00c8 0400     		.2byte	0x4
 4262 00ca F3       		.byte	0xf3
 4263 00cb 01       		.uleb128 0x1
 4264 00cc 53       		.byte	0x53
 4265 00cd 9F       		.byte	0x9f
 4266 00ce 00000000 		.4byte	0
 4267 00d2 00000000 		.4byte	0
 4268              	.LVUS16:
 4269 00d6 07       		.uleb128 .LVU190
 4270 00d7 00       		.uleb128 .LVU208
 4271              	.LLST16:
 4272 00d8 5C000000 		.4byte	.LVL40
 4273 00dc 8B000000 		.4byte	.LVL42-1
 4274 00e0 0100     		.2byte	0x1
 4275 00e2 52       		.byte	0x52
ARM GAS  /tmp/ccJAVx7t.s 			page 76


 4276 00e3 00000000 		.4byte	0
 4277 00e7 00000000 		.4byte	0
 4278              	.LVUS17:
 4279 00eb 00       		.uleb128 0
 4280 00ec 00       		.uleb128 .LVU231
 4281 00ed 00       		.uleb128 .LVU231
 4282 00ee 00       		.uleb128 .LVU232
 4283 00ef 00       		.uleb128 .LVU232
 4284 00f0 00       		.uleb128 .LVU292
 4285 00f1 00       		.uleb128 .LVU292
 4286 00f2 00       		.uleb128 0
 4287              	.LLST17:
 4288 00f3 00000000 		.4byte	.LVL45
 4289 00f7 3C000000 		.4byte	.LVL49
 4290 00fb 0100     		.2byte	0x1
 4291 00fd 50       		.byte	0x50
 4292 00fe 3C000000 		.4byte	.LVL49
 4293 0102 3F000000 		.4byte	.LVL50-1
 4294 0106 0100     		.2byte	0x1
 4295 0108 53       		.byte	0x53
 4296 0109 3F000000 		.4byte	.LVL50-1
 4297 010d 30010000 		.4byte	.LVL61
 4298 0111 0100     		.2byte	0x1
 4299 0113 54       		.byte	0x54
 4300 0114 30010000 		.4byte	.LVL61
 4301 0118 3C010000 		.4byte	.LFE12
 4302 011c 0400     		.2byte	0x4
 4303 011e F3       		.byte	0xf3
 4304 011f 01       		.uleb128 0x1
 4305 0120 50       		.byte	0x50
 4306 0121 9F       		.byte	0x9f
 4307 0122 00000000 		.4byte	0
 4308 0126 00000000 		.4byte	0
 4309              	.LVUS18:
 4310 012a 00       		.uleb128 0
 4311 012b 00       		.uleb128 .LVU229
 4312 012c 00       		.uleb128 .LVU229
 4313 012d 00       		.uleb128 0
 4314              	.LLST18:
 4315 012e 00000000 		.4byte	.LVL45
 4316 0132 34000000 		.4byte	.LVL47
 4317 0136 0100     		.2byte	0x1
 4318 0138 51       		.byte	0x51
 4319 0139 34000000 		.4byte	.LVL47
 4320 013d 3C010000 		.4byte	.LFE12
 4321 0141 0400     		.2byte	0x4
 4322 0143 F3       		.byte	0xf3
 4323 0144 01       		.uleb128 0x1
 4324 0145 51       		.byte	0x51
 4325 0146 9F       		.byte	0x9f
 4326 0147 00000000 		.4byte	0
 4327 014b 00000000 		.4byte	0
 4328              	.LVUS19:
 4329 014f 00       		.uleb128 0
 4330 0150 00       		.uleb128 .LVU230
 4331 0151 00       		.uleb128 .LVU230
 4332 0152 00       		.uleb128 .LVU292
ARM GAS  /tmp/ccJAVx7t.s 			page 77


 4333 0153 00       		.uleb128 .LVU292
 4334 0154 00       		.uleb128 0
 4335              	.LLST19:
 4336 0155 00000000 		.4byte	.LVL45
 4337 0159 38000000 		.4byte	.LVL48
 4338 015d 0100     		.2byte	0x1
 4339 015f 52       		.byte	0x52
 4340 0160 38000000 		.4byte	.LVL48
 4341 0164 30010000 		.4byte	.LVL61
 4342 0168 0100     		.2byte	0x1
 4343 016a 5A       		.byte	0x5a
 4344 016b 30010000 		.4byte	.LVL61
 4345 016f 3C010000 		.4byte	.LFE12
 4346 0173 0400     		.2byte	0x4
 4347 0175 F3       		.byte	0xf3
 4348 0176 01       		.uleb128 0x1
 4349 0177 52       		.byte	0x52
 4350 0178 9F       		.byte	0x9f
 4351 0179 00000000 		.4byte	0
 4352 017d 00000000 		.4byte	0
 4353              	.LVUS20:
 4354 0181 00       		.uleb128 0
 4355 0182 00       		.uleb128 .LVU228
 4356 0183 00       		.uleb128 .LVU228
 4357 0184 00       		.uleb128 .LVU263
 4358 0185 00       		.uleb128 .LVU263
 4359 0186 00       		.uleb128 .LVU266
 4360 0187 00       		.uleb128 .LVU266
 4361 0188 00       		.uleb128 0
 4362              	.LLST20:
 4363 0189 00000000 		.4byte	.LVL45
 4364 018d 30000000 		.4byte	.LVL46
 4365 0191 0100     		.2byte	0x1
 4366 0193 53       		.byte	0x53
 4367 0194 30000000 		.4byte	.LVL46
 4368 0198 8C000000 		.4byte	.LVL52
 4369 019c 0100     		.2byte	0x1
 4370 019e 59       		.byte	0x59
 4371 019f 8C000000 		.4byte	.LVL52
 4372 01a3 9B000000 		.4byte	.LVL53-1
 4373 01a7 0200     		.2byte	0x2
 4374 01a9 74       		.byte	0x74
 4375 01aa 2C       		.sleb128 44
 4376 01ab 9B000000 		.4byte	.LVL53-1
 4377 01af 3C010000 		.4byte	.LFE12
 4378 01b3 0400     		.2byte	0x4
 4379 01b5 F3       		.byte	0xf3
 4380 01b6 01       		.uleb128 0x1
 4381 01b7 53       		.byte	0x53
 4382 01b8 9F       		.byte	0x9f
 4383 01b9 00000000 		.4byte	0
 4384 01bd 00000000 		.4byte	0
 4385              	.LVUS21:
 4386 01c1 05       		.uleb128 .LVU248
 4387 01c2 00       		.uleb128 .LVU266
 4388              	.LLST21:
 4389 01c3 60000000 		.4byte	.LVL51
ARM GAS  /tmp/ccJAVx7t.s 			page 78


 4390 01c7 9B000000 		.4byte	.LVL53-1
 4391 01cb 0100     		.2byte	0x1
 4392 01cd 52       		.byte	0x52
 4393 01ce 00000000 		.4byte	0
 4394 01d2 00000000 		.4byte	0
 4395              	.LVUS22:
 4396 01d6 00       		.uleb128 .LVU277
 4397 01d7 00       		.uleb128 .LVU285
 4398 01d8 00       		.uleb128 .LVU285
 4399 01d9 00       		.uleb128 .LVU289
 4400 01da 00       		.uleb128 .LVU289
 4401 01db 00       		.uleb128 .LVU292
 4402 01dc 00       		.uleb128 .LVU292
 4403 01dd 00       		.uleb128 0
 4404              	.LLST22:
 4405 01de C8000000 		.4byte	.LVL55
 4406 01e2 0C010000 		.4byte	.LVL58
 4407 01e6 0100     		.2byte	0x1
 4408 01e8 59       		.byte	0x59
 4409 01e9 0C010000 		.4byte	.LVL58
 4410 01ed 20010000 		.4byte	.LVL59
 4411 01f1 0100     		.2byte	0x1
 4412 01f3 50       		.byte	0x50
 4413 01f4 20010000 		.4byte	.LVL59
 4414 01f8 30010000 		.4byte	.LVL61
 4415 01fc 0100     		.2byte	0x1
 4416 01fe 59       		.byte	0x59
 4417 01ff 30010000 		.4byte	.LVL61
 4418 0203 3C010000 		.4byte	.LFE12
 4419 0207 0100     		.2byte	0x1
 4420 0209 50       		.byte	0x50
 4421 020a 00000000 		.4byte	0
 4422 020e 00000000 		.4byte	0
 4423              	.LVUS11:
 4424 0212 00       		.uleb128 0
 4425 0213 00       		.uleb128 .LVU154
 4426 0214 00       		.uleb128 .LVU154
 4427 0215 00       		.uleb128 0
 4428              	.LLST11:
 4429 0216 00000000 		.4byte	.LVL30
 4430 021a 10000000 		.4byte	.LVL31
 4431 021e 0100     		.2byte	0x1
 4432 0220 50       		.byte	0x50
 4433 0221 10000000 		.4byte	.LVL31
 4434 0225 34000000 		.4byte	.LFE11
 4435 0229 0100     		.2byte	0x1
 4436 022b 54       		.byte	0x54
 4437 022c 00000000 		.4byte	0
 4438 0230 00000000 		.4byte	0
 4439              	.LVUS9:
 4440 0234 00       		.uleb128 0
 4441 0235 00       		.uleb128 .LVU134
 4442 0236 00       		.uleb128 .LVU134
 4443 0237 00       		.uleb128 0
 4444              	.LLST9:
 4445 0238 00000000 		.4byte	.LVL22
 4446 023c 10000000 		.4byte	.LVL23
ARM GAS  /tmp/ccJAVx7t.s 			page 79


 4447 0240 0100     		.2byte	0x1
 4448 0242 50       		.byte	0x50
 4449 0243 10000000 		.4byte	.LVL23
 4450 0247 68000000 		.4byte	.LFE10
 4451 024b 0100     		.2byte	0x1
 4452 024d 54       		.byte	0x54
 4453 024e 00000000 		.4byte	0
 4454 0252 00000000 		.4byte	0
 4455              	.LVUS10:
 4456 0256 00       		.uleb128 .LVU140
 4457 0257 00       		.uleb128 .LVU142
 4458 0258 00       		.uleb128 .LVU145
 4459 0259 00       		.uleb128 .LVU147
 4460              	.LLST10:
 4461 025a 2C000000 		.4byte	.LVL26
 4462 025e 3C000000 		.4byte	.LVL27
 4463 0262 0100     		.2byte	0x1
 4464 0264 51       		.byte	0x51
 4465 0265 4C000000 		.4byte	.LVL28
 4466 0269 53000000 		.4byte	.LVL29-1
 4467 026d 0100     		.2byte	0x1
 4468 026f 51       		.byte	0x51
 4469 0270 00000000 		.4byte	0
 4470 0274 00000000 		.4byte	0
 4471              	.LVUS4:
 4472 0278 00       		.uleb128 0
 4473 0279 00       		.uleb128 .LVU59
 4474 027a 00       		.uleb128 .LVU59
 4475 027b 00       		.uleb128 .LVU61
 4476 027c 00       		.uleb128 .LVU61
 4477 027d 00       		.uleb128 .LVU94
 4478 027e 00       		.uleb128 .LVU94
 4479 027f 00       		.uleb128 .LVU96
 4480 0280 00       		.uleb128 .LVU96
 4481 0281 00       		.uleb128 0
 4482              	.LLST4:
 4483 0282 00000000 		.4byte	.LVL6
 4484 0286 2C000000 		.4byte	.LVL12
 4485 028a 0100     		.2byte	0x1
 4486 028c 50       		.byte	0x50
 4487 028d 2C000000 		.4byte	.LVL12
 4488 0291 34000000 		.4byte	.LVL13
 4489 0295 0400     		.2byte	0x4
 4490 0297 F3       		.byte	0xf3
 4491 0298 01       		.uleb128 0x1
 4492 0299 50       		.byte	0x50
 4493 029a 9F       		.byte	0x9f
 4494 029b 34000000 		.4byte	.LVL13
 4495 029f 98000000 		.4byte	.LVL16
 4496 02a3 0100     		.2byte	0x1
 4497 02a5 50       		.byte	0x50
 4498 02a6 98000000 		.4byte	.LVL16
 4499 02aa A0000000 		.4byte	.LVL17
 4500 02ae 0400     		.2byte	0x4
 4501 02b0 F3       		.byte	0xf3
 4502 02b1 01       		.uleb128 0x1
 4503 02b2 50       		.byte	0x50
ARM GAS  /tmp/ccJAVx7t.s 			page 80


 4504 02b3 9F       		.byte	0x9f
 4505 02b4 A0000000 		.4byte	.LVL17
 4506 02b8 40010000 		.4byte	.LFE8
 4507 02bc 0100     		.2byte	0x1
 4508 02be 50       		.byte	0x50
 4509 02bf 00000000 		.4byte	0
 4510 02c3 00000000 		.4byte	0
 4511              	.LVUS5:
 4512 02c7 00       		.uleb128 .LVU46
 4513 02c8 00       		.uleb128 .LVU57
 4514 02c9 00       		.uleb128 .LVU57
 4515 02ca 00       		.uleb128 .LVU59
 4516 02cb 00       		.uleb128 .LVU59
 4517 02cc 00       		.uleb128 .LVU61
 4518 02cd 00       		.uleb128 .LVU61
 4519 02ce 00       		.uleb128 .LVU96
 4520 02cf 00       		.uleb128 .LVU96
 4521 02d0 00       		.uleb128 0
 4522              	.LLST5:
 4523 02d1 04000000 		.4byte	.LVL7
 4524 02d5 24000000 		.4byte	.LVL11
 4525 02d9 0100     		.2byte	0x1
 4526 02db 52       		.byte	0x52
 4527 02dc 24000000 		.4byte	.LVL11
 4528 02e0 2C000000 		.4byte	.LVL12
 4529 02e4 0200     		.2byte	0x2
 4530 02e6 70       		.byte	0x70
 4531 02e7 0C       		.sleb128 12
 4532 02e8 2C000000 		.4byte	.LVL12
 4533 02ec 33000000 		.4byte	.LVL13-1
 4534 02f0 0500     		.2byte	0x5
 4535 02f2 F3       		.byte	0xf3
 4536 02f3 01       		.uleb128 0x1
 4537 02f4 50       		.byte	0x50
 4538 02f5 23       		.byte	0x23
 4539 02f6 0C       		.uleb128 0xc
 4540 02f7 34000000 		.4byte	.LVL13
 4541 02fb 9F000000 		.4byte	.LVL17-1
 4542 02ff 0100     		.2byte	0x1
 4543 0301 52       		.byte	0x52
 4544 0302 A0000000 		.4byte	.LVL17
 4545 0306 40010000 		.4byte	.LFE8
 4546 030a 0100     		.2byte	0x1
 4547 030c 52       		.byte	0x52
 4548 030d 00000000 		.4byte	0
 4549 0311 00000000 		.4byte	0
 4550              	.LVUS6:
 4551 0315 00       		.uleb128 .LVU48
 4552 0316 00       		.uleb128 .LVU56
 4553 0317 00       		.uleb128 .LVU61
 4554 0318 00       		.uleb128 .LVU67
 4555 0319 00       		.uleb128 .LVU96
 4556 031a 00       		.uleb128 .LVU105
 4557 031b 00       		.uleb128 .LVU111
 4558 031c 00       		.uleb128 .LVU117
 4559              	.LLST6:
 4560 031d 08000000 		.4byte	.LVL8
ARM GAS  /tmp/ccJAVx7t.s 			page 81


 4561 0321 20000000 		.4byte	.LVL10
 4562 0325 0100     		.2byte	0x1
 4563 0327 51       		.byte	0x51
 4564 0328 34000000 		.4byte	.LVL13
 4565 032c 4C000000 		.4byte	.LVL14
 4566 0330 0100     		.2byte	0x1
 4567 0332 51       		.byte	0x51
 4568 0333 A0000000 		.4byte	.LVL17
 4569 0337 D8000000 		.4byte	.LVL18
 4570 033b 0100     		.2byte	0x1
 4571 033d 51       		.byte	0x51
 4572 033e F4000000 		.4byte	.LVL19
 4573 0342 14010000 		.4byte	.LVL20
 4574 0346 0100     		.2byte	0x1
 4575 0348 51       		.byte	0x51
 4576 0349 00000000 		.4byte	0
 4577 034d 00000000 		.4byte	0
 4578              	.LVUS7:
 4579 0351 01       		.uleb128 .LVU55
 4580 0352 00       		.uleb128 .LVU61
 4581              	.LLST7:
 4582 0353 1C000000 		.4byte	.LVL9
 4583 0357 33000000 		.4byte	.LVL13-1
 4584 035b 0100     		.2byte	0x1
 4585 035d 53       		.byte	0x53
 4586 035e 00000000 		.4byte	0
 4587 0362 00000000 		.4byte	0
 4588              	.LVUS8:
 4589 0366 01       		.uleb128 .LVU90
 4590 0367 00       		.uleb128 .LVU96
 4591              	.LLST8:
 4592 0368 8C000000 		.4byte	.LVL15
 4593 036c 9F000000 		.4byte	.LVL17-1
 4594 0370 0100     		.2byte	0x1
 4595 0372 53       		.byte	0x53
 4596 0373 00000000 		.4byte	0
 4597 0377 00000000 		.4byte	0
 4598              	.LVUS0:
 4599 037b 00       		.uleb128 0
 4600 037c 00       		.uleb128 .LVU8
 4601 037d 00       		.uleb128 .LVU8
 4602 037e 00       		.uleb128 .LVU41
 4603 037f 00       		.uleb128 .LVU41
 4604 0380 00       		.uleb128 0
 4605              	.LLST0:
 4606 0381 00000000 		.4byte	.LVL0
 4607 0385 08000000 		.4byte	.LVL2
 4608 0389 0100     		.2byte	0x1
 4609 038b 50       		.byte	0x50
 4610 038c 08000000 		.4byte	.LVL2
 4611 0390 6B000000 		.4byte	.LVL5-1
 4612 0394 0100     		.2byte	0x1
 4613 0396 53       		.byte	0x53
 4614 0397 6B000000 		.4byte	.LVL5-1
 4615 039b 70000000 		.4byte	.LFE7
 4616 039f 0400     		.2byte	0x4
 4617 03a1 F3       		.byte	0xf3
ARM GAS  /tmp/ccJAVx7t.s 			page 82


 4618 03a2 01       		.uleb128 0x1
 4619 03a3 50       		.byte	0x50
 4620 03a4 9F       		.byte	0x9f
 4621 03a5 00000000 		.4byte	0
 4622 03a9 00000000 		.4byte	0
 4623              	.LVUS1:
 4624 03ad 00       		.uleb128 .LVU3
 4625 03ae 00       		.uleb128 .LVU8
 4626 03af 00       		.uleb128 .LVU8
 4627 03b0 00       		.uleb128 .LVU41
 4628 03b1 00       		.uleb128 .LVU41
 4629 03b2 00       		.uleb128 0
 4630              	.LLST1:
 4631 03b3 04000000 		.4byte	.LVL1
 4632 03b7 08000000 		.4byte	.LVL2
 4633 03bb 0100     		.2byte	0x1
 4634 03bd 50       		.byte	0x50
 4635 03be 08000000 		.4byte	.LVL2
 4636 03c2 6B000000 		.4byte	.LVL5-1
 4637 03c6 0100     		.2byte	0x1
 4638 03c8 53       		.byte	0x53
 4639 03c9 6B000000 		.4byte	.LVL5-1
 4640 03cd 70000000 		.4byte	.LFE7
 4641 03d1 0400     		.2byte	0x4
 4642 03d3 F3       		.byte	0xf3
 4643 03d4 01       		.uleb128 0x1
 4644 03d5 50       		.byte	0x50
 4645 03d6 9F       		.byte	0x9f
 4646 03d7 00000000 		.4byte	0
 4647 03db 00000000 		.4byte	0
 4648              	.LVUS2:
 4649 03df 00       		.uleb128 .LVU11
 4650 03e0 00       		.uleb128 .LVU41
 4651              	.LLST2:
 4652 03e1 14000000 		.4byte	.LVL3
 4653 03e5 6B000000 		.4byte	.LVL5-1
 4654 03e9 0100     		.2byte	0x1
 4655 03eb 52       		.byte	0x52
 4656 03ec 00000000 		.4byte	0
 4657 03f0 00000000 		.4byte	0
 4658              	.LVUS3:
 4659 03f4 01       		.uleb128 .LVU35
 4660 03f5 00       		.uleb128 .LVU41
 4661              	.LLST3:
 4662 03f6 5C000000 		.4byte	.LVL4
 4663 03fa 6B000000 		.4byte	.LVL5-1
 4664 03fe 0100     		.2byte	0x1
 4665 0400 50       		.byte	0x50
 4666 0401 00000000 		.4byte	0
 4667 0405 00000000 		.4byte	0
 4668              		.section	.debug_aranges,"",%progbits
 4669 0000 4C000000 		.4byte	0x4c
 4670 0004 0200     		.2byte	0x2
 4671 0006 00000000 		.4byte	.Ldebug_info0
 4672 000a 04       		.byte	0x4
 4673 000b 00       		.byte	0
 4674 000c 0000     		.2byte	0
ARM GAS  /tmp/ccJAVx7t.s 			page 83


 4675 000e 0000     		.2byte	0
 4676 0010 00000000 		.4byte	.LFB7
 4677 0014 70000000 		.4byte	.LFE7-.LFB7
 4678 0018 00000000 		.4byte	.LFB8
 4679 001c 40010000 		.4byte	.LFE8-.LFB8
 4680 0020 00000000 		.4byte	.LFB9
 4681 0024 18000000 		.4byte	.LFE9-.LFB9
 4682 0028 00000000 		.4byte	.LFB10
 4683 002c 68000000 		.4byte	.LFE10-.LFB10
 4684 0030 00000000 		.4byte	.LFB11
 4685 0034 34000000 		.4byte	.LFE11-.LFB11
 4686 0038 00000000 		.4byte	.LFB13
 4687 003c CC000000 		.4byte	.LFE13-.LFB13
 4688 0040 00000000 		.4byte	.LFB12
 4689 0044 3C010000 		.4byte	.LFE12-.LFB12
 4690 0048 00000000 		.4byte	0
 4691 004c 00000000 		.4byte	0
 4692              		.section	.debug_ranges,"",%progbits
 4693              	.Ldebug_ranges0:
 4694 0000 10000000 		.4byte	.LBB2
 4695 0004 14000000 		.4byte	.LBE2
 4696 0008 18000000 		.4byte	.LBB3
 4697 000c 60000000 		.4byte	.LBE3
 4698 0010 64000000 		.4byte	.LBB4
 4699 0014 70000000 		.4byte	.LBE4
 4700 0018 00000000 		.4byte	0
 4701 001c 00000000 		.4byte	0
 4702 0020 8C000000 		.4byte	.LBB6
 4703 0024 90000000 		.4byte	.LBE6
 4704 0028 94000000 		.4byte	.LBB7
 4705 002c A0000000 		.4byte	.LBE7
 4706 0030 00000000 		.4byte	0
 4707 0034 00000000 		.4byte	0
 4708 0038 00000000 		.4byte	.LFB7
 4709 003c 70000000 		.4byte	.LFE7
 4710 0040 00000000 		.4byte	.LFB8
 4711 0044 40010000 		.4byte	.LFE8
 4712 0048 00000000 		.4byte	.LFB9
 4713 004c 18000000 		.4byte	.LFE9
 4714 0050 00000000 		.4byte	.LFB10
 4715 0054 68000000 		.4byte	.LFE10
 4716 0058 00000000 		.4byte	.LFB11
 4717 005c 34000000 		.4byte	.LFE11
 4718 0060 00000000 		.4byte	.LFB13
 4719 0064 CC000000 		.4byte	.LFE13
 4720 0068 00000000 		.4byte	.LFB12
 4721 006c 3C010000 		.4byte	.LFE12
 4722 0070 00000000 		.4byte	0
 4723 0074 00000000 		.4byte	0
 4724              		.section	.debug_line,"",%progbits
 4725              	.Ldebug_line0:
 4726 0000 EE050000 		.section	.debug_str,"MS",%progbits,1
 4726      0300A401 
 4726      00000201 
 4726      FB0E0D00 
 4726      01010101 
 4727              	.LASF92:
ARM GAS  /tmp/ccJAVx7t.s 			page 84


 4728 0000 63665F6F 		.ascii	"cf_off_older\000"
 4728      66665F6F 
 4728      6C646572 
 4728      00
 4729              	.LASF141:
 4730 000d 69326373 		.ascii	"i2cstate_t\000"
 4730      74617465 
 4730      5F7400
 4731              	.LASF38:
 4732 0018 705F6D73 		.ascii	"p_msg\000"
 4732      6700
 4733              	.LASF212:
 4734 001e 474E5520 		.ascii	"GNU C17 9.2.1 20191025 (release) [ARM/arm-9-branch "
 4734      43313720 
 4734      392E322E 
 4734      31203230 
 4734      31393130 
 4735 0051 72657669 		.ascii	"revision 277599] -mcpu=arm1176jz-s -mno-thumb-inter"
 4735      73696F6E 
 4735      20323737 
 4735      3539395D 
 4735      202D6D63 
 4736 0084 776F726B 		.ascii	"work -mfloat-abi=soft -marm -march=armv6kz -ggdb -O"
 4736      202D6D66 
 4736      6C6F6174 
 4736      2D616269 
 4736      3D736F66 
 4737 00b7 32202D66 		.ascii	"2 -fomit-frame-pointer -ffunction-sections -fdata-s"
 4737      6F6D6974 
 4737      2D667261 
 4737      6D652D70 
 4737      6F696E74 
 4738 00ea 65637469 		.ascii	"ections\000"
 4738      6F6E7300 
 4739              	.LASF77:
 4740 00f2 7264796D 		.ascii	"rdymsg\000"
 4740      736700
 4741              	.LASF170:
 4742 00f9 77726974 		.ascii	"write\000"
 4742      6500
 4743              	.LASF113:
 4744 00ff 4F757470 		.ascii	"OutputQueue\000"
 4744      75745175 
 4744      65756500 
 4745              	.LASF179:
 4746 010b 5350495F 		.ascii	"SPI_ACTIVE\000"
 4746      41435449 
 4746      564500
 4747              	.LASF64:
 4748 0116 76746C69 		.ascii	"vtlist\000"
 4748      737400
 4749              	.LASF115:
 4750 011d 62736364 		.ascii	"bscdevice_t\000"
 4750      65766963 
 4750      655F7400 
 4751              	.LASF153:
 4752 0129 72786275 		.ascii	"rxbuf\000"
ARM GAS  /tmp/ccJAVx7t.s 			page 85


 4752      6600
 4753              	.LASF106:
 4754 012f 715F746F 		.ascii	"q_top\000"
 4754      7000
 4755              	.LASF13:
 4756 0135 6C6F6E67 		.ascii	"long long unsigned int\000"
 4756      206C6F6E 
 4756      6720756E 
 4756      7369676E 
 4756      65642069 
 4757              	.LASF88:
 4758 014c 63685F74 		.ascii	"ch_threadsize\000"
 4758      68726561 
 4758      6473697A 
 4758      6500
 4759              	.LASF78:
 4760 015a 65786974 		.ascii	"exitcode\000"
 4760      636F6465 
 4760      00
 4761              	.LASF182:
 4762 0163 53504944 		.ascii	"SPIDriver\000"
 4762      72697665 
 4762      7200
 4763              	.LASF197:
 4764 016d 69326370 		.ascii	"i2cp\000"
 4764      00
 4765              	.LASF120:
 4766 0172 64617461 		.ascii	"dataFifo\000"
 4766      4669666F 
 4766      00
 4767              	.LASF26:
 4768 017b 705F7072 		.ascii	"p_prio\000"
 4768      696F00
 4769              	.LASF95:
 4770 0182 63665F6F 		.ascii	"cf_off_state\000"
 4770      66665F73 
 4770      74617465 
 4770      00
 4771              	.LASF175:
 4772 018f 72656164 		.ascii	"readt\000"
 4772      7400
 4773              	.LASF146:
 4774 0195 64657669 		.ascii	"device\000"
 4774      636500
 4775              	.LASF103:
 4776 019c 715F7761 		.ascii	"q_waiting\000"
 4776      6974696E 
 4776      6700
 4777              	.LASF6:
 4778 01a6 6C6F6E67 		.ascii	"long long int\000"
 4778      206C6F6E 
 4778      6720696E 
 4778      7400
 4779              	.LASF1:
 4780 01b4 7369676E 		.ascii	"signed char\000"
 4780      65642063 
 4780      68617200 
ARM GAS  /tmp/ccJAVx7t.s 			page 86


 4781              	.LASF94:
 4782 01c0 63665F6F 		.ascii	"cf_off_stklimit\000"
 4782      66665F73 
 4782      746B6C69 
 4782      6D697400 
 4783              	.LASF177:
 4784 01d0 5350495F 		.ascii	"SPI_STOP\000"
 4784      53544F50 
 4784      00
 4785              	.LASF96:
 4786 01d9 63665F6F 		.ascii	"cf_off_flags\000"
 4786      66665F66 
 4786      6C616773 
 4786      00
 4787              	.LASF162:
 4788 01e6 53445F53 		.ascii	"SD_STOP\000"
 4788      544F5000 
 4789              	.LASF214:
 4790 01ee 2F686F6D 		.ascii	"/home/taskman/arduino/embedded-wind-turbine/Data_Co"
 4790      652F7461 
 4790      736B6D61 
 4790      6E2F6172 
 4790      6475696E 
 4791 0221 6C6C6563 		.ascii	"llector/raspberry/compiler/boot\000"
 4791      746F722F 
 4791      72617370 
 4791      62657272 
 4791      792F636F 
 4792              	.LASF67:
 4793 0241 6D5F7175 		.ascii	"m_queue\000"
 4793      65756500 
 4794              	.LASF198:
 4795 0249 6932635F 		.ascii	"i2c_lld_master_receive_timeout\000"
 4795      6C6C645F 
 4795      6D617374 
 4795      65725F72 
 4795      65636569 
 4796              	.LASF205:
 4797 0268 6932635F 		.ascii	"i2c_lld_serve_interrupt\000"
 4797      6C6C645F 
 4797      73657276 
 4797      655F696E 
 4797      74657272 
 4798              	.LASF149:
 4799 0280 61646472 		.ascii	"addr\000"
 4799      00
 4800              	.LASF199:
 4801 0285 6932635F 		.ascii	"i2c_lld_master_transmit_timeout\000"
 4801      6C6C645F 
 4801      6D617374 
 4801      65725F74 
 4801      72616E73 
 4802              	.LASF17:
 4803 02a5 74736C69 		.ascii	"tslices_t\000"
 4803      6365735F 
 4803      7400
 4804              	.LASF135:
ARM GAS  /tmp/ccJAVx7t.s 			page 87


 4805 02af 4932435F 		.ascii	"I2C_UNINIT\000"
 4805      554E494E 
 4805      495400
 4806              	.LASF157:
 4807 02ba 69326361 		.ascii	"i2caddr_t\000"
 4807      6464725F 
 4807      7400
 4808              	.LASF143:
 4809 02c4 73746174 		.ascii	"state\000"
 4809      6500
 4810              	.LASF5:
 4811 02ca 6C6F6E67 		.ascii	"long int\000"
 4811      20696E74 
 4811      00
 4812              	.LASF208:
 4813 02d3 63685654 		.ascii	"chVTResetI\000"
 4813      52657365 
 4813      744900
 4814              	.LASF15:
 4815 02de 74737461 		.ascii	"tstate_t\000"
 4815      74655F74 
 4815      00
 4816              	.LASF148:
 4817 02e7 74687265 		.ascii	"thread\000"
 4817      616400
 4818              	.LASF122:
 4819 02ee 64617461 		.ascii	"dataDelay\000"
 4819      44656C61 
 4819      7900
 4820              	.LASF155:
 4821 02f8 72786964 		.ascii	"rxidx\000"
 4821      7800
 4822              	.LASF105:
 4823 02fe 715F6275 		.ascii	"q_buffer\000"
 4823      66666572 
 4823      00
 4824              	.LASF9:
 4825 0307 75696E74 		.ascii	"uint16_t\000"
 4825      31365F74 
 4825      00
 4826              	.LASF195:
 4827 0310 53504930 		.ascii	"SPI0\000"
 4827      00
 4828              	.LASF100:
 4829 0315 63686465 		.ascii	"chdebug_t\000"
 4829      6275675F 
 4829      7400
 4830              	.LASF138:
 4831 031f 4932435F 		.ascii	"I2C_ACTIVE_TX\000"
 4831      41435449 
 4831      56455F54 
 4831      5800
 4832              	.LASF192:
 4833 032d 636C6F63 		.ascii	"clock_phase\000"
 4833      6B5F7068 
 4833      61736500 
 4834              	.LASF28:
ARM GAS  /tmp/ccJAVx7t.s 			page 88


 4835 0339 705F6E65 		.ascii	"p_newer\000"
 4835      77657200 
 4836              	.LASF114:
 4837 0341 5F69646C 		.ascii	"_idle_thread_wa\000"
 4837      655F7468 
 4837      72656164 
 4837      5F776100 
 4838              	.LASF185:
 4839 0351 656E645F 		.ascii	"end_cb\000"
 4839      636200
 4840              	.LASF183:
 4841 0358 7478636E 		.ascii	"txcnt\000"
 4841      7400
 4842              	.LASF189:
 4843 035e 63686970 		.ascii	"chip_select_polarity0\000"
 4843      5F73656C 
 4843      6563745F 
 4843      706F6C61 
 4843      72697479 
 4844              	.LASF190:
 4845 0374 63686970 		.ascii	"chip_select_polarity1\000"
 4845      5F73656C 
 4845      6563745F 
 4845      706F6C61 
 4845      72697479 
 4846              	.LASF116:
 4847 038a 636F6E74 		.ascii	"control\000"
 4847      726F6C00 
 4848              	.LASF60:
 4849 0392 725F6E65 		.ascii	"r_newer\000"
 4849      77657200 
 4850              	.LASF45:
 4851 039a 72656761 		.ascii	"regarm_t\000"
 4851      726D5F74 
 4851      00
 4852              	.LASF51:
 4853 03a3 76745F70 		.ascii	"vt_prev\000"
 4853      72657600 
 4854              	.LASF119:
 4855 03ab 736C6176 		.ascii	"slaveAddress\000"
 4855      65416464 
 4855      72657373 
 4855      00
 4856              	.LASF3:
 4857 03b8 73697A65 		.ascii	"size_t\000"
 4857      5F7400
 4858              	.LASF184:
 4859 03bf 73706963 		.ascii	"spicallback_t\000"
 4859      616C6C62 
 4859      61636B5F 
 4859      7400
 4860              	.LASF160:
 4861 03cd 49324330 		.ascii	"I2C0\000"
 4861      00
 4862              	.LASF196:
 4863 03d2 49324331 		.ascii	"I2C1\000"
 4863      00
ARM GAS  /tmp/ccJAVx7t.s 			page 89


 4864              	.LASF75:
 4865 03d7 4576656E 		.ascii	"EventSource\000"
 4865      74536F75 
 4865      72636500 
 4866              	.LASF0:
 4867 03e3 756E7369 		.ascii	"unsigned int\000"
 4867      676E6564 
 4867      20696E74 
 4867      00
 4868              	.LASF50:
 4869 03f0 76745F6E 		.ascii	"vt_next\000"
 4869      65787400 
 4870              	.LASF150:
 4871 03f8 74786275 		.ascii	"txbuf\000"
 4871      6600
 4872              	.LASF169:
 4873 03fe 53657269 		.ascii	"SerialDriverVMT\000"
 4873      616C4472 
 4873      69766572 
 4873      564D5400 
 4874              	.LASF145:
 4875 040e 6572726F 		.ascii	"errors\000"
 4875      727300
 4876              	.LASF167:
 4877 0415 69717565 		.ascii	"iqueue\000"
 4877      756500
 4878              	.LASF12:
 4879 041c 6C6F6E67 		.ascii	"long unsigned int\000"
 4879      20756E73 
 4879      69676E65 
 4879      6420696E 
 4879      7400
 4880              	.LASF101:
 4881 042e 63685F64 		.ascii	"ch_debug\000"
 4881      65627567 
 4881      00
 4882              	.LASF200:
 4883 0437 74696D65 		.ascii	"timeout\000"
 4883      6F757400 
 4884              	.LASF173:
 4885 043f 67657474 		.ascii	"gett\000"
 4885      00
 4886              	.LASF82:
 4887 0444 63685F69 		.ascii	"ch_identifier\000"
 4887      64656E74 
 4887      69666965 
 4887      7200
 4888              	.LASF188:
 4889 0452 63686970 		.ascii	"chip_select_polarity\000"
 4889      5F73656C 
 4889      6563745F 
 4889      706F6C61 
 4889      72697479 
 4890              	.LASF166:
 4891 0467 6576656E 		.ascii	"event\000"
 4891      7400
 4892              	.LASF47:
ARM GAS  /tmp/ccJAVx7t.s 			page 90


 4893 046d 636F6E74 		.ascii	"context\000"
 4893      65787400 
 4894              	.LASF10:
 4895 0475 73686F72 		.ascii	"short unsigned int\000"
 4895      7420756E 
 4895      7369676E 
 4895      65642069 
 4895      6E7400
 4896              	.LASF130:
 4897 0488 6770696F 		.ascii	"gpio_port_t\000"
 4897      5F706F72 
 4897      745F7400 
 4898              	.LASF126:
 4899 0494 6770636C 		.ascii	"gpclr\000"
 4899      7200
 4900              	.LASF19:
 4901 049a 6D73675F 		.ascii	"msg_t\000"
 4901      7400
 4902              	.LASF168:
 4903 04a0 6F717565 		.ascii	"oqueue\000"
 4903      756500
 4904              	.LASF71:
 4905 04a7 656C5F6E 		.ascii	"el_next\000"
 4905      65787400 
 4906              	.LASF174:
 4907 04af 77726974 		.ascii	"writet\000"
 4907      657400
 4908              	.LASF14:
 4909 04b6 746D6F64 		.ascii	"tmode_t\000"
 4909      655F7400 
 4910              	.LASF43:
 4911 04be 54687265 		.ascii	"ThreadsList\000"
 4911      6164734C 
 4911      69737400 
 4912              	.LASF20:
 4913 04ca 6576656E 		.ascii	"eventmask_t\000"
 4913      746D6173 
 4913      6B5F7400 
 4914              	.LASF112:
 4915 04d6 496E7075 		.ascii	"InputQueue\000"
 4915      74517565 
 4915      756500
 4916              	.LASF66:
 4917 04e1 4D757465 		.ascii	"Mutex\000"
 4917      7800
 4918              	.LASF203:
 4919 04e7 73706565 		.ascii	"speed\000"
 4919      6400
 4920              	.LASF102:
 4921 04ed 47656E65 		.ascii	"GenericQueue\000"
 4921      72696351 
 4921      75657565 
 4921      00
 4922              	.LASF44:
 4923 04fa 73746B61 		.ascii	"stkalign_t\000"
 4923      6C69676E 
 4923      5F7400
ARM GAS  /tmp/ccJAVx7t.s 			page 91


 4924              	.LASF201:
 4925 0505 6932635F 		.ascii	"i2c_lld_stop\000"
 4925      6C6C645F 
 4925      73746F70 
 4925      00
 4926              	.LASF83:
 4927 0512 63685F7A 		.ascii	"ch_zero\000"
 4927      65726F00 
 4928              	.LASF97:
 4929 051a 63665F6F 		.ascii	"cf_off_refs\000"
 4929      66665F72 
 4929      65667300 
 4930              	.LASF127:
 4931 0526 67706C65 		.ascii	"gplev\000"
 4931      7600
 4932              	.LASF172:
 4933 052c 70757474 		.ascii	"putt\000"
 4933      00
 4934              	.LASF52:
 4935 0531 76745F74 		.ascii	"vt_time\000"
 4935      696D6500 
 4936              	.LASF136:
 4937 0539 4932435F 		.ascii	"I2C_STOP\000"
 4937      53544F50 
 4937      00
 4938              	.LASF121:
 4939 0542 636C6F63 		.ascii	"clockDivider\000"
 4939      6B446976 
 4939      69646572 
 4939      00
 4940              	.LASF104:
 4941 054f 715F636F 		.ascii	"q_counter\000"
 4941      756E7465 
 4941      7200
 4942              	.LASF53:
 4943 0559 76745F66 		.ascii	"vt_func\000"
 4943      756E6300 
 4944              	.LASF87:
 4945 0561 63685F74 		.ascii	"ch_timesize\000"
 4945      696D6573 
 4945      697A6500 
 4946              	.LASF158:
 4947 056d 69635F73 		.ascii	"ic_speed\000"
 4947      70656564 
 4947      00
 4948              	.LASF93:
 4949 0576 63665F6F 		.ascii	"cf_off_name\000"
 4949      66665F6E 
 4949      616D6500 
 4950              	.LASF206:
 4951 0582 63685654 		.ascii	"chVTSetI\000"
 4951      53657449 
 4951      00
 4952              	.LASF29:
 4953 058b 705F6F6C 		.ascii	"p_older\000"
 4953      64657200 
 4954              	.LASF154:
ARM GAS  /tmp/ccJAVx7t.s 			page 92


 4955 0593 72786279 		.ascii	"rxbytes\000"
 4955      74657300 
 4956              	.LASF107:
 4957 059b 715F7772 		.ascii	"q_wrptr\000"
 4957      70747200 
 4958              	.LASF59:
 4959 05a3 725F6374 		.ascii	"r_ctx\000"
 4959      7800
 4960              	.LASF42:
 4961 05a9 54687265 		.ascii	"ThreadsQueue\000"
 4961      61647351 
 4961      75657565 
 4961      00
 4962              	.LASF84:
 4963 05b6 63685F73 		.ascii	"ch_size\000"
 4963      697A6500 
 4964              	.LASF132:
 4965 05be 494F504F 		.ascii	"IOPORT0\000"
 4965      52543000 
 4966              	.LASF62:
 4967 05c6 725F6375 		.ascii	"r_current\000"
 4967      7272656E 
 4967      7400
 4968              	.LASF61:
 4969 05d0 725F6F6C 		.ascii	"r_older\000"
 4969      64657200 
 4970              	.LASF73:
 4971 05d8 656C5F6D 		.ascii	"el_mask\000"
 4971      61736B00 
 4972              	.LASF125:
 4973 05e0 67707365 		.ascii	"gpset\000"
 4973      7400
 4974              	.LASF128:
 4975 05e6 67707075 		.ascii	"gppudclk\000"
 4975      64636C6B 
 4975      00
 4976              	.LASF186:
 4977 05ef 6C6F7373 		.ascii	"lossiEnabled\000"
 4977      69456E61 
 4977      626C6564 
 4977      00
 4978              	.LASF209:
 4979 05fc 62636D32 		.ascii	"bcm2835_gpio_fnsel\000"
 4979      3833355F 
 4979      6770696F 
 4979      5F666E73 
 4979      656C00
 4980              	.LASF187:
 4981 060f 63686970 		.ascii	"chip_select\000"
 4981      5F73656C 
 4981      65637400 
 4982              	.LASF16:
 4983 061b 74726566 		.ascii	"trefs_t\000"
 4983      735F7400 
 4984              	.LASF213:
 4985 0623 2E2E2F6F 		.ascii	"../os/hal/platforms/BCM2835/i2c_lld.c\000"
 4985      732F6861 
ARM GAS  /tmp/ccJAVx7t.s 			page 93


 4985      6C2F706C 
 4985      6174666F 
 4985      726D732F 
 4986              	.LASF86:
 4987 0649 63685F70 		.ascii	"ch_ptrsize\000"
 4987      74727369 
 4987      7A6500
 4988              	.LASF111:
 4989 0654 716E6F74 		.ascii	"qnotify_t\000"
 4989      6966795F 
 4989      7400
 4990              	.LASF25:
 4991 065e 705F7072 		.ascii	"p_prev\000"
 4991      657600
 4992              	.LASF18:
 4993 0665 74707269 		.ascii	"tprio_t\000"
 4993      6F5F7400 
 4994              	.LASF108:
 4995 066d 715F7264 		.ascii	"q_rdptr\000"
 4995      70747200 
 4996              	.LASF156:
 4997 0675 69326366 		.ascii	"i2cflags_t\000"
 4997      6C616773 
 4997      5F7400
 4998              	.LASF147:
 4999 0680 6D757465 		.ascii	"mutex\000"
 4999      7800
 5000              	.LASF202:
 5001 0686 6932635F 		.ascii	"i2c_lld_start\000"
 5001      6C6C645F 
 5001      73746172 
 5001      7400
 5002              	.LASF4:
 5003 0694 696E7433 		.ascii	"int32_t\000"
 5003      325F7400 
 5004              	.LASF8:
 5005 069c 756E7369 		.ascii	"unsigned char\000"
 5005      676E6564 
 5005      20636861 
 5005      7200
 5006              	.LASF72:
 5007 06aa 656C5F6C 		.ascii	"el_listener\000"
 5007      69737465 
 5007      6E657200 
 5008              	.LASF74:
 5009 06b6 656C5F66 		.ascii	"el_flags\000"
 5009      6C616773 
 5009      00
 5010              	.LASF40:
 5011 06bf 705F6D74 		.ascii	"p_mtxlist\000"
 5011      786C6973 
 5011      7400
 5012              	.LASF2:
 5013 06c9 73686F72 		.ascii	"short int\000"
 5013      7420696E 
 5013      7400
 5014              	.LASF31:
ARM GAS  /tmp/ccJAVx7t.s 			page 94


 5015 06d3 705F7374 		.ascii	"p_state\000"
 5015      61746500 
 5016              	.LASF34:
 5017 06db 705F7072 		.ascii	"p_preempt\000"
 5017      65656D70 
 5017      7400
 5018              	.LASF99:
 5019 06e5 63665F6F 		.ascii	"cf_off_time\000"
 5019      66665F74 
 5019      696D6500 
 5020              	.LASF58:
 5021 06f1 725F7072 		.ascii	"r_prio\000"
 5021      696F00
 5022              	.LASF129:
 5023 06f8 70696E5F 		.ascii	"pin_base\000"
 5023      62617365 
 5023      00
 5024              	.LASF80:
 5025 0701 65776D61 		.ascii	"ewmask\000"
 5025      736B00
 5026              	.LASF24:
 5027 0708 705F6E65 		.ascii	"p_next\000"
 5027      787400
 5028              	.LASF133:
 5029 070f 494F504F 		.ascii	"IOPORT1\000"
 5029      52543100 
 5030              	.LASF98:
 5031 0717 63665F6F 		.ascii	"cf_off_preempt\000"
 5031      66665F70 
 5031      7265656D 
 5031      707400
 5032              	.LASF32:
 5033 0726 705F666C 		.ascii	"p_flags\000"
 5033      61677300 
 5034              	.LASF23:
 5035 072e 54687265 		.ascii	"Thread\000"
 5035      616400
 5036              	.LASF193:
 5037 0735 636C6F63 		.ascii	"clock_divider\000"
 5037      6B5F6469 
 5037      76696465 
 5037      7200
 5038              	.LASF91:
 5039 0743 63665F6F 		.ascii	"cf_off_newer\000"
 5039      66665F6E 
 5039      65776572 
 5039      00
 5040              	.LASF140:
 5041 0750 4932435F 		.ascii	"I2C_LOCKED\000"
 5041      4C4F434B 
 5041      454400
 5042              	.LASF207:
 5043 075b 63685363 		.ascii	"chSchGoSleepS\000"
 5043      68476F53 
 5043      6C656570 
 5043      5300
 5044              	.LASF39:
ARM GAS  /tmp/ccJAVx7t.s 			page 95


 5045 0769 705F6570 		.ascii	"p_epending\000"
 5045      656E6469 
 5045      6E6700
 5046              	.LASF161:
 5047 0774 53445F55 		.ascii	"SD_UNINIT\000"
 5047      4E494E49 
 5047      5400
 5048              	.LASF11:
 5049 077e 75696E74 		.ascii	"uint32_t\000"
 5049      33325F74 
 5049      00
 5050              	.LASF89:
 5051 0787 63665F6F 		.ascii	"cf_off_prio\000"
 5051      66665F70 
 5051      72696F00 
 5052              	.LASF57:
 5053 0793 725F7175 		.ascii	"r_queue\000"
 5053      65756500 
 5054              	.LASF49:
 5055 079b 56697274 		.ascii	"VirtualTimer\000"
 5055      75616C54 
 5055      696D6572 
 5055      00
 5056              	.LASF165:
 5057 07a8 53657269 		.ascii	"SerialDriver\000"
 5057      616C4472 
 5057      69766572 
 5057      00
 5058              	.LASF139:
 5059 07b5 4932435F 		.ascii	"I2C_ACTIVE_RX\000"
 5059      41435449 
 5059      56455F52 
 5059      5800
 5060              	.LASF171:
 5061 07c3 72656164 		.ascii	"read\000"
 5061      00
 5062              	.LASF81:
 5063 07c8 63686172 		.ascii	"char\000"
 5063      00
 5064              	.LASF215:
 5065 07cd 6932635F 		.ascii	"i2c_lld_safety_timeout\000"
 5065      6C6C645F 
 5065      73616665 
 5065      74795F74 
 5065      696D656F 
 5066              	.LASF180:
 5067 07e4 5350495F 		.ascii	"SPI_COMPLETE\000"
 5067      434F4D50 
 5067      4C455445 
 5067      00
 5068              	.LASF144:
 5069 07f1 636F6E66 		.ascii	"config\000"
 5069      696700
 5070              	.LASF211:
 5071 07f8 63685363 		.ascii	"chSchReadyI\000"
 5071      68526561 
 5071      64794900 
ARM GAS  /tmp/ccJAVx7t.s 			page 96


 5072              	.LASF181:
 5073 0804 73706973 		.ascii	"spistate_t\000"
 5073      74617465 
 5073      5F7400
 5074              	.LASF69:
 5075 080f 6D5F6E65 		.ascii	"m_next\000"
 5075      787400
 5076              	.LASF22:
 5077 0816 73797374 		.ascii	"systime_t\000"
 5077      696D655F 
 5077      7400
 5078              	.LASF41:
 5079 0820 705F7265 		.ascii	"p_realprio\000"
 5079      616C7072 
 5079      696F00
 5080              	.LASF48:
 5081 082b 76746675 		.ascii	"vtfunc_t\000"
 5081      6E635F74 
 5081      00
 5082              	.LASF137:
 5083 0834 4932435F 		.ascii	"I2C_READY\000"
 5083      52454144 
 5083      5900
 5084              	.LASF142:
 5085 083e 49324344 		.ascii	"I2CDriver\000"
 5085      72697665 
 5085      7200
 5086              	.LASF35:
 5087 0848 705F7469 		.ascii	"p_time\000"
 5087      6D6500
 5088              	.LASF191:
 5089 084f 636C6F63 		.ascii	"clock_polarity\000"
 5089      6B5F706F 
 5089      6C617269 
 5089      747900
 5090              	.LASF210:
 5091 085e 6932634F 		.ascii	"i2cObjectInit\000"
 5091      626A6563 
 5091      74496E69 
 5091      7400
 5092              	.LASF46:
 5093 086c 696E7463 		.ascii	"intctx\000"
 5093      747800
 5094              	.LASF37:
 5095 0873 705F6D73 		.ascii	"p_msgqueue\000"
 5095      67717565 
 5095      756500
 5096              	.LASF163:
 5097 087e 53445F52 		.ascii	"SD_READY\000"
 5097      45414459 
 5097      00
 5098              	.LASF178:
 5099 0887 5350495F 		.ascii	"SPI_READY\000"
 5099      52454144 
 5099      5900
 5100              	.LASF176:
 5101 0891 5350495F 		.ascii	"SPI_UNINIT\000"
ARM GAS  /tmp/ccJAVx7t.s 			page 97


 5101      554E494E 
 5101      495400
 5102              	.LASF54:
 5103 089c 76745F70 		.ascii	"vt_par\000"
 5103      617200
 5104              	.LASF21:
 5105 08a3 666C6167 		.ascii	"flagsmask_t\000"
 5105      736D6173 
 5105      6B5F7400 
 5106              	.LASF159:
 5107 08af 49324343 		.ascii	"I2CConfig\000"
 5107      6F6E6669 
 5107      6700
 5108              	.LASF164:
 5109 08b9 73647374 		.ascii	"sdstate_t\000"
 5109      6174655F 
 5109      7400
 5110              	.LASF152:
 5111 08c3 74786964 		.ascii	"txidx\000"
 5111      7800
 5112              	.LASF90:
 5113 08c9 63665F6F 		.ascii	"cf_off_ctx\000"
 5113      66665F63 
 5113      747800
 5114              	.LASF204:
 5115 08d4 6932635F 		.ascii	"i2c_lld_init\000"
 5115      6C6C645F 
 5115      696E6974 
 5115      00
 5116              	.LASF33:
 5117 08e1 705F7265 		.ascii	"p_refs\000"
 5117      667300
 5118              	.LASF117:
 5119 08e8 73746174 		.ascii	"status\000"
 5119      757300
 5120              	.LASF63:
 5121 08ef 52656164 		.ascii	"ReadyList\000"
 5121      794C6973 
 5121      7400
 5122              	.LASF109:
 5123 08f9 715F6E6F 		.ascii	"q_notify\000"
 5123      74696679 
 5123      00
 5124              	.LASF65:
 5125 0902 726C6973 		.ascii	"rlist\000"
 5125      7400
 5126              	.LASF7:
 5127 0908 75696E74 		.ascii	"uint8_t\000"
 5127      385F7400 
 5128              	.LASF124:
 5129 0910 6C617463 		.ascii	"latch\000"
 5129      6800
 5130              	.LASF70:
 5131 0916 4576656E 		.ascii	"EventListener\000"
 5131      744C6973 
 5131      74656E65 
 5131      7200
ARM GAS  /tmp/ccJAVx7t.s 			page 98


 5132              	.LASF79:
 5133 0924 77746F62 		.ascii	"wtobjp\000"
 5133      6A7000
 5134              	.LASF30:
 5135 092b 705F6E61 		.ascii	"p_name\000"
 5135      6D6500
 5136              	.LASF55:
 5137 0932 76745F73 		.ascii	"vt_systime\000"
 5137      79737469 
 5137      6D6500
 5138              	.LASF76:
 5139 093d 65735F6E 		.ascii	"es_next\000"
 5139      65787400 
 5140              	.LASF194:
 5141 0945 53504943 		.ascii	"SPIConfig\000"
 5141      6F6E6669 
 5141      6700
 5142              	.LASF85:
 5143 094f 63685F76 		.ascii	"ch_version\000"
 5143      65727369 
 5143      6F6E00
 5144              	.LASF118:
 5145 095a 64617461 		.ascii	"dataLength\000"
 5145      4C656E67 
 5145      746800
 5146              	.LASF56:
 5147 0965 56544C69 		.ascii	"VTList\000"
 5147      737400
 5148              	.LASF110:
 5149 096c 715F6C69 		.ascii	"q_link\000"
 5149      6E6B00
 5150              	.LASF131:
 5151 0973 50414C43 		.ascii	"PALConfig\000"
 5151      6F6E6669 
 5151      6700
 5152              	.LASF68:
 5153 097d 6D5F6F77 		.ascii	"m_owner\000"
 5153      6E657200 
 5154              	.LASF134:
 5155 0985 70616C5F 		.ascii	"pal_default_config\000"
 5155      64656661 
 5155      756C745F 
 5155      636F6E66 
 5155      696700
 5156              	.LASF27:
 5157 0998 705F6374 		.ascii	"p_ctx\000"
 5157      7800
 5158              	.LASF36:
 5159 099e 705F7761 		.ascii	"p_waiting\000"
 5159      6974696E 
 5159      6700
 5160              	.LASF151:
 5161 09a8 74786279 		.ascii	"txbytes\000"
 5161      74657300 
 5162              	.LASF123:
 5163 09b0 636C6F63 		.ascii	"clockStretchTimeout\000"
 5163      6B537472 
ARM GAS  /tmp/ccJAVx7t.s 			page 99


 5163      65746368 
 5163      54696D65 
 5163      6F757400 
 5164              		.ident	"GCC: (15:9-2019-q4-0ubuntu1) 9.2.1 20191025 (release) [ARM/arm-9-branch revision 277599]"
ARM GAS  /tmp/ccJAVx7t.s 			page 100


DEFINED SYMBOLS
                            *ABS*:0000000000000000 i2c_lld.c
     /tmp/ccJAVx7t.s:16     .text.i2c_lld_safety_timeout:0000000000000000 $a
     /tmp/ccJAVx7t.s:22     .text.i2c_lld_safety_timeout:0000000000000000 i2c_lld_safety_timeout
     /tmp/ccJAVx7t.s:115    .text.i2c_lld_safety_timeout:000000000000006c $d
     /tmp/ccJAVx7t.s:121    .text.i2c_lld_serve_interrupt:0000000000000000 $a
     /tmp/ccJAVx7t.s:127    .text.i2c_lld_serve_interrupt:0000000000000000 i2c_lld_serve_interrupt
     /tmp/ccJAVx7t.s:332    .text.i2c_lld_serve_interrupt:000000000000013c $d
     /tmp/ccJAVx7t.s:337    .text.i2c_lld_init:0000000000000000 $a
     /tmp/ccJAVx7t.s:343    .text.i2c_lld_init:0000000000000000 i2c_lld_init
     /tmp/ccJAVx7t.s:361    .text.i2c_lld_init:0000000000000010 $d
                            *COM*:0000000000000040 I2C0
     /tmp/ccJAVx7t.s:368    .text.i2c_lld_start:0000000000000000 $a
     /tmp/ccJAVx7t.s:374    .text.i2c_lld_start:0000000000000000 i2c_lld_start
     /tmp/ccJAVx7t.s:439    .text.i2c_lld_start:0000000000000060 $d
     /tmp/ccJAVx7t.s:445    .text.i2c_lld_stop:0000000000000000 $a
     /tmp/ccJAVx7t.s:451    .text.i2c_lld_stop:0000000000000000 i2c_lld_stop
     /tmp/ccJAVx7t.s:491    .text.i2c_lld_master_receive_timeout:0000000000000000 $a
     /tmp/ccJAVx7t.s:497    .text.i2c_lld_master_receive_timeout:0000000000000000 i2c_lld_master_receive_timeout
     /tmp/ccJAVx7t.s:644    .text.i2c_lld_master_receive_timeout:00000000000000bc $d
     /tmp/ccJAVx7t.s:652    .text.i2c_lld_master_transmit_timeout:0000000000000000 $a
     /tmp/ccJAVx7t.s:658    .text.i2c_lld_master_transmit_timeout:0000000000000000 i2c_lld_master_transmit_timeout
     /tmp/ccJAVx7t.s:863    .text.i2c_lld_master_transmit_timeout:0000000000000130 $d
                            *COM*:0000000000000040 I2C1

UNDEFINED SYMBOLS
chSchReadyI
i2cObjectInit
__aeabi_uidiv
bcm2835_gpio_fnsel
chVTSetI
chSchGoSleepS
chVTResetI
rlist
