ARM GAS  /tmp/ccVQXVRI.s 			page 1


   1              		.cpu arm1176jz-s
   2              		.eabi_attribute 20, 1
   3              		.eabi_attribute 21, 1
   4              		.eabi_attribute 23, 3
   5              		.eabi_attribute 24, 1
   6              		.eabi_attribute 25, 1
   7              		.eabi_attribute 26, 1
   8              		.eabi_attribute 30, 2
   9              		.eabi_attribute 34, 1
  10              		.eabi_attribute 18, 4
  11              		.file	"main.c"
  12              		.text
  13              	.Ltext0:
  14              		.cfi_sections	.debug_frame
  15              		.section	.rodata.Thread_LCD.str1.4,"aMS",%progbits,1
  16              		.align	2
  17              	.LC0:
  18 0000 53657269 		.ascii	"SerialPrint\000"
  18      616C5072 
  18      696E7400 
  19              		.align	2
  20              	.LC1:
  21 000c 49746572 		.ascii	"Iter.: %u\000"
  21      2E3A2025 
  21      7500
  22              		.section	.text.Thread_LCD,"ax",%progbits
  23              		.align	2
  24              		.arch armv6kz
  25              		.syntax unified
  26              		.arm
  27              		.fpu softvfp
  28              		.type	Thread_LCD, %function
  29              	Thread_LCD:
  30              	.LVL0:
  31              	.LFB7:
  32              		.file 1 "main.c"
  33              		.loc 1 26 34 view -0
  34              		.cfi_startproc
  35              		@ args = 0, pretend = 0, frame = 0
  36              		@ frame_needed = 0, uses_anonymous_args = 0
  37              		.loc 1 27 3 view .LVU1
  38              		.loc 1 28 3 view .LVU2
  39              		.loc 1 26 34 is_stmt 0 view .LVU3
  40 0000 F0412DE9 		push	{r4, r5, r6, r7, r8, lr}
  41              		.cfi_def_cfa_offset 24
  42              		.cfi_offset 4, -24
  43              		.cfi_offset 5, -20
  44              		.cfi_offset 6, -16
  45              		.cfi_offset 7, -12
  46              		.cfi_offset 8, -8
  47              		.cfi_offset 14, -4
  48              		.loc 1 29 12 view .LVU4
  49 0004 0050A0E3 		mov	r5, #0
  50              		.loc 1 28 3 view .LVU5
  51 0008 A8309FE5 		ldr	r3, .L5
  52 000c A8209FE5 		ldr	r2, .L5+4
  53 0010 183093E5 		ldr	r3, [r3, #24]
ARM GAS  /tmp/ccVQXVRI.s 			page 2


  54              		.loc 1 31 5 view .LVU6
  55 0014 A4409FE5 		ldr	r4, .L5+8
  56              		.loc 1 41 5 view .LVU7
  57 0018 A4709FE5 		ldr	r7, .L5+12
  58              		.loc 1 28 3 view .LVU8
  59 001c 182083E5 		str	r2, [r3, #24]
  60              		.loc 1 29 3 is_stmt 1 view .LVU9
  61              	.LVL1:
  62              		.loc 1 41 5 is_stmt 0 view .LVU10
  63 0020 306044E2 		sub	r6, r4, #48
  64              	.LVL2:
  65              	.L2:
  66              		.loc 1 30 3 is_stmt 1 discriminator 1 view .LVU11
  67              		.loc 1 31 5 discriminator 1 view .LVU12
  68 0024 0020E0E3 		mvn	r2, #0
  69 0028 7C10A0E3 		mov	r1, #124
  70 002c 0400A0E1 		mov	r0, r4
  71 0030 FEFFFFEB 		bl	chOQPutTimeout
  72              	.LVL3:
  73              		.loc 1 32 5 discriminator 1 view .LVU13
  74 0034 0020E0E3 		mvn	r2, #0
  75 0038 1810A0E3 		mov	r1, #24
  76 003c 0400A0E1 		mov	r0, r4
  77 0040 FEFFFFEB 		bl	chOQPutTimeout
  78              	.LVL4:
  79              		.loc 1 33 5 discriminator 1 view .LVU14
  80 0044 0020E0E3 		mvn	r2, #0
  81 0048 2010A0E3 		mov	r1, #32
  82 004c 0400A0E1 		mov	r0, r4
  83 0050 FEFFFFEB 		bl	chOQPutTimeout
  84              	.LVL5:
  85              		.loc 1 34 5 discriminator 1 view .LVU15
  86 0054 0A00A0E3 		mov	r0, #10
  87 0058 FEFFFFEB 		bl	chThdSleep
  88              	.LVL6:
  89              		.loc 1 36 5 discriminator 1 view .LVU16
  90 005c 0020E0E3 		mvn	r2, #0
  91 0060 7C10A0E3 		mov	r1, #124
  92 0064 0400A0E1 		mov	r0, r4
  93 0068 FEFFFFEB 		bl	chOQPutTimeout
  94              	.LVL7:
  95              		.loc 1 37 5 discriminator 1 view .LVU17
  96 006c 0020E0E3 		mvn	r2, #0
  97 0070 1910A0E3 		mov	r1, #25
  98 0074 0400A0E1 		mov	r0, r4
  99 0078 FEFFFFEB 		bl	chOQPutTimeout
 100              	.LVL8:
 101              		.loc 1 38 5 discriminator 1 view .LVU18
 102 007c 0020E0E3 		mvn	r2, #0
 103 0080 2010A0E3 		mov	r1, #32
 104 0084 0400A0E1 		mov	r0, r4
 105 0088 FEFFFFEB 		bl	chOQPutTimeout
 106              	.LVL9:
 107              		.loc 1 39 5 discriminator 1 view .LVU19
 108 008c 0A00A0E3 		mov	r0, #10
 109 0090 FEFFFFEB 		bl	chThdSleep
 110              	.LVL10:
ARM GAS  /tmp/ccVQXVRI.s 			page 3


 111              		.loc 1 41 5 discriminator 1 view .LVU20
 112 0094 0520A0E1 		mov	r2, r5
 113 0098 0600A0E1 		mov	r0, r6
 114 009c 0710A0E1 		mov	r1, r7
 115 00a0 FEFFFFEB 		bl	chprintf
 116              	.LVL11:
 117              		.loc 1 42 5 discriminator 1 view .LVU21
 118              		.loc 1 42 14 is_stmt 0 discriminator 1 view .LVU22
 119 00a4 015085E2 		add	r5, r5, #1
 120              	.LVL12:
 121              		.loc 1 43 5 discriminator 1 view .LVU23
 122 00a8 7D0EA0E3 		mov	r0, #2000
 123              		.loc 1 42 14 discriminator 1 view .LVU24
 124 00ac 7550FFE6 		uxth	r5, r5
 125              	.LVL13:
 126              		.loc 1 43 5 is_stmt 1 discriminator 1 view .LVU25
 127 00b0 FEFFFFEB 		bl	chThdSleep
 128              	.LVL14:
 129              		.loc 1 30 9 discriminator 1 view .LVU26
 130 00b4 DAFFFFEA 		b	.L2
 131              	.L6:
 132              		.align	2
 133              	.L5:
 134 00b8 00000000 		.word	rlist
 135 00bc 00000000 		.word	.LC0
 136 00c0 30000000 		.word	SD1+48
 137 00c4 0C000000 		.word	.LC1
 138              		.cfi_endproc
 139              	.LFE7:
 140              		.size	Thread_LCD, .-Thread_LCD
 141              		.section	.rodata.main.str1.4,"aMS",%progbits,1
 142              		.align	2
 143              	.LC3:
 144 0000 4D61696E 		.ascii	"Main (SD1 started)\000"
 144      20285344 
 144      31207374 
 144      61727465 
 144      642900
 145 0013 00       		.align	2
 146              	.LC2:
 147 0014 48656C6C 		.ascii	"Hello Chibi-World\000"
 147      6F204368 
 147      6962692D 
 147      576F726C 
 147      6400
 148              		.section	.text.startup.main,"ax",%progbits
 149              		.align	2
 150              		.global	main
 151              		.syntax unified
 152              		.arm
 153              		.fpu softvfp
 154              		.type	main, %function
 155              	main:
 156              	.LFB8:
 157              		.loc 1 52 16 view -0
 158              		.cfi_startproc
 159              		@ args = 0, pretend = 0, frame = 24
ARM GAS  /tmp/ccVQXVRI.s 			page 4


 160              		@ frame_needed = 0, uses_anonymous_args = 0
 161              		.loc 1 53 3 view .LVU28
 162              		.loc 1 52 16 is_stmt 0 view .LVU29
 163 0000 70402DE9 		push	{r4, r5, r6, lr}
 164              		.cfi_def_cfa_offset 16
 165              		.cfi_offset 4, -16
 166              		.cfi_offset 5, -12
 167              		.cfi_offset 6, -8
 168              		.cfi_offset 14, -4
 169              		.loc 1 79 3 view .LVU30
 170 0004 0060A0E3 		mov	r6, #0
 171              		.loc 1 52 16 view .LVU31
 172 0008 20D04DE2 		sub	sp, sp, #32
 173              		.cfi_def_cfa_offset 48
 174              		.loc 1 53 3 view .LVU32
 175 000c FEFFFFEB 		bl	halInit
 176              	.LVL15:
 177              		.loc 1 54 3 is_stmt 1 view .LVU33
 178 0010 FEFFFFEB 		bl	chSysInit
 179              	.LVL16:
 180              		.loc 1 56 3 view .LVU34
 181              		.loc 1 56 8 is_stmt 0 view .LVU35
 182 0014 DCE09FE5 		ldr	lr, .L9
 183 0018 0CC08DE2 		add	ip, sp, #12
 184 001c 0F00BEE8 		ldmia	lr!, {r0, r1, r2, r3}
 185 0020 0F00ACE8 		stmia	ip!, {r0, r1, r2, r3}
 186              		.loc 1 59 3 view .LVU36
 187 0024 D0509FE5 		ldr	r5, .L9+4
 188              		.loc 1 56 8 view .LVU37
 189 0028 00309EE5 		ldr	r3, [lr]
 190              		.loc 1 59 3 view .LVU38
 191 002c 0500A0E1 		mov	r0, r5
 192 0030 0610A0E1 		mov	r1, r6
 193              		.loc 1 56 8 view .LVU39
 194 0034 B030CCE1 		strh	r3, [ip]	@ movhi
 195              		.loc 1 59 3 is_stmt 1 view .LVU40
 196              		.loc 1 65 3 is_stmt 0 view .LVU41
 197 0038 304085E2 		add	r4, r5, #48
 198              		.loc 1 59 3 view .LVU42
 199 003c FEFFFFEB 		bl	sdStart
 200              	.LVL17:
 201              		.loc 1 62 3 is_stmt 1 view .LVU43
 202 0040 0500A0E1 		mov	r0, r5
 203 0044 B4109FE5 		ldr	r1, .L9+8
 204 0048 FEFFFFEB 		bl	chprintf
 205              	.LVL18:
 206              		.loc 1 65 3 view .LVU44
 207 004c 0400A0E1 		mov	r0, r4
 208 0050 0020E0E3 		mvn	r2, #0
 209 0054 7C10A0E3 		mov	r1, #124
 210 0058 FEFFFFEB 		bl	chOQPutTimeout
 211              	.LVL19:
 212              		.loc 1 66 3 view .LVU45
 213 005c 0400A0E1 		mov	r0, r4
 214 0060 0020E0E3 		mvn	r2, #0
 215 0064 1810A0E3 		mov	r1, #24
 216 0068 FEFFFFEB 		bl	chOQPutTimeout
ARM GAS  /tmp/ccVQXVRI.s 			page 5


 217              	.LVL20:
 218              		.loc 1 67 3 view .LVU46
 219 006c 0610A0E1 		mov	r1, r6
 220 0070 0020E0E3 		mvn	r2, #0
 221 0074 0400A0E1 		mov	r0, r4
 222 0078 FEFFFFEB 		bl	chOQPutTimeout
 223              	.LVL21:
 224              		.loc 1 68 3 view .LVU47
 225 007c 0A00A0E3 		mov	r0, #10
 226 0080 FEFFFFEB 		bl	chThdSleep
 227              	.LVL22:
 228              		.loc 1 70 3 view .LVU48
 229 0084 0400A0E1 		mov	r0, r4
 230 0088 0020E0E3 		mvn	r2, #0
 231 008c 7C10A0E3 		mov	r1, #124
 232 0090 FEFFFFEB 		bl	chOQPutTimeout
 233              	.LVL23:
 234              		.loc 1 71 3 view .LVU49
 235 0094 0400A0E1 		mov	r0, r4
 236 0098 0020E0E3 		mvn	r2, #0
 237 009c 1910A0E3 		mov	r1, #25
 238 00a0 FEFFFFEB 		bl	chOQPutTimeout
 239              	.LVL24:
 240              		.loc 1 72 3 view .LVU50
 241 00a4 0020E0E3 		mvn	r2, #0
 242 00a8 0A10A0E3 		mov	r1, #10
 243 00ac 0400A0E1 		mov	r0, r4
 244 00b0 FEFFFFEB 		bl	chOQPutTimeout
 245              	.LVL25:
 246              		.loc 1 73 3 view .LVU51
 247 00b4 0A00A0E3 		mov	r0, #10
 248 00b8 FEFFFFEB 		bl	chThdSleep
 249              	.LVL26:
 250              		.loc 1 76 3 view .LVU52
 251 00bc 0500A0E1 		mov	r0, r5
 252 00c0 0C108DE2 		add	r1, sp, #12
 253 00c4 FEFFFFEB 		bl	chprintf
 254              	.LVL27:
 255              		.loc 1 79 3 view .LVU53
 256 00c8 7F20A0E3 		mov	r2, #127
 257 00cc 461FA0E3 		mov	r1, #280
 258 00d0 2C309FE5 		ldr	r3, .L9+12
 259 00d4 00608DE5 		str	r6, [sp]
 260 00d8 28009FE5 		ldr	r0, .L9+16
 261 00dc FEFFFFEB 		bl	chThdCreateStatic
 262              	.LVL28:
 263              		.loc 1 84 3 view .LVU54
 264 00e0 24309FE5 		ldr	r3, .L9+20
 265 00e4 180093E5 		ldr	r0, [r3, #24]
 266 00e8 FEFFFFEB 		bl	chThdWait
 267              	.LVL29:
 268              		.loc 1 86 3 view .LVU55
 269              		.loc 1 87 1 is_stmt 0 view .LVU56
 270 00ec 0600A0E1 		mov	r0, r6
 271 00f0 20D08DE2 		add	sp, sp, #32
 272              		.cfi_def_cfa_offset 16
 273              		@ sp needed
ARM GAS  /tmp/ccVQXVRI.s 			page 6


 274 00f4 7080BDE8 		pop	{r4, r5, r6, pc}
 275              	.L10:
 276              		.align	2
 277              	.L9:
 278 00f8 14000000 		.word	.LC2
 279 00fc 00000000 		.word	SD1
 280 0100 00000000 		.word	.LC3
 281 0104 00000000 		.word	Thread_LCD
 282 0108 00000000 		.word	.LANCHOR0
 283 010c 00000000 		.word	rlist
 284              		.cfi_endproc
 285              	.LFE8:
 286              		.size	main, .-main
 287              		.section	.bss.waThread_LCD,"aw",%nobits
 288              		.align	2
 289              		.set	.LANCHOR0,. + 0
 290              		.type	waThread_LCD, %object
 291              		.size	waThread_LCD, 280
 292              	waThread_LCD:
 293 0000 00000000 		.space	280
 293      00000000 
 293      00000000 
 293      00000000 
 293      00000000 
 294              		.text
 295              	.Letext0:
 296              		.file 2 "/usr/lib/gcc/arm-none-eabi/9.2.1/include/stddef.h"
 297              		.file 3 "/usr/lib/gcc/arm-none-eabi/9.2.1/include/stdint.h"
 298              		.file 4 "../os/ports/GCC/ARM/chtypes.h"
 299              		.file 5 "../os/kernel/include/chlists.h"
 300              		.file 6 "../os/kernel/include/chthreads.h"
 301              		.file 7 "../os/ports/GCC/ARM/chcore.h"
 302              		.file 8 "../os/kernel/include/chvt.h"
 303              		.file 9 "../os/kernel/include/chschd.h"
 304              		.file 10 "../os/kernel/include/chmtx.h"
 305              		.file 11 "../os/kernel/include/chevents.h"
 306              		.file 12 "../os/kernel/include/chregistry.h"
 307              		.file 13 "../os/kernel/include/chqueues.h"
 308              		.file 14 "../os/kernel/include/chstreams.h"
 309              		.file 15 "../os/kernel/include/ch.h"
 310              		.file 16 "../os/hal/platforms/BCM2835/bcm2835.h"
 311              		.file 17 "../os/hal/platforms/BCM2835/pal_lld.h"
 312              		.file 18 "../os/hal/include/i2c.h"
 313              		.file 19 "../os/hal/platforms/BCM2835/i2c_lld.h"
 314              		.file 20 "../os/hal/include/serial.h"
 315              		.file 21 "../os/hal/include/spi.h"
 316              		.file 22 "../os/hal/platforms/BCM2835/spi_lld.h"
 317              		.file 23 "../os/hal/include/hal.h"
 318              		.file 24 "../os/kernel/include/chsys.h"
 319              		.file 25 "../os/various/chprintf.h"
 320              		.file 26 "../os/hal/platforms/BCM2835/serial_lld.h"