ARM GAS  /tmp/ccVQXVRI.s 			page 1


   1              		.cpu arm1176jz-s
   2              		.eabi_attribute 20, 1
   3              		.eabi_attribute 21, 1
   4              		.eabi_attribute 23, 3
   5              		.eabi_attribute 24, 1
   6              		.eabi_attribute 25, 1
   7              		.eabi_attribute 26, 1
   8              		.eabi_attribute 30, 2
   9              		.eabi_attribute 34, 1
  10              		.eabi_attribute 18, 4
  11              		.file	"main.c"
  12              		.text
  13              	.Ltext0:
  14              		.cfi_sections	.debug_frame
  15              		.section	.rodata.Thread_LCD.str1.4,"aMS",%progbits,1
  16              		.align	2
  17              	.LC0:
  18 0000 53657269 		.ascii	"SerialPrint\000"
  18      616C5072 
  18      696E7400 
  19              		.align	2
  20              	.LC1:
  21 000c 49746572 		.ascii	"Iter.: %u\000"
  21      2E3A2025 
  21      7500
  22              		.section	.text.Thread_LCD,"ax",%progbits
  23              		.align	2
  24              		.arch armv6kz
  25              		.syntax unified
  26              		.arm
  27              		.fpu softvfp
  28              		.type	Thread_LCD, %function
  29              	Thread_LCD:
  30              	.LVL0:
  31              	.LFB7:
  32              		.file 1 "main.c"
  33              		.loc 1 26 34 view -0
  34              		.cfi_startproc
  35              		@ args = 0, pretend = 0, frame = 0
  36              		@ frame_needed = 0, uses_anonymous_args = 0
  37              		.loc 1 27 3 view .LVU1
  38              		.loc 1 28 3 view .LVU2
  39              		.loc 1 26 34 is_stmt 0 view .LVU3
  40 0000 F0412DE9 		push	{r4, r5, r6, r7, r8, lr}
  41              		.cfi_def_cfa_offset 24
  42              		.cfi_offset 4, -24
  43              		.cfi_offset 5, -20
  44              		.cfi_offset 6, -16
  45              		.cfi_offset 7, -12
  46              		.cfi_offset 8, -8
  47              		.cfi_offset 14, -4
  48              		.loc 1 29 12 view .LVU4
  49 0004 0050A0E3 		mov	r5, #0
  50              		.loc 1 28 3 view .LVU5
  51 0008 A8309FE5 		ldr	r3, .L5
  52 000c A8209FE5 		ldr	r2, .L5+4
  53 0010 183093E5 		ldr	r3, [r3, #24]
ARM GAS  /tmp/ccVQXVRI.s 			page 2


  54              		.loc 1 31 5 view .LVU6
  55 0014 A4409FE5 		ldr	r4, .L5+8
  56              		.loc 1 41 5 view .LVU7
  57 0018 A4709FE5 		ldr	r7, .L5+12
  58              		.loc 1 28 3 view .LVU8
  59 001c 182083E5 		str	r2, [r3, #24]
  60              		.loc 1 29 3 is_stmt 1 view .LVU9
  61              	.LVL1:
  62              		.loc 1 41 5 is_stmt 0 view .LVU10
  63 0020 306044E2 		sub	r6, r4, #48
  64              	.LVL2:
  65              	.L2:
  66              		.loc 1 30 3 is_stmt 1 discriminator 1 view .LVU11
  67              		.loc 1 31 5 discriminator 1 view .LVU12
  68 0024 0020E0E3 		mvn	r2, #0
  69 0028 7C10A0E3 		mov	r1, #124
  70 002c 0400A0E1 		mov	r0, r4
  71 0030 FEFFFFEB 		bl	chOQPutTimeout
  72              	.LVL3:
  73              		.loc 1 32 5 discriminator 1 view .LVU13
  74 0034 0020E0E3 		mvn	r2, #0
  75 0038 1810A0E3 		mov	r1, #24
  76 003c 0400A0E1 		mov	r0, r4
  77 0040 FEFFFFEB 		bl	chOQPutTimeout
  78              	.LVL4:
  79              		.loc 1 33 5 discriminator 1 view .LVU14
  80 0044 0020E0E3 		mvn	r2, #0
  81 0048 2010A0E3 		mov	r1, #32
  82 004c 0400A0E1 		mov	r0, r4
  83 0050 FEFFFFEB 		bl	chOQPutTimeout
  84              	.LVL5:
  85              		.loc 1 34 5 discriminator 1 view .LVU15
  86 0054 0A00A0E3 		mov	r0, #10
  87 0058 FEFFFFEB 		bl	chThdSleep
  88              	.LVL6:
  89              		.loc 1 36 5 discriminator 1 view .LVU16
  90 005c 0020E0E3 		mvn	r2, #0
  91 0060 7C10A0E3 		mov	r1, #124
  92 0064 0400A0E1 		mov	r0, r4
  93 0068 FEFFFFEB 		bl	chOQPutTimeout
  94              	.LVL7:
  95              		.loc 1 37 5 discriminator 1 view .LVU17
  96 006c 0020E0E3 		mvn	r2, #0
  97 0070 1910A0E3 		mov	r1, #25
  98 0074 0400A0E1 		mov	r0, r4
  99 0078 FEFFFFEB 		bl	chOQPutTimeout
 100              	.LVL8:
 101              		.loc 1 38 5 discriminator 1 view .LVU18
 102 007c 0020E0E3 		mvn	r2, #0
 103 0080 2010A0E3 		mov	r1, #32
 104 0084 0400A0E1 		mov	r0, r4
 105 0088 FEFFFFEB 		bl	chOQPutTimeout
 106              	.LVL9:
 107              		.loc 1 39 5 discriminator 1 view .LVU19
 108 008c 0A00A0E3 		mov	r0, #10
 109 0090 FEFFFFEB 		bl	chThdSleep
 110              	.LVL10:
ARM GAS  /tmp/ccVQXVRI.s 			page 3


 111              		.loc 1 41 5 discriminator 1 view .LVU20
 112 0094 0520A0E1 		mov	r2, r5
 113 0098 0600A0E1 		mov	r0, r6
 114 009c 0710A0E1 		mov	r1, r7
 115 00a0 FEFFFFEB 		bl	chprintf
 116              	.LVL11:
 117              		.loc 1 42 5 discriminator 1 view .LVU21
 118              		.loc 1 42 14 is_stmt 0 discriminator 1 view .LVU22
 119 00a4 015085E2 		add	r5, r5, #1
 120              	.LVL12:
 121              		.loc 1 43 5 discriminator 1 view .LVU23
 122 00a8 7D0EA0E3 		mov	r0, #2000
 123              		.loc 1 42 14 discriminator 1 view .LVU24
 124 00ac 7550FFE6 		uxth	r5, r5
 125              	.LVL13:
 126              		.loc 1 43 5 is_stmt 1 discriminator 1 view .LVU25
 127 00b0 FEFFFFEB 		bl	chThdSleep
 128              	.LVL14:
 129              		.loc 1 30 9 discriminator 1 view .LVU26
 130 00b4 DAFFFFEA 		b	.L2
 131              	.L6:
 132              		.align	2
 133              	.L5:
 134 00b8 00000000 		.word	rlist
 135 00bc 00000000 		.word	.LC0
 136 00c0 30000000 		.word	SD1+48
 137 00c4 0C000000 		.word	.LC1
 138              		.cfi_endproc
 139              	.LFE7:
 140              		.size	Thread_LCD, .-Thread_LCD
 141              		.section	.rodata.main.str1.4,"aMS",%progbits,1
 142              		.align	2
 143              	.LC3:
 144 0000 4D61696E 		.ascii	"Main (SD1 started)\000"
 144      20285344 
 144      31207374 
 144      61727465 
 144      642900
 145 0013 00       		.align	2
 146              	.LC2:
 147 0014 48656C6C 		.ascii	"Hello Chibi-World\000"
 147      6F204368 
 147      6962692D 
 147      576F726C 
 147      6400
 148              		.section	.text.startup.main,"ax",%progbits
 149              		.align	2
 150              		.global	main
 151              		.syntax unified
 152              		.arm
 153              		.fpu softvfp
 154              		.type	main, %function
 155              	main:
 156              	.LFB8:
 157              		.loc 1 52 16 view -0
 158              		.cfi_startproc
 159              		@ args = 0, pretend = 0, frame = 24
ARM GAS  /tmp/ccVQXVRI.s 			page 4


 160              		@ frame_needed = 0, uses_anonymous_args = 0
 161              		.loc 1 53 3 view .LVU28
 162              		.loc 1 52 16 is_stmt 0 view .LVU29
 163 0000 70402DE9 		push	{r4, r5, r6, lr}
 164              		.cfi_def_cfa_offset 16
 165              		.cfi_offset 4, -16
 166              		.cfi_offset 5, -12
 167              		.cfi_offset 6, -8
 168              		.cfi_offset 14, -4
 169              		.loc 1 79 3 view .LVU30
 170 0004 0060A0E3 		mov	r6, #0
 171              		.loc 1 52 16 view .LVU31
 172 0008 20D04DE2 		sub	sp, sp, #32
 173              		.cfi_def_cfa_offset 48
 174              		.loc 1 53 3 view .LVU32
 175 000c FEFFFFEB 		bl	halInit
 176              	.LVL15:
 177              		.loc 1 54 3 is_stmt 1 view .LVU33
 178 0010 FEFFFFEB 		bl	chSysInit
 179              	.LVL16:
 180              		.loc 1 56 3 view .LVU34
 181              		.loc 1 56 8 is_stmt 0 view .LVU35
 182 0014 DCE09FE5 		ldr	lr, .L9
 183 0018 0CC08DE2 		add	ip, sp, #12
 184 001c 0F00BEE8 		ldmia	lr!, {r0, r1, r2, r3}
 185 0020 0F00ACE8 		stmia	ip!, {r0, r1, r2, r3}
 186              		.loc 1 59 3 view .LVU36
 187 0024 D0509FE5 		ldr	r5, .L9+4
 188              		.loc 1 56 8 view .LVU37
 189 0028 00309EE5 		ldr	r3, [lr]
 190              		.loc 1 59 3 view .LVU38
 191 002c 0500A0E1 		mov	r0, r5
 192 0030 0610A0E1 		mov	r1, r6
 193              		.loc 1 56 8 view .LVU39
 194 0034 B030CCE1 		strh	r3, [ip]	@ movhi
 195              		.loc 1 59 3 is_stmt 1 view .LVU40
 196              		.loc 1 65 3 is_stmt 0 view .LVU41
 197 0038 304085E2 		add	r4, r5, #48
 198              		.loc 1 59 3 view .LVU42
 199 003c FEFFFFEB 		bl	sdStart
 200              	.LVL17:
 201              		.loc 1 62 3 is_stmt 1 view .LVU43
 202 0040 0500A0E1 		mov	r0, r5
 203 0044 B4109FE5 		ldr	r1, .L9+8
 204 0048 FEFFFFEB 		bl	chprintf
 205              	.LVL18:
 206              		.loc 1 65 3 view .LVU44
 207 004c 0400A0E1 		mov	r0, r4
 208 0050 0020E0E3 		mvn	r2, #0
 209 0054 7C10A0E3 		mov	r1, #124
 210 0058 FEFFFFEB 		bl	chOQPutTimeout
 211              	.LVL19:
 212              		.loc 1 66 3 view .LVU45
 213 005c 0400A0E1 		mov	r0, r4
 214 0060 0020E0E3 		mvn	r2, #0
 215 0064 1810A0E3 		mov	r1, #24
 216 0068 FEFFFFEB 		bl	chOQPutTimeout
ARM GAS  /tmp/ccVQXVRI.s 			page 5


 217              	.LVL20:
 218              		.loc 1 67 3 view .LVU46
 219 006c 0610A0E1 		mov	r1, r6
 220 0070 0020E0E3 		mvn	r2, #0
 221 0074 0400A0E1 		mov	r0, r4
 222 0078 FEFFFFEB 		bl	chOQPutTimeout
 223              	.LVL21:
 224              		.loc 1 68 3 view .LVU47
 225 007c 0A00A0E3 		mov	r0, #10
 226 0080 FEFFFFEB 		bl	chThdSleep
 227              	.LVL22:
 228              		.loc 1 70 3 view .LVU48
 229 0084 0400A0E1 		mov	r0, r4
 230 0088 0020E0E3 		mvn	r2, #0
 231 008c 7C10A0E3 		mov	r1, #124
 232 0090 FEFFFFEB 		bl	chOQPutTimeout
 233              	.LVL23:
 234              		.loc 1 71 3 view .LVU49
 235 0094 0400A0E1 		mov	r0, r4
 236 0098 0020E0E3 		mvn	r2, #0
 237 009c 1910A0E3 		mov	r1, #25
 238 00a0 FEFFFFEB 		bl	chOQPutTimeout
 239              	.LVL24:
 240              		.loc 1 72 3 view .LVU50
 241 00a4 0020E0E3 		mvn	r2, #0
 242 00a8 0A10A0E3 		mov	r1, #10
 243 00ac 0400A0E1 		mov	r0, r4
 244 00b0 FEFFFFEB 		bl	chOQPutTimeout
 245              	.LVL25:
 246              		.loc 1 73 3 view .LVU51
 247 00b4 0A00A0E3 		mov	r0, #10
 248 00b8 FEFFFFEB 		bl	chThdSleep
 249              	.LVL26:
 250              		.loc 1 76 3 view .LVU52
 251 00bc 0500A0E1 		mov	r0, r5
 252 00c0 0C108DE2 		add	r1, sp, #12
 253 00c4 FEFFFFEB 		bl	chprintf
 254              	.LVL27:
 255              		.loc 1 79 3 view .LVU53
 256 00c8 7F20A0E3 		mov	r2, #127
 257 00cc 461FA0E3 		mov	r1, #280
 258 00d0 2C309FE5 		ldr	r3, .L9+12
 259 00d4 00608DE5 		str	r6, [sp]
 260 00d8 28009FE5 		ldr	r0, .L9+16
 261 00dc FEFFFFEB 		bl	chThdCreateStatic
 262              	.LVL28:
 263              		.loc 1 84 3 view .LVU54
 264 00e0 24309FE5 		ldr	r3, .L9+20
 265 00e4 180093E5 		ldr	r0, [r3, #24]
 266 00e8 FEFFFFEB 		bl	chThdWait
 267              	.LVL29:
 268              		.loc 1 86 3 view .LVU55
 269              		.loc 1 87 1 is_stmt 0 view .LVU56
 270 00ec 0600A0E1 		mov	r0, r6
 271 00f0 20D08DE2 		add	sp, sp, #32
 272              		.cfi_def_cfa_offset 16
 273              		@ sp needed
ARM GAS  /tmp/ccVQXVRI.s 			page 6


 274 00f4 7080BDE8 		pop	{r4, r5, r6, pc}
 275              	.L10:
 276              		.align	2
 277              	.L9:
 278 00f8 14000000 		.word	.LC2
 279 00fc 00000000 		.word	SD1
 280 0100 00000000 		.word	.LC3
 281 0104 00000000 		.word	Thread_LCD
 282 0108 00000000 		.word	.LANCHOR0
 283 010c 00000000 		.word	rlist
 284              		.cfi_endproc
 285              	.LFE8:
 286              		.size	main, .-main
 287              		.section	.bss.waThread_LCD,"aw",%nobits
 288              		.align	2
 289              		.set	.LANCHOR0,. + 0
 290              		.type	waThread_LCD, %object
 291              		.size	waThread_LCD, 280
 292              	waThread_LCD:
 293 0000 00000000 		.space	280
 293      00000000 
 293      00000000 
 293      00000000 
 293      00000000 
 294              		.text
 295              	.Letext0:
 296              		.file 2 "/usr/lib/gcc/arm-none-eabi/9.2.1/include/stddef.h"
 297              		.file 3 "/usr/lib/gcc/arm-none-eabi/9.2.1/include/stdint.h"
 298              		.file 4 "../os/ports/GCC/ARM/chtypes.h"
 299              		.file 5 "../os/kernel/include/chlists.h"
 300              		.file 6 "../os/kernel/include/chthreads.h"
 301              		.file 7 "../os/ports/GCC/ARM/chcore.h"
 302              		.file 8 "../os/kernel/include/chvt.h"
 303              		.file 9 "../os/kernel/include/chschd.h"
 304              		.file 10 "../os/kernel/include/chmtx.h"
 305              		.file 11 "../os/kernel/include/chevents.h"
 306              		.file 12 "../os/kernel/include/chregistry.h"
 307              		.file 13 "../os/kernel/include/chqueues.h"
 308              		.file 14 "../os/kernel/include/chstreams.h"
 309              		.file 15 "../os/kernel/include/ch.h"
 310              		.file 16 "../os/hal/platforms/BCM2835/bcm2835.h"
 311              		.file 17 "../os/hal/platforms/BCM2835/pal_lld.h"
 312              		.file 18 "../os/hal/include/i2c.h"
 313              		.file 19 "../os/hal/platforms/BCM2835/i2c_lld.h"
 314              		.file 20 "../os/hal/include/serial.h"
 315              		.file 21 "../os/hal/include/spi.h"
 316              		.file 22 "../os/hal/platforms/BCM2835/spi_lld.h"
 317              		.file 23 "../os/hal/include/hal.h"
 318              		.file 24 "../os/kernel/include/chsys.h"
 319              		.file 25 "../os/various/chprintf.h"
 320              		.file 26 "../os/hal/platforms/BCM2835/serial_lld.h"
 321              		.section	.debug_info,"",%progbits
 322              	.Ldebug_info0:
 323 0000 D9110000 		.4byte	0x11d9
 324 0004 0400     		.2byte	0x4
 325 0006 00000000 		.4byte	.Ldebug_abbrev0
 326 000a 04       		.byte	0x4
ARM GAS  /tmp/ccVQXVRI.s 			page 7


 327 000b 01       		.uleb128 0x1
 328 000c 22000000 		.4byte	.LASF208
 329 0010 0C       		.byte	0xc
 330 0011 7A040000 		.4byte	.LASF209
 331 0015 F5010000 		.4byte	.LASF210
 332 0019 00000000 		.4byte	.Ldebug_ranges0+0
 333 001d 00000000 		.4byte	0
 334 0021 00000000 		.4byte	.Ldebug_line0
 335 0025 02       		.uleb128 0x2
 336 0026 04       		.byte	0x4
 337 0027 05       		.byte	0x5
 338 0028 696E7400 		.ascii	"int\000"
 339 002c 03       		.uleb128 0x3
 340 002d 68030000 		.4byte	.LASF3
 341 0031 02       		.byte	0x2
 342 0032 D1       		.byte	0xd1
 343 0033 17       		.byte	0x17
 344 0034 38000000 		.4byte	0x38
 345 0038 04       		.uleb128 0x4
 346 0039 04       		.byte	0x4
 347 003a 07       		.byte	0x7
 348 003b AC030000 		.4byte	.LASF0
 349 003f 05       		.uleb128 0x5
 350 0040 38000000 		.4byte	0x38
 351 0044 04       		.uleb128 0x4
 352 0045 01       		.byte	0x1
 353 0046 06       		.byte	0x6
 354 0047 BB010000 		.4byte	.LASF1
 355 004b 04       		.uleb128 0x4
 356 004c 02       		.byte	0x2
 357 004d 05       		.byte	0x5
 358 004e 7C060000 		.4byte	.LASF2
 359 0052 03       		.uleb128 0x3
 360 0053 47060000 		.4byte	.LASF4
 361 0057 03       		.byte	0x3
 362 0058 28       		.byte	0x28
 363 0059 18       		.byte	0x18
 364 005a 5E000000 		.4byte	0x5e
 365 005e 04       		.uleb128 0x4
 366 005f 04       		.byte	0x4
 367 0060 05       		.byte	0x5
 368 0061 7A020000 		.4byte	.LASF5
 369 0065 04       		.uleb128 0x4
 370 0066 08       		.byte	0x8
 371 0067 05       		.byte	0x5
 372 0068 AD010000 		.4byte	.LASF6
 373 006c 03       		.uleb128 0x3
 374 006d 99080000 		.4byte	.LASF7
 375 0071 03       		.byte	0x3
 376 0072 2E       		.byte	0x2e
 377 0073 18       		.byte	0x18
 378 0074 7D000000 		.4byte	0x7d
 379 0078 06       		.uleb128 0x6
 380 0079 6C000000 		.4byte	0x6c
 381 007d 04       		.uleb128 0x4
 382 007e 01       		.byte	0x1
 383 007f 08       		.byte	0x8
ARM GAS  /tmp/ccVQXVRI.s 			page 8


 384 0080 4F060000 		.4byte	.LASF8
 385 0084 03       		.uleb128 0x3
 386 0085 AC020000 		.4byte	.LASF9
 387 0089 03       		.byte	0x3
 388 008a 31       		.byte	0x31
 389 008b 19       		.byte	0x19
 390 008c 90000000 		.4byte	0x90
 391 0090 04       		.uleb128 0x4
 392 0091 02       		.byte	0x2
 393 0092 07       		.byte	0x7
 394 0093 40040000 		.4byte	.LASF10
 395 0097 03       		.uleb128 0x3
 396 0098 23070000 		.4byte	.LASF11
 397 009c 03       		.byte	0x3
 398 009d 34       		.byte	0x34
 399 009e 19       		.byte	0x19
 400 009f A8000000 		.4byte	0xa8
 401 00a3 05       		.uleb128 0x5
 402 00a4 97000000 		.4byte	0x97
 403 00a8 04       		.uleb128 0x4
 404 00a9 04       		.byte	0x4
 405 00aa 07       		.byte	0x7
 406 00ab EF030000 		.4byte	.LASF12
 407 00af 04       		.uleb128 0x4
 408 00b0 08       		.byte	0x8
 409 00b1 07       		.byte	0x7
 410 00b2 39010000 		.4byte	.LASF13
 411 00b6 03       		.uleb128 0x3
 412 00b7 92040000 		.4byte	.LASF14
 413 00bb 04       		.byte	0x4
 414 00bc 2A       		.byte	0x2a
 415 00bd 19       		.byte	0x19
 416 00be 6C000000 		.4byte	0x6c
 417 00c2 03       		.uleb128 0x3
 418 00c3 83020000 		.4byte	.LASF15
 419 00c7 04       		.byte	0x4
 420 00c8 2B       		.byte	0x2b
 421 00c9 19       		.byte	0x19
 422 00ca 6C000000 		.4byte	0x6c
 423 00ce 03       		.uleb128 0x3
 424 00cf F7050000 		.4byte	.LASF16
 425 00d3 04       		.byte	0x4
 426 00d4 2C       		.byte	0x2c
 427 00d5 19       		.byte	0x19
 428 00d6 6C000000 		.4byte	0x6c
 429 00da 03       		.uleb128 0x3
 430 00db 55020000 		.4byte	.LASF17
 431 00df 04       		.byte	0x4
 432 00e0 2D       		.byte	0x2d
 433 00e1 19       		.byte	0x19
 434 00e2 6C000000 		.4byte	0x6c
 435 00e6 03       		.uleb128 0x3
 436 00e7 26060000 		.4byte	.LASF18
 437 00eb 04       		.byte	0x4
 438 00ec 2E       		.byte	0x2e
 439 00ed 19       		.byte	0x19
 440 00ee 97000000 		.4byte	0x97
ARM GAS  /tmp/ccVQXVRI.s 			page 9


 441 00f2 03       		.uleb128 0x3
 442 00f3 65040000 		.4byte	.LASF19
 443 00f7 04       		.byte	0x4
 444 00f8 2F       		.byte	0x2f
 445 00f9 19       		.byte	0x19
 446 00fa 52000000 		.4byte	0x52
 447 00fe 03       		.uleb128 0x3
 448 00ff A6040000 		.4byte	.LASF20
 449 0103 04       		.byte	0x4
 450 0104 31       		.byte	0x31
 451 0105 19       		.byte	0x19
 452 0106 97000000 		.4byte	0x97
 453 010a 03       		.uleb128 0x3
 454 010b 41080000 		.4byte	.LASF21
 455 010f 04       		.byte	0x4
 456 0110 32       		.byte	0x32
 457 0111 19       		.byte	0x19
 458 0112 97000000 		.4byte	0x97
 459 0116 03       		.uleb128 0x3
 460 0117 B8070000 		.4byte	.LASF22
 461 011b 04       		.byte	0x4
 462 011c 33       		.byte	0x33
 463 011d 19       		.byte	0x19
 464 011e 97000000 		.4byte	0x97
 465 0122 05       		.uleb128 0x5
 466 0123 16010000 		.4byte	0x116
 467 0127 03       		.uleb128 0x3
 468 0128 E1060000 		.4byte	.LASF23
 469 012c 05       		.byte	0x5
 470 012d 23       		.byte	0x23
 471 012e 17       		.byte	0x17
 472 012f 33010000 		.4byte	0x133
 473 0133 07       		.uleb128 0x7
 474 0134 E1060000 		.4byte	.LASF23
 475 0138 44       		.byte	0x44
 476 0139 06       		.byte	0x6
 477 013a 57       		.byte	0x57
 478 013b 08       		.byte	0x8
 479 013c 38020000 		.4byte	0x238
 480 0140 08       		.uleb128 0x8
 481 0141 BB060000 		.4byte	.LASF24
 482 0145 06       		.byte	0x6
 483 0146 58       		.byte	0x58
 484 0147 1A       		.byte	0x1a
 485 0148 5C020000 		.4byte	0x25c
 486 014c 00       		.byte	0
 487 014d 08       		.uleb128 0x8
 488 014e 1F060000 		.4byte	.LASF25
 489 0152 06       		.byte	0x6
 490 0153 5A       		.byte	0x5a
 491 0154 1A       		.byte	0x1a
 492 0155 5C020000 		.4byte	0x25c
 493 0159 04       		.byte	0x4
 494 015a 08       		.uleb128 0x8
 495 015b 82010000 		.4byte	.LASF26
 496 015f 06       		.byte	0x6
 497 0160 5C       		.byte	0x5c
ARM GAS  /tmp/ccVQXVRI.s 			page 10


 498 0161 19       		.byte	0x19
 499 0162 E6000000 		.4byte	0xe6
 500 0166 08       		.byte	0x8
 501 0167 08       		.uleb128 0x8
 502 0168 29090000 		.4byte	.LASF27
 503 016c 06       		.byte	0x6
 504 016d 5D       		.byte	0x5d
 505 016e 19       		.byte	0x19
 506 016f 27030000 		.4byte	0x327
 507 0173 0C       		.byte	0xc
 508 0174 08       		.uleb128 0x8
 509 0175 DE020000 		.4byte	.LASF28
 510 0179 06       		.byte	0x6
 511 017a 5F       		.byte	0x5f
 512 017b 1A       		.byte	0x1a
 513 017c 5C020000 		.4byte	0x25c
 514 0180 10       		.byte	0x10
 515 0181 08       		.uleb128 0x8
 516 0182 6F050000 		.4byte	.LASF29
 517 0186 06       		.byte	0x6
 518 0187 60       		.byte	0x60
 519 0188 1A       		.byte	0x1a
 520 0189 5C020000 		.4byte	0x25c
 521 018d 14       		.byte	0x14
 522 018e 08       		.uleb128 0x8
 523 018f BC080000 		.4byte	.LASF30
 524 0193 06       		.byte	0x6
 525 0194 67       		.byte	0x67
 526 0195 1A       		.byte	0x1a
 527 0196 88050000 		.4byte	0x588
 528 019a 18       		.byte	0x18
 529 019b 08       		.uleb128 0x8
 530 019c 86060000 		.4byte	.LASF31
 531 01a0 06       		.byte	0x6
 532 01a1 72       		.byte	0x72
 533 01a2 19       		.byte	0x19
 534 01a3 C2000000 		.4byte	0xc2
 535 01a7 1C       		.byte	0x1c
 536 01a8 08       		.uleb128 0x8
 537 01a9 D9060000 		.4byte	.LASF32
 538 01ad 06       		.byte	0x6
 539 01ae 76       		.byte	0x76
 540 01af 19       		.byte	0x19
 541 01b0 B6000000 		.4byte	0xb6
 542 01b4 1D       		.byte	0x1d
 543 01b5 08       		.uleb128 0x8
 544 01b6 72080000 		.4byte	.LASF33
 545 01ba 06       		.byte	0x6
 546 01bb 7B       		.byte	0x7b
 547 01bc 19       		.byte	0x19
 548 01bd CE000000 		.4byte	0xce
 549 01c1 1E       		.byte	0x1e
 550 01c2 08       		.uleb128 0x8
 551 01c3 8E060000 		.4byte	.LASF34
 552 01c7 06       		.byte	0x6
 553 01c8 81       		.byte	0x81
 554 01c9 19       		.byte	0x19
ARM GAS  /tmp/ccVQXVRI.s 			page 11


 555 01ca DA000000 		.4byte	0xda
 556 01ce 1F       		.byte	0x1f
 557 01cf 08       		.uleb128 0x8
 558 01d0 EA070000 		.4byte	.LASF35
 559 01d4 06       		.byte	0x6
 560 01d5 88       		.byte	0x88
 561 01d6 19       		.byte	0x19
 562 01d7 22010000 		.4byte	0x122
 563 01db 20       		.byte	0x20
 564 01dc 09       		.uleb128 0x9
 565 01dd 705F7500 		.ascii	"p_u\000"
 566 01e1 06       		.byte	0x6
 567 01e2 AD       		.byte	0xad
 568 01e3 19       		.byte	0x19
 569 01e4 4E050000 		.4byte	0x54e
 570 01e8 24       		.byte	0x24
 571 01e9 08       		.uleb128 0x8
 572 01ea 2F090000 		.4byte	.LASF36
 573 01ee 06       		.byte	0x6
 574 01ef B2       		.byte	0xb2
 575 01f0 19       		.byte	0x19
 576 01f1 85020000 		.4byte	0x285
 577 01f5 28       		.byte	0x28
 578 01f6 08       		.uleb128 0x8
 579 01f7 07080000 		.4byte	.LASF37
 580 01fb 06       		.byte	0x6
 581 01fc B8       		.byte	0xb8
 582 01fd 19       		.byte	0x19
 583 01fe 62020000 		.4byte	0x262
 584 0202 2C       		.byte	0x2c
 585 0203 08       		.uleb128 0x8
 586 0204 1C000000 		.4byte	.LASF38
 587 0208 06       		.byte	0x6
 588 0209 BC       		.byte	0xbc
 589 020a 19       		.byte	0x19
 590 020b F2000000 		.4byte	0xf2
 591 020f 34       		.byte	0x34
 592 0210 08       		.uleb128 0x8
 593 0211 0E070000 		.4byte	.LASF39
 594 0215 06       		.byte	0x6
 595 0216 C2       		.byte	0xc2
 596 0217 19       		.byte	0x19
 597 0218 FE000000 		.4byte	0xfe
 598 021c 38       		.byte	0x38
 599 021d 08       		.uleb128 0x8
 600 021e 72060000 		.4byte	.LASF40
 601 0222 06       		.byte	0x6
 602 0223 C9       		.byte	0xc9
 603 0224 1A       		.byte	0x1a
 604 0225 9A050000 		.4byte	0x59a
 605 0229 3C       		.byte	0x3c
 606 022a 08       		.uleb128 0x8
 607 022b C2070000 		.4byte	.LASF41
 608 022f 06       		.byte	0x6
 609 0230 CD       		.byte	0xcd
 610 0231 19       		.byte	0x19
 611 0232 E6000000 		.4byte	0xe6
ARM GAS  /tmp/ccVQXVRI.s 			page 12


 612 0236 40       		.byte	0x40
 613 0237 00       		.byte	0
 614 0238 0A       		.uleb128 0xa
 615 0239 08       		.byte	0x8
 616 023a 05       		.byte	0x5
 617 023b 5A       		.byte	0x5a
 618 023c 09       		.byte	0x9
 619 023d 5C020000 		.4byte	0x25c
 620 0241 08       		.uleb128 0x8
 621 0242 BB060000 		.4byte	.LASF24
 622 0246 05       		.byte	0x5
 623 0247 5B       		.byte	0x5b
 624 0248 1A       		.byte	0x1a
 625 0249 5C020000 		.4byte	0x25c
 626 024d 00       		.byte	0
 627 024e 08       		.uleb128 0x8
 628 024f 1F060000 		.4byte	.LASF25
 629 0253 05       		.byte	0x5
 630 0254 5D       		.byte	0x5d
 631 0255 1A       		.byte	0x1a
 632 0256 5C020000 		.4byte	0x25c
 633 025a 04       		.byte	0x4
 634 025b 00       		.byte	0
 635 025c 0B       		.uleb128 0xb
 636 025d 04       		.byte	0x4
 637 025e 27010000 		.4byte	0x127
 638 0262 03       		.uleb128 0x3
 639 0263 8D050000 		.4byte	.LASF42
 640 0267 05       		.byte	0x5
 641 0268 5F       		.byte	0x5f
 642 0269 03       		.byte	0x3
 643 026a 38020000 		.4byte	0x238
 644 026e 0A       		.uleb128 0xa
 645 026f 04       		.byte	0x4
 646 0270 05       		.byte	0x5
 647 0271 64       		.byte	0x64
 648 0272 09       		.byte	0x9
 649 0273 85020000 		.4byte	0x285
 650 0277 08       		.uleb128 0x8
 651 0278 BB060000 		.4byte	.LASF24
 652 027c 05       		.byte	0x5
 653 027d 66       		.byte	0x66
 654 027e 16       		.byte	0x16
 655 027f 5C020000 		.4byte	0x25c
 656 0283 00       		.byte	0
 657 0284 00       		.byte	0
 658 0285 03       		.uleb128 0x3
 659 0286 9A040000 		.4byte	.LASF43
 660 028a 05       		.byte	0x5
 661 028b 69       		.byte	0x69
 662 028c 03       		.byte	0x3
 663 028d 6E020000 		.4byte	0x26e
 664 0291 03       		.uleb128 0x3
 665 0292 DD040000 		.4byte	.LASF44
 666 0296 07       		.byte	0x7
 667 0297 9D       		.byte	0x9d
 668 0298 12       		.byte	0x12
ARM GAS  /tmp/ccVQXVRI.s 			page 13


 669 0299 97000000 		.4byte	0x97
 670 029d 03       		.uleb128 0x3
 671 029e 4A030000 		.4byte	.LASF45
 672 02a2 07       		.byte	0x7
 673 02a3 A2       		.byte	0xa2
 674 02a4 0F       		.byte	0xf
 675 02a5 A9020000 		.4byte	0x2a9
 676 02a9 0C       		.uleb128 0xc
 677 02aa 04       		.byte	0x4
 678 02ab 07       		.uleb128 0x7
 679 02ac 00080000 		.4byte	.LASF46
 680 02b0 24       		.byte	0x24
 681 02b1 07       		.byte	0x7
 682 02b2 B9       		.byte	0xb9
 683 02b3 08       		.byte	0x8
 684 02b4 27030000 		.4byte	0x327
 685 02b8 09       		.uleb128 0x9
 686 02b9 723400   		.ascii	"r4\000"
 687 02bc 07       		.byte	0x7
 688 02bd BA       		.byte	0xba
 689 02be 11       		.byte	0x11
 690 02bf 9D020000 		.4byte	0x29d
 691 02c3 00       		.byte	0
 692 02c4 09       		.uleb128 0x9
 693 02c5 723500   		.ascii	"r5\000"
 694 02c8 07       		.byte	0x7
 695 02c9 BB       		.byte	0xbb
 696 02ca 11       		.byte	0x11
 697 02cb 9D020000 		.4byte	0x29d
 698 02cf 04       		.byte	0x4
 699 02d0 09       		.uleb128 0x9
 700 02d1 723600   		.ascii	"r6\000"
 701 02d4 07       		.byte	0x7
 702 02d5 BC       		.byte	0xbc
 703 02d6 11       		.byte	0x11
 704 02d7 9D020000 		.4byte	0x29d
 705 02db 08       		.byte	0x8
 706 02dc 09       		.uleb128 0x9
 707 02dd 723700   		.ascii	"r7\000"
 708 02e0 07       		.byte	0x7
 709 02e1 BD       		.byte	0xbd
 710 02e2 11       		.byte	0x11
 711 02e3 9D020000 		.4byte	0x29d
 712 02e7 0C       		.byte	0xc
 713 02e8 09       		.uleb128 0x9
 714 02e9 723800   		.ascii	"r8\000"
 715 02ec 07       		.byte	0x7
 716 02ed BE       		.byte	0xbe
 717 02ee 11       		.byte	0x11
 718 02ef 9D020000 		.4byte	0x29d
 719 02f3 10       		.byte	0x10
 720 02f4 09       		.uleb128 0x9
 721 02f5 723900   		.ascii	"r9\000"
 722 02f8 07       		.byte	0x7
 723 02f9 BF       		.byte	0xbf
 724 02fa 11       		.byte	0x11
 725 02fb 9D020000 		.4byte	0x29d
ARM GAS  /tmp/ccVQXVRI.s 			page 14


 726 02ff 14       		.byte	0x14
 727 0300 09       		.uleb128 0x9
 728 0301 72313000 		.ascii	"r10\000"
 729 0305 07       		.byte	0x7
 730 0306 C0       		.byte	0xc0
 731 0307 11       		.byte	0x11
 732 0308 9D020000 		.4byte	0x29d
 733 030c 18       		.byte	0x18
 734 030d 09       		.uleb128 0x9
 735 030e 72313100 		.ascii	"r11\000"
 736 0312 07       		.byte	0x7
 737 0313 C1       		.byte	0xc1
 738 0314 11       		.byte	0x11
 739 0315 9D020000 		.4byte	0x29d
 740 0319 1C       		.byte	0x1c
 741 031a 09       		.uleb128 0x9
 742 031b 6C7200   		.ascii	"lr\000"
 743 031e 07       		.byte	0x7
 744 031f C2       		.byte	0xc2
 745 0320 11       		.byte	0x11
 746 0321 9D020000 		.4byte	0x29d
 747 0325 20       		.byte	0x20
 748 0326 00       		.byte	0
 749 0327 07       		.uleb128 0x7
 750 0328 38040000 		.4byte	.LASF47
 751 032c 04       		.byte	0x4
 752 032d 07       		.byte	0x7
 753 032e CA       		.byte	0xca
 754 032f 08       		.byte	0x8
 755 0330 42030000 		.4byte	0x342
 756 0334 09       		.uleb128 0x9
 757 0335 72313300 		.ascii	"r13\000"
 758 0339 07       		.byte	0x7
 759 033a CB       		.byte	0xcb
 760 033b 12       		.byte	0x12
 761 033c 42030000 		.4byte	0x342
 762 0340 00       		.byte	0
 763 0341 00       		.byte	0
 764 0342 0B       		.uleb128 0xb
 765 0343 04       		.byte	0x4
 766 0344 AB020000 		.4byte	0x2ab
 767 0348 03       		.uleb128 0x3
 768 0349 CD070000 		.4byte	.LASF48
 769 034d 08       		.byte	0x8
 770 034e 4E       		.byte	0x4e
 771 034f 10       		.byte	0x10
 772 0350 54030000 		.4byte	0x354
 773 0354 0B       		.uleb128 0xb
 774 0355 04       		.byte	0x4
 775 0356 5A030000 		.4byte	0x35a
 776 035a 0D       		.uleb128 0xd
 777 035b 65030000 		.4byte	0x365
 778 035f 0E       		.uleb128 0xe
 779 0360 A9020000 		.4byte	0x2a9
 780 0364 00       		.byte	0
 781 0365 03       		.uleb128 0x3
 782 0366 40070000 		.4byte	.LASF49
ARM GAS  /tmp/ccVQXVRI.s 			page 15


 783 036a 08       		.byte	0x8
 784 036b 53       		.byte	0x53
 785 036c 1D       		.byte	0x1d
 786 036d 71030000 		.4byte	0x371
 787 0371 07       		.uleb128 0x7
 788 0372 40070000 		.4byte	.LASF49
 789 0376 14       		.byte	0x14
 790 0377 08       		.byte	0x8
 791 0378 5A       		.byte	0x5a
 792 0379 08       		.byte	0x8
 793 037a C0030000 		.4byte	0x3c0
 794 037e 08       		.uleb128 0x8
 795 037f C3030000 		.4byte	.LASF50
 796 0383 08       		.byte	0x8
 797 0384 5B       		.byte	0x5b
 798 0385 1A       		.byte	0x1a
 799 0386 C0030000 		.4byte	0x3c0
 800 038a 00       		.byte	0
 801 038b 08       		.uleb128 0x8
 802 038c 53030000 		.4byte	.LASF51
 803 0390 08       		.byte	0x8
 804 0391 5D       		.byte	0x5d
 805 0392 1A       		.byte	0x1a
 806 0393 C0030000 		.4byte	0x3c0
 807 0397 04       		.byte	0x4
 808 0398 08       		.uleb128 0x8
 809 0399 19050000 		.4byte	.LASF52
 810 039d 08       		.byte	0x8
 811 039e 5F       		.byte	0x5f
 812 039f 19       		.byte	0x19
 813 03a0 16010000 		.4byte	0x116
 814 03a4 08       		.byte	0x8
 815 03a5 08       		.uleb128 0x8
 816 03a6 41050000 		.4byte	.LASF53
 817 03aa 08       		.byte	0x8
 818 03ab 60       		.byte	0x60
 819 03ac 19       		.byte	0x19
 820 03ad 48030000 		.4byte	0x348
 821 03b1 0C       		.byte	0xc
 822 03b2 08       		.uleb128 0x8
 823 03b3 3A080000 		.4byte	.LASF54
 824 03b7 08       		.byte	0x8
 825 03b8 62       		.byte	0x62
 826 03b9 1A       		.byte	0x1a
 827 03ba A9020000 		.4byte	0x2a9
 828 03be 10       		.byte	0x10
 829 03bf 00       		.byte	0
 830 03c0 0B       		.uleb128 0xb
 831 03c1 04       		.byte	0x4
 832 03c2 65030000 		.4byte	0x365
 833 03c6 0A       		.uleb128 0xa
 834 03c7 10       		.byte	0x10
 835 03c8 08       		.byte	0x8
 836 03c9 6C       		.byte	0x6c
 837 03ca 09       		.byte	0x9
 838 03cb 04040000 		.4byte	0x404
 839 03cf 08       		.uleb128 0x8
ARM GAS  /tmp/ccVQXVRI.s 			page 16


 840 03d0 C3030000 		.4byte	.LASF50
 841 03d4 08       		.byte	0x8
 842 03d5 6D       		.byte	0x6d
 843 03d6 1A       		.byte	0x1a
 844 03d7 C0030000 		.4byte	0x3c0
 845 03db 00       		.byte	0
 846 03dc 08       		.uleb128 0x8
 847 03dd 53030000 		.4byte	.LASF51
 848 03e1 08       		.byte	0x8
 849 03e2 6F       		.byte	0x6f
 850 03e3 1A       		.byte	0x1a
 851 03e4 C0030000 		.4byte	0x3c0
 852 03e8 04       		.byte	0x4
 853 03e9 08       		.uleb128 0x8
 854 03ea 19050000 		.4byte	.LASF52
 855 03ee 08       		.byte	0x8
 856 03ef 71       		.byte	0x71
 857 03f0 19       		.byte	0x19
 858 03f1 16010000 		.4byte	0x116
 859 03f5 08       		.byte	0x8
 860 03f6 08       		.uleb128 0x8
 861 03f7 C3080000 		.4byte	.LASF55
 862 03fb 08       		.byte	0x8
 863 03fc 72       		.byte	0x72
 864 03fd 19       		.byte	0x19
 865 03fe 22010000 		.4byte	0x122
 866 0402 0C       		.byte	0xc
 867 0403 00       		.byte	0
 868 0404 03       		.uleb128 0x3
 869 0405 F6080000 		.4byte	.LASF56
 870 0409 08       		.byte	0x8
 871 040a 73       		.byte	0x73
 872 040b 03       		.byte	0x3
 873 040c C6030000 		.4byte	0x3c6
 874 0410 0F       		.uleb128 0xf
 875 0411 1A010000 		.4byte	.LASF64
 876 0415 08       		.byte	0x8
 877 0416 D1       		.byte	0xd1
 878 0417 0F       		.byte	0xf
 879 0418 04040000 		.4byte	0x404
 880 041c 0A       		.uleb128 0xa
 881 041d 1C       		.byte	0x1c
 882 041e 09       		.byte	0x9
 883 041f 57       		.byte	0x57
 884 0420 09       		.byte	0x9
 885 0421 74040000 		.4byte	0x474
 886 0425 08       		.uleb128 0x8
 887 0426 38070000 		.4byte	.LASF57
 888 042a 09       		.byte	0x9
 889 042b 58       		.byte	0x58
 890 042c 19       		.byte	0x19
 891 042d 62020000 		.4byte	0x262
 892 0431 00       		.byte	0
 893 0432 08       		.uleb128 0x8
 894 0433 A4060000 		.4byte	.LASF58
 895 0437 09       		.byte	0x9
 896 0438 59       		.byte	0x59
ARM GAS  /tmp/ccVQXVRI.s 			page 17


 897 0439 19       		.byte	0x19
 898 043a E6000000 		.4byte	0xe6
 899 043e 08       		.byte	0x8
 900 043f 08       		.uleb128 0x8
 901 0440 87050000 		.4byte	.LASF59
 902 0444 09       		.byte	0x9
 903 0445 5B       		.byte	0x5b
 904 0446 19       		.byte	0x19
 905 0447 27030000 		.4byte	0x327
 906 044b 0C       		.byte	0xc
 907 044c 08       		.uleb128 0x8
 908 044d 42030000 		.4byte	.LASF60
 909 0451 09       		.byte	0x9
 910 0452 5E       		.byte	0x5e
 911 0453 1A       		.byte	0x1a
 912 0454 5C020000 		.4byte	0x25c
 913 0458 10       		.byte	0x10
 914 0459 08       		.uleb128 0x8
 915 045a B4050000 		.4byte	.LASF61
 916 045e 09       		.byte	0x9
 917 045f 5F       		.byte	0x5f
 918 0460 1A       		.byte	0x1a
 919 0461 5C020000 		.4byte	0x25c
 920 0465 14       		.byte	0x14
 921 0466 08       		.uleb128 0x8
 922 0467 AA050000 		.4byte	.LASF62
 923 046b 09       		.byte	0x9
 924 046c 62       		.byte	0x62
 925 046d 1A       		.byte	0x1a
 926 046e 5C020000 		.4byte	0x25c
 927 0472 18       		.byte	0x18
 928 0473 00       		.byte	0
 929 0474 03       		.uleb128 0x3
 930 0475 80080000 		.4byte	.LASF63
 931 0479 09       		.byte	0x9
 932 047a 64       		.byte	0x64
 933 047b 03       		.byte	0x3
 934 047c 1C040000 		.4byte	0x41c
 935 0480 0F       		.uleb128 0xf
 936 0481 93080000 		.4byte	.LASF65
 937 0485 09       		.byte	0x9
 938 0486 68       		.byte	0x68
 939 0487 12       		.byte	0x12
 940 0488 74040000 		.4byte	0x474
 941 048c 07       		.uleb128 0x7
 942 048d BD040000 		.4byte	.LASF66
 943 0491 10       		.byte	0x10
 944 0492 0A       		.byte	0xa
 945 0493 25       		.byte	0x25
 946 0494 10       		.byte	0x10
 947 0495 C1040000 		.4byte	0x4c1
 948 0499 08       		.uleb128 0x8
 949 049a 48020000 		.4byte	.LASF67
 950 049e 0A       		.byte	0xa
 951 049f 26       		.byte	0x26
 952 04a0 19       		.byte	0x19
 953 04a1 62020000 		.4byte	0x262
ARM GAS  /tmp/ccVQXVRI.s 			page 18


 954 04a5 00       		.byte	0
 955 04a6 08       		.uleb128 0x8
 956 04a7 0E090000 		.4byte	.LASF68
 957 04ab 0A       		.byte	0xa
 958 04ac 28       		.byte	0x28
 959 04ad 1A       		.byte	0x1a
 960 04ae 5C020000 		.4byte	0x25c
 961 04b2 08       		.byte	0x8
 962 04b3 08       		.uleb128 0x8
 963 04b4 B1070000 		.4byte	.LASF69
 964 04b8 0A       		.byte	0xa
 965 04b9 2A       		.byte	0x2a
 966 04ba 1A       		.byte	0x1a
 967 04bb C1040000 		.4byte	0x4c1
 968 04bf 0C       		.byte	0xc
 969 04c0 00       		.byte	0
 970 04c1 0B       		.uleb128 0xb
 971 04c2 04       		.byte	0x4
 972 04c3 8C040000 		.4byte	0x48c
 973 04c7 03       		.uleb128 0x3
 974 04c8 BD040000 		.4byte	.LASF66
 975 04cc 0A       		.byte	0xa
 976 04cd 2C       		.byte	0x2c
 977 04ce 03       		.byte	0x3
 978 04cf 8C040000 		.4byte	0x48c
 979 04d3 03       		.uleb128 0x3
 980 04d4 A7080000 		.4byte	.LASF70
 981 04d8 0B       		.byte	0xb
 982 04d9 25       		.byte	0x25
 983 04da 1E       		.byte	0x1e
 984 04db DF040000 		.4byte	0x4df
 985 04df 07       		.uleb128 0x7
 986 04e0 A7080000 		.4byte	.LASF70
 987 04e4 10       		.byte	0x10
 988 04e5 0B       		.byte	0xb
 989 04e6 2A       		.byte	0x2a
 990 04e7 08       		.byte	0x8
 991 04e8 21050000 		.4byte	0x521
 992 04ec 08       		.uleb128 0x8
 993 04ed 72040000 		.4byte	.LASF71
 994 04f1 0B       		.byte	0xb
 995 04f2 2B       		.byte	0x2b
 996 04f3 1A       		.byte	0x1a
 997 04f4 21050000 		.4byte	0x521
 998 04f8 00       		.byte	0
 999 04f9 08       		.uleb128 0x8
 1000 04fa 5D060000 		.4byte	.LASF72
 1001 04fe 0B       		.byte	0xb
 1002 04ff 2E       		.byte	0x2e
 1003 0500 1A       		.byte	0x1a
 1004 0501 5C020000 		.4byte	0x25c
 1005 0505 04       		.byte	0x4
 1006 0506 08       		.uleb128 0x8
 1007 0507 BC050000 		.4byte	.LASF73
 1008 050b 0B       		.byte	0xb
 1009 050c 30       		.byte	0x30
 1010 050d 19       		.byte	0x19
ARM GAS  /tmp/ccVQXVRI.s 			page 19


 1011 050e FE000000 		.4byte	0xfe
 1012 0512 08       		.byte	0x8
 1013 0513 08       		.uleb128 0x8
 1014 0514 69060000 		.4byte	.LASF74
 1015 0518 0B       		.byte	0xb
 1016 0519 33       		.byte	0x33
 1017 051a 19       		.byte	0x19
 1018 051b 0A010000 		.4byte	0x10a
 1019 051f 0C       		.byte	0xc
 1020 0520 00       		.byte	0
 1021 0521 0B       		.uleb128 0xb
 1022 0522 04       		.byte	0x4
 1023 0523 D3040000 		.4byte	0x4d3
 1024 0527 07       		.uleb128 0x7
 1025 0528 82030000 		.4byte	.LASF75
 1026 052c 04       		.byte	0x4
 1027 052d 0B       		.byte	0xb
 1028 052e 3A       		.byte	0x3a
 1029 052f 10       		.byte	0x10
 1030 0530 42050000 		.4byte	0x542
 1031 0534 08       		.uleb128 0x8
 1032 0535 CE080000 		.4byte	.LASF76
 1033 0539 0B       		.byte	0xb
 1034 053a 3B       		.byte	0x3b
 1035 053b 1A       		.byte	0x1a
 1036 053c 21050000 		.4byte	0x521
 1037 0540 00       		.byte	0
 1038 0541 00       		.byte	0
 1039 0542 03       		.uleb128 0x3
 1040 0543 82030000 		.4byte	.LASF75
 1041 0547 0B       		.byte	0xb
 1042 0548 3E       		.byte	0x3e
 1043 0549 03       		.byte	0x3
 1044 054a 27050000 		.4byte	0x527
 1045 054e 10       		.uleb128 0x10
 1046 054f 04       		.byte	0x4
 1047 0550 06       		.byte	0x6
 1048 0551 8F       		.byte	0x8f
 1049 0552 03       		.byte	0x3
 1050 0553 88050000 		.4byte	0x588
 1051 0557 11       		.uleb128 0x11
 1052 0558 F6000000 		.4byte	.LASF77
 1053 055c 06       		.byte	0x6
 1054 055d 96       		.byte	0x96
 1055 055e 19       		.byte	0x19
 1056 055f F2000000 		.4byte	0xf2
 1057 0563 11       		.uleb128 0x11
 1058 0564 5E010000 		.4byte	.LASF78
 1059 0568 06       		.byte	0x6
 1060 0569 9D       		.byte	0x9d
 1061 056a 19       		.byte	0x19
 1062 056b F2000000 		.4byte	0xf2
 1063 056f 11       		.uleb128 0x11
 1064 0570 B5080000 		.4byte	.LASF79
 1065 0574 06       		.byte	0x6
 1066 0575 A4       		.byte	0xa4
 1067 0576 1A       		.byte	0x1a
ARM GAS  /tmp/ccVQXVRI.s 			page 20


 1068 0577 A9020000 		.4byte	0x2a9
 1069 057b 11       		.uleb128 0x11
 1070 057c B4060000 		.4byte	.LASF80
 1071 0580 06       		.byte	0x6
 1072 0581 AB       		.byte	0xab
 1073 0582 19       		.byte	0x19
 1074 0583 FE000000 		.4byte	0xfe
 1075 0587 00       		.byte	0
 1076 0588 0B       		.uleb128 0xb
 1077 0589 04       		.byte	0x4
 1078 058a 95050000 		.4byte	0x595
 1079 058e 04       		.uleb128 0x4
 1080 058f 01       		.byte	0x1
 1081 0590 08       		.byte	0x8
 1082 0591 6D070000 		.4byte	.LASF81
 1083 0595 06       		.uleb128 0x6
 1084 0596 8E050000 		.4byte	0x58e
 1085 059a 0B       		.uleb128 0xb
 1086 059b 04       		.byte	0x4
 1087 059c C7040000 		.4byte	0x4c7
 1088 05a0 0B       		.uleb128 0xb
 1089 05a1 04       		.byte	0x4
 1090 05a2 A6050000 		.4byte	0x5a6
 1091 05a6 12       		.uleb128 0x12
 1092 05a7 F2000000 		.4byte	0xf2
 1093 05ab B5050000 		.4byte	0x5b5
 1094 05af 0E       		.uleb128 0xe
 1095 05b0 A9020000 		.4byte	0x2a9
 1096 05b4 00       		.byte	0
 1097 05b5 0A       		.uleb128 0xa
 1098 05b6 16       		.byte	0x16
 1099 05b7 0C       		.byte	0xc
 1100 05b8 25       		.byte	0x25
 1101 05b9 09       		.byte	0x9
 1102 05ba A9060000 		.4byte	0x6a9
 1103 05be 08       		.uleb128 0x8
 1104 05bf 0F040000 		.4byte	.LASF82
 1105 05c3 0C       		.byte	0xc
 1106 05c4 26       		.byte	0x26
 1107 05c5 0D       		.byte	0xd
 1108 05c6 A9060000 		.4byte	0x6a9
 1109 05ca 00       		.byte	0
 1110 05cb 08       		.uleb128 0x8
 1111 05cc FA040000 		.4byte	.LASF83
 1112 05d0 0C       		.byte	0xc
 1113 05d1 27       		.byte	0x27
 1114 05d2 0D       		.byte	0xd
 1115 05d3 6C000000 		.4byte	0x6c
 1116 05d7 04       		.byte	0x4
 1117 05d8 08       		.uleb128 0x8
 1118 05d9 9A050000 		.4byte	.LASF84
 1119 05dd 0C       		.byte	0xc
 1120 05de 28       		.byte	0x28
 1121 05df 0D       		.byte	0xd
 1122 05e0 6C000000 		.4byte	0x6c
 1123 05e4 05       		.byte	0x5
 1124 05e5 08       		.uleb128 0x8
ARM GAS  /tmp/ccVQXVRI.s 			page 21


 1125 05e6 E0080000 		.4byte	.LASF85
 1126 05ea 0C       		.byte	0xc
 1127 05eb 29       		.byte	0x29
 1128 05ec 0D       		.byte	0xd
 1129 05ed 84000000 		.4byte	0x84
 1130 05f1 06       		.byte	0x6
 1131 05f2 08       		.uleb128 0x8
 1132 05f3 0A060000 		.4byte	.LASF86
 1133 05f7 0C       		.byte	0xc
 1134 05f8 2A       		.byte	0x2a
 1135 05f9 0D       		.byte	0xd
 1136 05fa 6C000000 		.4byte	0x6c
 1137 05fe 08       		.byte	0x8
 1138 05ff 08       		.uleb128 0x8
 1139 0600 49050000 		.4byte	.LASF87
 1140 0604 0C       		.byte	0xc
 1141 0605 2B       		.byte	0x2b
 1142 0606 0D       		.byte	0xd
 1143 0607 6C000000 		.4byte	0x6c
 1144 060b 09       		.byte	0x9
 1145 060c 08       		.uleb128 0x8
 1146 060d 50010000 		.4byte	.LASF88
 1147 0611 0C       		.byte	0xc
 1148 0612 2C       		.byte	0x2c
 1149 0613 0D       		.byte	0xd
 1150 0614 6C000000 		.4byte	0x6c
 1151 0618 0A       		.byte	0xa
 1152 0619 08       		.uleb128 0x8
 1153 061a 2C070000 		.4byte	.LASF89
 1154 061e 0C       		.byte	0xc
 1155 061f 2D       		.byte	0x2d
 1156 0620 0D       		.byte	0xd
 1157 0621 6C000000 		.4byte	0x6c
 1158 0625 0B       		.byte	0xb
 1159 0626 08       		.uleb128 0x8
 1160 0627 67080000 		.4byte	.LASF90
 1161 062b 0C       		.byte	0xc
 1162 062c 2E       		.byte	0x2e
 1163 062d 0D       		.byte	0xd
 1164 062e 6C000000 		.4byte	0x6c
 1165 0632 0C       		.byte	0xc
 1166 0633 08       		.uleb128 0x8
 1167 0634 F6060000 		.4byte	.LASF91
 1168 0638 0C       		.byte	0xc
 1169 0639 2F       		.byte	0x2f
 1170 063a 0D       		.byte	0xd
 1171 063b 6C000000 		.4byte	0x6c
 1172 063f 0D       		.byte	0xd
 1173 0640 08       		.uleb128 0x8
 1174 0641 0F000000 		.4byte	.LASF92
 1175 0645 0C       		.byte	0xc
 1176 0646 30       		.byte	0x30
 1177 0647 0D       		.byte	0xd
 1178 0648 6C000000 		.4byte	0x6c
 1179 064c 0E       		.byte	0xe
 1180 064d 08       		.uleb128 0x8
 1181 064e 63050000 		.4byte	.LASF93
ARM GAS  /tmp/ccVQXVRI.s 			page 22


 1182 0652 0C       		.byte	0xc
 1183 0653 31       		.byte	0x31
 1184 0654 0D       		.byte	0xd
 1185 0655 6C000000 		.4byte	0x6c
 1186 0659 0F       		.byte	0xf
 1187 065a 08       		.uleb128 0x8
 1188 065b C7010000 		.4byte	.LASF94
 1189 065f 0C       		.byte	0xc
 1190 0660 32       		.byte	0x32
 1191 0661 0D       		.byte	0xd
 1192 0662 6C000000 		.4byte	0x6c
 1193 0666 10       		.byte	0x10
 1194 0667 08       		.uleb128 0x8
 1195 0668 89010000 		.4byte	.LASF95
 1196 066c 0C       		.byte	0xc
 1197 066d 34       		.byte	0x34
 1198 066e 0D       		.byte	0xd
 1199 066f 6C000000 		.4byte	0x6c
 1200 0673 11       		.byte	0x11
 1201 0674 08       		.uleb128 0x8
 1202 0675 E0010000 		.4byte	.LASF96
 1203 0679 0C       		.byte	0xc
 1204 067a 35       		.byte	0x35
 1205 067b 0D       		.byte	0xd
 1206 067c 6C000000 		.4byte	0x6c
 1207 0680 12       		.byte	0x12
 1208 0681 08       		.uleb128 0x8
 1209 0682 02050000 		.4byte	.LASF97
 1210 0686 0C       		.byte	0xc
 1211 0687 36       		.byte	0x36
 1212 0688 0D       		.byte	0xd
 1213 0689 6C000000 		.4byte	0x6c
 1214 068d 13       		.byte	0x13
 1215 068e 08       		.uleb128 0x8
 1216 068f CA060000 		.4byte	.LASF98
 1217 0693 0C       		.byte	0xc
 1218 0694 37       		.byte	0x37
 1219 0695 0D       		.byte	0xd
 1220 0696 6C000000 		.4byte	0x6c
 1221 069a 14       		.byte	0x14
 1222 069b 08       		.uleb128 0x8
 1223 069c 98060000 		.4byte	.LASF99
 1224 06a0 0C       		.byte	0xc
 1225 06a1 39       		.byte	0x39
 1226 06a2 0D       		.byte	0xd
 1227 06a3 6C000000 		.4byte	0x6c
 1228 06a7 15       		.byte	0x15
 1229 06a8 00       		.byte	0
 1230 06a9 13       		.uleb128 0x13
 1231 06aa 8E050000 		.4byte	0x58e
 1232 06ae B9060000 		.4byte	0x6b9
 1233 06b2 14       		.uleb128 0x14
 1234 06b3 38000000 		.4byte	0x38
 1235 06b7 03       		.byte	0x3
 1236 06b8 00       		.byte	0
 1237 06b9 03       		.uleb128 0x3
 1238 06ba BA020000 		.4byte	.LASF100
ARM GAS  /tmp/ccVQXVRI.s 			page 23


 1239 06be 0C       		.byte	0xc
 1240 06bf 3A       		.byte	0x3a
 1241 06c0 03       		.byte	0x3
 1242 06c1 B5050000 		.4byte	0x5b5
 1243 06c5 06       		.uleb128 0x6
 1244 06c6 B9060000 		.4byte	0x6b9
 1245 06ca 0F       		.uleb128 0xf
 1246 06cb 01040000 		.4byte	.LASF101
 1247 06cf 0C       		.byte	0xc
 1248 06d0 77       		.byte	0x77
 1249 06d1 1D       		.byte	0x1d
 1250 06d2 C5060000 		.4byte	0x6c5
 1251 06d6 03       		.uleb128 0x3
 1252 06d7 D0040000 		.4byte	.LASF102
 1253 06db 0D       		.byte	0xd
 1254 06dc 30       		.byte	0x30
 1255 06dd 1D       		.byte	0x1d
 1256 06de E2060000 		.4byte	0x6e2
 1257 06e2 07       		.uleb128 0x7
 1258 06e3 D0040000 		.4byte	.LASF102
 1259 06e7 24       		.byte	0x24
 1260 06e8 0D       		.byte	0xd
 1261 06e9 3E       		.byte	0x3e
 1262 06ea 08       		.byte	0x8
 1263 06eb 58070000 		.4byte	0x758
 1264 06ef 08       		.uleb128 0x8
 1265 06f0 A3010000 		.4byte	.LASF103
 1266 06f4 0D       		.byte	0xd
 1267 06f5 3F       		.byte	0x3f
 1268 06f6 19       		.byte	0x19
 1269 06f7 62020000 		.4byte	0x262
 1270 06fb 00       		.byte	0
 1271 06fc 08       		.uleb128 0x8
 1272 06fd 37050000 		.4byte	.LASF104
 1273 0701 0D       		.byte	0xd
 1274 0702 40       		.byte	0x40
 1275 0703 19       		.byte	0x19
 1276 0704 2C000000 		.4byte	0x2c
 1277 0708 08       		.byte	0x8
 1278 0709 08       		.uleb128 0x8
 1279 070a A3020000 		.4byte	.LASF105
 1280 070e 0D       		.byte	0xd
 1281 070f 41       		.byte	0x41
 1282 0710 1A       		.byte	0x1a
 1283 0711 7B070000 		.4byte	0x77b
 1284 0715 0C       		.byte	0xc
 1285 0716 08       		.uleb128 0x8
 1286 0717 33010000 		.4byte	.LASF106
 1287 071b 0D       		.byte	0xd
 1288 071c 42       		.byte	0x42
 1289 071d 1A       		.byte	0x1a
 1290 071e 7B070000 		.4byte	0x77b
 1291 0722 10       		.byte	0x10
 1292 0723 08       		.uleb128 0x8
 1293 0724 7F050000 		.4byte	.LASF107
 1294 0728 0D       		.byte	0xd
 1295 0729 44       		.byte	0x44
ARM GAS  /tmp/ccVQXVRI.s 			page 24


 1296 072a 1A       		.byte	0x1a
 1297 072b 7B070000 		.4byte	0x77b
 1298 072f 14       		.byte	0x14
 1299 0730 08       		.uleb128 0x8
 1300 0731 2E060000 		.4byte	.LASF108
 1301 0735 0D       		.byte	0xd
 1302 0736 45       		.byte	0x45
 1303 0737 1A       		.byte	0x1a
 1304 0738 7B070000 		.4byte	0x77b
 1305 073c 18       		.byte	0x18
 1306 073d 08       		.uleb128 0x8
 1307 073e 8A080000 		.4byte	.LASF109
 1308 0742 0D       		.byte	0xd
 1309 0743 46       		.byte	0x46
 1310 0744 19       		.byte	0x19
 1311 0745 58070000 		.4byte	0x758
 1312 0749 1C       		.byte	0x1c
 1313 074a 08       		.uleb128 0x8
 1314 074b FD080000 		.4byte	.LASF110
 1315 074f 0D       		.byte	0xd
 1316 0750 47       		.byte	0x47
 1317 0751 1A       		.byte	0x1a
 1318 0752 A9020000 		.4byte	0x2a9
 1319 0756 20       		.byte	0x20
 1320 0757 00       		.byte	0
 1321 0758 03       		.uleb128 0x3
 1322 0759 15060000 		.4byte	.LASF111
 1323 075d 0D       		.byte	0xd
 1324 075e 33       		.byte	0x33
 1325 075f 10       		.byte	0x10
 1326 0760 64070000 		.4byte	0x764
 1327 0764 0B       		.uleb128 0xb
 1328 0765 04       		.byte	0x4
 1329 0766 6A070000 		.4byte	0x76a
 1330 076a 0D       		.uleb128 0xd
 1331 076b 75070000 		.4byte	0x775
 1332 076f 0E       		.uleb128 0xe
 1333 0770 75070000 		.4byte	0x775
 1334 0774 00       		.byte	0
 1335 0775 0B       		.uleb128 0xb
 1336 0776 04       		.byte	0x4
 1337 0777 D6060000 		.4byte	0x6d6
 1338 077b 0B       		.uleb128 0xb
 1339 077c 04       		.byte	0x4
 1340 077d 6C000000 		.4byte	0x6c
 1341 0781 03       		.uleb128 0x3
 1342 0782 B2040000 		.4byte	.LASF112
 1343 0786 0D       		.byte	0xd
 1344 0787 7B       		.byte	0x7b
 1345 0788 16       		.byte	0x16
 1346 0789 D6060000 		.4byte	0x6d6
 1347 078d 03       		.uleb128 0x3
 1348 078e 03010000 		.4byte	.LASF113
 1349 0792 0D       		.byte	0xd
 1350 0793 EE       		.byte	0xee
 1351 0794 16       		.byte	0x16
 1352 0795 D6060000 		.4byte	0x6d6
ARM GAS  /tmp/ccVQXVRI.s 			page 25


 1353 0799 07       		.uleb128 0x7
 1354 079a 8E070000 		.4byte	.LASF114
 1355 079e 10       		.byte	0x10
 1356 079f 0E       		.byte	0xe
 1357 07a0 41       		.byte	0x41
 1358 07a1 08       		.byte	0x8
 1359 07a2 DB070000 		.4byte	0x7db
 1360 07a6 08       		.uleb128 0x8
 1361 07a7 FD000000 		.4byte	.LASF115
 1362 07ab 0E       		.byte	0xe
 1363 07ac 42       		.byte	0x42
 1364 07ad 03       		.byte	0x3
 1365 07ae FF070000 		.4byte	0x7ff
 1366 07b2 00       		.byte	0
 1367 07b3 08       		.uleb128 0x8
 1368 07b4 68070000 		.4byte	.LASF116
 1369 07b8 0E       		.byte	0xe
 1370 07b9 42       		.byte	0x42
 1371 07ba 03       		.byte	0x3
 1372 07bb 1E080000 		.4byte	0x81e
 1373 07bf 04       		.byte	0x4
 1374 07c0 09       		.uleb128 0x9
 1375 07c1 70757400 		.ascii	"put\000"
 1376 07c5 0E       		.byte	0xe
 1377 07c6 42       		.byte	0x42
 1378 07c7 03       		.byte	0x3
 1379 07c8 38080000 		.4byte	0x838
 1380 07cc 08       		.byte	0x8
 1381 07cd 09       		.uleb128 0x9
 1382 07ce 67657400 		.ascii	"get\000"
 1383 07d2 0E       		.byte	0xe
 1384 07d3 42       		.byte	0x42
 1385 07d4 03       		.byte	0x3
 1386 07d5 A0050000 		.4byte	0x5a0
 1387 07d9 0C       		.byte	0xc
 1388 07da 00       		.byte	0
 1389 07db 06       		.uleb128 0x6
 1390 07dc 99070000 		.4byte	0x799
 1391 07e0 12       		.uleb128 0x12
 1392 07e1 2C000000 		.4byte	0x2c
 1393 07e5 F9070000 		.4byte	0x7f9
 1394 07e9 0E       		.uleb128 0xe
 1395 07ea A9020000 		.4byte	0x2a9
 1396 07ee 0E       		.uleb128 0xe
 1397 07ef F9070000 		.4byte	0x7f9
 1398 07f3 0E       		.uleb128 0xe
 1399 07f4 2C000000 		.4byte	0x2c
 1400 07f8 00       		.byte	0
 1401 07f9 0B       		.uleb128 0xb
 1402 07fa 04       		.byte	0x4
 1403 07fb 78000000 		.4byte	0x78
 1404 07ff 0B       		.uleb128 0xb
 1405 0800 04       		.byte	0x4
 1406 0801 E0070000 		.4byte	0x7e0
 1407 0805 12       		.uleb128 0x12
 1408 0806 2C000000 		.4byte	0x2c
 1409 080a 1E080000 		.4byte	0x81e
ARM GAS  /tmp/ccVQXVRI.s 			page 26


 1410 080e 0E       		.uleb128 0xe
 1411 080f A9020000 		.4byte	0x2a9
 1412 0813 0E       		.uleb128 0xe
 1413 0814 7B070000 		.4byte	0x77b
 1414 0818 0E       		.uleb128 0xe
 1415 0819 2C000000 		.4byte	0x2c
 1416 081d 00       		.byte	0
 1417 081e 0B       		.uleb128 0xb
 1418 081f 04       		.byte	0x4
 1419 0820 05080000 		.4byte	0x805
 1420 0824 12       		.uleb128 0x12
 1421 0825 F2000000 		.4byte	0xf2
 1422 0829 38080000 		.4byte	0x838
 1423 082d 0E       		.uleb128 0xe
 1424 082e A9020000 		.4byte	0x2a9
 1425 0832 0E       		.uleb128 0xe
 1426 0833 6C000000 		.4byte	0x6c
 1427 0837 00       		.byte	0
 1428 0838 0B       		.uleb128 0xb
 1429 0839 04       		.byte	0x4
 1430 083a 24080000 		.4byte	0x824
 1431 083e 0A       		.uleb128 0xa
 1432 083f 04       		.byte	0x4
 1433 0840 0E       		.byte	0xe
 1434 0841 4A       		.byte	0x4a
 1435 0842 09       		.byte	0x9
 1436 0843 55080000 		.4byte	0x855
 1437 0847 09       		.uleb128 0x9
 1438 0848 766D7400 		.ascii	"vmt\000"
 1439 084c 0E       		.byte	0xe
 1440 084d 4C       		.byte	0x4c
 1441 084e 29       		.byte	0x29
 1442 084f 55080000 		.4byte	0x855
 1443 0853 00       		.byte	0
 1444 0854 00       		.byte	0
 1445 0855 0B       		.uleb128 0xb
 1446 0856 04       		.byte	0x4
 1447 0857 DB070000 		.4byte	0x7db
 1448 085b 03       		.uleb128 0x3
 1449 085c 8E030000 		.4byte	.LASF117
 1450 0860 0E       		.byte	0xe
 1451 0861 4E       		.byte	0x4e
 1452 0862 03       		.byte	0x3
 1453 0863 3E080000 		.4byte	0x83e
 1454 0867 13       		.uleb128 0x13
 1455 0868 91020000 		.4byte	0x291
 1456 086c 77080000 		.4byte	0x877
 1457 0870 14       		.uleb128 0x14
 1458 0871 38000000 		.4byte	0x38
 1459 0875 26       		.byte	0x26
 1460 0876 00       		.byte	0
 1461 0877 0F       		.uleb128 0xf
 1462 0878 E6020000 		.4byte	.LASF118
 1463 087c 0F       		.byte	0xf
 1464 087d 82       		.byte	0x82
 1465 087e 08       		.byte	0x8
 1466 087f 67080000 		.4byte	0x867
ARM GAS  /tmp/ccVQXVRI.s 			page 27


 1467 0883 07       		.uleb128 0x7
 1468 0884 21010000 		.4byte	.LASF119
 1469 0888 20       		.byte	0x20
 1470 0889 10       		.byte	0x10
 1471 088a FD       		.byte	0xfd
 1472 088b 08       		.byte	0x8
 1473 088c FF080000 		.4byte	0x8ff
 1474 0890 08       		.uleb128 0x8
 1475 0891 3A030000 		.4byte	.LASF120
 1476 0895 10       		.byte	0x10
 1477 0896 FE       		.byte	0xfe
 1478 0897 19       		.byte	0x19
 1479 0898 3F000000 		.4byte	0x3f
 1480 089c 00       		.byte	0
 1481 089d 08       		.uleb128 0x8
 1482 089e 79080000 		.4byte	.LASF121
 1483 08a2 10       		.byte	0x10
 1484 08a3 FF       		.byte	0xff
 1485 08a4 19       		.byte	0x19
 1486 08a5 3F000000 		.4byte	0x3f
 1487 08a9 04       		.byte	0x4
 1488 08aa 15       		.uleb128 0x15
 1489 08ab EB080000 		.4byte	.LASF122
 1490 08af 10       		.byte	0x10
 1491 08b0 0001     		.2byte	0x100
 1492 08b2 19       		.byte	0x19
 1493 08b3 3F000000 		.4byte	0x3f
 1494 08b7 08       		.byte	0x8
 1495 08b8 15       		.uleb128 0x15
 1496 08b9 5B030000 		.4byte	.LASF123
 1497 08bd 10       		.byte	0x10
 1498 08be 0101     		.2byte	0x101
 1499 08c0 19       		.byte	0x19
 1500 08c1 3F000000 		.4byte	0x3f
 1501 08c5 0C       		.byte	0xc
 1502 08c6 15       		.uleb128 0x15
 1503 08c7 71010000 		.4byte	.LASF124
 1504 08cb 10       		.byte	0x10
 1505 08cc 0201     		.2byte	0x102
 1506 08ce 19       		.byte	0x19
 1507 08cf 3F000000 		.4byte	0x3f
 1508 08d3 10       		.byte	0x10
 1509 08d4 15       		.uleb128 0x15
 1510 08d5 2A050000 		.4byte	.LASF125
 1511 08d9 10       		.byte	0x10
 1512 08da 0301     		.2byte	0x103
 1513 08dc 19       		.byte	0x19
 1514 08dd 3F000000 		.4byte	0x3f
 1515 08e1 14       		.byte	0x14
 1516 08e2 15       		.uleb128 0x15
 1517 08e3 93020000 		.4byte	.LASF126
 1518 08e7 10       		.byte	0x10
 1519 08e8 0401     		.2byte	0x104
 1520 08ea 19       		.byte	0x19
 1521 08eb 3F000000 		.4byte	0x3f
 1522 08ef 18       		.byte	0x18
 1523 08f0 15       		.uleb128 0x15
ARM GAS  /tmp/ccVQXVRI.s 			page 28


 1524 08f1 41090000 		.4byte	.LASF127
 1525 08f5 10       		.byte	0x10
 1526 08f6 0501     		.2byte	0x105
 1527 08f8 19       		.byte	0x19
 1528 08f9 3F000000 		.4byte	0x3f
 1529 08fd 1C       		.byte	0x1c
 1530 08fe 00       		.byte	0
 1531 08ff 16       		.uleb128 0x16
 1532 0900 21010000 		.4byte	.LASF119
 1533 0904 10       		.byte	0x10
 1534 0905 0801     		.2byte	0x108
 1535 0907 1C       		.byte	0x1c
 1536 0908 83080000 		.4byte	0x883
 1537 090c 12       		.uleb128 0x12
 1538 090d F2000000 		.4byte	0xf2
 1539 0911 25090000 		.4byte	0x925
 1540 0915 0E       		.uleb128 0xe
 1541 0916 A9020000 		.4byte	0x2a9
 1542 091a 0E       		.uleb128 0xe
 1543 091b 6C000000 		.4byte	0x6c
 1544 091f 0E       		.uleb128 0xe
 1545 0920 16010000 		.4byte	0x116
 1546 0924 00       		.byte	0
 1547 0925 0B       		.uleb128 0xb
 1548 0926 04       		.byte	0x4
 1549 0927 0C090000 		.4byte	0x90c
 1550 092b 12       		.uleb128 0x12
 1551 092c F2000000 		.4byte	0xf2
 1552 0930 3F090000 		.4byte	0x93f
 1553 0934 0E       		.uleb128 0xe
 1554 0935 A9020000 		.4byte	0x2a9
 1555 0939 0E       		.uleb128 0xe
 1556 093a 16010000 		.4byte	0x116
 1557 093e 00       		.byte	0
 1558 093f 0B       		.uleb128 0xb
 1559 0940 04       		.byte	0x4
 1560 0941 2B090000 		.4byte	0x92b
 1561 0945 12       		.uleb128 0x12
 1562 0946 2C000000 		.4byte	0x2c
 1563 094a 63090000 		.4byte	0x963
 1564 094e 0E       		.uleb128 0xe
 1565 094f A9020000 		.4byte	0x2a9
 1566 0953 0E       		.uleb128 0xe
 1567 0954 F9070000 		.4byte	0x7f9
 1568 0958 0E       		.uleb128 0xe
 1569 0959 2C000000 		.4byte	0x2c
 1570 095d 0E       		.uleb128 0xe
 1571 095e 16010000 		.4byte	0x116
 1572 0962 00       		.byte	0
 1573 0963 0B       		.uleb128 0xb
 1574 0964 04       		.byte	0x4
 1575 0965 45090000 		.4byte	0x945
 1576 0969 12       		.uleb128 0x12
 1577 096a 2C000000 		.4byte	0x2c
 1578 096e 87090000 		.4byte	0x987
 1579 0972 0E       		.uleb128 0xe
 1580 0973 A9020000 		.4byte	0x2a9
ARM GAS  /tmp/ccVQXVRI.s 			page 29


 1581 0977 0E       		.uleb128 0xe
 1582 0978 7B070000 		.4byte	0x77b
 1583 097c 0E       		.uleb128 0xe
 1584 097d 2C000000 		.4byte	0x2c
 1585 0981 0E       		.uleb128 0xe
 1586 0982 16010000 		.4byte	0x116
 1587 0986 00       		.byte	0
 1588 0987 0B       		.uleb128 0xb
 1589 0988 04       		.byte	0x4
 1590 0989 69090000 		.4byte	0x969
 1591 098d 0A       		.uleb128 0xa
 1592 098e 18       		.byte	0x18
 1593 098f 11       		.byte	0x11
 1594 0990 2A       		.byte	0x2a
 1595 0991 09       		.byte	0x9
 1596 0992 E5090000 		.4byte	0x9e5
 1597 0996 08       		.uleb128 0x8
 1598 0997 A1080000 		.4byte	.LASF128
 1599 099b 11       		.byte	0x11
 1600 099c 2F       		.byte	0x2f
 1601 099d 15       		.byte	0x15
 1602 099e 97000000 		.4byte	0x97
 1603 09a2 00       		.byte	0
 1604 09a3 08       		.uleb128 0x8
 1605 09a4 CF050000 		.4byte	.LASF129
 1606 09a8 11       		.byte	0x11
 1607 09a9 31       		.byte	0x31
 1608 09aa 16       		.byte	0x16
 1609 09ab E5090000 		.4byte	0x9e5
 1610 09af 04       		.byte	0x4
 1611 09b0 08       		.uleb128 0x8
 1612 09b1 5F040000 		.4byte	.LASF130
 1613 09b5 11       		.byte	0x11
 1614 09b6 32       		.byte	0x32
 1615 09b7 16       		.byte	0x16
 1616 09b8 E5090000 		.4byte	0x9e5
 1617 09bc 08       		.byte	0x8
 1618 09bd 08       		.uleb128 0x8
 1619 09be 0E050000 		.4byte	.LASF131
 1620 09c2 11       		.byte	0x11
 1621 09c3 33       		.byte	0x33
 1622 09c4 16       		.byte	0x16
 1623 09c5 E5090000 		.4byte	0x9e5
 1624 09c9 0C       		.byte	0xc
 1625 09ca 08       		.uleb128 0x8
 1626 09cb D5050000 		.4byte	.LASF132
 1627 09cf 11       		.byte	0x11
 1628 09d0 34       		.byte	0x34
 1629 09d1 16       		.byte	0x16
 1630 09d2 E5090000 		.4byte	0x9e5
 1631 09d6 10       		.byte	0x10
 1632 09d7 08       		.uleb128 0x8
 1633 09d8 AB060000 		.4byte	.LASF133
 1634 09dc 11       		.byte	0x11
 1635 09dd 35       		.byte	0x35
 1636 09de 10       		.byte	0x10
 1637 09df 38000000 		.4byte	0x38
ARM GAS  /tmp/ccVQXVRI.s 			page 30


 1638 09e3 14       		.byte	0x14
 1639 09e4 00       		.byte	0
 1640 09e5 0B       		.uleb128 0xb
 1641 09e6 04       		.byte	0x4
 1642 09e7 A3000000 		.4byte	0xa3
 1643 09eb 03       		.uleb128 0x3
 1644 09ec 53040000 		.4byte	.LASF134
 1645 09f0 11       		.byte	0x11
 1646 09f1 37       		.byte	0x37
 1647 09f2 03       		.byte	0x3
 1648 09f3 8D090000 		.4byte	0x98d
 1649 09f7 17       		.uleb128 0x17
 1650 09f8 00       		.byte	0
 1651 09f9 11       		.byte	0x11
 1652 09fa 43       		.byte	0x43
 1653 09fb 09       		.byte	0x9
 1654 09fc 03       		.uleb128 0x3
 1655 09fd 04090000 		.4byte	.LASF135
 1656 0a01 11       		.byte	0x11
 1657 0a02 45       		.byte	0x45
 1658 0a03 03       		.byte	0x3
 1659 0a04 F7090000 		.4byte	0x9f7
 1660 0a08 06       		.uleb128 0x6
 1661 0a09 FC090000 		.4byte	0x9fc
 1662 0a0d 0F       		.uleb128 0xf
 1663 0a0e A2050000 		.4byte	.LASF136
 1664 0a12 11       		.byte	0x11
 1665 0a13 6D       		.byte	0x6d
 1666 0a14 14       		.byte	0x14
 1667 0a15 EB090000 		.4byte	0x9eb
 1668 0a19 0F       		.uleb128 0xf
 1669 0a1a C2060000 		.4byte	.LASF137
 1670 0a1e 11       		.byte	0x11
 1671 0a1f 6E       		.byte	0x6e
 1672 0a20 14       		.byte	0x14
 1673 0a21 EB090000 		.4byte	0x9eb
 1674 0a25 0F       		.uleb128 0xf
 1675 0a26 16090000 		.4byte	.LASF138
 1676 0a2a 11       		.byte	0x11
 1677 0a2b 75       		.byte	0x75
 1678 0a2c 18       		.byte	0x18
 1679 0a2d 080A0000 		.4byte	0xa08
 1680 0a31 18       		.uleb128 0x18
 1681 0a32 07       		.byte	0x7
 1682 0a33 01       		.byte	0x1
 1683 0a34 7D000000 		.4byte	0x7d
 1684 0a38 12       		.byte	0x12
 1685 0a39 54       		.byte	0x54
 1686 0a3a 0E       		.byte	0xe
 1687 0a3b 640A0000 		.4byte	0xa64
 1688 0a3f 19       		.uleb128 0x19
 1689 0a40 5F020000 		.4byte	.LASF139
 1690 0a44 00       		.byte	0
 1691 0a45 19       		.uleb128 0x19
 1692 0a46 21050000 		.4byte	.LASF140
 1693 0a4a 01       		.byte	0x1
 1694 0a4b 19       		.uleb128 0x19
ARM GAS  /tmp/ccVQXVRI.s 			page 31


 1695 0a4c D6070000 		.4byte	.LASF141
 1696 0a50 02       		.byte	0x2
 1697 0a51 19       		.uleb128 0x19
 1698 0a52 C4020000 		.4byte	.LASF142
 1699 0a56 03       		.byte	0x3
 1700 0a57 19       		.uleb128 0x19
 1701 0a58 5A070000 		.4byte	.LASF143
 1702 0a5c 04       		.byte	0x4
 1703 0a5d 19       		.uleb128 0x19
 1704 0a5e 03070000 		.4byte	.LASF144
 1705 0a62 05       		.byte	0x5
 1706 0a63 00       		.byte	0
 1707 0a64 03       		.uleb128 0x3
 1708 0a65 FF050000 		.4byte	.LASF145
 1709 0a69 12       		.byte	0x12
 1710 0a6a 5B       		.byte	0x5b
 1711 0a6b 03       		.byte	0x3
 1712 0a6c 310A0000 		.4byte	0xa31
 1713 0a70 03       		.uleb128 0x3
 1714 0a71 E0070000 		.4byte	.LASF146
 1715 0a75 13       		.byte	0x13
 1716 0a76 38       		.byte	0x38
 1717 0a77 1A       		.byte	0x1a
 1718 0a78 7C0A0000 		.4byte	0xa7c
 1719 0a7c 07       		.uleb128 0x7
 1720 0a7d E0070000 		.4byte	.LASF146
 1721 0a81 40       		.byte	0x40
 1722 0a82 13       		.byte	0x13
 1723 0a83 62       		.byte	0x62
 1724 0a84 08       		.byte	0x8
 1725 0a85 330B0000 		.4byte	0xb33
 1726 0a89 08       		.uleb128 0x8
 1727 0a8a 74020000 		.4byte	.LASF147
 1728 0a8e 13       		.byte	0x13
 1729 0a8f 64       		.byte	0x64
 1730 0a90 1D       		.byte	0x1d
 1731 0a91 640A0000 		.4byte	0xa64
 1732 0a95 00       		.byte	0
 1733 0a96 08       		.uleb128 0x8
 1734 0a97 7F070000 		.4byte	.LASF148
 1735 0a9b 13       		.byte	0x13
 1736 0a9c 66       		.byte	0x66
 1737 0a9d 1E       		.byte	0x1e
 1738 0a9e 730B0000 		.4byte	0xb73
 1739 0aa2 04       		.byte	0x4
 1740 0aa3 08       		.uleb128 0x8
 1741 0aa4 E1030000 		.4byte	.LASF149
 1742 0aa8 13       		.byte	0x13
 1743 0aa9 68       		.byte	0x68
 1744 0aaa 1D       		.byte	0x1d
 1745 0aab 330B0000 		.4byte	0xb33
 1746 0aaf 08       		.byte	0x8
 1747 0ab0 08       		.uleb128 0x8
 1748 0ab1 9C010000 		.4byte	.LASF150
 1749 0ab5 13       		.byte	0x13
 1750 0ab6 6A       		.byte	0x6a
 1751 0ab7 1E       		.byte	0x1e
ARM GAS  /tmp/ccVQXVRI.s 			page 32


 1752 0ab8 790B0000 		.4byte	0xb79
 1753 0abc 0C       		.byte	0xc
 1754 0abd 08       		.uleb128 0x8
 1755 0abe 41060000 		.4byte	.LASF151
 1756 0ac2 13       		.byte	0x13
 1757 0ac3 6D       		.byte	0x6d
 1758 0ac4 1D       		.byte	0x1d
 1759 0ac5 C7040000 		.4byte	0x4c7
 1760 0ac9 10       		.byte	0x10
 1761 0aca 08       		.uleb128 0x8
 1762 0acb 8C020000 		.4byte	.LASF152
 1763 0acf 13       		.byte	0x13
 1764 0ad0 77       		.byte	0x77
 1765 0ad1 1E       		.byte	0x1e
 1766 0ad2 5C020000 		.4byte	0x25c
 1767 0ad6 20       		.byte	0x20
 1768 0ad7 08       		.uleb128 0x8
 1769 0ad8 50020000 		.4byte	.LASF153
 1770 0adc 13       		.byte	0x13
 1771 0add 7B       		.byte	0x7b
 1772 0ade 1D       		.byte	0x1d
 1773 0adf 3F0B0000 		.4byte	0xb3f
 1774 0ae3 24       		.byte	0x24
 1775 0ae4 08       		.uleb128 0x8
 1776 0ae5 CB030000 		.4byte	.LASF154
 1777 0ae9 13       		.byte	0x13
 1778 0aea 7F       		.byte	0x7f
 1779 0aeb 1E       		.byte	0x1e
 1780 0aec F9070000 		.4byte	0x7f9
 1781 0af0 28       		.byte	0x28
 1782 0af1 08       		.uleb128 0x8
 1783 0af2 39090000 		.4byte	.LASF155
 1784 0af6 13       		.byte	0x13
 1785 0af7 83       		.byte	0x83
 1786 0af8 1D       		.byte	0x1d
 1787 0af9 2C000000 		.4byte	0x2c
 1788 0afd 2C       		.byte	0x2c
 1789 0afe 08       		.uleb128 0x8
 1790 0aff 61080000 		.4byte	.LASF156
 1791 0b03 13       		.byte	0x13
 1792 0b04 87       		.byte	0x87
 1793 0b05 1D       		.byte	0x1d
 1794 0b06 2C000000 		.4byte	0x2c
 1795 0b0a 30       		.byte	0x30
 1796 0b0b 08       		.uleb128 0x8
 1797 0b0c 2D010000 		.4byte	.LASF157
 1798 0b10 13       		.byte	0x13
 1799 0b11 8B       		.byte	0x8b
 1800 0b12 1E       		.byte	0x1e
 1801 0b13 7B070000 		.4byte	0x77b
 1802 0b17 34       		.byte	0x34
 1803 0b18 08       		.uleb128 0x8
 1804 0b19 77050000 		.4byte	.LASF158
 1805 0b1d 13       		.byte	0x13
 1806 0b1e 8F       		.byte	0x8f
 1807 0b1f 1D       		.byte	0x1d
 1808 0b20 2C000000 		.4byte	0x2c
ARM GAS  /tmp/ccVQXVRI.s 			page 33


 1809 0b24 38       		.byte	0x38
 1810 0b25 08       		.uleb128 0x8
 1811 0b26 9D020000 		.4byte	.LASF159
 1812 0b2a 13       		.byte	0x13
 1813 0b2b 93       		.byte	0x93
 1814 0b2c 1D       		.byte	0x1d
 1815 0b2d 2C000000 		.4byte	0x2c
 1816 0b31 3C       		.byte	0x3c
 1817 0b32 00       		.byte	0
 1818 0b33 03       		.uleb128 0x3
 1819 0b34 36060000 		.4byte	.LASF160
 1820 0b38 13       		.byte	0x13
 1821 0b39 42       		.byte	0x42
 1822 0b3a 12       		.byte	0x12
 1823 0b3b 97000000 		.4byte	0x97
 1824 0b3f 03       		.uleb128 0x3
 1825 0b40 6A020000 		.4byte	.LASF161
 1826 0b44 13       		.byte	0x13
 1827 0b45 48       		.byte	0x48
 1828 0b46 12       		.byte	0x12
 1829 0b47 84000000 		.4byte	0x84
 1830 0b4b 0A       		.uleb128 0xa
 1831 0b4c 04       		.byte	0x4
 1832 0b4d 13       		.byte	0x13
 1833 0b4e 57       		.byte	0x57
 1834 0b4f 09       		.byte	0x9
 1835 0b50 620B0000 		.4byte	0xb62
 1836 0b54 08       		.uleb128 0x8
 1837 0b55 5A050000 		.4byte	.LASF162
 1838 0b59 13       		.byte	0x13
 1839 0b5a 59       		.byte	0x59
 1840 0b5b 1D       		.byte	0x1d
 1841 0b5c 97000000 		.4byte	0x97
 1842 0b60 00       		.byte	0
 1843 0b61 00       		.byte	0
 1844 0b62 03       		.uleb128 0x3
 1845 0b63 4D080000 		.4byte	.LASF163
 1846 0b67 13       		.byte	0x13
 1847 0b68 5B       		.byte	0x5b
 1848 0b69 03       		.byte	0x3
 1849 0b6a 4B0B0000 		.4byte	0xb4b
 1850 0b6e 06       		.uleb128 0x6
 1851 0b6f 620B0000 		.4byte	0xb62
 1852 0b73 0B       		.uleb128 0xb
 1853 0b74 04       		.byte	0x4
 1854 0b75 6E0B0000 		.4byte	0xb6e
 1855 0b79 0B       		.uleb128 0xb
 1856 0b7a 04       		.byte	0x4
 1857 0b7b FF080000 		.4byte	0x8ff
 1858 0b7f 0F       		.uleb128 0xf
 1859 0b80 7D030000 		.4byte	.LASF164
 1860 0b84 13       		.byte	0x13
 1861 0b85 A6       		.byte	0xa6
 1862 0b86 12       		.byte	0x12
 1863 0b87 700A0000 		.4byte	0xa70
 1864 0b8b 18       		.uleb128 0x18
 1865 0b8c 07       		.byte	0x7
ARM GAS  /tmp/ccVQXVRI.s 			page 34


 1866 0b8d 01       		.byte	0x1
 1867 0b8e 7D000000 		.4byte	0x7d
 1868 0b92 14       		.byte	0x14
 1869 0b93 5D       		.byte	0x5d
 1870 0b94 0E       		.byte	0xe
 1871 0b95 AC0B0000 		.4byte	0xbac
 1872 0b99 19       		.uleb128 0x19
 1873 0b9a 19070000 		.4byte	.LASF165
 1874 0b9e 00       		.byte	0
 1875 0b9f 19       		.uleb128 0x19
 1876 0ba0 ED010000 		.4byte	.LASF166
 1877 0ba4 01       		.byte	0x1
 1878 0ba5 19       		.uleb128 0x19
 1879 0ba6 12080000 		.4byte	.LASF167
 1880 0baa 02       		.byte	0x2
 1881 0bab 00       		.byte	0
 1882 0bac 03       		.uleb128 0x3
 1883 0bad 57080000 		.4byte	.LASF168
 1884 0bb1 14       		.byte	0x14
 1885 0bb2 61       		.byte	0x61
 1886 0bb3 03       		.byte	0x3
 1887 0bb4 8B0B0000 		.4byte	0xb8b
 1888 0bb8 03       		.uleb128 0x3
 1889 0bb9 4D070000 		.4byte	.LASF169
 1890 0bbd 14       		.byte	0x14
 1891 0bbe 66       		.byte	0x66
 1892 0bbf 1D       		.byte	0x1d
 1893 0bc0 C40B0000 		.4byte	0xbc4
 1894 0bc4 07       		.uleb128 0x7
 1895 0bc5 4D070000 		.4byte	.LASF169
 1896 0bc9 74       		.byte	0x74
 1897 0bca 14       		.byte	0x14
 1898 0bcb 80       		.byte	0x80
 1899 0bcc 08       		.byte	0x8
 1900 0bcd 2B0C0000 		.4byte	0xc2b
 1901 0bd1 09       		.uleb128 0x9
 1902 0bd2 766D7400 		.ascii	"vmt\000"
 1903 0bd6 14       		.byte	0x14
 1904 0bd7 82       		.byte	0x82
 1905 0bd8 21       		.byte	0x21
 1906 0bd9 B20C0000 		.4byte	0xcb2
 1907 0bdd 00       		.byte	0
 1908 0bde 08       		.uleb128 0x8
 1909 0bdf 32040000 		.4byte	.LASF170
 1910 0be3 14       		.byte	0x14
 1911 0be4 83       		.byte	0x83
 1912 0be5 03       		.byte	0x3
 1913 0be6 42050000 		.4byte	0x542
 1914 0bea 04       		.byte	0x4
 1915 0beb 08       		.uleb128 0x8
 1916 0bec 74020000 		.4byte	.LASF147
 1917 0bf0 14       		.byte	0x14
 1918 0bf1 83       		.byte	0x83
 1919 0bf2 03       		.byte	0x3
 1920 0bf3 AC0B0000 		.4byte	0xbac
 1921 0bf7 08       		.byte	0x8
 1922 0bf8 08       		.uleb128 0x8
ARM GAS  /tmp/ccVQXVRI.s 			page 35


 1923 0bf9 E8030000 		.4byte	.LASF171
 1924 0bfd 14       		.byte	0x14
 1925 0bfe 83       		.byte	0x83
 1926 0bff 03       		.byte	0x3
 1927 0c00 81070000 		.4byte	0x781
 1928 0c04 0C       		.byte	0xc
 1929 0c05 08       		.uleb128 0x8
 1930 0c06 6B040000 		.4byte	.LASF172
 1931 0c0a 14       		.byte	0x14
 1932 0c0b 83       		.byte	0x83
 1933 0c0c 03       		.byte	0x3
 1934 0c0d 8D070000 		.4byte	0x78d
 1935 0c11 30       		.byte	0x30
 1936 0c12 09       		.uleb128 0x9
 1937 0c13 696200   		.ascii	"ib\000"
 1938 0c16 14       		.byte	0x14
 1939 0c17 83       		.byte	0x83
 1940 0c18 03       		.byte	0x3
 1941 0c19 B80C0000 		.4byte	0xcb8
 1942 0c1d 54       		.byte	0x54
 1943 0c1e 09       		.uleb128 0x9
 1944 0c1f 6F6200   		.ascii	"ob\000"
 1945 0c22 14       		.byte	0x14
 1946 0c23 83       		.byte	0x83
 1947 0c24 03       		.byte	0x3
 1948 0c25 B80C0000 		.4byte	0xcb8
 1949 0c29 64       		.byte	0x64
 1950 0c2a 00       		.byte	0
 1951 0c2b 1A       		.uleb128 0x1a
 1952 0c2c 53443100 		.ascii	"SD1\000"
 1953 0c30 1A       		.byte	0x1a
 1954 0c31 62       		.byte	0x62
 1955 0c32 15       		.byte	0x15
 1956 0c33 B80B0000 		.4byte	0xbb8
 1957 0c37 07       		.uleb128 0x7
 1958 0c38 D1030000 		.4byte	.LASF173
 1959 0c3c 20       		.byte	0x20
 1960 0c3d 14       		.byte	0x14
 1961 0c3e 75       		.byte	0x75
 1962 0c3f 08       		.byte	0x8
 1963 0c40 AD0C0000 		.4byte	0xcad
 1964 0c44 08       		.uleb128 0x8
 1965 0c45 FD000000 		.4byte	.LASF115
 1966 0c49 14       		.byte	0x14
 1967 0c4a 76       		.byte	0x76
 1968 0c4b 03       		.byte	0x3
 1969 0c4c FF070000 		.4byte	0x7ff
 1970 0c50 00       		.byte	0
 1971 0c51 08       		.uleb128 0x8
 1972 0c52 68070000 		.4byte	.LASF116
 1973 0c56 14       		.byte	0x14
 1974 0c57 76       		.byte	0x76
 1975 0c58 03       		.byte	0x3
 1976 0c59 1E080000 		.4byte	0x81e
 1977 0c5d 04       		.byte	0x4
 1978 0c5e 09       		.uleb128 0x9
 1979 0c5f 70757400 		.ascii	"put\000"
ARM GAS  /tmp/ccVQXVRI.s 			page 36


 1980 0c63 14       		.byte	0x14
 1981 0c64 76       		.byte	0x76
 1982 0c65 03       		.byte	0x3
 1983 0c66 38080000 		.4byte	0x838
 1984 0c6a 08       		.byte	0x8
 1985 0c6b 09       		.uleb128 0x9
 1986 0c6c 67657400 		.ascii	"get\000"
 1987 0c70 14       		.byte	0x14
 1988 0c71 76       		.byte	0x76
 1989 0c72 03       		.byte	0x3
 1990 0c73 A0050000 		.4byte	0x5a0
 1991 0c77 0C       		.byte	0xc
 1992 0c78 08       		.uleb128 0x8
 1993 0c79 14050000 		.4byte	.LASF174
 1994 0c7d 14       		.byte	0x14
 1995 0c7e 76       		.byte	0x76
 1996 0c7f 03       		.byte	0x3
 1997 0c80 25090000 		.4byte	0x925
 1998 0c84 10       		.byte	0x10
 1999 0c85 08       		.uleb128 0x8
 2000 0c86 0A040000 		.4byte	.LASF175
 2001 0c8a 14       		.byte	0x14
 2002 0c8b 76       		.byte	0x76
 2003 0c8c 03       		.byte	0x3
 2004 0c8d 3F090000 		.4byte	0x93f
 2005 0c91 14       		.byte	0x14
 2006 0c92 08       		.uleb128 0x8
 2007 0c93 81040000 		.4byte	.LASF176
 2008 0c97 14       		.byte	0x14
 2009 0c98 76       		.byte	0x76
 2010 0c99 03       		.byte	0x3
 2011 0c9a 63090000 		.4byte	0x963
 2012 0c9e 18       		.byte	0x18
 2013 0c9f 08       		.uleb128 0x8
 2014 0ca0 96010000 		.4byte	.LASF177
 2015 0ca4 14       		.byte	0x14
 2016 0ca5 76       		.byte	0x76
 2017 0ca6 03       		.byte	0x3
 2018 0ca7 87090000 		.4byte	0x987
 2019 0cab 1C       		.byte	0x1c
 2020 0cac 00       		.byte	0
 2021 0cad 06       		.uleb128 0x6
 2022 0cae 370C0000 		.4byte	0xc37
 2023 0cb2 0B       		.uleb128 0xb
 2024 0cb3 04       		.byte	0x4
 2025 0cb4 AD0C0000 		.4byte	0xcad
 2026 0cb8 13       		.uleb128 0x13
 2027 0cb9 6C000000 		.4byte	0x6c
 2028 0cbd C80C0000 		.4byte	0xcc8
 2029 0cc1 14       		.uleb128 0x14
 2030 0cc2 38000000 		.4byte	0x38
 2031 0cc6 0F       		.byte	0xf
 2032 0cc7 00       		.byte	0
 2033 0cc8 18       		.uleb128 0x18
 2034 0cc9 07       		.byte	0x7
 2035 0cca 01       		.byte	0x1
 2036 0ccb 7D000000 		.4byte	0x7d
ARM GAS  /tmp/ccVQXVRI.s 			page 37


 2037 0ccf 15       		.byte	0x15
 2038 0cd0 4E       		.byte	0x4e
 2039 0cd1 0E       		.byte	0xe
 2040 0cd2 F50C0000 		.4byte	0xcf5
 2041 0cd6 19       		.uleb128 0x19
 2042 0cd7 25080000 		.4byte	.LASF178
 2043 0cdb 00       		.byte	0
 2044 0cdc 19       		.uleb128 0x19
 2045 0cdd D7010000 		.4byte	.LASF179
 2046 0ce1 01       		.byte	0x1
 2047 0ce2 19       		.uleb128 0x19
 2048 0ce3 1B080000 		.4byte	.LASF180
 2049 0ce7 02       		.byte	0x2
 2050 0ce8 19       		.uleb128 0x19
 2051 0ce9 0F010000 		.4byte	.LASF181
 2052 0ced 03       		.byte	0x3
 2053 0cee 19       		.uleb128 0x19
 2054 0cef 72070000 		.4byte	.LASF182
 2055 0cf3 04       		.byte	0x4
 2056 0cf4 00       		.byte	0
 2057 0cf5 03       		.uleb128 0x3
 2058 0cf6 A6070000 		.4byte	.LASF183
 2059 0cfa 15       		.byte	0x15
 2060 0cfb 54       		.byte	0x54
 2061 0cfc 03       		.byte	0x3
 2062 0cfd C80C0000 		.4byte	0xcc8
 2063 0d01 03       		.uleb128 0x3
 2064 0d02 67010000 		.4byte	.LASF184
 2065 0d06 16       		.byte	0x16
 2066 0d07 35       		.byte	0x35
 2067 0d08 1A       		.byte	0x1a
 2068 0d09 0D0D0000 		.4byte	0xd0d
 2069 0d0d 07       		.uleb128 0x7
 2070 0d0e 67010000 		.4byte	.LASF184
 2071 0d12 28       		.byte	0x28
 2072 0d13 16       		.byte	0x16
 2073 0d14 7C       		.byte	0x7c
 2074 0d15 08       		.byte	0x8
 2075 0d16 760D0000 		.4byte	0xd76
 2076 0d1a 08       		.uleb128 0x8
 2077 0d1b 74020000 		.4byte	.LASF147
 2078 0d1f 16       		.byte	0x16
 2079 0d20 80       		.byte	0x80
 2080 0d21 19       		.byte	0x19
 2081 0d22 F50C0000 		.4byte	0xcf5
 2082 0d26 00       		.byte	0
 2083 0d27 08       		.uleb128 0x8
 2084 0d28 7F070000 		.4byte	.LASF148
 2085 0d2c 16       		.byte	0x16
 2086 0d2d 84       		.byte	0x84
 2087 0d2e 1A       		.byte	0x1a
 2088 0d2f 290E0000 		.4byte	0xe29
 2089 0d33 04       		.byte	0x4
 2090 0d34 08       		.uleb128 0x8
 2091 0d35 8C020000 		.4byte	.LASF152
 2092 0d39 16       		.byte	0x16
 2093 0d3a 89       		.byte	0x89
ARM GAS  /tmp/ccVQXVRI.s 			page 38


 2094 0d3b 1A       		.byte	0x1a
 2095 0d3c 5C020000 		.4byte	0x25c
 2096 0d40 08       		.byte	0x8
 2097 0d41 08       		.uleb128 0x8
 2098 0d42 41060000 		.4byte	.LASF151
 2099 0d46 16       		.byte	0x16
 2100 0d47 90       		.byte	0x90
 2101 0d48 19       		.byte	0x19
 2102 0d49 C7040000 		.4byte	0x4c7
 2103 0d4d 0C       		.byte	0xc
 2104 0d4e 08       		.uleb128 0x8
 2105 0d4f 2D010000 		.4byte	.LASF157
 2106 0d53 16       		.byte	0x16
 2107 0d54 98       		.byte	0x98
 2108 0d55 1A       		.byte	0x1a
 2109 0d56 A9020000 		.4byte	0x2a9
 2110 0d5a 1C       		.byte	0x1c
 2111 0d5b 08       		.uleb128 0x8
 2112 0d5c CB030000 		.4byte	.LASF154
 2113 0d60 16       		.byte	0x16
 2114 0d61 9D       		.byte	0x9d
 2115 0d62 1A       		.byte	0x1a
 2116 0d63 2F0E0000 		.4byte	0xe2f
 2117 0d67 20       		.byte	0x20
 2118 0d68 08       		.uleb128 0x8
 2119 0d69 08030000 		.4byte	.LASF185
 2120 0d6d 16       		.byte	0x16
 2121 0d6e A2       		.byte	0xa2
 2122 0d6f 17       		.byte	0x17
 2123 0d70 2C000000 		.4byte	0x2c
 2124 0d74 24       		.byte	0x24
 2125 0d75 00       		.byte	0
 2126 0d76 03       		.uleb128 0x3
 2127 0d77 6F030000 		.4byte	.LASF186
 2128 0d7b 16       		.byte	0x16
 2129 0d7c 3D       		.byte	0x3d
 2130 0d7d 10       		.byte	0x10
 2131 0d7e 820D0000 		.4byte	0xd82
 2132 0d82 0B       		.uleb128 0xb
 2133 0d83 04       		.byte	0x4
 2134 0d84 880D0000 		.4byte	0xd88
 2135 0d88 0D       		.uleb128 0xd
 2136 0d89 930D0000 		.4byte	0xd93
 2137 0d8d 0E       		.uleb128 0xe
 2138 0d8e 930D0000 		.4byte	0xd93
 2139 0d92 00       		.byte	0
 2140 0d93 0B       		.uleb128 0xb
 2141 0d94 04       		.byte	0x4
 2142 0d95 010D0000 		.4byte	0xd01
 2143 0d99 0A       		.uleb128 0xa
 2144 0d9a 10       		.byte	0x10
 2145 0d9b 16       		.byte	0x16
 2146 0d9c 44       		.byte	0x44
 2147 0d9d 09       		.byte	0x9
 2148 0d9e 180E0000 		.4byte	0xe18
 2149 0da2 08       		.uleb128 0x8
 2150 0da3 F6020000 		.4byte	.LASF187
ARM GAS  /tmp/ccVQXVRI.s 			page 39


 2151 0da7 16       		.byte	0x16
 2152 0da8 48       		.byte	0x48
 2153 0da9 19       		.byte	0x19
 2154 0daa 760D0000 		.4byte	0xd76
 2155 0dae 00       		.byte	0
 2156 0daf 08       		.uleb128 0x8
 2157 0db0 DE050000 		.4byte	.LASF188
 2158 0db4 16       		.byte	0x16
 2159 0db5 4F       		.byte	0x4f
 2160 0db6 19       		.byte	0x19
 2161 0db7 6C000000 		.4byte	0x6c
 2162 0dbb 04       		.byte	0x4
 2163 0dbc 08       		.uleb128 0x8
 2164 0dbd EB050000 		.4byte	.LASF189
 2165 0dc1 16       		.byte	0x16
 2166 0dc2 52       		.byte	0x52
 2167 0dc3 19       		.byte	0x19
 2168 0dc4 6C000000 		.4byte	0x6c
 2169 0dc8 05       		.byte	0x5
 2170 0dc9 08       		.uleb128 0x8
 2171 0dca 1D040000 		.4byte	.LASF190
 2172 0dce 16       		.byte	0x16
 2173 0dcf 58       		.byte	0x58
 2174 0dd0 19       		.byte	0x19
 2175 0dd1 6C000000 		.4byte	0x6c
 2176 0dd5 06       		.byte	0x6
 2177 0dd6 08       		.uleb128 0x8
 2178 0dd7 0E030000 		.4byte	.LASF191
 2179 0ddb 16       		.byte	0x16
 2180 0ddc 5E       		.byte	0x5e
 2181 0ddd 19       		.byte	0x19
 2182 0dde 6C000000 		.4byte	0x6c
 2183 0de2 07       		.byte	0x7
 2184 0de3 08       		.uleb128 0x8
 2185 0de4 24030000 		.4byte	.LASF192
 2186 0de8 16       		.byte	0x16
 2187 0de9 64       		.byte	0x64
 2188 0dea 19       		.byte	0x19
 2189 0deb 6C000000 		.4byte	0x6c
 2190 0def 08       		.byte	0x8
 2191 0df0 08       		.uleb128 0x8
 2192 0df1 F1070000 		.4byte	.LASF193
 2193 0df5 16       		.byte	0x16
 2194 0df6 6A       		.byte	0x6a
 2195 0df7 19       		.byte	0x19
 2196 0df8 6C000000 		.4byte	0x6c
 2197 0dfc 09       		.byte	0x9
 2198 0dfd 08       		.uleb128 0x8
 2199 0dfe D2020000 		.4byte	.LASF194
 2200 0e02 16       		.byte	0x16
 2201 0e03 70       		.byte	0x70
 2202 0e04 19       		.byte	0x19
 2203 0e05 6C000000 		.4byte	0x6c
 2204 0e09 0A       		.byte	0xa
 2205 0e0a 08       		.uleb128 0x8
 2206 0e0b E8060000 		.4byte	.LASF195
 2207 0e0f 16       		.byte	0x16
ARM GAS  /tmp/ccVQXVRI.s 			page 40


 2208 0e10 73       		.byte	0x73
 2209 0e11 19       		.byte	0x19
 2210 0e12 97000000 		.4byte	0x97
 2211 0e16 0C       		.byte	0xc
 2212 0e17 00       		.byte	0
 2213 0e18 03       		.uleb128 0x3
 2214 0e19 D6080000 		.4byte	.LASF196
 2215 0e1d 16       		.byte	0x16
 2216 0e1e 75       		.byte	0x75
 2217 0e1f 03       		.byte	0x3
 2218 0e20 990D0000 		.4byte	0xd99
 2219 0e24 06       		.uleb128 0x6
 2220 0e25 180E0000 		.4byte	0xe18
 2221 0e29 0B       		.uleb128 0xb
 2222 0e2a 04       		.byte	0x4
 2223 0e2b 240E0000 		.4byte	0xe24
 2224 0e2f 0B       		.uleb128 0xb
 2225 0e30 04       		.byte	0x4
 2226 0e31 350E0000 		.4byte	0xe35
 2227 0e35 1B       		.uleb128 0x1b
 2228 0e36 0F       		.uleb128 0xf
 2229 0e37 B5020000 		.4byte	.LASF197
 2230 0e3b 16       		.byte	0x16
 2231 0e3c B6       		.byte	0xb6
 2232 0e3d 14       		.byte	0x14
 2233 0e3e 010D0000 		.4byte	0xd01
 2234 0e42 13       		.uleb128 0x13
 2235 0e43 91020000 		.4byte	0x291
 2236 0e47 520E0000 		.4byte	0xe52
 2237 0e4b 14       		.uleb128 0x14
 2238 0e4c 38000000 		.4byte	0x38
 2239 0e50 45       		.byte	0x45
 2240 0e51 00       		.byte	0
 2241 0e52 1C       		.uleb128 0x1c
 2242 0e53 C3040000 		.4byte	.LASF198
 2243 0e57 01       		.byte	0x1
 2244 0e58 19       		.byte	0x19
 2245 0e59 08       		.byte	0x8
 2246 0e5a 420E0000 		.4byte	0xe42
 2247 0e5e 05       		.uleb128 0x5
 2248 0e5f 03       		.byte	0x3
 2249 0e60 00000000 		.4byte	waThread_LCD
 2250 0e64 1D       		.uleb128 0x1d
 2251 0e65 55050000 		.4byte	.LASF211
 2252 0e69 01       		.byte	0x1
 2253 0e6a 34       		.byte	0x34
 2254 0e6b 05       		.byte	0x5
 2255 0e6c 25000000 		.4byte	0x25
 2256 0e70 00000000 		.4byte	.LFB8
 2257 0e74 10010000 		.4byte	.LFE8-.LFB8
 2258 0e78 01       		.uleb128 0x1
 2259 0e79 9C       		.byte	0x9c
 2260 0e7a 11100000 		.4byte	0x1011
 2261 0e7e 1C       		.uleb128 0x1c
 2262 0e7f CB030000 		.4byte	.LASF154
 2263 0e83 01       		.byte	0x1
 2264 0e84 38       		.byte	0x38
ARM GAS  /tmp/ccVQXVRI.s 			page 41


 2265 0e85 08       		.byte	0x8
 2266 0e86 11100000 		.4byte	0x1011
 2267 0e8a 02       		.uleb128 0x2
 2268 0e8b 91       		.byte	0x91
 2269 0e8c 5C       		.sleb128 -36
 2270 0e8d 1E       		.uleb128 0x1e
 2271 0e8e 10000000 		.4byte	.LVL15
 2272 0e92 77110000 		.4byte	0x1177
 2273 0e96 1E       		.uleb128 0x1e
 2274 0e97 14000000 		.4byte	.LVL16
 2275 0e9b 83110000 		.4byte	0x1183
 2276 0e9f 1F       		.uleb128 0x1f
 2277 0ea0 40000000 		.4byte	.LVL17
 2278 0ea4 8F110000 		.4byte	0x118f
 2279 0ea8 B90E0000 		.4byte	0xeb9
 2280 0eac 20       		.uleb128 0x20
 2281 0ead 01       		.uleb128 0x1
 2282 0eae 50       		.byte	0x50
 2283 0eaf 02       		.uleb128 0x2
 2284 0eb0 75       		.byte	0x75
 2285 0eb1 00       		.sleb128 0
 2286 0eb2 20       		.uleb128 0x20
 2287 0eb3 01       		.uleb128 0x1
 2288 0eb4 51       		.byte	0x51
 2289 0eb5 02       		.uleb128 0x2
 2290 0eb6 76       		.byte	0x76
 2291 0eb7 00       		.sleb128 0
 2292 0eb8 00       		.byte	0
 2293 0eb9 1F       		.uleb128 0x1f
 2294 0eba 4C000000 		.4byte	.LVL18
 2295 0ebe 9C110000 		.4byte	0x119c
 2296 0ec2 D60E0000 		.4byte	0xed6
 2297 0ec6 20       		.uleb128 0x20
 2298 0ec7 01       		.uleb128 0x1
 2299 0ec8 50       		.byte	0x50
 2300 0ec9 02       		.uleb128 0x2
 2301 0eca 75       		.byte	0x75
 2302 0ecb 00       		.sleb128 0
 2303 0ecc 20       		.uleb128 0x20
 2304 0ecd 01       		.uleb128 0x1
 2305 0ece 51       		.byte	0x51
 2306 0ecf 05       		.uleb128 0x5
 2307 0ed0 03       		.byte	0x3
 2308 0ed1 00000000 		.4byte	.LC3
 2309 0ed5 00       		.byte	0
 2310 0ed6 1F       		.uleb128 0x1f
 2311 0ed7 5C000000 		.4byte	.LVL19
 2312 0edb A8110000 		.4byte	0x11a8
 2313 0edf F60E0000 		.4byte	0xef6
 2314 0ee3 20       		.uleb128 0x20
 2315 0ee4 01       		.uleb128 0x1
 2316 0ee5 50       		.byte	0x50
 2317 0ee6 02       		.uleb128 0x2
 2318 0ee7 74       		.byte	0x74
 2319 0ee8 00       		.sleb128 0
 2320 0ee9 20       		.uleb128 0x20
 2321 0eea 01       		.uleb128 0x1
ARM GAS  /tmp/ccVQXVRI.s 			page 42


 2322 0eeb 51       		.byte	0x51
 2323 0eec 02       		.uleb128 0x2
 2324 0eed 08       		.byte	0x8
 2325 0eee 7C       		.byte	0x7c
 2326 0eef 20       		.uleb128 0x20
 2327 0ef0 01       		.uleb128 0x1
 2328 0ef1 52       		.byte	0x52
 2329 0ef2 02       		.uleb128 0x2
 2330 0ef3 09       		.byte	0x9
 2331 0ef4 FF       		.byte	0xff
 2332 0ef5 00       		.byte	0
 2333 0ef6 1F       		.uleb128 0x1f
 2334 0ef7 6C000000 		.4byte	.LVL20
 2335 0efb A8110000 		.4byte	0x11a8
 2336 0eff 150F0000 		.4byte	0xf15
 2337 0f03 20       		.uleb128 0x20
 2338 0f04 01       		.uleb128 0x1
 2339 0f05 50       		.byte	0x50
 2340 0f06 02       		.uleb128 0x2
 2341 0f07 74       		.byte	0x74
 2342 0f08 00       		.sleb128 0
 2343 0f09 20       		.uleb128 0x20
 2344 0f0a 01       		.uleb128 0x1
 2345 0f0b 51       		.byte	0x51
 2346 0f0c 01       		.uleb128 0x1
 2347 0f0d 48       		.byte	0x48
 2348 0f0e 20       		.uleb128 0x20
 2349 0f0f 01       		.uleb128 0x1
 2350 0f10 52       		.byte	0x52
 2351 0f11 02       		.uleb128 0x2
 2352 0f12 09       		.byte	0x9
 2353 0f13 FF       		.byte	0xff
 2354 0f14 00       		.byte	0
 2355 0f15 1F       		.uleb128 0x1f
 2356 0f16 7C000000 		.4byte	.LVL21
 2357 0f1a A8110000 		.4byte	0x11a8
 2358 0f1e 350F0000 		.4byte	0xf35
 2359 0f22 20       		.uleb128 0x20
 2360 0f23 01       		.uleb128 0x1
 2361 0f24 50       		.byte	0x50
 2362 0f25 02       		.uleb128 0x2
 2363 0f26 74       		.byte	0x74
 2364 0f27 00       		.sleb128 0
 2365 0f28 20       		.uleb128 0x20
 2366 0f29 01       		.uleb128 0x1
 2367 0f2a 51       		.byte	0x51
 2368 0f2b 02       		.uleb128 0x2
 2369 0f2c 76       		.byte	0x76
 2370 0f2d 00       		.sleb128 0
 2371 0f2e 20       		.uleb128 0x20
 2372 0f2f 01       		.uleb128 0x1
 2373 0f30 52       		.byte	0x52
 2374 0f31 02       		.uleb128 0x2
 2375 0f32 09       		.byte	0x9
 2376 0f33 FF       		.byte	0xff
 2377 0f34 00       		.byte	0
 2378 0f35 1F       		.uleb128 0x1f
ARM GAS  /tmp/ccVQXVRI.s 			page 43


 2379 0f36 84000000 		.4byte	.LVL22
 2380 0f3a B5110000 		.4byte	0x11b5
 2381 0f3e 480F0000 		.4byte	0xf48
 2382 0f42 20       		.uleb128 0x20
 2383 0f43 01       		.uleb128 0x1
 2384 0f44 50       		.byte	0x50
 2385 0f45 01       		.uleb128 0x1
 2386 0f46 3A       		.byte	0x3a
 2387 0f47 00       		.byte	0
 2388 0f48 1F       		.uleb128 0x1f
 2389 0f49 94000000 		.4byte	.LVL23
 2390 0f4d A8110000 		.4byte	0x11a8
 2391 0f51 680F0000 		.4byte	0xf68
 2392 0f55 20       		.uleb128 0x20
 2393 0f56 01       		.uleb128 0x1
 2394 0f57 50       		.byte	0x50
 2395 0f58 02       		.uleb128 0x2
 2396 0f59 74       		.byte	0x74
 2397 0f5a 00       		.sleb128 0
 2398 0f5b 20       		.uleb128 0x20
 2399 0f5c 01       		.uleb128 0x1
 2400 0f5d 51       		.byte	0x51
 2401 0f5e 02       		.uleb128 0x2
 2402 0f5f 08       		.byte	0x8
 2403 0f60 7C       		.byte	0x7c
 2404 0f61 20       		.uleb128 0x20
 2405 0f62 01       		.uleb128 0x1
 2406 0f63 52       		.byte	0x52
 2407 0f64 02       		.uleb128 0x2
 2408 0f65 09       		.byte	0x9
 2409 0f66 FF       		.byte	0xff
 2410 0f67 00       		.byte	0
 2411 0f68 1F       		.uleb128 0x1f
 2412 0f69 A4000000 		.4byte	.LVL24
 2413 0f6d A8110000 		.4byte	0x11a8
 2414 0f71 870F0000 		.4byte	0xf87
 2415 0f75 20       		.uleb128 0x20
 2416 0f76 01       		.uleb128 0x1
 2417 0f77 50       		.byte	0x50
 2418 0f78 02       		.uleb128 0x2
 2419 0f79 74       		.byte	0x74
 2420 0f7a 00       		.sleb128 0
 2421 0f7b 20       		.uleb128 0x20
 2422 0f7c 01       		.uleb128 0x1
 2423 0f7d 51       		.byte	0x51
 2424 0f7e 01       		.uleb128 0x1
 2425 0f7f 49       		.byte	0x49
 2426 0f80 20       		.uleb128 0x20
 2427 0f81 01       		.uleb128 0x1
 2428 0f82 52       		.byte	0x52
 2429 0f83 02       		.uleb128 0x2
 2430 0f84 09       		.byte	0x9
 2431 0f85 FF       		.byte	0xff
 2432 0f86 00       		.byte	0
 2433 0f87 1F       		.uleb128 0x1f
 2434 0f88 B4000000 		.4byte	.LVL25
 2435 0f8c A8110000 		.4byte	0x11a8
ARM GAS  /tmp/ccVQXVRI.s 			page 44


 2436 0f90 A60F0000 		.4byte	0xfa6
 2437 0f94 20       		.uleb128 0x20
 2438 0f95 01       		.uleb128 0x1
 2439 0f96 50       		.byte	0x50
 2440 0f97 02       		.uleb128 0x2
 2441 0f98 74       		.byte	0x74
 2442 0f99 00       		.sleb128 0
 2443 0f9a 20       		.uleb128 0x20
 2444 0f9b 01       		.uleb128 0x1
 2445 0f9c 51       		.byte	0x51
 2446 0f9d 01       		.uleb128 0x1
 2447 0f9e 3A       		.byte	0x3a
 2448 0f9f 20       		.uleb128 0x20
 2449 0fa0 01       		.uleb128 0x1
 2450 0fa1 52       		.byte	0x52
 2451 0fa2 02       		.uleb128 0x2
 2452 0fa3 09       		.byte	0x9
 2453 0fa4 FF       		.byte	0xff
 2454 0fa5 00       		.byte	0
 2455 0fa6 1F       		.uleb128 0x1f
 2456 0fa7 BC000000 		.4byte	.LVL26
 2457 0fab B5110000 		.4byte	0x11b5
 2458 0faf B90F0000 		.4byte	0xfb9
 2459 0fb3 20       		.uleb128 0x20
 2460 0fb4 01       		.uleb128 0x1
 2461 0fb5 50       		.byte	0x50
 2462 0fb6 01       		.uleb128 0x1
 2463 0fb7 3A       		.byte	0x3a
 2464 0fb8 00       		.byte	0
 2465 0fb9 1F       		.uleb128 0x1f
 2466 0fba C8000000 		.4byte	.LVL27
 2467 0fbe 9C110000 		.4byte	0x119c
 2468 0fc2 D30F0000 		.4byte	0xfd3
 2469 0fc6 20       		.uleb128 0x20
 2470 0fc7 01       		.uleb128 0x1
 2471 0fc8 50       		.byte	0x50
 2472 0fc9 02       		.uleb128 0x2
 2473 0fca 75       		.byte	0x75
 2474 0fcb 00       		.sleb128 0
 2475 0fcc 20       		.uleb128 0x20
 2476 0fcd 01       		.uleb128 0x1
 2477 0fce 51       		.byte	0x51
 2478 0fcf 02       		.uleb128 0x2
 2479 0fd0 91       		.byte	0x91
 2480 0fd1 54       		.sleb128 -44
 2481 0fd2 00       		.byte	0
 2482 0fd3 1F       		.uleb128 0x1f
 2483 0fd4 E0000000 		.4byte	.LVL28
 2484 0fd8 C2110000 		.4byte	0x11c2
 2485 0fdc 07100000 		.4byte	0x1007
 2486 0fe0 20       		.uleb128 0x20
 2487 0fe1 01       		.uleb128 0x1
 2488 0fe2 50       		.byte	0x50
 2489 0fe3 05       		.uleb128 0x5
 2490 0fe4 03       		.byte	0x3
 2491 0fe5 00000000 		.4byte	.LANCHOR0
 2492 0fe9 20       		.uleb128 0x20
ARM GAS  /tmp/ccVQXVRI.s 			page 45


 2493 0fea 01       		.uleb128 0x1
 2494 0feb 51       		.byte	0x51
 2495 0fec 03       		.uleb128 0x3
 2496 0fed 0A       		.byte	0xa
 2497 0fee 1801     		.2byte	0x118
 2498 0ff0 20       		.uleb128 0x20
 2499 0ff1 01       		.uleb128 0x1
 2500 0ff2 52       		.byte	0x52
 2501 0ff3 02       		.uleb128 0x2
 2502 0ff4 08       		.byte	0x8
 2503 0ff5 7F       		.byte	0x7f
 2504 0ff6 20       		.uleb128 0x20
 2505 0ff7 01       		.uleb128 0x1
 2506 0ff8 53       		.byte	0x53
 2507 0ff9 05       		.uleb128 0x5
 2508 0ffa 03       		.byte	0x3
 2509 0ffb 00000000 		.4byte	Thread_LCD
 2510 0fff 20       		.uleb128 0x20
 2511 1000 02       		.uleb128 0x2
 2512 1001 7D       		.byte	0x7d
 2513 1002 00       		.sleb128 0
 2514 1003 02       		.uleb128 0x2
 2515 1004 76       		.byte	0x76
 2516 1005 00       		.sleb128 0
 2517 1006 00       		.byte	0
 2518 1007 1E       		.uleb128 0x1e
 2519 1008 EC000000 		.4byte	.LVL29
 2520 100c CF110000 		.4byte	0x11cf
 2521 1010 00       		.byte	0
 2522 1011 13       		.uleb128 0x13
 2523 1012 8E050000 		.4byte	0x58e
 2524 1016 21100000 		.4byte	0x1021
 2525 101a 14       		.uleb128 0x14
 2526 101b 38000000 		.4byte	0x38
 2527 101f 11       		.byte	0x11
 2528 1020 00       		.byte	0
 2529 1021 21       		.uleb128 0x21
 2530 1022 FD020000 		.4byte	.LASF212
 2531 1026 01       		.byte	0x1
 2532 1027 1A       		.byte	0x1a
 2533 1028 0E       		.byte	0xe
 2534 1029 F2000000 		.4byte	0xf2
 2535 102d 00000000 		.4byte	.LFB7
 2536 1031 C8000000 		.4byte	.LFE7-.LFB7
 2537 1035 01       		.uleb128 0x1
 2538 1036 9C       		.byte	0x9c
 2539 1037 77110000 		.4byte	0x1177
 2540 103b 22       		.uleb128 0x22
 2541 103c 7000     		.ascii	"p\000"
 2542 103e 01       		.byte	0x1
 2543 103f 1A       		.byte	0x1a
 2544 1040 1F       		.byte	0x1f
 2545 1041 A9020000 		.4byte	0x2a9
 2546 1045 04000000 		.4byte	.LLST0
 2547 1049 00000000 		.4byte	.LVUS0
 2548 104d 23       		.uleb128 0x23
 2549 104e B9030000 		.4byte	.LASF199
ARM GAS  /tmp/ccVQXVRI.s 			page 46


 2550 1052 01       		.byte	0x1
 2551 1053 1D       		.byte	0x1d
 2552 1054 0C       		.byte	0xc
 2553 1055 84000000 		.4byte	0x84
 2554 1059 2B000000 		.4byte	.LLST1
 2555 105d 25000000 		.4byte	.LVUS1
 2556 1061 1F       		.uleb128 0x1f
 2557 1062 34000000 		.4byte	.LVL3
 2558 1066 A8110000 		.4byte	0x11a8
 2559 106a 81100000 		.4byte	0x1081
 2560 106e 20       		.uleb128 0x20
 2561 106f 01       		.uleb128 0x1
 2562 1070 50       		.byte	0x50
 2563 1071 02       		.uleb128 0x2
 2564 1072 74       		.byte	0x74
 2565 1073 00       		.sleb128 0
 2566 1074 20       		.uleb128 0x20
 2567 1075 01       		.uleb128 0x1
 2568 1076 51       		.byte	0x51
 2569 1077 02       		.uleb128 0x2
 2570 1078 08       		.byte	0x8
 2571 1079 7C       		.byte	0x7c
 2572 107a 20       		.uleb128 0x20
 2573 107b 01       		.uleb128 0x1
 2574 107c 52       		.byte	0x52
 2575 107d 02       		.uleb128 0x2
 2576 107e 09       		.byte	0x9
 2577 107f FF       		.byte	0xff
 2578 1080 00       		.byte	0
 2579 1081 1F       		.uleb128 0x1f
 2580 1082 44000000 		.4byte	.LVL4
 2581 1086 A8110000 		.4byte	0x11a8
 2582 108a A0100000 		.4byte	0x10a0
 2583 108e 20       		.uleb128 0x20
 2584 108f 01       		.uleb128 0x1
 2585 1090 50       		.byte	0x50
 2586 1091 02       		.uleb128 0x2
 2587 1092 74       		.byte	0x74
 2588 1093 00       		.sleb128 0
 2589 1094 20       		.uleb128 0x20
 2590 1095 01       		.uleb128 0x1
 2591 1096 51       		.byte	0x51
 2592 1097 01       		.uleb128 0x1
 2593 1098 48       		.byte	0x48
 2594 1099 20       		.uleb128 0x20
 2595 109a 01       		.uleb128 0x1
 2596 109b 52       		.byte	0x52
 2597 109c 02       		.uleb128 0x2
 2598 109d 09       		.byte	0x9
 2599 109e FF       		.byte	0xff
 2600 109f 00       		.byte	0
 2601 10a0 1F       		.uleb128 0x1f
 2602 10a1 54000000 		.4byte	.LVL5
 2603 10a5 A8110000 		.4byte	0x11a8
 2604 10a9 C0100000 		.4byte	0x10c0
 2605 10ad 20       		.uleb128 0x20
 2606 10ae 01       		.uleb128 0x1
ARM GAS  /tmp/ccVQXVRI.s 			page 47


 2607 10af 50       		.byte	0x50
 2608 10b0 02       		.uleb128 0x2
 2609 10b1 74       		.byte	0x74
 2610 10b2 00       		.sleb128 0
 2611 10b3 20       		.uleb128 0x20
 2612 10b4 01       		.uleb128 0x1
 2613 10b5 51       		.byte	0x51
 2614 10b6 02       		.uleb128 0x2
 2615 10b7 08       		.byte	0x8
 2616 10b8 20       		.byte	0x20
 2617 10b9 20       		.uleb128 0x20
 2618 10ba 01       		.uleb128 0x1
 2619 10bb 52       		.byte	0x52
 2620 10bc 02       		.uleb128 0x2
 2621 10bd 09       		.byte	0x9
 2622 10be FF       		.byte	0xff
 2623 10bf 00       		.byte	0
 2624 10c0 1F       		.uleb128 0x1f
 2625 10c1 5C000000 		.4byte	.LVL6
 2626 10c5 B5110000 		.4byte	0x11b5
 2627 10c9 D3100000 		.4byte	0x10d3
 2628 10cd 20       		.uleb128 0x20
 2629 10ce 01       		.uleb128 0x1
 2630 10cf 50       		.byte	0x50
 2631 10d0 01       		.uleb128 0x1
 2632 10d1 3A       		.byte	0x3a
 2633 10d2 00       		.byte	0
 2634 10d3 1F       		.uleb128 0x1f
 2635 10d4 6C000000 		.4byte	.LVL7
 2636 10d8 A8110000 		.4byte	0x11a8
 2637 10dc F3100000 		.4byte	0x10f3
 2638 10e0 20       		.uleb128 0x20
 2639 10e1 01       		.uleb128 0x1
 2640 10e2 50       		.byte	0x50
 2641 10e3 02       		.uleb128 0x2
 2642 10e4 74       		.byte	0x74
 2643 10e5 00       		.sleb128 0
 2644 10e6 20       		.uleb128 0x20
 2645 10e7 01       		.uleb128 0x1
 2646 10e8 51       		.byte	0x51
 2647 10e9 02       		.uleb128 0x2
 2648 10ea 08       		.byte	0x8
 2649 10eb 7C       		.byte	0x7c
 2650 10ec 20       		.uleb128 0x20
 2651 10ed 01       		.uleb128 0x1
 2652 10ee 52       		.byte	0x52
 2653 10ef 02       		.uleb128 0x2
 2654 10f0 09       		.byte	0x9
 2655 10f1 FF       		.byte	0xff
 2656 10f2 00       		.byte	0
 2657 10f3 1F       		.uleb128 0x1f
 2658 10f4 7C000000 		.4byte	.LVL8
 2659 10f8 A8110000 		.4byte	0x11a8
 2660 10fc 12110000 		.4byte	0x1112
 2661 1100 20       		.uleb128 0x20
 2662 1101 01       		.uleb128 0x1
 2663 1102 50       		.byte	0x50
ARM GAS  /tmp/ccVQXVRI.s 			page 48


 2664 1103 02       		.uleb128 0x2
 2665 1104 74       		.byte	0x74
 2666 1105 00       		.sleb128 0
 2667 1106 20       		.uleb128 0x20
 2668 1107 01       		.uleb128 0x1
 2669 1108 51       		.byte	0x51
 2670 1109 01       		.uleb128 0x1
 2671 110a 49       		.byte	0x49
 2672 110b 20       		.uleb128 0x20
 2673 110c 01       		.uleb128 0x1
 2674 110d 52       		.byte	0x52
 2675 110e 02       		.uleb128 0x2
 2676 110f 09       		.byte	0x9
 2677 1110 FF       		.byte	0xff
 2678 1111 00       		.byte	0
 2679 1112 1F       		.uleb128 0x1f
 2680 1113 8C000000 		.4byte	.LVL9
 2681 1117 A8110000 		.4byte	0x11a8
 2682 111b 32110000 		.4byte	0x1132
 2683 111f 20       		.uleb128 0x20
 2684 1120 01       		.uleb128 0x1
 2685 1121 50       		.byte	0x50
 2686 1122 02       		.uleb128 0x2
 2687 1123 74       		.byte	0x74
 2688 1124 00       		.sleb128 0
 2689 1125 20       		.uleb128 0x20
 2690 1126 01       		.uleb128 0x1
 2691 1127 51       		.byte	0x51
 2692 1128 02       		.uleb128 0x2
 2693 1129 08       		.byte	0x8
 2694 112a 20       		.byte	0x20
 2695 112b 20       		.uleb128 0x20
 2696 112c 01       		.uleb128 0x1
 2697 112d 52       		.byte	0x52
 2698 112e 02       		.uleb128 0x2
 2699 112f 09       		.byte	0x9
 2700 1130 FF       		.byte	0xff
 2701 1131 00       		.byte	0
 2702 1132 1F       		.uleb128 0x1f
 2703 1133 94000000 		.4byte	.LVL10
 2704 1137 B5110000 		.4byte	0x11b5
 2705 113b 45110000 		.4byte	0x1145
 2706 113f 20       		.uleb128 0x20
 2707 1140 01       		.uleb128 0x1
 2708 1141 50       		.byte	0x50
 2709 1142 01       		.uleb128 0x1
 2710 1143 3A       		.byte	0x3a
 2711 1144 00       		.byte	0
 2712 1145 1F       		.uleb128 0x1f
 2713 1146 A4000000 		.4byte	.LVL11
 2714 114a 9C110000 		.4byte	0x119c
 2715 114e 65110000 		.4byte	0x1165
 2716 1152 20       		.uleb128 0x20
 2717 1153 01       		.uleb128 0x1
 2718 1154 50       		.byte	0x50
 2719 1155 02       		.uleb128 0x2
 2720 1156 76       		.byte	0x76
ARM GAS  /tmp/ccVQXVRI.s 			page 49


 2721 1157 00       		.sleb128 0
 2722 1158 20       		.uleb128 0x20
 2723 1159 01       		.uleb128 0x1
 2724 115a 51       		.byte	0x51
 2725 115b 02       		.uleb128 0x2
 2726 115c 77       		.byte	0x77
 2727 115d 00       		.sleb128 0
 2728 115e 20       		.uleb128 0x20
 2729 115f 01       		.uleb128 0x1
 2730 1160 52       		.byte	0x52
 2731 1161 02       		.uleb128 0x2
 2732 1162 75       		.byte	0x75
 2733 1163 00       		.sleb128 0
 2734 1164 00       		.byte	0
 2735 1165 24       		.uleb128 0x24
 2736 1166 B4000000 		.4byte	.LVL14
 2737 116a B5110000 		.4byte	0x11b5
 2738 116e 20       		.uleb128 0x20
 2739 116f 01       		.uleb128 0x1
 2740 1170 50       		.byte	0x50
 2741 1171 03       		.uleb128 0x3
 2742 1172 0A       		.byte	0xa
 2743 1173 D007     		.2byte	0x7d0
 2744 1175 00       		.byte	0
 2745 1176 00       		.byte	0
 2746 1177 25       		.uleb128 0x25
 2747 1178 7A010000 		.4byte	.LASF200
 2748 117c 7A010000 		.4byte	.LASF200
 2749 1180 17       		.byte	0x17
 2750 1181 C9       		.byte	0xc9
 2751 1182 08       		.byte	0x8
 2752 1183 25       		.uleb128 0x25
 2753 1184 88040000 		.4byte	.LASF201
 2754 1188 88040000 		.4byte	.LASF201
 2755 118c 18       		.byte	0x18
 2756 118d EF       		.byte	0xef
 2757 118e 08       		.byte	0x8
 2758 118f 26       		.uleb128 0x26
 2759 1190 86070000 		.4byte	.LASF202
 2760 1194 86070000 		.4byte	.LASF202
 2761 1198 14       		.byte	0x14
 2762 1199 3201     		.2byte	0x132
 2763 119b 08       		.byte	0x8
 2764 119c 25       		.uleb128 0x25
 2765 119d A3030000 		.4byte	.LASF203
 2766 11a1 A3030000 		.4byte	.LASF203
 2767 11a5 19       		.byte	0x19
 2768 11a6 2A       		.byte	0x2a
 2769 11a7 08       		.byte	0x8
 2770 11a8 26       		.uleb128 0x26
 2771 11a9 00000000 		.4byte	.LASF204
 2772 11ad 00000000 		.4byte	.LASF204
 2773 11b1 0D       		.byte	0xd
 2774 11b2 6601     		.2byte	0x166
 2775 11b4 09       		.byte	0x9
 2776 11b5 26       		.uleb128 0x26
 2777 11b6 C4050000 		.4byte	.LASF205
ARM GAS  /tmp/ccVQXVRI.s 			page 50


 2778 11ba C4050000 		.4byte	.LASF205
 2779 11be 06       		.byte	0x6
 2780 11bf 6901     		.2byte	0x169
 2781 11c1 08       		.byte	0x8
 2782 11c2 26       		.uleb128 0x26
 2783 11c3 E8040000 		.4byte	.LASF206
 2784 11c7 E8040000 		.4byte	.LASF206
 2785 11cb 06       		.byte	0x6
 2786 11cc 6401     		.2byte	0x164
 2787 11ce 0B       		.byte	0xb
 2788 11cf 26       		.uleb128 0x26
 2789 11d0 30080000 		.4byte	.LASF207
 2790 11d4 30080000 		.4byte	.LASF207
 2791 11d8 06       		.byte	0x6
 2792 11d9 6F01     		.2byte	0x16f
 2793 11db 09       		.byte	0x9
 2794 11dc 00       		.byte	0
 2795              		.section	.debug_abbrev,"",%progbits
 2796              	.Ldebug_abbrev0:
 2797 0000 01       		.uleb128 0x1
 2798 0001 11       		.uleb128 0x11
 2799 0002 01       		.byte	0x1
 2800 0003 25       		.uleb128 0x25
 2801 0004 0E       		.uleb128 0xe
 2802 0005 13       		.uleb128 0x13
 2803 0006 0B       		.uleb128 0xb
 2804 0007 03       		.uleb128 0x3
 2805 0008 0E       		.uleb128 0xe
 2806 0009 1B       		.uleb128 0x1b
 2807 000a 0E       		.uleb128 0xe
 2808 000b 55       		.uleb128 0x55
 2809 000c 17       		.uleb128 0x17
 2810 000d 11       		.uleb128 0x11
 2811 000e 01       		.uleb128 0x1
 2812 000f 10       		.uleb128 0x10
 2813 0010 17       		.uleb128 0x17
 2814 0011 00       		.byte	0
 2815 0012 00       		.byte	0
 2816 0013 02       		.uleb128 0x2
 2817 0014 24       		.uleb128 0x24
 2818 0015 00       		.byte	0
 2819 0016 0B       		.uleb128 0xb
 2820 0017 0B       		.uleb128 0xb
 2821 0018 3E       		.uleb128 0x3e
 2822 0019 0B       		.uleb128 0xb
 2823 001a 03       		.uleb128 0x3
 2824 001b 08       		.uleb128 0x8
 2825 001c 00       		.byte	0
 2826 001d 00       		.byte	0
 2827 001e 03       		.uleb128 0x3
 2828 001f 16       		.uleb128 0x16
 2829 0020 00       		.byte	0
 2830 0021 03       		.uleb128 0x3
 2831 0022 0E       		.uleb128 0xe
 2832 0023 3A       		.uleb128 0x3a
 2833 0024 0B       		.uleb128 0xb
 2834 0025 3B       		.uleb128 0x3b
ARM GAS  /tmp/ccVQXVRI.s 			page 51


 2835 0026 0B       		.uleb128 0xb
 2836 0027 39       		.uleb128 0x39
 2837 0028 0B       		.uleb128 0xb
 2838 0029 49       		.uleb128 0x49
 2839 002a 13       		.uleb128 0x13
 2840 002b 00       		.byte	0
 2841 002c 00       		.byte	0
 2842 002d 04       		.uleb128 0x4
 2843 002e 24       		.uleb128 0x24
 2844 002f 00       		.byte	0
 2845 0030 0B       		.uleb128 0xb
 2846 0031 0B       		.uleb128 0xb
 2847 0032 3E       		.uleb128 0x3e
 2848 0033 0B       		.uleb128 0xb
 2849 0034 03       		.uleb128 0x3
 2850 0035 0E       		.uleb128 0xe
 2851 0036 00       		.byte	0
 2852 0037 00       		.byte	0
 2853 0038 05       		.uleb128 0x5
 2854 0039 35       		.uleb128 0x35
 2855 003a 00       		.byte	0
 2856 003b 49       		.uleb128 0x49
 2857 003c 13       		.uleb128 0x13
 2858 003d 00       		.byte	0
 2859 003e 00       		.byte	0
 2860 003f 06       		.uleb128 0x6
 2861 0040 26       		.uleb128 0x26
 2862 0041 00       		.byte	0
 2863 0042 49       		.uleb128 0x49
 2864 0043 13       		.uleb128 0x13
 2865 0044 00       		.byte	0
 2866 0045 00       		.byte	0
 2867 0046 07       		.uleb128 0x7
 2868 0047 13       		.uleb128 0x13
 2869 0048 01       		.byte	0x1
 2870 0049 03       		.uleb128 0x3
 2871 004a 0E       		.uleb128 0xe
 2872 004b 0B       		.uleb128 0xb
 2873 004c 0B       		.uleb128 0xb
 2874 004d 3A       		.uleb128 0x3a
 2875 004e 0B       		.uleb128 0xb
 2876 004f 3B       		.uleb128 0x3b
 2877 0050 0B       		.uleb128 0xb
 2878 0051 39       		.uleb128 0x39
 2879 0052 0B       		.uleb128 0xb
 2880 0053 01       		.uleb128 0x1
 2881 0054 13       		.uleb128 0x13
 2882 0055 00       		.byte	0
 2883 0056 00       		.byte	0
 2884 0057 08       		.uleb128 0x8
 2885 0058 0D       		.uleb128 0xd
 2886 0059 00       		.byte	0
 2887 005a 03       		.uleb128 0x3
 2888 005b 0E       		.uleb128 0xe
 2889 005c 3A       		.uleb128 0x3a
 2890 005d 0B       		.uleb128 0xb
 2891 005e 3B       		.uleb128 0x3b
ARM GAS  /tmp/ccVQXVRI.s 			page 52


 2892 005f 0B       		.uleb128 0xb
 2893 0060 39       		.uleb128 0x39
 2894 0061 0B       		.uleb128 0xb
 2895 0062 49       		.uleb128 0x49
 2896 0063 13       		.uleb128 0x13
 2897 0064 38       		.uleb128 0x38
 2898 0065 0B       		.uleb128 0xb
 2899 0066 00       		.byte	0
 2900 0067 00       		.byte	0
 2901 0068 09       		.uleb128 0x9
 2902 0069 0D       		.uleb128 0xd
 2903 006a 00       		.byte	0
 2904 006b 03       		.uleb128 0x3
 2905 006c 08       		.uleb128 0x8
 2906 006d 3A       		.uleb128 0x3a
 2907 006e 0B       		.uleb128 0xb
 2908 006f 3B       		.uleb128 0x3b
 2909 0070 0B       		.uleb128 0xb
 2910 0071 39       		.uleb128 0x39
 2911 0072 0B       		.uleb128 0xb
 2912 0073 49       		.uleb128 0x49
 2913 0074 13       		.uleb128 0x13
 2914 0075 38       		.uleb128 0x38
 2915 0076 0B       		.uleb128 0xb
 2916 0077 00       		.byte	0
 2917 0078 00       		.byte	0
 2918 0079 0A       		.uleb128 0xa
 2919 007a 13       		.uleb128 0x13
 2920 007b 01       		.byte	0x1
 2921 007c 0B       		.uleb128 0xb
 2922 007d 0B       		.uleb128 0xb
 2923 007e 3A       		.uleb128 0x3a
 2924 007f 0B       		.uleb128 0xb
 2925 0080 3B       		.uleb128 0x3b
 2926 0081 0B       		.uleb128 0xb
 2927 0082 39       		.uleb128 0x39
 2928 0083 0B       		.uleb128 0xb
 2929 0084 01       		.uleb128 0x1
 2930 0085 13       		.uleb128 0x13
 2931 0086 00       		.byte	0
 2932 0087 00       		.byte	0
 2933 0088 0B       		.uleb128 0xb
 2934 0089 0F       		.uleb128 0xf
 2935 008a 00       		.byte	0
 2936 008b 0B       		.uleb128 0xb
 2937 008c 0B       		.uleb128 0xb
 2938 008d 49       		.uleb128 0x49
 2939 008e 13       		.uleb128 0x13
 2940 008f 00       		.byte	0
 2941 0090 00       		.byte	0
 2942 0091 0C       		.uleb128 0xc
 2943 0092 0F       		.uleb128 0xf
 2944 0093 00       		.byte	0
 2945 0094 0B       		.uleb128 0xb
 2946 0095 0B       		.uleb128 0xb
 2947 0096 00       		.byte	0
 2948 0097 00       		.byte	0
ARM GAS  /tmp/ccVQXVRI.s 			page 53


 2949 0098 0D       		.uleb128 0xd
 2950 0099 15       		.uleb128 0x15
 2951 009a 01       		.byte	0x1
 2952 009b 27       		.uleb128 0x27
 2953 009c 19       		.uleb128 0x19
 2954 009d 01       		.uleb128 0x1
 2955 009e 13       		.uleb128 0x13
 2956 009f 00       		.byte	0
 2957 00a0 00       		.byte	0
 2958 00a1 0E       		.uleb128 0xe
 2959 00a2 05       		.uleb128 0x5
 2960 00a3 00       		.byte	0
 2961 00a4 49       		.uleb128 0x49
 2962 00a5 13       		.uleb128 0x13
 2963 00a6 00       		.byte	0
 2964 00a7 00       		.byte	0
 2965 00a8 0F       		.uleb128 0xf
 2966 00a9 34       		.uleb128 0x34
 2967 00aa 00       		.byte	0
 2968 00ab 03       		.uleb128 0x3
 2969 00ac 0E       		.uleb128 0xe
 2970 00ad 3A       		.uleb128 0x3a
 2971 00ae 0B       		.uleb128 0xb
 2972 00af 3B       		.uleb128 0x3b
 2973 00b0 0B       		.uleb128 0xb
 2974 00b1 39       		.uleb128 0x39
 2975 00b2 0B       		.uleb128 0xb
 2976 00b3 49       		.uleb128 0x49
 2977 00b4 13       		.uleb128 0x13
 2978 00b5 3F       		.uleb128 0x3f
 2979 00b6 19       		.uleb128 0x19
 2980 00b7 3C       		.uleb128 0x3c
 2981 00b8 19       		.uleb128 0x19
 2982 00b9 00       		.byte	0
 2983 00ba 00       		.byte	0
 2984 00bb 10       		.uleb128 0x10
 2985 00bc 17       		.uleb128 0x17
 2986 00bd 01       		.byte	0x1
 2987 00be 0B       		.uleb128 0xb
 2988 00bf 0B       		.uleb128 0xb
 2989 00c0 3A       		.uleb128 0x3a
 2990 00c1 0B       		.uleb128 0xb
 2991 00c2 3B       		.uleb128 0x3b
 2992 00c3 0B       		.uleb128 0xb
 2993 00c4 39       		.uleb128 0x39
 2994 00c5 0B       		.uleb128 0xb
 2995 00c6 01       		.uleb128 0x1
 2996 00c7 13       		.uleb128 0x13
 2997 00c8 00       		.byte	0
 2998 00c9 00       		.byte	0
 2999 00ca 11       		.uleb128 0x11
 3000 00cb 0D       		.uleb128 0xd
 3001 00cc 00       		.byte	0
 3002 00cd 03       		.uleb128 0x3
 3003 00ce 0E       		.uleb128 0xe
 3004 00cf 3A       		.uleb128 0x3a
 3005 00d0 0B       		.uleb128 0xb
ARM GAS  /tmp/ccVQXVRI.s 			page 54


 3006 00d1 3B       		.uleb128 0x3b
 3007 00d2 0B       		.uleb128 0xb
 3008 00d3 39       		.uleb128 0x39
 3009 00d4 0B       		.uleb128 0xb
 3010 00d5 49       		.uleb128 0x49
 3011 00d6 13       		.uleb128 0x13
 3012 00d7 00       		.byte	0
 3013 00d8 00       		.byte	0
 3014 00d9 12       		.uleb128 0x12
 3015 00da 15       		.uleb128 0x15
 3016 00db 01       		.byte	0x1
 3017 00dc 27       		.uleb128 0x27
 3018 00dd 19       		.uleb128 0x19
 3019 00de 49       		.uleb128 0x49
 3020 00df 13       		.uleb128 0x13
 3021 00e0 01       		.uleb128 0x1
 3022 00e1 13       		.uleb128 0x13
 3023 00e2 00       		.byte	0
 3024 00e3 00       		.byte	0
 3025 00e4 13       		.uleb128 0x13
 3026 00e5 01       		.uleb128 0x1
 3027 00e6 01       		.byte	0x1
 3028 00e7 49       		.uleb128 0x49
 3029 00e8 13       		.uleb128 0x13
 3030 00e9 01       		.uleb128 0x1
 3031 00ea 13       		.uleb128 0x13
 3032 00eb 00       		.byte	0
 3033 00ec 00       		.byte	0
 3034 00ed 14       		.uleb128 0x14
 3035 00ee 21       		.uleb128 0x21
 3036 00ef 00       		.byte	0
 3037 00f0 49       		.uleb128 0x49
 3038 00f1 13       		.uleb128 0x13
 3039 00f2 2F       		.uleb128 0x2f
 3040 00f3 0B       		.uleb128 0xb
 3041 00f4 00       		.byte	0
 3042 00f5 00       		.byte	0
 3043 00f6 15       		.uleb128 0x15
 3044 00f7 0D       		.uleb128 0xd
 3045 00f8 00       		.byte	0
 3046 00f9 03       		.uleb128 0x3
 3047 00fa 0E       		.uleb128 0xe
 3048 00fb 3A       		.uleb128 0x3a
 3049 00fc 0B       		.uleb128 0xb
 3050 00fd 3B       		.uleb128 0x3b
 3051 00fe 05       		.uleb128 0x5
 3052 00ff 39       		.uleb128 0x39
 3053 0100 0B       		.uleb128 0xb
 3054 0101 49       		.uleb128 0x49
 3055 0102 13       		.uleb128 0x13
 3056 0103 38       		.uleb128 0x38
 3057 0104 0B       		.uleb128 0xb
 3058 0105 00       		.byte	0
 3059 0106 00       		.byte	0
 3060 0107 16       		.uleb128 0x16
 3061 0108 16       		.uleb128 0x16
 3062 0109 00       		.byte	0
ARM GAS  /tmp/ccVQXVRI.s 			page 55


 3063 010a 03       		.uleb128 0x3
 3064 010b 0E       		.uleb128 0xe
 3065 010c 3A       		.uleb128 0x3a
 3066 010d 0B       		.uleb128 0xb
 3067 010e 3B       		.uleb128 0x3b
 3068 010f 05       		.uleb128 0x5
 3069 0110 39       		.uleb128 0x39
 3070 0111 0B       		.uleb128 0xb
 3071 0112 49       		.uleb128 0x49
 3072 0113 13       		.uleb128 0x13
 3073 0114 00       		.byte	0
 3074 0115 00       		.byte	0
 3075 0116 17       		.uleb128 0x17
 3076 0117 13       		.uleb128 0x13
 3077 0118 00       		.byte	0
 3078 0119 0B       		.uleb128 0xb
 3079 011a 0B       		.uleb128 0xb
 3080 011b 3A       		.uleb128 0x3a
 3081 011c 0B       		.uleb128 0xb
 3082 011d 3B       		.uleb128 0x3b
 3083 011e 0B       		.uleb128 0xb
 3084 011f 39       		.uleb128 0x39
 3085 0120 0B       		.uleb128 0xb
 3086 0121 00       		.byte	0
 3087 0122 00       		.byte	0
 3088 0123 18       		.uleb128 0x18
 3089 0124 04       		.uleb128 0x4
 3090 0125 01       		.byte	0x1
 3091 0126 3E       		.uleb128 0x3e
 3092 0127 0B       		.uleb128 0xb
 3093 0128 0B       		.uleb128 0xb
 3094 0129 0B       		.uleb128 0xb
 3095 012a 49       		.uleb128 0x49
 3096 012b 13       		.uleb128 0x13
 3097 012c 3A       		.uleb128 0x3a
 3098 012d 0B       		.uleb128 0xb
 3099 012e 3B       		.uleb128 0x3b
 3100 012f 0B       		.uleb128 0xb
 3101 0130 39       		.uleb128 0x39
 3102 0131 0B       		.uleb128 0xb
 3103 0132 01       		.uleb128 0x1
 3104 0133 13       		.uleb128 0x13
 3105 0134 00       		.byte	0
 3106 0135 00       		.byte	0
 3107 0136 19       		.uleb128 0x19
 3108 0137 28       		.uleb128 0x28
 3109 0138 00       		.byte	0
 3110 0139 03       		.uleb128 0x3
 3111 013a 0E       		.uleb128 0xe
 3112 013b 1C       		.uleb128 0x1c
 3113 013c 0B       		.uleb128 0xb
 3114 013d 00       		.byte	0
 3115 013e 00       		.byte	0
 3116 013f 1A       		.uleb128 0x1a
 3117 0140 34       		.uleb128 0x34
 3118 0141 00       		.byte	0
 3119 0142 03       		.uleb128 0x3
ARM GAS  /tmp/ccVQXVRI.s 			page 56


 3120 0143 08       		.uleb128 0x8
 3121 0144 3A       		.uleb128 0x3a
 3122 0145 0B       		.uleb128 0xb
 3123 0146 3B       		.uleb128 0x3b
 3124 0147 0B       		.uleb128 0xb
 3125 0148 39       		.uleb128 0x39
 3126 0149 0B       		.uleb128 0xb
 3127 014a 49       		.uleb128 0x49
 3128 014b 13       		.uleb128 0x13
 3129 014c 3F       		.uleb128 0x3f
 3130 014d 19       		.uleb128 0x19
 3131 014e 3C       		.uleb128 0x3c
 3132 014f 19       		.uleb128 0x19
 3133 0150 00       		.byte	0
 3134 0151 00       		.byte	0
 3135 0152 1B       		.uleb128 0x1b
 3136 0153 26       		.uleb128 0x26
 3137 0154 00       		.byte	0
 3138 0155 00       		.byte	0
 3139 0156 00       		.byte	0
 3140 0157 1C       		.uleb128 0x1c
 3141 0158 34       		.uleb128 0x34
 3142 0159 00       		.byte	0
 3143 015a 03       		.uleb128 0x3
 3144 015b 0E       		.uleb128 0xe
 3145 015c 3A       		.uleb128 0x3a
 3146 015d 0B       		.uleb128 0xb
 3147 015e 3B       		.uleb128 0x3b
 3148 015f 0B       		.uleb128 0xb
 3149 0160 39       		.uleb128 0x39
 3150 0161 0B       		.uleb128 0xb
 3151 0162 49       		.uleb128 0x49
 3152 0163 13       		.uleb128 0x13
 3153 0164 02       		.uleb128 0x2
 3154 0165 18       		.uleb128 0x18
 3155 0166 00       		.byte	0
 3156 0167 00       		.byte	0
 3157 0168 1D       		.uleb128 0x1d
 3158 0169 2E       		.uleb128 0x2e
 3159 016a 01       		.byte	0x1
 3160 016b 3F       		.uleb128 0x3f
 3161 016c 19       		.uleb128 0x19
 3162 016d 03       		.uleb128 0x3
 3163 016e 0E       		.uleb128 0xe
 3164 016f 3A       		.uleb128 0x3a
 3165 0170 0B       		.uleb128 0xb
 3166 0171 3B       		.uleb128 0x3b
 3167 0172 0B       		.uleb128 0xb
 3168 0173 39       		.uleb128 0x39
 3169 0174 0B       		.uleb128 0xb
 3170 0175 27       		.uleb128 0x27
 3171 0176 19       		.uleb128 0x19
 3172 0177 49       		.uleb128 0x49
 3173 0178 13       		.uleb128 0x13
 3174 0179 11       		.uleb128 0x11
 3175 017a 01       		.uleb128 0x1
 3176 017b 12       		.uleb128 0x12
ARM GAS  /tmp/ccVQXVRI.s 			page 57


 3177 017c 06       		.uleb128 0x6
 3178 017d 40       		.uleb128 0x40
 3179 017e 18       		.uleb128 0x18
 3180 017f 9742     		.uleb128 0x2117
 3181 0181 19       		.uleb128 0x19
 3182 0182 01       		.uleb128 0x1
 3183 0183 13       		.uleb128 0x13
 3184 0184 00       		.byte	0
 3185 0185 00       		.byte	0
 3186 0186 1E       		.uleb128 0x1e
 3187 0187 898201   		.uleb128 0x4109
 3188 018a 00       		.byte	0
 3189 018b 11       		.uleb128 0x11
 3190 018c 01       		.uleb128 0x1
 3191 018d 31       		.uleb128 0x31
 3192 018e 13       		.uleb128 0x13
 3193 018f 00       		.byte	0
 3194 0190 00       		.byte	0
 3195 0191 1F       		.uleb128 0x1f
 3196 0192 898201   		.uleb128 0x4109
 3197 0195 01       		.byte	0x1
 3198 0196 11       		.uleb128 0x11
 3199 0197 01       		.uleb128 0x1
 3200 0198 31       		.uleb128 0x31
 3201 0199 13       		.uleb128 0x13
 3202 019a 01       		.uleb128 0x1
 3203 019b 13       		.uleb128 0x13
 3204 019c 00       		.byte	0
 3205 019d 00       		.byte	0
 3206 019e 20       		.uleb128 0x20
 3207 019f 8A8201   		.uleb128 0x410a
 3208 01a2 00       		.byte	0
 3209 01a3 02       		.uleb128 0x2
 3210 01a4 18       		.uleb128 0x18
 3211 01a5 9142     		.uleb128 0x2111
 3212 01a7 18       		.uleb128 0x18
 3213 01a8 00       		.byte	0
 3214 01a9 00       		.byte	0
 3215 01aa 21       		.uleb128 0x21
 3216 01ab 2E       		.uleb128 0x2e
 3217 01ac 01       		.byte	0x1
 3218 01ad 03       		.uleb128 0x3
 3219 01ae 0E       		.uleb128 0xe
 3220 01af 3A       		.uleb128 0x3a
 3221 01b0 0B       		.uleb128 0xb
 3222 01b1 3B       		.uleb128 0x3b
 3223 01b2 0B       		.uleb128 0xb
 3224 01b3 39       		.uleb128 0x39
 3225 01b4 0B       		.uleb128 0xb
 3226 01b5 27       		.uleb128 0x27
 3227 01b6 19       		.uleb128 0x19
 3228 01b7 49       		.uleb128 0x49
 3229 01b8 13       		.uleb128 0x13
 3230 01b9 11       		.uleb128 0x11
 3231 01ba 01       		.uleb128 0x1
 3232 01bb 12       		.uleb128 0x12
 3233 01bc 06       		.uleb128 0x6
ARM GAS  /tmp/ccVQXVRI.s 			page 58


 3234 01bd 40       		.uleb128 0x40
 3235 01be 18       		.uleb128 0x18
 3236 01bf 9742     		.uleb128 0x2117
 3237 01c1 19       		.uleb128 0x19
 3238 01c2 01       		.uleb128 0x1
 3239 01c3 13       		.uleb128 0x13
 3240 01c4 00       		.byte	0
 3241 01c5 00       		.byte	0
 3242 01c6 22       		.uleb128 0x22
 3243 01c7 05       		.uleb128 0x5
 3244 01c8 00       		.byte	0
 3245 01c9 03       		.uleb128 0x3
 3246 01ca 08       		.uleb128 0x8
 3247 01cb 3A       		.uleb128 0x3a
 3248 01cc 0B       		.uleb128 0xb
 3249 01cd 3B       		.uleb128 0x3b
 3250 01ce 0B       		.uleb128 0xb
 3251 01cf 39       		.uleb128 0x39
 3252 01d0 0B       		.uleb128 0xb
 3253 01d1 49       		.uleb128 0x49
 3254 01d2 13       		.uleb128 0x13
 3255 01d3 02       		.uleb128 0x2
 3256 01d4 17       		.uleb128 0x17
 3257 01d5 B742     		.uleb128 0x2137
 3258 01d7 17       		.uleb128 0x17
 3259 01d8 00       		.byte	0
 3260 01d9 00       		.byte	0
 3261 01da 23       		.uleb128 0x23
 3262 01db 34       		.uleb128 0x34
 3263 01dc 00       		.byte	0
 3264 01dd 03       		.uleb128 0x3
 3265 01de 0E       		.uleb128 0xe
 3266 01df 3A       		.uleb128 0x3a
 3267 01e0 0B       		.uleb128 0xb
 3268 01e1 3B       		.uleb128 0x3b
 3269 01e2 0B       		.uleb128 0xb
 3270 01e3 39       		.uleb128 0x39
 3271 01e4 0B       		.uleb128 0xb
 3272 01e5 49       		.uleb128 0x49
 3273 01e6 13       		.uleb128 0x13
 3274 01e7 02       		.uleb128 0x2
 3275 01e8 17       		.uleb128 0x17
 3276 01e9 B742     		.uleb128 0x2137
 3277 01eb 17       		.uleb128 0x17
 3278 01ec 00       		.byte	0
 3279 01ed 00       		.byte	0
 3280 01ee 24       		.uleb128 0x24
 3281 01ef 898201   		.uleb128 0x4109
 3282 01f2 01       		.byte	0x1
 3283 01f3 11       		.uleb128 0x11
 3284 01f4 01       		.uleb128 0x1
 3285 01f5 31       		.uleb128 0x31
 3286 01f6 13       		.uleb128 0x13
 3287 01f7 00       		.byte	0
 3288 01f8 00       		.byte	0
 3289 01f9 25       		.uleb128 0x25
 3290 01fa 2E       		.uleb128 0x2e
ARM GAS  /tmp/ccVQXVRI.s 			page 59


 3291 01fb 00       		.byte	0
 3292 01fc 3F       		.uleb128 0x3f
 3293 01fd 19       		.uleb128 0x19
 3294 01fe 3C       		.uleb128 0x3c
 3295 01ff 19       		.uleb128 0x19
 3296 0200 6E       		.uleb128 0x6e
 3297 0201 0E       		.uleb128 0xe
 3298 0202 03       		.uleb128 0x3
 3299 0203 0E       		.uleb128 0xe
 3300 0204 3A       		.uleb128 0x3a
 3301 0205 0B       		.uleb128 0xb
 3302 0206 3B       		.uleb128 0x3b
 3303 0207 0B       		.uleb128 0xb
 3304 0208 39       		.uleb128 0x39
 3305 0209 0B       		.uleb128 0xb
 3306 020a 00       		.byte	0
 3307 020b 00       		.byte	0
 3308 020c 26       		.uleb128 0x26
 3309 020d 2E       		.uleb128 0x2e
 3310 020e 00       		.byte	0
 3311 020f 3F       		.uleb128 0x3f
 3312 0210 19       		.uleb128 0x19
 3313 0211 3C       		.uleb128 0x3c
 3314 0212 19       		.uleb128 0x19
 3315 0213 6E       		.uleb128 0x6e
 3316 0214 0E       		.uleb128 0xe
 3317 0215 03       		.uleb128 0x3
 3318 0216 0E       		.uleb128 0xe
 3319 0217 3A       		.uleb128 0x3a
 3320 0218 0B       		.uleb128 0xb
 3321 0219 3B       		.uleb128 0x3b
 3322 021a 05       		.uleb128 0x5
 3323 021b 39       		.uleb128 0x39
 3324 021c 0B       		.uleb128 0xb
 3325 021d 00       		.byte	0
 3326 021e 00       		.byte	0
 3327 021f 00       		.byte	0
 3328              		.section	.debug_loc,"",%progbits
 3329              	.Ldebug_loc0:
 3330              	.LVUS0:
 3331 0000 00       		.uleb128 0
 3332 0001 00       		.uleb128 .LVU11
 3333 0002 00       		.uleb128 .LVU11
 3334 0003 00       		.uleb128 0
 3335              	.LLST0:
 3336 0004 00000000 		.4byte	.LVL0
 3337 0008 24000000 		.4byte	.LVL2
 3338 000c 0100     		.2byte	0x1
 3339 000e 50       		.byte	0x50
 3340 000f 24000000 		.4byte	.LVL2
 3341 0013 C8000000 		.4byte	.LFE7
 3342 0017 0400     		.2byte	0x4
 3343 0019 F3       		.byte	0xf3
 3344 001a 01       		.uleb128 0x1
 3345 001b 50       		.byte	0x50
 3346 001c 9F       		.byte	0x9f
 3347 001d 00000000 		.4byte	0
ARM GAS  /tmp/ccVQXVRI.s 			page 60


 3348 0021 00000000 		.4byte	0
 3349              	.LVUS1:
 3350 0025 01       		.uleb128 .LVU10
 3351 0026 00       		.uleb128 .LVU11
 3352 0027 00       		.uleb128 .LVU11
 3353 0028 00       		.uleb128 .LVU23
 3354 0029 00       		.uleb128 .LVU25
 3355 002a 00       		.uleb128 0
 3356              	.LLST1:
 3357 002b 20000000 		.4byte	.LVL1
 3358 002f 24000000 		.4byte	.LVL2
 3359 0033 0200     		.2byte	0x2
 3360 0035 30       		.byte	0x30
 3361 0036 9F       		.byte	0x9f
 3362 0037 24000000 		.4byte	.LVL2
 3363 003b A8000000 		.4byte	.LVL12
 3364 003f 0100     		.2byte	0x1
 3365 0041 55       		.byte	0x55
 3366 0042 B0000000 		.4byte	.LVL13
 3367 0046 C8000000 		.4byte	.LFE7
 3368 004a 0100     		.2byte	0x1
 3369 004c 55       		.byte	0x55
 3370 004d 00000000 		.4byte	0
 3371 0051 00000000 		.4byte	0
 3372              		.section	.debug_aranges,"",%progbits
 3373 0000 24000000 		.4byte	0x24
 3374 0004 0200     		.2byte	0x2
 3375 0006 00000000 		.4byte	.Ldebug_info0
 3376 000a 04       		.byte	0x4
 3377 000b 00       		.byte	0
 3378 000c 0000     		.2byte	0
 3379 000e 0000     		.2byte	0
 3380 0010 00000000 		.4byte	.LFB7
 3381 0014 C8000000 		.4byte	.LFE7-.LFB7
 3382 0018 00000000 		.4byte	.LFB8
 3383 001c 10010000 		.4byte	.LFE8-.LFB8
 3384 0020 00000000 		.4byte	0
 3385 0024 00000000 		.4byte	0
 3386              		.section	.debug_ranges,"",%progbits
 3387              	.Ldebug_ranges0:
 3388 0000 00000000 		.4byte	.LFB7
 3389 0004 C8000000 		.4byte	.LFE7
 3390 0008 00000000 		.4byte	.LFB8
 3391 000c 10010000 		.4byte	.LFE8
 3392 0010 00000000 		.4byte	0
 3393 0014 00000000 		.4byte	0
 3394              		.section	.debug_line,"",%progbits
 3395              	.Ldebug_line0:
 3396 0000 D0020000 		.section	.debug_str,"MS",%progbits,1
 3396      0300E001 
 3396      00000201 
 3396      FB0E0D00 
 3396      01010101 
 3397              	.LASF204:
 3398 0000 63684F51 		.ascii	"chOQPutTimeout\000"
 3398      50757454 
 3398      696D656F 
ARM GAS  /tmp/ccVQXVRI.s 			page 61


 3398      757400
 3399              	.LASF92:
 3400 000f 63665F6F 		.ascii	"cf_off_older\000"
 3400      66665F6F 
 3400      6C646572 
 3400      00
 3401              	.LASF38:
 3402 001c 705F6D73 		.ascii	"p_msg\000"
 3402      6700
 3403              	.LASF208:
 3404 0022 474E5520 		.ascii	"GNU C17 9.2.1 20191025 (release) [ARM/arm-9-branch "
 3404      43313720 
 3404      392E322E 
 3404      31203230 
 3404      31393130 
 3405 0055 72657669 		.ascii	"revision 277599] -mcpu=arm1176jz-s -mno-thumb-inter"
 3405      73696F6E 
 3405      20323737 
 3405      3539395D 
 3405      202D6D63 
 3406 0088 776F726B 		.ascii	"work -mfloat-abi=soft -marm -march=armv6kz -ggdb -O"
 3406      202D6D66 
 3406      6C6F6174 
 3406      2D616269 
 3406      3D736F66 
 3407 00bb 32202D66 		.ascii	"2 -fomit-frame-pointer -ffunction-sections -fdata-s"
 3407      6F6D6974 
 3407      2D667261 
 3407      6D652D70 
 3407      6F696E74 
 3408 00ee 65637469 		.ascii	"ections\000"
 3408      6F6E7300 
 3409              	.LASF77:
 3410 00f6 7264796D 		.ascii	"rdymsg\000"
 3410      736700
 3411              	.LASF115:
 3412 00fd 77726974 		.ascii	"write\000"
 3412      6500
 3413              	.LASF113:
 3414 0103 4F757470 		.ascii	"OutputQueue\000"
 3414      75745175 
 3414      65756500 
 3415              	.LASF181:
 3416 010f 5350495F 		.ascii	"SPI_ACTIVE\000"
 3416      41435449 
 3416      564500
 3417              	.LASF64:
 3418 011a 76746C69 		.ascii	"vtlist\000"
 3418      737400
 3419              	.LASF119:
 3420 0121 62736364 		.ascii	"bscdevice_t\000"
 3420      65766963 
 3420      655F7400 
 3421              	.LASF157:
 3422 012d 72786275 		.ascii	"rxbuf\000"
 3422      6600
 3423              	.LASF106:
ARM GAS  /tmp/ccVQXVRI.s 			page 62


 3424 0133 715F746F 		.ascii	"q_top\000"
 3424      7000
 3425              	.LASF13:
 3426 0139 6C6F6E67 		.ascii	"long long unsigned int\000"
 3426      206C6F6E 
 3426      6720756E 
 3426      7369676E 
 3426      65642069 
 3427              	.LASF88:
 3428 0150 63685F74 		.ascii	"ch_threadsize\000"
 3428      68726561 
 3428      6473697A 
 3428      6500
 3429              	.LASF78:
 3430 015e 65786974 		.ascii	"exitcode\000"
 3430      636F6465 
 3430      00
 3431              	.LASF184:
 3432 0167 53504944 		.ascii	"SPIDriver\000"
 3432      72697665 
 3432      7200
 3433              	.LASF124:
 3434 0171 64617461 		.ascii	"dataFifo\000"
 3434      4669666F 
 3434      00
 3435              	.LASF200:
 3436 017a 68616C49 		.ascii	"halInit\000"
 3436      6E697400 
 3437              	.LASF26:
 3438 0182 705F7072 		.ascii	"p_prio\000"
 3438      696F00
 3439              	.LASF95:
 3440 0189 63665F6F 		.ascii	"cf_off_state\000"
 3440      66665F73 
 3440      74617465 
 3440      00
 3441              	.LASF177:
 3442 0196 72656164 		.ascii	"readt\000"
 3442      7400
 3443              	.LASF150:
 3444 019c 64657669 		.ascii	"device\000"
 3444      636500
 3445              	.LASF103:
 3446 01a3 715F7761 		.ascii	"q_waiting\000"
 3446      6974696E 
 3446      6700
 3447              	.LASF6:
 3448 01ad 6C6F6E67 		.ascii	"long long int\000"
 3448      206C6F6E 
 3448      6720696E 
 3448      7400
 3449              	.LASF1:
 3450 01bb 7369676E 		.ascii	"signed char\000"
 3450      65642063 
 3450      68617200 
 3451              	.LASF94:
 3452 01c7 63665F6F 		.ascii	"cf_off_stklimit\000"
ARM GAS  /tmp/ccVQXVRI.s 			page 63


 3452      66665F73 
 3452      746B6C69 
 3452      6D697400 
 3453              	.LASF179:
 3454 01d7 5350495F 		.ascii	"SPI_STOP\000"
 3454      53544F50 
 3454      00
 3455              	.LASF96:
 3456 01e0 63665F6F 		.ascii	"cf_off_flags\000"
 3456      66665F66 
 3456      6C616773 
 3456      00
 3457              	.LASF166:
 3458 01ed 53445F53 		.ascii	"SD_STOP\000"
 3458      544F5000 
 3459              	.LASF210:
 3460 01f5 2F686F6D 		.ascii	"/home/taskman/arduino/embedded-wind-turbine/Data_Co"
 3460      652F7461 
 3460      736B6D61 
 3460      6E2F6172 
 3460      6475696E 
 3461 0228 6C6C6563 		.ascii	"llector/raspberry/compiler/boot\000"
 3461      746F722F 
 3461      72617370 
 3461      62657272 
 3461      792F636F 
 3462              	.LASF67:
 3463 0248 6D5F7175 		.ascii	"m_queue\000"
 3463      65756500 
 3464              	.LASF153:
 3465 0250 61646472 		.ascii	"addr\000"
 3465      00
 3466              	.LASF17:
 3467 0255 74736C69 		.ascii	"tslices_t\000"
 3467      6365735F 
 3467      7400
 3468              	.LASF139:
 3469 025f 4932435F 		.ascii	"I2C_UNINIT\000"
 3469      554E494E 
 3469      495400
 3470              	.LASF161:
 3471 026a 69326361 		.ascii	"i2caddr_t\000"
 3471      6464725F 
 3471      7400
 3472              	.LASF147:
 3473 0274 73746174 		.ascii	"state\000"
 3473      6500
 3474              	.LASF5:
 3475 027a 6C6F6E67 		.ascii	"long int\000"
 3475      20696E74 
 3475      00
 3476              	.LASF15:
 3477 0283 74737461 		.ascii	"tstate_t\000"
 3477      74655F74 
 3477      00
 3478              	.LASF152:
 3479 028c 74687265 		.ascii	"thread\000"
ARM GAS  /tmp/ccVQXVRI.s 			page 64


 3479      616400
 3480              	.LASF126:
 3481 0293 64617461 		.ascii	"dataDelay\000"
 3481      44656C61 
 3481      7900
 3482              	.LASF159:
 3483 029d 72786964 		.ascii	"rxidx\000"
 3483      7800
 3484              	.LASF105:
 3485 02a3 715F6275 		.ascii	"q_buffer\000"
 3485      66666572 
 3485      00
 3486              	.LASF9:
 3487 02ac 75696E74 		.ascii	"uint16_t\000"
 3487      31365F74 
 3487      00
 3488              	.LASF197:
 3489 02b5 53504930 		.ascii	"SPI0\000"
 3489      00
 3490              	.LASF100:
 3491 02ba 63686465 		.ascii	"chdebug_t\000"
 3491      6275675F 
 3491      7400
 3492              	.LASF142:
 3493 02c4 4932435F 		.ascii	"I2C_ACTIVE_TX\000"
 3493      41435449 
 3493      56455F54 
 3493      5800
 3494              	.LASF194:
 3495 02d2 636C6F63 		.ascii	"clock_phase\000"
 3495      6B5F7068 
 3495      61736500 
 3496              	.LASF28:
 3497 02de 705F6E65 		.ascii	"p_newer\000"
 3497      77657200 
 3498              	.LASF118:
 3499 02e6 5F69646C 		.ascii	"_idle_thread_wa\000"
 3499      655F7468 
 3499      72656164 
 3499      5F776100 
 3500              	.LASF187:
 3501 02f6 656E645F 		.ascii	"end_cb\000"
 3501      636200
 3502              	.LASF212:
 3503 02fd 54687265 		.ascii	"Thread_LCD\000"
 3503      61645F4C 
 3503      434400
 3504              	.LASF185:
 3505 0308 7478636E 		.ascii	"txcnt\000"
 3505      7400
 3506              	.LASF191:
 3507 030e 63686970 		.ascii	"chip_select_polarity0\000"
 3507      5F73656C 
 3507      6563745F 
 3507      706F6C61 
 3507      72697479 
 3508              	.LASF192:
ARM GAS  /tmp/ccVQXVRI.s 			page 65


 3509 0324 63686970 		.ascii	"chip_select_polarity1\000"
 3509      5F73656C 
 3509      6563745F 
 3509      706F6C61 
 3509      72697479 
 3510              	.LASF120:
 3511 033a 636F6E74 		.ascii	"control\000"
 3511      726F6C00 
 3512              	.LASF60:
 3513 0342 725F6E65 		.ascii	"r_newer\000"
 3513      77657200 
 3514              	.LASF45:
 3515 034a 72656761 		.ascii	"regarm_t\000"
 3515      726D5F74 
 3515      00
 3516              	.LASF51:
 3517 0353 76745F70 		.ascii	"vt_prev\000"
 3517      72657600 
 3518              	.LASF123:
 3519 035b 736C6176 		.ascii	"slaveAddress\000"
 3519      65416464 
 3519      72657373 
 3519      00
 3520              	.LASF3:
 3521 0368 73697A65 		.ascii	"size_t\000"
 3521      5F7400
 3522              	.LASF186:
 3523 036f 73706963 		.ascii	"spicallback_t\000"
 3523      616C6C62 
 3523      61636B5F 
 3523      7400
 3524              	.LASF164:
 3525 037d 49324330 		.ascii	"I2C0\000"
 3525      00
 3526              	.LASF75:
 3527 0382 4576656E 		.ascii	"EventSource\000"
 3527      74536F75 
 3527      72636500 
 3528              	.LASF117:
 3529 038e 42617365 		.ascii	"BaseSequentialStream\000"
 3529      53657175 
 3529      656E7469 
 3529      616C5374 
 3529      7265616D 
 3530              	.LASF203:
 3531 03a3 63687072 		.ascii	"chprintf\000"
 3531      696E7466 
 3531      00
 3532              	.LASF0:
 3533 03ac 756E7369 		.ascii	"unsigned int\000"
 3533      676E6564 
 3533      20696E74 
 3533      00
 3534              	.LASF199:
 3535 03b9 69746572 		.ascii	"iteration\000"
 3535      6174696F 
 3535      6E00
ARM GAS  /tmp/ccVQXVRI.s 			page 66


 3536              	.LASF50:
 3537 03c3 76745F6E 		.ascii	"vt_next\000"
 3537      65787400 
 3538              	.LASF154:
 3539 03cb 74786275 		.ascii	"txbuf\000"
 3539      6600
 3540              	.LASF173:
 3541 03d1 53657269 		.ascii	"SerialDriverVMT\000"
 3541      616C4472 
 3541      69766572 
 3541      564D5400 
 3542              	.LASF149:
 3543 03e1 6572726F 		.ascii	"errors\000"
 3543      727300
 3544              	.LASF171:
 3545 03e8 69717565 		.ascii	"iqueue\000"
 3545      756500
 3546              	.LASF12:
 3547 03ef 6C6F6E67 		.ascii	"long unsigned int\000"
 3547      20756E73 
 3547      69676E65 
 3547      6420696E 
 3547      7400
 3548              	.LASF101:
 3549 0401 63685F64 		.ascii	"ch_debug\000"
 3549      65627567 
 3549      00
 3550              	.LASF175:
 3551 040a 67657474 		.ascii	"gett\000"
 3551      00
 3552              	.LASF82:
 3553 040f 63685F69 		.ascii	"ch_identifier\000"
 3553      64656E74 
 3553      69666965 
 3553      7200
 3554              	.LASF190:
 3555 041d 63686970 		.ascii	"chip_select_polarity\000"
 3555      5F73656C 
 3555      6563745F 
 3555      706F6C61 
 3555      72697479 
 3556              	.LASF170:
 3557 0432 6576656E 		.ascii	"event\000"
 3557      7400
 3558              	.LASF47:
 3559 0438 636F6E74 		.ascii	"context\000"
 3559      65787400 
 3560              	.LASF10:
 3561 0440 73686F72 		.ascii	"short unsigned int\000"
 3561      7420756E 
 3561      7369676E 
 3561      65642069 
 3561      6E7400
 3562              	.LASF134:
 3563 0453 6770696F 		.ascii	"gpio_port_t\000"
 3563      5F706F72 
 3563      745F7400 
ARM GAS  /tmp/ccVQXVRI.s 			page 67


 3564              	.LASF130:
 3565 045f 6770636C 		.ascii	"gpclr\000"
 3565      7200
 3566              	.LASF19:
 3567 0465 6D73675F 		.ascii	"msg_t\000"
 3567      7400
 3568              	.LASF172:
 3569 046b 6F717565 		.ascii	"oqueue\000"
 3569      756500
 3570              	.LASF71:
 3571 0472 656C5F6E 		.ascii	"el_next\000"
 3571      65787400 
 3572              	.LASF209:
 3573 047a 6D61696E 		.ascii	"main.c\000"
 3573      2E6300
 3574              	.LASF176:
 3575 0481 77726974 		.ascii	"writet\000"
 3575      657400
 3576              	.LASF201:
 3577 0488 63685379 		.ascii	"chSysInit\000"
 3577      73496E69 
 3577      7400
 3578              	.LASF14:
 3579 0492 746D6F64 		.ascii	"tmode_t\000"
 3579      655F7400 
 3580              	.LASF43:
 3581 049a 54687265 		.ascii	"ThreadsList\000"
 3581      6164734C 
 3581      69737400 
 3582              	.LASF20:
 3583 04a6 6576656E 		.ascii	"eventmask_t\000"
 3583      746D6173 
 3583      6B5F7400 
 3584              	.LASF112:
 3585 04b2 496E7075 		.ascii	"InputQueue\000"
 3585      74517565 
 3585      756500
 3586              	.LASF66:
 3587 04bd 4D757465 		.ascii	"Mutex\000"
 3587      7800
 3588              	.LASF198:
 3589 04c3 77615468 		.ascii	"waThread_LCD\000"
 3589      72656164 
 3589      5F4C4344 
 3589      00
 3590              	.LASF102:
 3591 04d0 47656E65 		.ascii	"GenericQueue\000"
 3591      72696351 
 3591      75657565 
 3591      00
 3592              	.LASF44:
 3593 04dd 73746B61 		.ascii	"stkalign_t\000"
 3593      6C69676E 
 3593      5F7400
 3594              	.LASF206:
 3595 04e8 63685468 		.ascii	"chThdCreateStatic\000"
 3595      64437265 
ARM GAS  /tmp/ccVQXVRI.s 			page 68


 3595      61746553 
 3595      74617469 
 3595      6300
 3596              	.LASF83:
 3597 04fa 63685F7A 		.ascii	"ch_zero\000"
 3597      65726F00 
 3598              	.LASF97:
 3599 0502 63665F6F 		.ascii	"cf_off_refs\000"
 3599      66665F72 
 3599      65667300 
 3600              	.LASF131:
 3601 050e 67706C65 		.ascii	"gplev\000"
 3601      7600
 3602              	.LASF174:
 3603 0514 70757474 		.ascii	"putt\000"
 3603      00
 3604              	.LASF52:
 3605 0519 76745F74 		.ascii	"vt_time\000"
 3605      696D6500 
 3606              	.LASF140:
 3607 0521 4932435F 		.ascii	"I2C_STOP\000"
 3607      53544F50 
 3607      00
 3608              	.LASF125:
 3609 052a 636C6F63 		.ascii	"clockDivider\000"
 3609      6B446976 
 3609      69646572 
 3609      00
 3610              	.LASF104:
 3611 0537 715F636F 		.ascii	"q_counter\000"
 3611      756E7465 
 3611      7200
 3612              	.LASF53:
 3613 0541 76745F66 		.ascii	"vt_func\000"
 3613      756E6300 
 3614              	.LASF87:
 3615 0549 63685F74 		.ascii	"ch_timesize\000"
 3615      696D6573 
 3615      697A6500 
 3616              	.LASF211:
 3617 0555 6D61696E 		.ascii	"main\000"
 3617      00
 3618              	.LASF162:
 3619 055a 69635F73 		.ascii	"ic_speed\000"
 3619      70656564 
 3619      00
 3620              	.LASF93:
 3621 0563 63665F6F 		.ascii	"cf_off_name\000"
 3621      66665F6E 
 3621      616D6500 
 3622              	.LASF29:
 3623 056f 705F6F6C 		.ascii	"p_older\000"
 3623      64657200 
 3624              	.LASF158:
 3625 0577 72786279 		.ascii	"rxbytes\000"
 3625      74657300 
 3626              	.LASF107:
ARM GAS  /tmp/ccVQXVRI.s 			page 69


 3627 057f 715F7772 		.ascii	"q_wrptr\000"
 3627      70747200 
 3628              	.LASF59:
 3629 0587 725F6374 		.ascii	"r_ctx\000"
 3629      7800
 3630              	.LASF42:
 3631 058d 54687265 		.ascii	"ThreadsQueue\000"
 3631      61647351 
 3631      75657565 
 3631      00
 3632              	.LASF84:
 3633 059a 63685F73 		.ascii	"ch_size\000"
 3633      697A6500 
 3634              	.LASF136:
 3635 05a2 494F504F 		.ascii	"IOPORT0\000"
 3635      52543000 
 3636              	.LASF62:
 3637 05aa 725F6375 		.ascii	"r_current\000"
 3637      7272656E 
 3637      7400
 3638              	.LASF61:
 3639 05b4 725F6F6C 		.ascii	"r_older\000"
 3639      64657200 
 3640              	.LASF73:
 3641 05bc 656C5F6D 		.ascii	"el_mask\000"
 3641      61736B00 
 3642              	.LASF205:
 3643 05c4 63685468 		.ascii	"chThdSleep\000"
 3643      64536C65 
 3643      657000
 3644              	.LASF129:
 3645 05cf 67707365 		.ascii	"gpset\000"
 3645      7400
 3646              	.LASF132:
 3647 05d5 67707075 		.ascii	"gppudclk\000"
 3647      64636C6B 
 3647      00
 3648              	.LASF188:
 3649 05de 6C6F7373 		.ascii	"lossiEnabled\000"
 3649      69456E61 
 3649      626C6564 
 3649      00
 3650              	.LASF189:
 3651 05eb 63686970 		.ascii	"chip_select\000"
 3651      5F73656C 
 3651      65637400 
 3652              	.LASF16:
 3653 05f7 74726566 		.ascii	"trefs_t\000"
 3653      735F7400 
 3654              	.LASF145:
 3655 05ff 69326373 		.ascii	"i2cstate_t\000"
 3655      74617465 
 3655      5F7400
 3656              	.LASF86:
 3657 060a 63685F70 		.ascii	"ch_ptrsize\000"
 3657      74727369 
 3657      7A6500
ARM GAS  /tmp/ccVQXVRI.s 			page 70


 3658              	.LASF111:
 3659 0615 716E6F74 		.ascii	"qnotify_t\000"
 3659      6966795F 
 3659      7400
 3660              	.LASF25:
 3661 061f 705F7072 		.ascii	"p_prev\000"
 3661      657600
 3662              	.LASF18:
 3663 0626 74707269 		.ascii	"tprio_t\000"
 3663      6F5F7400 
 3664              	.LASF108:
 3665 062e 715F7264 		.ascii	"q_rdptr\000"
 3665      70747200 
 3666              	.LASF160:
 3667 0636 69326366 		.ascii	"i2cflags_t\000"
 3667      6C616773 
 3667      5F7400
 3668              	.LASF151:
 3669 0641 6D757465 		.ascii	"mutex\000"
 3669      7800
 3670              	.LASF4:
 3671 0647 696E7433 		.ascii	"int32_t\000"
 3671      325F7400 
 3672              	.LASF8:
 3673 064f 756E7369 		.ascii	"unsigned char\000"
 3673      676E6564 
 3673      20636861 
 3673      7200
 3674              	.LASF72:
 3675 065d 656C5F6C 		.ascii	"el_listener\000"
 3675      69737465 
 3675      6E657200 
 3676              	.LASF74:
 3677 0669 656C5F66 		.ascii	"el_flags\000"
 3677      6C616773 
 3677      00
 3678              	.LASF40:
 3679 0672 705F6D74 		.ascii	"p_mtxlist\000"
 3679      786C6973 
 3679      7400
 3680              	.LASF2:
 3681 067c 73686F72 		.ascii	"short int\000"
 3681      7420696E 
 3681      7400
 3682              	.LASF31:
 3683 0686 705F7374 		.ascii	"p_state\000"
 3683      61746500 
 3684              	.LASF34:
 3685 068e 705F7072 		.ascii	"p_preempt\000"
 3685      65656D70 
 3685      7400
 3686              	.LASF99:
 3687 0698 63665F6F 		.ascii	"cf_off_time\000"
 3687      66665F74 
 3687      696D6500 
 3688              	.LASF58:
 3689 06a4 725F7072 		.ascii	"r_prio\000"
ARM GAS  /tmp/ccVQXVRI.s 			page 71


 3689      696F00
 3690              	.LASF133:
 3691 06ab 70696E5F 		.ascii	"pin_base\000"
 3691      62617365 
 3691      00
 3692              	.LASF80:
 3693 06b4 65776D61 		.ascii	"ewmask\000"
 3693      736B00
 3694              	.LASF24:
 3695 06bb 705F6E65 		.ascii	"p_next\000"
 3695      787400
 3696              	.LASF137:
 3697 06c2 494F504F 		.ascii	"IOPORT1\000"
 3697      52543100 
 3698              	.LASF98:
 3699 06ca 63665F6F 		.ascii	"cf_off_preempt\000"
 3699      66665F70 
 3699      7265656D 
 3699      707400
 3700              	.LASF32:
 3701 06d9 705F666C 		.ascii	"p_flags\000"
 3701      61677300 
 3702              	.LASF23:
 3703 06e1 54687265 		.ascii	"Thread\000"
 3703      616400
 3704              	.LASF195:
 3705 06e8 636C6F63 		.ascii	"clock_divider\000"
 3705      6B5F6469 
 3705      76696465 
 3705      7200
 3706              	.LASF91:
 3707 06f6 63665F6F 		.ascii	"cf_off_newer\000"
 3707      66665F6E 
 3707      65776572 
 3707      00
 3708              	.LASF144:
 3709 0703 4932435F 		.ascii	"I2C_LOCKED\000"
 3709      4C4F434B 
 3709      454400
 3710              	.LASF39:
 3711 070e 705F6570 		.ascii	"p_epending\000"
 3711      656E6469 
 3711      6E6700
 3712              	.LASF165:
 3713 0719 53445F55 		.ascii	"SD_UNINIT\000"
 3713      4E494E49 
 3713      5400
 3714              	.LASF11:
 3715 0723 75696E74 		.ascii	"uint32_t\000"
 3715      33325F74 
 3715      00
 3716              	.LASF89:
 3717 072c 63665F6F 		.ascii	"cf_off_prio\000"
 3717      66665F70 
 3717      72696F00 
 3718              	.LASF57:
 3719 0738 725F7175 		.ascii	"r_queue\000"
ARM GAS  /tmp/ccVQXVRI.s 			page 72


 3719      65756500 
 3720              	.LASF49:
 3721 0740 56697274 		.ascii	"VirtualTimer\000"
 3721      75616C54 
 3721      696D6572 
 3721      00
 3722              	.LASF169:
 3723 074d 53657269 		.ascii	"SerialDriver\000"
 3723      616C4472 
 3723      69766572 
 3723      00
 3724              	.LASF143:
 3725 075a 4932435F 		.ascii	"I2C_ACTIVE_RX\000"
 3725      41435449 
 3725      56455F52 
 3725      5800
 3726              	.LASF116:
 3727 0768 72656164 		.ascii	"read\000"
 3727      00
 3728              	.LASF81:
 3729 076d 63686172 		.ascii	"char\000"
 3729      00
 3730              	.LASF182:
 3731 0772 5350495F 		.ascii	"SPI_COMPLETE\000"
 3731      434F4D50 
 3731      4C455445 
 3731      00
 3732              	.LASF148:
 3733 077f 636F6E66 		.ascii	"config\000"
 3733      696700
 3734              	.LASF202:
 3735 0786 73645374 		.ascii	"sdStart\000"
 3735      61727400 
 3736              	.LASF114:
 3737 078e 42617365 		.ascii	"BaseSequentialStreamVMT\000"
 3737      53657175 
 3737      656E7469 
 3737      616C5374 
 3737      7265616D 
 3738              	.LASF183:
 3739 07a6 73706973 		.ascii	"spistate_t\000"
 3739      74617465 
 3739      5F7400
 3740              	.LASF69:
 3741 07b1 6D5F6E65 		.ascii	"m_next\000"
 3741      787400
 3742              	.LASF22:
 3743 07b8 73797374 		.ascii	"systime_t\000"
 3743      696D655F 
 3743      7400
 3744              	.LASF41:
 3745 07c2 705F7265 		.ascii	"p_realprio\000"
 3745      616C7072 
 3745      696F00
 3746              	.LASF48:
 3747 07cd 76746675 		.ascii	"vtfunc_t\000"
 3747      6E635F74 
ARM GAS  /tmp/ccVQXVRI.s 			page 73


 3747      00
 3748              	.LASF141:
 3749 07d6 4932435F 		.ascii	"I2C_READY\000"
 3749      52454144 
 3749      5900
 3750              	.LASF146:
 3751 07e0 49324344 		.ascii	"I2CDriver\000"
 3751      72697665 
 3751      7200
 3752              	.LASF35:
 3753 07ea 705F7469 		.ascii	"p_time\000"
 3753      6D6500
 3754              	.LASF193:
 3755 07f1 636C6F63 		.ascii	"clock_polarity\000"
 3755      6B5F706F 
 3755      6C617269 
 3755      747900
 3756              	.LASF46:
 3757 0800 696E7463 		.ascii	"intctx\000"
 3757      747800
 3758              	.LASF37:
 3759 0807 705F6D73 		.ascii	"p_msgqueue\000"
 3759      67717565 
 3759      756500
 3760              	.LASF167:
 3761 0812 53445F52 		.ascii	"SD_READY\000"
 3761      45414459 
 3761      00
 3762              	.LASF180:
 3763 081b 5350495F 		.ascii	"SPI_READY\000"
 3763      52454144 
 3763      5900
 3764              	.LASF178:
 3765 0825 5350495F 		.ascii	"SPI_UNINIT\000"
 3765      554E494E 
 3765      495400
 3766              	.LASF207:
 3767 0830 63685468 		.ascii	"chThdWait\000"
 3767      64576169 
 3767      7400
 3768              	.LASF54:
 3769 083a 76745F70 		.ascii	"vt_par\000"
 3769      617200
 3770              	.LASF21:
 3771 0841 666C6167 		.ascii	"flagsmask_t\000"
 3771      736D6173 
 3771      6B5F7400 
 3772              	.LASF163:
 3773 084d 49324343 		.ascii	"I2CConfig\000"
 3773      6F6E6669 
 3773      6700
 3774              	.LASF168:
 3775 0857 73647374 		.ascii	"sdstate_t\000"
 3775      6174655F 
 3775      7400
 3776              	.LASF156:
 3777 0861 74786964 		.ascii	"txidx\000"
ARM GAS  /tmp/ccVQXVRI.s 			page 74


 3777      7800
 3778              	.LASF90:
 3779 0867 63665F6F 		.ascii	"cf_off_ctx\000"
 3779      66665F63 
 3779      747800
 3780              	.LASF33:
 3781 0872 705F7265 		.ascii	"p_refs\000"
 3781      667300
 3782              	.LASF121:
 3783 0879 73746174 		.ascii	"status\000"
 3783      757300
 3784              	.LASF63:
 3785 0880 52656164 		.ascii	"ReadyList\000"
 3785      794C6973 
 3785      7400
 3786              	.LASF109:
 3787 088a 715F6E6F 		.ascii	"q_notify\000"
 3787      74696679 
 3787      00
 3788              	.LASF65:
 3789 0893 726C6973 		.ascii	"rlist\000"
 3789      7400
 3790              	.LASF7:
 3791 0899 75696E74 		.ascii	"uint8_t\000"
 3791      385F7400 
 3792              	.LASF128:
 3793 08a1 6C617463 		.ascii	"latch\000"
 3793      6800
 3794              	.LASF70:
 3795 08a7 4576656E 		.ascii	"EventListener\000"
 3795      744C6973 
 3795      74656E65 
 3795      7200
 3796              	.LASF79:
 3797 08b5 77746F62 		.ascii	"wtobjp\000"
 3797      6A7000
 3798              	.LASF30:
 3799 08bc 705F6E61 		.ascii	"p_name\000"
 3799      6D6500
 3800              	.LASF55:
 3801 08c3 76745F73 		.ascii	"vt_systime\000"
 3801      79737469 
 3801      6D6500
 3802              	.LASF76:
 3803 08ce 65735F6E 		.ascii	"es_next\000"
 3803      65787400 
 3804              	.LASF196:
 3805 08d6 53504943 		.ascii	"SPIConfig\000"
 3805      6F6E6669 
 3805      6700
 3806              	.LASF85:
 3807 08e0 63685F76 		.ascii	"ch_version\000"
 3807      65727369 
 3807      6F6E00
 3808              	.LASF122:
 3809 08eb 64617461 		.ascii	"dataLength\000"
 3809      4C656E67 
ARM GAS  /tmp/ccVQXVRI.s 			page 75


 3809      746800
 3810              	.LASF56:
 3811 08f6 56544C69 		.ascii	"VTList\000"
 3811      737400
 3812              	.LASF110:
 3813 08fd 715F6C69 		.ascii	"q_link\000"
 3813      6E6B00
 3814              	.LASF135:
 3815 0904 50414C43 		.ascii	"PALConfig\000"
 3815      6F6E6669 
 3815      6700
 3816              	.LASF68:
 3817 090e 6D5F6F77 		.ascii	"m_owner\000"
 3817      6E657200 
 3818              	.LASF138:
 3819 0916 70616C5F 		.ascii	"pal_default_config\000"
 3819      64656661 
 3819      756C745F 
 3819      636F6E66 
 3819      696700
 3820              	.LASF27:
 3821 0929 705F6374 		.ascii	"p_ctx\000"
 3821      7800
 3822              	.LASF36:
 3823 092f 705F7761 		.ascii	"p_waiting\000"
 3823      6974696E 
 3823      6700
 3824              	.LASF155:
 3825 0939 74786279 		.ascii	"txbytes\000"
 3825      74657300 
 3826              	.LASF127:
 3827 0941 636C6F63 		.ascii	"clockStretchTimeout\000"
 3827      6B537472 
 3827      65746368 
 3827      54696D65 
 3827      6F757400 
 3828              		.ident	"GCC: (15:9-2019-q4-0ubuntu1) 9.2.1 20191025 (release) [ARM/arm-9-branch revision 277599]"
ARM GAS  /tmp/ccVQXVRI.s 			page 76


DEFINED SYMBOLS
                            *ABS*:0000000000000000 main.c
     /tmp/ccVQXVRI.s:16     .rodata.Thread_LCD.str1.4:0000000000000000 $d
     /tmp/ccVQXVRI.s:23     .text.Thread_LCD:0000000000000000 $a
     /tmp/ccVQXVRI.s:29     .text.Thread_LCD:0000000000000000 Thread_LCD
     /tmp/ccVQXVRI.s:134    .text.Thread_LCD:00000000000000b8 $d
     /tmp/ccVQXVRI.s:142    .rodata.main.str1.4:0000000000000000 $d
     /tmp/ccVQXVRI.s:149    .text.startup.main:0000000000000000 $a
     /tmp/ccVQXVRI.s:155    .text.startup.main:0000000000000000 main
     /tmp/ccVQXVRI.s:278    .text.startup.main:00000000000000f8 $d
     /tmp/ccVQXVRI.s:288    .bss.waThread_LCD:0000000000000000 $d
     /tmp/ccVQXVRI.s:292    .bss.waThread_LCD:0000000000000000 waThread_LCD

UNDEFINED SYMBOLS
chOQPutTimeout
chThdSleep
chprintf
rlist
SD1
halInit
chSysInit
sdStart
chThdCreateStatic
chThdWait
