ARM GAS  /tmp/ccLlri3c.s 			page 1


   1              		.cpu arm1176jz-s
   2              		.eabi_attribute 20, 1
   3              		.eabi_attribute 21, 1
   4              		.eabi_attribute 23, 3
   5              		.eabi_attribute 24, 1
   6              		.eabi_attribute 25, 1
   7              		.eabi_attribute 26, 1
   8              		.eabi_attribute 30, 2
   9              		.eabi_attribute 34, 1
  10              		.eabi_attribute 18, 4
  11              		.file	"pal.c"
  12              		.text
  13              	.Ltext0:
  14              		.cfi_sections	.debug_frame
  15              		.section	.text.palReadBus,"ax",%progbits
  16              		.align	2
  17              		.global	palReadBus
  18              		.arch armv6kz
  19              		.syntax unified
  20              		.arm
  21              		.fpu softvfp
  22              		.type	palReadBus, %function
  23              	palReadBus:
  24              	.LVL0:
  25              	.LFB7:
  26              		.file 1 "../os/hal/src/pal.c"
  27              		.loc 1 69 37 view -0
  28              		.cfi_startproc
  29              		@ args = 0, pretend = 0, frame = 0
  30              		@ frame_needed = 0, uses_anonymous_args = 0
  31              		@ link register save eliminated.
  32              		.loc 1 71 3 view .LVU1
  33              		.loc 1 72 62 view .LVU2
  34              		.loc 1 74 3 view .LVU3
  35              		.loc 1 74 10 is_stmt 0 view .LVU4
  36 0000 003090E5 		ldr	r3, [r0]
  37 0004 082090E5 		ldr	r2, [r0, #8]
  38 0008 0C1093E5 		ldr	r1, [r3, #12]
  39 000c 043090E5 		ldr	r3, [r0, #4]
  40 0010 000091E5 		ldr	r0, [r1]
  41              	.LVL1:
  42              		.loc 1 75 1 view .LVU5
  43 0014 300203E0 		and	r0, r3, r0, lsr r2
  44 0018 1EFF2FE1 		bx	lr
  45              		.cfi_endproc
  46              	.LFE7:
  47              		.size	palReadBus, .-palReadBus
  48              		.section	.text.palWriteBus,"ax",%progbits
  49              		.align	2
  50              		.global	palWriteBus
  51              		.syntax unified
  52              		.arm
  53              		.fpu softvfp
  54              		.type	palWriteBus, %function
  55              	palWriteBus:
  56              	.LVL2:
  57              	.LFB8:
ARM GAS  /tmp/ccLlri3c.s 			page 2


  58              		.loc 1 94 49 is_stmt 1 view -0
  59              		.cfi_startproc
  60              		@ args = 0, pretend = 0, frame = 0
  61              		@ frame_needed = 0, uses_anonymous_args = 0
  62              		.loc 1 96 3 view .LVU7
  63              		.loc 1 97 63 view .LVU8
  64              		.loc 1 99 3 view .LVU9
  65              		.loc 1 94 49 is_stmt 0 view .LVU10
  66 0000 0030A0E1 		mov	r3, r0
  67 0004 04E02DE5 		str	lr, [sp, #-4]!
  68              		.cfi_def_cfa_offset 4
  69              		.cfi_offset 14, -4
  70              		.loc 1 99 3 view .LVU11
  71 0008 014090E8 		ldm	r0, {r0, lr}
  72              	.LVL3:
  73              		.loc 1 99 3 view .LVU12
  74 000c 08C093E5 		ldr	ip, [r3, #8]
  75 0010 002090E5 		ldr	r2, [r0]
  76 0014 0E1001E0 		and	r1, r1, lr
  77              	.LVL4:
  78              		.loc 1 99 3 view .LVU13
  79 0018 1E2CC2E1 		bic	r2, r2, lr, lsl ip
  80 001c 111C82E1 		orr	r1, r2, r1, lsl ip
  81              		.loc 1 100 1 view .LVU14
  82 0020 04E09DE4 		ldr	lr, [sp], #4
  83              		.cfi_restore 14
  84              		.cfi_def_cfa_offset 0
  85              		.loc 1 99 3 view .LVU15
  86 0024 FEFFFFEA 		b	_pal_lld_writeport
  87              	.LVL5:
  88              		.loc 1 99 3 view .LVU16
  89              		.cfi_endproc
  90              	.LFE8:
  91              		.size	palWriteBus, .-palWriteBus
  92              		.section	.text.palSetBusMode,"ax",%progbits
  93              		.align	2
  94              		.global	palSetBusMode
  95              		.syntax unified
  96              		.arm
  97              		.fpu softvfp
  98              		.type	palSetBusMode, %function
  99              	palSetBusMode:
 100              	.LVL6:
 101              	.LFB9:
 102              		.loc 1 117 47 is_stmt 1 view -0
 103              		.cfi_startproc
 104              		@ args = 0, pretend = 0, frame = 0
 105              		@ frame_needed = 0, uses_anonymous_args = 0
 106              		@ link register save eliminated.
 107              		.loc 1 119 3 view .LVU18
 108              		.loc 1 120 65 view .LVU19
 109              		.loc 1 122 3 view .LVU20
 110 0000 04C090E5 		ldr	ip, [r0, #4]
 111              		.loc 1 117 47 is_stmt 0 view .LVU21
 112 0004 0120A0E1 		mov	r2, r1
 113              		.loc 1 122 3 view .LVU22
 114 0008 081090E5 		ldr	r1, [r0, #8]
ARM GAS  /tmp/ccLlri3c.s 			page 3


 115              	.LVL7:
 116              		.loc 1 122 3 view .LVU23
 117 000c 000090E5 		ldr	r0, [r0]
 118              	.LVL8:
 119              		.loc 1 122 3 view .LVU24
 120 0010 1C11A0E1 		lsl	r1, ip, r1
 121 0014 FEFFFFEA 		b	_pal_lld_setgroupmode
 122              	.LVL9:
 123              		.loc 1 122 3 view .LVU25
 124              		.cfi_endproc
 125              	.LFE9:
 126              		.size	palSetBusMode, .-palSetBusMode
 127              		.text
 128              	.Letext0:
 129              		.file 2 "/usr/lib/gcc/arm-none-eabi/9.2.1/include/stddef.h"
 130              		.file 3 "/usr/lib/gcc/arm-none-eabi/9.2.1/include/stdint.h"
 131              		.file 4 "../os/ports/GCC/ARM/chtypes.h"
 132              		.file 5 "../os/kernel/include/chlists.h"
 133              		.file 6 "../os/kernel/include/chthreads.h"
 134              		.file 7 "../os/ports/GCC/ARM/chcore.h"
 135              		.file 8 "../os/kernel/include/chvt.h"
 136              		.file 9 "../os/kernel/include/chschd.h"
 137              		.file 10 "../os/kernel/include/chmtx.h"
 138              		.file 11 "../os/kernel/include/chevents.h"
 139              		.file 12 "../os/kernel/include/chregistry.h"
 140              		.file 13 "../os/kernel/include/chqueues.h"
 141              		.file 14 "../os/kernel/include/ch.h"
 142              		.file 15 "../os/hal/platforms/BCM2835/bcm2835.h"
 143              		.file 16 "../os/hal/platforms/BCM2835/pal_lld.h"
 144              		.file 17 "../os/hal/include/pal.h"
 145              		.file 18 "../os/hal/include/i2c.h"
 146              		.file 19 "../os/hal/platforms/BCM2835/i2c_lld.h"
 147              		.file 20 "../os/hal/include/serial.h"
 148              		.file 21 "../os/hal/include/spi.h"
 149              		.file 22 "../os/hal/platforms/BCM2835/spi_lld.h"
 150              		.file 23 "../os/hal/platforms/BCM2835/serial_lld.h"