ARM GAS  /tmp/ccLlri3c.s 			page 1


   1              		.cpu arm1176jz-s
   2              		.eabi_attribute 20, 1
   3              		.eabi_attribute 21, 1
   4              		.eabi_attribute 23, 3
   5              		.eabi_attribute 24, 1
   6              		.eabi_attribute 25, 1
   7              		.eabi_attribute 26, 1
   8              		.eabi_attribute 30, 2
   9              		.eabi_attribute 34, 1
  10              		.eabi_attribute 18, 4
  11              		.file	"pal.c"
  12              		.text
  13              	.Ltext0:
  14              		.cfi_sections	.debug_frame
  15              		.section	.text.palReadBus,"ax",%progbits
  16              		.align	2
  17              		.global	palReadBus
  18              		.arch armv6kz
  19              		.syntax unified
  20              		.arm
  21              		.fpu softvfp
  22              		.type	palReadBus, %function
  23              	palReadBus:
  24              	.LVL0:
  25              	.LFB7:
  26              		.file 1 "../os/hal/src/pal.c"
  27              		.loc 1 69 37 view -0
  28              		.cfi_startproc
  29              		@ args = 0, pretend = 0, frame = 0
  30              		@ frame_needed = 0, uses_anonymous_args = 0
  31              		@ link register save eliminated.
  32              		.loc 1 71 3 view .LVU1
  33              		.loc 1 72 62 view .LVU2
  34              		.loc 1 74 3 view .LVU3
  35              		.loc 1 74 10 is_stmt 0 view .LVU4
  36 0000 003090E5 		ldr	r3, [r0]
  37 0004 082090E5 		ldr	r2, [r0, #8]
  38 0008 0C1093E5 		ldr	r1, [r3, #12]
  39 000c 043090E5 		ldr	r3, [r0, #4]
  40 0010 000091E5 		ldr	r0, [r1]
  41              	.LVL1:
  42              		.loc 1 75 1 view .LVU5
  43 0014 300203E0 		and	r0, r3, r0, lsr r2
  44 0018 1EFF2FE1 		bx	lr
  45              		.cfi_endproc
  46              	.LFE7:
  47              		.size	palReadBus, .-palReadBus
  48              		.section	.text.palWriteBus,"ax",%progbits
  49              		.align	2
  50              		.global	palWriteBus
  51              		.syntax unified
  52              		.arm
  53              		.fpu softvfp
  54              		.type	palWriteBus, %function
  55              	palWriteBus:
  56              	.LVL2:
  57              	.LFB8:
ARM GAS  /tmp/ccLlri3c.s 			page 2


  58              		.loc 1 94 49 is_stmt 1 view -0
  59              		.cfi_startproc
  60              		@ args = 0, pretend = 0, frame = 0
  61              		@ frame_needed = 0, uses_anonymous_args = 0
  62              		.loc 1 96 3 view .LVU7
  63              		.loc 1 97 63 view .LVU8
  64              		.loc 1 99 3 view .LVU9
  65              		.loc 1 94 49 is_stmt 0 view .LVU10
  66 0000 0030A0E1 		mov	r3, r0
  67 0004 04E02DE5 		str	lr, [sp, #-4]!
  68              		.cfi_def_cfa_offset 4
  69              		.cfi_offset 14, -4
  70              		.loc 1 99 3 view .LVU11
  71 0008 014090E8 		ldm	r0, {r0, lr}
  72              	.LVL3:
  73              		.loc 1 99 3 view .LVU12
  74 000c 08C093E5 		ldr	ip, [r3, #8]
  75 0010 002090E5 		ldr	r2, [r0]
  76 0014 0E1001E0 		and	r1, r1, lr
  77              	.LVL4:
  78              		.loc 1 99 3 view .LVU13
  79 0018 1E2CC2E1 		bic	r2, r2, lr, lsl ip
  80 001c 111C82E1 		orr	r1, r2, r1, lsl ip
  81              		.loc 1 100 1 view .LVU14
  82 0020 04E09DE4 		ldr	lr, [sp], #4
  83              		.cfi_restore 14
  84              		.cfi_def_cfa_offset 0
  85              		.loc 1 99 3 view .LVU15
  86 0024 FEFFFFEA 		b	_pal_lld_writeport
  87              	.LVL5:
  88              		.loc 1 99 3 view .LVU16
  89              		.cfi_endproc
  90              	.LFE8:
  91              		.size	palWriteBus, .-palWriteBus
  92              		.section	.text.palSetBusMode,"ax",%progbits
  93              		.align	2
  94              		.global	palSetBusMode
  95              		.syntax unified
  96              		.arm
  97              		.fpu softvfp
  98              		.type	palSetBusMode, %function
  99              	palSetBusMode:
 100              	.LVL6:
 101              	.LFB9:
 102              		.loc 1 117 47 is_stmt 1 view -0
 103              		.cfi_startproc
 104              		@ args = 0, pretend = 0, frame = 0
 105              		@ frame_needed = 0, uses_anonymous_args = 0
 106              		@ link register save eliminated.
 107              		.loc 1 119 3 view .LVU18
 108              		.loc 1 120 65 view .LVU19
 109              		.loc 1 122 3 view .LVU20
 110 0000 04C090E5 		ldr	ip, [r0, #4]
 111              		.loc 1 117 47 is_stmt 0 view .LVU21
 112 0004 0120A0E1 		mov	r2, r1
 113              		.loc 1 122 3 view .LVU22
 114 0008 081090E5 		ldr	r1, [r0, #8]
ARM GAS  /tmp/ccLlri3c.s 			page 3


 115              	.LVL7:
 116              		.loc 1 122 3 view .LVU23
 117 000c 000090E5 		ldr	r0, [r0]
 118              	.LVL8:
 119              		.loc 1 122 3 view .LVU24
 120 0010 1C11A0E1 		lsl	r1, ip, r1
 121 0014 FEFFFFEA 		b	_pal_lld_setgroupmode
 122              	.LVL9:
 123              		.loc 1 122 3 view .LVU25
 124              		.cfi_endproc
 125              	.LFE9:
 126              		.size	palSetBusMode, .-palSetBusMode
 127              		.text
 128              	.Letext0:
 129              		.file 2 "/usr/lib/gcc/arm-none-eabi/9.2.1/include/stddef.h"
 130              		.file 3 "/usr/lib/gcc/arm-none-eabi/9.2.1/include/stdint.h"
 131              		.file 4 "../os/ports/GCC/ARM/chtypes.h"
 132              		.file 5 "../os/kernel/include/chlists.h"
 133              		.file 6 "../os/kernel/include/chthreads.h"
 134              		.file 7 "../os/ports/GCC/ARM/chcore.h"
 135              		.file 8 "../os/kernel/include/chvt.h"
 136              		.file 9 "../os/kernel/include/chschd.h"
 137              		.file 10 "../os/kernel/include/chmtx.h"
 138              		.file 11 "../os/kernel/include/chevents.h"
 139              		.file 12 "../os/kernel/include/chregistry.h"
 140              		.file 13 "../os/kernel/include/chqueues.h"
 141              		.file 14 "../os/kernel/include/ch.h"
 142              		.file 15 "../os/hal/platforms/BCM2835/bcm2835.h"
 143              		.file 16 "../os/hal/platforms/BCM2835/pal_lld.h"
 144              		.file 17 "../os/hal/include/pal.h"
 145              		.file 18 "../os/hal/include/i2c.h"
 146              		.file 19 "../os/hal/platforms/BCM2835/i2c_lld.h"
 147              		.file 20 "../os/hal/include/serial.h"
 148              		.file 21 "../os/hal/include/spi.h"
 149              		.file 22 "../os/hal/platforms/BCM2835/spi_lld.h"
 150              		.file 23 "../os/hal/platforms/BCM2835/serial_lld.h"
 151              		.section	.debug_info,"",%progbits
 152              	.Ldebug_info0:
 153 0000 270F0000 		.4byte	0xf27
 154 0004 0400     		.2byte	0x4
 155 0006 00000000 		.4byte	.Ldebug_abbrev0
 156 000a 04       		.byte	0x4
 157 000b 01       		.uleb128 0x1
 158 000c 13000000 		.4byte	.LASF210
 159 0010 0C       		.byte	0xc
 160 0011 7B020000 		.4byte	.LASF211
 161 0015 E2060000 		.4byte	.LASF212
 162 0019 00000000 		.4byte	.Ldebug_ranges0+0
 163 001d 00000000 		.4byte	0
 164 0021 00000000 		.4byte	.Ldebug_line0
 165 0025 02       		.uleb128 0x2
 166 0026 04       		.byte	0x4
 167 0027 05       		.byte	0x5
 168 0028 696E7400 		.ascii	"int\000"
 169 002c 03       		.uleb128 0x3
 170 002d 1F030000 		.4byte	.LASF3
 171 0031 02       		.byte	0x2
ARM GAS  /tmp/ccLlri3c.s 			page 4


 172 0032 D1       		.byte	0xd1
 173 0033 17       		.byte	0x17
 174 0034 38000000 		.4byte	0x38
 175 0038 04       		.uleb128 0x4
 176 0039 04       		.byte	0x4
 177 003a 07       		.byte	0x7
 178 003b 50030000 		.4byte	.LASF0
 179 003f 05       		.uleb128 0x5
 180 0040 38000000 		.4byte	0x38
 181 0044 04       		.uleb128 0x4
 182 0045 01       		.byte	0x1
 183 0046 06       		.byte	0x6
 184 0047 C0010000 		.4byte	.LASF1
 185 004b 04       		.uleb128 0x4
 186 004c 02       		.byte	0x2
 187 004d 05       		.byte	0x5
 188 004e 0C060000 		.4byte	.LASF2
 189 0052 03       		.uleb128 0x3
 190 0053 D7050000 		.4byte	.LASF4
 191 0057 03       		.byte	0x3
 192 0058 28       		.byte	0x28
 193 0059 18       		.byte	0x18
 194 005a 5E000000 		.4byte	0x5e
 195 005e 04       		.uleb128 0x4
 196 005f 04       		.byte	0x4
 197 0060 05       		.byte	0x5
 198 0061 31020000 		.4byte	.LASF5
 199 0065 04       		.uleb128 0x4
 200 0066 08       		.byte	0x8
 201 0067 05       		.byte	0x5
 202 0068 B2010000 		.4byte	.LASF6
 203 006c 03       		.uleb128 0x3
 204 006d 94080000 		.4byte	.LASF7
 205 0071 03       		.byte	0x3
 206 0072 2E       		.byte	0x2e
 207 0073 18       		.byte	0x18
 208 0074 7D000000 		.4byte	0x7d
 209 0078 06       		.uleb128 0x6
 210 0079 6C000000 		.4byte	0x6c
 211 007d 04       		.uleb128 0x4
 212 007e 01       		.byte	0x1
 213 007f 08       		.byte	0x8
 214 0080 DF050000 		.4byte	.LASF8
 215 0084 03       		.uleb128 0x3
 216 0085 63020000 		.4byte	.LASF9
 217 0089 03       		.byte	0x3
 218 008a 31       		.byte	0x31
 219 008b 19       		.byte	0x19
 220 008c 90000000 		.4byte	0x90
 221 0090 04       		.uleb128 0x4
 222 0091 02       		.byte	0x2
 223 0092 07       		.byte	0x7
 224 0093 DA030000 		.4byte	.LASF10
 225 0097 03       		.uleb128 0x3
 226 0098 B8060000 		.4byte	.LASF11
 227 009c 03       		.byte	0x3
 228 009d 34       		.byte	0x34
ARM GAS  /tmp/ccLlri3c.s 			page 5


 229 009e 19       		.byte	0x19
 230 009f A8000000 		.4byte	0xa8
 231 00a3 05       		.uleb128 0x5
 232 00a4 97000000 		.4byte	0x97
 233 00a8 04       		.uleb128 0x4
 234 00a9 04       		.byte	0x4
 235 00aa 07       		.byte	0x7
 236 00ab 89030000 		.4byte	.LASF12
 237 00af 04       		.uleb128 0x4
 238 00b0 08       		.byte	0x8
 239 00b1 07       		.byte	0x7
 240 00b2 31010000 		.4byte	.LASF13
 241 00b6 03       		.uleb128 0x3
 242 00b7 52060000 		.4byte	.LASF14
 243 00bb 03       		.byte	0x3
 244 00bc 4B       		.byte	0x4b
 245 00bd 1D       		.byte	0x1d
 246 00be 38000000 		.4byte	0x38
 247 00c2 03       		.uleb128 0x3
 248 00c3 1B040000 		.4byte	.LASF15
 249 00c7 04       		.byte	0x4
 250 00c8 2A       		.byte	0x2a
 251 00c9 19       		.byte	0x19
 252 00ca 6C000000 		.4byte	0x6c
 253 00ce 03       		.uleb128 0x3
 254 00cf 3A020000 		.4byte	.LASF16
 255 00d3 04       		.byte	0x4
 256 00d4 2B       		.byte	0x2b
 257 00d5 19       		.byte	0x19
 258 00d6 6C000000 		.4byte	0x6c
 259 00da 03       		.uleb128 0x3
 260 00db 87050000 		.4byte	.LASF17
 261 00df 04       		.byte	0x4
 262 00e0 2C       		.byte	0x2c
 263 00e1 19       		.byte	0x19
 264 00e2 6C000000 		.4byte	0x6c
 265 00e6 03       		.uleb128 0x3
 266 00e7 07020000 		.4byte	.LASF18
 267 00eb 04       		.byte	0x4
 268 00ec 2D       		.byte	0x2d
 269 00ed 19       		.byte	0x19
 270 00ee 6C000000 		.4byte	0x6c
 271 00f2 03       		.uleb128 0x3
 272 00f3 B6050000 		.4byte	.LASF19
 273 00f7 04       		.byte	0x4
 274 00f8 2E       		.byte	0x2e
 275 00f9 19       		.byte	0x19
 276 00fa 97000000 		.4byte	0x97
 277 00fe 03       		.uleb128 0x3
 278 00ff FF030000 		.4byte	.LASF20
 279 0103 04       		.byte	0x4
 280 0104 2F       		.byte	0x2f
 281 0105 19       		.byte	0x19
 282 0106 52000000 		.4byte	0x52
 283 010a 03       		.uleb128 0x3
 284 010b 42040000 		.4byte	.LASF21
 285 010f 04       		.byte	0x4
ARM GAS  /tmp/ccLlri3c.s 			page 6


 286 0110 31       		.byte	0x31
 287 0111 19       		.byte	0x19
 288 0112 97000000 		.4byte	0x97
 289 0116 03       		.uleb128 0x3
 290 0117 30080000 		.4byte	.LASF22
 291 011b 04       		.byte	0x4
 292 011c 32       		.byte	0x32
 293 011d 19       		.byte	0x19
 294 011e 97000000 		.4byte	0x97
 295 0122 03       		.uleb128 0x3
 296 0123 89070000 		.4byte	.LASF23
 297 0127 04       		.byte	0x4
 298 0128 33       		.byte	0x33
 299 0129 19       		.byte	0x19
 300 012a 97000000 		.4byte	0x97
 301 012e 05       		.uleb128 0x5
 302 012f 22010000 		.4byte	0x122
 303 0133 03       		.uleb128 0x3
 304 0134 76060000 		.4byte	.LASF24
 305 0138 05       		.byte	0x5
 306 0139 23       		.byte	0x23
 307 013a 17       		.byte	0x17
 308 013b 3F010000 		.4byte	0x13f
 309 013f 07       		.uleb128 0x7
 310 0140 76060000 		.4byte	.LASF24
 311 0144 44       		.byte	0x44
 312 0145 06       		.byte	0x6
 313 0146 57       		.byte	0x57
 314 0147 08       		.byte	0x8
 315 0148 44020000 		.4byte	0x244
 316 014c 08       		.uleb128 0x8
 317 014d 4B060000 		.4byte	.LASF25
 318 0151 06       		.byte	0x6
 319 0152 58       		.byte	0x58
 320 0153 1A       		.byte	0x1a
 321 0154 68020000 		.4byte	0x268
 322 0158 00       		.byte	0
 323 0159 08       		.uleb128 0x8
 324 015a AF050000 		.4byte	.LASF26
 325 015e 06       		.byte	0x6
 326 015f 5A       		.byte	0x5a
 327 0160 1A       		.byte	0x1a
 328 0161 68020000 		.4byte	0x268
 329 0165 04       		.byte	0x4
 330 0166 08       		.uleb128 0x8
 331 0167 80010000 		.4byte	.LASF27
 332 016b 06       		.byte	0x6
 333 016c 5C       		.byte	0x5c
 334 016d 19       		.byte	0x19
 335 016e F2000000 		.4byte	0xf2
 336 0172 08       		.byte	0x8
 337 0173 08       		.uleb128 0x8
 338 0174 33090000 		.4byte	.LASF28
 339 0178 06       		.byte	0x6
 340 0179 5D       		.byte	0x5d
 341 017a 19       		.byte	0x19
 342 017b 33030000 		.4byte	0x333
ARM GAS  /tmp/ccLlri3c.s 			page 7


 343 017f 0C       		.byte	0xc
 344 0180 08       		.uleb128 0x8
 345 0181 9B020000 		.4byte	.LASF29
 346 0185 06       		.byte	0x6
 347 0186 5F       		.byte	0x5f
 348 0187 1A       		.byte	0x1a
 349 0188 68020000 		.4byte	0x268
 350 018c 10       		.byte	0x10
 351 018d 08       		.uleb128 0x8
 352 018e F5040000 		.4byte	.LASF30
 353 0192 06       		.byte	0x6
 354 0193 60       		.byte	0x60
 355 0194 1A       		.byte	0x1a
 356 0195 68020000 		.4byte	0x268
 357 0199 14       		.byte	0x14
 358 019a 08       		.uleb128 0x8
 359 019b BD080000 		.4byte	.LASF31
 360 019f 06       		.byte	0x6
 361 01a0 67       		.byte	0x67
 362 01a1 1A       		.byte	0x1a
 363 01a2 94050000 		.4byte	0x594
 364 01a6 18       		.byte	0x18
 365 01a7 08       		.uleb128 0x8
 366 01a8 16060000 		.4byte	.LASF32
 367 01ac 06       		.byte	0x6
 368 01ad 72       		.byte	0x72
 369 01ae 19       		.byte	0x19
 370 01af CE000000 		.4byte	0xce
 371 01b3 1C       		.byte	0x1c
 372 01b4 08       		.uleb128 0x8
 373 01b5 6E060000 		.4byte	.LASF33
 374 01b9 06       		.byte	0x6
 375 01ba 76       		.byte	0x76
 376 01bb 19       		.byte	0x19
 377 01bc C2000000 		.4byte	0xc2
 378 01c0 1D       		.byte	0x1d
 379 01c1 08       		.uleb128 0x8
 380 01c2 6D080000 		.4byte	.LASF34
 381 01c6 06       		.byte	0x6
 382 01c7 7B       		.byte	0x7b
 383 01c8 19       		.byte	0x19
 384 01c9 DA000000 		.4byte	0xda
 385 01cd 1E       		.byte	0x1e
 386 01ce 08       		.uleb128 0x8
 387 01cf 1E060000 		.4byte	.LASF35
 388 01d3 06       		.byte	0x6
 389 01d4 81       		.byte	0x81
 390 01d5 19       		.byte	0x19
 391 01d6 E6000000 		.4byte	0xe6
 392 01da 1F       		.byte	0x1f
 393 01db 08       		.uleb128 0x8
 394 01dc CD070000 		.4byte	.LASF36
 395 01e0 06       		.byte	0x6
 396 01e1 88       		.byte	0x88
 397 01e2 19       		.byte	0x19
 398 01e3 2E010000 		.4byte	0x12e
 399 01e7 20       		.byte	0x20
ARM GAS  /tmp/ccLlri3c.s 			page 8


 400 01e8 09       		.uleb128 0x9
 401 01e9 705F7500 		.ascii	"p_u\000"
 402 01ed 06       		.byte	0x6
 403 01ee AD       		.byte	0xad
 404 01ef 19       		.byte	0x19
 405 01f0 5A050000 		.4byte	0x55a
 406 01f4 24       		.byte	0x24
 407 01f5 08       		.uleb128 0x8
 408 01f6 39090000 		.4byte	.LASF37
 409 01fa 06       		.byte	0x6
 410 01fb B2       		.byte	0xb2
 411 01fc 19       		.byte	0x19
 412 01fd 91020000 		.4byte	0x291
 413 0201 28       		.byte	0x28
 414 0202 08       		.uleb128 0x8
 415 0203 00080000 		.4byte	.LASF38
 416 0207 06       		.byte	0x6
 417 0208 B8       		.byte	0xb8
 418 0209 19       		.byte	0x19
 419 020a 6E020000 		.4byte	0x26e
 420 020e 2C       		.byte	0x2c
 421 020f 08       		.uleb128 0x8
 422 0210 0D000000 		.4byte	.LASF39
 423 0214 06       		.byte	0x6
 424 0215 BC       		.byte	0xbc
 425 0216 19       		.byte	0x19
 426 0217 FE000000 		.4byte	0xfe
 427 021b 34       		.byte	0x34
 428 021c 08       		.uleb128 0x8
 429 021d A3060000 		.4byte	.LASF40
 430 0221 06       		.byte	0x6
 431 0222 C2       		.byte	0xc2
 432 0223 19       		.byte	0x19
 433 0224 0A010000 		.4byte	0x10a
 434 0228 38       		.byte	0x38
 435 0229 08       		.uleb128 0x8
 436 022a 02060000 		.4byte	.LASF41
 437 022e 06       		.byte	0x6
 438 022f C9       		.byte	0xc9
 439 0230 1A       		.byte	0x1a
 440 0231 A6050000 		.4byte	0x5a6
 441 0235 3C       		.byte	0x3c
 442 0236 08       		.uleb128 0x8
 443 0237 93070000 		.4byte	.LASF42
 444 023b 06       		.byte	0x6
 445 023c CD       		.byte	0xcd
 446 023d 19       		.byte	0x19
 447 023e F2000000 		.4byte	0xf2
 448 0242 40       		.byte	0x40
 449 0243 00       		.byte	0
 450 0244 0A       		.uleb128 0xa
 451 0245 08       		.byte	0x8
 452 0246 05       		.byte	0x5
 453 0247 5A       		.byte	0x5a
 454 0248 09       		.byte	0x9
 455 0249 68020000 		.4byte	0x268
 456 024d 08       		.uleb128 0x8
ARM GAS  /tmp/ccLlri3c.s 			page 9


 457 024e 4B060000 		.4byte	.LASF25
 458 0252 05       		.byte	0x5
 459 0253 5B       		.byte	0x5b
 460 0254 1A       		.byte	0x1a
 461 0255 68020000 		.4byte	0x268
 462 0259 00       		.byte	0
 463 025a 08       		.uleb128 0x8
 464 025b AF050000 		.4byte	.LASF26
 465 025f 05       		.byte	0x5
 466 0260 5D       		.byte	0x5d
 467 0261 1A       		.byte	0x1a
 468 0262 68020000 		.4byte	0x268
 469 0266 04       		.byte	0x4
 470 0267 00       		.byte	0
 471 0268 0B       		.uleb128 0xb
 472 0269 04       		.byte	0x4
 473 026a 33010000 		.4byte	0x133
 474 026e 03       		.uleb128 0x3
 475 026f 13050000 		.4byte	.LASF43
 476 0273 05       		.byte	0x5
 477 0274 5F       		.byte	0x5f
 478 0275 03       		.byte	0x3
 479 0276 44020000 		.4byte	0x244
 480 027a 0A       		.uleb128 0xa
 481 027b 04       		.byte	0x4
 482 027c 05       		.byte	0x5
 483 027d 64       		.byte	0x64
 484 027e 09       		.byte	0x9
 485 027f 91020000 		.4byte	0x291
 486 0283 08       		.uleb128 0x8
 487 0284 4B060000 		.4byte	.LASF25
 488 0288 05       		.byte	0x5
 489 0289 66       		.byte	0x66
 490 028a 16       		.byte	0x16
 491 028b 68020000 		.4byte	0x268
 492 028f 00       		.byte	0
 493 0290 00       		.byte	0
 494 0291 03       		.uleb128 0x3
 495 0292 36040000 		.4byte	.LASF44
 496 0296 05       		.byte	0x5
 497 0297 69       		.byte	0x69
 498 0298 03       		.byte	0x3
 499 0299 7A020000 		.4byte	0x27a
 500 029d 03       		.uleb128 0x3
 501 029e 6C040000 		.4byte	.LASF45
 502 02a2 07       		.byte	0x7
 503 02a3 9D       		.byte	0x9d
 504 02a4 12       		.byte	0x12
 505 02a5 97000000 		.4byte	0x97
 506 02a9 03       		.uleb128 0x3
 507 02aa 01030000 		.4byte	.LASF46
 508 02ae 07       		.byte	0x7
 509 02af A2       		.byte	0xa2
 510 02b0 0F       		.byte	0xf
 511 02b1 B5020000 		.4byte	0x2b5
 512 02b5 0C       		.uleb128 0xc
 513 02b6 04       		.byte	0x4
ARM GAS  /tmp/ccLlri3c.s 			page 10


 514 02b7 07       		.uleb128 0x7
 515 02b8 F9070000 		.4byte	.LASF47
 516 02bc 24       		.byte	0x24
 517 02bd 07       		.byte	0x7
 518 02be B9       		.byte	0xb9
 519 02bf 08       		.byte	0x8
 520 02c0 33030000 		.4byte	0x333
 521 02c4 09       		.uleb128 0x9
 522 02c5 723400   		.ascii	"r4\000"
 523 02c8 07       		.byte	0x7
 524 02c9 BA       		.byte	0xba
 525 02ca 11       		.byte	0x11
 526 02cb A9020000 		.4byte	0x2a9
 527 02cf 00       		.byte	0
 528 02d0 09       		.uleb128 0x9
 529 02d1 723500   		.ascii	"r5\000"
 530 02d4 07       		.byte	0x7
 531 02d5 BB       		.byte	0xbb
 532 02d6 11       		.byte	0x11
 533 02d7 A9020000 		.4byte	0x2a9
 534 02db 04       		.byte	0x4
 535 02dc 09       		.uleb128 0x9
 536 02dd 723600   		.ascii	"r6\000"
 537 02e0 07       		.byte	0x7
 538 02e1 BC       		.byte	0xbc
 539 02e2 11       		.byte	0x11
 540 02e3 A9020000 		.4byte	0x2a9
 541 02e7 08       		.byte	0x8
 542 02e8 09       		.uleb128 0x9
 543 02e9 723700   		.ascii	"r7\000"
 544 02ec 07       		.byte	0x7
 545 02ed BD       		.byte	0xbd
 546 02ee 11       		.byte	0x11
 547 02ef A9020000 		.4byte	0x2a9
 548 02f3 0C       		.byte	0xc
 549 02f4 09       		.uleb128 0x9
 550 02f5 723800   		.ascii	"r8\000"
 551 02f8 07       		.byte	0x7
 552 02f9 BE       		.byte	0xbe
 553 02fa 11       		.byte	0x11
 554 02fb A9020000 		.4byte	0x2a9
 555 02ff 10       		.byte	0x10
 556 0300 09       		.uleb128 0x9
 557 0301 723900   		.ascii	"r9\000"
 558 0304 07       		.byte	0x7
 559 0305 BF       		.byte	0xbf
 560 0306 11       		.byte	0x11
 561 0307 A9020000 		.4byte	0x2a9
 562 030b 14       		.byte	0x14
 563 030c 09       		.uleb128 0x9
 564 030d 72313000 		.ascii	"r10\000"
 565 0311 07       		.byte	0x7
 566 0312 C0       		.byte	0xc0
 567 0313 11       		.byte	0x11
 568 0314 A9020000 		.4byte	0x2a9
 569 0318 18       		.byte	0x18
 570 0319 09       		.uleb128 0x9
ARM GAS  /tmp/ccLlri3c.s 			page 11


 571 031a 72313100 		.ascii	"r11\000"
 572 031e 07       		.byte	0x7
 573 031f C1       		.byte	0xc1
 574 0320 11       		.byte	0x11
 575 0321 A9020000 		.4byte	0x2a9
 576 0325 1C       		.byte	0x1c
 577 0326 09       		.uleb128 0x9
 578 0327 6C7200   		.ascii	"lr\000"
 579 032a 07       		.byte	0x7
 580 032b C2       		.byte	0xc2
 581 032c 11       		.byte	0x11
 582 032d A9020000 		.4byte	0x2a9
 583 0331 20       		.byte	0x20
 584 0332 00       		.byte	0
 585 0333 07       		.uleb128 0x7
 586 0334 D2030000 		.4byte	.LASF48
 587 0338 04       		.byte	0x4
 588 0339 07       		.byte	0x7
 589 033a CA       		.byte	0xca
 590 033b 08       		.byte	0x8
 591 033c 4E030000 		.4byte	0x34e
 592 0340 09       		.uleb128 0x9
 593 0341 72313300 		.ascii	"r13\000"
 594 0345 07       		.byte	0x7
 595 0346 CB       		.byte	0xcb
 596 0347 12       		.byte	0x12
 597 0348 4E030000 		.4byte	0x34e
 598 034c 00       		.byte	0
 599 034d 00       		.byte	0
 600 034e 0B       		.uleb128 0xb
 601 034f 04       		.byte	0x4
 602 0350 B7020000 		.4byte	0x2b7
 603 0354 03       		.uleb128 0x3
 604 0355 9E070000 		.4byte	.LASF49
 605 0359 08       		.byte	0x8
 606 035a 4E       		.byte	0x4e
 607 035b 10       		.byte	0x10
 608 035c 60030000 		.4byte	0x360
 609 0360 0B       		.uleb128 0xb
 610 0361 04       		.byte	0x4
 611 0362 66030000 		.4byte	0x366
 612 0366 0D       		.uleb128 0xd
 613 0367 71030000 		.4byte	0x371
 614 036b 0E       		.uleb128 0xe
 615 036c B5020000 		.4byte	0x2b5
 616 0370 00       		.byte	0
 617 0371 03       		.uleb128 0x3
 618 0372 D5060000 		.4byte	.LASF50
 619 0376 08       		.byte	0x8
 620 0377 53       		.byte	0x53
 621 0378 1D       		.byte	0x1d
 622 0379 7D030000 		.4byte	0x37d
 623 037d 07       		.uleb128 0x7
 624 037e D5060000 		.4byte	.LASF50
 625 0382 14       		.byte	0x14
 626 0383 08       		.byte	0x8
 627 0384 5A       		.byte	0x5a
ARM GAS  /tmp/ccLlri3c.s 			page 12


 628 0385 08       		.byte	0x8
 629 0386 CC030000 		.4byte	0x3cc
 630 038a 08       		.uleb128 0x8
 631 038b 5D030000 		.4byte	.LASF51
 632 038f 08       		.byte	0x8
 633 0390 5B       		.byte	0x5b
 634 0391 1A       		.byte	0x1a
 635 0392 CC030000 		.4byte	0x3cc
 636 0396 00       		.byte	0
 637 0397 08       		.uleb128 0x8
 638 0398 0A030000 		.4byte	.LASF52
 639 039c 08       		.byte	0x8
 640 039d 5D       		.byte	0x5d
 641 039e 1A       		.byte	0x1a
 642 039f CC030000 		.4byte	0x3cc
 643 03a3 04       		.byte	0x4
 644 03a4 08       		.uleb128 0x8
 645 03a5 A4040000 		.4byte	.LASF53
 646 03a9 08       		.byte	0x8
 647 03aa 5F       		.byte	0x5f
 648 03ab 19       		.byte	0x19
 649 03ac 22010000 		.4byte	0x122
 650 03b0 08       		.byte	0x8
 651 03b1 08       		.uleb128 0x8
 652 03b2 CC040000 		.4byte	.LASF54
 653 03b6 08       		.byte	0x8
 654 03b7 60       		.byte	0x60
 655 03b8 19       		.byte	0x19
 656 03b9 54030000 		.4byte	0x354
 657 03bd 0C       		.byte	0xc
 658 03be 08       		.uleb128 0x8
 659 03bf 29080000 		.4byte	.LASF55
 660 03c3 08       		.byte	0x8
 661 03c4 62       		.byte	0x62
 662 03c5 1A       		.byte	0x1a
 663 03c6 B5020000 		.4byte	0x2b5
 664 03ca 10       		.byte	0x10
 665 03cb 00       		.byte	0
 666 03cc 0B       		.uleb128 0xb
 667 03cd 04       		.byte	0x4
 668 03ce 71030000 		.4byte	0x371
 669 03d2 0A       		.uleb128 0xa
 670 03d3 10       		.byte	0x10
 671 03d4 08       		.byte	0x8
 672 03d5 6C       		.byte	0x6c
 673 03d6 09       		.byte	0x9
 674 03d7 10040000 		.4byte	0x410
 675 03db 08       		.uleb128 0x8
 676 03dc 5D030000 		.4byte	.LASF51
 677 03e0 08       		.byte	0x8
 678 03e1 6D       		.byte	0x6d
 679 03e2 1A       		.byte	0x1a
 680 03e3 CC030000 		.4byte	0x3cc
 681 03e7 00       		.byte	0
 682 03e8 08       		.uleb128 0x8
 683 03e9 0A030000 		.4byte	.LASF52
 684 03ed 08       		.byte	0x8
ARM GAS  /tmp/ccLlri3c.s 			page 13


 685 03ee 6F       		.byte	0x6f
 686 03ef 1A       		.byte	0x1a
 687 03f0 CC030000 		.4byte	0x3cc
 688 03f4 04       		.byte	0x4
 689 03f5 08       		.uleb128 0x8
 690 03f6 A4040000 		.4byte	.LASF53
 691 03fa 08       		.byte	0x8
 692 03fb 71       		.byte	0x71
 693 03fc 19       		.byte	0x19
 694 03fd 22010000 		.4byte	0x122
 695 0401 08       		.byte	0x8
 696 0402 08       		.uleb128 0x8
 697 0403 C4080000 		.4byte	.LASF56
 698 0407 08       		.byte	0x8
 699 0408 72       		.byte	0x72
 700 0409 19       		.byte	0x19
 701 040a 2E010000 		.4byte	0x12e
 702 040e 0C       		.byte	0xc
 703 040f 00       		.byte	0
 704 0410 03       		.uleb128 0x3
 705 0411 F7080000 		.4byte	.LASF57
 706 0415 08       		.byte	0x8
 707 0416 73       		.byte	0x73
 708 0417 03       		.byte	0x3
 709 0418 D2030000 		.4byte	0x3d2
 710 041c 0F       		.uleb128 0xf
 711 041d 0B010000 		.4byte	.LASF65
 712 0421 08       		.byte	0x8
 713 0422 D1       		.byte	0xd1
 714 0423 0F       		.byte	0xf
 715 0424 10040000 		.4byte	0x410
 716 0428 0A       		.uleb128 0xa
 717 0429 1C       		.byte	0x1c
 718 042a 09       		.byte	0x9
 719 042b 57       		.byte	0x57
 720 042c 09       		.byte	0x9
 721 042d 80040000 		.4byte	0x480
 722 0431 08       		.uleb128 0x8
 723 0432 CD060000 		.4byte	.LASF58
 724 0436 09       		.byte	0x9
 725 0437 58       		.byte	0x58
 726 0438 19       		.byte	0x19
 727 0439 6E020000 		.4byte	0x26e
 728 043d 00       		.byte	0
 729 043e 08       		.uleb128 0x8
 730 043f 34060000 		.4byte	.LASF59
 731 0443 09       		.byte	0x9
 732 0444 59       		.byte	0x59
 733 0445 19       		.byte	0x19
 734 0446 F2000000 		.4byte	0xf2
 735 044a 08       		.byte	0x8
 736 044b 08       		.uleb128 0x8
 737 044c 0D050000 		.4byte	.LASF60
 738 0450 09       		.byte	0x9
 739 0451 5B       		.byte	0x5b
 740 0452 19       		.byte	0x19
 741 0453 33030000 		.4byte	0x333
ARM GAS  /tmp/ccLlri3c.s 			page 14


 742 0457 0C       		.byte	0xc
 743 0458 08       		.uleb128 0x8
 744 0459 F4020000 		.4byte	.LASF61
 745 045d 09       		.byte	0x9
 746 045e 5E       		.byte	0x5e
 747 045f 1A       		.byte	0x1a
 748 0460 68020000 		.4byte	0x268
 749 0464 10       		.byte	0x10
 750 0465 08       		.uleb128 0x8
 751 0466 3A050000 		.4byte	.LASF62
 752 046a 09       		.byte	0x9
 753 046b 5F       		.byte	0x5f
 754 046c 1A       		.byte	0x1a
 755 046d 68020000 		.4byte	0x268
 756 0471 14       		.byte	0x14
 757 0472 08       		.uleb128 0x8
 758 0473 30050000 		.4byte	.LASF63
 759 0477 09       		.byte	0x9
 760 0478 62       		.byte	0x62
 761 0479 1A       		.byte	0x1a
 762 047a 68020000 		.4byte	0x268
 763 047e 18       		.byte	0x18
 764 047f 00       		.byte	0
 765 0480 03       		.uleb128 0x3
 766 0481 7B080000 		.4byte	.LASF64
 767 0485 09       		.byte	0x9
 768 0486 64       		.byte	0x64
 769 0487 03       		.byte	0x3
 770 0488 28040000 		.4byte	0x428
 771 048c 0F       		.uleb128 0xf
 772 048d 8E080000 		.4byte	.LASF66
 773 0491 09       		.byte	0x9
 774 0492 68       		.byte	0x68
 775 0493 12       		.byte	0x12
 776 0494 80040000 		.4byte	0x480
 777 0498 07       		.uleb128 0x7
 778 0499 59040000 		.4byte	.LASF67
 779 049d 10       		.byte	0x10
 780 049e 0A       		.byte	0xa
 781 049f 25       		.byte	0x25
 782 04a0 10       		.byte	0x10
 783 04a1 CD040000 		.4byte	0x4cd
 784 04a5 08       		.uleb128 0x8
 785 04a6 FA010000 		.4byte	.LASF68
 786 04aa 0A       		.byte	0xa
 787 04ab 26       		.byte	0x26
 788 04ac 19       		.byte	0x19
 789 04ad 6E020000 		.4byte	0x26e
 790 04b1 00       		.byte	0
 791 04b2 08       		.uleb128 0x8
 792 04b3 18090000 		.4byte	.LASF69
 793 04b7 0A       		.byte	0xa
 794 04b8 28       		.byte	0x28
 795 04b9 1A       		.byte	0x1a
 796 04ba 68020000 		.4byte	0x268
 797 04be 08       		.byte	0x8
 798 04bf 08       		.uleb128 0x8
ARM GAS  /tmp/ccLlri3c.s 			page 15


 799 04c0 82070000 		.4byte	.LASF70
 800 04c4 0A       		.byte	0xa
 801 04c5 2A       		.byte	0x2a
 802 04c6 1A       		.byte	0x1a
 803 04c7 CD040000 		.4byte	0x4cd
 804 04cb 0C       		.byte	0xc
 805 04cc 00       		.byte	0
 806 04cd 0B       		.uleb128 0xb
 807 04ce 04       		.byte	0x4
 808 04cf 98040000 		.4byte	0x498
 809 04d3 03       		.uleb128 0x3
 810 04d4 59040000 		.4byte	.LASF67
 811 04d8 0A       		.byte	0xa
 812 04d9 2C       		.byte	0x2c
 813 04da 03       		.byte	0x3
 814 04db 98040000 		.4byte	0x498
 815 04df 03       		.uleb128 0x3
 816 04e0 A8080000 		.4byte	.LASF71
 817 04e4 0B       		.byte	0xb
 818 04e5 25       		.byte	0x25
 819 04e6 1E       		.byte	0x1e
 820 04e7 EB040000 		.4byte	0x4eb
 821 04eb 07       		.uleb128 0x7
 822 04ec A8080000 		.4byte	.LASF71
 823 04f0 10       		.byte	0x10
 824 04f1 0B       		.byte	0xb
 825 04f2 2A       		.byte	0x2a
 826 04f3 08       		.byte	0x8
 827 04f4 2D050000 		.4byte	0x52d
 828 04f8 08       		.uleb128 0x8
 829 04f9 0C040000 		.4byte	.LASF72
 830 04fd 0B       		.byte	0xb
 831 04fe 2B       		.byte	0x2b
 832 04ff 1A       		.byte	0x1a
 833 0500 2D050000 		.4byte	0x52d
 834 0504 00       		.byte	0
 835 0505 08       		.uleb128 0x8
 836 0506 ED050000 		.4byte	.LASF73
 837 050a 0B       		.byte	0xb
 838 050b 2E       		.byte	0x2e
 839 050c 1A       		.byte	0x1a
 840 050d 68020000 		.4byte	0x268
 841 0511 04       		.byte	0x4
 842 0512 08       		.uleb128 0x8
 843 0513 42050000 		.4byte	.LASF74
 844 0517 0B       		.byte	0xb
 845 0518 30       		.byte	0x30
 846 0519 19       		.byte	0x19
 847 051a 0A010000 		.4byte	0x10a
 848 051e 08       		.byte	0x8
 849 051f 08       		.uleb128 0x8
 850 0520 F9050000 		.4byte	.LASF75
 851 0524 0B       		.byte	0xb
 852 0525 33       		.byte	0x33
 853 0526 19       		.byte	0x19
 854 0527 16010000 		.4byte	0x116
 855 052b 0C       		.byte	0xc
ARM GAS  /tmp/ccLlri3c.s 			page 16


 856 052c 00       		.byte	0
 857 052d 0B       		.uleb128 0xb
 858 052e 04       		.byte	0x4
 859 052f DF040000 		.4byte	0x4df
 860 0533 07       		.uleb128 0x7
 861 0534 39030000 		.4byte	.LASF76
 862 0538 04       		.byte	0x4
 863 0539 0B       		.byte	0xb
 864 053a 3A       		.byte	0x3a
 865 053b 10       		.byte	0x10
 866 053c 4E050000 		.4byte	0x54e
 867 0540 08       		.uleb128 0x8
 868 0541 CF080000 		.4byte	.LASF77
 869 0545 0B       		.byte	0xb
 870 0546 3B       		.byte	0x3b
 871 0547 1A       		.byte	0x1a
 872 0548 2D050000 		.4byte	0x52d
 873 054c 00       		.byte	0
 874 054d 00       		.byte	0
 875 054e 03       		.uleb128 0x3
 876 054f 39030000 		.4byte	.LASF76
 877 0553 0B       		.byte	0xb
 878 0554 3E       		.byte	0x3e
 879 0555 03       		.byte	0x3
 880 0556 33050000 		.4byte	0x533
 881 055a 10       		.uleb128 0x10
 882 055b 04       		.byte	0x4
 883 055c 06       		.byte	0x6
 884 055d 8F       		.byte	0x8f
 885 055e 03       		.byte	0x3
 886 055f 94050000 		.4byte	0x594
 887 0563 11       		.uleb128 0x11
 888 0564 E7000000 		.4byte	.LASF78
 889 0568 06       		.byte	0x6
 890 0569 96       		.byte	0x96
 891 056a 19       		.byte	0x19
 892 056b FE000000 		.4byte	0xfe
 893 056f 11       		.uleb128 0x11
 894 0570 56010000 		.4byte	.LASF79
 895 0574 06       		.byte	0x6
 896 0575 9D       		.byte	0x9d
 897 0576 19       		.byte	0x19
 898 0577 FE000000 		.4byte	0xfe
 899 057b 11       		.uleb128 0x11
 900 057c B6080000 		.4byte	.LASF80
 901 0580 06       		.byte	0x6
 902 0581 A4       		.byte	0xa4
 903 0582 1A       		.byte	0x1a
 904 0583 B5020000 		.4byte	0x2b5
 905 0587 11       		.uleb128 0x11
 906 0588 44060000 		.4byte	.LASF81
 907 058c 06       		.byte	0x6
 908 058d AB       		.byte	0xab
 909 058e 19       		.byte	0x19
 910 058f 0A010000 		.4byte	0x10a
 911 0593 00       		.byte	0
 912 0594 0B       		.uleb128 0xb
ARM GAS  /tmp/ccLlri3c.s 			page 17


 913 0595 04       		.byte	0x4
 914 0596 A1050000 		.4byte	0x5a1
 915 059a 04       		.uleb128 0x4
 916 059b 01       		.byte	0x1
 917 059c 08       		.byte	0x8
 918 059d 53070000 		.4byte	.LASF82
 919 05a1 06       		.uleb128 0x6
 920 05a2 9A050000 		.4byte	0x59a
 921 05a6 0B       		.uleb128 0xb
 922 05a7 04       		.byte	0x4
 923 05a8 D3040000 		.4byte	0x4d3
 924 05ac 0B       		.uleb128 0xb
 925 05ad 04       		.byte	0x4
 926 05ae B2050000 		.4byte	0x5b2
 927 05b2 12       		.uleb128 0x12
 928 05b3 FE000000 		.4byte	0xfe
 929 05b7 C1050000 		.4byte	0x5c1
 930 05bb 0E       		.uleb128 0xe
 931 05bc B5020000 		.4byte	0x2b5
 932 05c0 00       		.byte	0
 933 05c1 0A       		.uleb128 0xa
 934 05c2 16       		.byte	0x16
 935 05c3 0C       		.byte	0xc
 936 05c4 25       		.byte	0x25
 937 05c5 09       		.byte	0x9
 938 05c6 B5060000 		.4byte	0x6b5
 939 05ca 08       		.uleb128 0x8
 940 05cb A9030000 		.4byte	.LASF83
 941 05cf 0C       		.byte	0xc
 942 05d0 26       		.byte	0x26
 943 05d1 0D       		.byte	0xd
 944 05d2 B5060000 		.4byte	0x6b5
 945 05d6 00       		.byte	0
 946 05d7 08       		.uleb128 0x8
 947 05d8 85040000 		.4byte	.LASF84
 948 05dc 0C       		.byte	0xc
 949 05dd 27       		.byte	0x27
 950 05de 0D       		.byte	0xd
 951 05df 6C000000 		.4byte	0x6c
 952 05e3 04       		.byte	0x4
 953 05e4 08       		.uleb128 0x8
 954 05e5 20050000 		.4byte	.LASF85
 955 05e9 0C       		.byte	0xc
 956 05ea 28       		.byte	0x28
 957 05eb 0D       		.byte	0xd
 958 05ec 6C000000 		.4byte	0x6c
 959 05f0 05       		.byte	0x5
 960 05f1 08       		.uleb128 0x8
 961 05f2 E1080000 		.4byte	.LASF86
 962 05f6 0C       		.byte	0xc
 963 05f7 29       		.byte	0x29
 964 05f8 0D       		.byte	0xd
 965 05f9 84000000 		.4byte	0x84
 966 05fd 06       		.byte	0x6
 967 05fe 08       		.uleb128 0x8
 968 05ff 9A050000 		.4byte	.LASF87
 969 0603 0C       		.byte	0xc
ARM GAS  /tmp/ccLlri3c.s 			page 18


 970 0604 2A       		.byte	0x2a
 971 0605 0D       		.byte	0xd
 972 0606 6C000000 		.4byte	0x6c
 973 060a 08       		.byte	0x8
 974 060b 08       		.uleb128 0x8
 975 060c D4040000 		.4byte	.LASF88
 976 0610 0C       		.byte	0xc
 977 0611 2B       		.byte	0x2b
 978 0612 0D       		.byte	0xd
 979 0613 6C000000 		.4byte	0x6c
 980 0617 09       		.byte	0x9
 981 0618 08       		.uleb128 0x8
 982 0619 48010000 		.4byte	.LASF89
 983 061d 0C       		.byte	0xc
 984 061e 2C       		.byte	0x2c
 985 061f 0D       		.byte	0xd
 986 0620 6C000000 		.4byte	0x6c
 987 0624 0A       		.byte	0xa
 988 0625 08       		.uleb128 0x8
 989 0626 C1060000 		.4byte	.LASF90
 990 062a 0C       		.byte	0xc
 991 062b 2D       		.byte	0x2d
 992 062c 0D       		.byte	0xd
 993 062d 6C000000 		.4byte	0x6c
 994 0631 0B       		.byte	0xb
 995 0632 08       		.uleb128 0x8
 996 0633 62080000 		.4byte	.LASF91
 997 0637 0C       		.byte	0xc
 998 0638 2E       		.byte	0x2e
 999 0639 0D       		.byte	0xd
 1000 063a 6C000000 		.4byte	0x6c
 1001 063e 0C       		.byte	0xc
 1002 063f 08       		.uleb128 0x8
 1003 0640 8B060000 		.4byte	.LASF92
 1004 0644 0C       		.byte	0xc
 1005 0645 2F       		.byte	0x2f
 1006 0646 0D       		.byte	0xd
 1007 0647 6C000000 		.4byte	0x6c
 1008 064b 0D       		.byte	0xd
 1009 064c 08       		.uleb128 0x8
 1010 064d 00000000 		.4byte	.LASF93
 1011 0651 0C       		.byte	0xc
 1012 0652 30       		.byte	0x30
 1013 0653 0D       		.byte	0xd
 1014 0654 6C000000 		.4byte	0x6c
 1015 0658 0E       		.byte	0xe
 1016 0659 08       		.uleb128 0x8
 1017 065a E9040000 		.4byte	.LASF94
 1018 065e 0C       		.byte	0xc
 1019 065f 31       		.byte	0x31
 1020 0660 0D       		.byte	0xd
 1021 0661 6C000000 		.4byte	0x6c
 1022 0665 0F       		.byte	0xf
 1023 0666 08       		.uleb128 0x8
 1024 0667 CC010000 		.4byte	.LASF95
 1025 066b 0C       		.byte	0xc
 1026 066c 32       		.byte	0x32
ARM GAS  /tmp/ccLlri3c.s 			page 19


 1027 066d 0D       		.byte	0xd
 1028 066e 6C000000 		.4byte	0x6c
 1029 0672 10       		.byte	0x10
 1030 0673 08       		.uleb128 0x8
 1031 0674 87010000 		.4byte	.LASF96
 1032 0678 0C       		.byte	0xc
 1033 0679 34       		.byte	0x34
 1034 067a 0D       		.byte	0xd
 1035 067b 6C000000 		.4byte	0x6c
 1036 067f 11       		.byte	0x11
 1037 0680 08       		.uleb128 0x8
 1038 0681 E5010000 		.4byte	.LASF97
 1039 0685 0C       		.byte	0xc
 1040 0686 35       		.byte	0x35
 1041 0687 0D       		.byte	0xd
 1042 0688 6C000000 		.4byte	0x6c
 1043 068c 12       		.byte	0x12
 1044 068d 08       		.uleb128 0x8
 1045 068e 8D040000 		.4byte	.LASF98
 1046 0692 0C       		.byte	0xc
 1047 0693 36       		.byte	0x36
 1048 0694 0D       		.byte	0xd
 1049 0695 6C000000 		.4byte	0x6c
 1050 0699 13       		.byte	0x13
 1051 069a 08       		.uleb128 0x8
 1052 069b 5F060000 		.4byte	.LASF99
 1053 069f 0C       		.byte	0xc
 1054 06a0 37       		.byte	0x37
 1055 06a1 0D       		.byte	0xd
 1056 06a2 6C000000 		.4byte	0x6c
 1057 06a6 14       		.byte	0x14
 1058 06a7 08       		.uleb128 0x8
 1059 06a8 28060000 		.4byte	.LASF100
 1060 06ac 0C       		.byte	0xc
 1061 06ad 39       		.byte	0x39
 1062 06ae 0D       		.byte	0xd
 1063 06af 6C000000 		.4byte	0x6c
 1064 06b3 15       		.byte	0x15
 1065 06b4 00       		.byte	0
 1066 06b5 13       		.uleb128 0x13
 1067 06b6 9A050000 		.4byte	0x59a
 1068 06ba C5060000 		.4byte	0x6c5
 1069 06be 14       		.uleb128 0x14
 1070 06bf 38000000 		.4byte	0x38
 1071 06c3 03       		.byte	0x3
 1072 06c4 00       		.byte	0
 1073 06c5 03       		.uleb128 0x3
 1074 06c6 71020000 		.4byte	.LASF101
 1075 06ca 0C       		.byte	0xc
 1076 06cb 3A       		.byte	0x3a
 1077 06cc 03       		.byte	0x3
 1078 06cd C1050000 		.4byte	0x5c1
 1079 06d1 06       		.uleb128 0x6
 1080 06d2 C5060000 		.4byte	0x6c5
 1081 06d6 0F       		.uleb128 0xf
 1082 06d7 9B030000 		.4byte	.LASF102
 1083 06db 0C       		.byte	0xc
ARM GAS  /tmp/ccLlri3c.s 			page 20


 1084 06dc 77       		.byte	0x77
 1085 06dd 1D       		.byte	0x1d
 1086 06de D1060000 		.4byte	0x6d1
 1087 06e2 03       		.uleb128 0x3
 1088 06e3 5F040000 		.4byte	.LASF103
 1089 06e7 0D       		.byte	0xd
 1090 06e8 30       		.byte	0x30
 1091 06e9 1D       		.byte	0x1d
 1092 06ea EE060000 		.4byte	0x6ee
 1093 06ee 07       		.uleb128 0x7
 1094 06ef 5F040000 		.4byte	.LASF103
 1095 06f3 24       		.byte	0x24
 1096 06f4 0D       		.byte	0xd
 1097 06f5 3E       		.byte	0x3e
 1098 06f6 08       		.byte	0x8
 1099 06f7 64070000 		.4byte	0x764
 1100 06fb 08       		.uleb128 0x8
 1101 06fc A8010000 		.4byte	.LASF104
 1102 0700 0D       		.byte	0xd
 1103 0701 3F       		.byte	0x3f
 1104 0702 19       		.byte	0x19
 1105 0703 6E020000 		.4byte	0x26e
 1106 0707 00       		.byte	0
 1107 0708 08       		.uleb128 0x8
 1108 0709 C2040000 		.4byte	.LASF105
 1109 070d 0D       		.byte	0xd
 1110 070e 40       		.byte	0x40
 1111 070f 19       		.byte	0x19
 1112 0710 2C000000 		.4byte	0x2c
 1113 0714 08       		.byte	0x8
 1114 0715 08       		.uleb128 0x8
 1115 0716 5A020000 		.4byte	.LASF106
 1116 071a 0D       		.byte	0xd
 1117 071b 41       		.byte	0x41
 1118 071c 1A       		.byte	0x1a
 1119 071d 87070000 		.4byte	0x787
 1120 0721 0C       		.byte	0xc
 1121 0722 08       		.uleb128 0x8
 1122 0723 2B010000 		.4byte	.LASF107
 1123 0727 0D       		.byte	0xd
 1124 0728 42       		.byte	0x42
 1125 0729 1A       		.byte	0x1a
 1126 072a 87070000 		.4byte	0x787
 1127 072e 10       		.byte	0x10
 1128 072f 08       		.uleb128 0x8
 1129 0730 05050000 		.4byte	.LASF108
 1130 0734 0D       		.byte	0xd
 1131 0735 44       		.byte	0x44
 1132 0736 1A       		.byte	0x1a
 1133 0737 87070000 		.4byte	0x787
 1134 073b 14       		.byte	0x14
 1135 073c 08       		.uleb128 0x8
 1136 073d BE050000 		.4byte	.LASF109
 1137 0741 0D       		.byte	0xd
 1138 0742 45       		.byte	0x45
 1139 0743 1A       		.byte	0x1a
 1140 0744 87070000 		.4byte	0x787
ARM GAS  /tmp/ccLlri3c.s 			page 21


 1141 0748 18       		.byte	0x18
 1142 0749 08       		.uleb128 0x8
 1143 074a 85080000 		.4byte	.LASF110
 1144 074e 0D       		.byte	0xd
 1145 074f 46       		.byte	0x46
 1146 0750 19       		.byte	0x19
 1147 0751 64070000 		.4byte	0x764
 1148 0755 1C       		.byte	0x1c
 1149 0756 08       		.uleb128 0x8
 1150 0757 FE080000 		.4byte	.LASF111
 1151 075b 0D       		.byte	0xd
 1152 075c 47       		.byte	0x47
 1153 075d 1A       		.byte	0x1a
 1154 075e B5020000 		.4byte	0x2b5
 1155 0762 20       		.byte	0x20
 1156 0763 00       		.byte	0
 1157 0764 03       		.uleb128 0x3
 1158 0765 A5050000 		.4byte	.LASF112
 1159 0769 0D       		.byte	0xd
 1160 076a 33       		.byte	0x33
 1161 076b 10       		.byte	0x10
 1162 076c 70070000 		.4byte	0x770
 1163 0770 0B       		.uleb128 0xb
 1164 0771 04       		.byte	0x4
 1165 0772 76070000 		.4byte	0x776
 1166 0776 0D       		.uleb128 0xd
 1167 0777 81070000 		.4byte	0x781
 1168 077b 0E       		.uleb128 0xe
 1169 077c 81070000 		.4byte	0x781
 1170 0780 00       		.byte	0
 1171 0781 0B       		.uleb128 0xb
 1172 0782 04       		.byte	0x4
 1173 0783 E2060000 		.4byte	0x6e2
 1174 0787 0B       		.uleb128 0xb
 1175 0788 04       		.byte	0x4
 1176 0789 6C000000 		.4byte	0x6c
 1177 078d 03       		.uleb128 0x3
 1178 078e 4E040000 		.4byte	.LASF113
 1179 0792 0D       		.byte	0xd
 1180 0793 7B       		.byte	0x7b
 1181 0794 16       		.byte	0x16
 1182 0795 E2060000 		.4byte	0x6e2
 1183 0799 03       		.uleb128 0x3
 1184 079a F4000000 		.4byte	.LASF114
 1185 079e 0D       		.byte	0xd
 1186 079f EE       		.byte	0xee
 1187 07a0 16       		.byte	0x16
 1188 07a1 E2060000 		.4byte	0x6e2
 1189 07a5 12       		.uleb128 0x12
 1190 07a6 2C000000 		.4byte	0x2c
 1191 07aa BE070000 		.4byte	0x7be
 1192 07ae 0E       		.uleb128 0xe
 1193 07af B5020000 		.4byte	0x2b5
 1194 07b3 0E       		.uleb128 0xe
 1195 07b4 BE070000 		.4byte	0x7be
 1196 07b8 0E       		.uleb128 0xe
 1197 07b9 2C000000 		.4byte	0x2c
ARM GAS  /tmp/ccLlri3c.s 			page 22


 1198 07bd 00       		.byte	0
 1199 07be 0B       		.uleb128 0xb
 1200 07bf 04       		.byte	0x4
 1201 07c0 78000000 		.4byte	0x78
 1202 07c4 0B       		.uleb128 0xb
 1203 07c5 04       		.byte	0x4
 1204 07c6 A5070000 		.4byte	0x7a5
 1205 07ca 12       		.uleb128 0x12
 1206 07cb 2C000000 		.4byte	0x2c
 1207 07cf E3070000 		.4byte	0x7e3
 1208 07d3 0E       		.uleb128 0xe
 1209 07d4 B5020000 		.4byte	0x2b5
 1210 07d8 0E       		.uleb128 0xe
 1211 07d9 87070000 		.4byte	0x787
 1212 07dd 0E       		.uleb128 0xe
 1213 07de 2C000000 		.4byte	0x2c
 1214 07e2 00       		.byte	0
 1215 07e3 0B       		.uleb128 0xb
 1216 07e4 04       		.byte	0x4
 1217 07e5 CA070000 		.4byte	0x7ca
 1218 07e9 12       		.uleb128 0x12
 1219 07ea FE000000 		.4byte	0xfe
 1220 07ee FD070000 		.4byte	0x7fd
 1221 07f2 0E       		.uleb128 0xe
 1222 07f3 B5020000 		.4byte	0x2b5
 1223 07f7 0E       		.uleb128 0xe
 1224 07f8 6C000000 		.4byte	0x6c
 1225 07fc 00       		.byte	0
 1226 07fd 0B       		.uleb128 0xb
 1227 07fe 04       		.byte	0x4
 1228 07ff E9070000 		.4byte	0x7e9
 1229 0803 13       		.uleb128 0x13
 1230 0804 9D020000 		.4byte	0x29d
 1231 0808 13080000 		.4byte	0x813
 1232 080c 14       		.uleb128 0x14
 1233 080d 38000000 		.4byte	0x38
 1234 0811 26       		.byte	0x26
 1235 0812 00       		.byte	0
 1236 0813 0F       		.uleb128 0xf
 1237 0814 A3020000 		.4byte	.LASF115
 1238 0818 0E       		.byte	0xe
 1239 0819 82       		.byte	0x82
 1240 081a 08       		.byte	0x8
 1241 081b 03080000 		.4byte	0x803
 1242 081f 07       		.uleb128 0x7
 1243 0820 12010000 		.4byte	.LASF116
 1244 0824 20       		.byte	0x20
 1245 0825 0F       		.byte	0xf
 1246 0826 FD       		.byte	0xfd
 1247 0827 08       		.byte	0x8
 1248 0828 9B080000 		.4byte	0x89b
 1249 082c 08       		.uleb128 0x8
 1250 082d EC020000 		.4byte	.LASF117
 1251 0831 0F       		.byte	0xf
 1252 0832 FE       		.byte	0xfe
 1253 0833 19       		.byte	0x19
 1254 0834 3F000000 		.4byte	0x3f
ARM GAS  /tmp/ccLlri3c.s 			page 23


 1255 0838 00       		.byte	0
 1256 0839 08       		.uleb128 0x8
 1257 083a 74080000 		.4byte	.LASF118
 1258 083e 0F       		.byte	0xf
 1259 083f FF       		.byte	0xff
 1260 0840 19       		.byte	0x19
 1261 0841 3F000000 		.4byte	0x3f
 1262 0845 04       		.byte	0x4
 1263 0846 15       		.uleb128 0x15
 1264 0847 EC080000 		.4byte	.LASF119
 1265 084b 0F       		.byte	0xf
 1266 084c 0001     		.2byte	0x100
 1267 084e 19       		.byte	0x19
 1268 084f 3F000000 		.4byte	0x3f
 1269 0853 08       		.byte	0x8
 1270 0854 15       		.uleb128 0x15
 1271 0855 12030000 		.4byte	.LASF120
 1272 0859 0F       		.byte	0xf
 1273 085a 0101     		.2byte	0x101
 1274 085c 19       		.byte	0x19
 1275 085d 3F000000 		.4byte	0x3f
 1276 0861 0C       		.byte	0xc
 1277 0862 15       		.uleb128 0x15
 1278 0863 6F010000 		.4byte	.LASF121
 1279 0867 0F       		.byte	0xf
 1280 0868 0201     		.2byte	0x102
 1281 086a 19       		.byte	0x19
 1282 086b 3F000000 		.4byte	0x3f
 1283 086f 10       		.byte	0x10
 1284 0870 15       		.uleb128 0x15
 1285 0871 B5040000 		.4byte	.LASF122
 1286 0875 0F       		.byte	0xf
 1287 0876 0301     		.2byte	0x103
 1288 0878 19       		.byte	0x19
 1289 0879 3F000000 		.4byte	0x3f
 1290 087d 14       		.byte	0x14
 1291 087e 15       		.uleb128 0x15
 1292 087f 4A020000 		.4byte	.LASF123
 1293 0883 0F       		.byte	0xf
 1294 0884 0401     		.2byte	0x104
 1295 0886 19       		.byte	0x19
 1296 0887 3F000000 		.4byte	0x3f
 1297 088b 18       		.byte	0x18
 1298 088c 15       		.uleb128 0x15
 1299 088d 4B090000 		.4byte	.LASF124
 1300 0891 0F       		.byte	0xf
 1301 0892 0501     		.2byte	0x105
 1302 0894 19       		.byte	0x19
 1303 0895 3F000000 		.4byte	0x3f
 1304 0899 1C       		.byte	0x1c
 1305 089a 00       		.byte	0
 1306 089b 16       		.uleb128 0x16
 1307 089c 12010000 		.4byte	.LASF116
 1308 08a0 0F       		.byte	0xf
 1309 08a1 0801     		.2byte	0x108
 1310 08a3 1C       		.byte	0x1c
 1311 08a4 1F080000 		.4byte	0x81f
ARM GAS  /tmp/ccLlri3c.s 			page 24


 1312 08a8 12       		.uleb128 0x12
 1313 08a9 FE000000 		.4byte	0xfe
 1314 08ad C1080000 		.4byte	0x8c1
 1315 08b1 0E       		.uleb128 0xe
 1316 08b2 B5020000 		.4byte	0x2b5
 1317 08b6 0E       		.uleb128 0xe
 1318 08b7 6C000000 		.4byte	0x6c
 1319 08bb 0E       		.uleb128 0xe
 1320 08bc 22010000 		.4byte	0x122
 1321 08c0 00       		.byte	0
 1322 08c1 0B       		.uleb128 0xb
 1323 08c2 04       		.byte	0x4
 1324 08c3 A8080000 		.4byte	0x8a8
 1325 08c7 12       		.uleb128 0x12
 1326 08c8 FE000000 		.4byte	0xfe
 1327 08cc DB080000 		.4byte	0x8db
 1328 08d0 0E       		.uleb128 0xe
 1329 08d1 B5020000 		.4byte	0x2b5
 1330 08d5 0E       		.uleb128 0xe
 1331 08d6 22010000 		.4byte	0x122
 1332 08da 00       		.byte	0
 1333 08db 0B       		.uleb128 0xb
 1334 08dc 04       		.byte	0x4
 1335 08dd C7080000 		.4byte	0x8c7
 1336 08e1 12       		.uleb128 0x12
 1337 08e2 2C000000 		.4byte	0x2c
 1338 08e6 FF080000 		.4byte	0x8ff
 1339 08ea 0E       		.uleb128 0xe
 1340 08eb B5020000 		.4byte	0x2b5
 1341 08ef 0E       		.uleb128 0xe
 1342 08f0 BE070000 		.4byte	0x7be
 1343 08f4 0E       		.uleb128 0xe
 1344 08f5 2C000000 		.4byte	0x2c
 1345 08f9 0E       		.uleb128 0xe
 1346 08fa 22010000 		.4byte	0x122
 1347 08fe 00       		.byte	0
 1348 08ff 0B       		.uleb128 0xb
 1349 0900 04       		.byte	0x4
 1350 0901 E1080000 		.4byte	0x8e1
 1351 0905 12       		.uleb128 0x12
 1352 0906 2C000000 		.4byte	0x2c
 1353 090a 23090000 		.4byte	0x923
 1354 090e 0E       		.uleb128 0xe
 1355 090f B5020000 		.4byte	0x2b5
 1356 0913 0E       		.uleb128 0xe
 1357 0914 87070000 		.4byte	0x787
 1358 0918 0E       		.uleb128 0xe
 1359 0919 2C000000 		.4byte	0x2c
 1360 091d 0E       		.uleb128 0xe
 1361 091e 22010000 		.4byte	0x122
 1362 0922 00       		.byte	0
 1363 0923 0B       		.uleb128 0xb
 1364 0924 04       		.byte	0x4
 1365 0925 05090000 		.4byte	0x905
 1366 0929 0A       		.uleb128 0xa
 1367 092a 18       		.byte	0x18
 1368 092b 10       		.byte	0x10
ARM GAS  /tmp/ccLlri3c.s 			page 25


 1369 092c 2A       		.byte	0x2a
 1370 092d 09       		.byte	0x9
 1371 092e 81090000 		.4byte	0x981
 1372 0932 08       		.uleb128 0x8
 1373 0933 A2080000 		.4byte	.LASF125
 1374 0937 10       		.byte	0x10
 1375 0938 2F       		.byte	0x2f
 1376 0939 15       		.byte	0x15
 1377 093a 97000000 		.4byte	0x97
 1378 093e 00       		.byte	0
 1379 093f 08       		.uleb128 0x8
 1380 0940 4A050000 		.4byte	.LASF126
 1381 0944 10       		.byte	0x10
 1382 0945 31       		.byte	0x31
 1383 0946 16       		.byte	0x16
 1384 0947 81090000 		.4byte	0x981
 1385 094b 04       		.byte	0x4
 1386 094c 08       		.uleb128 0x8
 1387 094d F9030000 		.4byte	.LASF127
 1388 0951 10       		.byte	0x10
 1389 0952 32       		.byte	0x32
 1390 0953 16       		.byte	0x16
 1391 0954 81090000 		.4byte	0x981
 1392 0958 08       		.byte	0x8
 1393 0959 08       		.uleb128 0x8
 1394 095a 99040000 		.4byte	.LASF128
 1395 095e 10       		.byte	0x10
 1396 095f 33       		.byte	0x33
 1397 0960 16       		.byte	0x16
 1398 0961 81090000 		.4byte	0x981
 1399 0965 0C       		.byte	0xc
 1400 0966 08       		.uleb128 0x8
 1401 0967 57050000 		.4byte	.LASF129
 1402 096b 10       		.byte	0x10
 1403 096c 34       		.byte	0x34
 1404 096d 16       		.byte	0x16
 1405 096e 81090000 		.4byte	0x981
 1406 0972 10       		.byte	0x10
 1407 0973 08       		.uleb128 0x8
 1408 0974 3B060000 		.4byte	.LASF130
 1409 0978 10       		.byte	0x10
 1410 0979 35       		.byte	0x35
 1411 097a 10       		.byte	0x10
 1412 097b 38000000 		.4byte	0x38
 1413 097f 14       		.byte	0x14
 1414 0980 00       		.byte	0
 1415 0981 0B       		.uleb128 0xb
 1416 0982 04       		.byte	0x4
 1417 0983 A3000000 		.4byte	0xa3
 1418 0987 03       		.uleb128 0x3
 1419 0988 ED030000 		.4byte	.LASF131
 1420 098c 10       		.byte	0x10
 1421 098d 37       		.byte	0x37
 1422 098e 03       		.byte	0x3
 1423 098f 29090000 		.4byte	0x929
 1424 0993 17       		.uleb128 0x17
 1425 0994 00       		.byte	0
ARM GAS  /tmp/ccLlri3c.s 			page 26


 1426 0995 10       		.byte	0x10
 1427 0996 43       		.byte	0x43
 1428 0997 09       		.byte	0x9
 1429 0998 03       		.uleb128 0x3
 1430 0999 0E090000 		.4byte	.LASF132
 1431 099d 10       		.byte	0x10
 1432 099e 45       		.byte	0x45
 1433 099f 03       		.byte	0x3
 1434 09a0 93090000 		.4byte	0x993
 1435 09a4 06       		.uleb128 0x6
 1436 09a5 98090000 		.4byte	0x998
 1437 09a9 03       		.uleb128 0x3
 1438 09aa 1E010000 		.4byte	.LASF133
 1439 09ae 10       		.byte	0x10
 1440 09af 55       		.byte	0x55
 1441 09b0 12       		.byte	0x12
 1442 09b1 97000000 		.4byte	0x97
 1443 09b5 03       		.uleb128 0x3
 1444 09b6 05090000 		.4byte	.LASF134
 1445 09ba 10       		.byte	0x10
 1446 09bb 5A       		.byte	0x5a
 1447 09bc 12       		.byte	0x12
 1448 09bd 97000000 		.4byte	0x97
 1449 09c1 03       		.uleb128 0x3
 1450 09c2 C2070000 		.4byte	.LASF135
 1451 09c6 10       		.byte	0x10
 1452 09c7 62       		.byte	0x62
 1453 09c8 16       		.byte	0x16
 1454 09c9 CD090000 		.4byte	0x9cd
 1455 09cd 0B       		.uleb128 0xb
 1456 09ce 04       		.byte	0x4
 1457 09cf 87090000 		.4byte	0x987
 1458 09d3 0F       		.uleb128 0xf
 1459 09d4 28050000 		.4byte	.LASF136
 1460 09d8 10       		.byte	0x10
 1461 09d9 6D       		.byte	0x6d
 1462 09da 14       		.byte	0x14
 1463 09db 87090000 		.4byte	0x987
 1464 09df 0F       		.uleb128 0xf
 1465 09e0 78010000 		.4byte	.LASF137
 1466 09e4 10       		.byte	0x10
 1467 09e5 6E       		.byte	0x6e
 1468 09e6 14       		.byte	0x14
 1469 09e7 87090000 		.4byte	0x987
 1470 09eb 0F       		.uleb128 0xf
 1471 09ec 20090000 		.4byte	.LASF138
 1472 09f0 10       		.byte	0x10
 1473 09f1 75       		.byte	0x75
 1474 09f2 18       		.byte	0x18
 1475 09f3 A4090000 		.4byte	0x9a4
 1476 09f7 0A       		.uleb128 0xa
 1477 09f8 0C       		.byte	0xc
 1478 09f9 11       		.byte	0x11
 1479 09fa 7E       		.byte	0x7e
 1480 09fb 09       		.byte	0x9
 1481 09fc 280A0000 		.4byte	0xa28
 1482 0a00 08       		.uleb128 0x8
ARM GAS  /tmp/ccLlri3c.s 			page 27


 1483 0a01 50050000 		.4byte	.LASF139
 1484 0a05 11       		.byte	0x11
 1485 0a06 82       		.byte	0x82
 1486 0a07 19       		.byte	0x19
 1487 0a08 C1090000 		.4byte	0x9c1
 1488 0a0c 00       		.byte	0
 1489 0a0d 08       		.uleb128 0x8
 1490 0a0e FC020000 		.4byte	.LASF140
 1491 0a12 11       		.byte	0x11
 1492 0a13 88       		.byte	0x88
 1493 0a14 19       		.byte	0x19
 1494 0a15 A9090000 		.4byte	0x9a9
 1495 0a19 04       		.byte	0x4
 1496 0a1a 08       		.uleb128 0x8
 1497 0a1b B1070000 		.4byte	.LASF141
 1498 0a1f 11       		.byte	0x11
 1499 0a20 8C       		.byte	0x8c
 1500 0a21 19       		.byte	0x19
 1501 0a22 B6000000 		.4byte	0xb6
 1502 0a26 08       		.byte	0x8
 1503 0a27 00       		.byte	0
 1504 0a28 03       		.uleb128 0x3
 1505 0a29 45030000 		.4byte	.LASF142
 1506 0a2d 11       		.byte	0x11
 1507 0a2e 8D       		.byte	0x8d
 1508 0a2f 03       		.byte	0x3
 1509 0a30 F7090000 		.4byte	0x9f7
 1510 0a34 18       		.uleb128 0x18
 1511 0a35 07       		.byte	0x7
 1512 0a36 01       		.byte	0x1
 1513 0a37 7D000000 		.4byte	0x7d
 1514 0a3b 12       		.byte	0x12
 1515 0a3c 54       		.byte	0x54
 1516 0a3d 0E       		.byte	0xe
 1517 0a3e 670A0000 		.4byte	0xa67
 1518 0a42 19       		.uleb128 0x19
 1519 0a43 11020000 		.4byte	.LASF143
 1520 0a47 00       		.byte	0
 1521 0a48 19       		.uleb128 0x19
 1522 0a49 AC040000 		.4byte	.LASF144
 1523 0a4d 01       		.byte	0x1
 1524 0a4e 19       		.uleb128 0x19
 1525 0a4f A7070000 		.4byte	.LASF145
 1526 0a53 02       		.byte	0x2
 1527 0a54 19       		.uleb128 0x19
 1528 0a55 77040000 		.4byte	.LASF146
 1529 0a59 03       		.byte	0x3
 1530 0a5a 19       		.uleb128 0x19
 1531 0a5b 40070000 		.4byte	.LASF147
 1532 0a5f 04       		.byte	0x4
 1533 0a60 19       		.uleb128 0x19
 1534 0a61 98060000 		.4byte	.LASF148
 1535 0a65 05       		.byte	0x5
 1536 0a66 00       		.byte	0
 1537 0a67 03       		.uleb128 0x3
 1538 0a68 8F050000 		.4byte	.LASF149
 1539 0a6c 12       		.byte	0x12
ARM GAS  /tmp/ccLlri3c.s 			page 28


 1540 0a6d 5B       		.byte	0x5b
 1541 0a6e 03       		.byte	0x3
 1542 0a6f 340A0000 		.4byte	0xa34
 1543 0a73 03       		.uleb128 0x3
 1544 0a74 B8070000 		.4byte	.LASF150
 1545 0a78 13       		.byte	0x13
 1546 0a79 38       		.byte	0x38
 1547 0a7a 1A       		.byte	0x1a
 1548 0a7b 7F0A0000 		.4byte	0xa7f
 1549 0a7f 07       		.uleb128 0x7
 1550 0a80 B8070000 		.4byte	.LASF150
 1551 0a84 40       		.byte	0x40
 1552 0a85 13       		.byte	0x13
 1553 0a86 62       		.byte	0x62
 1554 0a87 08       		.byte	0x8
 1555 0a88 360B0000 		.4byte	0xb36
 1556 0a8c 08       		.uleb128 0x8
 1557 0a8d 26020000 		.4byte	.LASF151
 1558 0a91 13       		.byte	0x13
 1559 0a92 64       		.byte	0x64
 1560 0a93 1D       		.byte	0x1d
 1561 0a94 670A0000 		.4byte	0xa67
 1562 0a98 00       		.byte	0
 1563 0a99 08       		.uleb128 0x8
 1564 0a9a 70070000 		.4byte	.LASF152
 1565 0a9e 13       		.byte	0x13
 1566 0a9f 66       		.byte	0x66
 1567 0aa0 1E       		.byte	0x1e
 1568 0aa1 760B0000 		.4byte	0xb76
 1569 0aa5 04       		.byte	0x4
 1570 0aa6 08       		.uleb128 0x8
 1571 0aa7 7B030000 		.4byte	.LASF153
 1572 0aab 13       		.byte	0x13
 1573 0aac 68       		.byte	0x68
 1574 0aad 1D       		.byte	0x1d
 1575 0aae 360B0000 		.4byte	0xb36
 1576 0ab2 08       		.byte	0x8
 1577 0ab3 08       		.uleb128 0x8
 1578 0ab4 A1010000 		.4byte	.LASF154
 1579 0ab8 13       		.byte	0x13
 1580 0ab9 6A       		.byte	0x6a
 1581 0aba 1E       		.byte	0x1e
 1582 0abb 7C0B0000 		.4byte	0xb7c
 1583 0abf 0C       		.byte	0xc
 1584 0ac0 08       		.uleb128 0x8
 1585 0ac1 D1050000 		.4byte	.LASF155
 1586 0ac5 13       		.byte	0x13
 1587 0ac6 6D       		.byte	0x6d
 1588 0ac7 1D       		.byte	0x1d
 1589 0ac8 D3040000 		.4byte	0x4d3
 1590 0acc 10       		.byte	0x10
 1591 0acd 08       		.uleb128 0x8
 1592 0ace 43020000 		.4byte	.LASF156
 1593 0ad2 13       		.byte	0x13
 1594 0ad3 77       		.byte	0x77
 1595 0ad4 1E       		.byte	0x1e
 1596 0ad5 68020000 		.4byte	0x268
ARM GAS  /tmp/ccLlri3c.s 			page 29


 1597 0ad9 20       		.byte	0x20
 1598 0ada 08       		.uleb128 0x8
 1599 0adb 02020000 		.4byte	.LASF157
 1600 0adf 13       		.byte	0x13
 1601 0ae0 7B       		.byte	0x7b
 1602 0ae1 1D       		.byte	0x1d
 1603 0ae2 420B0000 		.4byte	0xb42
 1604 0ae6 24       		.byte	0x24
 1605 0ae7 08       		.uleb128 0x8
 1606 0ae8 65030000 		.4byte	.LASF158
 1607 0aec 13       		.byte	0x13
 1608 0aed 7F       		.byte	0x7f
 1609 0aee 1E       		.byte	0x1e
 1610 0aef BE070000 		.4byte	0x7be
 1611 0af3 28       		.byte	0x28
 1612 0af4 08       		.uleb128 0x8
 1613 0af5 43090000 		.4byte	.LASF159
 1614 0af9 13       		.byte	0x13
 1615 0afa 83       		.byte	0x83
 1616 0afb 1D       		.byte	0x1d
 1617 0afc 2C000000 		.4byte	0x2c
 1618 0b00 2C       		.byte	0x2c
 1619 0b01 08       		.uleb128 0x8
 1620 0b02 50080000 		.4byte	.LASF160
 1621 0b06 13       		.byte	0x13
 1622 0b07 87       		.byte	0x87
 1623 0b08 1D       		.byte	0x1d
 1624 0b09 2C000000 		.4byte	0x2c
 1625 0b0d 30       		.byte	0x30
 1626 0b0e 08       		.uleb128 0x8
 1627 0b0f 69010000 		.4byte	.LASF161
 1628 0b13 13       		.byte	0x13
 1629 0b14 8B       		.byte	0x8b
 1630 0b15 1E       		.byte	0x1e
 1631 0b16 87070000 		.4byte	0x787
 1632 0b1a 34       		.byte	0x34
 1633 0b1b 08       		.uleb128 0x8
 1634 0b1c FD040000 		.4byte	.LASF162
 1635 0b20 13       		.byte	0x13
 1636 0b21 8F       		.byte	0x8f
 1637 0b22 1D       		.byte	0x1d
 1638 0b23 2C000000 		.4byte	0x2c
 1639 0b27 38       		.byte	0x38
 1640 0b28 08       		.uleb128 0x8
 1641 0b29 54020000 		.4byte	.LASF163
 1642 0b2d 13       		.byte	0x13
 1643 0b2e 93       		.byte	0x93
 1644 0b2f 1D       		.byte	0x1d
 1645 0b30 2C000000 		.4byte	0x2c
 1646 0b34 3C       		.byte	0x3c
 1647 0b35 00       		.byte	0
 1648 0b36 03       		.uleb128 0x3
 1649 0b37 C6050000 		.4byte	.LASF164
 1650 0b3b 13       		.byte	0x13
 1651 0b3c 42       		.byte	0x42
 1652 0b3d 12       		.byte	0x12
 1653 0b3e 97000000 		.4byte	0x97
ARM GAS  /tmp/ccLlri3c.s 			page 30


 1654 0b42 03       		.uleb128 0x3
 1655 0b43 1C020000 		.4byte	.LASF165
 1656 0b47 13       		.byte	0x13
 1657 0b48 48       		.byte	0x48
 1658 0b49 12       		.byte	0x12
 1659 0b4a 84000000 		.4byte	0x84
 1660 0b4e 0A       		.uleb128 0xa
 1661 0b4f 04       		.byte	0x4
 1662 0b50 13       		.byte	0x13
 1663 0b51 57       		.byte	0x57
 1664 0b52 09       		.byte	0x9
 1665 0b53 650B0000 		.4byte	0xb65
 1666 0b57 08       		.uleb128 0x8
 1667 0b58 E0040000 		.4byte	.LASF166
 1668 0b5c 13       		.byte	0x13
 1669 0b5d 59       		.byte	0x59
 1670 0b5e 1D       		.byte	0x1d
 1671 0b5f 97000000 		.4byte	0x97
 1672 0b63 00       		.byte	0
 1673 0b64 00       		.byte	0
 1674 0b65 03       		.uleb128 0x3
 1675 0b66 3C080000 		.4byte	.LASF167
 1676 0b6a 13       		.byte	0x13
 1677 0b6b 5B       		.byte	0x5b
 1678 0b6c 03       		.byte	0x3
 1679 0b6d 4E0B0000 		.4byte	0xb4e
 1680 0b71 06       		.uleb128 0x6
 1681 0b72 650B0000 		.4byte	0xb65
 1682 0b76 0B       		.uleb128 0xb
 1683 0b77 04       		.byte	0x4
 1684 0b78 710B0000 		.4byte	0xb71
 1685 0b7c 0B       		.uleb128 0xb
 1686 0b7d 04       		.byte	0x4
 1687 0b7e 9B080000 		.4byte	0x89b
 1688 0b82 0F       		.uleb128 0xf
 1689 0b83 34030000 		.4byte	.LASF168
 1690 0b87 13       		.byte	0x13
 1691 0b88 A6       		.byte	0xa6
 1692 0b89 12       		.byte	0x12
 1693 0b8a 730A0000 		.4byte	0xa73
 1694 0b8e 18       		.uleb128 0x18
 1695 0b8f 07       		.byte	0x7
 1696 0b90 01       		.byte	0x1
 1697 0b91 7D000000 		.4byte	0x7d
 1698 0b95 14       		.byte	0x14
 1699 0b96 5D       		.byte	0x5d
 1700 0b97 0E       		.byte	0xe
 1701 0b98 AF0B0000 		.4byte	0xbaf
 1702 0b9c 19       		.uleb128 0x19
 1703 0b9d AE060000 		.4byte	.LASF169
 1704 0ba1 00       		.byte	0
 1705 0ba2 19       		.uleb128 0x19
 1706 0ba3 F2010000 		.4byte	.LASF170
 1707 0ba7 01       		.byte	0x1
 1708 0ba8 19       		.uleb128 0x19
 1709 0ba9 0B080000 		.4byte	.LASF171
 1710 0bad 02       		.byte	0x2
ARM GAS  /tmp/ccLlri3c.s 			page 31


 1711 0bae 00       		.byte	0
 1712 0baf 03       		.uleb128 0x3
 1713 0bb0 46080000 		.4byte	.LASF172
 1714 0bb4 14       		.byte	0x14
 1715 0bb5 61       		.byte	0x61
 1716 0bb6 03       		.byte	0x3
 1717 0bb7 8E0B0000 		.4byte	0xb8e
 1718 0bbb 03       		.uleb128 0x3
 1719 0bbc 94010000 		.4byte	.LASF173
 1720 0bc0 14       		.byte	0x14
 1721 0bc1 66       		.byte	0x66
 1722 0bc2 1D       		.byte	0x1d
 1723 0bc3 C70B0000 		.4byte	0xbc7
 1724 0bc7 07       		.uleb128 0x7
 1725 0bc8 94010000 		.4byte	.LASF173
 1726 0bcc 74       		.byte	0x74
 1727 0bcd 14       		.byte	0x14
 1728 0bce 80       		.byte	0x80
 1729 0bcf 08       		.byte	0x8
 1730 0bd0 2E0C0000 		.4byte	0xc2e
 1731 0bd4 09       		.uleb128 0x9
 1732 0bd5 766D7400 		.ascii	"vmt\000"
 1733 0bd9 14       		.byte	0x14
 1734 0bda 82       		.byte	0x82
 1735 0bdb 21       		.byte	0x21
 1736 0bdc B50C0000 		.4byte	0xcb5
 1737 0be0 00       		.byte	0
 1738 0be1 08       		.uleb128 0x8
 1739 0be2 CC030000 		.4byte	.LASF174
 1740 0be6 14       		.byte	0x14
 1741 0be7 83       		.byte	0x83
 1742 0be8 03       		.byte	0x3
 1743 0be9 4E050000 		.4byte	0x54e
 1744 0bed 04       		.byte	0x4
 1745 0bee 08       		.uleb128 0x8
 1746 0bef 26020000 		.4byte	.LASF151
 1747 0bf3 14       		.byte	0x14
 1748 0bf4 83       		.byte	0x83
 1749 0bf5 03       		.byte	0x3
 1750 0bf6 AF0B0000 		.4byte	0xbaf
 1751 0bfa 08       		.byte	0x8
 1752 0bfb 08       		.uleb128 0x8
 1753 0bfc 82030000 		.4byte	.LASF175
 1754 0c00 14       		.byte	0x14
 1755 0c01 83       		.byte	0x83
 1756 0c02 03       		.byte	0x3
 1757 0c03 8D070000 		.4byte	0x78d
 1758 0c07 0C       		.byte	0xc
 1759 0c08 08       		.uleb128 0x8
 1760 0c09 05040000 		.4byte	.LASF176
 1761 0c0d 14       		.byte	0x14
 1762 0c0e 83       		.byte	0x83
 1763 0c0f 03       		.byte	0x3
 1764 0c10 99070000 		.4byte	0x799
 1765 0c14 30       		.byte	0x30
 1766 0c15 09       		.uleb128 0x9
 1767 0c16 696200   		.ascii	"ib\000"
ARM GAS  /tmp/ccLlri3c.s 			page 32


 1768 0c19 14       		.byte	0x14
 1769 0c1a 83       		.byte	0x83
 1770 0c1b 03       		.byte	0x3
 1771 0c1c BB0C0000 		.4byte	0xcbb
 1772 0c20 54       		.byte	0x54
 1773 0c21 09       		.uleb128 0x9
 1774 0c22 6F6200   		.ascii	"ob\000"
 1775 0c25 14       		.byte	0x14
 1776 0c26 83       		.byte	0x83
 1777 0c27 03       		.byte	0x3
 1778 0c28 BB0C0000 		.4byte	0xcbb
 1779 0c2c 64       		.byte	0x64
 1780 0c2d 00       		.byte	0
 1781 0c2e 1A       		.uleb128 0x1a
 1782 0c2f 53443100 		.ascii	"SD1\000"
 1783 0c33 17       		.byte	0x17
 1784 0c34 62       		.byte	0x62
 1785 0c35 15       		.byte	0x15
 1786 0c36 BB0B0000 		.4byte	0xbbb
 1787 0c3a 07       		.uleb128 0x7
 1788 0c3b 6B030000 		.4byte	.LASF177
 1789 0c3f 20       		.byte	0x20
 1790 0c40 14       		.byte	0x14
 1791 0c41 75       		.byte	0x75
 1792 0c42 08       		.byte	0x8
 1793 0c43 B00C0000 		.4byte	0xcb0
 1794 0c47 08       		.uleb128 0x8
 1795 0c48 EE000000 		.4byte	.LASF178
 1796 0c4c 14       		.byte	0x14
 1797 0c4d 76       		.byte	0x76
 1798 0c4e 03       		.byte	0x3
 1799 0c4f C4070000 		.4byte	0x7c4
 1800 0c53 00       		.byte	0
 1801 0c54 08       		.uleb128 0x8
 1802 0c55 4E070000 		.4byte	.LASF179
 1803 0c59 14       		.byte	0x14
 1804 0c5a 76       		.byte	0x76
 1805 0c5b 03       		.byte	0x3
 1806 0c5c E3070000 		.4byte	0x7e3
 1807 0c60 04       		.byte	0x4
 1808 0c61 09       		.uleb128 0x9
 1809 0c62 70757400 		.ascii	"put\000"
 1810 0c66 14       		.byte	0x14
 1811 0c67 76       		.byte	0x76
 1812 0c68 03       		.byte	0x3
 1813 0c69 FD070000 		.4byte	0x7fd
 1814 0c6d 08       		.byte	0x8
 1815 0c6e 09       		.uleb128 0x9
 1816 0c6f 67657400 		.ascii	"get\000"
 1817 0c73 14       		.byte	0x14
 1818 0c74 76       		.byte	0x76
 1819 0c75 03       		.byte	0x3
 1820 0c76 AC050000 		.4byte	0x5ac
 1821 0c7a 0C       		.byte	0xc
 1822 0c7b 08       		.uleb128 0x8
 1823 0c7c 9F040000 		.4byte	.LASF180
 1824 0c80 14       		.byte	0x14
ARM GAS  /tmp/ccLlri3c.s 			page 33


 1825 0c81 76       		.byte	0x76
 1826 0c82 03       		.byte	0x3
 1827 0c83 C1080000 		.4byte	0x8c1
 1828 0c87 10       		.byte	0x10
 1829 0c88 08       		.uleb128 0x8
 1830 0c89 A4030000 		.4byte	.LASF181
 1831 0c8d 14       		.byte	0x14
 1832 0c8e 76       		.byte	0x76
 1833 0c8f 03       		.byte	0x3
 1834 0c90 DB080000 		.4byte	0x8db
 1835 0c94 14       		.byte	0x14
 1836 0c95 08       		.uleb128 0x8
 1837 0c96 14040000 		.4byte	.LASF182
 1838 0c9a 14       		.byte	0x14
 1839 0c9b 76       		.byte	0x76
 1840 0c9c 03       		.byte	0x3
 1841 0c9d FF080000 		.4byte	0x8ff
 1842 0ca1 18       		.byte	0x18
 1843 0ca2 08       		.uleb128 0x8
 1844 0ca3 9C080000 		.4byte	.LASF183
 1845 0ca7 14       		.byte	0x14
 1846 0ca8 76       		.byte	0x76
 1847 0ca9 03       		.byte	0x3
 1848 0caa 23090000 		.4byte	0x923
 1849 0cae 1C       		.byte	0x1c
 1850 0caf 00       		.byte	0
 1851 0cb0 06       		.uleb128 0x6
 1852 0cb1 3A0C0000 		.4byte	0xc3a
 1853 0cb5 0B       		.uleb128 0xb
 1854 0cb6 04       		.byte	0x4
 1855 0cb7 B00C0000 		.4byte	0xcb0
 1856 0cbb 13       		.uleb128 0x13
 1857 0cbc 6C000000 		.4byte	0x6c
 1858 0cc0 CB0C0000 		.4byte	0xccb
 1859 0cc4 14       		.uleb128 0x14
 1860 0cc5 38000000 		.4byte	0x38
 1861 0cc9 0F       		.byte	0xf
 1862 0cca 00       		.byte	0
 1863 0ccb 18       		.uleb128 0x18
 1864 0ccc 07       		.byte	0x7
 1865 0ccd 01       		.byte	0x1
 1866 0cce 7D000000 		.4byte	0x7d
 1867 0cd2 15       		.byte	0x15
 1868 0cd3 4E       		.byte	0x4e
 1869 0cd4 0E       		.byte	0xe
 1870 0cd5 F80C0000 		.4byte	0xcf8
 1871 0cd9 19       		.uleb128 0x19
 1872 0cda 1E080000 		.4byte	.LASF184
 1873 0cde 00       		.byte	0
 1874 0cdf 19       		.uleb128 0x19
 1875 0ce0 DC010000 		.4byte	.LASF185
 1876 0ce4 01       		.byte	0x1
 1877 0ce5 19       		.uleb128 0x19
 1878 0ce6 14080000 		.4byte	.LASF186
 1879 0cea 02       		.byte	0x2
 1880 0ceb 19       		.uleb128 0x19
 1881 0cec 00010000 		.4byte	.LASF187
ARM GAS  /tmp/ccLlri3c.s 			page 34


 1882 0cf0 03       		.byte	0x3
 1883 0cf1 19       		.uleb128 0x19
 1884 0cf2 58070000 		.4byte	.LASF188
 1885 0cf6 04       		.byte	0x4
 1886 0cf7 00       		.byte	0
 1887 0cf8 03       		.uleb128 0x3
 1888 0cf9 77070000 		.4byte	.LASF189
 1889 0cfd 15       		.byte	0x15
 1890 0cfe 54       		.byte	0x54
 1891 0cff 03       		.byte	0x3
 1892 0d00 CB0C0000 		.4byte	0xccb
 1893 0d04 03       		.uleb128 0x3
 1894 0d05 5F010000 		.4byte	.LASF190
 1895 0d09 16       		.byte	0x16
 1896 0d0a 35       		.byte	0x35
 1897 0d0b 1A       		.byte	0x1a
 1898 0d0c 100D0000 		.4byte	0xd10
 1899 0d10 07       		.uleb128 0x7
 1900 0d11 5F010000 		.4byte	.LASF190
 1901 0d15 28       		.byte	0x28
 1902 0d16 16       		.byte	0x16
 1903 0d17 7C       		.byte	0x7c
 1904 0d18 08       		.byte	0x8
 1905 0d19 790D0000 		.4byte	0xd79
 1906 0d1d 08       		.uleb128 0x8
 1907 0d1e 26020000 		.4byte	.LASF151
 1908 0d22 16       		.byte	0x16
 1909 0d23 80       		.byte	0x80
 1910 0d24 19       		.byte	0x19
 1911 0d25 F80C0000 		.4byte	0xcf8
 1912 0d29 00       		.byte	0
 1913 0d2a 08       		.uleb128 0x8
 1914 0d2b 70070000 		.4byte	.LASF152
 1915 0d2f 16       		.byte	0x16
 1916 0d30 84       		.byte	0x84
 1917 0d31 1A       		.byte	0x1a
 1918 0d32 2C0E0000 		.4byte	0xe2c
 1919 0d36 04       		.byte	0x4
 1920 0d37 08       		.uleb128 0x8
 1921 0d38 43020000 		.4byte	.LASF156
 1922 0d3c 16       		.byte	0x16
 1923 0d3d 89       		.byte	0x89
 1924 0d3e 1A       		.byte	0x1a
 1925 0d3f 68020000 		.4byte	0x268
 1926 0d43 08       		.byte	0x8
 1927 0d44 08       		.uleb128 0x8
 1928 0d45 D1050000 		.4byte	.LASF155
 1929 0d49 16       		.byte	0x16
 1930 0d4a 90       		.byte	0x90
 1931 0d4b 19       		.byte	0x19
 1932 0d4c D3040000 		.4byte	0x4d3
 1933 0d50 0C       		.byte	0xc
 1934 0d51 08       		.uleb128 0x8
 1935 0d52 69010000 		.4byte	.LASF161
 1936 0d56 16       		.byte	0x16
 1937 0d57 98       		.byte	0x98
 1938 0d58 1A       		.byte	0x1a
ARM GAS  /tmp/ccLlri3c.s 			page 35


 1939 0d59 B5020000 		.4byte	0x2b5
 1940 0d5d 1C       		.byte	0x1c
 1941 0d5e 08       		.uleb128 0x8
 1942 0d5f 65030000 		.4byte	.LASF158
 1943 0d63 16       		.byte	0x16
 1944 0d64 9D       		.byte	0x9d
 1945 0d65 1A       		.byte	0x1a
 1946 0d66 320E0000 		.4byte	0xe32
 1947 0d6a 20       		.byte	0x20
 1948 0d6b 08       		.uleb128 0x8
 1949 0d6c BA020000 		.4byte	.LASF191
 1950 0d70 16       		.byte	0x16
 1951 0d71 A2       		.byte	0xa2
 1952 0d72 17       		.byte	0x17
 1953 0d73 2C000000 		.4byte	0x2c
 1954 0d77 24       		.byte	0x24
 1955 0d78 00       		.byte	0
 1956 0d79 03       		.uleb128 0x3
 1957 0d7a 26030000 		.4byte	.LASF192
 1958 0d7e 16       		.byte	0x16
 1959 0d7f 3D       		.byte	0x3d
 1960 0d80 10       		.byte	0x10
 1961 0d81 850D0000 		.4byte	0xd85
 1962 0d85 0B       		.uleb128 0xb
 1963 0d86 04       		.byte	0x4
 1964 0d87 8B0D0000 		.4byte	0xd8b
 1965 0d8b 0D       		.uleb128 0xd
 1966 0d8c 960D0000 		.4byte	0xd96
 1967 0d90 0E       		.uleb128 0xe
 1968 0d91 960D0000 		.4byte	0xd96
 1969 0d95 00       		.byte	0
 1970 0d96 0B       		.uleb128 0xb
 1971 0d97 04       		.byte	0x4
 1972 0d98 040D0000 		.4byte	0xd04
 1973 0d9c 0A       		.uleb128 0xa
 1974 0d9d 10       		.byte	0x10
 1975 0d9e 16       		.byte	0x16
 1976 0d9f 44       		.byte	0x44
 1977 0da0 09       		.byte	0x9
 1978 0da1 1B0E0000 		.4byte	0xe1b
 1979 0da5 08       		.uleb128 0x8
 1980 0da6 B3020000 		.4byte	.LASF193
 1981 0daa 16       		.byte	0x16
 1982 0dab 48       		.byte	0x48
 1983 0dac 19       		.byte	0x19
 1984 0dad 790D0000 		.4byte	0xd79
 1985 0db1 00       		.byte	0
 1986 0db2 08       		.uleb128 0x8
 1987 0db3 60050000 		.4byte	.LASF194
 1988 0db7 16       		.byte	0x16
 1989 0db8 4F       		.byte	0x4f
 1990 0db9 19       		.byte	0x19
 1991 0dba 6C000000 		.4byte	0x6c
 1992 0dbe 04       		.byte	0x4
 1993 0dbf 08       		.uleb128 0x8
 1994 0dc0 7B050000 		.4byte	.LASF195
 1995 0dc4 16       		.byte	0x16
ARM GAS  /tmp/ccLlri3c.s 			page 36


 1996 0dc5 52       		.byte	0x52
 1997 0dc6 19       		.byte	0x19
 1998 0dc7 6C000000 		.4byte	0x6c
 1999 0dcb 05       		.byte	0x5
 2000 0dcc 08       		.uleb128 0x8
 2001 0dcd B7030000 		.4byte	.LASF196
 2002 0dd1 16       		.byte	0x16
 2003 0dd2 58       		.byte	0x58
 2004 0dd3 19       		.byte	0x19
 2005 0dd4 6C000000 		.4byte	0x6c
 2006 0dd8 06       		.byte	0x6
 2007 0dd9 08       		.uleb128 0x8
 2008 0dda C0020000 		.4byte	.LASF197
 2009 0dde 16       		.byte	0x16
 2010 0ddf 5E       		.byte	0x5e
 2011 0de0 19       		.byte	0x19
 2012 0de1 6C000000 		.4byte	0x6c
 2013 0de5 07       		.byte	0x7
 2014 0de6 08       		.uleb128 0x8
 2015 0de7 D6020000 		.4byte	.LASF198
 2016 0deb 16       		.byte	0x16
 2017 0dec 64       		.byte	0x64
 2018 0ded 19       		.byte	0x19
 2019 0dee 6C000000 		.4byte	0x6c
 2020 0df2 08       		.byte	0x8
 2021 0df3 08       		.uleb128 0x8
 2022 0df4 D4070000 		.4byte	.LASF199
 2023 0df8 16       		.byte	0x16
 2024 0df9 6A       		.byte	0x6a
 2025 0dfa 19       		.byte	0x19
 2026 0dfb 6C000000 		.4byte	0x6c
 2027 0dff 09       		.byte	0x9
 2028 0e00 08       		.uleb128 0x8
 2029 0e01 8F020000 		.4byte	.LASF200
 2030 0e05 16       		.byte	0x16
 2031 0e06 70       		.byte	0x70
 2032 0e07 19       		.byte	0x19
 2033 0e08 6C000000 		.4byte	0x6c
 2034 0e0c 0A       		.byte	0xa
 2035 0e0d 08       		.uleb128 0x8
 2036 0e0e 7D060000 		.4byte	.LASF201
 2037 0e12 16       		.byte	0x16
 2038 0e13 73       		.byte	0x73
 2039 0e14 19       		.byte	0x19
 2040 0e15 97000000 		.4byte	0x97
 2041 0e19 0C       		.byte	0xc
 2042 0e1a 00       		.byte	0
 2043 0e1b 03       		.uleb128 0x3
 2044 0e1c D7080000 		.4byte	.LASF202
 2045 0e20 16       		.byte	0x16
 2046 0e21 75       		.byte	0x75
 2047 0e22 03       		.byte	0x3
 2048 0e23 9C0D0000 		.4byte	0xd9c
 2049 0e27 06       		.uleb128 0x6
 2050 0e28 1B0E0000 		.4byte	0xe1b
 2051 0e2c 0B       		.uleb128 0xb
 2052 0e2d 04       		.byte	0x4
ARM GAS  /tmp/ccLlri3c.s 			page 37


 2053 0e2e 270E0000 		.4byte	0xe27
 2054 0e32 0B       		.uleb128 0xb
 2055 0e33 04       		.byte	0x4
 2056 0e34 380E0000 		.4byte	0xe38
 2057 0e38 1B       		.uleb128 0x1b
 2058 0e39 0F       		.uleb128 0xf
 2059 0e3a 6C020000 		.4byte	.LASF203
 2060 0e3e 16       		.byte	0x16
 2061 0e3f B6       		.byte	0xb6
 2062 0e40 14       		.byte	0x14
 2063 0e41 040D0000 		.4byte	0xd04
 2064 0e45 1C       		.uleb128 0x1c
 2065 0e46 6D050000 		.4byte	.LASF205
 2066 0e4a 01       		.byte	0x1
 2067 0e4b 75       		.byte	0x75
 2068 0e4c 06       		.byte	0x6
 2069 0e4d 00000000 		.4byte	.LFB9
 2070 0e51 18000000 		.4byte	.LFE9-.LFB9
 2071 0e55 01       		.uleb128 0x1
 2072 0e56 9C       		.byte	0x9c
 2073 0e57 950E0000 		.4byte	0xe95
 2074 0e5b 1D       		.uleb128 0x1d
 2075 0e5c 62757300 		.ascii	"bus\000"
 2076 0e60 01       		.byte	0x1
 2077 0e61 75       		.byte	0x75
 2078 0e62 1B       		.byte	0x1b
 2079 0e63 950E0000 		.4byte	0xe95
 2080 0e67 04000000 		.4byte	.LLST3
 2081 0e6b 00000000 		.4byte	.LVUS3
 2082 0e6f 1E       		.uleb128 0x1e
 2083 0e70 4B030000 		.4byte	.LASF204
 2084 0e74 01       		.byte	0x1
 2085 0e75 75       		.byte	0x75
 2086 0e76 29       		.byte	0x29
 2087 0e77 B5090000 		.4byte	0x9b5
 2088 0e7b 2B000000 		.4byte	.LLST4
 2089 0e7f 25000000 		.4byte	.LVUS4
 2090 0e83 1F       		.uleb128 0x1f
 2091 0e84 18000000 		.4byte	.LVL9
 2092 0e88 120F0000 		.4byte	0xf12
 2093 0e8c 20       		.uleb128 0x20
 2094 0e8d 01       		.uleb128 0x1
 2095 0e8e 52       		.byte	0x52
 2096 0e8f 03       		.uleb128 0x3
 2097 0e90 F3       		.byte	0xf3
 2098 0e91 01       		.uleb128 0x1
 2099 0e92 51       		.byte	0x51
 2100 0e93 00       		.byte	0
 2101 0e94 00       		.byte	0
 2102 0e95 0B       		.uleb128 0xb
 2103 0e96 04       		.byte	0x4
 2104 0e97 280A0000 		.4byte	0xa28
 2105 0e9b 1C       		.uleb128 0x1c
 2106 0e9c 56080000 		.4byte	.LASF206
 2107 0ea0 01       		.byte	0x1
 2108 0ea1 5E       		.byte	0x5e
 2109 0ea2 06       		.byte	0x6
ARM GAS  /tmp/ccLlri3c.s 			page 38


 2110 0ea3 00000000 		.4byte	.LFB8
 2111 0ea7 28000000 		.4byte	.LFE8-.LFB8
 2112 0eab 01       		.uleb128 0x1
 2113 0eac 9C       		.byte	0x9c
 2114 0ead E30E0000 		.4byte	0xee3
 2115 0eb1 1D       		.uleb128 0x1d
 2116 0eb2 62757300 		.ascii	"bus\000"
 2117 0eb6 01       		.byte	0x1
 2118 0eb7 5E       		.byte	0x5e
 2119 0eb8 19       		.byte	0x19
 2120 0eb9 950E0000 		.4byte	0xe95
 2121 0ebd 5D000000 		.4byte	.LLST1
 2122 0ec1 57000000 		.4byte	.LVUS1
 2123 0ec5 1E       		.uleb128 0x1e
 2124 0ec6 2C020000 		.4byte	.LASF207
 2125 0eca 01       		.byte	0x1
 2126 0ecb 5E       		.byte	0x5e
 2127 0ecc 2B       		.byte	0x2b
 2128 0ecd A9090000 		.4byte	0x9a9
 2129 0ed1 8D000000 		.4byte	.LLST2
 2130 0ed5 89000000 		.4byte	.LVUS2
 2131 0ed9 21       		.uleb128 0x21
 2132 0eda 28000000 		.4byte	.LVL5
 2133 0ede 1E0F0000 		.4byte	0xf1e
 2134 0ee2 00       		.byte	0
 2135 0ee3 22       		.uleb128 0x22
 2136 0ee4 65070000 		.4byte	.LASF213
 2137 0ee8 01       		.byte	0x1
 2138 0ee9 45       		.byte	0x45
 2139 0eea 0E       		.byte	0xe
 2140 0eeb A9090000 		.4byte	0x9a9
 2141 0eef 00000000 		.4byte	.LFB7
 2142 0ef3 1C000000 		.4byte	.LFE7-.LFB7
 2143 0ef7 01       		.uleb128 0x1
 2144 0ef8 9C       		.byte	0x9c
 2145 0ef9 120F0000 		.4byte	0xf12
 2146 0efd 1D       		.uleb128 0x1d
 2147 0efe 62757300 		.ascii	"bus\000"
 2148 0f02 01       		.byte	0x1
 2149 0f03 45       		.byte	0x45
 2150 0f04 20       		.byte	0x20
 2151 0f05 950E0000 		.4byte	0xe95
 2152 0f09 B2000000 		.4byte	.LLST0
 2153 0f0d AE000000 		.4byte	.LVUS0
 2154 0f11 00       		.byte	0
 2155 0f12 23       		.uleb128 0x23
 2156 0f13 E3070000 		.4byte	.LASF208
 2157 0f17 E3070000 		.4byte	.LASF208
 2158 0f1b 10       		.byte	0x10
 2159 0f1c B6       		.byte	0xb6
 2160 0f1d 08       		.byte	0x8
 2161 0f1e 23       		.uleb128 0x23
 2162 0f1f 23040000 		.4byte	.LASF209
 2163 0f23 23040000 		.4byte	.LASF209
 2164 0f27 10       		.byte	0x10
 2165 0f28 BA       		.byte	0xba
 2166 0f29 08       		.byte	0x8
ARM GAS  /tmp/ccLlri3c.s 			page 39


 2167 0f2a 00       		.byte	0
 2168              		.section	.debug_abbrev,"",%progbits
 2169              	.Ldebug_abbrev0:
 2170 0000 01       		.uleb128 0x1
 2171 0001 11       		.uleb128 0x11
 2172 0002 01       		.byte	0x1
 2173 0003 25       		.uleb128 0x25
 2174 0004 0E       		.uleb128 0xe
 2175 0005 13       		.uleb128 0x13
 2176 0006 0B       		.uleb128 0xb
 2177 0007 03       		.uleb128 0x3
 2178 0008 0E       		.uleb128 0xe
 2179 0009 1B       		.uleb128 0x1b
 2180 000a 0E       		.uleb128 0xe
 2181 000b 55       		.uleb128 0x55
 2182 000c 17       		.uleb128 0x17
 2183 000d 11       		.uleb128 0x11
 2184 000e 01       		.uleb128 0x1
 2185 000f 10       		.uleb128 0x10
 2186 0010 17       		.uleb128 0x17
 2187 0011 00       		.byte	0
 2188 0012 00       		.byte	0
 2189 0013 02       		.uleb128 0x2
 2190 0014 24       		.uleb128 0x24
 2191 0015 00       		.byte	0
 2192 0016 0B       		.uleb128 0xb
 2193 0017 0B       		.uleb128 0xb
 2194 0018 3E       		.uleb128 0x3e
 2195 0019 0B       		.uleb128 0xb
 2196 001a 03       		.uleb128 0x3
 2197 001b 08       		.uleb128 0x8
 2198 001c 00       		.byte	0
 2199 001d 00       		.byte	0
 2200 001e 03       		.uleb128 0x3
 2201 001f 16       		.uleb128 0x16
 2202 0020 00       		.byte	0
 2203 0021 03       		.uleb128 0x3
 2204 0022 0E       		.uleb128 0xe
 2205 0023 3A       		.uleb128 0x3a
 2206 0024 0B       		.uleb128 0xb
 2207 0025 3B       		.uleb128 0x3b
 2208 0026 0B       		.uleb128 0xb
 2209 0027 39       		.uleb128 0x39
 2210 0028 0B       		.uleb128 0xb
 2211 0029 49       		.uleb128 0x49
 2212 002a 13       		.uleb128 0x13
 2213 002b 00       		.byte	0
 2214 002c 00       		.byte	0
 2215 002d 04       		.uleb128 0x4
 2216 002e 24       		.uleb128 0x24
 2217 002f 00       		.byte	0
 2218 0030 0B       		.uleb128 0xb
 2219 0031 0B       		.uleb128 0xb
 2220 0032 3E       		.uleb128 0x3e
 2221 0033 0B       		.uleb128 0xb
 2222 0034 03       		.uleb128 0x3
 2223 0035 0E       		.uleb128 0xe
ARM GAS  /tmp/ccLlri3c.s 			page 40


 2224 0036 00       		.byte	0
 2225 0037 00       		.byte	0
 2226 0038 05       		.uleb128 0x5
 2227 0039 35       		.uleb128 0x35
 2228 003a 00       		.byte	0
 2229 003b 49       		.uleb128 0x49
 2230 003c 13       		.uleb128 0x13
 2231 003d 00       		.byte	0
 2232 003e 00       		.byte	0
 2233 003f 06       		.uleb128 0x6
 2234 0040 26       		.uleb128 0x26
 2235 0041 00       		.byte	0
 2236 0042 49       		.uleb128 0x49
 2237 0043 13       		.uleb128 0x13
 2238 0044 00       		.byte	0
 2239 0045 00       		.byte	0
 2240 0046 07       		.uleb128 0x7
 2241 0047 13       		.uleb128 0x13
 2242 0048 01       		.byte	0x1
 2243 0049 03       		.uleb128 0x3
 2244 004a 0E       		.uleb128 0xe
 2245 004b 0B       		.uleb128 0xb
 2246 004c 0B       		.uleb128 0xb
 2247 004d 3A       		.uleb128 0x3a
 2248 004e 0B       		.uleb128 0xb
 2249 004f 3B       		.uleb128 0x3b
 2250 0050 0B       		.uleb128 0xb
 2251 0051 39       		.uleb128 0x39
 2252 0052 0B       		.uleb128 0xb
 2253 0053 01       		.uleb128 0x1
 2254 0054 13       		.uleb128 0x13
 2255 0055 00       		.byte	0
 2256 0056 00       		.byte	0
 2257 0057 08       		.uleb128 0x8
 2258 0058 0D       		.uleb128 0xd
 2259 0059 00       		.byte	0
 2260 005a 03       		.uleb128 0x3
 2261 005b 0E       		.uleb128 0xe
 2262 005c 3A       		.uleb128 0x3a
 2263 005d 0B       		.uleb128 0xb
 2264 005e 3B       		.uleb128 0x3b
 2265 005f 0B       		.uleb128 0xb
 2266 0060 39       		.uleb128 0x39
 2267 0061 0B       		.uleb128 0xb
 2268 0062 49       		.uleb128 0x49
 2269 0063 13       		.uleb128 0x13
 2270 0064 38       		.uleb128 0x38
 2271 0065 0B       		.uleb128 0xb
 2272 0066 00       		.byte	0
 2273 0067 00       		.byte	0
 2274 0068 09       		.uleb128 0x9
 2275 0069 0D       		.uleb128 0xd
 2276 006a 00       		.byte	0
 2277 006b 03       		.uleb128 0x3
 2278 006c 08       		.uleb128 0x8
 2279 006d 3A       		.uleb128 0x3a
 2280 006e 0B       		.uleb128 0xb
ARM GAS  /tmp/ccLlri3c.s 			page 41


 2281 006f 3B       		.uleb128 0x3b
 2282 0070 0B       		.uleb128 0xb
 2283 0071 39       		.uleb128 0x39
 2284 0072 0B       		.uleb128 0xb
 2285 0073 49       		.uleb128 0x49
 2286 0074 13       		.uleb128 0x13
 2287 0075 38       		.uleb128 0x38
 2288 0076 0B       		.uleb128 0xb
 2289 0077 00       		.byte	0
 2290 0078 00       		.byte	0
 2291 0079 0A       		.uleb128 0xa
 2292 007a 13       		.uleb128 0x13
 2293 007b 01       		.byte	0x1
 2294 007c 0B       		.uleb128 0xb
 2295 007d 0B       		.uleb128 0xb
 2296 007e 3A       		.uleb128 0x3a
 2297 007f 0B       		.uleb128 0xb
 2298 0080 3B       		.uleb128 0x3b
 2299 0081 0B       		.uleb128 0xb
 2300 0082 39       		.uleb128 0x39
 2301 0083 0B       		.uleb128 0xb
 2302 0084 01       		.uleb128 0x1
 2303 0085 13       		.uleb128 0x13
 2304 0086 00       		.byte	0
 2305 0087 00       		.byte	0
 2306 0088 0B       		.uleb128 0xb
 2307 0089 0F       		.uleb128 0xf
 2308 008a 00       		.byte	0
 2309 008b 0B       		.uleb128 0xb
 2310 008c 0B       		.uleb128 0xb
 2311 008d 49       		.uleb128 0x49
 2312 008e 13       		.uleb128 0x13
 2313 008f 00       		.byte	0
 2314 0090 00       		.byte	0
 2315 0091 0C       		.uleb128 0xc
 2316 0092 0F       		.uleb128 0xf
 2317 0093 00       		.byte	0
 2318 0094 0B       		.uleb128 0xb
 2319 0095 0B       		.uleb128 0xb
 2320 0096 00       		.byte	0
 2321 0097 00       		.byte	0
 2322 0098 0D       		.uleb128 0xd
 2323 0099 15       		.uleb128 0x15
 2324 009a 01       		.byte	0x1
 2325 009b 27       		.uleb128 0x27
 2326 009c 19       		.uleb128 0x19
 2327 009d 01       		.uleb128 0x1
 2328 009e 13       		.uleb128 0x13
 2329 009f 00       		.byte	0
 2330 00a0 00       		.byte	0
 2331 00a1 0E       		.uleb128 0xe
 2332 00a2 05       		.uleb128 0x5
 2333 00a3 00       		.byte	0
 2334 00a4 49       		.uleb128 0x49
 2335 00a5 13       		.uleb128 0x13
 2336 00a6 00       		.byte	0
 2337 00a7 00       		.byte	0
ARM GAS  /tmp/ccLlri3c.s 			page 42


 2338 00a8 0F       		.uleb128 0xf
 2339 00a9 34       		.uleb128 0x34
 2340 00aa 00       		.byte	0
 2341 00ab 03       		.uleb128 0x3
 2342 00ac 0E       		.uleb128 0xe
 2343 00ad 3A       		.uleb128 0x3a
 2344 00ae 0B       		.uleb128 0xb
 2345 00af 3B       		.uleb128 0x3b
 2346 00b0 0B       		.uleb128 0xb
 2347 00b1 39       		.uleb128 0x39
 2348 00b2 0B       		.uleb128 0xb
 2349 00b3 49       		.uleb128 0x49
 2350 00b4 13       		.uleb128 0x13
 2351 00b5 3F       		.uleb128 0x3f
 2352 00b6 19       		.uleb128 0x19
 2353 00b7 3C       		.uleb128 0x3c
 2354 00b8 19       		.uleb128 0x19
 2355 00b9 00       		.byte	0
 2356 00ba 00       		.byte	0
 2357 00bb 10       		.uleb128 0x10
 2358 00bc 17       		.uleb128 0x17
 2359 00bd 01       		.byte	0x1
 2360 00be 0B       		.uleb128 0xb
 2361 00bf 0B       		.uleb128 0xb
 2362 00c0 3A       		.uleb128 0x3a
 2363 00c1 0B       		.uleb128 0xb
 2364 00c2 3B       		.uleb128 0x3b
 2365 00c3 0B       		.uleb128 0xb
 2366 00c4 39       		.uleb128 0x39
 2367 00c5 0B       		.uleb128 0xb
 2368 00c6 01       		.uleb128 0x1
 2369 00c7 13       		.uleb128 0x13
 2370 00c8 00       		.byte	0
 2371 00c9 00       		.byte	0
 2372 00ca 11       		.uleb128 0x11
 2373 00cb 0D       		.uleb128 0xd
 2374 00cc 00       		.byte	0
 2375 00cd 03       		.uleb128 0x3
 2376 00ce 0E       		.uleb128 0xe
 2377 00cf 3A       		.uleb128 0x3a
 2378 00d0 0B       		.uleb128 0xb
 2379 00d1 3B       		.uleb128 0x3b
 2380 00d2 0B       		.uleb128 0xb
 2381 00d3 39       		.uleb128 0x39
 2382 00d4 0B       		.uleb128 0xb
 2383 00d5 49       		.uleb128 0x49
 2384 00d6 13       		.uleb128 0x13
 2385 00d7 00       		.byte	0
 2386 00d8 00       		.byte	0
 2387 00d9 12       		.uleb128 0x12
 2388 00da 15       		.uleb128 0x15
 2389 00db 01       		.byte	0x1
 2390 00dc 27       		.uleb128 0x27
 2391 00dd 19       		.uleb128 0x19
 2392 00de 49       		.uleb128 0x49
 2393 00df 13       		.uleb128 0x13
 2394 00e0 01       		.uleb128 0x1
ARM GAS  /tmp/ccLlri3c.s 			page 43


 2395 00e1 13       		.uleb128 0x13
 2396 00e2 00       		.byte	0
 2397 00e3 00       		.byte	0
 2398 00e4 13       		.uleb128 0x13
 2399 00e5 01       		.uleb128 0x1
 2400 00e6 01       		.byte	0x1
 2401 00e7 49       		.uleb128 0x49
 2402 00e8 13       		.uleb128 0x13
 2403 00e9 01       		.uleb128 0x1
 2404 00ea 13       		.uleb128 0x13
 2405 00eb 00       		.byte	0
 2406 00ec 00       		.byte	0
 2407 00ed 14       		.uleb128 0x14
 2408 00ee 21       		.uleb128 0x21
 2409 00ef 00       		.byte	0
 2410 00f0 49       		.uleb128 0x49
 2411 00f1 13       		.uleb128 0x13
 2412 00f2 2F       		.uleb128 0x2f
 2413 00f3 0B       		.uleb128 0xb
 2414 00f4 00       		.byte	0
 2415 00f5 00       		.byte	0
 2416 00f6 15       		.uleb128 0x15
 2417 00f7 0D       		.uleb128 0xd
 2418 00f8 00       		.byte	0
 2419 00f9 03       		.uleb128 0x3
 2420 00fa 0E       		.uleb128 0xe
 2421 00fb 3A       		.uleb128 0x3a
 2422 00fc 0B       		.uleb128 0xb
 2423 00fd 3B       		.uleb128 0x3b
 2424 00fe 05       		.uleb128 0x5
 2425 00ff 39       		.uleb128 0x39
 2426 0100 0B       		.uleb128 0xb
 2427 0101 49       		.uleb128 0x49
 2428 0102 13       		.uleb128 0x13
 2429 0103 38       		.uleb128 0x38
 2430 0104 0B       		.uleb128 0xb
 2431 0105 00       		.byte	0
 2432 0106 00       		.byte	0
 2433 0107 16       		.uleb128 0x16
 2434 0108 16       		.uleb128 0x16
 2435 0109 00       		.byte	0
 2436 010a 03       		.uleb128 0x3
 2437 010b 0E       		.uleb128 0xe
 2438 010c 3A       		.uleb128 0x3a
 2439 010d 0B       		.uleb128 0xb
 2440 010e 3B       		.uleb128 0x3b
 2441 010f 05       		.uleb128 0x5
 2442 0110 39       		.uleb128 0x39
 2443 0111 0B       		.uleb128 0xb
 2444 0112 49       		.uleb128 0x49
 2445 0113 13       		.uleb128 0x13
 2446 0114 00       		.byte	0
 2447 0115 00       		.byte	0
 2448 0116 17       		.uleb128 0x17
 2449 0117 13       		.uleb128 0x13
 2450 0118 00       		.byte	0
 2451 0119 0B       		.uleb128 0xb
ARM GAS  /tmp/ccLlri3c.s 			page 44


 2452 011a 0B       		.uleb128 0xb
 2453 011b 3A       		.uleb128 0x3a
 2454 011c 0B       		.uleb128 0xb
 2455 011d 3B       		.uleb128 0x3b
 2456 011e 0B       		.uleb128 0xb
 2457 011f 39       		.uleb128 0x39
 2458 0120 0B       		.uleb128 0xb
 2459 0121 00       		.byte	0
 2460 0122 00       		.byte	0
 2461 0123 18       		.uleb128 0x18
 2462 0124 04       		.uleb128 0x4
 2463 0125 01       		.byte	0x1
 2464 0126 3E       		.uleb128 0x3e
 2465 0127 0B       		.uleb128 0xb
 2466 0128 0B       		.uleb128 0xb
 2467 0129 0B       		.uleb128 0xb
 2468 012a 49       		.uleb128 0x49
 2469 012b 13       		.uleb128 0x13
 2470 012c 3A       		.uleb128 0x3a
 2471 012d 0B       		.uleb128 0xb
 2472 012e 3B       		.uleb128 0x3b
 2473 012f 0B       		.uleb128 0xb
 2474 0130 39       		.uleb128 0x39
 2475 0131 0B       		.uleb128 0xb
 2476 0132 01       		.uleb128 0x1
 2477 0133 13       		.uleb128 0x13
 2478 0134 00       		.byte	0
 2479 0135 00       		.byte	0
 2480 0136 19       		.uleb128 0x19
 2481 0137 28       		.uleb128 0x28
 2482 0138 00       		.byte	0
 2483 0139 03       		.uleb128 0x3
 2484 013a 0E       		.uleb128 0xe
 2485 013b 1C       		.uleb128 0x1c
 2486 013c 0B       		.uleb128 0xb
 2487 013d 00       		.byte	0
 2488 013e 00       		.byte	0
 2489 013f 1A       		.uleb128 0x1a
 2490 0140 34       		.uleb128 0x34
 2491 0141 00       		.byte	0
 2492 0142 03       		.uleb128 0x3
 2493 0143 08       		.uleb128 0x8
 2494 0144 3A       		.uleb128 0x3a
 2495 0145 0B       		.uleb128 0xb
 2496 0146 3B       		.uleb128 0x3b
 2497 0147 0B       		.uleb128 0xb
 2498 0148 39       		.uleb128 0x39
 2499 0149 0B       		.uleb128 0xb
 2500 014a 49       		.uleb128 0x49
 2501 014b 13       		.uleb128 0x13
 2502 014c 3F       		.uleb128 0x3f
 2503 014d 19       		.uleb128 0x19
 2504 014e 3C       		.uleb128 0x3c
 2505 014f 19       		.uleb128 0x19
 2506 0150 00       		.byte	0
 2507 0151 00       		.byte	0
 2508 0152 1B       		.uleb128 0x1b
ARM GAS  /tmp/ccLlri3c.s 			page 45


 2509 0153 26       		.uleb128 0x26
 2510 0154 00       		.byte	0
 2511 0155 00       		.byte	0
 2512 0156 00       		.byte	0
 2513 0157 1C       		.uleb128 0x1c
 2514 0158 2E       		.uleb128 0x2e
 2515 0159 01       		.byte	0x1
 2516 015a 3F       		.uleb128 0x3f
 2517 015b 19       		.uleb128 0x19
 2518 015c 03       		.uleb128 0x3
 2519 015d 0E       		.uleb128 0xe
 2520 015e 3A       		.uleb128 0x3a
 2521 015f 0B       		.uleb128 0xb
 2522 0160 3B       		.uleb128 0x3b
 2523 0161 0B       		.uleb128 0xb
 2524 0162 39       		.uleb128 0x39
 2525 0163 0B       		.uleb128 0xb
 2526 0164 27       		.uleb128 0x27
 2527 0165 19       		.uleb128 0x19
 2528 0166 11       		.uleb128 0x11
 2529 0167 01       		.uleb128 0x1
 2530 0168 12       		.uleb128 0x12
 2531 0169 06       		.uleb128 0x6
 2532 016a 40       		.uleb128 0x40
 2533 016b 18       		.uleb128 0x18
 2534 016c 9742     		.uleb128 0x2117
 2535 016e 19       		.uleb128 0x19
 2536 016f 01       		.uleb128 0x1
 2537 0170 13       		.uleb128 0x13
 2538 0171 00       		.byte	0
 2539 0172 00       		.byte	0
 2540 0173 1D       		.uleb128 0x1d
 2541 0174 05       		.uleb128 0x5
 2542 0175 00       		.byte	0
 2543 0176 03       		.uleb128 0x3
 2544 0177 08       		.uleb128 0x8
 2545 0178 3A       		.uleb128 0x3a
 2546 0179 0B       		.uleb128 0xb
 2547 017a 3B       		.uleb128 0x3b
 2548 017b 0B       		.uleb128 0xb
 2549 017c 39       		.uleb128 0x39
 2550 017d 0B       		.uleb128 0xb
 2551 017e 49       		.uleb128 0x49
 2552 017f 13       		.uleb128 0x13
 2553 0180 02       		.uleb128 0x2
 2554 0181 17       		.uleb128 0x17
 2555 0182 B742     		.uleb128 0x2137
 2556 0184 17       		.uleb128 0x17
 2557 0185 00       		.byte	0
 2558 0186 00       		.byte	0
 2559 0187 1E       		.uleb128 0x1e
 2560 0188 05       		.uleb128 0x5
 2561 0189 00       		.byte	0
 2562 018a 03       		.uleb128 0x3
 2563 018b 0E       		.uleb128 0xe
 2564 018c 3A       		.uleb128 0x3a
 2565 018d 0B       		.uleb128 0xb
ARM GAS  /tmp/ccLlri3c.s 			page 46


 2566 018e 3B       		.uleb128 0x3b
 2567 018f 0B       		.uleb128 0xb
 2568 0190 39       		.uleb128 0x39
 2569 0191 0B       		.uleb128 0xb
 2570 0192 49       		.uleb128 0x49
 2571 0193 13       		.uleb128 0x13
 2572 0194 02       		.uleb128 0x2
 2573 0195 17       		.uleb128 0x17
 2574 0196 B742     		.uleb128 0x2137
 2575 0198 17       		.uleb128 0x17
 2576 0199 00       		.byte	0
 2577 019a 00       		.byte	0
 2578 019b 1F       		.uleb128 0x1f
 2579 019c 898201   		.uleb128 0x4109
 2580 019f 01       		.byte	0x1
 2581 01a0 11       		.uleb128 0x11
 2582 01a1 01       		.uleb128 0x1
 2583 01a2 9542     		.uleb128 0x2115
 2584 01a4 19       		.uleb128 0x19
 2585 01a5 31       		.uleb128 0x31
 2586 01a6 13       		.uleb128 0x13
 2587 01a7 00       		.byte	0
 2588 01a8 00       		.byte	0
 2589 01a9 20       		.uleb128 0x20
 2590 01aa 8A8201   		.uleb128 0x410a
 2591 01ad 00       		.byte	0
 2592 01ae 02       		.uleb128 0x2
 2593 01af 18       		.uleb128 0x18
 2594 01b0 9142     		.uleb128 0x2111
 2595 01b2 18       		.uleb128 0x18
 2596 01b3 00       		.byte	0
 2597 01b4 00       		.byte	0
 2598 01b5 21       		.uleb128 0x21
 2599 01b6 898201   		.uleb128 0x4109
 2600 01b9 00       		.byte	0
 2601 01ba 11       		.uleb128 0x11
 2602 01bb 01       		.uleb128 0x1
 2603 01bc 9542     		.uleb128 0x2115
 2604 01be 19       		.uleb128 0x19
 2605 01bf 31       		.uleb128 0x31
 2606 01c0 13       		.uleb128 0x13
 2607 01c1 00       		.byte	0
 2608 01c2 00       		.byte	0
 2609 01c3 22       		.uleb128 0x22
 2610 01c4 2E       		.uleb128 0x2e
 2611 01c5 01       		.byte	0x1
 2612 01c6 3F       		.uleb128 0x3f
 2613 01c7 19       		.uleb128 0x19
 2614 01c8 03       		.uleb128 0x3
 2615 01c9 0E       		.uleb128 0xe
 2616 01ca 3A       		.uleb128 0x3a
 2617 01cb 0B       		.uleb128 0xb
 2618 01cc 3B       		.uleb128 0x3b
 2619 01cd 0B       		.uleb128 0xb
 2620 01ce 39       		.uleb128 0x39
 2621 01cf 0B       		.uleb128 0xb
 2622 01d0 27       		.uleb128 0x27
ARM GAS  /tmp/ccLlri3c.s 			page 47


 2623 01d1 19       		.uleb128 0x19
 2624 01d2 49       		.uleb128 0x49
 2625 01d3 13       		.uleb128 0x13
 2626 01d4 11       		.uleb128 0x11
 2627 01d5 01       		.uleb128 0x1
 2628 01d6 12       		.uleb128 0x12
 2629 01d7 06       		.uleb128 0x6
 2630 01d8 40       		.uleb128 0x40
 2631 01d9 18       		.uleb128 0x18
 2632 01da 9742     		.uleb128 0x2117
 2633 01dc 19       		.uleb128 0x19
 2634 01dd 01       		.uleb128 0x1
 2635 01de 13       		.uleb128 0x13
 2636 01df 00       		.byte	0
 2637 01e0 00       		.byte	0
 2638 01e1 23       		.uleb128 0x23
 2639 01e2 2E       		.uleb128 0x2e
 2640 01e3 00       		.byte	0
 2641 01e4 3F       		.uleb128 0x3f
 2642 01e5 19       		.uleb128 0x19
 2643 01e6 3C       		.uleb128 0x3c
 2644 01e7 19       		.uleb128 0x19
 2645 01e8 6E       		.uleb128 0x6e
 2646 01e9 0E       		.uleb128 0xe
 2647 01ea 03       		.uleb128 0x3
 2648 01eb 0E       		.uleb128 0xe
 2649 01ec 3A       		.uleb128 0x3a
 2650 01ed 0B       		.uleb128 0xb
 2651 01ee 3B       		.uleb128 0x3b
 2652 01ef 0B       		.uleb128 0xb
 2653 01f0 39       		.uleb128 0x39
 2654 01f1 0B       		.uleb128 0xb
 2655 01f2 00       		.byte	0
 2656 01f3 00       		.byte	0
 2657 01f4 00       		.byte	0
 2658              		.section	.debug_loc,"",%progbits
 2659              	.Ldebug_loc0:
 2660              	.LVUS3:
 2661 0000 00       		.uleb128 0
 2662 0001 00       		.uleb128 .LVU24
 2663 0002 00       		.uleb128 .LVU24
 2664 0003 00       		.uleb128 0
 2665              	.LLST3:
 2666 0004 00000000 		.4byte	.LVL6
 2667 0008 10000000 		.4byte	.LVL8
 2668 000c 0100     		.2byte	0x1
 2669 000e 50       		.byte	0x50
 2670 000f 10000000 		.4byte	.LVL8
 2671 0013 18000000 		.4byte	.LFE9
 2672 0017 0400     		.2byte	0x4
 2673 0019 F3       		.byte	0xf3
 2674 001a 01       		.uleb128 0x1
 2675 001b 50       		.byte	0x50
 2676 001c 9F       		.byte	0x9f
 2677 001d 00000000 		.4byte	0
 2678 0021 00000000 		.4byte	0
 2679              	.LVUS4:
ARM GAS  /tmp/ccLlri3c.s 			page 48


 2680 0025 00       		.uleb128 0
 2681 0026 00       		.uleb128 .LVU23
 2682 0027 00       		.uleb128 .LVU23
 2683 0028 00       		.uleb128 .LVU25
 2684 0029 00       		.uleb128 .LVU25
 2685 002a 00       		.uleb128 0
 2686              	.LLST4:
 2687 002b 00000000 		.4byte	.LVL6
 2688 002f 0C000000 		.4byte	.LVL7
 2689 0033 0100     		.2byte	0x1
 2690 0035 51       		.byte	0x51
 2691 0036 0C000000 		.4byte	.LVL7
 2692 003a 17000000 		.4byte	.LVL9-1
 2693 003e 0100     		.2byte	0x1
 2694 0040 52       		.byte	0x52
 2695 0041 17000000 		.4byte	.LVL9-1
 2696 0045 18000000 		.4byte	.LFE9
 2697 0049 0400     		.2byte	0x4
 2698 004b F3       		.byte	0xf3
 2699 004c 01       		.uleb128 0x1
 2700 004d 51       		.byte	0x51
 2701 004e 9F       		.byte	0x9f
 2702 004f 00000000 		.4byte	0
 2703 0053 00000000 		.4byte	0
 2704              	.LVUS1:
 2705 0057 00       		.uleb128 0
 2706 0058 00       		.uleb128 .LVU12
 2707 0059 00       		.uleb128 .LVU12
 2708 005a 00       		.uleb128 .LVU16
 2709 005b 00       		.uleb128 .LVU16
 2710 005c 00       		.uleb128 0
 2711              	.LLST1:
 2712 005d 00000000 		.4byte	.LVL2
 2713 0061 0C000000 		.4byte	.LVL3
 2714 0065 0100     		.2byte	0x1
 2715 0067 50       		.byte	0x50
 2716 0068 0C000000 		.4byte	.LVL3
 2717 006c 27000000 		.4byte	.LVL5-1
 2718 0070 0100     		.2byte	0x1
 2719 0072 53       		.byte	0x53
 2720 0073 27000000 		.4byte	.LVL5-1
 2721 0077 28000000 		.4byte	.LFE8
 2722 007b 0400     		.2byte	0x4
 2723 007d F3       		.byte	0xf3
 2724 007e 01       		.uleb128 0x1
 2725 007f 50       		.byte	0x50
 2726 0080 9F       		.byte	0x9f
 2727 0081 00000000 		.4byte	0
 2728 0085 00000000 		.4byte	0
 2729              	.LVUS2:
 2730 0089 00       		.uleb128 0
 2731 008a 00       		.uleb128 .LVU13
 2732 008b 00       		.uleb128 .LVU13
 2733 008c 00       		.uleb128 0
 2734              	.LLST2:
 2735 008d 00000000 		.4byte	.LVL2
 2736 0091 18000000 		.4byte	.LVL4
ARM GAS  /tmp/ccLlri3c.s 			page 49


 2737 0095 0100     		.2byte	0x1
 2738 0097 51       		.byte	0x51
 2739 0098 18000000 		.4byte	.LVL4
 2740 009c 28000000 		.4byte	.LFE8
 2741 00a0 0400     		.2byte	0x4
 2742 00a2 F3       		.byte	0xf3
 2743 00a3 01       		.uleb128 0x1
 2744 00a4 51       		.byte	0x51
 2745 00a5 9F       		.byte	0x9f
 2746 00a6 00000000 		.4byte	0
 2747 00aa 00000000 		.4byte	0
 2748              	.LVUS0:
 2749 00ae 00       		.uleb128 0
 2750 00af 00       		.uleb128 .LVU5
 2751 00b0 00       		.uleb128 .LVU5
 2752 00b1 00       		.uleb128 0
 2753              	.LLST0:
 2754 00b2 00000000 		.4byte	.LVL0
 2755 00b6 14000000 		.4byte	.LVL1
 2756 00ba 0100     		.2byte	0x1
 2757 00bc 50       		.byte	0x50
 2758 00bd 14000000 		.4byte	.LVL1
 2759 00c1 1C000000 		.4byte	.LFE7
 2760 00c5 0400     		.2byte	0x4
 2761 00c7 F3       		.byte	0xf3
 2762 00c8 01       		.uleb128 0x1
 2763 00c9 50       		.byte	0x50
 2764 00ca 9F       		.byte	0x9f
 2765 00cb 00000000 		.4byte	0
 2766 00cf 00000000 		.4byte	0
 2767              		.section	.debug_aranges,"",%progbits
 2768 0000 2C000000 		.4byte	0x2c
 2769 0004 0200     		.2byte	0x2
 2770 0006 00000000 		.4byte	.Ldebug_info0
 2771 000a 04       		.byte	0x4
 2772 000b 00       		.byte	0
 2773 000c 0000     		.2byte	0
 2774 000e 0000     		.2byte	0
 2775 0010 00000000 		.4byte	.LFB7
 2776 0014 1C000000 		.4byte	.LFE7-.LFB7
 2777 0018 00000000 		.4byte	.LFB8
 2778 001c 28000000 		.4byte	.LFE8-.LFB8
 2779 0020 00000000 		.4byte	.LFB9
 2780 0024 18000000 		.4byte	.LFE9-.LFB9
 2781 0028 00000000 		.4byte	0
 2782 002c 00000000 		.4byte	0
 2783              		.section	.debug_ranges,"",%progbits
 2784              	.Ldebug_ranges0:
 2785 0000 00000000 		.4byte	.LFB7
 2786 0004 1C000000 		.4byte	.LFE7
 2787 0008 00000000 		.4byte	.LFB8
 2788 000c 28000000 		.4byte	.LFE8
 2789 0010 00000000 		.4byte	.LFB9
 2790 0014 18000000 		.4byte	.LFE9
 2791 0018 00000000 		.4byte	0
 2792 001c 00000000 		.4byte	0
 2793              		.section	.debug_line,"",%progbits
ARM GAS  /tmp/ccLlri3c.s 			page 50


 2794              	.Ldebug_line0:
 2795 0000 2B020000 		.section	.debug_str,"MS",%progbits,1
 2795      0300B701 
 2795      00000201 
 2795      FB0E0D00 
 2795      01010101 
 2796              	.LASF93:
 2797 0000 63665F6F 		.ascii	"cf_off_older\000"
 2797      66665F6F 
 2797      6C646572 
 2797      00
 2798              	.LASF39:
 2799 000d 705F6D73 		.ascii	"p_msg\000"
 2799      6700
 2800              	.LASF210:
 2801 0013 474E5520 		.ascii	"GNU C17 9.2.1 20191025 (release) [ARM/arm-9-branch "
 2801      43313720 
 2801      392E322E 
 2801      31203230 
 2801      31393130 
 2802 0046 72657669 		.ascii	"revision 277599] -mcpu=arm1176jz-s -mno-thumb-inter"
 2802      73696F6E 
 2802      20323737 
 2802      3539395D 
 2802      202D6D63 
 2803 0079 776F726B 		.ascii	"work -mfloat-abi=soft -marm -march=armv6kz -ggdb -O"
 2803      202D6D66 
 2803      6C6F6174 
 2803      2D616269 
 2803      3D736F66 
 2804 00ac 32202D66 		.ascii	"2 -fomit-frame-pointer -ffunction-sections -fdata-s"
 2804      6F6D6974 
 2804      2D667261 
 2804      6D652D70 
 2804      6F696E74 
 2805 00df 65637469 		.ascii	"ections\000"
 2805      6F6E7300 
 2806              	.LASF78:
 2807 00e7 7264796D 		.ascii	"rdymsg\000"
 2807      736700
 2808              	.LASF178:
 2809 00ee 77726974 		.ascii	"write\000"
 2809      6500
 2810              	.LASF114:
 2811 00f4 4F757470 		.ascii	"OutputQueue\000"
 2811      75745175 
 2811      65756500 
 2812              	.LASF187:
 2813 0100 5350495F 		.ascii	"SPI_ACTIVE\000"
 2813      41435449 
 2813      564500
 2814              	.LASF65:
 2815 010b 76746C69 		.ascii	"vtlist\000"
 2815      737400
 2816              	.LASF116:
 2817 0112 62736364 		.ascii	"bscdevice_t\000"
 2817      65766963 
ARM GAS  /tmp/ccLlri3c.s 			page 51


 2817      655F7400 
 2818              	.LASF133:
 2819 011e 696F706F 		.ascii	"ioportmask_t\000"
 2819      72746D61 
 2819      736B5F74 
 2819      00
 2820              	.LASF107:
 2821 012b 715F746F 		.ascii	"q_top\000"
 2821      7000
 2822              	.LASF13:
 2823 0131 6C6F6E67 		.ascii	"long long unsigned int\000"
 2823      206C6F6E 
 2823      6720756E 
 2823      7369676E 
 2823      65642069 
 2824              	.LASF89:
 2825 0148 63685F74 		.ascii	"ch_threadsize\000"
 2825      68726561 
 2825      6473697A 
 2825      6500
 2826              	.LASF79:
 2827 0156 65786974 		.ascii	"exitcode\000"
 2827      636F6465 
 2827      00
 2828              	.LASF190:
 2829 015f 53504944 		.ascii	"SPIDriver\000"
 2829      72697665 
 2829      7200
 2830              	.LASF161:
 2831 0169 72786275 		.ascii	"rxbuf\000"
 2831      6600
 2832              	.LASF121:
 2833 016f 64617461 		.ascii	"dataFifo\000"
 2833      4669666F 
 2833      00
 2834              	.LASF137:
 2835 0178 494F504F 		.ascii	"IOPORT1\000"
 2835      52543100 
 2836              	.LASF27:
 2837 0180 705F7072 		.ascii	"p_prio\000"
 2837      696F00
 2838              	.LASF96:
 2839 0187 63665F6F 		.ascii	"cf_off_state\000"
 2839      66665F73 
 2839      74617465 
 2839      00
 2840              	.LASF173:
 2841 0194 53657269 		.ascii	"SerialDriver\000"
 2841      616C4472 
 2841      69766572 
 2841      00
 2842              	.LASF154:
 2843 01a1 64657669 		.ascii	"device\000"
 2843      636500
 2844              	.LASF104:
 2845 01a8 715F7761 		.ascii	"q_waiting\000"
 2845      6974696E 
ARM GAS  /tmp/ccLlri3c.s 			page 52


 2845      6700
 2846              	.LASF6:
 2847 01b2 6C6F6E67 		.ascii	"long long int\000"
 2847      206C6F6E 
 2847      6720696E 
 2847      7400
 2848              	.LASF1:
 2849 01c0 7369676E 		.ascii	"signed char\000"
 2849      65642063 
 2849      68617200 
 2850              	.LASF95:
 2851 01cc 63665F6F 		.ascii	"cf_off_stklimit\000"
 2851      66665F73 
 2851      746B6C69 
 2851      6D697400 
 2852              	.LASF185:
 2853 01dc 5350495F 		.ascii	"SPI_STOP\000"
 2853      53544F50 
 2853      00
 2854              	.LASF97:
 2855 01e5 63665F6F 		.ascii	"cf_off_flags\000"
 2855      66665F66 
 2855      6C616773 
 2855      00
 2856              	.LASF170:
 2857 01f2 53445F53 		.ascii	"SD_STOP\000"
 2857      544F5000 
 2858              	.LASF68:
 2859 01fa 6D5F7175 		.ascii	"m_queue\000"
 2859      65756500 
 2860              	.LASF157:
 2861 0202 61646472 		.ascii	"addr\000"
 2861      00
 2862              	.LASF18:
 2863 0207 74736C69 		.ascii	"tslices_t\000"
 2863      6365735F 
 2863      7400
 2864              	.LASF143:
 2865 0211 4932435F 		.ascii	"I2C_UNINIT\000"
 2865      554E494E 
 2865      495400
 2866              	.LASF165:
 2867 021c 69326361 		.ascii	"i2caddr_t\000"
 2867      6464725F 
 2867      7400
 2868              	.LASF151:
 2869 0226 73746174 		.ascii	"state\000"
 2869      6500
 2870              	.LASF207:
 2871 022c 62697473 		.ascii	"bits\000"
 2871      00
 2872              	.LASF5:
 2873 0231 6C6F6E67 		.ascii	"long int\000"
 2873      20696E74 
 2873      00
 2874              	.LASF16:
 2875 023a 74737461 		.ascii	"tstate_t\000"
ARM GAS  /tmp/ccLlri3c.s 			page 53


 2875      74655F74 
 2875      00
 2876              	.LASF156:
 2877 0243 74687265 		.ascii	"thread\000"
 2877      616400
 2878              	.LASF123:
 2879 024a 64617461 		.ascii	"dataDelay\000"
 2879      44656C61 
 2879      7900
 2880              	.LASF163:
 2881 0254 72786964 		.ascii	"rxidx\000"
 2881      7800
 2882              	.LASF106:
 2883 025a 715F6275 		.ascii	"q_buffer\000"
 2883      66666572 
 2883      00
 2884              	.LASF9:
 2885 0263 75696E74 		.ascii	"uint16_t\000"
 2885      31365F74 
 2885      00
 2886              	.LASF203:
 2887 026c 53504930 		.ascii	"SPI0\000"
 2887      00
 2888              	.LASF101:
 2889 0271 63686465 		.ascii	"chdebug_t\000"
 2889      6275675F 
 2889      7400
 2890              	.LASF211:
 2891 027b 2E2E2F6F 		.ascii	"../os/hal/src/pal.c\000"
 2891      732F6861 
 2891      6C2F7372 
 2891      632F7061 
 2891      6C2E6300 
 2892              	.LASF200:
 2893 028f 636C6F63 		.ascii	"clock_phase\000"
 2893      6B5F7068 
 2893      61736500 
 2894              	.LASF29:
 2895 029b 705F6E65 		.ascii	"p_newer\000"
 2895      77657200 
 2896              	.LASF115:
 2897 02a3 5F69646C 		.ascii	"_idle_thread_wa\000"
 2897      655F7468 
 2897      72656164 
 2897      5F776100 
 2898              	.LASF193:
 2899 02b3 656E645F 		.ascii	"end_cb\000"
 2899      636200
 2900              	.LASF191:
 2901 02ba 7478636E 		.ascii	"txcnt\000"
 2901      7400
 2902              	.LASF197:
 2903 02c0 63686970 		.ascii	"chip_select_polarity0\000"
 2903      5F73656C 
 2903      6563745F 
 2903      706F6C61 
 2903      72697479 
ARM GAS  /tmp/ccLlri3c.s 			page 54


 2904              	.LASF198:
 2905 02d6 63686970 		.ascii	"chip_select_polarity1\000"
 2905      5F73656C 
 2905      6563745F 
 2905      706F6C61 
 2905      72697479 
 2906              	.LASF117:
 2907 02ec 636F6E74 		.ascii	"control\000"
 2907      726F6C00 
 2908              	.LASF61:
 2909 02f4 725F6E65 		.ascii	"r_newer\000"
 2909      77657200 
 2910              	.LASF140:
 2911 02fc 6D61736B 		.ascii	"mask\000"
 2911      00
 2912              	.LASF46:
 2913 0301 72656761 		.ascii	"regarm_t\000"
 2913      726D5F74 
 2913      00
 2914              	.LASF52:
 2915 030a 76745F70 		.ascii	"vt_prev\000"
 2915      72657600 
 2916              	.LASF120:
 2917 0312 736C6176 		.ascii	"slaveAddress\000"
 2917      65416464 
 2917      72657373 
 2917      00
 2918              	.LASF3:
 2919 031f 73697A65 		.ascii	"size_t\000"
 2919      5F7400
 2920              	.LASF192:
 2921 0326 73706963 		.ascii	"spicallback_t\000"
 2921      616C6C62 
 2921      61636B5F 
 2921      7400
 2922              	.LASF168:
 2923 0334 49324330 		.ascii	"I2C0\000"
 2923      00
 2924              	.LASF76:
 2925 0339 4576656E 		.ascii	"EventSource\000"
 2925      74536F75 
 2925      72636500 
 2926              	.LASF142:
 2927 0345 494F4275 		.ascii	"IOBus\000"
 2927      7300
 2928              	.LASF204:
 2929 034b 6D6F6465 		.ascii	"mode\000"
 2929      00
 2930              	.LASF0:
 2931 0350 756E7369 		.ascii	"unsigned int\000"
 2931      676E6564 
 2931      20696E74 
 2931      00
 2932              	.LASF51:
 2933 035d 76745F6E 		.ascii	"vt_next\000"
 2933      65787400 
 2934              	.LASF158:
ARM GAS  /tmp/ccLlri3c.s 			page 55


 2935 0365 74786275 		.ascii	"txbuf\000"
 2935      6600
 2936              	.LASF177:
 2937 036b 53657269 		.ascii	"SerialDriverVMT\000"
 2937      616C4472 
 2937      69766572 
 2937      564D5400 
 2938              	.LASF153:
 2939 037b 6572726F 		.ascii	"errors\000"
 2939      727300
 2940              	.LASF175:
 2941 0382 69717565 		.ascii	"iqueue\000"
 2941      756500
 2942              	.LASF12:
 2943 0389 6C6F6E67 		.ascii	"long unsigned int\000"
 2943      20756E73 
 2943      69676E65 
 2943      6420696E 
 2943      7400
 2944              	.LASF102:
 2945 039b 63685F64 		.ascii	"ch_debug\000"
 2945      65627567 
 2945      00
 2946              	.LASF181:
 2947 03a4 67657474 		.ascii	"gett\000"
 2947      00
 2948              	.LASF83:
 2949 03a9 63685F69 		.ascii	"ch_identifier\000"
 2949      64656E74 
 2949      69666965 
 2949      7200
 2950              	.LASF196:
 2951 03b7 63686970 		.ascii	"chip_select_polarity\000"
 2951      5F73656C 
 2951      6563745F 
 2951      706F6C61 
 2951      72697479 
 2952              	.LASF174:
 2953 03cc 6576656E 		.ascii	"event\000"
 2953      7400
 2954              	.LASF48:
 2955 03d2 636F6E74 		.ascii	"context\000"
 2955      65787400 
 2956              	.LASF10:
 2957 03da 73686F72 		.ascii	"short unsigned int\000"
 2957      7420756E 
 2957      7369676E 
 2957      65642069 
 2957      6E7400
 2958              	.LASF131:
 2959 03ed 6770696F 		.ascii	"gpio_port_t\000"
 2959      5F706F72 
 2959      745F7400 
 2960              	.LASF127:
 2961 03f9 6770636C 		.ascii	"gpclr\000"
 2961      7200
 2962              	.LASF20:
ARM GAS  /tmp/ccLlri3c.s 			page 56


 2963 03ff 6D73675F 		.ascii	"msg_t\000"
 2963      7400
 2964              	.LASF176:
 2965 0405 6F717565 		.ascii	"oqueue\000"
 2965      756500
 2966              	.LASF72:
 2967 040c 656C5F6E 		.ascii	"el_next\000"
 2967      65787400 
 2968              	.LASF182:
 2969 0414 77726974 		.ascii	"writet\000"
 2969      657400
 2970              	.LASF15:
 2971 041b 746D6F64 		.ascii	"tmode_t\000"
 2971      655F7400 
 2972              	.LASF209:
 2973 0423 5F70616C 		.ascii	"_pal_lld_writeport\000"
 2973      5F6C6C64 
 2973      5F777269 
 2973      7465706F 
 2973      727400
 2974              	.LASF44:
 2975 0436 54687265 		.ascii	"ThreadsList\000"
 2975      6164734C 
 2975      69737400 
 2976              	.LASF21:
 2977 0442 6576656E 		.ascii	"eventmask_t\000"
 2977      746D6173 
 2977      6B5F7400 
 2978              	.LASF113:
 2979 044e 496E7075 		.ascii	"InputQueue\000"
 2979      74517565 
 2979      756500
 2980              	.LASF67:
 2981 0459 4D757465 		.ascii	"Mutex\000"
 2981      7800
 2982              	.LASF103:
 2983 045f 47656E65 		.ascii	"GenericQueue\000"
 2983      72696351 
 2983      75657565 
 2983      00
 2984              	.LASF45:
 2985 046c 73746B61 		.ascii	"stkalign_t\000"
 2985      6C69676E 
 2985      5F7400
 2986              	.LASF146:
 2987 0477 4932435F 		.ascii	"I2C_ACTIVE_TX\000"
 2987      41435449 
 2987      56455F54 
 2987      5800
 2988              	.LASF84:
 2989 0485 63685F7A 		.ascii	"ch_zero\000"
 2989      65726F00 
 2990              	.LASF98:
 2991 048d 63665F6F 		.ascii	"cf_off_refs\000"
 2991      66665F72 
 2991      65667300 
 2992              	.LASF128:
ARM GAS  /tmp/ccLlri3c.s 			page 57


 2993 0499 67706C65 		.ascii	"gplev\000"
 2993      7600
 2994              	.LASF180:
 2995 049f 70757474 		.ascii	"putt\000"
 2995      00
 2996              	.LASF53:
 2997 04a4 76745F74 		.ascii	"vt_time\000"
 2997      696D6500 
 2998              	.LASF144:
 2999 04ac 4932435F 		.ascii	"I2C_STOP\000"
 2999      53544F50 
 2999      00
 3000              	.LASF122:
 3001 04b5 636C6F63 		.ascii	"clockDivider\000"
 3001      6B446976 
 3001      69646572 
 3001      00
 3002              	.LASF105:
 3003 04c2 715F636F 		.ascii	"q_counter\000"
 3003      756E7465 
 3003      7200
 3004              	.LASF54:
 3005 04cc 76745F66 		.ascii	"vt_func\000"
 3005      756E6300 
 3006              	.LASF88:
 3007 04d4 63685F74 		.ascii	"ch_timesize\000"
 3007      696D6573 
 3007      697A6500 
 3008              	.LASF166:
 3009 04e0 69635F73 		.ascii	"ic_speed\000"
 3009      70656564 
 3009      00
 3010              	.LASF94:
 3011 04e9 63665F6F 		.ascii	"cf_off_name\000"
 3011      66665F6E 
 3011      616D6500 
 3012              	.LASF30:
 3013 04f5 705F6F6C 		.ascii	"p_older\000"
 3013      64657200 
 3014              	.LASF162:
 3015 04fd 72786279 		.ascii	"rxbytes\000"
 3015      74657300 
 3016              	.LASF108:
 3017 0505 715F7772 		.ascii	"q_wrptr\000"
 3017      70747200 
 3018              	.LASF60:
 3019 050d 725F6374 		.ascii	"r_ctx\000"
 3019      7800
 3020              	.LASF43:
 3021 0513 54687265 		.ascii	"ThreadsQueue\000"
 3021      61647351 
 3021      75657565 
 3021      00
 3022              	.LASF85:
 3023 0520 63685F73 		.ascii	"ch_size\000"
 3023      697A6500 
 3024              	.LASF136:
ARM GAS  /tmp/ccLlri3c.s 			page 58


 3025 0528 494F504F 		.ascii	"IOPORT0\000"
 3025      52543000 
 3026              	.LASF63:
 3027 0530 725F6375 		.ascii	"r_current\000"
 3027      7272656E 
 3027      7400
 3028              	.LASF62:
 3029 053a 725F6F6C 		.ascii	"r_older\000"
 3029      64657200 
 3030              	.LASF74:
 3031 0542 656C5F6D 		.ascii	"el_mask\000"
 3031      61736B00 
 3032              	.LASF126:
 3033 054a 67707365 		.ascii	"gpset\000"
 3033      7400
 3034              	.LASF139:
 3035 0550 706F7274 		.ascii	"portid\000"
 3035      696400
 3036              	.LASF129:
 3037 0557 67707075 		.ascii	"gppudclk\000"
 3037      64636C6B 
 3037      00
 3038              	.LASF194:
 3039 0560 6C6F7373 		.ascii	"lossiEnabled\000"
 3039      69456E61 
 3039      626C6564 
 3039      00
 3040              	.LASF205:
 3041 056d 70616C53 		.ascii	"palSetBusMode\000"
 3041      65744275 
 3041      734D6F64 
 3041      6500
 3042              	.LASF195:
 3043 057b 63686970 		.ascii	"chip_select\000"
 3043      5F73656C 
 3043      65637400 
 3044              	.LASF17:
 3045 0587 74726566 		.ascii	"trefs_t\000"
 3045      735F7400 
 3046              	.LASF149:
 3047 058f 69326373 		.ascii	"i2cstate_t\000"
 3047      74617465 
 3047      5F7400
 3048              	.LASF87:
 3049 059a 63685F70 		.ascii	"ch_ptrsize\000"
 3049      74727369 
 3049      7A6500
 3050              	.LASF112:
 3051 05a5 716E6F74 		.ascii	"qnotify_t\000"
 3051      6966795F 
 3051      7400
 3052              	.LASF26:
 3053 05af 705F7072 		.ascii	"p_prev\000"
 3053      657600
 3054              	.LASF19:
 3055 05b6 74707269 		.ascii	"tprio_t\000"
 3055      6F5F7400 
ARM GAS  /tmp/ccLlri3c.s 			page 59


 3056              	.LASF109:
 3057 05be 715F7264 		.ascii	"q_rdptr\000"
 3057      70747200 
 3058              	.LASF164:
 3059 05c6 69326366 		.ascii	"i2cflags_t\000"
 3059      6C616773 
 3059      5F7400
 3060              	.LASF155:
 3061 05d1 6D757465 		.ascii	"mutex\000"
 3061      7800
 3062              	.LASF4:
 3063 05d7 696E7433 		.ascii	"int32_t\000"
 3063      325F7400 
 3064              	.LASF8:
 3065 05df 756E7369 		.ascii	"unsigned char\000"
 3065      676E6564 
 3065      20636861 
 3065      7200
 3066              	.LASF73:
 3067 05ed 656C5F6C 		.ascii	"el_listener\000"
 3067      69737465 
 3067      6E657200 
 3068              	.LASF75:
 3069 05f9 656C5F66 		.ascii	"el_flags\000"
 3069      6C616773 
 3069      00
 3070              	.LASF41:
 3071 0602 705F6D74 		.ascii	"p_mtxlist\000"
 3071      786C6973 
 3071      7400
 3072              	.LASF2:
 3073 060c 73686F72 		.ascii	"short int\000"
 3073      7420696E 
 3073      7400
 3074              	.LASF32:
 3075 0616 705F7374 		.ascii	"p_state\000"
 3075      61746500 
 3076              	.LASF35:
 3077 061e 705F7072 		.ascii	"p_preempt\000"
 3077      65656D70 
 3077      7400
 3078              	.LASF100:
 3079 0628 63665F6F 		.ascii	"cf_off_time\000"
 3079      66665F74 
 3079      696D6500 
 3080              	.LASF59:
 3081 0634 725F7072 		.ascii	"r_prio\000"
 3081      696F00
 3082              	.LASF130:
 3083 063b 70696E5F 		.ascii	"pin_base\000"
 3083      62617365 
 3083      00
 3084              	.LASF81:
 3085 0644 65776D61 		.ascii	"ewmask\000"
 3085      736B00
 3086              	.LASF25:
 3087 064b 705F6E65 		.ascii	"p_next\000"
ARM GAS  /tmp/ccLlri3c.s 			page 60


 3087      787400
 3088              	.LASF14:
 3089 0652 75696E74 		.ascii	"uint_fast8_t\000"
 3089      5F666173 
 3089      74385F74 
 3089      00
 3090              	.LASF99:
 3091 065f 63665F6F 		.ascii	"cf_off_preempt\000"
 3091      66665F70 
 3091      7265656D 
 3091      707400
 3092              	.LASF33:
 3093 066e 705F666C 		.ascii	"p_flags\000"
 3093      61677300 
 3094              	.LASF24:
 3095 0676 54687265 		.ascii	"Thread\000"
 3095      616400
 3096              	.LASF201:
 3097 067d 636C6F63 		.ascii	"clock_divider\000"
 3097      6B5F6469 
 3097      76696465 
 3097      7200
 3098              	.LASF92:
 3099 068b 63665F6F 		.ascii	"cf_off_newer\000"
 3099      66665F6E 
 3099      65776572 
 3099      00
 3100              	.LASF148:
 3101 0698 4932435F 		.ascii	"I2C_LOCKED\000"
 3101      4C4F434B 
 3101      454400
 3102              	.LASF40:
 3103 06a3 705F6570 		.ascii	"p_epending\000"
 3103      656E6469 
 3103      6E6700
 3104              	.LASF169:
 3105 06ae 53445F55 		.ascii	"SD_UNINIT\000"
 3105      4E494E49 
 3105      5400
 3106              	.LASF11:
 3107 06b8 75696E74 		.ascii	"uint32_t\000"
 3107      33325F74 
 3107      00
 3108              	.LASF90:
 3109 06c1 63665F6F 		.ascii	"cf_off_prio\000"
 3109      66665F70 
 3109      72696F00 
 3110              	.LASF58:
 3111 06cd 725F7175 		.ascii	"r_queue\000"
 3111      65756500 
 3112              	.LASF50:
 3113 06d5 56697274 		.ascii	"VirtualTimer\000"
 3113      75616C54 
 3113      696D6572 
 3113      00
 3114              	.LASF212:
 3115 06e2 2F686F6D 		.ascii	"/home/taskman/arduino/embedded-wind-turbine/Data_Co"
ARM GAS  /tmp/ccLlri3c.s 			page 61


 3115      652F7461 
 3115      736B6D61 
 3115      6E2F6172 
 3115      6475696E 
 3116 0715 6C6C6563 		.ascii	"llector/raspberry/compiler/ChibiOS-RPi/led\000"
 3116      746F722F 
 3116      72617370 
 3116      62657272 
 3116      792F636F 
 3117              	.LASF147:
 3118 0740 4932435F 		.ascii	"I2C_ACTIVE_RX\000"
 3118      41435449 
 3118      56455F52 
 3118      5800
 3119              	.LASF179:
 3120 074e 72656164 		.ascii	"read\000"
 3120      00
 3121              	.LASF82:
 3122 0753 63686172 		.ascii	"char\000"
 3122      00
 3123              	.LASF188:
 3124 0758 5350495F 		.ascii	"SPI_COMPLETE\000"
 3124      434F4D50 
 3124      4C455445 
 3124      00
 3125              	.LASF213:
 3126 0765 70616C52 		.ascii	"palReadBus\000"
 3126      65616442 
 3126      757300
 3127              	.LASF152:
 3128 0770 636F6E66 		.ascii	"config\000"
 3128      696700
 3129              	.LASF189:
 3130 0777 73706973 		.ascii	"spistate_t\000"
 3130      74617465 
 3130      5F7400
 3131              	.LASF70:
 3132 0782 6D5F6E65 		.ascii	"m_next\000"
 3132      787400
 3133              	.LASF23:
 3134 0789 73797374 		.ascii	"systime_t\000"
 3134      696D655F 
 3134      7400
 3135              	.LASF42:
 3136 0793 705F7265 		.ascii	"p_realprio\000"
 3136      616C7072 
 3136      696F00
 3137              	.LASF49:
 3138 079e 76746675 		.ascii	"vtfunc_t\000"
 3138      6E635F74 
 3138      00
 3139              	.LASF145:
 3140 07a7 4932435F 		.ascii	"I2C_READY\000"
 3140      52454144 
 3140      5900
 3141              	.LASF141:
 3142 07b1 6F666673 		.ascii	"offset\000"
ARM GAS  /tmp/ccLlri3c.s 			page 62


 3142      657400
 3143              	.LASF150:
 3144 07b8 49324344 		.ascii	"I2CDriver\000"
 3144      72697665 
 3144      7200
 3145              	.LASF135:
 3146 07c2 696F706F 		.ascii	"ioportid_t\000"
 3146      72746964 
 3146      5F7400
 3147              	.LASF36:
 3148 07cd 705F7469 		.ascii	"p_time\000"
 3148      6D6500
 3149              	.LASF199:
 3150 07d4 636C6F63 		.ascii	"clock_polarity\000"
 3150      6B5F706F 
 3150      6C617269 
 3150      747900
 3151              	.LASF208:
 3152 07e3 5F70616C 		.ascii	"_pal_lld_setgroupmode\000"
 3152      5F6C6C64 
 3152      5F736574 
 3152      67726F75 
 3152      706D6F64 
 3153              	.LASF47:
 3154 07f9 696E7463 		.ascii	"intctx\000"
 3154      747800
 3155              	.LASF38:
 3156 0800 705F6D73 		.ascii	"p_msgqueue\000"
 3156      67717565 
 3156      756500
 3157              	.LASF171:
 3158 080b 53445F52 		.ascii	"SD_READY\000"
 3158      45414459 
 3158      00
 3159              	.LASF186:
 3160 0814 5350495F 		.ascii	"SPI_READY\000"
 3160      52454144 
 3160      5900
 3161              	.LASF184:
 3162 081e 5350495F 		.ascii	"SPI_UNINIT\000"
 3162      554E494E 
 3162      495400
 3163              	.LASF55:
 3164 0829 76745F70 		.ascii	"vt_par\000"
 3164      617200
 3165              	.LASF22:
 3166 0830 666C6167 		.ascii	"flagsmask_t\000"
 3166      736D6173 
 3166      6B5F7400 
 3167              	.LASF167:
 3168 083c 49324343 		.ascii	"I2CConfig\000"
 3168      6F6E6669 
 3168      6700
 3169              	.LASF172:
 3170 0846 73647374 		.ascii	"sdstate_t\000"
 3170      6174655F 
 3170      7400
ARM GAS  /tmp/ccLlri3c.s 			page 63


 3171              	.LASF160:
 3172 0850 74786964 		.ascii	"txidx\000"
 3172      7800
 3173              	.LASF206:
 3174 0856 70616C57 		.ascii	"palWriteBus\000"
 3174      72697465 
 3174      42757300 
 3175              	.LASF91:
 3176 0862 63665F6F 		.ascii	"cf_off_ctx\000"
 3176      66665F63 
 3176      747800
 3177              	.LASF34:
 3178 086d 705F7265 		.ascii	"p_refs\000"
 3178      667300
 3179              	.LASF118:
 3180 0874 73746174 		.ascii	"status\000"
 3180      757300
 3181              	.LASF64:
 3182 087b 52656164 		.ascii	"ReadyList\000"
 3182      794C6973 
 3182      7400
 3183              	.LASF110:
 3184 0885 715F6E6F 		.ascii	"q_notify\000"
 3184      74696679 
 3184      00
 3185              	.LASF66:
 3186 088e 726C6973 		.ascii	"rlist\000"
 3186      7400
 3187              	.LASF7:
 3188 0894 75696E74 		.ascii	"uint8_t\000"
 3188      385F7400 
 3189              	.LASF183:
 3190 089c 72656164 		.ascii	"readt\000"
 3190      7400
 3191              	.LASF125:
 3192 08a2 6C617463 		.ascii	"latch\000"
 3192      6800
 3193              	.LASF71:
 3194 08a8 4576656E 		.ascii	"EventListener\000"
 3194      744C6973 
 3194      74656E65 
 3194      7200
 3195              	.LASF80:
 3196 08b6 77746F62 		.ascii	"wtobjp\000"
 3196      6A7000
 3197              	.LASF31:
 3198 08bd 705F6E61 		.ascii	"p_name\000"
 3198      6D6500
 3199              	.LASF56:
 3200 08c4 76745F73 		.ascii	"vt_systime\000"
 3200      79737469 
 3200      6D6500
 3201              	.LASF77:
 3202 08cf 65735F6E 		.ascii	"es_next\000"
 3202      65787400 
 3203              	.LASF202:
 3204 08d7 53504943 		.ascii	"SPIConfig\000"
ARM GAS  /tmp/ccLlri3c.s 			page 64


 3204      6F6E6669 
 3204      6700
 3205              	.LASF86:
 3206 08e1 63685F76 		.ascii	"ch_version\000"
 3206      65727369 
 3206      6F6E00
 3207              	.LASF119:
 3208 08ec 64617461 		.ascii	"dataLength\000"
 3208      4C656E67 
 3208      746800
 3209              	.LASF57:
 3210 08f7 56544C69 		.ascii	"VTList\000"
 3210      737400
 3211              	.LASF111:
 3212 08fe 715F6C69 		.ascii	"q_link\000"
 3212      6E6B00
 3213              	.LASF134:
 3214 0905 696F6D6F 		.ascii	"iomode_t\000"
 3214      64655F74 
 3214      00
 3215              	.LASF132:
 3216 090e 50414C43 		.ascii	"PALConfig\000"
 3216      6F6E6669 
 3216      6700
 3217              	.LASF69:
 3218 0918 6D5F6F77 		.ascii	"m_owner\000"
 3218      6E657200 
 3219              	.LASF138:
 3220 0920 70616C5F 		.ascii	"pal_default_config\000"
 3220      64656661 
 3220      756C745F 
 3220      636F6E66 
 3220      696700
 3221              	.LASF28:
 3222 0933 705F6374 		.ascii	"p_ctx\000"
 3222      7800
 3223              	.LASF37:
 3224 0939 705F7761 		.ascii	"p_waiting\000"
 3224      6974696E 
 3224      6700
 3225              	.LASF159:
 3226 0943 74786279 		.ascii	"txbytes\000"
 3226      74657300 
 3227              	.LASF124:
 3228 094b 636C6F63 		.ascii	"clockStretchTimeout\000"
 3228      6B537472 
 3228      65746368 
 3228      54696D65 
 3228      6F757400 
 3229              		.ident	"GCC: (15:9-2019-q4-0ubuntu1) 9.2.1 20191025 (release) [ARM/arm-9-branch revision 277599]"
ARM GAS  /tmp/ccLlri3c.s 			page 65


DEFINED SYMBOLS
                            *ABS*:0000000000000000 pal.c
     /tmp/ccLlri3c.s:16     .text.palReadBus:0000000000000000 $a
     /tmp/ccLlri3c.s:23     .text.palReadBus:0000000000000000 palReadBus
     /tmp/ccLlri3c.s:49     .text.palWriteBus:0000000000000000 $a
     /tmp/ccLlri3c.s:55     .text.palWriteBus:0000000000000000 palWriteBus
     /tmp/ccLlri3c.s:93     .text.palSetBusMode:0000000000000000 $a
     /tmp/ccLlri3c.s:99     .text.palSetBusMode:0000000000000000 palSetBusMode

UNDEFINED SYMBOLS
_pal_lld_writeport
_pal_lld_setgroupmode
