ARM GAS  /tmp/ccqsb2PW.s 			page 1


   1              		.cpu arm1176jz-s
   2              		.eabi_attribute 20, 1
   3              		.eabi_attribute 21, 1
   4              		.eabi_attribute 23, 3
   5              		.eabi_attribute 24, 1
   6              		.eabi_attribute 25, 1
   7              		.eabi_attribute 26, 1
   8              		.eabi_attribute 30, 2
   9              		.eabi_attribute 34, 1
  10              		.eabi_attribute 18, 4
  11              		.file	"pal_lld.c"
  12              		.text
  13              	.Ltext0:
  14              		.cfi_sections	.debug_frame
  15              		.section	.text.set_gpio_in.isra.0,"ax",%progbits
  16              		.align	2
  17              		.arch armv6kz
  18              		.syntax unified
  19              		.arm
  20              		.fpu softvfp
  21              		.type	set_gpio_in.isra.0, %function
  22              	set_gpio_in.isra.0:
  23              	.LVL0:
  24              	.LFB12:
  25              		.file 1 "../os/hal/platforms/BCM2835/pal_lld.c"
  26              		.loc 1 64 13 view -0
  27              		.cfi_startproc
  28              		@ args = 0, pretend = 0, frame = 0
  29              		@ frame_needed = 0, uses_anonymous_args = 0
  30              		.loc 1 64 13 is_stmt 0 view .LVU1
  31 0000 70402DE9 		push	{r4, r5, r6, lr}
  32              		.cfi_def_cfa_offset 16
  33              		.cfi_offset 4, -16
  34              		.cfi_offset 5, -12
  35              		.cfi_offset 6, -8
  36              		.cfi_offset 14, -4
  37              		.loc 1 64 13 view .LVU2
  38 0004 0060A0E1 		mov	r6, r0
  39 0008 0150A0E1 		mov	r5, r1
  40              		.loc 1 66 15 is_stmt 1 view .LVU3
  41              		.loc 1 66 10 is_stmt 0 view .LVU4
  42 000c 0040A0E3 		mov	r4, #0
  43 0010 030000EA 		b	.L3
  44              	.LVL1:
  45              	.L2:
  46              	.LBB3:
  47              		.loc 1 70 5 is_stmt 1 view .LVU5
  48              	.LBE3:
  49              		.loc 1 66 24 is_stmt 0 view .LVU6
  50 0014 014084E2 		add	r4, r4, #1
  51              	.LVL2:
  52              		.loc 1 66 3 view .LVU7
  53 0018 200054E3 		cmp	r4, #32
  54              	.LBB4:
  55              		.loc 1 70 10 view .LVU8
  56 001c A550A0E1 		lsr	r5, r5, #1
  57              	.LVL3:
ARM GAS  /tmp/ccqsb2PW.s 			page 2


  58              		.loc 1 70 10 view .LVU9
  59              	.LBE4:
  60              		.loc 1 66 23 is_stmt 1 view .LVU10
  61              		.loc 1 66 15 view .LVU11
  62              		.loc 1 66 3 is_stmt 0 view .LVU12
  63 0020 7080BD08 		popeq	{r4, r5, r6, pc}
  64              	.LVL4:
  65              	.L3:
  66              	.LBB5:
  67              		.loc 1 67 5 is_stmt 1 view .LVU13
  68              		.loc 1 68 5 view .LVU14
  69              		.loc 1 68 8 is_stmt 0 view .LVU15
  70 0024 010015E3 		tst	r5, #1
  71 0028 F9FFFF0A 		beq	.L2
  72              		.loc 1 69 7 is_stmt 1 view .LVU16
  73              		.loc 1 69 28 is_stmt 0 view .LVU17
  74 002c 000096E5 		ldr	r0, [r6]
  75              		.loc 1 69 7 view .LVU18
  76 0030 0010A0E3 		mov	r1, #0
  77 0034 000084E0 		add	r0, r4, r0
  78 0038 FEFFFFEB 		bl	bcm2835_gpio_fnsel
  79              	.LVL5:
  80 003c F4FFFFEA 		b	.L2
  81              	.LBE5:
  82              		.cfi_endproc
  83              	.LFE12:
  84              		.size	set_gpio_in.isra.0, .-set_gpio_in.isra.0
  85              		.section	.text.set_gpio_pud.isra.0,"ax",%progbits
  86              		.align	2
  87              		.syntax unified
  88              		.arm
  89              		.fpu softvfp
  90              		.type	set_gpio_pud.isra.0, %function
  91              	set_gpio_pud.isra.0:
  92              	.LVL6:
  93              	.LFB13:
  94              		.loc 1 54 13 is_stmt 1 view -0
  95              		.cfi_startproc
  96              		@ args = 0, pretend = 0, frame = 0
  97              		@ frame_needed = 0, uses_anonymous_args = 0
  98              		.loc 1 56 3 view .LVU20
  99              		.loc 1 54 13 is_stmt 0 view .LVU21
 100 0000 70402DE9 		push	{r4, r5, r6, lr}
 101              		.cfi_def_cfa_offset 16
 102              		.cfi_offset 4, -16
 103              		.cfi_offset 5, -12
 104              		.cfi_offset 6, -8
 105              		.cfi_offset 14, -4
 106              		.loc 1 54 13 view .LVU22
 107 0004 0040A0E1 		mov	r4, r0
 108 0008 0150A0E1 		mov	r5, r1
 109              		.loc 1 56 9 view .LVU23
 110 000c 2C609FE5 		ldr	r6, .L13
 111              		.loc 1 57 3 view .LVU24
 112 0010 9600A0E3 		mov	r0, #150
 113              		.loc 1 56 9 view .LVU25
 114 0014 942086E5 		str	r2, [r6, #148]
ARM GAS  /tmp/ccqsb2PW.s 			page 3


 115              		.loc 1 57 3 is_stmt 1 view .LVU26
 116 0018 FEFFFFEB 		bl	bcm2835_delay
 117              	.LVL7:
 118              		.loc 1 58 3 view .LVU27
 119              		.loc 1 58 8 is_stmt 0 view .LVU28
 120 001c 003094E5 		ldr	r3, [r4]
 121              		.loc 1 59 3 view .LVU29
 122 0020 9600A0E3 		mov	r0, #150
 123              		.loc 1 58 19 view .LVU30
 124 0024 005083E5 		str	r5, [r3]
 125              		.loc 1 59 3 is_stmt 1 view .LVU31
 126 0028 FEFFFFEB 		bl	bcm2835_delay
 127              	.LVL8:
 128              		.loc 1 60 3 view .LVU32
 129              		.loc 1 60 9 is_stmt 0 view .LVU33
 130 002c 0030A0E3 		mov	r3, #0
 131              		.loc 1 61 8 view .LVU34
 132 0030 002094E5 		ldr	r2, [r4]
 133              		.loc 1 60 9 view .LVU35
 134 0034 943086E5 		str	r3, [r6, #148]
 135              		.loc 1 61 3 is_stmt 1 view .LVU36
 136              		.loc 1 61 19 is_stmt 0 view .LVU37
 137 0038 003082E5 		str	r3, [r2]
 138              		.loc 1 62 1 view .LVU38
 139 003c 7080BDE8 		pop	{r4, r5, r6, pc}
 140              	.L14:
 141              		.align	2
 142              	.L13:
 143 0040 00002020 		.word	538968064
 144              		.cfi_endproc
 145              	.LFE13:
 146              		.size	set_gpio_pud.isra.0, .-set_gpio_pud.isra.0
 147              		.section	.text._pal_lld_init,"ax",%progbits
 148              		.align	2
 149              		.global	_pal_lld_init
 150              		.syntax unified
 151              		.arm
 152              		.fpu softvfp
 153              		.type	_pal_lld_init, %function
 154              	_pal_lld_init:
 155              	.LVL9:
 156              	.LFB9:
 157              		.loc 1 82 45 is_stmt 1 view -0
 158              		.cfi_startproc
 159              		@ args = 0, pretend = 0, frame = 0
 160              		@ frame_needed = 0, uses_anonymous_args = 0
 161              		.loc 1 84 3 view .LVU40
 162              		.loc 1 86 3 view .LVU41
 163              		.loc 1 86 17 is_stmt 0 view .LVU42
 164 0000 68309FE5 		ldr	r3, .L17
 165 0004 68109FE5 		ldr	r1, .L17+4
 166              		.loc 1 82 45 view .LVU43
 167 0008 10402DE9 		push	{r4, lr}
 168              		.cfi_def_cfa_offset 8
 169              		.cfi_offset 4, -8
 170              		.cfi_offset 14, -4
 171              		.loc 1 88 17 view .LVU44
ARM GAS  /tmp/ccqsb2PW.s 			page 4


 172 000c 64C09FE5 		ldr	ip, .L17+8
 173              		.loc 1 87 17 view .LVU45
 174 0010 64E09FE5 		ldr	lr, .L17+12
 175              		.loc 1 89 20 view .LVU46
 176 0014 64209FE5 		ldr	r2, .L17+16
 177              		.loc 1 90 3 view .LVU47
 178 0018 140083E2 		add	r0, r3, #20
 179              	.LVL10:
 180              		.loc 1 86 17 view .LVU48
 181 001c 041083E5 		str	r1, [r3, #4]
 182              		.loc 1 87 3 is_stmt 1 view .LVU49
 183              		.loc 1 90 3 is_stmt 0 view .LVU50
 184 0020 0010E0E3 		mvn	r1, #0
 185              		.loc 1 87 17 view .LVU51
 186 0024 08E083E5 		str	lr, [r3, #8]
 187              		.loc 1 88 3 is_stmt 1 view .LVU52
 188              		.loc 1 88 17 is_stmt 0 view .LVU53
 189 0028 0CC083E5 		str	ip, [r3, #12]
 190              		.loc 1 89 3 is_stmt 1 view .LVU54
 191              		.loc 1 89 20 is_stmt 0 view .LVU55
 192 002c 102083E5 		str	r2, [r3, #16]
 193              		.loc 1 90 3 is_stmt 1 view .LVU56
 194 0030 FEFFFFEB 		bl	set_gpio_in.isra.0
 195              	.LVL11:
 196              		.loc 1 92 3 view .LVU57
 197              		.loc 1 92 17 is_stmt 0 view .LVU58
 198 0034 48309FE5 		ldr	r3, .L17+20
 199              		.loc 1 96 20 view .LVU59
 200 0038 2020A0E3 		mov	r2, #32
 201 003c 0300A0E1 		mov	r0, r3
 202              		.loc 1 92 17 view .LVU60
 203 0040 40109FE5 		ldr	r1, .L17+24
 204              		.loc 1 93 17 view .LVU61
 205 0044 40E09FE5 		ldr	lr, .L17+28
 206              		.loc 1 94 17 view .LVU62
 207 0048 40C09FE5 		ldr	ip, .L17+32
 208              		.loc 1 96 20 view .LVU63
 209 004c 1420A0E5 		str	r2, [r0, #20]!
 210              		.loc 1 95 20 view .LVU64
 211 0050 3C209FE5 		ldr	r2, .L17+36
 212              		.loc 1 92 17 view .LVU65
 213 0054 041083E5 		str	r1, [r3, #4]
 214              		.loc 1 93 3 is_stmt 1 view .LVU66
 215              		.loc 1 93 17 is_stmt 0 view .LVU67
 216 0058 08E083E5 		str	lr, [r3, #8]
 217              		.loc 1 94 3 is_stmt 1 view .LVU68
 218              		.loc 1 97 3 is_stmt 0 view .LVU69
 219 005c 0010E0E3 		mvn	r1, #0
 220              		.loc 1 98 1 view .LVU70
 221 0060 1040BDE8 		pop	{r4, lr}
 222              		.cfi_restore 14
 223              		.cfi_restore 4
 224              		.cfi_def_cfa_offset 0
 225              		.loc 1 94 17 view .LVU71
 226 0064 0CC083E5 		str	ip, [r3, #12]
 227              		.loc 1 95 3 is_stmt 1 view .LVU72
 228              		.loc 1 95 20 is_stmt 0 view .LVU73
ARM GAS  /tmp/ccqsb2PW.s 			page 5


 229 0068 102083E5 		str	r2, [r3, #16]
 230              		.loc 1 96 3 is_stmt 1 view .LVU74
 231              		.loc 1 97 3 view .LVU75
 232 006c FEFFFFEA 		b	set_gpio_in.isra.0
 233              	.LVL12:
 234              	.L18:
 235              		.align	2
 236              	.L17:
 237 0070 00000000 		.word	IOPORT0
 238 0074 1C002020 		.word	538968092
 239 0078 34002020 		.word	538968116
 240 007c 28002020 		.word	538968104
 241 0080 98002020 		.word	538968216
 242 0084 00000000 		.word	IOPORT1
 243 0088 20002020 		.word	538968096
 244 008c 2C002020 		.word	538968108
 245 0090 38002020 		.word	538968120
 246 0094 9C002020 		.word	538968220
 247              		.cfi_endproc
 248              	.LFE9:
 249              		.size	_pal_lld_init, .-_pal_lld_init
 250              		.section	.text._pal_lld_setgroupmode,"ax",%progbits
 251              		.align	2
 252              		.global	_pal_lld_setgroupmode
 253              		.syntax unified
 254              		.arm
 255              		.fpu softvfp
 256              		.type	_pal_lld_setgroupmode, %function
 257              	_pal_lld_setgroupmode:
 258              	.LVL13:
 259              	.LFB10:
 260              		.loc 1 100 79 view -0
 261              		.cfi_startproc
 262              		@ args = 0, pretend = 0, frame = 0
 263              		@ frame_needed = 0, uses_anonymous_args = 0
 264              		.loc 1 101 3 view .LVU77
 265              		.loc 1 102 3 view .LVU78
 266 0000 070052E3 		cmp	r2, #7
 267              		.loc 1 100 79 is_stmt 0 view .LVU79
 268 0004 70402DE9 		push	{r4, r5, r6, lr}
 269              		.cfi_def_cfa_offset 16
 270              		.cfi_offset 4, -16
 271              		.cfi_offset 5, -12
 272              		.cfi_offset 6, -8
 273              		.cfi_offset 14, -4
 274              		.loc 1 100 79 view .LVU80
 275 0008 0060A0E1 		mov	r6, r0
 276 000c 0150A0E1 		mov	r5, r1
 277              		.loc 1 102 3 view .LVU81
 278 0010 0B00008A 		bhi	.L20
 279 0014 010052E3 		cmp	r2, #1
 280 0018 7080BD98 		popls	{r4, r5, r6, pc}
 281 001c 022042E2 		sub	r2, r2, #2
 282              	.LVL14:
 283              		.loc 1 102 3 view .LVU82
 284 0020 050052E3 		cmp	r2, #5
 285 0024 02F19F97 		ldrls	pc, [pc, r2, asl #2]
ARM GAS  /tmp/ccqsb2PW.s 			page 6


 286 0028 140000EA 		b	.L19
 287              	.L23:
 288 002c BC000000 		.word	.L26
 289 0030 A0000000 		.word	.L25
 290 0034 84000000 		.word	.L24
 291 0038 80000000 		.word	.L19
 292 003c 4C000000 		.word	.L29
 293 0040 4C000000 		.word	.L29
 294              	.LVL15:
 295              	.L20:
 296              		.loc 1 102 3 view .LVU83
 297 0044 FF0052E3 		cmp	r2, #255
 298 0048 7080BD18 		popne	{r4, r5, r6, pc}
 299              	.LVL16:
 300              	.L29:
 301              		.loc 1 102 3 view .LVU84
 302 004c 0040A0E3 		mov	r4, #0
 303 0050 030000EA 		b	.L32
 304              	.LVL17:
 305              	.L27:
 306              	.LBB6:
 307              		.loc 1 122 7 is_stmt 1 discriminator 2 view .LVU85
 308              	.LBE6:
 309              		.loc 1 118 26 is_stmt 0 discriminator 2 view .LVU86
 310 0054 014084E2 		add	r4, r4, #1
 311              	.LVL18:
 312              		.loc 1 118 5 discriminator 2 view .LVU87
 313 0058 200054E3 		cmp	r4, #32
 314              	.LBB7:
 315              		.loc 1 122 12 discriminator 2 view .LVU88
 316 005c A550A0E1 		lsr	r5, r5, #1
 317              	.LVL19:
 318              		.loc 1 122 12 discriminator 2 view .LVU89
 319              	.LBE7:
 320              		.loc 1 118 25 is_stmt 1 discriminator 2 view .LVU90
 321              		.loc 1 118 17 discriminator 2 view .LVU91
 322              		.loc 1 118 5 is_stmt 0 discriminator 2 view .LVU92
 323 0060 7080BD08 		popeq	{r4, r5, r6, pc}
 324              	.LVL20:
 325              	.L32:
 326              	.LBB8:
 327              		.loc 1 119 7 is_stmt 1 view .LVU93
 328              		.loc 1 120 7 view .LVU94
 329              		.loc 1 120 10 is_stmt 0 view .LVU95
 330 0064 010015E3 		tst	r5, #1
 331 0068 F9FFFF0A 		beq	.L27
 332              		.loc 1 121 9 is_stmt 1 view .LVU96
 333              		.loc 1 121 30 is_stmt 0 view .LVU97
 334 006c 140096E5 		ldr	r0, [r6, #20]
 335              		.loc 1 121 9 view .LVU98
 336 0070 0110A0E3 		mov	r1, #1
 337 0074 000084E0 		add	r0, r4, r0
 338 0078 FEFFFFEB 		bl	bcm2835_gpio_fnsel
 339              	.LVL21:
 340 007c F4FFFFEA 		b	.L27
 341              	.LVL22:
 342              	.L19:
ARM GAS  /tmp/ccqsb2PW.s 			page 7


 343              		.loc 1 121 9 view .LVU99
 344              	.LBE8:
 345              		.loc 1 126 1 view .LVU100
 346 0080 7080BDE8 		pop	{r4, r5, r6, pc}
 347              	.L24:
 348              		.loc 1 112 5 is_stmt 1 view .LVU101
 349 0084 140080E2 		add	r0, r0, #20
 350              	.LVL23:
 351              		.loc 1 112 5 is_stmt 0 view .LVU102
 352 0088 FEFFFFEB 		bl	set_gpio_in.isra.0
 353              	.LVL24:
 354              		.loc 1 113 5 is_stmt 1 view .LVU103
 355 008c 0510A0E1 		mov	r1, r5
 356 0090 100086E2 		add	r0, r6, #16
 357 0094 0120A0E3 		mov	r2, #1
 358              		.loc 1 126 1 is_stmt 0 view .LVU104
 359 0098 7040BDE8 		pop	{r4, r5, r6, lr}
 360              		.cfi_remember_state
 361              		.cfi_restore 14
 362              		.cfi_restore 6
 363              		.cfi_restore 5
 364              		.cfi_restore 4
 365              		.cfi_def_cfa_offset 0
 366              	.LVL25:
 367              		.loc 1 113 5 view .LVU105
 368 009c FEFFFFEA 		b	set_gpio_pud.isra.0
 369              	.LVL26:
 370              	.L25:
 371              		.cfi_restore_state
 372              		.loc 1 108 5 is_stmt 1 view .LVU106
 373 00a0 140080E2 		add	r0, r0, #20
 374              	.LVL27:
 375              		.loc 1 108 5 is_stmt 0 view .LVU107
 376 00a4 FEFFFFEB 		bl	set_gpio_in.isra.0
 377              	.LVL28:
 378              		.loc 1 109 5 is_stmt 1 view .LVU108
 379 00a8 0510A0E1 		mov	r1, r5
 380 00ac 100086E2 		add	r0, r6, #16
 381 00b0 0220A0E3 		mov	r2, #2
 382              		.loc 1 126 1 is_stmt 0 view .LVU109
 383 00b4 7040BDE8 		pop	{r4, r5, r6, lr}
 384              		.cfi_remember_state
 385              		.cfi_restore 14
 386              		.cfi_restore 6
 387              		.cfi_restore 5
 388              		.cfi_restore 4
 389              		.cfi_def_cfa_offset 0
 390              	.LVL29:
 391              		.loc 1 109 5 view .LVU110
 392 00b8 FEFFFFEA 		b	set_gpio_pud.isra.0
 393              	.LVL30:
 394              	.L26:
 395              		.cfi_restore_state
 396              		.loc 1 104 5 is_stmt 1 view .LVU111
 397 00bc 140080E2 		add	r0, r0, #20
 398              	.LVL31:
 399              		.loc 1 104 5 is_stmt 0 view .LVU112
ARM GAS  /tmp/ccqsb2PW.s 			page 8


 400 00c0 FEFFFFEB 		bl	set_gpio_in.isra.0
 401              	.LVL32:
 402              		.loc 1 105 5 is_stmt 1 view .LVU113
 403 00c4 0510A0E1 		mov	r1, r5
 404 00c8 100086E2 		add	r0, r6, #16
 405 00cc 0020A0E3 		mov	r2, #0
 406              		.loc 1 126 1 is_stmt 0 view .LVU114
 407 00d0 7040BDE8 		pop	{r4, r5, r6, lr}
 408              		.cfi_restore 14
 409              		.cfi_restore 6
 410              		.cfi_restore 5
 411              		.cfi_restore 4
 412              		.cfi_def_cfa_offset 0
 413              	.LVL33:
 414              		.loc 1 105 5 view .LVU115
 415 00d4 FEFFFFEA 		b	set_gpio_pud.isra.0
 416              	.LVL34:
 417              		.loc 1 105 5 view .LVU116
 418              		.cfi_endproc
 419              	.LFE10:
 420              		.size	_pal_lld_setgroupmode, .-_pal_lld_setgroupmode
 421              		.section	.text._pal_lld_writeport,"ax",%progbits
 422              		.align	2
 423              		.global	_pal_lld_writeport
 424              		.syntax unified
 425              		.arm
 426              		.fpu softvfp
 427              		.type	_pal_lld_writeport, %function
 428              	_pal_lld_writeport:
 429              	.LVL35:
 430              	.LFB11:
 431              		.loc 1 128 61 is_stmt 1 view -0
 432              		.cfi_startproc
 433              		@ args = 0, pretend = 0, frame = 0
 434              		@ frame_needed = 0, uses_anonymous_args = 0
 435              		@ link register save eliminated.
 436              		.loc 1 129 3 view .LVU118
 437              		.loc 1 130 20 is_stmt 0 view .LVU119
 438 0000 0120E0E1 		mvn	r2, r1
 439              		.loc 1 129 9 view .LVU120
 440 0004 04C090E5 		ldr	ip, [r0, #4]
 441              		.loc 1 130 9 view .LVU121
 442 0008 083090E5 		ldr	r3, [r0, #8]
 443              		.loc 1 129 32 view .LVU122
 444 000c 001080E5 		str	r1, [r0]
 445              		.loc 1 129 18 view .LVU123
 446 0010 00108CE5 		str	r1, [ip]
 447              		.loc 1 130 3 is_stmt 1 view .LVU124
 448              		.loc 1 130 18 is_stmt 0 view .LVU125
 449 0014 002083E5 		str	r2, [r3]
 450              		.loc 1 131 1 view .LVU126
 451 0018 1EFF2FE1 		bx	lr
 452              		.cfi_endproc
 453              	.LFE11:
 454              		.size	_pal_lld_writeport, .-_pal_lld_writeport
 455              		.comm	IOPORT1,24,4
 456              		.comm	IOPORT0,24,4
ARM GAS  /tmp/ccqsb2PW.s 			page 9


 457              		.text
 458              	.Letext0:
 459              		.file 2 "/usr/lib/gcc/arm-none-eabi/9.2.1/include/stddef.h"
 460              		.file 3 "/usr/lib/gcc/arm-none-eabi/9.2.1/include/stdint.h"
 461              		.file 4 "../os/ports/GCC/ARM/chtypes.h"
 462              		.file 5 "../os/kernel/include/chlists.h"
 463              		.file 6 "../os/kernel/include/chthreads.h"
 464              		.file 7 "../os/ports/GCC/ARM/chcore.h"
 465              		.file 8 "../os/kernel/include/chvt.h"
 466              		.file 9 "../os/kernel/include/chschd.h"
 467              		.file 10 "../os/kernel/include/chmtx.h"
 468              		.file 11 "../os/kernel/include/chevents.h"
 469              		.file 12 "../os/kernel/include/chregistry.h"
 470              		.file 13 "../os/kernel/include/chqueues.h"
 471              		.file 14 "../os/kernel/include/ch.h"
 472              		.file 15 "../os/hal/platforms/BCM2835/bcm2835.h"
 473              		.file 16 "../os/hal/platforms/BCM2835/pal_lld.h"
 474              		.file 17 "../os/hal/include/i2c.h"
 475              		.file 18 "../os/hal/platforms/BCM2835/i2c_lld.h"
 476              		.file 19 "../os/hal/include/serial.h"
 477              		.file 20 "../os/hal/include/spi.h"
 478              		.file 21 "../os/hal/platforms/BCM2835/spi_lld.h"
 479              		.file 22 "../os/hal/platforms/BCM2835/serial_lld.h"
 480              		.section	.debug_info,"",%progbits
 481              	.Ldebug_info0:
 482 0000 59110000 		.4byte	0x1159
 483 0004 0400     		.2byte	0x4
 484 0006 00000000 		.4byte	.Ldebug_abbrev0
 485 000a 04       		.byte	0x4
 486 000b 01       		.uleb128 0x1
 487 000c 13000000 		.4byte	.LASF210
 488 0010 0C       		.byte	0xc
 489 0011 5F080000 		.4byte	.LASF211
 490 0015 DA060000 		.4byte	.LASF212
 491 0019 40000000 		.4byte	.Ldebug_ranges0+0x40
 492 001d 00000000 		.4byte	0
 493 0021 00000000 		.4byte	.Ldebug_line0
 494 0025 02       		.uleb128 0x2
 495 0026 04       		.byte	0x4
 496 0027 05       		.byte	0x5
 497 0028 696E7400 		.ascii	"int\000"
 498 002c 03       		.uleb128 0x3
 499 002d 1F030000 		.4byte	.LASF3
 500 0031 02       		.byte	0x2
 501 0032 D1       		.byte	0xd1
 502 0033 17       		.byte	0x17
 503 0034 38000000 		.4byte	0x38
 504 0038 04       		.uleb128 0x4
 505 0039 04       		.byte	0x4
 506 003a 07       		.byte	0x7
 507 003b 4F030000 		.4byte	.LASF0
 508 003f 05       		.uleb128 0x5
 509 0040 38000000 		.4byte	0x38
 510 0044 04       		.uleb128 0x4
 511 0045 01       		.byte	0x1
 512 0046 06       		.byte	0x6
 513 0047 B8010000 		.4byte	.LASF1
ARM GAS  /tmp/ccqsb2PW.s 			page 10


 514 004b 04       		.uleb128 0x4
 515 004c 02       		.byte	0x2
 516 004d 05       		.byte	0x5
 517 004e 09060000 		.4byte	.LASF2
 518 0052 03       		.uleb128 0x3
 519 0053 D4050000 		.4byte	.LASF4
 520 0057 03       		.byte	0x3
 521 0058 28       		.byte	0x28
 522 0059 18       		.byte	0x18
 523 005a 5E000000 		.4byte	0x5e
 524 005e 04       		.uleb128 0x4
 525 005f 04       		.byte	0x4
 526 0060 05       		.byte	0x5
 527 0061 37020000 		.4byte	.LASF5
 528 0065 04       		.uleb128 0x4
 529 0066 08       		.byte	0x8
 530 0067 05       		.byte	0x5
 531 0068 AA010000 		.4byte	.LASF6
 532 006c 03       		.uleb128 0x3
 533 006d A1080000 		.4byte	.LASF7
 534 0071 03       		.byte	0x3
 535 0072 2E       		.byte	0x2e
 536 0073 18       		.byte	0x18
 537 0074 7D000000 		.4byte	0x7d
 538 0078 06       		.uleb128 0x6
 539 0079 6C000000 		.4byte	0x6c
 540 007d 04       		.uleb128 0x4
 541 007e 01       		.byte	0x1
 542 007f 08       		.byte	0x8
 543 0080 DC050000 		.4byte	.LASF8
 544 0084 03       		.uleb128 0x3
 545 0085 69020000 		.4byte	.LASF9
 546 0089 03       		.byte	0x3
 547 008a 31       		.byte	0x31
 548 008b 19       		.byte	0x19
 549 008c 90000000 		.4byte	0x90
 550 0090 04       		.uleb128 0x4
 551 0091 02       		.byte	0x2
 552 0092 07       		.byte	0x7
 553 0093 D9030000 		.4byte	.LASF10
 554 0097 03       		.uleb128 0x3
 555 0098 B0060000 		.4byte	.LASF11
 556 009c 03       		.byte	0x3
 557 009d 34       		.byte	0x34
 558 009e 19       		.byte	0x19
 559 009f A8000000 		.4byte	0xa8
 560 00a3 05       		.uleb128 0x5
 561 00a4 97000000 		.4byte	0x97
 562 00a8 04       		.uleb128 0x4
 563 00a9 04       		.byte	0x4
 564 00aa 07       		.byte	0x7
 565 00ab 88030000 		.4byte	.LASF12
 566 00af 04       		.uleb128 0x4
 567 00b0 08       		.byte	0x8
 568 00b1 07       		.byte	0x7
 569 00b2 31010000 		.4byte	.LASF13
 570 00b6 03       		.uleb128 0x3
ARM GAS  /tmp/ccqsb2PW.s 			page 11


 571 00b7 28040000 		.4byte	.LASF14
 572 00bb 04       		.byte	0x4
 573 00bc 2A       		.byte	0x2a
 574 00bd 19       		.byte	0x19
 575 00be 6C000000 		.4byte	0x6c
 576 00c2 03       		.uleb128 0x3
 577 00c3 40020000 		.4byte	.LASF15
 578 00c7 04       		.byte	0x4
 579 00c8 2B       		.byte	0x2b
 580 00c9 19       		.byte	0x19
 581 00ca 6C000000 		.4byte	0x6c
 582 00ce 03       		.uleb128 0x3
 583 00cf 84050000 		.4byte	.LASF16
 584 00d3 04       		.byte	0x4
 585 00d4 2C       		.byte	0x2c
 586 00d5 19       		.byte	0x19
 587 00d6 6C000000 		.4byte	0x6c
 588 00da 03       		.uleb128 0x3
 589 00db 0D020000 		.4byte	.LASF17
 590 00df 04       		.byte	0x4
 591 00e0 2D       		.byte	0x2d
 592 00e1 19       		.byte	0x19
 593 00e2 6C000000 		.4byte	0x6c
 594 00e6 03       		.uleb128 0x3
 595 00e7 B3050000 		.4byte	.LASF18
 596 00eb 04       		.byte	0x4
 597 00ec 2E       		.byte	0x2e
 598 00ed 19       		.byte	0x19
 599 00ee 97000000 		.4byte	0x97
 600 00f2 03       		.uleb128 0x3
 601 00f3 FE030000 		.4byte	.LASF19
 602 00f7 04       		.byte	0x4
 603 00f8 2F       		.byte	0x2f
 604 00f9 19       		.byte	0x19
 605 00fa 52000000 		.4byte	0x52
 606 00fe 03       		.uleb128 0x3
 607 00ff 4F040000 		.4byte	.LASF20
 608 0103 04       		.byte	0x4
 609 0104 31       		.byte	0x31
 610 0105 19       		.byte	0x19
 611 0106 97000000 		.4byte	0x97
 612 010a 03       		.uleb128 0x3
 613 010b 16080000 		.4byte	.LASF21
 614 010f 04       		.byte	0x4
 615 0110 32       		.byte	0x32
 616 0111 19       		.byte	0x19
 617 0112 97000000 		.4byte	0x97
 618 0116 03       		.uleb128 0x3
 619 0117 76070000 		.4byte	.LASF22
 620 011b 04       		.byte	0x4
 621 011c 33       		.byte	0x33
 622 011d 19       		.byte	0x19
 623 011e 97000000 		.4byte	0x97
 624 0122 05       		.uleb128 0x5
 625 0123 16010000 		.4byte	0x116
 626 0127 03       		.uleb128 0x3
 627 0128 6E060000 		.4byte	.LASF23
ARM GAS  /tmp/ccqsb2PW.s 			page 12


 628 012c 05       		.byte	0x5
 629 012d 23       		.byte	0x23
 630 012e 17       		.byte	0x17
 631 012f 33010000 		.4byte	0x133
 632 0133 07       		.uleb128 0x7
 633 0134 6E060000 		.4byte	.LASF23
 634 0138 44       		.byte	0x44
 635 0139 06       		.byte	0x6
 636 013a 57       		.byte	0x57
 637 013b 08       		.byte	0x8
 638 013c 38020000 		.4byte	0x238
 639 0140 08       		.uleb128 0x8
 640 0141 48060000 		.4byte	.LASF24
 641 0145 06       		.byte	0x6
 642 0146 58       		.byte	0x58
 643 0147 1A       		.byte	0x1a
 644 0148 5C020000 		.4byte	0x25c
 645 014c 00       		.byte	0
 646 014d 08       		.uleb128 0x8
 647 014e AC050000 		.4byte	.LASF25
 648 0152 06       		.byte	0x6
 649 0153 5A       		.byte	0x5a
 650 0154 1A       		.byte	0x1a
 651 0155 5C020000 		.4byte	0x25c
 652 0159 04       		.byte	0x4
 653 015a 08       		.uleb128 0x8
 654 015b 78010000 		.4byte	.LASF26
 655 015f 06       		.byte	0x6
 656 0160 5C       		.byte	0x5c
 657 0161 19       		.byte	0x19
 658 0162 E6000000 		.4byte	0xe6
 659 0166 08       		.byte	0x8
 660 0167 08       		.uleb128 0x8
 661 0168 4C090000 		.4byte	.LASF27
 662 016c 06       		.byte	0x6
 663 016d 5D       		.byte	0x5d
 664 016e 19       		.byte	0x19
 665 016f 27030000 		.4byte	0x327
 666 0173 0C       		.byte	0xc
 667 0174 08       		.uleb128 0x8
 668 0175 9B020000 		.4byte	.LASF28
 669 0179 06       		.byte	0x6
 670 017a 5F       		.byte	0x5f
 671 017b 1A       		.byte	0x1a
 672 017c 5C020000 		.4byte	0x25c
 673 0180 10       		.byte	0x10
 674 0181 08       		.uleb128 0x8
 675 0182 F4040000 		.4byte	.LASF29
 676 0186 06       		.byte	0x6
 677 0187 60       		.byte	0x60
 678 0188 1A       		.byte	0x1a
 679 0189 5C020000 		.4byte	0x25c
 680 018d 14       		.byte	0x14
 681 018e 08       		.uleb128 0x8
 682 018f D6080000 		.4byte	.LASF30
 683 0193 06       		.byte	0x6
 684 0194 67       		.byte	0x67
ARM GAS  /tmp/ccqsb2PW.s 			page 13


 685 0195 1A       		.byte	0x1a
 686 0196 88050000 		.4byte	0x588
 687 019a 18       		.byte	0x18
 688 019b 08       		.uleb128 0x8
 689 019c 13060000 		.4byte	.LASF31
 690 01a0 06       		.byte	0x6
 691 01a1 72       		.byte	0x72
 692 01a2 19       		.byte	0x19
 693 01a3 C2000000 		.4byte	0xc2
 694 01a7 1C       		.byte	0x1c
 695 01a8 08       		.uleb128 0x8
 696 01a9 66060000 		.4byte	.LASF32
 697 01ad 06       		.byte	0x6
 698 01ae 76       		.byte	0x76
 699 01af 19       		.byte	0x19
 700 01b0 B6000000 		.4byte	0xb6
 701 01b4 1D       		.byte	0x1d
 702 01b5 08       		.uleb128 0x8
 703 01b6 47080000 		.4byte	.LASF33
 704 01ba 06       		.byte	0x6
 705 01bb 7B       		.byte	0x7b
 706 01bc 19       		.byte	0x19
 707 01bd CE000000 		.4byte	0xce
 708 01c1 1E       		.byte	0x1e
 709 01c2 08       		.uleb128 0x8
 710 01c3 1B060000 		.4byte	.LASF34
 711 01c7 06       		.byte	0x6
 712 01c8 81       		.byte	0x81
 713 01c9 19       		.byte	0x19
 714 01ca DA000000 		.4byte	0xda
 715 01ce 1F       		.byte	0x1f
 716 01cf 08       		.uleb128 0x8
 717 01d0 B3070000 		.4byte	.LASF35
 718 01d4 06       		.byte	0x6
 719 01d5 88       		.byte	0x88
 720 01d6 19       		.byte	0x19
 721 01d7 22010000 		.4byte	0x122
 722 01db 20       		.byte	0x20
 723 01dc 09       		.uleb128 0x9
 724 01dd 705F7500 		.ascii	"p_u\000"
 725 01e1 06       		.byte	0x6
 726 01e2 AD       		.byte	0xad
 727 01e3 19       		.byte	0x19
 728 01e4 4E050000 		.4byte	0x54e
 729 01e8 24       		.byte	0x24
 730 01e9 08       		.uleb128 0x8
 731 01ea 52090000 		.4byte	.LASF36
 732 01ee 06       		.byte	0x6
 733 01ef B2       		.byte	0xb2
 734 01f0 19       		.byte	0x19
 735 01f1 85020000 		.4byte	0x285
 736 01f5 28       		.byte	0x28
 737 01f6 08       		.uleb128 0x8
 738 01f7 E6070000 		.4byte	.LASF37
 739 01fb 06       		.byte	0x6
 740 01fc B8       		.byte	0xb8
 741 01fd 19       		.byte	0x19
ARM GAS  /tmp/ccqsb2PW.s 			page 14


 742 01fe 62020000 		.4byte	0x262
 743 0202 2C       		.byte	0x2c
 744 0203 08       		.uleb128 0x8
 745 0204 0D000000 		.4byte	.LASF38
 746 0208 06       		.byte	0x6
 747 0209 BC       		.byte	0xbc
 748 020a 19       		.byte	0x19
 749 020b F2000000 		.4byte	0xf2
 750 020f 34       		.byte	0x34
 751 0210 08       		.uleb128 0x8
 752 0211 9B060000 		.4byte	.LASF39
 753 0215 06       		.byte	0x6
 754 0216 C2       		.byte	0xc2
 755 0217 19       		.byte	0x19
 756 0218 FE000000 		.4byte	0xfe
 757 021c 38       		.byte	0x38
 758 021d 08       		.uleb128 0x8
 759 021e FF050000 		.4byte	.LASF40
 760 0222 06       		.byte	0x6
 761 0223 C9       		.byte	0xc9
 762 0224 1A       		.byte	0x1a
 763 0225 9A050000 		.4byte	0x59a
 764 0229 3C       		.byte	0x3c
 765 022a 08       		.uleb128 0x8
 766 022b 80070000 		.4byte	.LASF41
 767 022f 06       		.byte	0x6
 768 0230 CD       		.byte	0xcd
 769 0231 19       		.byte	0x19
 770 0232 E6000000 		.4byte	0xe6
 771 0236 40       		.byte	0x40
 772 0237 00       		.byte	0
 773 0238 0A       		.uleb128 0xa
 774 0239 08       		.byte	0x8
 775 023a 05       		.byte	0x5
 776 023b 5A       		.byte	0x5a
 777 023c 09       		.byte	0x9
 778 023d 5C020000 		.4byte	0x25c
 779 0241 08       		.uleb128 0x8
 780 0242 48060000 		.4byte	.LASF24
 781 0246 05       		.byte	0x5
 782 0247 5B       		.byte	0x5b
 783 0248 1A       		.byte	0x1a
 784 0249 5C020000 		.4byte	0x25c
 785 024d 00       		.byte	0
 786 024e 08       		.uleb128 0x8
 787 024f AC050000 		.4byte	.LASF25
 788 0253 05       		.byte	0x5
 789 0254 5D       		.byte	0x5d
 790 0255 1A       		.byte	0x1a
 791 0256 5C020000 		.4byte	0x25c
 792 025a 04       		.byte	0x4
 793 025b 00       		.byte	0
 794 025c 0B       		.uleb128 0xb
 795 025d 04       		.byte	0x4
 796 025e 27010000 		.4byte	0x127
 797 0262 03       		.uleb128 0x3
 798 0263 12050000 		.4byte	.LASF42
ARM GAS  /tmp/ccqsb2PW.s 			page 15


 799 0267 05       		.byte	0x5
 800 0268 5F       		.byte	0x5f
 801 0269 03       		.byte	0x3
 802 026a 38020000 		.4byte	0x238
 803 026e 0A       		.uleb128 0xa
 804 026f 04       		.byte	0x4
 805 0270 05       		.byte	0x5
 806 0271 64       		.byte	0x64
 807 0272 09       		.byte	0x9
 808 0273 85020000 		.4byte	0x285
 809 0277 08       		.uleb128 0x8
 810 0278 48060000 		.4byte	.LASF24
 811 027c 05       		.byte	0x5
 812 027d 66       		.byte	0x66
 813 027e 16       		.byte	0x16
 814 027f 5C020000 		.4byte	0x25c
 815 0283 00       		.byte	0
 816 0284 00       		.byte	0
 817 0285 03       		.uleb128 0x3
 818 0286 43040000 		.4byte	.LASF43
 819 028a 05       		.byte	0x5
 820 028b 69       		.byte	0x69
 821 028c 03       		.byte	0x3
 822 028d 6E020000 		.4byte	0x26e
 823 0291 03       		.uleb128 0x3
 824 0292 79040000 		.4byte	.LASF44
 825 0296 07       		.byte	0x7
 826 0297 9D       		.byte	0x9d
 827 0298 12       		.byte	0x12
 828 0299 97000000 		.4byte	0x97
 829 029d 03       		.uleb128 0x3
 830 029e 01030000 		.4byte	.LASF45
 831 02a2 07       		.byte	0x7
 832 02a3 A2       		.byte	0xa2
 833 02a4 0F       		.byte	0xf
 834 02a5 A9020000 		.4byte	0x2a9
 835 02a9 0C       		.uleb128 0xc
 836 02aa 04       		.byte	0x4
 837 02ab 07       		.uleb128 0x7
 838 02ac DF070000 		.4byte	.LASF46
 839 02b0 24       		.byte	0x24
 840 02b1 07       		.byte	0x7
 841 02b2 B9       		.byte	0xb9
 842 02b3 08       		.byte	0x8
 843 02b4 27030000 		.4byte	0x327
 844 02b8 09       		.uleb128 0x9
 845 02b9 723400   		.ascii	"r4\000"
 846 02bc 07       		.byte	0x7
 847 02bd BA       		.byte	0xba
 848 02be 11       		.byte	0x11
 849 02bf 9D020000 		.4byte	0x29d
 850 02c3 00       		.byte	0
 851 02c4 09       		.uleb128 0x9
 852 02c5 723500   		.ascii	"r5\000"
 853 02c8 07       		.byte	0x7
 854 02c9 BB       		.byte	0xbb
 855 02ca 11       		.byte	0x11
ARM GAS  /tmp/ccqsb2PW.s 			page 16


 856 02cb 9D020000 		.4byte	0x29d
 857 02cf 04       		.byte	0x4
 858 02d0 09       		.uleb128 0x9
 859 02d1 723600   		.ascii	"r6\000"
 860 02d4 07       		.byte	0x7
 861 02d5 BC       		.byte	0xbc
 862 02d6 11       		.byte	0x11
 863 02d7 9D020000 		.4byte	0x29d
 864 02db 08       		.byte	0x8
 865 02dc 09       		.uleb128 0x9
 866 02dd 723700   		.ascii	"r7\000"
 867 02e0 07       		.byte	0x7
 868 02e1 BD       		.byte	0xbd
 869 02e2 11       		.byte	0x11
 870 02e3 9D020000 		.4byte	0x29d
 871 02e7 0C       		.byte	0xc
 872 02e8 09       		.uleb128 0x9
 873 02e9 723800   		.ascii	"r8\000"
 874 02ec 07       		.byte	0x7
 875 02ed BE       		.byte	0xbe
 876 02ee 11       		.byte	0x11
 877 02ef 9D020000 		.4byte	0x29d
 878 02f3 10       		.byte	0x10
 879 02f4 09       		.uleb128 0x9
 880 02f5 723900   		.ascii	"r9\000"
 881 02f8 07       		.byte	0x7
 882 02f9 BF       		.byte	0xbf
 883 02fa 11       		.byte	0x11
 884 02fb 9D020000 		.4byte	0x29d
 885 02ff 14       		.byte	0x14
 886 0300 09       		.uleb128 0x9
 887 0301 72313000 		.ascii	"r10\000"
 888 0305 07       		.byte	0x7
 889 0306 C0       		.byte	0xc0
 890 0307 11       		.byte	0x11
 891 0308 9D020000 		.4byte	0x29d
 892 030c 18       		.byte	0x18
 893 030d 09       		.uleb128 0x9
 894 030e 72313100 		.ascii	"r11\000"
 895 0312 07       		.byte	0x7
 896 0313 C1       		.byte	0xc1
 897 0314 11       		.byte	0x11
 898 0315 9D020000 		.4byte	0x29d
 899 0319 1C       		.byte	0x1c
 900 031a 09       		.uleb128 0x9
 901 031b 6C7200   		.ascii	"lr\000"
 902 031e 07       		.byte	0x7
 903 031f C2       		.byte	0xc2
 904 0320 11       		.byte	0x11
 905 0321 9D020000 		.4byte	0x29d
 906 0325 20       		.byte	0x20
 907 0326 00       		.byte	0
 908 0327 07       		.uleb128 0x7
 909 0328 D1030000 		.4byte	.LASF47
 910 032c 04       		.byte	0x4
 911 032d 07       		.byte	0x7
 912 032e CA       		.byte	0xca
ARM GAS  /tmp/ccqsb2PW.s 			page 17


 913 032f 08       		.byte	0x8
 914 0330 42030000 		.4byte	0x342
 915 0334 09       		.uleb128 0x9
 916 0335 72313300 		.ascii	"r13\000"
 917 0339 07       		.byte	0x7
 918 033a CB       		.byte	0xcb
 919 033b 12       		.byte	0x12
 920 033c 42030000 		.4byte	0x342
 921 0340 00       		.byte	0
 922 0341 00       		.byte	0
 923 0342 0B       		.uleb128 0xb
 924 0343 04       		.byte	0x4
 925 0344 AB020000 		.4byte	0x2ab
 926 0348 03       		.uleb128 0x3
 927 0349 8B070000 		.4byte	.LASF48
 928 034d 08       		.byte	0x8
 929 034e 4E       		.byte	0x4e
 930 034f 10       		.byte	0x10
 931 0350 54030000 		.4byte	0x354
 932 0354 0B       		.uleb128 0xb
 933 0355 04       		.byte	0x4
 934 0356 5A030000 		.4byte	0x35a
 935 035a 0D       		.uleb128 0xd
 936 035b 65030000 		.4byte	0x365
 937 035f 0E       		.uleb128 0xe
 938 0360 A9020000 		.4byte	0x2a9
 939 0364 00       		.byte	0
 940 0365 03       		.uleb128 0x3
 941 0366 CD060000 		.4byte	.LASF49
 942 036a 08       		.byte	0x8
 943 036b 53       		.byte	0x53
 944 036c 1D       		.byte	0x1d
 945 036d 71030000 		.4byte	0x371
 946 0371 07       		.uleb128 0x7
 947 0372 CD060000 		.4byte	.LASF49
 948 0376 14       		.byte	0x14
 949 0377 08       		.byte	0x8
 950 0378 5A       		.byte	0x5a
 951 0379 08       		.byte	0x8
 952 037a C0030000 		.4byte	0x3c0
 953 037e 08       		.uleb128 0x8
 954 037f 5C030000 		.4byte	.LASF50
 955 0383 08       		.byte	0x8
 956 0384 5B       		.byte	0x5b
 957 0385 1A       		.byte	0x1a
 958 0386 C0030000 		.4byte	0x3c0
 959 038a 00       		.byte	0
 960 038b 08       		.uleb128 0x8
 961 038c 0A030000 		.4byte	.LASF51
 962 0390 08       		.byte	0x8
 963 0391 5D       		.byte	0x5d
 964 0392 1A       		.byte	0x1a
 965 0393 C0030000 		.4byte	0x3c0
 966 0397 04       		.byte	0x4
 967 0398 08       		.uleb128 0x8
 968 0399 A3040000 		.4byte	.LASF52
 969 039d 08       		.byte	0x8
ARM GAS  /tmp/ccqsb2PW.s 			page 18


 970 039e 5F       		.byte	0x5f
 971 039f 19       		.byte	0x19
 972 03a0 16010000 		.4byte	0x116
 973 03a4 08       		.byte	0x8
 974 03a5 08       		.uleb128 0x8
 975 03a6 CB040000 		.4byte	.LASF53
 976 03aa 08       		.byte	0x8
 977 03ab 60       		.byte	0x60
 978 03ac 19       		.byte	0x19
 979 03ad 48030000 		.4byte	0x348
 980 03b1 0C       		.byte	0xc
 981 03b2 08       		.uleb128 0x8
 982 03b3 0F080000 		.4byte	.LASF54
 983 03b7 08       		.byte	0x8
 984 03b8 62       		.byte	0x62
 985 03b9 1A       		.byte	0x1a
 986 03ba A9020000 		.4byte	0x2a9
 987 03be 10       		.byte	0x10
 988 03bf 00       		.byte	0
 989 03c0 0B       		.uleb128 0xb
 990 03c1 04       		.byte	0x4
 991 03c2 65030000 		.4byte	0x365
 992 03c6 0A       		.uleb128 0xa
 993 03c7 10       		.byte	0x10
 994 03c8 08       		.byte	0x8
 995 03c9 6C       		.byte	0x6c
 996 03ca 09       		.byte	0x9
 997 03cb 04040000 		.4byte	0x404
 998 03cf 08       		.uleb128 0x8
 999 03d0 5C030000 		.4byte	.LASF50
 1000 03d4 08       		.byte	0x8
 1001 03d5 6D       		.byte	0x6d
 1002 03d6 1A       		.byte	0x1a
 1003 03d7 C0030000 		.4byte	0x3c0
 1004 03db 00       		.byte	0
 1005 03dc 08       		.uleb128 0x8
 1006 03dd 0A030000 		.4byte	.LASF51
 1007 03e1 08       		.byte	0x8
 1008 03e2 6F       		.byte	0x6f
 1009 03e3 1A       		.byte	0x1a
 1010 03e4 C0030000 		.4byte	0x3c0
 1011 03e8 04       		.byte	0x4
 1012 03e9 08       		.uleb128 0x8
 1013 03ea A3040000 		.4byte	.LASF52
 1014 03ee 08       		.byte	0x8
 1015 03ef 71       		.byte	0x71
 1016 03f0 19       		.byte	0x19
 1017 03f1 16010000 		.4byte	0x116
 1018 03f5 08       		.byte	0x8
 1019 03f6 08       		.uleb128 0x8
 1020 03f7 E6080000 		.4byte	.LASF55
 1021 03fb 08       		.byte	0x8
 1022 03fc 72       		.byte	0x72
 1023 03fd 19       		.byte	0x19
 1024 03fe 22010000 		.4byte	0x122
 1025 0402 0C       		.byte	0xc
 1026 0403 00       		.byte	0
ARM GAS  /tmp/ccqsb2PW.s 			page 19


 1027 0404 03       		.uleb128 0x3
 1028 0405 19090000 		.4byte	.LASF56
 1029 0409 08       		.byte	0x8
 1030 040a 73       		.byte	0x73
 1031 040b 03       		.byte	0x3
 1032 040c C6030000 		.4byte	0x3c6
 1033 0410 0F       		.uleb128 0xf
 1034 0411 0B010000 		.4byte	.LASF64
 1035 0415 08       		.byte	0x8
 1036 0416 D1       		.byte	0xd1
 1037 0417 0F       		.byte	0xf
 1038 0418 04040000 		.4byte	0x404
 1039 041c 0A       		.uleb128 0xa
 1040 041d 1C       		.byte	0x1c
 1041 041e 09       		.byte	0x9
 1042 041f 57       		.byte	0x57
 1043 0420 09       		.byte	0x9
 1044 0421 74040000 		.4byte	0x474
 1045 0425 08       		.uleb128 0x8
 1046 0426 C5060000 		.4byte	.LASF57
 1047 042a 09       		.byte	0x9
 1048 042b 58       		.byte	0x58
 1049 042c 19       		.byte	0x19
 1050 042d 62020000 		.4byte	0x262
 1051 0431 00       		.byte	0
 1052 0432 08       		.uleb128 0x8
 1053 0433 31060000 		.4byte	.LASF58
 1054 0437 09       		.byte	0x9
 1055 0438 59       		.byte	0x59
 1056 0439 19       		.byte	0x19
 1057 043a E6000000 		.4byte	0xe6
 1058 043e 08       		.byte	0x8
 1059 043f 08       		.uleb128 0x8
 1060 0440 0C050000 		.4byte	.LASF59
 1061 0444 09       		.byte	0x9
 1062 0445 5B       		.byte	0x5b
 1063 0446 19       		.byte	0x19
 1064 0447 27030000 		.4byte	0x327
 1065 044b 0C       		.byte	0xc
 1066 044c 08       		.uleb128 0x8
 1067 044d F4020000 		.4byte	.LASF60
 1068 0451 09       		.byte	0x9
 1069 0452 5E       		.byte	0x5e
 1070 0453 1A       		.byte	0x1a
 1071 0454 5C020000 		.4byte	0x25c
 1072 0458 10       		.byte	0x10
 1073 0459 08       		.uleb128 0x8
 1074 045a 39050000 		.4byte	.LASF61
 1075 045e 09       		.byte	0x9
 1076 045f 5F       		.byte	0x5f
 1077 0460 1A       		.byte	0x1a
 1078 0461 5C020000 		.4byte	0x25c
 1079 0465 14       		.byte	0x14
 1080 0466 08       		.uleb128 0x8
 1081 0467 2F050000 		.4byte	.LASF62
 1082 046b 09       		.byte	0x9
 1083 046c 62       		.byte	0x62
ARM GAS  /tmp/ccqsb2PW.s 			page 20


 1084 046d 1A       		.byte	0x1a
 1085 046e 5C020000 		.4byte	0x25c
 1086 0472 18       		.byte	0x18
 1087 0473 00       		.byte	0
 1088 0474 03       		.uleb128 0x3
 1089 0475 55080000 		.4byte	.LASF63
 1090 0479 09       		.byte	0x9
 1091 047a 64       		.byte	0x64
 1092 047b 03       		.byte	0x3
 1093 047c 1C040000 		.4byte	0x41c
 1094 0480 0F       		.uleb128 0xf
 1095 0481 8E080000 		.4byte	.LASF65
 1096 0485 09       		.byte	0x9
 1097 0486 68       		.byte	0x68
 1098 0487 12       		.byte	0x12
 1099 0488 74040000 		.4byte	0x474
 1100 048c 07       		.uleb128 0x7
 1101 048d 66040000 		.4byte	.LASF66
 1102 0491 10       		.byte	0x10
 1103 0492 0A       		.byte	0xa
 1104 0493 25       		.byte	0x25
 1105 0494 10       		.byte	0x10
 1106 0495 C1040000 		.4byte	0x4c1
 1107 0499 08       		.uleb128 0x8
 1108 049a F2010000 		.4byte	.LASF67
 1109 049e 0A       		.byte	0xa
 1110 049f 26       		.byte	0x26
 1111 04a0 19       		.byte	0x19
 1112 04a1 62020000 		.4byte	0x262
 1113 04a5 00       		.byte	0
 1114 04a6 08       		.uleb128 0x8
 1115 04a7 31090000 		.4byte	.LASF68
 1116 04ab 0A       		.byte	0xa
 1117 04ac 28       		.byte	0x28
 1118 04ad 1A       		.byte	0x1a
 1119 04ae 5C020000 		.4byte	0x25c
 1120 04b2 08       		.byte	0x8
 1121 04b3 08       		.uleb128 0x8
 1122 04b4 6F070000 		.4byte	.LASF69
 1123 04b8 0A       		.byte	0xa
 1124 04b9 2A       		.byte	0x2a
 1125 04ba 1A       		.byte	0x1a
 1126 04bb C1040000 		.4byte	0x4c1
 1127 04bf 0C       		.byte	0xc
 1128 04c0 00       		.byte	0
 1129 04c1 0B       		.uleb128 0xb
 1130 04c2 04       		.byte	0x4
 1131 04c3 8C040000 		.4byte	0x48c
 1132 04c7 03       		.uleb128 0x3
 1133 04c8 66040000 		.4byte	.LASF66
 1134 04cc 0A       		.byte	0xa
 1135 04cd 2C       		.byte	0x2c
 1136 04ce 03       		.byte	0x3
 1137 04cf 8C040000 		.4byte	0x48c
 1138 04d3 03       		.uleb128 0x3
 1139 04d4 C1080000 		.4byte	.LASF70
 1140 04d8 0B       		.byte	0xb
ARM GAS  /tmp/ccqsb2PW.s 			page 21


 1141 04d9 25       		.byte	0x25
 1142 04da 1E       		.byte	0x1e
 1143 04db DF040000 		.4byte	0x4df
 1144 04df 07       		.uleb128 0x7
 1145 04e0 C1080000 		.4byte	.LASF70
 1146 04e4 10       		.byte	0x10
 1147 04e5 0B       		.byte	0xb
 1148 04e6 2A       		.byte	0x2a
 1149 04e7 08       		.byte	0x8
 1150 04e8 21050000 		.4byte	0x521
 1151 04ec 08       		.uleb128 0x8
 1152 04ed 0B040000 		.4byte	.LASF71
 1153 04f1 0B       		.byte	0xb
 1154 04f2 2B       		.byte	0x2b
 1155 04f3 1A       		.byte	0x1a
 1156 04f4 21050000 		.4byte	0x521
 1157 04f8 00       		.byte	0
 1158 04f9 08       		.uleb128 0x8
 1159 04fa EA050000 		.4byte	.LASF72
 1160 04fe 0B       		.byte	0xb
 1161 04ff 2E       		.byte	0x2e
 1162 0500 1A       		.byte	0x1a
 1163 0501 5C020000 		.4byte	0x25c
 1164 0505 04       		.byte	0x4
 1165 0506 08       		.uleb128 0x8
 1166 0507 41050000 		.4byte	.LASF73
 1167 050b 0B       		.byte	0xb
 1168 050c 30       		.byte	0x30
 1169 050d 19       		.byte	0x19
 1170 050e FE000000 		.4byte	0xfe
 1171 0512 08       		.byte	0x8
 1172 0513 08       		.uleb128 0x8
 1173 0514 F6050000 		.4byte	.LASF74
 1174 0518 0B       		.byte	0xb
 1175 0519 33       		.byte	0x33
 1176 051a 19       		.byte	0x19
 1177 051b 0A010000 		.4byte	0x10a
 1178 051f 0C       		.byte	0xc
 1179 0520 00       		.byte	0
 1180 0521 0B       		.uleb128 0xb
 1181 0522 04       		.byte	0x4
 1182 0523 D3040000 		.4byte	0x4d3
 1183 0527 07       		.uleb128 0x7
 1184 0528 3E030000 		.4byte	.LASF75
 1185 052c 04       		.byte	0x4
 1186 052d 0B       		.byte	0xb
 1187 052e 3A       		.byte	0x3a
 1188 052f 10       		.byte	0x10
 1189 0530 42050000 		.4byte	0x542
 1190 0534 08       		.uleb128 0x8
 1191 0535 F1080000 		.4byte	.LASF76
 1192 0539 0B       		.byte	0xb
 1193 053a 3B       		.byte	0x3b
 1194 053b 1A       		.byte	0x1a
 1195 053c 21050000 		.4byte	0x521
 1196 0540 00       		.byte	0
 1197 0541 00       		.byte	0
ARM GAS  /tmp/ccqsb2PW.s 			page 22


 1198 0542 03       		.uleb128 0x3
 1199 0543 3E030000 		.4byte	.LASF75
 1200 0547 0B       		.byte	0xb
 1201 0548 3E       		.byte	0x3e
 1202 0549 03       		.byte	0x3
 1203 054a 27050000 		.4byte	0x527
 1204 054e 10       		.uleb128 0x10
 1205 054f 04       		.byte	0x4
 1206 0550 06       		.byte	0x6
 1207 0551 8F       		.byte	0x8f
 1208 0552 03       		.byte	0x3
 1209 0553 88050000 		.4byte	0x588
 1210 0557 11       		.uleb128 0x11
 1211 0558 E7000000 		.4byte	.LASF77
 1212 055c 06       		.byte	0x6
 1213 055d 96       		.byte	0x96
 1214 055e 19       		.byte	0x19
 1215 055f F2000000 		.4byte	0xf2
 1216 0563 11       		.uleb128 0x11
 1217 0564 56010000 		.4byte	.LASF78
 1218 0568 06       		.byte	0x6
 1219 0569 9D       		.byte	0x9d
 1220 056a 19       		.byte	0x19
 1221 056b F2000000 		.4byte	0xf2
 1222 056f 11       		.uleb128 0x11
 1223 0570 CF080000 		.4byte	.LASF79
 1224 0574 06       		.byte	0x6
 1225 0575 A4       		.byte	0xa4
 1226 0576 1A       		.byte	0x1a
 1227 0577 A9020000 		.4byte	0x2a9
 1228 057b 11       		.uleb128 0x11
 1229 057c 41060000 		.4byte	.LASF80
 1230 0580 06       		.byte	0x6
 1231 0581 AB       		.byte	0xab
 1232 0582 19       		.byte	0x19
 1233 0583 FE000000 		.4byte	0xfe
 1234 0587 00       		.byte	0
 1235 0588 0B       		.uleb128 0xb
 1236 0589 04       		.byte	0x4
 1237 058a 95050000 		.4byte	0x595
 1238 058e 04       		.uleb128 0x4
 1239 058f 01       		.byte	0x1
 1240 0590 08       		.byte	0x8
 1241 0591 4B070000 		.4byte	.LASF81
 1242 0595 06       		.uleb128 0x6
 1243 0596 8E050000 		.4byte	0x58e
 1244 059a 0B       		.uleb128 0xb
 1245 059b 04       		.byte	0x4
 1246 059c C7040000 		.4byte	0x4c7
 1247 05a0 0B       		.uleb128 0xb
 1248 05a1 04       		.byte	0x4
 1249 05a2 A6050000 		.4byte	0x5a6
 1250 05a6 12       		.uleb128 0x12
 1251 05a7 F2000000 		.4byte	0xf2
 1252 05ab B5050000 		.4byte	0x5b5
 1253 05af 0E       		.uleb128 0xe
 1254 05b0 A9020000 		.4byte	0x2a9
ARM GAS  /tmp/ccqsb2PW.s 			page 23


 1255 05b4 00       		.byte	0
 1256 05b5 0A       		.uleb128 0xa
 1257 05b6 16       		.byte	0x16
 1258 05b7 0C       		.byte	0xc
 1259 05b8 25       		.byte	0x25
 1260 05b9 09       		.byte	0x9
 1261 05ba A9060000 		.4byte	0x6a9
 1262 05be 08       		.uleb128 0x8
 1263 05bf A8030000 		.4byte	.LASF82
 1264 05c3 0C       		.byte	0xc
 1265 05c4 26       		.byte	0x26
 1266 05c5 0D       		.byte	0xd
 1267 05c6 A9060000 		.4byte	0x6a9
 1268 05ca 00       		.byte	0
 1269 05cb 08       		.uleb128 0x8
 1270 05cc 84040000 		.4byte	.LASF83
 1271 05d0 0C       		.byte	0xc
 1272 05d1 27       		.byte	0x27
 1273 05d2 0D       		.byte	0xd
 1274 05d3 6C000000 		.4byte	0x6c
 1275 05d7 04       		.byte	0x4
 1276 05d8 08       		.uleb128 0x8
 1277 05d9 1F050000 		.4byte	.LASF84
 1278 05dd 0C       		.byte	0xc
 1279 05de 28       		.byte	0x28
 1280 05df 0D       		.byte	0xd
 1281 05e0 6C000000 		.4byte	0x6c
 1282 05e4 05       		.byte	0x5
 1283 05e5 08       		.uleb128 0x8
 1284 05e6 03090000 		.4byte	.LASF85
 1285 05ea 0C       		.byte	0xc
 1286 05eb 29       		.byte	0x29
 1287 05ec 0D       		.byte	0xd
 1288 05ed 84000000 		.4byte	0x84
 1289 05f1 06       		.byte	0x6
 1290 05f2 08       		.uleb128 0x8
 1291 05f3 97050000 		.4byte	.LASF86
 1292 05f7 0C       		.byte	0xc
 1293 05f8 2A       		.byte	0x2a
 1294 05f9 0D       		.byte	0xd
 1295 05fa 6C000000 		.4byte	0x6c
 1296 05fe 08       		.byte	0x8
 1297 05ff 08       		.uleb128 0x8
 1298 0600 D3040000 		.4byte	.LASF87
 1299 0604 0C       		.byte	0xc
 1300 0605 2B       		.byte	0x2b
 1301 0606 0D       		.byte	0xd
 1302 0607 6C000000 		.4byte	0x6c
 1303 060b 09       		.byte	0x9
 1304 060c 08       		.uleb128 0x8
 1305 060d 48010000 		.4byte	.LASF88
 1306 0611 0C       		.byte	0xc
 1307 0612 2C       		.byte	0x2c
 1308 0613 0D       		.byte	0xd
 1309 0614 6C000000 		.4byte	0x6c
 1310 0618 0A       		.byte	0xa
 1311 0619 08       		.uleb128 0x8
ARM GAS  /tmp/ccqsb2PW.s 			page 24


 1312 061a B9060000 		.4byte	.LASF89
 1313 061e 0C       		.byte	0xc
 1314 061f 2D       		.byte	0x2d
 1315 0620 0D       		.byte	0xd
 1316 0621 6C000000 		.4byte	0x6c
 1317 0625 0B       		.byte	0xb
 1318 0626 08       		.uleb128 0x8
 1319 0627 3C080000 		.4byte	.LASF90
 1320 062b 0C       		.byte	0xc
 1321 062c 2E       		.byte	0x2e
 1322 062d 0D       		.byte	0xd
 1323 062e 6C000000 		.4byte	0x6c
 1324 0632 0C       		.byte	0xc
 1325 0633 08       		.uleb128 0x8
 1326 0634 83060000 		.4byte	.LASF91
 1327 0638 0C       		.byte	0xc
 1328 0639 2F       		.byte	0x2f
 1329 063a 0D       		.byte	0xd
 1330 063b 6C000000 		.4byte	0x6c
 1331 063f 0D       		.byte	0xd
 1332 0640 08       		.uleb128 0x8
 1333 0641 00000000 		.4byte	.LASF92
 1334 0645 0C       		.byte	0xc
 1335 0646 30       		.byte	0x30
 1336 0647 0D       		.byte	0xd
 1337 0648 6C000000 		.4byte	0x6c
 1338 064c 0E       		.byte	0xe
 1339 064d 08       		.uleb128 0x8
 1340 064e E8040000 		.4byte	.LASF93
 1341 0652 0C       		.byte	0xc
 1342 0653 31       		.byte	0x31
 1343 0654 0D       		.byte	0xd
 1344 0655 6C000000 		.4byte	0x6c
 1345 0659 0F       		.byte	0xf
 1346 065a 08       		.uleb128 0x8
 1347 065b C4010000 		.4byte	.LASF94
 1348 065f 0C       		.byte	0xc
 1349 0660 32       		.byte	0x32
 1350 0661 0D       		.byte	0xd
 1351 0662 6C000000 		.4byte	0x6c
 1352 0666 10       		.byte	0x10
 1353 0667 08       		.uleb128 0x8
 1354 0668 7F010000 		.4byte	.LASF95
 1355 066c 0C       		.byte	0xc
 1356 066d 34       		.byte	0x34
 1357 066e 0D       		.byte	0xd
 1358 066f 6C000000 		.4byte	0x6c
 1359 0673 11       		.byte	0x11
 1360 0674 08       		.uleb128 0x8
 1361 0675 DD010000 		.4byte	.LASF96
 1362 0679 0C       		.byte	0xc
 1363 067a 35       		.byte	0x35
 1364 067b 0D       		.byte	0xd
 1365 067c 6C000000 		.4byte	0x6c
 1366 0680 12       		.byte	0x12
 1367 0681 08       		.uleb128 0x8
 1368 0682 8C040000 		.4byte	.LASF97
ARM GAS  /tmp/ccqsb2PW.s 			page 25


 1369 0686 0C       		.byte	0xc
 1370 0687 36       		.byte	0x36
 1371 0688 0D       		.byte	0xd
 1372 0689 6C000000 		.4byte	0x6c
 1373 068d 13       		.byte	0x13
 1374 068e 08       		.uleb128 0x8
 1375 068f 57060000 		.4byte	.LASF98
 1376 0693 0C       		.byte	0xc
 1377 0694 37       		.byte	0x37
 1378 0695 0D       		.byte	0xd
 1379 0696 6C000000 		.4byte	0x6c
 1380 069a 14       		.byte	0x14
 1381 069b 08       		.uleb128 0x8
 1382 069c 25060000 		.4byte	.LASF99
 1383 06a0 0C       		.byte	0xc
 1384 06a1 39       		.byte	0x39
 1385 06a2 0D       		.byte	0xd
 1386 06a3 6C000000 		.4byte	0x6c
 1387 06a7 15       		.byte	0x15
 1388 06a8 00       		.byte	0
 1389 06a9 13       		.uleb128 0x13
 1390 06aa 8E050000 		.4byte	0x58e
 1391 06ae B9060000 		.4byte	0x6b9
 1392 06b2 14       		.uleb128 0x14
 1393 06b3 38000000 		.4byte	0x38
 1394 06b7 03       		.byte	0x3
 1395 06b8 00       		.byte	0
 1396 06b9 03       		.uleb128 0x3
 1397 06ba 77020000 		.4byte	.LASF100
 1398 06be 0C       		.byte	0xc
 1399 06bf 3A       		.byte	0x3a
 1400 06c0 03       		.byte	0x3
 1401 06c1 B5050000 		.4byte	0x5b5
 1402 06c5 06       		.uleb128 0x6
 1403 06c6 B9060000 		.4byte	0x6b9
 1404 06ca 0F       		.uleb128 0xf
 1405 06cb 9A030000 		.4byte	.LASF101
 1406 06cf 0C       		.byte	0xc
 1407 06d0 77       		.byte	0x77
 1408 06d1 1D       		.byte	0x1d
 1409 06d2 C5060000 		.4byte	0x6c5
 1410 06d6 03       		.uleb128 0x3
 1411 06d7 6C040000 		.4byte	.LASF102
 1412 06db 0D       		.byte	0xd
 1413 06dc 30       		.byte	0x30
 1414 06dd 1D       		.byte	0x1d
 1415 06de E2060000 		.4byte	0x6e2
 1416 06e2 07       		.uleb128 0x7
 1417 06e3 6C040000 		.4byte	.LASF102
 1418 06e7 24       		.byte	0x24
 1419 06e8 0D       		.byte	0xd
 1420 06e9 3E       		.byte	0x3e
 1421 06ea 08       		.byte	0x8
 1422 06eb 58070000 		.4byte	0x758
 1423 06ef 08       		.uleb128 0x8
 1424 06f0 A0010000 		.4byte	.LASF103
 1425 06f4 0D       		.byte	0xd
ARM GAS  /tmp/ccqsb2PW.s 			page 26


 1426 06f5 3F       		.byte	0x3f
 1427 06f6 19       		.byte	0x19
 1428 06f7 62020000 		.4byte	0x262
 1429 06fb 00       		.byte	0
 1430 06fc 08       		.uleb128 0x8
 1431 06fd C1040000 		.4byte	.LASF104
 1432 0701 0D       		.byte	0xd
 1433 0702 40       		.byte	0x40
 1434 0703 19       		.byte	0x19
 1435 0704 2C000000 		.4byte	0x2c
 1436 0708 08       		.byte	0x8
 1437 0709 08       		.uleb128 0x8
 1438 070a 60020000 		.4byte	.LASF105
 1439 070e 0D       		.byte	0xd
 1440 070f 41       		.byte	0x41
 1441 0710 1A       		.byte	0x1a
 1442 0711 7B070000 		.4byte	0x77b
 1443 0715 0C       		.byte	0xc
 1444 0716 08       		.uleb128 0x8
 1445 0717 2B010000 		.4byte	.LASF106
 1446 071b 0D       		.byte	0xd
 1447 071c 42       		.byte	0x42
 1448 071d 1A       		.byte	0x1a
 1449 071e 7B070000 		.4byte	0x77b
 1450 0722 10       		.byte	0x10
 1451 0723 08       		.uleb128 0x8
 1452 0724 04050000 		.4byte	.LASF107
 1453 0728 0D       		.byte	0xd
 1454 0729 44       		.byte	0x44
 1455 072a 1A       		.byte	0x1a
 1456 072b 7B070000 		.4byte	0x77b
 1457 072f 14       		.byte	0x14
 1458 0730 08       		.uleb128 0x8
 1459 0731 BB050000 		.4byte	.LASF108
 1460 0735 0D       		.byte	0xd
 1461 0736 45       		.byte	0x45
 1462 0737 1A       		.byte	0x1a
 1463 0738 7B070000 		.4byte	0x77b
 1464 073c 18       		.byte	0x18
 1465 073d 08       		.uleb128 0x8
 1466 073e 85080000 		.4byte	.LASF109
 1467 0742 0D       		.byte	0xd
 1468 0743 46       		.byte	0x46
 1469 0744 19       		.byte	0x19
 1470 0745 58070000 		.4byte	0x758
 1471 0749 1C       		.byte	0x1c
 1472 074a 08       		.uleb128 0x8
 1473 074b 20090000 		.4byte	.LASF110
 1474 074f 0D       		.byte	0xd
 1475 0750 47       		.byte	0x47
 1476 0751 1A       		.byte	0x1a
 1477 0752 A9020000 		.4byte	0x2a9
 1478 0756 20       		.byte	0x20
 1479 0757 00       		.byte	0
 1480 0758 03       		.uleb128 0x3
 1481 0759 A2050000 		.4byte	.LASF111
 1482 075d 0D       		.byte	0xd
ARM GAS  /tmp/ccqsb2PW.s 			page 27


 1483 075e 33       		.byte	0x33
 1484 075f 10       		.byte	0x10
 1485 0760 64070000 		.4byte	0x764
 1486 0764 0B       		.uleb128 0xb
 1487 0765 04       		.byte	0x4
 1488 0766 6A070000 		.4byte	0x76a
 1489 076a 0D       		.uleb128 0xd
 1490 076b 75070000 		.4byte	0x775
 1491 076f 0E       		.uleb128 0xe
 1492 0770 75070000 		.4byte	0x775
 1493 0774 00       		.byte	0
 1494 0775 0B       		.uleb128 0xb
 1495 0776 04       		.byte	0x4
 1496 0777 D6060000 		.4byte	0x6d6
 1497 077b 0B       		.uleb128 0xb
 1498 077c 04       		.byte	0x4
 1499 077d 6C000000 		.4byte	0x6c
 1500 0781 03       		.uleb128 0x3
 1501 0782 5B040000 		.4byte	.LASF112
 1502 0786 0D       		.byte	0xd
 1503 0787 7B       		.byte	0x7b
 1504 0788 16       		.byte	0x16
 1505 0789 D6060000 		.4byte	0x6d6
 1506 078d 03       		.uleb128 0x3
 1507 078e F4000000 		.4byte	.LASF113
 1508 0792 0D       		.byte	0xd
 1509 0793 EE       		.byte	0xee
 1510 0794 16       		.byte	0x16
 1511 0795 D6060000 		.4byte	0x6d6
 1512 0799 12       		.uleb128 0x12
 1513 079a 2C000000 		.4byte	0x2c
 1514 079e B2070000 		.4byte	0x7b2
 1515 07a2 0E       		.uleb128 0xe
 1516 07a3 A9020000 		.4byte	0x2a9
 1517 07a7 0E       		.uleb128 0xe
 1518 07a8 B2070000 		.4byte	0x7b2
 1519 07ac 0E       		.uleb128 0xe
 1520 07ad 2C000000 		.4byte	0x2c
 1521 07b1 00       		.byte	0
 1522 07b2 0B       		.uleb128 0xb
 1523 07b3 04       		.byte	0x4
 1524 07b4 78000000 		.4byte	0x78
 1525 07b8 0B       		.uleb128 0xb
 1526 07b9 04       		.byte	0x4
 1527 07ba 99070000 		.4byte	0x799
 1528 07be 12       		.uleb128 0x12
 1529 07bf 2C000000 		.4byte	0x2c
 1530 07c3 D7070000 		.4byte	0x7d7
 1531 07c7 0E       		.uleb128 0xe
 1532 07c8 A9020000 		.4byte	0x2a9
 1533 07cc 0E       		.uleb128 0xe
 1534 07cd 7B070000 		.4byte	0x77b
 1535 07d1 0E       		.uleb128 0xe
 1536 07d2 2C000000 		.4byte	0x2c
 1537 07d6 00       		.byte	0
 1538 07d7 0B       		.uleb128 0xb
 1539 07d8 04       		.byte	0x4
ARM GAS  /tmp/ccqsb2PW.s 			page 28


 1540 07d9 BE070000 		.4byte	0x7be
 1541 07dd 12       		.uleb128 0x12
 1542 07de F2000000 		.4byte	0xf2
 1543 07e2 F1070000 		.4byte	0x7f1
 1544 07e6 0E       		.uleb128 0xe
 1545 07e7 A9020000 		.4byte	0x2a9
 1546 07eb 0E       		.uleb128 0xe
 1547 07ec 6C000000 		.4byte	0x6c
 1548 07f0 00       		.byte	0
 1549 07f1 0B       		.uleb128 0xb
 1550 07f2 04       		.byte	0x4
 1551 07f3 DD070000 		.4byte	0x7dd
 1552 07f7 13       		.uleb128 0x13
 1553 07f8 91020000 		.4byte	0x291
 1554 07fc 07080000 		.4byte	0x807
 1555 0800 14       		.uleb128 0x14
 1556 0801 38000000 		.4byte	0x38
 1557 0805 26       		.byte	0x26
 1558 0806 00       		.byte	0
 1559 0807 0F       		.uleb128 0xf
 1560 0808 A3020000 		.4byte	.LASF114
 1561 080c 0E       		.byte	0xe
 1562 080d 82       		.byte	0x82
 1563 080e 08       		.byte	0x8
 1564 080f F7070000 		.4byte	0x7f7
 1565 0813 07       		.uleb128 0x7
 1566 0814 12010000 		.4byte	.LASF115
 1567 0818 20       		.byte	0x20
 1568 0819 0F       		.byte	0xf
 1569 081a FD       		.byte	0xfd
 1570 081b 08       		.byte	0x8
 1571 081c 8F080000 		.4byte	0x88f
 1572 0820 08       		.uleb128 0x8
 1573 0821 EC020000 		.4byte	.LASF116
 1574 0825 0F       		.byte	0xf
 1575 0826 FE       		.byte	0xfe
 1576 0827 19       		.byte	0x19
 1577 0828 3F000000 		.4byte	0x3f
 1578 082c 00       		.byte	0
 1579 082d 08       		.uleb128 0x8
 1580 082e 4E080000 		.4byte	.LASF117
 1581 0832 0F       		.byte	0xf
 1582 0833 FF       		.byte	0xff
 1583 0834 19       		.byte	0x19
 1584 0835 3F000000 		.4byte	0x3f
 1585 0839 04       		.byte	0x4
 1586 083a 15       		.uleb128 0x15
 1587 083b 0E090000 		.4byte	.LASF118
 1588 083f 0F       		.byte	0xf
 1589 0840 0001     		.2byte	0x100
 1590 0842 19       		.byte	0x19
 1591 0843 3F000000 		.4byte	0x3f
 1592 0847 08       		.byte	0x8
 1593 0848 15       		.uleb128 0x15
 1594 0849 12030000 		.4byte	.LASF119
 1595 084d 0F       		.byte	0xf
 1596 084e 0101     		.2byte	0x101
ARM GAS  /tmp/ccqsb2PW.s 			page 29


 1597 0850 19       		.byte	0x19
 1598 0851 3F000000 		.4byte	0x3f
 1599 0855 0C       		.byte	0xc
 1600 0856 15       		.uleb128 0x15
 1601 0857 6F010000 		.4byte	.LASF120
 1602 085b 0F       		.byte	0xf
 1603 085c 0201     		.2byte	0x102
 1604 085e 19       		.byte	0x19
 1605 085f 3F000000 		.4byte	0x3f
 1606 0863 10       		.byte	0x10
 1607 0864 15       		.uleb128 0x15
 1608 0865 B4040000 		.4byte	.LASF121
 1609 0869 0F       		.byte	0xf
 1610 086a 0301     		.2byte	0x103
 1611 086c 19       		.byte	0x19
 1612 086d 3F000000 		.4byte	0x3f
 1613 0871 14       		.byte	0x14
 1614 0872 15       		.uleb128 0x15
 1615 0873 50020000 		.4byte	.LASF122
 1616 0877 0F       		.byte	0xf
 1617 0878 0401     		.2byte	0x104
 1618 087a 19       		.byte	0x19
 1619 087b 3F000000 		.4byte	0x3f
 1620 087f 18       		.byte	0x18
 1621 0880 15       		.uleb128 0x15
 1622 0881 64090000 		.4byte	.LASF123
 1623 0885 0F       		.byte	0xf
 1624 0886 0501     		.2byte	0x105
 1625 0888 19       		.byte	0x19
 1626 0889 3F000000 		.4byte	0x3f
 1627 088d 1C       		.byte	0x1c
 1628 088e 00       		.byte	0
 1629 088f 16       		.uleb128 0x16
 1630 0890 12010000 		.4byte	.LASF115
 1631 0894 0F       		.byte	0xf
 1632 0895 0801     		.2byte	0x108
 1633 0897 1C       		.byte	0x1c
 1634 0898 13080000 		.4byte	0x813
 1635 089c 12       		.uleb128 0x12
 1636 089d F2000000 		.4byte	0xf2
 1637 08a1 B5080000 		.4byte	0x8b5
 1638 08a5 0E       		.uleb128 0xe
 1639 08a6 A9020000 		.4byte	0x2a9
 1640 08aa 0E       		.uleb128 0xe
 1641 08ab 6C000000 		.4byte	0x6c
 1642 08af 0E       		.uleb128 0xe
 1643 08b0 16010000 		.4byte	0x116
 1644 08b4 00       		.byte	0
 1645 08b5 0B       		.uleb128 0xb
 1646 08b6 04       		.byte	0x4
 1647 08b7 9C080000 		.4byte	0x89c
 1648 08bb 12       		.uleb128 0x12
 1649 08bc F2000000 		.4byte	0xf2
 1650 08c0 CF080000 		.4byte	0x8cf
 1651 08c4 0E       		.uleb128 0xe
 1652 08c5 A9020000 		.4byte	0x2a9
 1653 08c9 0E       		.uleb128 0xe
ARM GAS  /tmp/ccqsb2PW.s 			page 30


 1654 08ca 16010000 		.4byte	0x116
 1655 08ce 00       		.byte	0
 1656 08cf 0B       		.uleb128 0xb
 1657 08d0 04       		.byte	0x4
 1658 08d1 BB080000 		.4byte	0x8bb
 1659 08d5 12       		.uleb128 0x12
 1660 08d6 2C000000 		.4byte	0x2c
 1661 08da F3080000 		.4byte	0x8f3
 1662 08de 0E       		.uleb128 0xe
 1663 08df A9020000 		.4byte	0x2a9
 1664 08e3 0E       		.uleb128 0xe
 1665 08e4 B2070000 		.4byte	0x7b2
 1666 08e8 0E       		.uleb128 0xe
 1667 08e9 2C000000 		.4byte	0x2c
 1668 08ed 0E       		.uleb128 0xe
 1669 08ee 16010000 		.4byte	0x116
 1670 08f2 00       		.byte	0
 1671 08f3 0B       		.uleb128 0xb
 1672 08f4 04       		.byte	0x4
 1673 08f5 D5080000 		.4byte	0x8d5
 1674 08f9 12       		.uleb128 0x12
 1675 08fa 2C000000 		.4byte	0x2c
 1676 08fe 17090000 		.4byte	0x917
 1677 0902 0E       		.uleb128 0xe
 1678 0903 A9020000 		.4byte	0x2a9
 1679 0907 0E       		.uleb128 0xe
 1680 0908 7B070000 		.4byte	0x77b
 1681 090c 0E       		.uleb128 0xe
 1682 090d 2C000000 		.4byte	0x2c
 1683 0911 0E       		.uleb128 0xe
 1684 0912 16010000 		.4byte	0x116
 1685 0916 00       		.byte	0
 1686 0917 0B       		.uleb128 0xb
 1687 0918 04       		.byte	0x4
 1688 0919 F9080000 		.4byte	0x8f9
 1689 091d 0A       		.uleb128 0xa
 1690 091e 18       		.byte	0x18
 1691 091f 10       		.byte	0x10
 1692 0920 2A       		.byte	0x2a
 1693 0921 09       		.byte	0x9
 1694 0922 75090000 		.4byte	0x975
 1695 0926 08       		.uleb128 0x8
 1696 0927 BB080000 		.4byte	.LASF124
 1697 092b 10       		.byte	0x10
 1698 092c 2F       		.byte	0x2f
 1699 092d 15       		.byte	0x15
 1700 092e 97000000 		.4byte	0x97
 1701 0932 00       		.byte	0
 1702 0933 08       		.uleb128 0x8
 1703 0934 49050000 		.4byte	.LASF125
 1704 0938 10       		.byte	0x10
 1705 0939 31       		.byte	0x31
 1706 093a 16       		.byte	0x16
 1707 093b 75090000 		.4byte	0x975
 1708 093f 04       		.byte	0x4
 1709 0940 08       		.uleb128 0x8
 1710 0941 F8030000 		.4byte	.LASF126
ARM GAS  /tmp/ccqsb2PW.s 			page 31


 1711 0945 10       		.byte	0x10
 1712 0946 32       		.byte	0x32
 1713 0947 16       		.byte	0x16
 1714 0948 75090000 		.4byte	0x975
 1715 094c 08       		.byte	0x8
 1716 094d 08       		.uleb128 0x8
 1717 094e 98040000 		.4byte	.LASF127
 1718 0952 10       		.byte	0x10
 1719 0953 33       		.byte	0x33
 1720 0954 16       		.byte	0x16
 1721 0955 75090000 		.4byte	0x975
 1722 0959 0C       		.byte	0xc
 1723 095a 08       		.uleb128 0x8
 1724 095b 4F050000 		.4byte	.LASF128
 1725 095f 10       		.byte	0x10
 1726 0960 34       		.byte	0x34
 1727 0961 16       		.byte	0x16
 1728 0962 75090000 		.4byte	0x975
 1729 0966 10       		.byte	0x10
 1730 0967 08       		.uleb128 0x8
 1731 0968 38060000 		.4byte	.LASF129
 1732 096c 10       		.byte	0x10
 1733 096d 35       		.byte	0x35
 1734 096e 10       		.byte	0x10
 1735 096f 38000000 		.4byte	0x38
 1736 0973 14       		.byte	0x14
 1737 0974 00       		.byte	0
 1738 0975 0B       		.uleb128 0xb
 1739 0976 04       		.byte	0x4
 1740 0977 A3000000 		.4byte	0xa3
 1741 097b 03       		.uleb128 0x3
 1742 097c EC030000 		.4byte	.LASF130
 1743 0980 10       		.byte	0x10
 1744 0981 37       		.byte	0x37
 1745 0982 03       		.byte	0x3
 1746 0983 1D090000 		.4byte	0x91d
 1747 0987 17       		.uleb128 0x17
 1748 0988 00       		.byte	0
 1749 0989 10       		.byte	0x10
 1750 098a 43       		.byte	0x43
 1751 098b 09       		.byte	0x9
 1752 098c 03       		.uleb128 0x3
 1753 098d 27090000 		.4byte	.LASF131
 1754 0991 10       		.byte	0x10
 1755 0992 45       		.byte	0x45
 1756 0993 03       		.byte	0x3
 1757 0994 87090000 		.4byte	0x987
 1758 0998 06       		.uleb128 0x6
 1759 0999 8C090000 		.4byte	0x98c
 1760 099d 03       		.uleb128 0x3
 1761 099e 1E010000 		.4byte	.LASF132
 1762 09a2 10       		.byte	0x10
 1763 09a3 55       		.byte	0x55
 1764 09a4 12       		.byte	0x12
 1765 09a5 97000000 		.4byte	0x97
 1766 09a9 03       		.uleb128 0x3
 1767 09aa A8070000 		.4byte	.LASF133
ARM GAS  /tmp/ccqsb2PW.s 			page 32


 1768 09ae 10       		.byte	0x10
 1769 09af 62       		.byte	0x62
 1770 09b0 16       		.byte	0x16
 1771 09b1 B5090000 		.4byte	0x9b5
 1772 09b5 0B       		.uleb128 0xb
 1773 09b6 04       		.byte	0x4
 1774 09b7 7B090000 		.4byte	0x97b
 1775 09bb 0F       		.uleb128 0xf
 1776 09bc 27050000 		.4byte	.LASF134
 1777 09c0 10       		.byte	0x10
 1778 09c1 6D       		.byte	0x6d
 1779 09c2 14       		.byte	0x14
 1780 09c3 7B090000 		.4byte	0x97b
 1781 09c7 0F       		.uleb128 0xf
 1782 09c8 4F060000 		.4byte	.LASF135
 1783 09cc 10       		.byte	0x10
 1784 09cd 6E       		.byte	0x6e
 1785 09ce 14       		.byte	0x14
 1786 09cf 7B090000 		.4byte	0x97b
 1787 09d3 0F       		.uleb128 0xf
 1788 09d4 39090000 		.4byte	.LASF136
 1789 09d8 10       		.byte	0x10
 1790 09d9 75       		.byte	0x75
 1791 09da 18       		.byte	0x18
 1792 09db 98090000 		.4byte	0x998
 1793 09df 18       		.uleb128 0x18
 1794 09e0 07       		.byte	0x7
 1795 09e1 01       		.byte	0x1
 1796 09e2 7D000000 		.4byte	0x7d
 1797 09e6 11       		.byte	0x11
 1798 09e7 54       		.byte	0x54
 1799 09e8 0E       		.byte	0xe
 1800 09e9 120A0000 		.4byte	0xa12
 1801 09ed 19       		.uleb128 0x19
 1802 09ee 17020000 		.4byte	.LASF137
 1803 09f2 00       		.byte	0
 1804 09f3 19       		.uleb128 0x19
 1805 09f4 AB040000 		.4byte	.LASF138
 1806 09f8 01       		.byte	0x1
 1807 09f9 19       		.uleb128 0x19
 1808 09fa 94070000 		.4byte	.LASF139
 1809 09fe 02       		.byte	0x2
 1810 09ff 19       		.uleb128 0x19
 1811 0a00 81020000 		.4byte	.LASF140
 1812 0a04 03       		.byte	0x3
 1813 0a05 19       		.uleb128 0x19
 1814 0a06 38070000 		.4byte	.LASF141
 1815 0a0a 04       		.byte	0x4
 1816 0a0b 19       		.uleb128 0x19
 1817 0a0c 90060000 		.4byte	.LASF142
 1818 0a10 05       		.byte	0x5
 1819 0a11 00       		.byte	0
 1820 0a12 03       		.uleb128 0x3
 1821 0a13 8C050000 		.4byte	.LASF143
 1822 0a17 11       		.byte	0x11
 1823 0a18 5B       		.byte	0x5b
 1824 0a19 03       		.byte	0x3
ARM GAS  /tmp/ccqsb2PW.s 			page 33


 1825 0a1a DF090000 		.4byte	0x9df
 1826 0a1e 03       		.uleb128 0x3
 1827 0a1f 9E070000 		.4byte	.LASF144
 1828 0a23 12       		.byte	0x12
 1829 0a24 38       		.byte	0x38
 1830 0a25 1A       		.byte	0x1a
 1831 0a26 2A0A0000 		.4byte	0xa2a
 1832 0a2a 07       		.uleb128 0x7
 1833 0a2b 9E070000 		.4byte	.LASF144
 1834 0a2f 40       		.byte	0x40
 1835 0a30 12       		.byte	0x12
 1836 0a31 62       		.byte	0x62
 1837 0a32 08       		.byte	0x8
 1838 0a33 E10A0000 		.4byte	0xae1
 1839 0a37 08       		.uleb128 0x8
 1840 0a38 2C020000 		.4byte	.LASF145
 1841 0a3c 12       		.byte	0x12
 1842 0a3d 64       		.byte	0x64
 1843 0a3e 1D       		.byte	0x1d
 1844 0a3f 120A0000 		.4byte	0xa12
 1845 0a43 00       		.byte	0
 1846 0a44 08       		.uleb128 0x8
 1847 0a45 5D070000 		.4byte	.LASF146
 1848 0a49 12       		.byte	0x12
 1849 0a4a 66       		.byte	0x66
 1850 0a4b 1E       		.byte	0x1e
 1851 0a4c 210B0000 		.4byte	0xb21
 1852 0a50 04       		.byte	0x4
 1853 0a51 08       		.uleb128 0x8
 1854 0a52 7A030000 		.4byte	.LASF147
 1855 0a56 12       		.byte	0x12
 1856 0a57 68       		.byte	0x68
 1857 0a58 1D       		.byte	0x1d
 1858 0a59 E10A0000 		.4byte	0xae1
 1859 0a5d 08       		.byte	0x8
 1860 0a5e 08       		.uleb128 0x8
 1861 0a5f 99010000 		.4byte	.LASF148
 1862 0a63 12       		.byte	0x12
 1863 0a64 6A       		.byte	0x6a
 1864 0a65 1E       		.byte	0x1e
 1865 0a66 270B0000 		.4byte	0xb27
 1866 0a6a 0C       		.byte	0xc
 1867 0a6b 08       		.uleb128 0x8
 1868 0a6c CE050000 		.4byte	.LASF149
 1869 0a70 12       		.byte	0x12
 1870 0a71 6D       		.byte	0x6d
 1871 0a72 1D       		.byte	0x1d
 1872 0a73 C7040000 		.4byte	0x4c7
 1873 0a77 10       		.byte	0x10
 1874 0a78 08       		.uleb128 0x8
 1875 0a79 49020000 		.4byte	.LASF150
 1876 0a7d 12       		.byte	0x12
 1877 0a7e 77       		.byte	0x77
 1878 0a7f 1E       		.byte	0x1e
 1879 0a80 5C020000 		.4byte	0x25c
 1880 0a84 20       		.byte	0x20
 1881 0a85 08       		.uleb128 0x8
ARM GAS  /tmp/ccqsb2PW.s 			page 34


 1882 0a86 FA010000 		.4byte	.LASF151
 1883 0a8a 12       		.byte	0x12
 1884 0a8b 7B       		.byte	0x7b
 1885 0a8c 1D       		.byte	0x1d
 1886 0a8d ED0A0000 		.4byte	0xaed
 1887 0a91 24       		.byte	0x24
 1888 0a92 08       		.uleb128 0x8
 1889 0a93 64030000 		.4byte	.LASF152
 1890 0a97 12       		.byte	0x12
 1891 0a98 7F       		.byte	0x7f
 1892 0a99 1E       		.byte	0x1e
 1893 0a9a B2070000 		.4byte	0x7b2
 1894 0a9e 28       		.byte	0x28
 1895 0a9f 08       		.uleb128 0x8
 1896 0aa0 5C090000 		.4byte	.LASF153
 1897 0aa4 12       		.byte	0x12
 1898 0aa5 83       		.byte	0x83
 1899 0aa6 1D       		.byte	0x1d
 1900 0aa7 2C000000 		.4byte	0x2c
 1901 0aab 2C       		.byte	0x2c
 1902 0aac 08       		.uleb128 0x8
 1903 0aad 36080000 		.4byte	.LASF154
 1904 0ab1 12       		.byte	0x12
 1905 0ab2 87       		.byte	0x87
 1906 0ab3 1D       		.byte	0x1d
 1907 0ab4 2C000000 		.4byte	0x2c
 1908 0ab8 30       		.byte	0x30
 1909 0ab9 08       		.uleb128 0x8
 1910 0aba 69010000 		.4byte	.LASF155
 1911 0abe 12       		.byte	0x12
 1912 0abf 8B       		.byte	0x8b
 1913 0ac0 1E       		.byte	0x1e
 1914 0ac1 7B070000 		.4byte	0x77b
 1915 0ac5 34       		.byte	0x34
 1916 0ac6 08       		.uleb128 0x8
 1917 0ac7 FC040000 		.4byte	.LASF156
 1918 0acb 12       		.byte	0x12
 1919 0acc 8F       		.byte	0x8f
 1920 0acd 1D       		.byte	0x1d
 1921 0ace 2C000000 		.4byte	0x2c
 1922 0ad2 38       		.byte	0x38
 1923 0ad3 08       		.uleb128 0x8
 1924 0ad4 5A020000 		.4byte	.LASF157
 1925 0ad8 12       		.byte	0x12
 1926 0ad9 93       		.byte	0x93
 1927 0ada 1D       		.byte	0x1d
 1928 0adb 2C000000 		.4byte	0x2c
 1929 0adf 3C       		.byte	0x3c
 1930 0ae0 00       		.byte	0
 1931 0ae1 03       		.uleb128 0x3
 1932 0ae2 C3050000 		.4byte	.LASF158
 1933 0ae6 12       		.byte	0x12
 1934 0ae7 42       		.byte	0x42
 1935 0ae8 12       		.byte	0x12
 1936 0ae9 97000000 		.4byte	0x97
 1937 0aed 03       		.uleb128 0x3
 1938 0aee 22020000 		.4byte	.LASF159
ARM GAS  /tmp/ccqsb2PW.s 			page 35


 1939 0af2 12       		.byte	0x12
 1940 0af3 48       		.byte	0x48
 1941 0af4 12       		.byte	0x12
 1942 0af5 84000000 		.4byte	0x84
 1943 0af9 0A       		.uleb128 0xa
 1944 0afa 04       		.byte	0x4
 1945 0afb 12       		.byte	0x12
 1946 0afc 57       		.byte	0x57
 1947 0afd 09       		.byte	0x9
 1948 0afe 100B0000 		.4byte	0xb10
 1949 0b02 08       		.uleb128 0x8
 1950 0b03 DF040000 		.4byte	.LASF160
 1951 0b07 12       		.byte	0x12
 1952 0b08 59       		.byte	0x59
 1953 0b09 1D       		.byte	0x1d
 1954 0b0a 97000000 		.4byte	0x97
 1955 0b0e 00       		.byte	0
 1956 0b0f 00       		.byte	0
 1957 0b10 03       		.uleb128 0x3
 1958 0b11 22080000 		.4byte	.LASF161
 1959 0b15 12       		.byte	0x12
 1960 0b16 5B       		.byte	0x5b
 1961 0b17 03       		.byte	0x3
 1962 0b18 F90A0000 		.4byte	0xaf9
 1963 0b1c 06       		.uleb128 0x6
 1964 0b1d 100B0000 		.4byte	0xb10
 1965 0b21 0B       		.uleb128 0xb
 1966 0b22 04       		.byte	0x4
 1967 0b23 1C0B0000 		.4byte	0xb1c
 1968 0b27 0B       		.uleb128 0xb
 1969 0b28 04       		.byte	0x4
 1970 0b29 8F080000 		.4byte	0x88f
 1971 0b2d 0F       		.uleb128 0xf
 1972 0b2e 34030000 		.4byte	.LASF162
 1973 0b32 12       		.byte	0x12
 1974 0b33 A6       		.byte	0xa6
 1975 0b34 12       		.byte	0x12
 1976 0b35 1E0A0000 		.4byte	0xa1e
 1977 0b39 18       		.uleb128 0x18
 1978 0b3a 07       		.byte	0x7
 1979 0b3b 01       		.byte	0x1
 1980 0b3c 7D000000 		.4byte	0x7d
 1981 0b40 13       		.byte	0x13
 1982 0b41 5D       		.byte	0x5d
 1983 0b42 0E       		.byte	0xe
 1984 0b43 5A0B0000 		.4byte	0xb5a
 1985 0b47 19       		.uleb128 0x19
 1986 0b48 A6060000 		.4byte	.LASF163
 1987 0b4c 00       		.byte	0
 1988 0b4d 19       		.uleb128 0x19
 1989 0b4e EA010000 		.4byte	.LASF164
 1990 0b52 01       		.byte	0x1
 1991 0b53 19       		.uleb128 0x19
 1992 0b54 F1070000 		.4byte	.LASF165
 1993 0b58 02       		.byte	0x2
 1994 0b59 00       		.byte	0
 1995 0b5a 03       		.uleb128 0x3
ARM GAS  /tmp/ccqsb2PW.s 			page 36


 1996 0b5b 2C080000 		.4byte	.LASF166
 1997 0b5f 13       		.byte	0x13
 1998 0b60 61       		.byte	0x61
 1999 0b61 03       		.byte	0x3
 2000 0b62 390B0000 		.4byte	0xb39
 2001 0b66 03       		.uleb128 0x3
 2002 0b67 8C010000 		.4byte	.LASF167
 2003 0b6b 13       		.byte	0x13
 2004 0b6c 66       		.byte	0x66
 2005 0b6d 1D       		.byte	0x1d
 2006 0b6e 720B0000 		.4byte	0xb72
 2007 0b72 07       		.uleb128 0x7
 2008 0b73 8C010000 		.4byte	.LASF167
 2009 0b77 74       		.byte	0x74
 2010 0b78 13       		.byte	0x13
 2011 0b79 80       		.byte	0x80
 2012 0b7a 08       		.byte	0x8
 2013 0b7b D90B0000 		.4byte	0xbd9
 2014 0b7f 09       		.uleb128 0x9
 2015 0b80 766D7400 		.ascii	"vmt\000"
 2016 0b84 13       		.byte	0x13
 2017 0b85 82       		.byte	0x82
 2018 0b86 21       		.byte	0x21
 2019 0b87 600C0000 		.4byte	0xc60
 2020 0b8b 00       		.byte	0
 2021 0b8c 08       		.uleb128 0x8
 2022 0b8d CB030000 		.4byte	.LASF168
 2023 0b91 13       		.byte	0x13
 2024 0b92 83       		.byte	0x83
 2025 0b93 03       		.byte	0x3
 2026 0b94 42050000 		.4byte	0x542
 2027 0b98 04       		.byte	0x4
 2028 0b99 08       		.uleb128 0x8
 2029 0b9a 2C020000 		.4byte	.LASF145
 2030 0b9e 13       		.byte	0x13
 2031 0b9f 83       		.byte	0x83
 2032 0ba0 03       		.byte	0x3
 2033 0ba1 5A0B0000 		.4byte	0xb5a
 2034 0ba5 08       		.byte	0x8
 2035 0ba6 08       		.uleb128 0x8
 2036 0ba7 81030000 		.4byte	.LASF169
 2037 0bab 13       		.byte	0x13
 2038 0bac 83       		.byte	0x83
 2039 0bad 03       		.byte	0x3
 2040 0bae 81070000 		.4byte	0x781
 2041 0bb2 0C       		.byte	0xc
 2042 0bb3 08       		.uleb128 0x8
 2043 0bb4 04040000 		.4byte	.LASF170
 2044 0bb8 13       		.byte	0x13
 2045 0bb9 83       		.byte	0x83
 2046 0bba 03       		.byte	0x3
 2047 0bbb 8D070000 		.4byte	0x78d
 2048 0bbf 30       		.byte	0x30
 2049 0bc0 09       		.uleb128 0x9
 2050 0bc1 696200   		.ascii	"ib\000"
 2051 0bc4 13       		.byte	0x13
 2052 0bc5 83       		.byte	0x83
ARM GAS  /tmp/ccqsb2PW.s 			page 37


 2053 0bc6 03       		.byte	0x3
 2054 0bc7 660C0000 		.4byte	0xc66
 2055 0bcb 54       		.byte	0x54
 2056 0bcc 09       		.uleb128 0x9
 2057 0bcd 6F6200   		.ascii	"ob\000"
 2058 0bd0 13       		.byte	0x13
 2059 0bd1 83       		.byte	0x83
 2060 0bd2 03       		.byte	0x3
 2061 0bd3 660C0000 		.4byte	0xc66
 2062 0bd7 64       		.byte	0x64
 2063 0bd8 00       		.byte	0
 2064 0bd9 1A       		.uleb128 0x1a
 2065 0bda 53443100 		.ascii	"SD1\000"
 2066 0bde 16       		.byte	0x16
 2067 0bdf 62       		.byte	0x62
 2068 0be0 15       		.byte	0x15
 2069 0be1 660B0000 		.4byte	0xb66
 2070 0be5 07       		.uleb128 0x7
 2071 0be6 6A030000 		.4byte	.LASF171
 2072 0bea 20       		.byte	0x20
 2073 0beb 13       		.byte	0x13
 2074 0bec 75       		.byte	0x75
 2075 0bed 08       		.byte	0x8
 2076 0bee 5B0C0000 		.4byte	0xc5b
 2077 0bf2 08       		.uleb128 0x8
 2078 0bf3 EE000000 		.4byte	.LASF172
 2079 0bf7 13       		.byte	0x13
 2080 0bf8 76       		.byte	0x76
 2081 0bf9 03       		.byte	0x3
 2082 0bfa B8070000 		.4byte	0x7b8
 2083 0bfe 00       		.byte	0
 2084 0bff 08       		.uleb128 0x8
 2085 0c00 46070000 		.4byte	.LASF173
 2086 0c04 13       		.byte	0x13
 2087 0c05 76       		.byte	0x76
 2088 0c06 03       		.byte	0x3
 2089 0c07 D7070000 		.4byte	0x7d7
 2090 0c0b 04       		.byte	0x4
 2091 0c0c 09       		.uleb128 0x9
 2092 0c0d 70757400 		.ascii	"put\000"
 2093 0c11 13       		.byte	0x13
 2094 0c12 76       		.byte	0x76
 2095 0c13 03       		.byte	0x3
 2096 0c14 F1070000 		.4byte	0x7f1
 2097 0c18 08       		.byte	0x8
 2098 0c19 09       		.uleb128 0x9
 2099 0c1a 67657400 		.ascii	"get\000"
 2100 0c1e 13       		.byte	0x13
 2101 0c1f 76       		.byte	0x76
 2102 0c20 03       		.byte	0x3
 2103 0c21 A0050000 		.4byte	0x5a0
 2104 0c25 0C       		.byte	0xc
 2105 0c26 08       		.uleb128 0x8
 2106 0c27 9E040000 		.4byte	.LASF174
 2107 0c2b 13       		.byte	0x13
 2108 0c2c 76       		.byte	0x76
 2109 0c2d 03       		.byte	0x3
ARM GAS  /tmp/ccqsb2PW.s 			page 38


 2110 0c2e B5080000 		.4byte	0x8b5
 2111 0c32 10       		.byte	0x10
 2112 0c33 08       		.uleb128 0x8
 2113 0c34 A3030000 		.4byte	.LASF175
 2114 0c38 13       		.byte	0x13
 2115 0c39 76       		.byte	0x76
 2116 0c3a 03       		.byte	0x3
 2117 0c3b CF080000 		.4byte	0x8cf
 2118 0c3f 14       		.byte	0x14
 2119 0c40 08       		.uleb128 0x8
 2120 0c41 21040000 		.4byte	.LASF176
 2121 0c45 13       		.byte	0x13
 2122 0c46 76       		.byte	0x76
 2123 0c47 03       		.byte	0x3
 2124 0c48 F3080000 		.4byte	0x8f3
 2125 0c4c 18       		.byte	0x18
 2126 0c4d 08       		.uleb128 0x8
 2127 0c4e B5080000 		.4byte	.LASF177
 2128 0c52 13       		.byte	0x13
 2129 0c53 76       		.byte	0x76
 2130 0c54 03       		.byte	0x3
 2131 0c55 17090000 		.4byte	0x917
 2132 0c59 1C       		.byte	0x1c
 2133 0c5a 00       		.byte	0
 2134 0c5b 06       		.uleb128 0x6
 2135 0c5c E50B0000 		.4byte	0xbe5
 2136 0c60 0B       		.uleb128 0xb
 2137 0c61 04       		.byte	0x4
 2138 0c62 5B0C0000 		.4byte	0xc5b
 2139 0c66 13       		.uleb128 0x13
 2140 0c67 6C000000 		.4byte	0x6c
 2141 0c6b 760C0000 		.4byte	0xc76
 2142 0c6f 14       		.uleb128 0x14
 2143 0c70 38000000 		.4byte	0x38
 2144 0c74 0F       		.byte	0xf
 2145 0c75 00       		.byte	0
 2146 0c76 18       		.uleb128 0x18
 2147 0c77 07       		.byte	0x7
 2148 0c78 01       		.byte	0x1
 2149 0c79 7D000000 		.4byte	0x7d
 2150 0c7d 14       		.byte	0x14
 2151 0c7e 4E       		.byte	0x4e
 2152 0c7f 0E       		.byte	0xe
 2153 0c80 A30C0000 		.4byte	0xca3
 2154 0c84 19       		.uleb128 0x19
 2155 0c85 04080000 		.4byte	.LASF178
 2156 0c89 00       		.byte	0
 2157 0c8a 19       		.uleb128 0x19
 2158 0c8b D4010000 		.4byte	.LASF179
 2159 0c8f 01       		.byte	0x1
 2160 0c90 19       		.uleb128 0x19
 2161 0c91 FA070000 		.4byte	.LASF180
 2162 0c95 02       		.byte	0x2
 2163 0c96 19       		.uleb128 0x19
 2164 0c97 00010000 		.4byte	.LASF181
 2165 0c9b 03       		.byte	0x3
 2166 0c9c 19       		.uleb128 0x19
ARM GAS  /tmp/ccqsb2PW.s 			page 39


 2167 0c9d 50070000 		.4byte	.LASF182
 2168 0ca1 04       		.byte	0x4
 2169 0ca2 00       		.byte	0
 2170 0ca3 03       		.uleb128 0x3
 2171 0ca4 64070000 		.4byte	.LASF183
 2172 0ca8 14       		.byte	0x14
 2173 0ca9 54       		.byte	0x54
 2174 0caa 03       		.byte	0x3
 2175 0cab 760C0000 		.4byte	0xc76
 2176 0caf 03       		.uleb128 0x3
 2177 0cb0 5F010000 		.4byte	.LASF184
 2178 0cb4 15       		.byte	0x15
 2179 0cb5 35       		.byte	0x35
 2180 0cb6 1A       		.byte	0x1a
 2181 0cb7 BB0C0000 		.4byte	0xcbb
 2182 0cbb 07       		.uleb128 0x7
 2183 0cbc 5F010000 		.4byte	.LASF184
 2184 0cc0 28       		.byte	0x28
 2185 0cc1 15       		.byte	0x15
 2186 0cc2 7C       		.byte	0x7c
 2187 0cc3 08       		.byte	0x8
 2188 0cc4 240D0000 		.4byte	0xd24
 2189 0cc8 08       		.uleb128 0x8
 2190 0cc9 2C020000 		.4byte	.LASF145
 2191 0ccd 15       		.byte	0x15
 2192 0cce 80       		.byte	0x80
 2193 0ccf 19       		.byte	0x19
 2194 0cd0 A30C0000 		.4byte	0xca3
 2195 0cd4 00       		.byte	0
 2196 0cd5 08       		.uleb128 0x8
 2197 0cd6 5D070000 		.4byte	.LASF146
 2198 0cda 15       		.byte	0x15
 2199 0cdb 84       		.byte	0x84
 2200 0cdc 1A       		.byte	0x1a
 2201 0cdd D70D0000 		.4byte	0xdd7
 2202 0ce1 04       		.byte	0x4
 2203 0ce2 08       		.uleb128 0x8
 2204 0ce3 49020000 		.4byte	.LASF150
 2205 0ce7 15       		.byte	0x15
 2206 0ce8 89       		.byte	0x89
 2207 0ce9 1A       		.byte	0x1a
 2208 0cea 5C020000 		.4byte	0x25c
 2209 0cee 08       		.byte	0x8
 2210 0cef 08       		.uleb128 0x8
 2211 0cf0 CE050000 		.4byte	.LASF149
 2212 0cf4 15       		.byte	0x15
 2213 0cf5 90       		.byte	0x90
 2214 0cf6 19       		.byte	0x19
 2215 0cf7 C7040000 		.4byte	0x4c7
 2216 0cfb 0C       		.byte	0xc
 2217 0cfc 08       		.uleb128 0x8
 2218 0cfd 69010000 		.4byte	.LASF155
 2219 0d01 15       		.byte	0x15
 2220 0d02 98       		.byte	0x98
 2221 0d03 1A       		.byte	0x1a
 2222 0d04 A9020000 		.4byte	0x2a9
 2223 0d08 1C       		.byte	0x1c
ARM GAS  /tmp/ccqsb2PW.s 			page 40


 2224 0d09 08       		.uleb128 0x8
 2225 0d0a 64030000 		.4byte	.LASF152
 2226 0d0e 15       		.byte	0x15
 2227 0d0f 9D       		.byte	0x9d
 2228 0d10 1A       		.byte	0x1a
 2229 0d11 DD0D0000 		.4byte	0xddd
 2230 0d15 20       		.byte	0x20
 2231 0d16 08       		.uleb128 0x8
 2232 0d17 BA020000 		.4byte	.LASF185
 2233 0d1b 15       		.byte	0x15
 2234 0d1c A2       		.byte	0xa2
 2235 0d1d 17       		.byte	0x17
 2236 0d1e 2C000000 		.4byte	0x2c
 2237 0d22 24       		.byte	0x24
 2238 0d23 00       		.byte	0
 2239 0d24 03       		.uleb128 0x3
 2240 0d25 26030000 		.4byte	.LASF186
 2241 0d29 15       		.byte	0x15
 2242 0d2a 3D       		.byte	0x3d
 2243 0d2b 10       		.byte	0x10
 2244 0d2c 300D0000 		.4byte	0xd30
 2245 0d30 0B       		.uleb128 0xb
 2246 0d31 04       		.byte	0x4
 2247 0d32 360D0000 		.4byte	0xd36
 2248 0d36 0D       		.uleb128 0xd
 2249 0d37 410D0000 		.4byte	0xd41
 2250 0d3b 0E       		.uleb128 0xe
 2251 0d3c 410D0000 		.4byte	0xd41
 2252 0d40 00       		.byte	0
 2253 0d41 0B       		.uleb128 0xb
 2254 0d42 04       		.byte	0x4
 2255 0d43 AF0C0000 		.4byte	0xcaf
 2256 0d47 0A       		.uleb128 0xa
 2257 0d48 10       		.byte	0x10
 2258 0d49 15       		.byte	0x15
 2259 0d4a 44       		.byte	0x44
 2260 0d4b 09       		.byte	0x9
 2261 0d4c C60D0000 		.4byte	0xdc6
 2262 0d50 08       		.uleb128 0x8
 2263 0d51 B3020000 		.4byte	.LASF187
 2264 0d55 15       		.byte	0x15
 2265 0d56 48       		.byte	0x48
 2266 0d57 19       		.byte	0x19
 2267 0d58 240D0000 		.4byte	0xd24
 2268 0d5c 00       		.byte	0
 2269 0d5d 08       		.uleb128 0x8
 2270 0d5e 58050000 		.4byte	.LASF188
 2271 0d62 15       		.byte	0x15
 2272 0d63 4F       		.byte	0x4f
 2273 0d64 19       		.byte	0x19
 2274 0d65 6C000000 		.4byte	0x6c
 2275 0d69 04       		.byte	0x4
 2276 0d6a 08       		.uleb128 0x8
 2277 0d6b 78050000 		.4byte	.LASF189
 2278 0d6f 15       		.byte	0x15
 2279 0d70 52       		.byte	0x52
 2280 0d71 19       		.byte	0x19
ARM GAS  /tmp/ccqsb2PW.s 			page 41


 2281 0d72 6C000000 		.4byte	0x6c
 2282 0d76 05       		.byte	0x5
 2283 0d77 08       		.uleb128 0x8
 2284 0d78 B6030000 		.4byte	.LASF190
 2285 0d7c 15       		.byte	0x15
 2286 0d7d 58       		.byte	0x58
 2287 0d7e 19       		.byte	0x19
 2288 0d7f 6C000000 		.4byte	0x6c
 2289 0d83 06       		.byte	0x6
 2290 0d84 08       		.uleb128 0x8
 2291 0d85 C0020000 		.4byte	.LASF191
 2292 0d89 15       		.byte	0x15
 2293 0d8a 5E       		.byte	0x5e
 2294 0d8b 19       		.byte	0x19
 2295 0d8c 6C000000 		.4byte	0x6c
 2296 0d90 07       		.byte	0x7
 2297 0d91 08       		.uleb128 0x8
 2298 0d92 D6020000 		.4byte	.LASF192
 2299 0d96 15       		.byte	0x15
 2300 0d97 64       		.byte	0x64
 2301 0d98 19       		.byte	0x19
 2302 0d99 6C000000 		.4byte	0x6c
 2303 0d9d 08       		.byte	0x8
 2304 0d9e 08       		.uleb128 0x8
 2305 0d9f BA070000 		.4byte	.LASF193
 2306 0da3 15       		.byte	0x15
 2307 0da4 6A       		.byte	0x6a
 2308 0da5 19       		.byte	0x19
 2309 0da6 6C000000 		.4byte	0x6c
 2310 0daa 09       		.byte	0x9
 2311 0dab 08       		.uleb128 0x8
 2312 0dac 8F020000 		.4byte	.LASF194
 2313 0db0 15       		.byte	0x15
 2314 0db1 70       		.byte	0x70
 2315 0db2 19       		.byte	0x19
 2316 0db3 6C000000 		.4byte	0x6c
 2317 0db7 0A       		.byte	0xa
 2318 0db8 08       		.uleb128 0x8
 2319 0db9 75060000 		.4byte	.LASF195
 2320 0dbd 15       		.byte	0x15
 2321 0dbe 73       		.byte	0x73
 2322 0dbf 19       		.byte	0x19
 2323 0dc0 97000000 		.4byte	0x97
 2324 0dc4 0C       		.byte	0xc
 2325 0dc5 00       		.byte	0
 2326 0dc6 03       		.uleb128 0x3
 2327 0dc7 F9080000 		.4byte	.LASF196
 2328 0dcb 15       		.byte	0x15
 2329 0dcc 75       		.byte	0x75
 2330 0dcd 03       		.byte	0x3
 2331 0dce 470D0000 		.4byte	0xd47
 2332 0dd2 06       		.uleb128 0x6
 2333 0dd3 C60D0000 		.4byte	0xdc6
 2334 0dd7 0B       		.uleb128 0xb
 2335 0dd8 04       		.byte	0x4
 2336 0dd9 D20D0000 		.4byte	0xdd2
 2337 0ddd 0B       		.uleb128 0xb
ARM GAS  /tmp/ccqsb2PW.s 			page 42


 2338 0dde 04       		.byte	0x4
 2339 0ddf E30D0000 		.4byte	0xde3
 2340 0de3 1B       		.uleb128 0x1b
 2341 0de4 0F       		.uleb128 0xf
 2342 0de5 72020000 		.4byte	.LASF197
 2343 0de9 15       		.byte	0x15
 2344 0dea B6       		.byte	0xb6
 2345 0deb 14       		.byte	0x14
 2346 0dec AF0C0000 		.4byte	0xcaf
 2347 0df0 1C       		.uleb128 0x1c
 2348 0df1 BB090000 		.4byte	0x9bb
 2349 0df5 01       		.byte	0x1
 2350 0df6 2B       		.byte	0x2b
 2351 0df7 0D       		.byte	0xd
 2352 0df8 05       		.uleb128 0x5
 2353 0df9 03       		.byte	0x3
 2354 0dfa 00000000 		.4byte	IOPORT0
 2355 0dfe 1C       		.uleb128 0x1c
 2356 0dff C7090000 		.4byte	0x9c7
 2357 0e03 01       		.byte	0x1
 2358 0e04 2C       		.byte	0x2c
 2359 0e05 0D       		.byte	0xd
 2360 0e06 05       		.uleb128 0x5
 2361 0e07 03       		.byte	0x3
 2362 0e08 00000000 		.4byte	IOPORT1
 2363 0e0c 1D       		.uleb128 0x1d
 2364 0e0d 30040000 		.4byte	.LASF200
 2365 0e11 01       		.byte	0x1
 2366 0e12 80       		.byte	0x80
 2367 0e13 06       		.byte	0x6
 2368 0e14 00000000 		.4byte	.LFB11
 2369 0e18 1C000000 		.4byte	.LFE11-.LFB11
 2370 0e1c 01       		.uleb128 0x1
 2371 0e1d 9C       		.byte	0x9c
 2372 0e1e 3F0E0000 		.4byte	0xe3f
 2373 0e22 1E       		.uleb128 0x1e
 2374 0e23 39030000 		.4byte	.LASF198
 2375 0e27 01       		.byte	0x1
 2376 0e28 80       		.byte	0x80
 2377 0e29 24       		.byte	0x24
 2378 0e2a A9090000 		.4byte	0x9a9
 2379 0e2e 01       		.uleb128 0x1
 2380 0e2f 50       		.byte	0x50
 2381 0e30 1E       		.uleb128 0x1e
 2382 0e31 32020000 		.4byte	.LASF199
 2383 0e35 01       		.byte	0x1
 2384 0e36 80       		.byte	0x80
 2385 0e37 37       		.byte	0x37
 2386 0e38 9D090000 		.4byte	0x99d
 2387 0e3c 01       		.uleb128 0x1
 2388 0e3d 51       		.byte	0x51
 2389 0e3e 00       		.byte	0
 2390 0e3f 1D       		.uleb128 0x1d
 2391 0e40 C9070000 		.4byte	.LASF201
 2392 0e44 01       		.byte	0x1
 2393 0e45 64       		.byte	0x64
 2394 0e46 06       		.byte	0x6
ARM GAS  /tmp/ccqsb2PW.s 			page 43


 2395 0e47 00000000 		.4byte	.LFB10
 2396 0e4b D8000000 		.4byte	.LFE10-.LFB10
 2397 0e4f 01       		.uleb128 0x1
 2398 0e50 9C       		.byte	0x9c
 2399 0e51 A50F0000 		.4byte	0xfa5
 2400 0e55 1F       		.uleb128 0x1f
 2401 0e56 39030000 		.4byte	.LASF198
 2402 0e5a 01       		.byte	0x1
 2403 0e5b 64       		.byte	0x64
 2404 0e5c 27       		.byte	0x27
 2405 0e5d A9090000 		.4byte	0x9a9
 2406 0e61 1C000000 		.4byte	.LLST6
 2407 0e65 00000000 		.4byte	.LVUS6
 2408 0e69 1F       		.uleb128 0x1f
 2409 0e6a FC020000 		.4byte	.LASF202
 2410 0e6e 01       		.byte	0x1
 2411 0e6f 64       		.byte	0x64
 2412 0e70 3A       		.byte	0x3a
 2413 0e71 9D090000 		.4byte	0x99d
 2414 0e75 E9000000 		.4byte	.LLST7
 2415 0e79 CD000000 		.4byte	.LVUS7
 2416 0e7d 1F       		.uleb128 0x1f
 2417 0e7e 4A030000 		.4byte	.LASF203
 2418 0e82 01       		.byte	0x1
 2419 0e83 64       		.byte	0x64
 2420 0e84 49       		.byte	0x49
 2421 0e85 97000000 		.4byte	0x97
 2422 0e89 9C010000 		.4byte	.LLST8
 2423 0e8d 94010000 		.4byte	.LVUS8
 2424 0e91 20       		.uleb128 0x20
 2425 0e92 6900     		.ascii	"i\000"
 2426 0e94 01       		.byte	0x1
 2427 0e95 65       		.byte	0x65
 2428 0e96 07       		.byte	0x7
 2429 0e97 25000000 		.4byte	0x25
 2430 0e9b DB010000 		.4byte	.LLST9
 2431 0e9f D5010000 		.4byte	.LVUS9
 2432 0ea3 21       		.uleb128 0x21
 2433 0ea4 20000000 		.4byte	.Ldebug_ranges0+0x20
 2434 0ea8 D00E0000 		.4byte	0xed0
 2435 0eac 20       		.uleb128 0x20
 2436 0ead 62697400 		.ascii	"bit\000"
 2437 0eb1 01       		.byte	0x1
 2438 0eb2 77       		.byte	0x77
 2439 0eb3 14       		.byte	0x14
 2440 0eb4 38000000 		.4byte	0x38
 2441 0eb8 0A020000 		.4byte	.LLST10
 2442 0ebc 06020000 		.4byte	.LVUS10
 2443 0ec0 22       		.uleb128 0x22
 2444 0ec1 7C000000 		.4byte	.LVL21
 2445 0ec5 42110000 		.4byte	0x1142
 2446 0ec9 23       		.uleb128 0x23
 2447 0eca 01       		.uleb128 0x1
 2448 0ecb 51       		.byte	0x51
 2449 0ecc 01       		.uleb128 0x1
 2450 0ecd 31       		.byte	0x31
 2451 0ece 00       		.byte	0
ARM GAS  /tmp/ccqsb2PW.s 			page 44


 2452 0ecf 00       		.byte	0
 2453 0ed0 24       		.uleb128 0x24
 2454 0ed1 8C000000 		.4byte	.LVL24
 2455 0ed5 92100000 		.4byte	0x1092
 2456 0ed9 EC0E0000 		.4byte	0xeec
 2457 0edd 23       		.uleb128 0x23
 2458 0ede 01       		.uleb128 0x1
 2459 0edf 50       		.byte	0x50
 2460 0ee0 02       		.uleb128 0x2
 2461 0ee1 76       		.byte	0x76
 2462 0ee2 14       		.sleb128 20
 2463 0ee3 25       		.uleb128 0x25
 2464 0ee4 2F100000 		.4byte	0x102f
 2465 0ee8 02       		.uleb128 0x2
 2466 0ee9 76       		.byte	0x76
 2467 0eea 00       		.sleb128 0
 2468 0eeb 00       		.byte	0
 2469 0eec 26       		.uleb128 0x26
 2470 0eed A0000000 		.4byte	.LVL26
 2471 0ef1 EB100000 		.4byte	0x10eb
 2472 0ef5 180F0000 		.4byte	0xf18
 2473 0ef9 23       		.uleb128 0x23
 2474 0efa 01       		.uleb128 0x1
 2475 0efb 50       		.byte	0x50
 2476 0efc 05       		.uleb128 0x5
 2477 0efd F3       		.byte	0xf3
 2478 0efe 01       		.uleb128 0x1
 2479 0eff 50       		.byte	0x50
 2480 0f00 23       		.byte	0x23
 2481 0f01 10       		.uleb128 0x10
 2482 0f02 23       		.uleb128 0x23
 2483 0f03 01       		.uleb128 0x1
 2484 0f04 51       		.byte	0x51
 2485 0f05 03       		.uleb128 0x3
 2486 0f06 F3       		.byte	0xf3
 2487 0f07 01       		.uleb128 0x1
 2488 0f08 51       		.byte	0x51
 2489 0f09 23       		.uleb128 0x23
 2490 0f0a 01       		.uleb128 0x1
 2491 0f0b 52       		.byte	0x52
 2492 0f0c 01       		.uleb128 0x1
 2493 0f0d 31       		.byte	0x31
 2494 0f0e 25       		.uleb128 0x25
 2495 0f0f 6D100000 		.4byte	0x106d
 2496 0f13 03       		.uleb128 0x3
 2497 0f14 F3       		.byte	0xf3
 2498 0f15 01       		.uleb128 0x1
 2499 0f16 50       		.byte	0x50
 2500 0f17 00       		.byte	0
 2501 0f18 24       		.uleb128 0x24
 2502 0f19 A8000000 		.4byte	.LVL28
 2503 0f1d 92100000 		.4byte	0x1092
 2504 0f21 340F0000 		.4byte	0xf34
 2505 0f25 23       		.uleb128 0x23
 2506 0f26 01       		.uleb128 0x1
 2507 0f27 50       		.byte	0x50
 2508 0f28 02       		.uleb128 0x2
ARM GAS  /tmp/ccqsb2PW.s 			page 45


 2509 0f29 76       		.byte	0x76
 2510 0f2a 14       		.sleb128 20
 2511 0f2b 25       		.uleb128 0x25
 2512 0f2c 2F100000 		.4byte	0x102f
 2513 0f30 02       		.uleb128 0x2
 2514 0f31 76       		.byte	0x76
 2515 0f32 00       		.sleb128 0
 2516 0f33 00       		.byte	0
 2517 0f34 26       		.uleb128 0x26
 2518 0f35 BC000000 		.4byte	.LVL30
 2519 0f39 EB100000 		.4byte	0x10eb
 2520 0f3d 600F0000 		.4byte	0xf60
 2521 0f41 23       		.uleb128 0x23
 2522 0f42 01       		.uleb128 0x1
 2523 0f43 50       		.byte	0x50
 2524 0f44 05       		.uleb128 0x5
 2525 0f45 F3       		.byte	0xf3
 2526 0f46 01       		.uleb128 0x1
 2527 0f47 50       		.byte	0x50
 2528 0f48 23       		.byte	0x23
 2529 0f49 10       		.uleb128 0x10
 2530 0f4a 23       		.uleb128 0x23
 2531 0f4b 01       		.uleb128 0x1
 2532 0f4c 51       		.byte	0x51
 2533 0f4d 03       		.uleb128 0x3
 2534 0f4e F3       		.byte	0xf3
 2535 0f4f 01       		.uleb128 0x1
 2536 0f50 51       		.byte	0x51
 2537 0f51 23       		.uleb128 0x23
 2538 0f52 01       		.uleb128 0x1
 2539 0f53 52       		.byte	0x52
 2540 0f54 01       		.uleb128 0x1
 2541 0f55 32       		.byte	0x32
 2542 0f56 25       		.uleb128 0x25
 2543 0f57 6D100000 		.4byte	0x106d
 2544 0f5b 03       		.uleb128 0x3
 2545 0f5c F3       		.byte	0xf3
 2546 0f5d 01       		.uleb128 0x1
 2547 0f5e 50       		.byte	0x50
 2548 0f5f 00       		.byte	0
 2549 0f60 24       		.uleb128 0x24
 2550 0f61 C4000000 		.4byte	.LVL32
 2551 0f65 92100000 		.4byte	0x1092
 2552 0f69 7C0F0000 		.4byte	0xf7c
 2553 0f6d 23       		.uleb128 0x23
 2554 0f6e 01       		.uleb128 0x1
 2555 0f6f 50       		.byte	0x50
 2556 0f70 02       		.uleb128 0x2
 2557 0f71 76       		.byte	0x76
 2558 0f72 14       		.sleb128 20
 2559 0f73 25       		.uleb128 0x25
 2560 0f74 2F100000 		.4byte	0x102f
 2561 0f78 02       		.uleb128 0x2
 2562 0f79 76       		.byte	0x76
 2563 0f7a 00       		.sleb128 0
 2564 0f7b 00       		.byte	0
 2565 0f7c 27       		.uleb128 0x27
ARM GAS  /tmp/ccqsb2PW.s 			page 46


 2566 0f7d D8000000 		.4byte	.LVL34
 2567 0f81 EB100000 		.4byte	0x10eb
 2568 0f85 23       		.uleb128 0x23
 2569 0f86 01       		.uleb128 0x1
 2570 0f87 50       		.byte	0x50
 2571 0f88 05       		.uleb128 0x5
 2572 0f89 F3       		.byte	0xf3
 2573 0f8a 01       		.uleb128 0x1
 2574 0f8b 50       		.byte	0x50
 2575 0f8c 23       		.byte	0x23
 2576 0f8d 10       		.uleb128 0x10
 2577 0f8e 23       		.uleb128 0x23
 2578 0f8f 01       		.uleb128 0x1
 2579 0f90 51       		.byte	0x51
 2580 0f91 03       		.uleb128 0x3
 2581 0f92 F3       		.byte	0xf3
 2582 0f93 01       		.uleb128 0x1
 2583 0f94 51       		.byte	0x51
 2584 0f95 23       		.uleb128 0x23
 2585 0f96 01       		.uleb128 0x1
 2586 0f97 52       		.byte	0x52
 2587 0f98 01       		.uleb128 0x1
 2588 0f99 30       		.byte	0x30
 2589 0f9a 25       		.uleb128 0x25
 2590 0f9b 6D100000 		.4byte	0x106d
 2591 0f9f 03       		.uleb128 0x3
 2592 0fa0 F3       		.byte	0xf3
 2593 0fa1 01       		.uleb128 0x1
 2594 0fa2 50       		.byte	0x50
 2595 0fa3 00       		.byte	0
 2596 0fa4 00       		.byte	0
 2597 0fa5 1D       		.uleb128 0x1d
 2598 0fa6 FF010000 		.4byte	.LASF204
 2599 0faa 01       		.byte	0x1
 2600 0fab 52       		.byte	0x52
 2601 0fac 06       		.byte	0x6
 2602 0fad 00000000 		.4byte	.LFB9
 2603 0fb1 98000000 		.4byte	.LFE9-.LFB9
 2604 0fb5 01       		.uleb128 0x1
 2605 0fb6 9C       		.byte	0x9c
 2606 0fb7 1C100000 		.4byte	0x101c
 2607 0fbb 1F       		.uleb128 0x1f
 2608 0fbc 5D070000 		.4byte	.LASF146
 2609 0fc0 01       		.byte	0x1
 2610 0fc1 52       		.byte	0x52
 2611 0fc2 25       		.byte	0x25
 2612 0fc3 1C100000 		.4byte	0x101c
 2613 0fc7 34020000 		.4byte	.LLST5
 2614 0fcb 30020000 		.4byte	.LVUS5
 2615 0fcf 24       		.uleb128 0x24
 2616 0fd0 34000000 		.4byte	.LVL11
 2617 0fd4 92100000 		.4byte	0x1092
 2618 0fd8 F70F0000 		.4byte	0xff7
 2619 0fdc 23       		.uleb128 0x23
 2620 0fdd 01       		.uleb128 0x1
 2621 0fde 50       		.byte	0x50
 2622 0fdf 05       		.uleb128 0x5
ARM GAS  /tmp/ccqsb2PW.s 			page 47


 2623 0fe0 03       		.byte	0x3
 2624 0fe1 14000000 		.4byte	IOPORT0+20
 2625 0fe5 23       		.uleb128 0x23
 2626 0fe6 01       		.uleb128 0x1
 2627 0fe7 51       		.byte	0x51
 2628 0fe8 02       		.uleb128 0x2
 2629 0fe9 09       		.byte	0x9
 2630 0fea FF       		.byte	0xff
 2631 0feb 25       		.uleb128 0x25
 2632 0fec 2F100000 		.4byte	0x102f
 2633 0ff0 05       		.uleb128 0x5
 2634 0ff1 03       		.byte	0x3
 2635 0ff2 00000000 		.4byte	IOPORT0
 2636 0ff6 00       		.byte	0
 2637 0ff7 27       		.uleb128 0x27
 2638 0ff8 70000000 		.4byte	.LVL12
 2639 0ffc 92100000 		.4byte	0x1092
 2640 1000 23       		.uleb128 0x23
 2641 1001 01       		.uleb128 0x1
 2642 1002 50       		.byte	0x50
 2643 1003 05       		.uleb128 0x5
 2644 1004 03       		.byte	0x3
 2645 1005 14000000 		.4byte	IOPORT1+20
 2646 1009 23       		.uleb128 0x23
 2647 100a 01       		.uleb128 0x1
 2648 100b 51       		.byte	0x51
 2649 100c 02       		.uleb128 0x2
 2650 100d 09       		.byte	0x9
 2651 100e FF       		.byte	0xff
 2652 100f 25       		.uleb128 0x25
 2653 1010 2F100000 		.4byte	0x102f
 2654 1014 05       		.uleb128 0x5
 2655 1015 03       		.byte	0x3
 2656 1016 00000000 		.4byte	IOPORT1
 2657 101a 00       		.byte	0
 2658 101b 00       		.byte	0
 2659 101c 0B       		.uleb128 0xb
 2660 101d 04       		.byte	0x4
 2661 101e 98090000 		.4byte	0x998
 2662 1022 28       		.uleb128 0x28
 2663 1023 A9080000 		.4byte	.LASF205
 2664 1027 01       		.byte	0x1
 2665 1028 40       		.byte	0x40
 2666 1029 0D       		.byte	0xd
 2667 102a 01       		.byte	0x1
 2668 102b 60100000 		.4byte	0x1060
 2669 102f 29       		.uleb128 0x29
 2670 1030 39030000 		.4byte	.LASF198
 2671 1034 01       		.byte	0x1
 2672 1035 40       		.byte	0x40
 2673 1036 24       		.byte	0x24
 2674 1037 A9090000 		.4byte	0x9a9
 2675 103b 29       		.uleb128 0x29
 2676 103c FC020000 		.4byte	.LASF202
 2677 1040 01       		.byte	0x1
 2678 1041 40       		.byte	0x40
 2679 1042 37       		.byte	0x37
ARM GAS  /tmp/ccqsb2PW.s 			page 48


 2680 1043 9D090000 		.4byte	0x99d
 2681 1047 2A       		.uleb128 0x2a
 2682 1048 6900     		.ascii	"i\000"
 2683 104a 01       		.byte	0x1
 2684 104b 41       		.byte	0x41
 2685 104c 07       		.byte	0x7
 2686 104d 25000000 		.4byte	0x25
 2687 1051 2B       		.uleb128 0x2b
 2688 1052 2A       		.uleb128 0x2a
 2689 1053 62697400 		.ascii	"bit\000"
 2690 1057 01       		.byte	0x1
 2691 1058 43       		.byte	0x43
 2692 1059 12       		.byte	0x12
 2693 105a 38000000 		.4byte	0x38
 2694 105e 00       		.byte	0
 2695 105f 00       		.byte	0
 2696 1060 28       		.uleb128 0x28
 2697 1061 94080000 		.4byte	.LASF206
 2698 1065 01       		.byte	0x1
 2699 1066 36       		.byte	0x36
 2700 1067 0D       		.byte	0xd
 2701 1068 01       		.byte	0x1
 2702 1069 92100000 		.4byte	0x1092
 2703 106d 29       		.uleb128 0x29
 2704 106e 39030000 		.4byte	.LASF198
 2705 1072 01       		.byte	0x1
 2706 1073 36       		.byte	0x36
 2707 1074 25       		.byte	0x25
 2708 1075 A9090000 		.4byte	0x9a9
 2709 1079 29       		.uleb128 0x29
 2710 107a FC020000 		.4byte	.LASF202
 2711 107e 01       		.byte	0x1
 2712 107f 36       		.byte	0x36
 2713 1080 38       		.byte	0x38
 2714 1081 9D090000 		.4byte	0x99d
 2715 1085 29       		.uleb128 0x29
 2716 1086 DD080000 		.4byte	.LASF207
 2717 108a 01       		.byte	0x1
 2718 108b 36       		.byte	0x36
 2719 108c 47       		.byte	0x47
 2720 108d 97000000 		.4byte	0x97
 2721 1091 00       		.byte	0
 2722 1092 2C       		.uleb128 0x2c
 2723 1093 22100000 		.4byte	0x1022
 2724 1097 00000000 		.4byte	.LFB12
 2725 109b 40000000 		.4byte	.LFE12-.LFB12
 2726 109f 01       		.uleb128 0x1
 2727 10a0 9C       		.byte	0x9c
 2728 10a1 EB100000 		.4byte	0x10eb
 2729 10a5 2D       		.uleb128 0x2d
 2730 10a6 3B100000 		.4byte	0x103b
 2731 10aa 59020000 		.4byte	.LLST0
 2732 10ae 55020000 		.4byte	.LVUS0
 2733 10b2 2E       		.uleb128 0x2e
 2734 10b3 2F100000 		.4byte	0x102f
 2735 10b7 2F       		.uleb128 0x2f
 2736 10b8 47100000 		.4byte	0x1047
ARM GAS  /tmp/ccqsb2PW.s 			page 49


 2737 10bc 7F020000 		.4byte	.LLST1
 2738 10c0 77020000 		.4byte	.LVUS1
 2739 10c4 30       		.uleb128 0x30
 2740 10c5 51100000 		.4byte	0x1051
 2741 10c9 00000000 		.4byte	.Ldebug_ranges0+0
 2742 10cd 2F       		.uleb128 0x2f
 2743 10ce 52100000 		.4byte	0x1052
 2744 10d2 BA020000 		.4byte	.LLST2
 2745 10d6 B6020000 		.4byte	.LVUS2
 2746 10da 22       		.uleb128 0x22
 2747 10db 3C000000 		.4byte	.LVL5
 2748 10df 42110000 		.4byte	0x1142
 2749 10e3 23       		.uleb128 0x23
 2750 10e4 01       		.uleb128 0x1
 2751 10e5 51       		.byte	0x51
 2752 10e6 01       		.uleb128 0x1
 2753 10e7 30       		.byte	0x30
 2754 10e8 00       		.byte	0
 2755 10e9 00       		.byte	0
 2756 10ea 00       		.byte	0
 2757 10eb 2C       		.uleb128 0x2c
 2758 10ec 60100000 		.4byte	0x1060
 2759 10f0 00000000 		.4byte	.LFB13
 2760 10f4 44000000 		.4byte	.LFE13-.LFB13
 2761 10f8 01       		.uleb128 0x1
 2762 10f9 9C       		.byte	0x9c
 2763 10fa 42110000 		.4byte	0x1142
 2764 10fe 2D       		.uleb128 0x2d
 2765 10ff 79100000 		.4byte	0x1079
 2766 1103 E4020000 		.4byte	.LLST3
 2767 1107 E0020000 		.4byte	.LVUS3
 2768 110b 2D       		.uleb128 0x2d
 2769 110c 85100000 		.4byte	0x1085
 2770 1110 06030000 		.4byte	.LLST4
 2771 1114 02030000 		.4byte	.LVUS4
 2772 1118 2E       		.uleb128 0x2e
 2773 1119 6D100000 		.4byte	0x106d
 2774 111d 24       		.uleb128 0x24
 2775 111e 1C000000 		.4byte	.LVL7
 2776 1122 4F110000 		.4byte	0x114f
 2777 1126 31110000 		.4byte	0x1131
 2778 112a 23       		.uleb128 0x23
 2779 112b 01       		.uleb128 0x1
 2780 112c 50       		.byte	0x50
 2781 112d 02       		.uleb128 0x2
 2782 112e 08       		.byte	0x8
 2783 112f 96       		.byte	0x96
 2784 1130 00       		.byte	0
 2785 1131 22       		.uleb128 0x22
 2786 1132 2C000000 		.4byte	.LVL8
 2787 1136 4F110000 		.4byte	0x114f
 2788 113a 23       		.uleb128 0x23
 2789 113b 01       		.uleb128 0x1
 2790 113c 50       		.byte	0x50
 2791 113d 02       		.uleb128 0x2
 2792 113e 08       		.byte	0x8
 2793 113f 96       		.byte	0x96
ARM GAS  /tmp/ccqsb2PW.s 			page 50


 2794 1140 00       		.byte	0
 2795 1141 00       		.byte	0
 2796 1142 31       		.uleb128 0x31
 2797 1143 65050000 		.4byte	.LASF208
 2798 1147 65050000 		.4byte	.LASF208
 2799 114b 0F       		.byte	0xf
 2800 114c 8C01     		.2byte	0x18c
 2801 114e 08       		.byte	0x8
 2802 114f 31       		.uleb128 0x31
 2803 1150 13040000 		.4byte	.LASF209
 2804 1154 13040000 		.4byte	.LASF209
 2805 1158 0F       		.byte	0xf
 2806 1159 8D01     		.2byte	0x18d
 2807 115b 08       		.byte	0x8
 2808 115c 00       		.byte	0
 2809              		.section	.debug_abbrev,"",%progbits
 2810              	.Ldebug_abbrev0:
 2811 0000 01       		.uleb128 0x1
 2812 0001 11       		.uleb128 0x11
 2813 0002 01       		.byte	0x1
 2814 0003 25       		.uleb128 0x25
 2815 0004 0E       		.uleb128 0xe
 2816 0005 13       		.uleb128 0x13
 2817 0006 0B       		.uleb128 0xb
 2818 0007 03       		.uleb128 0x3
 2819 0008 0E       		.uleb128 0xe
 2820 0009 1B       		.uleb128 0x1b
 2821 000a 0E       		.uleb128 0xe
 2822 000b 55       		.uleb128 0x55
 2823 000c 17       		.uleb128 0x17
 2824 000d 11       		.uleb128 0x11
 2825 000e 01       		.uleb128 0x1
 2826 000f 10       		.uleb128 0x10
 2827 0010 17       		.uleb128 0x17
 2828 0011 00       		.byte	0
 2829 0012 00       		.byte	0
 2830 0013 02       		.uleb128 0x2
 2831 0014 24       		.uleb128 0x24
 2832 0015 00       		.byte	0
 2833 0016 0B       		.uleb128 0xb
 2834 0017 0B       		.uleb128 0xb
 2835 0018 3E       		.uleb128 0x3e
 2836 0019 0B       		.uleb128 0xb
 2837 001a 03       		.uleb128 0x3
 2838 001b 08       		.uleb128 0x8
 2839 001c 00       		.byte	0
 2840 001d 00       		.byte	0
 2841 001e 03       		.uleb128 0x3
 2842 001f 16       		.uleb128 0x16
 2843 0020 00       		.byte	0
 2844 0021 03       		.uleb128 0x3
 2845 0022 0E       		.uleb128 0xe
 2846 0023 3A       		.uleb128 0x3a
 2847 0024 0B       		.uleb128 0xb
 2848 0025 3B       		.uleb128 0x3b
 2849 0026 0B       		.uleb128 0xb
 2850 0027 39       		.uleb128 0x39
ARM GAS  /tmp/ccqsb2PW.s 			page 51


 2851 0028 0B       		.uleb128 0xb
 2852 0029 49       		.uleb128 0x49
 2853 002a 13       		.uleb128 0x13
 2854 002b 00       		.byte	0
 2855 002c 00       		.byte	0
 2856 002d 04       		.uleb128 0x4
 2857 002e 24       		.uleb128 0x24
 2858 002f 00       		.byte	0
 2859 0030 0B       		.uleb128 0xb
 2860 0031 0B       		.uleb128 0xb
 2861 0032 3E       		.uleb128 0x3e
 2862 0033 0B       		.uleb128 0xb
 2863 0034 03       		.uleb128 0x3
 2864 0035 0E       		.uleb128 0xe
 2865 0036 00       		.byte	0
 2866 0037 00       		.byte	0
 2867 0038 05       		.uleb128 0x5
 2868 0039 35       		.uleb128 0x35
 2869 003a 00       		.byte	0
 2870 003b 49       		.uleb128 0x49
 2871 003c 13       		.uleb128 0x13
 2872 003d 00       		.byte	0
 2873 003e 00       		.byte	0
 2874 003f 06       		.uleb128 0x6
 2875 0040 26       		.uleb128 0x26
 2876 0041 00       		.byte	0
 2877 0042 49       		.uleb128 0x49
 2878 0043 13       		.uleb128 0x13
 2879 0044 00       		.byte	0
 2880 0045 00       		.byte	0
 2881 0046 07       		.uleb128 0x7
 2882 0047 13       		.uleb128 0x13
 2883 0048 01       		.byte	0x1
 2884 0049 03       		.uleb128 0x3
 2885 004a 0E       		.uleb128 0xe
 2886 004b 0B       		.uleb128 0xb
 2887 004c 0B       		.uleb128 0xb
 2888 004d 3A       		.uleb128 0x3a
 2889 004e 0B       		.uleb128 0xb
 2890 004f 3B       		.uleb128 0x3b
 2891 0050 0B       		.uleb128 0xb
 2892 0051 39       		.uleb128 0x39
 2893 0052 0B       		.uleb128 0xb
 2894 0053 01       		.uleb128 0x1
 2895 0054 13       		.uleb128 0x13
 2896 0055 00       		.byte	0
 2897 0056 00       		.byte	0
 2898 0057 08       		.uleb128 0x8
 2899 0058 0D       		.uleb128 0xd
 2900 0059 00       		.byte	0
 2901 005a 03       		.uleb128 0x3
 2902 005b 0E       		.uleb128 0xe
 2903 005c 3A       		.uleb128 0x3a
 2904 005d 0B       		.uleb128 0xb
 2905 005e 3B       		.uleb128 0x3b
 2906 005f 0B       		.uleb128 0xb
 2907 0060 39       		.uleb128 0x39
ARM GAS  /tmp/ccqsb2PW.s 			page 52


 2908 0061 0B       		.uleb128 0xb
 2909 0062 49       		.uleb128 0x49
 2910 0063 13       		.uleb128 0x13
 2911 0064 38       		.uleb128 0x38
 2912 0065 0B       		.uleb128 0xb
 2913 0066 00       		.byte	0
 2914 0067 00       		.byte	0
 2915 0068 09       		.uleb128 0x9
 2916 0069 0D       		.uleb128 0xd
 2917 006a 00       		.byte	0
 2918 006b 03       		.uleb128 0x3
 2919 006c 08       		.uleb128 0x8
 2920 006d 3A       		.uleb128 0x3a
 2921 006e 0B       		.uleb128 0xb
 2922 006f 3B       		.uleb128 0x3b
 2923 0070 0B       		.uleb128 0xb
 2924 0071 39       		.uleb128 0x39
 2925 0072 0B       		.uleb128 0xb
 2926 0073 49       		.uleb128 0x49
 2927 0074 13       		.uleb128 0x13
 2928 0075 38       		.uleb128 0x38
 2929 0076 0B       		.uleb128 0xb
 2930 0077 00       		.byte	0
 2931 0078 00       		.byte	0
 2932 0079 0A       		.uleb128 0xa
 2933 007a 13       		.uleb128 0x13
 2934 007b 01       		.byte	0x1
 2935 007c 0B       		.uleb128 0xb
 2936 007d 0B       		.uleb128 0xb
 2937 007e 3A       		.uleb128 0x3a
 2938 007f 0B       		.uleb128 0xb
 2939 0080 3B       		.uleb128 0x3b
 2940 0081 0B       		.uleb128 0xb
 2941 0082 39       		.uleb128 0x39
 2942 0083 0B       		.uleb128 0xb
 2943 0084 01       		.uleb128 0x1
 2944 0085 13       		.uleb128 0x13
 2945 0086 00       		.byte	0
 2946 0087 00       		.byte	0
 2947 0088 0B       		.uleb128 0xb
 2948 0089 0F       		.uleb128 0xf
 2949 008a 00       		.byte	0
 2950 008b 0B       		.uleb128 0xb
 2951 008c 0B       		.uleb128 0xb
 2952 008d 49       		.uleb128 0x49
 2953 008e 13       		.uleb128 0x13
 2954 008f 00       		.byte	0
 2955 0090 00       		.byte	0
 2956 0091 0C       		.uleb128 0xc
 2957 0092 0F       		.uleb128 0xf
 2958 0093 00       		.byte	0
 2959 0094 0B       		.uleb128 0xb
 2960 0095 0B       		.uleb128 0xb
 2961 0096 00       		.byte	0
 2962 0097 00       		.byte	0
 2963 0098 0D       		.uleb128 0xd
 2964 0099 15       		.uleb128 0x15
ARM GAS  /tmp/ccqsb2PW.s 			page 53


 2965 009a 01       		.byte	0x1
 2966 009b 27       		.uleb128 0x27
 2967 009c 19       		.uleb128 0x19
 2968 009d 01       		.uleb128 0x1
 2969 009e 13       		.uleb128 0x13
 2970 009f 00       		.byte	0
 2971 00a0 00       		.byte	0
 2972 00a1 0E       		.uleb128 0xe
 2973 00a2 05       		.uleb128 0x5
 2974 00a3 00       		.byte	0
 2975 00a4 49       		.uleb128 0x49
 2976 00a5 13       		.uleb128 0x13
 2977 00a6 00       		.byte	0
 2978 00a7 00       		.byte	0
 2979 00a8 0F       		.uleb128 0xf
 2980 00a9 34       		.uleb128 0x34
 2981 00aa 00       		.byte	0
 2982 00ab 03       		.uleb128 0x3
 2983 00ac 0E       		.uleb128 0xe
 2984 00ad 3A       		.uleb128 0x3a
 2985 00ae 0B       		.uleb128 0xb
 2986 00af 3B       		.uleb128 0x3b
 2987 00b0 0B       		.uleb128 0xb
 2988 00b1 39       		.uleb128 0x39
 2989 00b2 0B       		.uleb128 0xb
 2990 00b3 49       		.uleb128 0x49
 2991 00b4 13       		.uleb128 0x13
 2992 00b5 3F       		.uleb128 0x3f
 2993 00b6 19       		.uleb128 0x19
 2994 00b7 3C       		.uleb128 0x3c
 2995 00b8 19       		.uleb128 0x19
 2996 00b9 00       		.byte	0
 2997 00ba 00       		.byte	0
 2998 00bb 10       		.uleb128 0x10
 2999 00bc 17       		.uleb128 0x17
 3000 00bd 01       		.byte	0x1
 3001 00be 0B       		.uleb128 0xb
 3002 00bf 0B       		.uleb128 0xb
 3003 00c0 3A       		.uleb128 0x3a
 3004 00c1 0B       		.uleb128 0xb
 3005 00c2 3B       		.uleb128 0x3b
 3006 00c3 0B       		.uleb128 0xb
 3007 00c4 39       		.uleb128 0x39
 3008 00c5 0B       		.uleb128 0xb
 3009 00c6 01       		.uleb128 0x1
 3010 00c7 13       		.uleb128 0x13
 3011 00c8 00       		.byte	0
 3012 00c9 00       		.byte	0
 3013 00ca 11       		.uleb128 0x11
 3014 00cb 0D       		.uleb128 0xd
 3015 00cc 00       		.byte	0
 3016 00cd 03       		.uleb128 0x3
 3017 00ce 0E       		.uleb128 0xe
 3018 00cf 3A       		.uleb128 0x3a
 3019 00d0 0B       		.uleb128 0xb
 3020 00d1 3B       		.uleb128 0x3b
 3021 00d2 0B       		.uleb128 0xb
ARM GAS  /tmp/ccqsb2PW.s 			page 54


 3022 00d3 39       		.uleb128 0x39
 3023 00d4 0B       		.uleb128 0xb
 3024 00d5 49       		.uleb128 0x49
 3025 00d6 13       		.uleb128 0x13
 3026 00d7 00       		.byte	0
 3027 00d8 00       		.byte	0
 3028 00d9 12       		.uleb128 0x12
 3029 00da 15       		.uleb128 0x15
 3030 00db 01       		.byte	0x1
 3031 00dc 27       		.uleb128 0x27
 3032 00dd 19       		.uleb128 0x19
 3033 00de 49       		.uleb128 0x49
 3034 00df 13       		.uleb128 0x13
 3035 00e0 01       		.uleb128 0x1
 3036 00e1 13       		.uleb128 0x13
 3037 00e2 00       		.byte	0
 3038 00e3 00       		.byte	0
 3039 00e4 13       		.uleb128 0x13
 3040 00e5 01       		.uleb128 0x1
 3041 00e6 01       		.byte	0x1
 3042 00e7 49       		.uleb128 0x49
 3043 00e8 13       		.uleb128 0x13
 3044 00e9 01       		.uleb128 0x1
 3045 00ea 13       		.uleb128 0x13
 3046 00eb 00       		.byte	0
 3047 00ec 00       		.byte	0
 3048 00ed 14       		.uleb128 0x14
 3049 00ee 21       		.uleb128 0x21
 3050 00ef 00       		.byte	0
 3051 00f0 49       		.uleb128 0x49
 3052 00f1 13       		.uleb128 0x13
 3053 00f2 2F       		.uleb128 0x2f
 3054 00f3 0B       		.uleb128 0xb
 3055 00f4 00       		.byte	0
 3056 00f5 00       		.byte	0
 3057 00f6 15       		.uleb128 0x15
 3058 00f7 0D       		.uleb128 0xd
 3059 00f8 00       		.byte	0
 3060 00f9 03       		.uleb128 0x3
 3061 00fa 0E       		.uleb128 0xe
 3062 00fb 3A       		.uleb128 0x3a
 3063 00fc 0B       		.uleb128 0xb
 3064 00fd 3B       		.uleb128 0x3b
 3065 00fe 05       		.uleb128 0x5
 3066 00ff 39       		.uleb128 0x39
 3067 0100 0B       		.uleb128 0xb
 3068 0101 49       		.uleb128 0x49
 3069 0102 13       		.uleb128 0x13
 3070 0103 38       		.uleb128 0x38
 3071 0104 0B       		.uleb128 0xb
 3072 0105 00       		.byte	0
 3073 0106 00       		.byte	0
 3074 0107 16       		.uleb128 0x16
 3075 0108 16       		.uleb128 0x16
 3076 0109 00       		.byte	0
 3077 010a 03       		.uleb128 0x3
 3078 010b 0E       		.uleb128 0xe
ARM GAS  /tmp/ccqsb2PW.s 			page 55


 3079 010c 3A       		.uleb128 0x3a
 3080 010d 0B       		.uleb128 0xb
 3081 010e 3B       		.uleb128 0x3b
 3082 010f 05       		.uleb128 0x5
 3083 0110 39       		.uleb128 0x39
 3084 0111 0B       		.uleb128 0xb
 3085 0112 49       		.uleb128 0x49
 3086 0113 13       		.uleb128 0x13
 3087 0114 00       		.byte	0
 3088 0115 00       		.byte	0
 3089 0116 17       		.uleb128 0x17
 3090 0117 13       		.uleb128 0x13
 3091 0118 00       		.byte	0
 3092 0119 0B       		.uleb128 0xb
 3093 011a 0B       		.uleb128 0xb
 3094 011b 3A       		.uleb128 0x3a
 3095 011c 0B       		.uleb128 0xb
 3096 011d 3B       		.uleb128 0x3b
 3097 011e 0B       		.uleb128 0xb
 3098 011f 39       		.uleb128 0x39
 3099 0120 0B       		.uleb128 0xb
 3100 0121 00       		.byte	0
 3101 0122 00       		.byte	0
 3102 0123 18       		.uleb128 0x18
 3103 0124 04       		.uleb128 0x4
 3104 0125 01       		.byte	0x1
 3105 0126 3E       		.uleb128 0x3e
 3106 0127 0B       		.uleb128 0xb
 3107 0128 0B       		.uleb128 0xb
 3108 0129 0B       		.uleb128 0xb
 3109 012a 49       		.uleb128 0x49
 3110 012b 13       		.uleb128 0x13
 3111 012c 3A       		.uleb128 0x3a
 3112 012d 0B       		.uleb128 0xb
 3113 012e 3B       		.uleb128 0x3b
 3114 012f 0B       		.uleb128 0xb
 3115 0130 39       		.uleb128 0x39
 3116 0131 0B       		.uleb128 0xb
 3117 0132 01       		.uleb128 0x1
 3118 0133 13       		.uleb128 0x13
 3119 0134 00       		.byte	0
 3120 0135 00       		.byte	0
 3121 0136 19       		.uleb128 0x19
 3122 0137 28       		.uleb128 0x28
 3123 0138 00       		.byte	0
 3124 0139 03       		.uleb128 0x3
 3125 013a 0E       		.uleb128 0xe
 3126 013b 1C       		.uleb128 0x1c
 3127 013c 0B       		.uleb128 0xb
 3128 013d 00       		.byte	0
 3129 013e 00       		.byte	0
 3130 013f 1A       		.uleb128 0x1a
 3131 0140 34       		.uleb128 0x34
 3132 0141 00       		.byte	0
 3133 0142 03       		.uleb128 0x3
 3134 0143 08       		.uleb128 0x8
 3135 0144 3A       		.uleb128 0x3a
ARM GAS  /tmp/ccqsb2PW.s 			page 56


 3136 0145 0B       		.uleb128 0xb
 3137 0146 3B       		.uleb128 0x3b
 3138 0147 0B       		.uleb128 0xb
 3139 0148 39       		.uleb128 0x39
 3140 0149 0B       		.uleb128 0xb
 3141 014a 49       		.uleb128 0x49
 3142 014b 13       		.uleb128 0x13
 3143 014c 3F       		.uleb128 0x3f
 3144 014d 19       		.uleb128 0x19
 3145 014e 3C       		.uleb128 0x3c
 3146 014f 19       		.uleb128 0x19
 3147 0150 00       		.byte	0
 3148 0151 00       		.byte	0
 3149 0152 1B       		.uleb128 0x1b
 3150 0153 26       		.uleb128 0x26
 3151 0154 00       		.byte	0
 3152 0155 00       		.byte	0
 3153 0156 00       		.byte	0
 3154 0157 1C       		.uleb128 0x1c
 3155 0158 34       		.uleb128 0x34
 3156 0159 00       		.byte	0
 3157 015a 47       		.uleb128 0x47
 3158 015b 13       		.uleb128 0x13
 3159 015c 3A       		.uleb128 0x3a
 3160 015d 0B       		.uleb128 0xb
 3161 015e 3B       		.uleb128 0x3b
 3162 015f 0B       		.uleb128 0xb
 3163 0160 39       		.uleb128 0x39
 3164 0161 0B       		.uleb128 0xb
 3165 0162 02       		.uleb128 0x2
 3166 0163 18       		.uleb128 0x18
 3167 0164 00       		.byte	0
 3168 0165 00       		.byte	0
 3169 0166 1D       		.uleb128 0x1d
 3170 0167 2E       		.uleb128 0x2e
 3171 0168 01       		.byte	0x1
 3172 0169 3F       		.uleb128 0x3f
 3173 016a 19       		.uleb128 0x19
 3174 016b 03       		.uleb128 0x3
 3175 016c 0E       		.uleb128 0xe
 3176 016d 3A       		.uleb128 0x3a
 3177 016e 0B       		.uleb128 0xb
 3178 016f 3B       		.uleb128 0x3b
 3179 0170 0B       		.uleb128 0xb
 3180 0171 39       		.uleb128 0x39
 3181 0172 0B       		.uleb128 0xb
 3182 0173 27       		.uleb128 0x27
 3183 0174 19       		.uleb128 0x19
 3184 0175 11       		.uleb128 0x11
 3185 0176 01       		.uleb128 0x1
 3186 0177 12       		.uleb128 0x12
 3187 0178 06       		.uleb128 0x6
 3188 0179 40       		.uleb128 0x40
 3189 017a 18       		.uleb128 0x18
 3190 017b 9742     		.uleb128 0x2117
 3191 017d 19       		.uleb128 0x19
 3192 017e 01       		.uleb128 0x1
ARM GAS  /tmp/ccqsb2PW.s 			page 57


 3193 017f 13       		.uleb128 0x13
 3194 0180 00       		.byte	0
 3195 0181 00       		.byte	0
 3196 0182 1E       		.uleb128 0x1e
 3197 0183 05       		.uleb128 0x5
 3198 0184 00       		.byte	0
 3199 0185 03       		.uleb128 0x3
 3200 0186 0E       		.uleb128 0xe
 3201 0187 3A       		.uleb128 0x3a
 3202 0188 0B       		.uleb128 0xb
 3203 0189 3B       		.uleb128 0x3b
 3204 018a 0B       		.uleb128 0xb
 3205 018b 39       		.uleb128 0x39
 3206 018c 0B       		.uleb128 0xb
 3207 018d 49       		.uleb128 0x49
 3208 018e 13       		.uleb128 0x13
 3209 018f 02       		.uleb128 0x2
 3210 0190 18       		.uleb128 0x18
 3211 0191 00       		.byte	0
 3212 0192 00       		.byte	0
 3213 0193 1F       		.uleb128 0x1f
 3214 0194 05       		.uleb128 0x5
 3215 0195 00       		.byte	0
 3216 0196 03       		.uleb128 0x3
 3217 0197 0E       		.uleb128 0xe
 3218 0198 3A       		.uleb128 0x3a
 3219 0199 0B       		.uleb128 0xb
 3220 019a 3B       		.uleb128 0x3b
 3221 019b 0B       		.uleb128 0xb
 3222 019c 39       		.uleb128 0x39
 3223 019d 0B       		.uleb128 0xb
 3224 019e 49       		.uleb128 0x49
 3225 019f 13       		.uleb128 0x13
 3226 01a0 02       		.uleb128 0x2
 3227 01a1 17       		.uleb128 0x17
 3228 01a2 B742     		.uleb128 0x2137
 3229 01a4 17       		.uleb128 0x17
 3230 01a5 00       		.byte	0
 3231 01a6 00       		.byte	0
 3232 01a7 20       		.uleb128 0x20
 3233 01a8 34       		.uleb128 0x34
 3234 01a9 00       		.byte	0
 3235 01aa 03       		.uleb128 0x3
 3236 01ab 08       		.uleb128 0x8
 3237 01ac 3A       		.uleb128 0x3a
 3238 01ad 0B       		.uleb128 0xb
 3239 01ae 3B       		.uleb128 0x3b
 3240 01af 0B       		.uleb128 0xb
 3241 01b0 39       		.uleb128 0x39
 3242 01b1 0B       		.uleb128 0xb
 3243 01b2 49       		.uleb128 0x49
 3244 01b3 13       		.uleb128 0x13
 3245 01b4 02       		.uleb128 0x2
 3246 01b5 17       		.uleb128 0x17
 3247 01b6 B742     		.uleb128 0x2137
 3248 01b8 17       		.uleb128 0x17
 3249 01b9 00       		.byte	0
ARM GAS  /tmp/ccqsb2PW.s 			page 58


 3250 01ba 00       		.byte	0
 3251 01bb 21       		.uleb128 0x21
 3252 01bc 0B       		.uleb128 0xb
 3253 01bd 01       		.byte	0x1
 3254 01be 55       		.uleb128 0x55
 3255 01bf 17       		.uleb128 0x17
 3256 01c0 01       		.uleb128 0x1
 3257 01c1 13       		.uleb128 0x13
 3258 01c2 00       		.byte	0
 3259 01c3 00       		.byte	0
 3260 01c4 22       		.uleb128 0x22
 3261 01c5 898201   		.uleb128 0x4109
 3262 01c8 01       		.byte	0x1
 3263 01c9 11       		.uleb128 0x11
 3264 01ca 01       		.uleb128 0x1
 3265 01cb 31       		.uleb128 0x31
 3266 01cc 13       		.uleb128 0x13
 3267 01cd 00       		.byte	0
 3268 01ce 00       		.byte	0
 3269 01cf 23       		.uleb128 0x23
 3270 01d0 8A8201   		.uleb128 0x410a
 3271 01d3 00       		.byte	0
 3272 01d4 02       		.uleb128 0x2
 3273 01d5 18       		.uleb128 0x18
 3274 01d6 9142     		.uleb128 0x2111
 3275 01d8 18       		.uleb128 0x18
 3276 01d9 00       		.byte	0
 3277 01da 00       		.byte	0
 3278 01db 24       		.uleb128 0x24
 3279 01dc 898201   		.uleb128 0x4109
 3280 01df 01       		.byte	0x1
 3281 01e0 11       		.uleb128 0x11
 3282 01e1 01       		.uleb128 0x1
 3283 01e2 31       		.uleb128 0x31
 3284 01e3 13       		.uleb128 0x13
 3285 01e4 01       		.uleb128 0x1
 3286 01e5 13       		.uleb128 0x13
 3287 01e6 00       		.byte	0
 3288 01e7 00       		.byte	0
 3289 01e8 25       		.uleb128 0x25
 3290 01e9 8A8201   		.uleb128 0x410a
 3291 01ec 00       		.byte	0
 3292 01ed 31       		.uleb128 0x31
 3293 01ee 13       		.uleb128 0x13
 3294 01ef 9142     		.uleb128 0x2111
 3295 01f1 18       		.uleb128 0x18
 3296 01f2 00       		.byte	0
 3297 01f3 00       		.byte	0
 3298 01f4 26       		.uleb128 0x26
 3299 01f5 898201   		.uleb128 0x4109
 3300 01f8 01       		.byte	0x1
 3301 01f9 11       		.uleb128 0x11
 3302 01fa 01       		.uleb128 0x1
 3303 01fb 9542     		.uleb128 0x2115
 3304 01fd 19       		.uleb128 0x19
 3305 01fe 31       		.uleb128 0x31
 3306 01ff 13       		.uleb128 0x13
ARM GAS  /tmp/ccqsb2PW.s 			page 59


 3307 0200 01       		.uleb128 0x1
 3308 0201 13       		.uleb128 0x13
 3309 0202 00       		.byte	0
 3310 0203 00       		.byte	0
 3311 0204 27       		.uleb128 0x27
 3312 0205 898201   		.uleb128 0x4109
 3313 0208 01       		.byte	0x1
 3314 0209 11       		.uleb128 0x11
 3315 020a 01       		.uleb128 0x1
 3316 020b 9542     		.uleb128 0x2115
 3317 020d 19       		.uleb128 0x19
 3318 020e 31       		.uleb128 0x31
 3319 020f 13       		.uleb128 0x13
 3320 0210 00       		.byte	0
 3321 0211 00       		.byte	0
 3322 0212 28       		.uleb128 0x28
 3323 0213 2E       		.uleb128 0x2e
 3324 0214 01       		.byte	0x1
 3325 0215 03       		.uleb128 0x3
 3326 0216 0E       		.uleb128 0xe
 3327 0217 3A       		.uleb128 0x3a
 3328 0218 0B       		.uleb128 0xb
 3329 0219 3B       		.uleb128 0x3b
 3330 021a 0B       		.uleb128 0xb
 3331 021b 39       		.uleb128 0x39
 3332 021c 0B       		.uleb128 0xb
 3333 021d 27       		.uleb128 0x27
 3334 021e 19       		.uleb128 0x19
 3335 021f 20       		.uleb128 0x20
 3336 0220 0B       		.uleb128 0xb
 3337 0221 01       		.uleb128 0x1
 3338 0222 13       		.uleb128 0x13
 3339 0223 00       		.byte	0
 3340 0224 00       		.byte	0
 3341 0225 29       		.uleb128 0x29
 3342 0226 05       		.uleb128 0x5
 3343 0227 00       		.byte	0
 3344 0228 03       		.uleb128 0x3
 3345 0229 0E       		.uleb128 0xe
 3346 022a 3A       		.uleb128 0x3a
 3347 022b 0B       		.uleb128 0xb
 3348 022c 3B       		.uleb128 0x3b
 3349 022d 0B       		.uleb128 0xb
 3350 022e 39       		.uleb128 0x39
 3351 022f 0B       		.uleb128 0xb
 3352 0230 49       		.uleb128 0x49
 3353 0231 13       		.uleb128 0x13
 3354 0232 00       		.byte	0
 3355 0233 00       		.byte	0
 3356 0234 2A       		.uleb128 0x2a
 3357 0235 34       		.uleb128 0x34
 3358 0236 00       		.byte	0
 3359 0237 03       		.uleb128 0x3
 3360 0238 08       		.uleb128 0x8
 3361 0239 3A       		.uleb128 0x3a
 3362 023a 0B       		.uleb128 0xb
 3363 023b 3B       		.uleb128 0x3b
ARM GAS  /tmp/ccqsb2PW.s 			page 60


 3364 023c 0B       		.uleb128 0xb
 3365 023d 39       		.uleb128 0x39
 3366 023e 0B       		.uleb128 0xb
 3367 023f 49       		.uleb128 0x49
 3368 0240 13       		.uleb128 0x13
 3369 0241 00       		.byte	0
 3370 0242 00       		.byte	0
 3371 0243 2B       		.uleb128 0x2b
 3372 0244 0B       		.uleb128 0xb
 3373 0245 01       		.byte	0x1
 3374 0246 00       		.byte	0
 3375 0247 00       		.byte	0
 3376 0248 2C       		.uleb128 0x2c
 3377 0249 2E       		.uleb128 0x2e
 3378 024a 01       		.byte	0x1
 3379 024b 31       		.uleb128 0x31
 3380 024c 13       		.uleb128 0x13
 3381 024d 11       		.uleb128 0x11
 3382 024e 01       		.uleb128 0x1
 3383 024f 12       		.uleb128 0x12
 3384 0250 06       		.uleb128 0x6
 3385 0251 40       		.uleb128 0x40
 3386 0252 18       		.uleb128 0x18
 3387 0253 9742     		.uleb128 0x2117
 3388 0255 19       		.uleb128 0x19
 3389 0256 01       		.uleb128 0x1
 3390 0257 13       		.uleb128 0x13
 3391 0258 00       		.byte	0
 3392 0259 00       		.byte	0
 3393 025a 2D       		.uleb128 0x2d
 3394 025b 05       		.uleb128 0x5
 3395 025c 00       		.byte	0
 3396 025d 31       		.uleb128 0x31
 3397 025e 13       		.uleb128 0x13
 3398 025f 02       		.uleb128 0x2
 3399 0260 17       		.uleb128 0x17
 3400 0261 B742     		.uleb128 0x2137
 3401 0263 17       		.uleb128 0x17
 3402 0264 00       		.byte	0
 3403 0265 00       		.byte	0
 3404 0266 2E       		.uleb128 0x2e
 3405 0267 05       		.uleb128 0x5
 3406 0268 00       		.byte	0
 3407 0269 31       		.uleb128 0x31
 3408 026a 13       		.uleb128 0x13
 3409 026b 00       		.byte	0
 3410 026c 00       		.byte	0
 3411 026d 2F       		.uleb128 0x2f
 3412 026e 34       		.uleb128 0x34
 3413 026f 00       		.byte	0
 3414 0270 31       		.uleb128 0x31
 3415 0271 13       		.uleb128 0x13
 3416 0272 02       		.uleb128 0x2
 3417 0273 17       		.uleb128 0x17
 3418 0274 B742     		.uleb128 0x2137
 3419 0276 17       		.uleb128 0x17
 3420 0277 00       		.byte	0
ARM GAS  /tmp/ccqsb2PW.s 			page 61


 3421 0278 00       		.byte	0
 3422 0279 30       		.uleb128 0x30
 3423 027a 0B       		.uleb128 0xb
 3424 027b 01       		.byte	0x1
 3425 027c 31       		.uleb128 0x31
 3426 027d 13       		.uleb128 0x13
 3427 027e 55       		.uleb128 0x55
 3428 027f 17       		.uleb128 0x17
 3429 0280 00       		.byte	0
 3430 0281 00       		.byte	0
 3431 0282 31       		.uleb128 0x31
 3432 0283 2E       		.uleb128 0x2e
 3433 0284 00       		.byte	0
 3434 0285 3F       		.uleb128 0x3f
 3435 0286 19       		.uleb128 0x19
 3436 0287 3C       		.uleb128 0x3c
 3437 0288 19       		.uleb128 0x19
 3438 0289 6E       		.uleb128 0x6e
 3439 028a 0E       		.uleb128 0xe
 3440 028b 03       		.uleb128 0x3
 3441 028c 0E       		.uleb128 0xe
 3442 028d 3A       		.uleb128 0x3a
 3443 028e 0B       		.uleb128 0xb
 3444 028f 3B       		.uleb128 0x3b
 3445 0290 05       		.uleb128 0x5
 3446 0291 39       		.uleb128 0x39
 3447 0292 0B       		.uleb128 0xb
 3448 0293 00       		.byte	0
 3449 0294 00       		.byte	0
 3450 0295 00       		.byte	0
 3451              		.section	.debug_loc,"",%progbits
 3452              	.Ldebug_loc0:
 3453              	.LVUS6:
 3454 0000 00       		.uleb128 0
 3455 0001 00       		.uleb128 .LVU85
 3456 0002 00       		.uleb128 .LVU85
 3457 0003 00       		.uleb128 .LVU99
 3458 0004 00       		.uleb128 .LVU99
 3459 0005 00       		.uleb128 .LVU102
 3460 0006 00       		.uleb128 .LVU102
 3461 0007 00       		.uleb128 .LVU105
 3462 0008 00       		.uleb128 .LVU105
 3463 0009 00       		.uleb128 .LVU106
 3464 000a 00       		.uleb128 .LVU106
 3465 000b 00       		.uleb128 .LVU106
 3466 000c 00       		.uleb128 .LVU106
 3467 000d 00       		.uleb128 .LVU107
 3468 000e 00       		.uleb128 .LVU107
 3469 000f 00       		.uleb128 .LVU110
 3470 0010 00       		.uleb128 .LVU110
 3471 0011 00       		.uleb128 .LVU111
 3472 0012 00       		.uleb128 .LVU111
 3473 0013 00       		.uleb128 .LVU111
 3474 0014 00       		.uleb128 .LVU111
 3475 0015 00       		.uleb128 .LVU112
 3476 0016 00       		.uleb128 .LVU112
 3477 0017 00       		.uleb128 .LVU115
ARM GAS  /tmp/ccqsb2PW.s 			page 62


 3478 0018 00       		.uleb128 .LVU115
 3479 0019 00       		.uleb128 .LVU116
 3480 001a 00       		.uleb128 .LVU116
 3481 001b 00       		.uleb128 0
 3482              	.LLST6:
 3483 001c 00000000 		.4byte	.LVL13
 3484 0020 54000000 		.4byte	.LVL17
 3485 0024 0100     		.2byte	0x1
 3486 0026 50       		.byte	0x50
 3487 0027 54000000 		.4byte	.LVL17
 3488 002b 80000000 		.4byte	.LVL22
 3489 002f 0100     		.2byte	0x1
 3490 0031 56       		.byte	0x56
 3491 0032 80000000 		.4byte	.LVL22
 3492 0036 88000000 		.4byte	.LVL23
 3493 003a 0100     		.2byte	0x1
 3494 003c 50       		.byte	0x50
 3495 003d 88000000 		.4byte	.LVL23
 3496 0041 9C000000 		.4byte	.LVL25
 3497 0045 0100     		.2byte	0x1
 3498 0047 56       		.byte	0x56
 3499 0048 9C000000 		.4byte	.LVL25
 3500 004c 9F000000 		.4byte	.LVL26-1
 3501 0050 0300     		.2byte	0x3
 3502 0052 70       		.byte	0x70
 3503 0053 70       		.sleb128 -16
 3504 0054 9F       		.byte	0x9f
 3505 0055 9F000000 		.4byte	.LVL26-1
 3506 0059 A0000000 		.4byte	.LVL26
 3507 005d 0400     		.2byte	0x4
 3508 005f F3       		.byte	0xf3
 3509 0060 01       		.uleb128 0x1
 3510 0061 50       		.byte	0x50
 3511 0062 9F       		.byte	0x9f
 3512 0063 A0000000 		.4byte	.LVL26
 3513 0067 A4000000 		.4byte	.LVL27
 3514 006b 0100     		.2byte	0x1
 3515 006d 50       		.byte	0x50
 3516 006e A4000000 		.4byte	.LVL27
 3517 0072 B8000000 		.4byte	.LVL29
 3518 0076 0100     		.2byte	0x1
 3519 0078 56       		.byte	0x56
 3520 0079 B8000000 		.4byte	.LVL29
 3521 007d BB000000 		.4byte	.LVL30-1
 3522 0081 0300     		.2byte	0x3
 3523 0083 70       		.byte	0x70
 3524 0084 70       		.sleb128 -16
 3525 0085 9F       		.byte	0x9f
 3526 0086 BB000000 		.4byte	.LVL30-1
 3527 008a BC000000 		.4byte	.LVL30
 3528 008e 0400     		.2byte	0x4
 3529 0090 F3       		.byte	0xf3
 3530 0091 01       		.uleb128 0x1
 3531 0092 50       		.byte	0x50
 3532 0093 9F       		.byte	0x9f
 3533 0094 BC000000 		.4byte	.LVL30
 3534 0098 C0000000 		.4byte	.LVL31
ARM GAS  /tmp/ccqsb2PW.s 			page 63


 3535 009c 0100     		.2byte	0x1
 3536 009e 50       		.byte	0x50
 3537 009f C0000000 		.4byte	.LVL31
 3538 00a3 D4000000 		.4byte	.LVL33
 3539 00a7 0100     		.2byte	0x1
 3540 00a9 56       		.byte	0x56
 3541 00aa D4000000 		.4byte	.LVL33
 3542 00ae D7000000 		.4byte	.LVL34-1
 3543 00b2 0300     		.2byte	0x3
 3544 00b4 70       		.byte	0x70
 3545 00b5 70       		.sleb128 -16
 3546 00b6 9F       		.byte	0x9f
 3547 00b7 D7000000 		.4byte	.LVL34-1
 3548 00bb D8000000 		.4byte	.LFE10
 3549 00bf 0400     		.2byte	0x4
 3550 00c1 F3       		.byte	0xf3
 3551 00c2 01       		.uleb128 0x1
 3552 00c3 50       		.byte	0x50
 3553 00c4 9F       		.byte	0x9f
 3554 00c5 00000000 		.4byte	0
 3555 00c9 00000000 		.4byte	0
 3556              	.LVUS7:
 3557 00cd 00       		.uleb128 0
 3558 00ce 00       		.uleb128 .LVU85
 3559 00cf 00       		.uleb128 .LVU85
 3560 00d0 00       		.uleb128 .LVU99
 3561 00d1 00       		.uleb128 .LVU99
 3562 00d2 00       		.uleb128 .LVU103
 3563 00d3 00       		.uleb128 .LVU103
 3564 00d4 00       		.uleb128 .LVU105
 3565 00d5 00       		.uleb128 .LVU105
 3566 00d6 00       		.uleb128 .LVU106
 3567 00d7 00       		.uleb128 .LVU106
 3568 00d8 00       		.uleb128 .LVU106
 3569 00d9 00       		.uleb128 .LVU106
 3570 00da 00       		.uleb128 .LVU108
 3571 00db 00       		.uleb128 .LVU108
 3572 00dc 00       		.uleb128 .LVU110
 3573 00dd 00       		.uleb128 .LVU110
 3574 00de 00       		.uleb128 .LVU111
 3575 00df 00       		.uleb128 .LVU111
 3576 00e0 00       		.uleb128 .LVU111
 3577 00e1 00       		.uleb128 .LVU111
 3578 00e2 00       		.uleb128 .LVU113
 3579 00e3 00       		.uleb128 .LVU113
 3580 00e4 00       		.uleb128 .LVU115
 3581 00e5 00       		.uleb128 .LVU115
 3582 00e6 00       		.uleb128 .LVU116
 3583 00e7 00       		.uleb128 .LVU116
 3584 00e8 00       		.uleb128 0
 3585              	.LLST7:
 3586 00e9 00000000 		.4byte	.LVL13
 3587 00ed 54000000 		.4byte	.LVL17
 3588 00f1 0100     		.2byte	0x1
 3589 00f3 51       		.byte	0x51
 3590 00f4 54000000 		.4byte	.LVL17
 3591 00f8 80000000 		.4byte	.LVL22
ARM GAS  /tmp/ccqsb2PW.s 			page 64


 3592 00fc 0100     		.2byte	0x1
 3593 00fe 55       		.byte	0x55
 3594 00ff 80000000 		.4byte	.LVL22
 3595 0103 8B000000 		.4byte	.LVL24-1
 3596 0107 0100     		.2byte	0x1
 3597 0109 51       		.byte	0x51
 3598 010a 8B000000 		.4byte	.LVL24-1
 3599 010e 9C000000 		.4byte	.LVL25
 3600 0112 0100     		.2byte	0x1
 3601 0114 55       		.byte	0x55
 3602 0115 9C000000 		.4byte	.LVL25
 3603 0119 9F000000 		.4byte	.LVL26-1
 3604 011d 0100     		.2byte	0x1
 3605 011f 51       		.byte	0x51
 3606 0120 9F000000 		.4byte	.LVL26-1
 3607 0124 A0000000 		.4byte	.LVL26
 3608 0128 0400     		.2byte	0x4
 3609 012a F3       		.byte	0xf3
 3610 012b 01       		.uleb128 0x1
 3611 012c 51       		.byte	0x51
 3612 012d 9F       		.byte	0x9f
 3613 012e A0000000 		.4byte	.LVL26
 3614 0132 A7000000 		.4byte	.LVL28-1
 3615 0136 0100     		.2byte	0x1
 3616 0138 51       		.byte	0x51
 3617 0139 A7000000 		.4byte	.LVL28-1
 3618 013d B8000000 		.4byte	.LVL29
 3619 0141 0100     		.2byte	0x1
 3620 0143 55       		.byte	0x55
 3621 0144 B8000000 		.4byte	.LVL29
 3622 0148 BB000000 		.4byte	.LVL30-1
 3623 014c 0100     		.2byte	0x1
 3624 014e 51       		.byte	0x51
 3625 014f BB000000 		.4byte	.LVL30-1
 3626 0153 BC000000 		.4byte	.LVL30
 3627 0157 0400     		.2byte	0x4
 3628 0159 F3       		.byte	0xf3
 3629 015a 01       		.uleb128 0x1
 3630 015b 51       		.byte	0x51
 3631 015c 9F       		.byte	0x9f
 3632 015d BC000000 		.4byte	.LVL30
 3633 0161 C3000000 		.4byte	.LVL32-1
 3634 0165 0100     		.2byte	0x1
 3635 0167 51       		.byte	0x51
 3636 0168 C3000000 		.4byte	.LVL32-1
 3637 016c D4000000 		.4byte	.LVL33
 3638 0170 0100     		.2byte	0x1
 3639 0172 55       		.byte	0x55
 3640 0173 D4000000 		.4byte	.LVL33
 3641 0177 D7000000 		.4byte	.LVL34-1
 3642 017b 0100     		.2byte	0x1
 3643 017d 51       		.byte	0x51
 3644 017e D7000000 		.4byte	.LVL34-1
 3645 0182 D8000000 		.4byte	.LFE10
 3646 0186 0400     		.2byte	0x4
 3647 0188 F3       		.byte	0xf3
 3648 0189 01       		.uleb128 0x1
ARM GAS  /tmp/ccqsb2PW.s 			page 65


 3649 018a 51       		.byte	0x51
 3650 018b 9F       		.byte	0x9f
 3651 018c 00000000 		.4byte	0
 3652 0190 00000000 		.4byte	0
 3653              	.LVUS8:
 3654 0194 00       		.uleb128 0
 3655 0195 00       		.uleb128 .LVU82
 3656 0196 00       		.uleb128 .LVU82
 3657 0197 00       		.uleb128 .LVU83
 3658 0198 00       		.uleb128 .LVU83
 3659 0199 00       		.uleb128 .LVU84
 3660 019a 00       		.uleb128 .LVU84
 3661 019b 00       		.uleb128 0
 3662              	.LLST8:
 3663 019c 00000000 		.4byte	.LVL13
 3664 01a0 20000000 		.4byte	.LVL14
 3665 01a4 0100     		.2byte	0x1
 3666 01a6 52       		.byte	0x52
 3667 01a7 20000000 		.4byte	.LVL14
 3668 01ab 44000000 		.4byte	.LVL15
 3669 01af 0300     		.2byte	0x3
 3670 01b1 72       		.byte	0x72
 3671 01b2 02       		.sleb128 2
 3672 01b3 9F       		.byte	0x9f
 3673 01b4 44000000 		.4byte	.LVL15
 3674 01b8 4C000000 		.4byte	.LVL16
 3675 01bc 0100     		.2byte	0x1
 3676 01be 52       		.byte	0x52
 3677 01bf 4C000000 		.4byte	.LVL16
 3678 01c3 D8000000 		.4byte	.LFE10
 3679 01c7 0400     		.2byte	0x4
 3680 01c9 F3       		.byte	0xf3
 3681 01ca 01       		.uleb128 0x1
 3682 01cb 52       		.byte	0x52
 3683 01cc 9F       		.byte	0x9f
 3684 01cd 00000000 		.4byte	0
 3685 01d1 00000000 		.4byte	0
 3686              	.LVUS9:
 3687 01d5 00       		.uleb128 .LVU85
 3688 01d6 00       		.uleb128 .LVU87
 3689 01d7 00       		.uleb128 .LVU87
 3690 01d8 02       		.uleb128 .LVU91
 3691 01d9 02       		.uleb128 .LVU91
 3692 01da 00       		.uleb128 .LVU99
 3693              	.LLST9:
 3694 01db 54000000 		.4byte	.LVL17
 3695 01df 58000000 		.4byte	.LVL18
 3696 01e3 0100     		.2byte	0x1
 3697 01e5 54       		.byte	0x54
 3698 01e6 58000000 		.4byte	.LVL18
 3699 01ea 60000000 		.4byte	.LVL19
 3700 01ee 0300     		.2byte	0x3
 3701 01f0 74       		.byte	0x74
 3702 01f1 7F       		.sleb128 -1
 3703 01f2 9F       		.byte	0x9f
 3704 01f3 60000000 		.4byte	.LVL19
 3705 01f7 80000000 		.4byte	.LVL22
ARM GAS  /tmp/ccqsb2PW.s 			page 66


 3706 01fb 0100     		.2byte	0x1
 3707 01fd 54       		.byte	0x54
 3708 01fe 00000000 		.4byte	0
 3709 0202 00000000 		.4byte	0
 3710              	.LVUS10:
 3711 0206 00       		.uleb128 .LVU85
 3712 0207 00       		.uleb128 .LVU89
 3713 0208 01       		.uleb128 .LVU94
 3714 0209 00       		.uleb128 .LVU99
 3715              	.LLST10:
 3716 020a 54000000 		.4byte	.LVL17
 3717 020e 60000000 		.4byte	.LVL19
 3718 0212 0500     		.2byte	0x5
 3719 0214 75       		.byte	0x75
 3720 0215 00       		.sleb128 0
 3721 0216 31       		.byte	0x31
 3722 0217 1A       		.byte	0x1a
 3723 0218 9F       		.byte	0x9f
 3724 0219 64000000 		.4byte	.LVL20
 3725 021d 80000000 		.4byte	.LVL22
 3726 0221 0500     		.2byte	0x5
 3727 0223 75       		.byte	0x75
 3728 0224 00       		.sleb128 0
 3729 0225 31       		.byte	0x31
 3730 0226 1A       		.byte	0x1a
 3731 0227 9F       		.byte	0x9f
 3732 0228 00000000 		.4byte	0
 3733 022c 00000000 		.4byte	0
 3734              	.LVUS5:
 3735 0230 00       		.uleb128 0
 3736 0231 00       		.uleb128 .LVU48
 3737 0232 00       		.uleb128 .LVU48
 3738 0233 00       		.uleb128 0
 3739              	.LLST5:
 3740 0234 00000000 		.4byte	.LVL9
 3741 0238 1C000000 		.4byte	.LVL10
 3742 023c 0100     		.2byte	0x1
 3743 023e 50       		.byte	0x50
 3744 023f 1C000000 		.4byte	.LVL10
 3745 0243 98000000 		.4byte	.LFE9
 3746 0247 0400     		.2byte	0x4
 3747 0249 F3       		.byte	0xf3
 3748 024a 01       		.uleb128 0x1
 3749 024b 50       		.byte	0x50
 3750 024c 9F       		.byte	0x9f
 3751 024d 00000000 		.4byte	0
 3752 0251 00000000 		.4byte	0
 3753              	.LVUS0:
 3754 0255 00       		.uleb128 0
 3755 0256 00       		.uleb128 .LVU5
 3756 0257 00       		.uleb128 .LVU5
 3757 0258 00       		.uleb128 0
 3758              	.LLST0:
 3759 0259 00000000 		.4byte	.LVL0
 3760 025d 14000000 		.4byte	.LVL1
 3761 0261 0100     		.2byte	0x1
 3762 0263 51       		.byte	0x51
ARM GAS  /tmp/ccqsb2PW.s 			page 67


 3763 0264 14000000 		.4byte	.LVL1
 3764 0268 40000000 		.4byte	.LFE12
 3765 026c 0100     		.2byte	0x1
 3766 026e 55       		.byte	0x55
 3767 026f 00000000 		.4byte	0
 3768 0273 00000000 		.4byte	0
 3769              	.LVUS1:
 3770 0277 01       		.uleb128 .LVU1
 3771 0278 00       		.uleb128 .LVU5
 3772 0279 00       		.uleb128 .LVU5
 3773 027a 00       		.uleb128 .LVU7
 3774 027b 00       		.uleb128 .LVU7
 3775 027c 02       		.uleb128 .LVU11
 3776 027d 02       		.uleb128 .LVU11
 3777 027e 00       		.uleb128 0
 3778              	.LLST1:
 3779 027f 00000000 		.4byte	.LVL0
 3780 0283 14000000 		.4byte	.LVL1
 3781 0287 0200     		.2byte	0x2
 3782 0289 30       		.byte	0x30
 3783 028a 9F       		.byte	0x9f
 3784 028b 14000000 		.4byte	.LVL1
 3785 028f 18000000 		.4byte	.LVL2
 3786 0293 0100     		.2byte	0x1
 3787 0295 54       		.byte	0x54
 3788 0296 18000000 		.4byte	.LVL2
 3789 029a 20000000 		.4byte	.LVL3
 3790 029e 0300     		.2byte	0x3
 3791 02a0 74       		.byte	0x74
 3792 02a1 7F       		.sleb128 -1
 3793 02a2 9F       		.byte	0x9f
 3794 02a3 20000000 		.4byte	.LVL3
 3795 02a7 40000000 		.4byte	.LFE12
 3796 02ab 0100     		.2byte	0x1
 3797 02ad 54       		.byte	0x54
 3798 02ae 00000000 		.4byte	0
 3799 02b2 00000000 		.4byte	0
 3800              	.LVUS2:
 3801 02b6 00       		.uleb128 .LVU5
 3802 02b7 00       		.uleb128 .LVU9
 3803 02b8 01       		.uleb128 .LVU14
 3804 02b9 00       		.uleb128 0
 3805              	.LLST2:
 3806 02ba 14000000 		.4byte	.LVL1
 3807 02be 20000000 		.4byte	.LVL3
 3808 02c2 0500     		.2byte	0x5
 3809 02c4 75       		.byte	0x75
 3810 02c5 00       		.sleb128 0
 3811 02c6 31       		.byte	0x31
 3812 02c7 1A       		.byte	0x1a
 3813 02c8 9F       		.byte	0x9f
 3814 02c9 24000000 		.4byte	.LVL4
 3815 02cd 40000000 		.4byte	.LFE12
 3816 02d1 0500     		.2byte	0x5
 3817 02d3 75       		.byte	0x75
 3818 02d4 00       		.sleb128 0
 3819 02d5 31       		.byte	0x31
ARM GAS  /tmp/ccqsb2PW.s 			page 68


 3820 02d6 1A       		.byte	0x1a
 3821 02d7 9F       		.byte	0x9f
 3822 02d8 00000000 		.4byte	0
 3823 02dc 00000000 		.4byte	0
 3824              	.LVUS3:
 3825 02e0 00       		.uleb128 0
 3826 02e1 00       		.uleb128 .LVU27
 3827 02e2 00       		.uleb128 .LVU27
 3828 02e3 00       		.uleb128 0
 3829              	.LLST3:
 3830 02e4 00000000 		.4byte	.LVL6
 3831 02e8 1B000000 		.4byte	.LVL7-1
 3832 02ec 0100     		.2byte	0x1
 3833 02ee 51       		.byte	0x51
 3834 02ef 1B000000 		.4byte	.LVL7-1
 3835 02f3 44000000 		.4byte	.LFE13
 3836 02f7 0100     		.2byte	0x1
 3837 02f9 55       		.byte	0x55
 3838 02fa 00000000 		.4byte	0
 3839 02fe 00000000 		.4byte	0
 3840              	.LVUS4:
 3841 0302 00       		.uleb128 0
 3842 0303 00       		.uleb128 .LVU27
 3843 0304 00       		.uleb128 .LVU27
 3844 0305 00       		.uleb128 0
 3845              	.LLST4:
 3846 0306 00000000 		.4byte	.LVL6
 3847 030a 1B000000 		.4byte	.LVL7-1
 3848 030e 0100     		.2byte	0x1
 3849 0310 52       		.byte	0x52
 3850 0311 1B000000 		.4byte	.LVL7-1
 3851 0315 44000000 		.4byte	.LFE13
 3852 0319 0400     		.2byte	0x4
 3853 031b F3       		.byte	0xf3
 3854 031c 01       		.uleb128 0x1
 3855 031d 52       		.byte	0x52
 3856 031e 9F       		.byte	0x9f
 3857 031f 00000000 		.4byte	0
 3858 0323 00000000 		.4byte	0
 3859              		.section	.debug_aranges,"",%progbits
 3860 0000 3C000000 		.4byte	0x3c
 3861 0004 0200     		.2byte	0x2
 3862 0006 00000000 		.4byte	.Ldebug_info0
 3863 000a 04       		.byte	0x4
 3864 000b 00       		.byte	0
 3865 000c 0000     		.2byte	0
 3866 000e 0000     		.2byte	0
 3867 0010 00000000 		.4byte	.LFB12
 3868 0014 40000000 		.4byte	.LFE12-.LFB12
 3869 0018 00000000 		.4byte	.LFB13
 3870 001c 44000000 		.4byte	.LFE13-.LFB13
 3871 0020 00000000 		.4byte	.LFB9
 3872 0024 98000000 		.4byte	.LFE9-.LFB9
 3873 0028 00000000 		.4byte	.LFB10
 3874 002c D8000000 		.4byte	.LFE10-.LFB10
 3875 0030 00000000 		.4byte	.LFB11
 3876 0034 1C000000 		.4byte	.LFE11-.LFB11
ARM GAS  /tmp/ccqsb2PW.s 			page 69


 3877 0038 00000000 		.4byte	0
 3878 003c 00000000 		.4byte	0
 3879              		.section	.debug_ranges,"",%progbits
 3880              	.Ldebug_ranges0:
 3881 0000 14000000 		.4byte	.LBB3
 3882 0004 14000000 		.4byte	.LBE3
 3883 0008 1C000000 		.4byte	.LBB4
 3884 000c 20000000 		.4byte	.LBE4
 3885 0010 24000000 		.4byte	.LBB5
 3886 0014 40000000 		.4byte	.LBE5
 3887 0018 00000000 		.4byte	0
 3888 001c 00000000 		.4byte	0
 3889 0020 54000000 		.4byte	.LBB6
 3890 0024 54000000 		.4byte	.LBE6
 3891 0028 5C000000 		.4byte	.LBB7
 3892 002c 60000000 		.4byte	.LBE7
 3893 0030 64000000 		.4byte	.LBB8
 3894 0034 80000000 		.4byte	.LBE8
 3895 0038 00000000 		.4byte	0
 3896 003c 00000000 		.4byte	0
 3897 0040 00000000 		.4byte	.LFB12
 3898 0044 40000000 		.4byte	.LFE12
 3899 0048 00000000 		.4byte	.LFB13
 3900 004c 44000000 		.4byte	.LFE13
 3901 0050 00000000 		.4byte	.LFB9
 3902 0054 98000000 		.4byte	.LFE9
 3903 0058 00000000 		.4byte	.LFB10
 3904 005c D8000000 		.4byte	.LFE10
 3905 0060 00000000 		.4byte	.LFB11
 3906 0064 1C000000 		.4byte	.LFE11
 3907 0068 00000000 		.4byte	0
 3908 006c 00000000 		.4byte	0
 3909              		.section	.debug_line,"",%progbits
 3910              	.Ldebug_line0:
 3911 0000 95030000 		.section	.debug_str,"MS",%progbits,1
 3911      0300A401 
 3911      00000201 
 3911      FB0E0D00 
 3911      01010101 
 3912              	.LASF92:
 3913 0000 63665F6F 		.ascii	"cf_off_older\000"
 3913      66665F6F 
 3913      6C646572 
 3913      00
 3914              	.LASF38:
 3915 000d 705F6D73 		.ascii	"p_msg\000"
 3915      6700
 3916              	.LASF210:
 3917 0013 474E5520 		.ascii	"GNU C17 9.2.1 20191025 (release) [ARM/arm-9-branch "
 3917      43313720 
 3917      392E322E 
 3917      31203230 
 3917      31393130 
 3918 0046 72657669 		.ascii	"revision 277599] -mcpu=arm1176jz-s -mno-thumb-inter"
 3918      73696F6E 
 3918      20323737 
 3918      3539395D 
ARM GAS  /tmp/ccqsb2PW.s 			page 70


 3918      202D6D63 
 3919 0079 776F726B 		.ascii	"work -mfloat-abi=soft -marm -march=armv6kz -ggdb -O"
 3919      202D6D66 
 3919      6C6F6174 
 3919      2D616269 
 3919      3D736F66 
 3920 00ac 32202D66 		.ascii	"2 -fomit-frame-pointer -ffunction-sections -fdata-s"
 3920      6F6D6974 
 3920      2D667261 
 3920      6D652D70 
 3920      6F696E74 
 3921 00df 65637469 		.ascii	"ections\000"
 3921      6F6E7300 
 3922              	.LASF77:
 3923 00e7 7264796D 		.ascii	"rdymsg\000"
 3923      736700
 3924              	.LASF172:
 3925 00ee 77726974 		.ascii	"write\000"
 3925      6500
 3926              	.LASF113:
 3927 00f4 4F757470 		.ascii	"OutputQueue\000"
 3927      75745175 
 3927      65756500 
 3928              	.LASF181:
 3929 0100 5350495F 		.ascii	"SPI_ACTIVE\000"
 3929      41435449 
 3929      564500
 3930              	.LASF64:
 3931 010b 76746C69 		.ascii	"vtlist\000"
 3931      737400
 3932              	.LASF115:
 3933 0112 62736364 		.ascii	"bscdevice_t\000"
 3933      65766963 
 3933      655F7400 
 3934              	.LASF132:
 3935 011e 696F706F 		.ascii	"ioportmask_t\000"
 3935      72746D61 
 3935      736B5F74 
 3935      00
 3936              	.LASF106:
 3937 012b 715F746F 		.ascii	"q_top\000"
 3937      7000
 3938              	.LASF13:
 3939 0131 6C6F6E67 		.ascii	"long long unsigned int\000"
 3939      206C6F6E 
 3939      6720756E 
 3939      7369676E 
 3939      65642069 
 3940              	.LASF88:
 3941 0148 63685F74 		.ascii	"ch_threadsize\000"
 3941      68726561 
 3941      6473697A 
 3941      6500
 3942              	.LASF78:
 3943 0156 65786974 		.ascii	"exitcode\000"
 3943      636F6465 
 3943      00
ARM GAS  /tmp/ccqsb2PW.s 			page 71


 3944              	.LASF184:
 3945 015f 53504944 		.ascii	"SPIDriver\000"
 3945      72697665 
 3945      7200
 3946              	.LASF155:
 3947 0169 72786275 		.ascii	"rxbuf\000"
 3947      6600
 3948              	.LASF120:
 3949 016f 64617461 		.ascii	"dataFifo\000"
 3949      4669666F 
 3949      00
 3950              	.LASF26:
 3951 0178 705F7072 		.ascii	"p_prio\000"
 3951      696F00
 3952              	.LASF95:
 3953 017f 63665F6F 		.ascii	"cf_off_state\000"
 3953      66665F73 
 3953      74617465 
 3953      00
 3954              	.LASF167:
 3955 018c 53657269 		.ascii	"SerialDriver\000"
 3955      616C4472 
 3955      69766572 
 3955      00
 3956              	.LASF148:
 3957 0199 64657669 		.ascii	"device\000"
 3957      636500
 3958              	.LASF103:
 3959 01a0 715F7761 		.ascii	"q_waiting\000"
 3959      6974696E 
 3959      6700
 3960              	.LASF6:
 3961 01aa 6C6F6E67 		.ascii	"long long int\000"
 3961      206C6F6E 
 3961      6720696E 
 3961      7400
 3962              	.LASF1:
 3963 01b8 7369676E 		.ascii	"signed char\000"
 3963      65642063 
 3963      68617200 
 3964              	.LASF94:
 3965 01c4 63665F6F 		.ascii	"cf_off_stklimit\000"
 3965      66665F73 
 3965      746B6C69 
 3965      6D697400 
 3966              	.LASF179:
 3967 01d4 5350495F 		.ascii	"SPI_STOP\000"
 3967      53544F50 
 3967      00
 3968              	.LASF96:
 3969 01dd 63665F6F 		.ascii	"cf_off_flags\000"
 3969      66665F66 
 3969      6C616773 
 3969      00
 3970              	.LASF164:
 3971 01ea 53445F53 		.ascii	"SD_STOP\000"
 3971      544F5000 
ARM GAS  /tmp/ccqsb2PW.s 			page 72


 3972              	.LASF67:
 3973 01f2 6D5F7175 		.ascii	"m_queue\000"
 3973      65756500 
 3974              	.LASF151:
 3975 01fa 61646472 		.ascii	"addr\000"
 3975      00
 3976              	.LASF204:
 3977 01ff 5F70616C 		.ascii	"_pal_lld_init\000"
 3977      5F6C6C64 
 3977      5F696E69 
 3977      7400
 3978              	.LASF17:
 3979 020d 74736C69 		.ascii	"tslices_t\000"
 3979      6365735F 
 3979      7400
 3980              	.LASF137:
 3981 0217 4932435F 		.ascii	"I2C_UNINIT\000"
 3981      554E494E 
 3981      495400
 3982              	.LASF159:
 3983 0222 69326361 		.ascii	"i2caddr_t\000"
 3983      6464725F 
 3983      7400
 3984              	.LASF145:
 3985 022c 73746174 		.ascii	"state\000"
 3985      6500
 3986              	.LASF199:
 3987 0232 62697473 		.ascii	"bits\000"
 3987      00
 3988              	.LASF5:
 3989 0237 6C6F6E67 		.ascii	"long int\000"
 3989      20696E74 
 3989      00
 3990              	.LASF15:
 3991 0240 74737461 		.ascii	"tstate_t\000"
 3991      74655F74 
 3991      00
 3992              	.LASF150:
 3993 0249 74687265 		.ascii	"thread\000"
 3993      616400
 3994              	.LASF122:
 3995 0250 64617461 		.ascii	"dataDelay\000"
 3995      44656C61 
 3995      7900
 3996              	.LASF157:
 3997 025a 72786964 		.ascii	"rxidx\000"
 3997      7800
 3998              	.LASF105:
 3999 0260 715F6275 		.ascii	"q_buffer\000"
 3999      66666572 
 3999      00
 4000              	.LASF9:
 4001 0269 75696E74 		.ascii	"uint16_t\000"
 4001      31365F74 
 4001      00
 4002              	.LASF197:
 4003 0272 53504930 		.ascii	"SPI0\000"
ARM GAS  /tmp/ccqsb2PW.s 			page 73


 4003      00
 4004              	.LASF100:
 4005 0277 63686465 		.ascii	"chdebug_t\000"
 4005      6275675F 
 4005      7400
 4006              	.LASF140:
 4007 0281 4932435F 		.ascii	"I2C_ACTIVE_TX\000"
 4007      41435449 
 4007      56455F54 
 4007      5800
 4008              	.LASF194:
 4009 028f 636C6F63 		.ascii	"clock_phase\000"
 4009      6B5F7068 
 4009      61736500 
 4010              	.LASF28:
 4011 029b 705F6E65 		.ascii	"p_newer\000"
 4011      77657200 
 4012              	.LASF114:
 4013 02a3 5F69646C 		.ascii	"_idle_thread_wa\000"
 4013      655F7468 
 4013      72656164 
 4013      5F776100 
 4014              	.LASF187:
 4015 02b3 656E645F 		.ascii	"end_cb\000"
 4015      636200
 4016              	.LASF185:
 4017 02ba 7478636E 		.ascii	"txcnt\000"
 4017      7400
 4018              	.LASF191:
 4019 02c0 63686970 		.ascii	"chip_select_polarity0\000"
 4019      5F73656C 
 4019      6563745F 
 4019      706F6C61 
 4019      72697479 
 4020              	.LASF192:
 4021 02d6 63686970 		.ascii	"chip_select_polarity1\000"
 4021      5F73656C 
 4021      6563745F 
 4021      706F6C61 
 4021      72697479 
 4022              	.LASF116:
 4023 02ec 636F6E74 		.ascii	"control\000"
 4023      726F6C00 
 4024              	.LASF60:
 4025 02f4 725F6E65 		.ascii	"r_newer\000"
 4025      77657200 
 4026              	.LASF202:
 4027 02fc 6D61736B 		.ascii	"mask\000"
 4027      00
 4028              	.LASF45:
 4029 0301 72656761 		.ascii	"regarm_t\000"
 4029      726D5F74 
 4029      00
 4030              	.LASF51:
 4031 030a 76745F70 		.ascii	"vt_prev\000"
 4031      72657600 
 4032              	.LASF119:
ARM GAS  /tmp/ccqsb2PW.s 			page 74


 4033 0312 736C6176 		.ascii	"slaveAddress\000"
 4033      65416464 
 4033      72657373 
 4033      00
 4034              	.LASF3:
 4035 031f 73697A65 		.ascii	"size_t\000"
 4035      5F7400
 4036              	.LASF186:
 4037 0326 73706963 		.ascii	"spicallback_t\000"
 4037      616C6C62 
 4037      61636B5F 
 4037      7400
 4038              	.LASF162:
 4039 0334 49324330 		.ascii	"I2C0\000"
 4039      00
 4040              	.LASF198:
 4041 0339 706F7274 		.ascii	"port\000"
 4041      00
 4042              	.LASF75:
 4043 033e 4576656E 		.ascii	"EventSource\000"
 4043      74536F75 
 4043      72636500 
 4044              	.LASF203:
 4045 034a 6D6F6465 		.ascii	"mode\000"
 4045      00
 4046              	.LASF0:
 4047 034f 756E7369 		.ascii	"unsigned int\000"
 4047      676E6564 
 4047      20696E74 
 4047      00
 4048              	.LASF50:
 4049 035c 76745F6E 		.ascii	"vt_next\000"
 4049      65787400 
 4050              	.LASF152:
 4051 0364 74786275 		.ascii	"txbuf\000"
 4051      6600
 4052              	.LASF171:
 4053 036a 53657269 		.ascii	"SerialDriverVMT\000"
 4053      616C4472 
 4053      69766572 
 4053      564D5400 
 4054              	.LASF147:
 4055 037a 6572726F 		.ascii	"errors\000"
 4055      727300
 4056              	.LASF169:
 4057 0381 69717565 		.ascii	"iqueue\000"
 4057      756500
 4058              	.LASF12:
 4059 0388 6C6F6E67 		.ascii	"long unsigned int\000"
 4059      20756E73 
 4059      69676E65 
 4059      6420696E 
 4059      7400
 4060              	.LASF101:
 4061 039a 63685F64 		.ascii	"ch_debug\000"
 4061      65627567 
 4061      00
ARM GAS  /tmp/ccqsb2PW.s 			page 75


 4062              	.LASF175:
 4063 03a3 67657474 		.ascii	"gett\000"
 4063      00
 4064              	.LASF82:
 4065 03a8 63685F69 		.ascii	"ch_identifier\000"
 4065      64656E74 
 4065      69666965 
 4065      7200
 4066              	.LASF190:
 4067 03b6 63686970 		.ascii	"chip_select_polarity\000"
 4067      5F73656C 
 4067      6563745F 
 4067      706F6C61 
 4067      72697479 
 4068              	.LASF168:
 4069 03cb 6576656E 		.ascii	"event\000"
 4069      7400
 4070              	.LASF47:
 4071 03d1 636F6E74 		.ascii	"context\000"
 4071      65787400 
 4072              	.LASF10:
 4073 03d9 73686F72 		.ascii	"short unsigned int\000"
 4073      7420756E 
 4073      7369676E 
 4073      65642069 
 4073      6E7400
 4074              	.LASF130:
 4075 03ec 6770696F 		.ascii	"gpio_port_t\000"
 4075      5F706F72 
 4075      745F7400 
 4076              	.LASF126:
 4077 03f8 6770636C 		.ascii	"gpclr\000"
 4077      7200
 4078              	.LASF19:
 4079 03fe 6D73675F 		.ascii	"msg_t\000"
 4079      7400
 4080              	.LASF170:
 4081 0404 6F717565 		.ascii	"oqueue\000"
 4081      756500
 4082              	.LASF71:
 4083 040b 656C5F6E 		.ascii	"el_next\000"
 4083      65787400 
 4084              	.LASF209:
 4085 0413 62636D32 		.ascii	"bcm2835_delay\000"
 4085      3833355F 
 4085      64656C61 
 4085      7900
 4086              	.LASF176:
 4087 0421 77726974 		.ascii	"writet\000"
 4087      657400
 4088              	.LASF14:
 4089 0428 746D6F64 		.ascii	"tmode_t\000"
 4089      655F7400 
 4090              	.LASF200:
 4091 0430 5F70616C 		.ascii	"_pal_lld_writeport\000"
 4091      5F6C6C64 
 4091      5F777269 
ARM GAS  /tmp/ccqsb2PW.s 			page 76


 4091      7465706F 
 4091      727400
 4092              	.LASF43:
 4093 0443 54687265 		.ascii	"ThreadsList\000"
 4093      6164734C 
 4093      69737400 
 4094              	.LASF20:
 4095 044f 6576656E 		.ascii	"eventmask_t\000"
 4095      746D6173 
 4095      6B5F7400 
 4096              	.LASF112:
 4097 045b 496E7075 		.ascii	"InputQueue\000"
 4097      74517565 
 4097      756500
 4098              	.LASF66:
 4099 0466 4D757465 		.ascii	"Mutex\000"
 4099      7800
 4100              	.LASF102:
 4101 046c 47656E65 		.ascii	"GenericQueue\000"
 4101      72696351 
 4101      75657565 
 4101      00
 4102              	.LASF44:
 4103 0479 73746B61 		.ascii	"stkalign_t\000"
 4103      6C69676E 
 4103      5F7400
 4104              	.LASF83:
 4105 0484 63685F7A 		.ascii	"ch_zero\000"
 4105      65726F00 
 4106              	.LASF97:
 4107 048c 63665F6F 		.ascii	"cf_off_refs\000"
 4107      66665F72 
 4107      65667300 
 4108              	.LASF127:
 4109 0498 67706C65 		.ascii	"gplev\000"
 4109      7600
 4110              	.LASF174:
 4111 049e 70757474 		.ascii	"putt\000"
 4111      00
 4112              	.LASF52:
 4113 04a3 76745F74 		.ascii	"vt_time\000"
 4113      696D6500 
 4114              	.LASF138:
 4115 04ab 4932435F 		.ascii	"I2C_STOP\000"
 4115      53544F50 
 4115      00
 4116              	.LASF121:
 4117 04b4 636C6F63 		.ascii	"clockDivider\000"
 4117      6B446976 
 4117      69646572 
 4117      00
 4118              	.LASF104:
 4119 04c1 715F636F 		.ascii	"q_counter\000"
 4119      756E7465 
 4119      7200
 4120              	.LASF53:
 4121 04cb 76745F66 		.ascii	"vt_func\000"
ARM GAS  /tmp/ccqsb2PW.s 			page 77


 4121      756E6300 
 4122              	.LASF87:
 4123 04d3 63685F74 		.ascii	"ch_timesize\000"
 4123      696D6573 
 4123      697A6500 
 4124              	.LASF160:
 4125 04df 69635F73 		.ascii	"ic_speed\000"
 4125      70656564 
 4125      00
 4126              	.LASF93:
 4127 04e8 63665F6F 		.ascii	"cf_off_name\000"
 4127      66665F6E 
 4127      616D6500 
 4128              	.LASF29:
 4129 04f4 705F6F6C 		.ascii	"p_older\000"
 4129      64657200 
 4130              	.LASF156:
 4131 04fc 72786279 		.ascii	"rxbytes\000"
 4131      74657300 
 4132              	.LASF107:
 4133 0504 715F7772 		.ascii	"q_wrptr\000"
 4133      70747200 
 4134              	.LASF59:
 4135 050c 725F6374 		.ascii	"r_ctx\000"
 4135      7800
 4136              	.LASF42:
 4137 0512 54687265 		.ascii	"ThreadsQueue\000"
 4137      61647351 
 4137      75657565 
 4137      00
 4138              	.LASF84:
 4139 051f 63685F73 		.ascii	"ch_size\000"
 4139      697A6500 
 4140              	.LASF134:
 4141 0527 494F504F 		.ascii	"IOPORT0\000"
 4141      52543000 
 4142              	.LASF62:
 4143 052f 725F6375 		.ascii	"r_current\000"
 4143      7272656E 
 4143      7400
 4144              	.LASF61:
 4145 0539 725F6F6C 		.ascii	"r_older\000"
 4145      64657200 
 4146              	.LASF73:
 4147 0541 656C5F6D 		.ascii	"el_mask\000"
 4147      61736B00 
 4148              	.LASF125:
 4149 0549 67707365 		.ascii	"gpset\000"
 4149      7400
 4150              	.LASF128:
 4151 054f 67707075 		.ascii	"gppudclk\000"
 4151      64636C6B 
 4151      00
 4152              	.LASF188:
 4153 0558 6C6F7373 		.ascii	"lossiEnabled\000"
 4153      69456E61 
 4153      626C6564 
ARM GAS  /tmp/ccqsb2PW.s 			page 78


 4153      00
 4154              	.LASF208:
 4155 0565 62636D32 		.ascii	"bcm2835_gpio_fnsel\000"
 4155      3833355F 
 4155      6770696F 
 4155      5F666E73 
 4155      656C00
 4156              	.LASF189:
 4157 0578 63686970 		.ascii	"chip_select\000"
 4157      5F73656C 
 4157      65637400 
 4158              	.LASF16:
 4159 0584 74726566 		.ascii	"trefs_t\000"
 4159      735F7400 
 4160              	.LASF143:
 4161 058c 69326373 		.ascii	"i2cstate_t\000"
 4161      74617465 
 4161      5F7400
 4162              	.LASF86:
 4163 0597 63685F70 		.ascii	"ch_ptrsize\000"
 4163      74727369 
 4163      7A6500
 4164              	.LASF111:
 4165 05a2 716E6F74 		.ascii	"qnotify_t\000"
 4165      6966795F 
 4165      7400
 4166              	.LASF25:
 4167 05ac 705F7072 		.ascii	"p_prev\000"
 4167      657600
 4168              	.LASF18:
 4169 05b3 74707269 		.ascii	"tprio_t\000"
 4169      6F5F7400 
 4170              	.LASF108:
 4171 05bb 715F7264 		.ascii	"q_rdptr\000"
 4171      70747200 
 4172              	.LASF158:
 4173 05c3 69326366 		.ascii	"i2cflags_t\000"
 4173      6C616773 
 4173      5F7400
 4174              	.LASF149:
 4175 05ce 6D757465 		.ascii	"mutex\000"
 4175      7800
 4176              	.LASF4:
 4177 05d4 696E7433 		.ascii	"int32_t\000"
 4177      325F7400 
 4178              	.LASF8:
 4179 05dc 756E7369 		.ascii	"unsigned char\000"
 4179      676E6564 
 4179      20636861 
 4179      7200
 4180              	.LASF72:
 4181 05ea 656C5F6C 		.ascii	"el_listener\000"
 4181      69737465 
 4181      6E657200 
 4182              	.LASF74:
 4183 05f6 656C5F66 		.ascii	"el_flags\000"
 4183      6C616773 
ARM GAS  /tmp/ccqsb2PW.s 			page 79


 4183      00
 4184              	.LASF40:
 4185 05ff 705F6D74 		.ascii	"p_mtxlist\000"
 4185      786C6973 
 4185      7400
 4186              	.LASF2:
 4187 0609 73686F72 		.ascii	"short int\000"
 4187      7420696E 
 4187      7400
 4188              	.LASF31:
 4189 0613 705F7374 		.ascii	"p_state\000"
 4189      61746500 
 4190              	.LASF34:
 4191 061b 705F7072 		.ascii	"p_preempt\000"
 4191      65656D70 
 4191      7400
 4192              	.LASF99:
 4193 0625 63665F6F 		.ascii	"cf_off_time\000"
 4193      66665F74 
 4193      696D6500 
 4194              	.LASF58:
 4195 0631 725F7072 		.ascii	"r_prio\000"
 4195      696F00
 4196              	.LASF129:
 4197 0638 70696E5F 		.ascii	"pin_base\000"
 4197      62617365 
 4197      00
 4198              	.LASF80:
 4199 0641 65776D61 		.ascii	"ewmask\000"
 4199      736B00
 4200              	.LASF24:
 4201 0648 705F6E65 		.ascii	"p_next\000"
 4201      787400
 4202              	.LASF135:
 4203 064f 494F504F 		.ascii	"IOPORT1\000"
 4203      52543100 
 4204              	.LASF98:
 4205 0657 63665F6F 		.ascii	"cf_off_preempt\000"
 4205      66665F70 
 4205      7265656D 
 4205      707400
 4206              	.LASF32:
 4207 0666 705F666C 		.ascii	"p_flags\000"
 4207      61677300 
 4208              	.LASF23:
 4209 066e 54687265 		.ascii	"Thread\000"
 4209      616400
 4210              	.LASF195:
 4211 0675 636C6F63 		.ascii	"clock_divider\000"
 4211      6B5F6469 
 4211      76696465 
 4211      7200
 4212              	.LASF91:
 4213 0683 63665F6F 		.ascii	"cf_off_newer\000"
 4213      66665F6E 
 4213      65776572 
 4213      00
ARM GAS  /tmp/ccqsb2PW.s 			page 80


 4214              	.LASF142:
 4215 0690 4932435F 		.ascii	"I2C_LOCKED\000"
 4215      4C4F434B 
 4215      454400
 4216              	.LASF39:
 4217 069b 705F6570 		.ascii	"p_epending\000"
 4217      656E6469 
 4217      6E6700
 4218              	.LASF163:
 4219 06a6 53445F55 		.ascii	"SD_UNINIT\000"
 4219      4E494E49 
 4219      5400
 4220              	.LASF11:
 4221 06b0 75696E74 		.ascii	"uint32_t\000"
 4221      33325F74 
 4221      00
 4222              	.LASF89:
 4223 06b9 63665F6F 		.ascii	"cf_off_prio\000"
 4223      66665F70 
 4223      72696F00 
 4224              	.LASF57:
 4225 06c5 725F7175 		.ascii	"r_queue\000"
 4225      65756500 
 4226              	.LASF49:
 4227 06cd 56697274 		.ascii	"VirtualTimer\000"
 4227      75616C54 
 4227      696D6572 
 4227      00
 4228              	.LASF212:
 4229 06da 2F686F6D 		.ascii	"/home/taskman/arduino/embedded-wind-turbine/Data_Co"
 4229      652F7461 
 4229      736B6D61 
 4229      6E2F6172 
 4229      6475696E 
 4230 070d 6C6C6563 		.ascii	"llector/raspberry/compiler/ChibiOS-RPi/led\000"
 4230      746F722F 
 4230      72617370 
 4230      62657272 
 4230      792F636F 
 4231              	.LASF141:
 4232 0738 4932435F 		.ascii	"I2C_ACTIVE_RX\000"
 4232      41435449 
 4232      56455F52 
 4232      5800
 4233              	.LASF173:
 4234 0746 72656164 		.ascii	"read\000"
 4234      00
 4235              	.LASF81:
 4236 074b 63686172 		.ascii	"char\000"
 4236      00
 4237              	.LASF182:
 4238 0750 5350495F 		.ascii	"SPI_COMPLETE\000"
 4238      434F4D50 
 4238      4C455445 
 4238      00
 4239              	.LASF146:
 4240 075d 636F6E66 		.ascii	"config\000"
ARM GAS  /tmp/ccqsb2PW.s 			page 81


 4240      696700
 4241              	.LASF183:
 4242 0764 73706973 		.ascii	"spistate_t\000"
 4242      74617465 
 4242      5F7400
 4243              	.LASF69:
 4244 076f 6D5F6E65 		.ascii	"m_next\000"
 4244      787400
 4245              	.LASF22:
 4246 0776 73797374 		.ascii	"systime_t\000"
 4246      696D655F 
 4246      7400
 4247              	.LASF41:
 4248 0780 705F7265 		.ascii	"p_realprio\000"
 4248      616C7072 
 4248      696F00
 4249              	.LASF48:
 4250 078b 76746675 		.ascii	"vtfunc_t\000"
 4250      6E635F74 
 4250      00
 4251              	.LASF139:
 4252 0794 4932435F 		.ascii	"I2C_READY\000"
 4252      52454144 
 4252      5900
 4253              	.LASF144:
 4254 079e 49324344 		.ascii	"I2CDriver\000"
 4254      72697665 
 4254      7200
 4255              	.LASF133:
 4256 07a8 696F706F 		.ascii	"ioportid_t\000"
 4256      72746964 
 4256      5F7400
 4257              	.LASF35:
 4258 07b3 705F7469 		.ascii	"p_time\000"
 4258      6D6500
 4259              	.LASF193:
 4260 07ba 636C6F63 		.ascii	"clock_polarity\000"
 4260      6B5F706F 
 4260      6C617269 
 4260      747900
 4261              	.LASF201:
 4262 07c9 5F70616C 		.ascii	"_pal_lld_setgroupmode\000"
 4262      5F6C6C64 
 4262      5F736574 
 4262      67726F75 
 4262      706D6F64 
 4263              	.LASF46:
 4264 07df 696E7463 		.ascii	"intctx\000"
 4264      747800
 4265              	.LASF37:
 4266 07e6 705F6D73 		.ascii	"p_msgqueue\000"
 4266      67717565 
 4266      756500
 4267              	.LASF165:
 4268 07f1 53445F52 		.ascii	"SD_READY\000"
 4268      45414459 
 4268      00
ARM GAS  /tmp/ccqsb2PW.s 			page 82


 4269              	.LASF180:
 4270 07fa 5350495F 		.ascii	"SPI_READY\000"
 4270      52454144 
 4270      5900
 4271              	.LASF178:
 4272 0804 5350495F 		.ascii	"SPI_UNINIT\000"
 4272      554E494E 
 4272      495400
 4273              	.LASF54:
 4274 080f 76745F70 		.ascii	"vt_par\000"
 4274      617200
 4275              	.LASF21:
 4276 0816 666C6167 		.ascii	"flagsmask_t\000"
 4276      736D6173 
 4276      6B5F7400 
 4277              	.LASF161:
 4278 0822 49324343 		.ascii	"I2CConfig\000"
 4278      6F6E6669 
 4278      6700
 4279              	.LASF166:
 4280 082c 73647374 		.ascii	"sdstate_t\000"
 4280      6174655F 
 4280      7400
 4281              	.LASF154:
 4282 0836 74786964 		.ascii	"txidx\000"
 4282      7800
 4283              	.LASF90:
 4284 083c 63665F6F 		.ascii	"cf_off_ctx\000"
 4284      66665F63 
 4284      747800
 4285              	.LASF33:
 4286 0847 705F7265 		.ascii	"p_refs\000"
 4286      667300
 4287              	.LASF117:
 4288 084e 73746174 		.ascii	"status\000"
 4288      757300
 4289              	.LASF63:
 4290 0855 52656164 		.ascii	"ReadyList\000"
 4290      794C6973 
 4290      7400
 4291              	.LASF211:
 4292 085f 2E2E2F6F 		.ascii	"../os/hal/platforms/BCM2835/pal_lld.c\000"
 4292      732F6861 
 4292      6C2F706C 
 4292      6174666F 
 4292      726D732F 
 4293              	.LASF109:
 4294 0885 715F6E6F 		.ascii	"q_notify\000"
 4294      74696679 
 4294      00
 4295              	.LASF65:
 4296 088e 726C6973 		.ascii	"rlist\000"
 4296      7400
 4297              	.LASF206:
 4298 0894 7365745F 		.ascii	"set_gpio_pud\000"
 4298      6770696F 
 4298      5F707564 
ARM GAS  /tmp/ccqsb2PW.s 			page 83


 4298      00
 4299              	.LASF7:
 4300 08a1 75696E74 		.ascii	"uint8_t\000"
 4300      385F7400 
 4301              	.LASF205:
 4302 08a9 7365745F 		.ascii	"set_gpio_in\000"
 4302      6770696F 
 4302      5F696E00 
 4303              	.LASF177:
 4304 08b5 72656164 		.ascii	"readt\000"
 4304      7400
 4305              	.LASF124:
 4306 08bb 6C617463 		.ascii	"latch\000"
 4306      6800
 4307              	.LASF70:
 4308 08c1 4576656E 		.ascii	"EventListener\000"
 4308      744C6973 
 4308      74656E65 
 4308      7200
 4309              	.LASF79:
 4310 08cf 77746F62 		.ascii	"wtobjp\000"
 4310      6A7000
 4311              	.LASF30:
 4312 08d6 705F6E61 		.ascii	"p_name\000"
 4312      6D6500
 4313              	.LASF207:
 4314 08dd 7075645F 		.ascii	"pud_mode\000"
 4314      6D6F6465 
 4314      00
 4315              	.LASF55:
 4316 08e6 76745F73 		.ascii	"vt_systime\000"
 4316      79737469 
 4316      6D6500
 4317              	.LASF76:
 4318 08f1 65735F6E 		.ascii	"es_next\000"
 4318      65787400 
 4319              	.LASF196:
 4320 08f9 53504943 		.ascii	"SPIConfig\000"
 4320      6F6E6669 
 4320      6700
 4321              	.LASF85:
 4322 0903 63685F76 		.ascii	"ch_version\000"
 4322      65727369 
 4322      6F6E00
 4323              	.LASF118:
 4324 090e 64617461 		.ascii	"dataLength\000"
 4324      4C656E67 
 4324      746800
 4325              	.LASF56:
 4326 0919 56544C69 		.ascii	"VTList\000"
 4326      737400
 4327              	.LASF110:
 4328 0920 715F6C69 		.ascii	"q_link\000"
 4328      6E6B00
 4329              	.LASF131:
 4330 0927 50414C43 		.ascii	"PALConfig\000"
 4330      6F6E6669 
ARM GAS  /tmp/ccqsb2PW.s 			page 84


 4330      6700
 4331              	.LASF68:
 4332 0931 6D5F6F77 		.ascii	"m_owner\000"
 4332      6E657200 
 4333              	.LASF136:
 4334 0939 70616C5F 		.ascii	"pal_default_config\000"
 4334      64656661 
 4334      756C745F 
 4334      636F6E66 
 4334      696700
 4335              	.LASF27:
 4336 094c 705F6374 		.ascii	"p_ctx\000"
 4336      7800
 4337              	.LASF36:
 4338 0952 705F7761 		.ascii	"p_waiting\000"
 4338      6974696E 
 4338      6700
 4339              	.LASF153:
 4340 095c 74786279 		.ascii	"txbytes\000"
 4340      74657300 
 4341              	.LASF123:
 4342 0964 636C6F63 		.ascii	"clockStretchTimeout\000"
 4342      6B537472 
 4342      65746368 
 4342      54696D65 
 4342      6F757400 
 4343              		.ident	"GCC: (15:9-2019-q4-0ubuntu1) 9.2.1 20191025 (release) [ARM/arm-9-branch revision 277599]"
ARM GAS  /tmp/ccqsb2PW.s 			page 85


DEFINED SYMBOLS
                            *ABS*:0000000000000000 pal_lld.c
     /tmp/ccqsb2PW.s:16     .text.set_gpio_in.isra.0:0000000000000000 $a
     /tmp/ccqsb2PW.s:22     .text.set_gpio_in.isra.0:0000000000000000 set_gpio_in.isra.0
     /tmp/ccqsb2PW.s:86     .text.set_gpio_pud.isra.0:0000000000000000 $a
     /tmp/ccqsb2PW.s:91     .text.set_gpio_pud.isra.0:0000000000000000 set_gpio_pud.isra.0
     /tmp/ccqsb2PW.s:143    .text.set_gpio_pud.isra.0:0000000000000040 $d
     /tmp/ccqsb2PW.s:148    .text._pal_lld_init:0000000000000000 $a
     /tmp/ccqsb2PW.s:154    .text._pal_lld_init:0000000000000000 _pal_lld_init
     /tmp/ccqsb2PW.s:237    .text._pal_lld_init:0000000000000070 $d
                            *COM*:0000000000000018 IOPORT0
                            *COM*:0000000000000018 IOPORT1
     /tmp/ccqsb2PW.s:251    .text._pal_lld_setgroupmode:0000000000000000 $a
     /tmp/ccqsb2PW.s:257    .text._pal_lld_setgroupmode:0000000000000000 _pal_lld_setgroupmode
     /tmp/ccqsb2PW.s:288    .text._pal_lld_setgroupmode:000000000000002c $d
     /tmp/ccqsb2PW.s:297    .text._pal_lld_setgroupmode:0000000000000044 $a
     /tmp/ccqsb2PW.s:422    .text._pal_lld_writeport:0000000000000000 $a
     /tmp/ccqsb2PW.s:428    .text._pal_lld_writeport:0000000000000000 _pal_lld_writeport

UNDEFINED SYMBOLS
bcm2835_gpio_fnsel
bcm2835_delay
