ARM GAS  /tmp/ccqsb2PW.s 			page 1


   1              		.cpu arm1176jz-s
   2              		.eabi_attribute 20, 1
   3              		.eabi_attribute 21, 1
   4              		.eabi_attribute 23, 3
   5              		.eabi_attribute 24, 1
   6              		.eabi_attribute 25, 1
   7              		.eabi_attribute 26, 1
   8              		.eabi_attribute 30, 2
   9              		.eabi_attribute 34, 1
  10              		.eabi_attribute 18, 4
  11              		.file	"pal_lld.c"
  12              		.text
  13              	.Ltext0:
  14              		.cfi_sections	.debug_frame
  15              		.section	.text.set_gpio_in.isra.0,"ax",%progbits
  16              		.align	2
  17              		.arch armv6kz
  18              		.syntax unified
  19              		.arm
  20              		.fpu softvfp
  21              		.type	set_gpio_in.isra.0, %function
  22              	set_gpio_in.isra.0:
  23              	.LVL0:
  24              	.LFB12:
  25              		.file 1 "../os/hal/platforms/BCM2835/pal_lld.c"
  26              		.loc 1 64 13 view -0
  27              		.cfi_startproc
  28              		@ args = 0, pretend = 0, frame = 0
  29              		@ frame_needed = 0, uses_anonymous_args = 0
  30              		.loc 1 64 13 is_stmt 0 view .LVU1
  31 0000 70402DE9 		push	{r4, r5, r6, lr}
  32              		.cfi_def_cfa_offset 16
  33              		.cfi_offset 4, -16
  34              		.cfi_offset 5, -12
  35              		.cfi_offset 6, -8
  36              		.cfi_offset 14, -4
  37              		.loc 1 64 13 view .LVU2
  38 0004 0060A0E1 		mov	r6, r0
  39 0008 0150A0E1 		mov	r5, r1
  40              		.loc 1 66 15 is_stmt 1 view .LVU3
  41              		.loc 1 66 10 is_stmt 0 view .LVU4
  42 000c 0040A0E3 		mov	r4, #0
  43 0010 030000EA 		b	.L3
  44              	.LVL1:
  45              	.L2:
  46              	.LBB3:
  47              		.loc 1 70 5 is_stmt 1 view .LVU5
  48              	.LBE3:
  49              		.loc 1 66 24 is_stmt 0 view .LVU6
  50 0014 014084E2 		add	r4, r4, #1
  51              	.LVL2:
  52              		.loc 1 66 3 view .LVU7
  53 0018 200054E3 		cmp	r4, #32
  54              	.LBB4:
  55              		.loc 1 70 10 view .LVU8
  56 001c A550A0E1 		lsr	r5, r5, #1
  57              	.LVL3:
ARM GAS  /tmp/ccqsb2PW.s 			page 2


  58              		.loc 1 70 10 view .LVU9
  59              	.LBE4:
  60              		.loc 1 66 23 is_stmt 1 view .LVU10
  61              		.loc 1 66 15 view .LVU11
  62              		.loc 1 66 3 is_stmt 0 view .LVU12
  63 0020 7080BD08 		popeq	{r4, r5, r6, pc}
  64              	.LVL4:
  65              	.L3:
  66              	.LBB5:
  67              		.loc 1 67 5 is_stmt 1 view .LVU13
  68              		.loc 1 68 5 view .LVU14
  69              		.loc 1 68 8 is_stmt 0 view .LVU15
  70 0024 010015E3 		tst	r5, #1
  71 0028 F9FFFF0A 		beq	.L2
  72              		.loc 1 69 7 is_stmt 1 view .LVU16
  73              		.loc 1 69 28 is_stmt 0 view .LVU17
  74 002c 000096E5 		ldr	r0, [r6]
  75              		.loc 1 69 7 view .LVU18
  76 0030 0010A0E3 		mov	r1, #0
  77 0034 000084E0 		add	r0, r4, r0
  78 0038 FEFFFFEB 		bl	bcm2835_gpio_fnsel
  79              	.LVL5:
  80 003c F4FFFFEA 		b	.L2
  81              	.LBE5:
  82              		.cfi_endproc
  83              	.LFE12:
  84              		.size	set_gpio_in.isra.0, .-set_gpio_in.isra.0
  85              		.section	.text.set_gpio_pud.isra.0,"ax",%progbits
  86              		.align	2
  87              		.syntax unified
  88              		.arm
  89              		.fpu softvfp
  90              		.type	set_gpio_pud.isra.0, %function
  91              	set_gpio_pud.isra.0:
  92              	.LVL6:
  93              	.LFB13:
  94              		.loc 1 54 13 is_stmt 1 view -0
  95              		.cfi_startproc
  96              		@ args = 0, pretend = 0, frame = 0
  97              		@ frame_needed = 0, uses_anonymous_args = 0
  98              		.loc 1 56 3 view .LVU20
  99              		.loc 1 54 13 is_stmt 0 view .LVU21
 100 0000 70402DE9 		push	{r4, r5, r6, lr}
 101              		.cfi_def_cfa_offset 16
 102              		.cfi_offset 4, -16
 103              		.cfi_offset 5, -12
 104              		.cfi_offset 6, -8
 105              		.cfi_offset 14, -4
 106              		.loc 1 54 13 view .LVU22
 107 0004 0040A0E1 		mov	r4, r0
 108 0008 0150A0E1 		mov	r5, r1
 109              		.loc 1 56 9 view .LVU23
 110 000c 2C609FE5 		ldr	r6, .L13
 111              		.loc 1 57 3 view .LVU24
 112 0010 9600A0E3 		mov	r0, #150
 113              		.loc 1 56 9 view .LVU25
 114 0014 942086E5 		str	r2, [r6, #148]
ARM GAS  /tmp/ccqsb2PW.s 			page 3


 115              		.loc 1 57 3 is_stmt 1 view .LVU26
 116 0018 FEFFFFEB 		bl	bcm2835_delay
 117              	.LVL7:
 118              		.loc 1 58 3 view .LVU27
 119              		.loc 1 58 8 is_stmt 0 view .LVU28
 120 001c 003094E5 		ldr	r3, [r4]
 121              		.loc 1 59 3 view .LVU29
 122 0020 9600A0E3 		mov	r0, #150
 123              		.loc 1 58 19 view .LVU30
 124 0024 005083E5 		str	r5, [r3]
 125              		.loc 1 59 3 is_stmt 1 view .LVU31
 126 0028 FEFFFFEB 		bl	bcm2835_delay
 127              	.LVL8:
 128              		.loc 1 60 3 view .LVU32
 129              		.loc 1 60 9 is_stmt 0 view .LVU33
 130 002c 0030A0E3 		mov	r3, #0
 131              		.loc 1 61 8 view .LVU34
 132 0030 002094E5 		ldr	r2, [r4]
 133              		.loc 1 60 9 view .LVU35
 134 0034 943086E5 		str	r3, [r6, #148]
 135              		.loc 1 61 3 is_stmt 1 view .LVU36
 136              		.loc 1 61 19 is_stmt 0 view .LVU37
 137 0038 003082E5 		str	r3, [r2]
 138              		.loc 1 62 1 view .LVU38
 139 003c 7080BDE8 		pop	{r4, r5, r6, pc}
 140              	.L14:
 141              		.align	2
 142              	.L13:
 143 0040 00002020 		.word	538968064
 144              		.cfi_endproc
 145              	.LFE13:
 146              		.size	set_gpio_pud.isra.0, .-set_gpio_pud.isra.0
 147              		.section	.text._pal_lld_init,"ax",%progbits
 148              		.align	2
 149              		.global	_pal_lld_init
 150              		.syntax unified
 151              		.arm
 152              		.fpu softvfp
 153              		.type	_pal_lld_init, %function
 154              	_pal_lld_init:
 155              	.LVL9:
 156              	.LFB9:
 157              		.loc 1 82 45 is_stmt 1 view -0
 158              		.cfi_startproc
 159              		@ args = 0, pretend = 0, frame = 0
 160              		@ frame_needed = 0, uses_anonymous_args = 0
 161              		.loc 1 84 3 view .LVU40
 162              		.loc 1 86 3 view .LVU41
 163              		.loc 1 86 17 is_stmt 0 view .LVU42
 164 0000 68309FE5 		ldr	r3, .L17
 165 0004 68109FE5 		ldr	r1, .L17+4
 166              		.loc 1 82 45 view .LVU43
 167 0008 10402DE9 		push	{r4, lr}
 168              		.cfi_def_cfa_offset 8
 169              		.cfi_offset 4, -8
 170              		.cfi_offset 14, -4
 171              		.loc 1 88 17 view .LVU44
ARM GAS  /tmp/ccqsb2PW.s 			page 4


 172 000c 64C09FE5 		ldr	ip, .L17+8
 173              		.loc 1 87 17 view .LVU45
 174 0010 64E09FE5 		ldr	lr, .L17+12
 175              		.loc 1 89 20 view .LVU46
 176 0014 64209FE5 		ldr	r2, .L17+16
 177              		.loc 1 90 3 view .LVU47
 178 0018 140083E2 		add	r0, r3, #20
 179              	.LVL10:
 180              		.loc 1 86 17 view .LVU48
 181 001c 041083E5 		str	r1, [r3, #4]
 182              		.loc 1 87 3 is_stmt 1 view .LVU49
 183              		.loc 1 90 3 is_stmt 0 view .LVU50
 184 0020 0010E0E3 		mvn	r1, #0
 185              		.loc 1 87 17 view .LVU51
 186 0024 08E083E5 		str	lr, [r3, #8]
 187              		.loc 1 88 3 is_stmt 1 view .LVU52
 188              		.loc 1 88 17 is_stmt 0 view .LVU53
 189 0028 0CC083E5 		str	ip, [r3, #12]
 190              		.loc 1 89 3 is_stmt 1 view .LVU54
 191              		.loc 1 89 20 is_stmt 0 view .LVU55
 192 002c 102083E5 		str	r2, [r3, #16]
 193              		.loc 1 90 3 is_stmt 1 view .LVU56
 194 0030 FEFFFFEB 		bl	set_gpio_in.isra.0
 195              	.LVL11:
 196              		.loc 1 92 3 view .LVU57
 197              		.loc 1 92 17 is_stmt 0 view .LVU58
 198 0034 48309FE5 		ldr	r3, .L17+20
 199              		.loc 1 96 20 view .LVU59
 200 0038 2020A0E3 		mov	r2, #32
 201 003c 0300A0E1 		mov	r0, r3
 202              		.loc 1 92 17 view .LVU60
 203 0040 40109FE5 		ldr	r1, .L17+24
 204              		.loc 1 93 17 view .LVU61
 205 0044 40E09FE5 		ldr	lr, .L17+28
 206              		.loc 1 94 17 view .LVU62
 207 0048 40C09FE5 		ldr	ip, .L17+32
 208              		.loc 1 96 20 view .LVU63
 209 004c 1420A0E5 		str	r2, [r0, #20]!
 210              		.loc 1 95 20 view .LVU64
 211 0050 3C209FE5 		ldr	r2, .L17+36
 212              		.loc 1 92 17 view .LVU65
 213 0054 041083E5 		str	r1, [r3, #4]
 214              		.loc 1 93 3 is_stmt 1 view .LVU66
 215              		.loc 1 93 17 is_stmt 0 view .LVU67
 216 0058 08E083E5 		str	lr, [r3, #8]
 217              		.loc 1 94 3 is_stmt 1 view .LVU68
 218              		.loc 1 97 3 is_stmt 0 view .LVU69
 219 005c 0010E0E3 		mvn	r1, #0
 220              		.loc 1 98 1 view .LVU70
 221 0060 1040BDE8 		pop	{r4, lr}
 222              		.cfi_restore 14
 223              		.cfi_restore 4
 224              		.cfi_def_cfa_offset 0
 225              		.loc 1 94 17 view .LVU71
 226 0064 0CC083E5 		str	ip, [r3, #12]
 227              		.loc 1 95 3 is_stmt 1 view .LVU72
 228              		.loc 1 95 20 is_stmt 0 view .LVU73
ARM GAS  /tmp/ccqsb2PW.s 			page 5


 229 0068 102083E5 		str	r2, [r3, #16]
 230              		.loc 1 96 3 is_stmt 1 view .LVU74
 231              		.loc 1 97 3 view .LVU75
 232 006c FEFFFFEA 		b	set_gpio_in.isra.0
 233              	.LVL12:
 234              	.L18:
 235              		.align	2
 236              	.L17:
 237 0070 00000000 		.word	IOPORT0
 238 0074 1C002020 		.word	538968092
 239 0078 34002020 		.word	538968116
 240 007c 28002020 		.word	538968104
 241 0080 98002020 		.word	538968216
 242 0084 00000000 		.word	IOPORT1
 243 0088 20002020 		.word	538968096
 244 008c 2C002020 		.word	538968108
 245 0090 38002020 		.word	538968120
 246 0094 9C002020 		.word	538968220
 247              		.cfi_endproc
 248              	.LFE9:
 249              		.size	_pal_lld_init, .-_pal_lld_init
 250              		.section	.text._pal_lld_setgroupmode,"ax",%progbits
 251              		.align	2
 252              		.global	_pal_lld_setgroupmode
 253              		.syntax unified
 254              		.arm
 255              		.fpu softvfp
 256              		.type	_pal_lld_setgroupmode, %function
 257              	_pal_lld_setgroupmode:
 258              	.LVL13:
 259              	.LFB10:
 260              		.loc 1 100 79 view -0
 261              		.cfi_startproc
 262              		@ args = 0, pretend = 0, frame = 0
 263              		@ frame_needed = 0, uses_anonymous_args = 0
 264              		.loc 1 101 3 view .LVU77
 265              		.loc 1 102 3 view .LVU78
 266 0000 070052E3 		cmp	r2, #7
 267              		.loc 1 100 79 is_stmt 0 view .LVU79
 268 0004 70402DE9 		push	{r4, r5, r6, lr}
 269              		.cfi_def_cfa_offset 16
 270              		.cfi_offset 4, -16
 271              		.cfi_offset 5, -12
 272              		.cfi_offset 6, -8
 273              		.cfi_offset 14, -4
 274              		.loc 1 100 79 view .LVU80
 275 0008 0060A0E1 		mov	r6, r0
 276 000c 0150A0E1 		mov	r5, r1
 277              		.loc 1 102 3 view .LVU81
 278 0010 0B00008A 		bhi	.L20
 279 0014 010052E3 		cmp	r2, #1
 280 0018 7080BD98 		popls	{r4, r5, r6, pc}
 281 001c 022042E2 		sub	r2, r2, #2
 282              	.LVL14:
 283              		.loc 1 102 3 view .LVU82
 284 0020 050052E3 		cmp	r2, #5
 285 0024 02F19F97 		ldrls	pc, [pc, r2, asl #2]
ARM GAS  /tmp/ccqsb2PW.s 			page 6


 286 0028 140000EA 		b	.L19
 287              	.L23:
 288 002c BC000000 		.word	.L26
 289 0030 A0000000 		.word	.L25
 290 0034 84000000 		.word	.L24
 291 0038 80000000 		.word	.L19
 292 003c 4C000000 		.word	.L29
 293 0040 4C000000 		.word	.L29
 294              	.LVL15:
 295              	.L20:
 296              		.loc 1 102 3 view .LVU83
 297 0044 FF0052E3 		cmp	r2, #255
 298 0048 7080BD18 		popne	{r4, r5, r6, pc}
 299              	.LVL16:
 300              	.L29:
 301              		.loc 1 102 3 view .LVU84
 302 004c 0040A0E3 		mov	r4, #0
 303 0050 030000EA 		b	.L32
 304              	.LVL17:
 305              	.L27:
 306              	.LBB6:
 307              		.loc 1 122 7 is_stmt 1 discriminator 2 view .LVU85
 308              	.LBE6:
 309              		.loc 1 118 26 is_stmt 0 discriminator 2 view .LVU86
 310 0054 014084E2 		add	r4, r4, #1
 311              	.LVL18:
 312              		.loc 1 118 5 discriminator 2 view .LVU87
 313 0058 200054E3 		cmp	r4, #32
 314              	.LBB7:
 315              		.loc 1 122 12 discriminator 2 view .LVU88
 316 005c A550A0E1 		lsr	r5, r5, #1
 317              	.LVL19:
 318              		.loc 1 122 12 discriminator 2 view .LVU89
 319              	.LBE7:
 320              		.loc 1 118 25 is_stmt 1 discriminator 2 view .LVU90
 321              		.loc 1 118 17 discriminator 2 view .LVU91
 322              		.loc 1 118 5 is_stmt 0 discriminator 2 view .LVU92
 323 0060 7080BD08 		popeq	{r4, r5, r6, pc}
 324              	.LVL20:
 325              	.L32:
 326              	.LBB8:
 327              		.loc 1 119 7 is_stmt 1 view .LVU93
 328              		.loc 1 120 7 view .LVU94
 329              		.loc 1 120 10 is_stmt 0 view .LVU95
 330 0064 010015E3 		tst	r5, #1
 331 0068 F9FFFF0A 		beq	.L27
 332              		.loc 1 121 9 is_stmt 1 view .LVU96
 333              		.loc 1 121 30 is_stmt 0 view .LVU97
 334 006c 140096E5 		ldr	r0, [r6, #20]
 335              		.loc 1 121 9 view .LVU98
 336 0070 0110A0E3 		mov	r1, #1
 337 0074 000084E0 		add	r0, r4, r0
 338 0078 FEFFFFEB 		bl	bcm2835_gpio_fnsel
 339              	.LVL21:
 340 007c F4FFFFEA 		b	.L27
 341              	.LVL22:
 342              	.L19:
ARM GAS  /tmp/ccqsb2PW.s 			page 7


 343              		.loc 1 121 9 view .LVU99
 344              	.LBE8:
 345              		.loc 1 126 1 view .LVU100
 346 0080 7080BDE8 		pop	{r4, r5, r6, pc}
 347              	.L24:
 348              		.loc 1 112 5 is_stmt 1 view .LVU101
 349 0084 140080E2 		add	r0, r0, #20
 350              	.LVL23:
 351              		.loc 1 112 5 is_stmt 0 view .LVU102
 352 0088 FEFFFFEB 		bl	set_gpio_in.isra.0
 353              	.LVL24:
 354              		.loc 1 113 5 is_stmt 1 view .LVU103
 355 008c 0510A0E1 		mov	r1, r5
 356 0090 100086E2 		add	r0, r6, #16
 357 0094 0120A0E3 		mov	r2, #1
 358              		.loc 1 126 1 is_stmt 0 view .LVU104
 359 0098 7040BDE8 		pop	{r4, r5, r6, lr}
 360              		.cfi_remember_state
 361              		.cfi_restore 14
 362              		.cfi_restore 6
 363              		.cfi_restore 5
 364              		.cfi_restore 4
 365              		.cfi_def_cfa_offset 0
 366              	.LVL25:
 367              		.loc 1 113 5 view .LVU105
 368 009c FEFFFFEA 		b	set_gpio_pud.isra.0
 369              	.LVL26:
 370              	.L25:
 371              		.cfi_restore_state
 372              		.loc 1 108 5 is_stmt 1 view .LVU106
 373 00a0 140080E2 		add	r0, r0, #20
 374              	.LVL27:
 375              		.loc 1 108 5 is_stmt 0 view .LVU107
 376 00a4 FEFFFFEB 		bl	set_gpio_in.isra.0
 377              	.LVL28:
 378              		.loc 1 109 5 is_stmt 1 view .LVU108
 379 00a8 0510A0E1 		mov	r1, r5
 380 00ac 100086E2 		add	r0, r6, #16
 381 00b0 0220A0E3 		mov	r2, #2
 382              		.loc 1 126 1 is_stmt 0 view .LVU109
 383 00b4 7040BDE8 		pop	{r4, r5, r6, lr}
 384              		.cfi_remember_state
 385              		.cfi_restore 14
 386              		.cfi_restore 6
 387              		.cfi_restore 5
 388              		.cfi_restore 4
 389              		.cfi_def_cfa_offset 0
 390              	.LVL29:
 391              		.loc 1 109 5 view .LVU110
 392 00b8 FEFFFFEA 		b	set_gpio_pud.isra.0
 393              	.LVL30:
 394              	.L26:
 395              		.cfi_restore_state
 396              		.loc 1 104 5 is_stmt 1 view .LVU111
 397 00bc 140080E2 		add	r0, r0, #20
 398              	.LVL31:
 399              		.loc 1 104 5 is_stmt 0 view .LVU112
ARM GAS  /tmp/ccqsb2PW.s 			page 8


 400 00c0 FEFFFFEB 		bl	set_gpio_in.isra.0
 401              	.LVL32:
 402              		.loc 1 105 5 is_stmt 1 view .LVU113
 403 00c4 0510A0E1 		mov	r1, r5
 404 00c8 100086E2 		add	r0, r6, #16
 405 00cc 0020A0E3 		mov	r2, #0
 406              		.loc 1 126 1 is_stmt 0 view .LVU114
 407 00d0 7040BDE8 		pop	{r4, r5, r6, lr}
 408              		.cfi_restore 14
 409              		.cfi_restore 6
 410              		.cfi_restore 5
 411              		.cfi_restore 4
 412              		.cfi_def_cfa_offset 0
 413              	.LVL33:
 414              		.loc 1 105 5 view .LVU115
 415 00d4 FEFFFFEA 		b	set_gpio_pud.isra.0
 416              	.LVL34:
 417              		.loc 1 105 5 view .LVU116
 418              		.cfi_endproc
 419              	.LFE10:
 420              		.size	_pal_lld_setgroupmode, .-_pal_lld_setgroupmode
 421              		.section	.text._pal_lld_writeport,"ax",%progbits
 422              		.align	2
 423              		.global	_pal_lld_writeport
 424              		.syntax unified
 425              		.arm
 426              		.fpu softvfp
 427              		.type	_pal_lld_writeport, %function
 428              	_pal_lld_writeport:
 429              	.LVL35:
 430              	.LFB11:
 431              		.loc 1 128 61 is_stmt 1 view -0
 432              		.cfi_startproc
 433              		@ args = 0, pretend = 0, frame = 0
 434              		@ frame_needed = 0, uses_anonymous_args = 0
 435              		@ link register save eliminated.
 436              		.loc 1 129 3 view .LVU118
 437              		.loc 1 130 20 is_stmt 0 view .LVU119
 438 0000 0120E0E1 		mvn	r2, r1
 439              		.loc 1 129 9 view .LVU120
 440 0004 04C090E5 		ldr	ip, [r0, #4]
 441              		.loc 1 130 9 view .LVU121
 442 0008 083090E5 		ldr	r3, [r0, #8]
 443              		.loc 1 129 32 view .LVU122
 444 000c 001080E5 		str	r1, [r0]
 445              		.loc 1 129 18 view .LVU123
 446 0010 00108CE5 		str	r1, [ip]
 447              		.loc 1 130 3 is_stmt 1 view .LVU124
 448              		.loc 1 130 18 is_stmt 0 view .LVU125
 449 0014 002083E5 		str	r2, [r3]
 450              		.loc 1 131 1 view .LVU126
 451 0018 1EFF2FE1 		bx	lr
 452              		.cfi_endproc
 453              	.LFE11:
 454              		.size	_pal_lld_writeport, .-_pal_lld_writeport
 455              		.comm	IOPORT1,24,4
 456              		.comm	IOPORT0,24,4
ARM GAS  /tmp/ccqsb2PW.s 			page 9


 457              		.text
 458              	.Letext0:
 459              		.file 2 "/usr/lib/gcc/arm-none-eabi/9.2.1/include/stddef.h"
 460              		.file 3 "/usr/lib/gcc/arm-none-eabi/9.2.1/include/stdint.h"
 461              		.file 4 "../os/ports/GCC/ARM/chtypes.h"
 462              		.file 5 "../os/kernel/include/chlists.h"
 463              		.file 6 "../os/kernel/include/chthreads.h"
 464              		.file 7 "../os/ports/GCC/ARM/chcore.h"
 465              		.file 8 "../os/kernel/include/chvt.h"
 466              		.file 9 "../os/kernel/include/chschd.h"
 467              		.file 10 "../os/kernel/include/chmtx.h"
 468              		.file 11 "../os/kernel/include/chevents.h"
 469              		.file 12 "../os/kernel/include/chregistry.h"
 470              		.file 13 "../os/kernel/include/chqueues.h"
 471              		.file 14 "../os/kernel/include/ch.h"
 472              		.file 15 "../os/hal/platforms/BCM2835/bcm2835.h"
 473              		.file 16 "../os/hal/platforms/BCM2835/pal_lld.h"
 474              		.file 17 "../os/hal/include/i2c.h"
 475              		.file 18 "../os/hal/platforms/BCM2835/i2c_lld.h"
 476              		.file 19 "../os/hal/include/serial.h"
 477              		.file 20 "../os/hal/include/spi.h"
 478              		.file 21 "../os/hal/platforms/BCM2835/spi_lld.h"
 479              		.file 22 "../os/hal/platforms/BCM2835/serial_lld.h"