ARM GAS  /tmp/cchBrCOm.s 			page 1


   1              		.cpu arm1176jz-s
   2              		.eabi_attribute 20, 1
   3              		.eabi_attribute 21, 1
   4              		.eabi_attribute 23, 3
   5              		.eabi_attribute 24, 1
   6              		.eabi_attribute 25, 1
   7              		.eabi_attribute 26, 1
   8              		.eabi_attribute 30, 2
   9              		.eabi_attribute 34, 1
  10              		.eabi_attribute 18, 4
  11              		.file	"serial.c"
  12              		.text
  13              	.Ltext0:
  14              		.cfi_sections	.debug_frame
  15              		.section	.text.readt,"ax",%progbits
  16              		.align	2
  17              		.arch armv6kz
  18              		.syntax unified
  19              		.arm
  20              		.fpu softvfp
  21              		.type	readt, %function
  22              	readt:
  23              	.LVL0:
  24              	.LFB14:
  25              		.file 1 "../os/hal/src/serial.c"
  26              		.loc 1 92 70 view -0
  27              		.cfi_startproc
  28              		@ args = 0, pretend = 0, frame = 0
  29              		@ frame_needed = 0, uses_anonymous_args = 0
  30              		@ link register save eliminated.
  31              		.loc 1 94 3 view .LVU1
  32              		.loc 1 94 10 is_stmt 0 view .LVU2
  33 0000 0C0080E2 		add	r0, r0, #12
  34              	.LVL1:
  35              		.loc 1 94 10 view .LVU3
  36 0004 FEFFFFEA 		b	chIQReadTimeout
  37              	.LVL2:
  38              		.loc 1 94 10 view .LVU4
  39              		.cfi_endproc
  40              	.LFE14:
  41              		.size	readt, .-readt
  42              		.section	.text.read,"ax",%progbits
  43              		.align	2
  44              		.syntax unified
  45              		.arm
  46              		.fpu softvfp
  47              		.type	read, %function
  48              	read:
  49              	.LVL3:
  50              	.LFB8:
  51              		.loc 1 61 53 is_stmt 1 view -0
  52              		.cfi_startproc
  53              		@ args = 0, pretend = 0, frame = 0
  54              		@ frame_needed = 0, uses_anonymous_args = 0
  55              		@ link register save eliminated.
  56              		.loc 1 63 3 view .LVU6
  57              		.loc 1 63 10 is_stmt 0 view .LVU7
ARM GAS  /tmp/cchBrCOm.s 			page 2


  58 0000 0030E0E3 		mvn	r3, #0
  59 0004 0C0080E2 		add	r0, r0, #12
  60              	.LVL4:
  61              		.loc 1 63 10 view .LVU8
  62 0008 FEFFFFEA 		b	chIQReadTimeout
  63              	.LVL5:
  64              		.loc 1 63 10 view .LVU9
  65              		.cfi_endproc
  66              	.LFE8:
  67              		.size	read, .-read
  68              		.section	.text.writet,"ax",%progbits
  69              		.align	2
  70              		.syntax unified
  71              		.arm
  72              		.fpu softvfp
  73              		.type	writet, %function
  74              	writet:
  75              	.LVL6:
  76              	.LFB13:
  77              		.loc 1 87 77 is_stmt 1 view -0
  78              		.cfi_startproc
  79              		@ args = 0, pretend = 0, frame = 0
  80              		@ frame_needed = 0, uses_anonymous_args = 0
  81              		@ link register save eliminated.
  82              		.loc 1 89 3 view .LVU11
  83              		.loc 1 89 10 is_stmt 0 view .LVU12
  84 0000 300080E2 		add	r0, r0, #48
  85              	.LVL7:
  86              		.loc 1 89 10 view .LVU13
  87 0004 FEFFFFEA 		b	chOQWriteTimeout
  88              	.LVL8:
  89              		.loc 1 89 10 view .LVU14
  90              		.cfi_endproc
  91              	.LFE13:
  92              		.size	writet, .-writet
  93              		.section	.text.write,"ax",%progbits
  94              		.align	2
  95              		.syntax unified
  96              		.arm
  97              		.fpu softvfp
  98              		.type	write, %function
  99              	write:
 100              	.LVL9:
 101              	.LFB7:
 102              		.loc 1 55 60 is_stmt 1 view -0
 103              		.cfi_startproc
 104              		@ args = 0, pretend = 0, frame = 0
 105              		@ frame_needed = 0, uses_anonymous_args = 0
 106              		@ link register save eliminated.
 107              		.loc 1 57 3 view .LVU16
 108              		.loc 1 57 10 is_stmt 0 view .LVU17
 109 0000 0030E0E3 		mvn	r3, #0
 110 0004 300080E2 		add	r0, r0, #48
 111              	.LVL10:
 112              		.loc 1 57 10 view .LVU18
 113 0008 FEFFFFEA 		b	chOQWriteTimeout
 114              	.LVL11:
ARM GAS  /tmp/cchBrCOm.s 			page 3


 115              		.loc 1 57 10 view .LVU19
 116              		.cfi_endproc
 117              	.LFE7:
 118              		.size	write, .-write
 119              		.section	.text.gett,"ax",%progbits
 120              		.align	2
 121              		.syntax unified
 122              		.arm
 123              		.fpu softvfp
 124              		.type	gett, %function
 125              	gett:
 126              	.LVL12:
 127              	.LFB12:
 128              		.loc 1 82 48 is_stmt 1 view -0
 129              		.cfi_startproc
 130              		@ args = 0, pretend = 0, frame = 0
 131              		@ frame_needed = 0, uses_anonymous_args = 0
 132              		@ link register save eliminated.
 133              		.loc 1 84 3 view .LVU21
 134              		.loc 1 84 10 is_stmt 0 view .LVU22
 135 0000 0C0080E2 		add	r0, r0, #12
 136              	.LVL13:
 137              		.loc 1 84 10 view .LVU23
 138 0004 FEFFFFEA 		b	chIQGetTimeout
 139              	.LVL14:
 140              		.loc 1 84 10 view .LVU24
 141              		.cfi_endproc
 142              	.LFE12:
 143              		.size	gett, .-gett
 144              		.section	.text.get,"ax",%progbits
 145              		.align	2
 146              		.syntax unified
 147              		.arm
 148              		.fpu softvfp
 149              		.type	get, %function
 150              	get:
 151              	.LVL15:
 152              	.LFB10:
 153              		.loc 1 72 28 is_stmt 1 view -0
 154              		.cfi_startproc
 155              		@ args = 0, pretend = 0, frame = 0
 156              		@ frame_needed = 0, uses_anonymous_args = 0
 157              		@ link register save eliminated.
 158              		.loc 1 74 3 view .LVU26
 159              		.loc 1 74 10 is_stmt 0 view .LVU27
 160 0000 0010E0E3 		mvn	r1, #0
 161 0004 0C0080E2 		add	r0, r0, #12
 162              	.LVL16:
 163              		.loc 1 74 10 view .LVU28
 164 0008 FEFFFFEA 		b	chIQGetTimeout
 165              	.LVL17:
 166              		.loc 1 74 10 view .LVU29
 167              		.cfi_endproc
 168              	.LFE10:
 169              		.size	get, .-get
 170              		.section	.text.putt,"ax",%progbits
 171              		.align	2
ARM GAS  /tmp/cchBrCOm.s 			page 4


 172              		.syntax unified
 173              		.arm
 174              		.fpu softvfp
 175              		.type	putt, %function
 176              	putt:
 177              	.LVL18:
 178              	.LFB11:
 179              		.loc 1 77 59 is_stmt 1 view -0
 180              		.cfi_startproc
 181              		@ args = 0, pretend = 0, frame = 0
 182              		@ frame_needed = 0, uses_anonymous_args = 0
 183              		@ link register save eliminated.
 184              		.loc 1 79 3 view .LVU31
 185              		.loc 1 79 10 is_stmt 0 view .LVU32
 186 0000 300080E2 		add	r0, r0, #48
 187              	.LVL19:
 188              		.loc 1 79 10 view .LVU33
 189 0004 FEFFFFEA 		b	chOQPutTimeout
 190              	.LVL20:
 191              		.loc 1 79 10 view .LVU34
 192              		.cfi_endproc
 193              	.LFE11:
 194              		.size	putt, .-putt
 195              		.section	.text.put,"ax",%progbits
 196              		.align	2
 197              		.syntax unified
 198              		.arm
 199              		.fpu softvfp
 200              		.type	put, %function
 201              	put:
 202              	.LVL21:
 203              	.LFB9:
 204              		.loc 1 67 39 is_stmt 1 view -0
 205              		.cfi_startproc
 206              		@ args = 0, pretend = 0, frame = 0
 207              		@ frame_needed = 0, uses_anonymous_args = 0
 208              		@ link register save eliminated.
 209              		.loc 1 69 3 view .LVU36
 210              		.loc 1 69 10 is_stmt 0 view .LVU37
 211 0000 0020E0E3 		mvn	r2, #0
 212 0004 300080E2 		add	r0, r0, #48
 213              	.LVL22:
 214              		.loc 1 69 10 view .LVU38
 215 0008 FEFFFFEA 		b	chOQPutTimeout
 216              	.LVL23:
 217              		.loc 1 69 10 view .LVU39
 218              		.cfi_endproc
 219              	.LFE9:
 220              		.size	put, .-put
 221              		.section	.text.sdInit,"ax",%progbits
 222              		.align	2
 223              		.global	sdInit
 224              		.syntax unified
 225              		.arm
 226              		.fpu softvfp
 227              		.type	sdInit, %function
 228              	sdInit:
ARM GAS  /tmp/cchBrCOm.s 			page 5


 229              	.LFB15:
 230              		.loc 1 113 19 is_stmt 1 view -0
 231              		.cfi_startproc
 232              		@ args = 0, pretend = 0, frame = 0
 233              		@ frame_needed = 0, uses_anonymous_args = 0
 234              		@ link register save eliminated.
 235              		.loc 1 115 3 view .LVU41
 236 0000 FEFFFFEA 		b	sd_lld_init
 237              	.LVL24:
 238              		.cfi_endproc
 239              	.LFE15:
 240              		.size	sdInit, .-sdInit
 241              		.section	.text.sdObjectInit,"ax",%progbits
 242              		.align	2
 243              		.global	sdObjectInit
 244              		.syntax unified
 245              		.arm
 246              		.fpu softvfp
 247              		.type	sdObjectInit, %function
 248              	sdObjectInit:
 249              	.LVL25:
 250              	.LFB16:
 251              		.loc 1 133 76 view -0
 252              		.cfi_startproc
 253              		@ args = 0, pretend = 0, frame = 0
 254              		@ frame_needed = 0, uses_anonymous_args = 0
 255              		.loc 1 135 3 view .LVU43
 256              		.loc 1 133 76 is_stmt 0 view .LVU44
 257 0000 30402DE9 		push	{r4, r5, lr}
 258              		.cfi_def_cfa_offset 12
 259              		.cfi_offset 4, -12
 260              		.cfi_offset 5, -8
 261              		.cfi_offset 14, -4
 262              		.loc 1 137 14 view .LVU45
 263 0004 01C0A0E3 		mov	ip, #1
 264              		.loc 1 133 76 view .LVU46
 265 0008 0040A0E1 		mov	r4, r0
 266 000c 0250A0E1 		mov	r5, r2
 267              		.loc 1 135 12 view .LVU47
 268 0010 44209FE5 		ldr	r2, .L13
 269              	.LVL26:
 270              		.loc 1 133 76 view .LVU48
 271 0014 0CD04DE2 		sub	sp, sp, #12
 272              		.cfi_def_cfa_offset 24
 273              		.loc 1 138 3 view .LVU49
 274 0018 00008DE5 		str	r0, [sp]
 275              		.loc 1 135 12 view .LVU50
 276 001c 042080E4 		str	r2, [r0], #4
 277              	.LVL27:
 278              		.loc 1 136 3 is_stmt 1 view .LVU51
 279              		.loc 1 133 76 is_stmt 0 view .LVU52
 280 0020 0130A0E1 		mov	r3, r1
 281              		.loc 1 136 3 view .LVU53
 282 0024 040084E5 		str	r0, [r4, #4]
 283              		.loc 1 137 3 is_stmt 1 view .LVU54
 284              		.loc 1 137 14 is_stmt 0 view .LVU55
 285 0028 08C0C4E5 		strb	ip, [r4, #8]
ARM GAS  /tmp/cchBrCOm.s 			page 6


 286              		.loc 1 138 3 is_stmt 1 view .LVU56
 287 002c 541084E2 		add	r1, r4, #84
 288              	.LVL28:
 289              		.loc 1 138 3 is_stmt 0 view .LVU57
 290 0030 0C0084E2 		add	r0, r4, #12
 291 0034 1020A0E3 		mov	r2, #16
 292 0038 FEFFFFEB 		bl	chIQInit
 293              	.LVL29:
 294              		.loc 1 139 3 is_stmt 1 view .LVU58
 295 003c 0530A0E1 		mov	r3, r5
 296 0040 1020A0E3 		mov	r2, #16
 297 0044 00408DE5 		str	r4, [sp]
 298 0048 641084E2 		add	r1, r4, #100
 299 004c 300084E2 		add	r0, r4, #48
 300 0050 FEFFFFEB 		bl	chOQInit
 301              	.LVL30:
 302              		.loc 1 140 1 is_stmt 0 view .LVU59
 303 0054 0CD08DE2 		add	sp, sp, #12
 304              		.cfi_def_cfa_offset 12
 305              		@ sp needed
 306 0058 3080BDE8 		pop	{r4, r5, pc}
 307              	.LVL31:
 308              	.L14:
 309              		.loc 1 140 1 view .LVU60
 310              		.align	2
 311              	.L13:
 312 005c 00000000 		.word	.LANCHOR0
 313              		.cfi_endproc
 314              	.LFE16:
 315              		.size	sdObjectInit, .-sdObjectInit
 316              		.section	.text.sdStart,"ax",%progbits
 317              		.align	2
 318              		.global	sdStart
 319              		.syntax unified
 320              		.arm
 321              		.fpu softvfp
 322              		.type	sdStart, %function
 323              	sdStart:
 324              	.LVL32:
 325              	.LFB17:
 326              		.loc 1 152 61 is_stmt 1 view -0
 327              		.cfi_startproc
 328              		@ args = 0, pretend = 0, frame = 0
 329              		@ frame_needed = 0, uses_anonymous_args = 0
 330              		.loc 1 154 3 view .LVU62
 331              		.loc 1 154 37 view .LVU63
 332              		.loc 1 156 3 view .LVU64
 333              		.loc 1 152 61 is_stmt 0 view .LVU65
 334 0000 10402DE9 		push	{r4, lr}
 335              		.cfi_def_cfa_offset 8
 336              		.cfi_offset 4, -8
 337              		.cfi_offset 14, -4
 338              		.loc 1 152 61 view .LVU66
 339 0004 0040A0E1 		mov	r4, r0
 340              		.loc 1 156 3 view .LVU67
 341              		.syntax divided
 342              	@ 156 "../os/hal/src/serial.c" 1
ARM GAS  /tmp/cchBrCOm.s 			page 7


 343 0008 9FF021E3 		msr     CPSR_c, #0x9F
 344              	@ 0 "" 2
 345              		.loc 1 156 3 is_stmt 1 view .LVU68
 346              		.loc 1 156 14 view .LVU69
 347              		.loc 1 157 3 view .LVU70
 348              		.loc 1 159 31 view .LVU71
 349              		.loc 1 160 3 view .LVU72
 350              		.arm
 351              		.syntax unified
 352 000c FEFFFFEB 		bl	sd_lld_start
 353              	.LVL33:
 354              		.loc 1 161 3 view .LVU73
 355              		.loc 1 161 14 is_stmt 0 view .LVU74
 356 0010 0230A0E3 		mov	r3, #2
 357 0014 0830C4E5 		strb	r3, [r4, #8]
 358              		.loc 1 162 3 is_stmt 1 view .LVU75
 359              		.loc 1 162 3 view .LVU76
 360              		.syntax divided
 361              	@ 162 "../os/hal/src/serial.c" 1
 362 0018 1FF021E3 		msr     CPSR_c, #0x1F
 363              	@ 0 "" 2
 364              		.loc 1 162 16 view .LVU77
 365              		.loc 1 163 1 is_stmt 0 view .LVU78
 366              		.arm
 367              		.syntax unified
 368 001c 1080BDE8 		pop	{r4, pc}
 369              		.cfi_endproc
 370              	.LFE17:
 371              		.size	sdStart, .-sdStart
 372              		.section	.text.sdStop,"ax",%progbits
 373              		.align	2
 374              		.global	sdStop
 375              		.syntax unified
 376              		.arm
 377              		.fpu softvfp
 378              		.type	sdStop, %function
 379              	sdStop:
 380              	.LVL34:
 381              	.LFB18:
 382              		.loc 1 174 32 is_stmt 1 view -0
 383              		.cfi_startproc
 384              		@ args = 0, pretend = 0, frame = 0
 385              		@ frame_needed = 0, uses_anonymous_args = 0
 386              		.loc 1 176 3 view .LVU80
 387              		.loc 1 176 36 view .LVU81
 388              		.loc 1 178 3 view .LVU82
 389              		.loc 1 174 32 is_stmt 0 view .LVU83
 390 0000 10402DE9 		push	{r4, lr}
 391              		.cfi_def_cfa_offset 8
 392              		.cfi_offset 4, -8
 393              		.cfi_offset 14, -4
 394              		.loc 1 174 32 view .LVU84
 395 0004 0040A0E1 		mov	r4, r0
 396              		.loc 1 178 3 view .LVU85
 397              		.syntax divided
 398              	@ 178 "../os/hal/src/serial.c" 1
 399 0008 9FF021E3 		msr     CPSR_c, #0x9F
ARM GAS  /tmp/cchBrCOm.s 			page 8


 400              	@ 0 "" 2
 401              		.loc 1 178 3 is_stmt 1 view .LVU86
 402              		.loc 1 178 14 view .LVU87
 403              		.loc 1 179 3 view .LVU88
 404              		.loc 1 181 31 view .LVU89
 405              		.loc 1 182 3 view .LVU90
 406              		.arm
 407              		.syntax unified
 408 000c FEFFFFEB 		bl	sd_lld_stop
 409              	.LVL35:
 410              		.loc 1 183 3 view .LVU91
 411              		.loc 1 183 14 is_stmt 0 view .LVU92
 412 0010 0130A0E3 		mov	r3, #1
 413              		.loc 1 184 3 view .LVU93
 414 0014 300084E2 		add	r0, r4, #48
 415              		.loc 1 183 14 view .LVU94
 416 0018 0830C4E5 		strb	r3, [r4, #8]
 417              		.loc 1 184 3 is_stmt 1 view .LVU95
 418 001c FEFFFFEB 		bl	chOQResetI
 419              	.LVL36:
 420              		.loc 1 185 3 view .LVU96
 421 0020 0C0084E2 		add	r0, r4, #12
 422 0024 FEFFFFEB 		bl	chIQResetI
 423              	.LVL37:
 424              		.loc 1 186 3 view .LVU97
 425 0028 FEFFFFEB 		bl	chSchRescheduleS
 426              	.LVL38:
 427              		.loc 1 187 3 view .LVU98
 428              		.loc 1 187 3 view .LVU99
 429              		.syntax divided
 430              	@ 187 "../os/hal/src/serial.c" 1
 431 002c 1FF021E3 		msr     CPSR_c, #0x1F
 432              	@ 0 "" 2
 433              		.loc 1 187 16 view .LVU100
 434              		.loc 1 188 1 is_stmt 0 view .LVU101
 435              		.arm
 436              		.syntax unified
 437 0030 1080BDE8 		pop	{r4, pc}
 438              		.cfi_endproc
 439              	.LFE18:
 440              		.size	sdStop, .-sdStop
 441              		.section	.text.sdIncomingDataI,"ax",%progbits
 442              		.align	2
 443              		.global	sdIncomingDataI
 444              		.syntax unified
 445              		.arm
 446              		.fpu softvfp
 447              		.type	sdIncomingDataI, %function
 448              	sdIncomingDataI:
 449              	.LVL39:
 450              	.LFB19:
 451              		.loc 1 206 52 is_stmt 1 view -0
 452              		.cfi_startproc
 453              		@ args = 0, pretend = 0, frame = 0
 454              		@ frame_needed = 0, uses_anonymous_args = 0
 455              		.loc 1 208 3 view .LVU103
 456              		.loc 1 208 21 view .LVU104
ARM GAS  /tmp/cchBrCOm.s 			page 9


 457              		.loc 1 209 3 view .LVU105
 458              		.loc 1 209 45 view .LVU106
 459              		.loc 1 211 3 view .LVU107
 460              		.loc 1 211 6 is_stmt 0 view .LVU108
 461 0000 143090E5 		ldr	r3, [r0, #20]
 462              		.loc 1 206 52 view .LVU109
 463 0004 70402DE9 		push	{r4, r5, r6, lr}
 464              		.cfi_def_cfa_offset 16
 465              		.cfi_offset 4, -16
 466              		.cfi_offset 5, -12
 467              		.cfi_offset 6, -8
 468              		.cfi_offset 14, -4
 469              		.loc 1 211 6 view .LVU110
 470 0008 000053E3 		cmp	r3, #0
 471              		.loc 1 206 52 view .LVU111
 472 000c 0040A0E1 		mov	r4, r0
 473 0010 0150A0E1 		mov	r5, r1
 474              		.loc 1 211 6 view .LVU112
 475 0014 0800000A 		beq	.L23
 476              	.LVL40:
 477              	.L20:
 478              		.loc 1 212 43 is_stmt 1 discriminator 1 view .LVU113
 479              		.loc 1 213 3 discriminator 1 view .LVU114
 480              		.loc 1 213 7 is_stmt 0 discriminator 1 view .LVU115
 481 0018 0510A0E1 		mov	r1, r5
 482 001c 0C0084E2 		add	r0, r4, #12
 483 0020 FEFFFFEB 		bl	chIQPutI
 484              	.LVL41:
 485              		.loc 1 213 6 discriminator 1 view .LVU116
 486 0024 000050E3 		cmp	r0, #0
 487 0028 7080BDA8 		popge	{r4, r5, r6, pc}
 488              		.loc 1 214 5 is_stmt 1 view .LVU117
 489 002c 040084E2 		add	r0, r4, #4
 490 0030 8010A0E3 		mov	r1, #128
 491              		.loc 1 215 1 is_stmt 0 view .LVU118
 492 0034 7040BDE8 		pop	{r4, r5, r6, lr}
 493              		.cfi_remember_state
 494              		.cfi_restore 14
 495              		.cfi_restore 6
 496              		.cfi_restore 5
 497              		.cfi_restore 4
 498              		.cfi_def_cfa_offset 0
 499              	.LVL42:
 500              		.loc 1 214 5 view .LVU119
 501 0038 FEFFFFEA 		b	chEvtBroadcastFlagsI
 502              	.LVL43:
 503              	.L23:
 504              		.cfi_restore_state
 505              		.loc 1 212 5 is_stmt 1 view .LVU120
 506 003c 0410A0E3 		mov	r1, #4
 507              	.LVL44:
 508              		.loc 1 212 5 is_stmt 0 view .LVU121
 509 0040 010080E0 		add	r0, r0, r1
 510              	.LVL45:
 511              		.loc 1 212 5 view .LVU122
 512 0044 FEFFFFEB 		bl	chEvtBroadcastFlagsI
 513              	.LVL46:
ARM GAS  /tmp/cchBrCOm.s 			page 10


 514 0048 F2FFFFEA 		b	.L20
 515              		.cfi_endproc
 516              	.LFE19:
 517              		.size	sdIncomingDataI, .-sdIncomingDataI
 518              		.section	.text.sdRequestDataI,"ax",%progbits
 519              		.align	2
 520              		.global	sdRequestDataI
 521              		.syntax unified
 522              		.arm
 523              		.fpu softvfp
 524              		.type	sdRequestDataI, %function
 525              	sdRequestDataI:
 526              	.LVL47:
 527              	.LFB20:
 528              		.loc 1 232 41 is_stmt 1 view -0
 529              		.cfi_startproc
 530              		@ args = 0, pretend = 0, frame = 0
 531              		@ frame_needed = 0, uses_anonymous_args = 0
 532              		.loc 1 233 3 view .LVU124
 533              		.loc 1 235 3 view .LVU125
 534              		.loc 1 235 21 view .LVU126
 535              		.loc 1 236 3 view .LVU127
 536              		.loc 1 236 44 view .LVU128
 537              		.loc 1 238 3 view .LVU129
 538              		.loc 1 232 41 is_stmt 0 view .LVU130
 539 0000 70402DE9 		push	{r4, r5, r6, lr}
 540              		.cfi_def_cfa_offset 16
 541              		.cfi_offset 4, -16
 542              		.cfi_offset 5, -12
 543              		.cfi_offset 6, -8
 544              		.cfi_offset 14, -4
 545              		.loc 1 232 41 view .LVU131
 546 0004 0050A0E1 		mov	r5, r0
 547              		.loc 1 238 7 view .LVU132
 548 0008 300080E2 		add	r0, r0, #48
 549              	.LVL48:
 550              		.loc 1 238 7 view .LVU133
 551 000c FEFFFFEB 		bl	chOQGetI
 552              	.LVL49:
 553              		.loc 1 239 3 is_stmt 1 view .LVU134
 554              		.loc 1 239 6 is_stmt 0 view .LVU135
 555 0010 004050E2 		subs	r4, r0, #0
 556 0014 010000BA 		blt	.L27
 557              		.loc 1 242 1 view .LVU136
 558 0018 0400A0E1 		mov	r0, r4
 559              		.loc 1 242 1 view .LVU137
 560 001c 7080BDE8 		pop	{r4, r5, r6, pc}
 561              	.L27:
 562              		.loc 1 240 5 is_stmt 1 view .LVU138
 563 0020 040085E2 		add	r0, r5, #4
 564 0024 0810A0E3 		mov	r1, #8
 565 0028 FEFFFFEB 		bl	chEvtBroadcastFlagsI
 566              	.LVL50:
 567              		.loc 1 240 40 view .LVU139
 568              		.loc 1 241 3 view .LVU140
 569              		.loc 1 242 1 is_stmt 0 view .LVU141
 570 002c 0400A0E1 		mov	r0, r4
ARM GAS  /tmp/cchBrCOm.s 			page 11


 571 0030 7080BDE8 		pop	{r4, r5, r6, pc}
 572              		.cfi_endproc
 573              	.LFE20:
 574              		.size	sdRequestDataI, .-sdRequestDataI
 575              		.section	.rodata.vmt,"a"
 576              		.align	2
 577              		.set	.LANCHOR0,. + 0
 578              		.type	vmt, %object
 579              		.size	vmt, 32
 580              	vmt:
 581 0000 00000000 		.word	write
 582 0004 00000000 		.word	read
 583 0008 00000000 		.word	put
 584 000c 00000000 		.word	get
 585 0010 00000000 		.word	putt
 586 0014 00000000 		.word	gett
 587 0018 00000000 		.word	writet
 588 001c 00000000 		.word	readt
 589              		.text
 590              	.Letext0:
 591              		.file 2 "/usr/lib/gcc/arm-none-eabi/9.2.1/include/stddef.h"
 592              		.file 3 "/usr/lib/gcc/arm-none-eabi/9.2.1/include/stdint.h"
 593              		.file 4 "../os/ports/GCC/ARM/chtypes.h"
 594              		.file 5 "../os/kernel/include/chlists.h"
 595              		.file 6 "../os/kernel/include/chthreads.h"
 596              		.file 7 "../os/ports/GCC/ARM/chcore.h"
 597              		.file 8 "../os/kernel/include/chvt.h"
 598              		.file 9 "../os/kernel/include/chschd.h"
 599              		.file 10 "../os/kernel/include/chmtx.h"
 600              		.file 11 "../os/kernel/include/chevents.h"
 601              		.file 12 "../os/kernel/include/chregistry.h"
 602              		.file 13 "../os/kernel/include/chqueues.h"
 603              		.file 14 "../os/kernel/include/ch.h"
 604              		.file 15 "../os/hal/platforms/BCM2835/bcm2835.h"
 605              		.file 16 "../os/hal/platforms/BCM2835/pal_lld.h"
 606              		.file 17 "../os/hal/include/i2c.h"
 607              		.file 18 "../os/hal/platforms/BCM2835/i2c_lld.h"
 608              		.file 19 "../os/hal/include/serial.h"
 609              		.file 20 "../os/hal/platforms/BCM2835/serial_lld.h"
 610              		.file 21 "../os/hal/include/spi.h"
 611              		.file 22 "../os/hal/platforms/BCM2835/spi_lld.h"
 612              		.section	.debug_info,"",%progbits
 613              	.Ldebug_info0:
 614 0000 D7140000 		.4byte	0x14d7
 615 0004 0400     		.2byte	0x4
 616 0006 00000000 		.4byte	.Ldebug_abbrev0
 617 000a 04       		.byte	0x4
 618 000b 01       		.uleb128 0x1
 619 000c 26000000 		.4byte	.LASF223
 620 0010 0C       		.byte	0xc
 621 0011 79010000 		.4byte	.LASF224
 622 0015 76070000 		.4byte	.LASF225
 623 0019 00000000 		.4byte	.Ldebug_ranges0+0
 624 001d 00000000 		.4byte	0
 625 0021 00000000 		.4byte	.Ldebug_line0
 626 0025 02       		.uleb128 0x2
 627 0026 04       		.byte	0x4
ARM GAS  /tmp/cchBrCOm.s 			page 12


 628 0027 05       		.byte	0x5
 629 0028 696E7400 		.ascii	"int\000"
 630 002c 03       		.uleb128 0x3
 631 002d 97030000 		.4byte	.LASF3
 632 0031 02       		.byte	0x2
 633 0032 D1       		.byte	0xd1
 634 0033 17       		.byte	0x17
 635 0034 38000000 		.4byte	0x38
 636 0038 04       		.uleb128 0x4
 637 0039 04       		.byte	0x4
 638 003a 07       		.byte	0x7
 639 003b BD030000 		.4byte	.LASF0
 640 003f 05       		.uleb128 0x5
 641 0040 38000000 		.4byte	0x38
 642 0044 04       		.uleb128 0x4
 643 0045 01       		.byte	0x1
 644 0046 06       		.byte	0x6
 645 0047 FA010000 		.4byte	.LASF1
 646 004b 04       		.uleb128 0x4
 647 004c 02       		.byte	0x2
 648 004d 05       		.byte	0x5
 649 004e 98060000 		.4byte	.LASF2
 650 0052 03       		.uleb128 0x3
 651 0053 56060000 		.4byte	.LASF4
 652 0057 03       		.byte	0x3
 653 0058 28       		.byte	0x28
 654 0059 18       		.byte	0x18
 655 005a 5E000000 		.4byte	0x5e
 656 005e 04       		.uleb128 0x4
 657 005f 04       		.byte	0x4
 658 0060 05       		.byte	0x5
 659 0061 6D020000 		.4byte	.LASF5
 660 0065 04       		.uleb128 0x4
 661 0066 08       		.byte	0x8
 662 0067 05       		.byte	0x5
 663 0068 EC010000 		.4byte	.LASF6
 664 006c 03       		.uleb128 0x3
 665 006d 18090000 		.4byte	.LASF7
 666 0071 03       		.byte	0x3
 667 0072 2E       		.byte	0x2e
 668 0073 18       		.byte	0x18
 669 0074 7D000000 		.4byte	0x7d
 670 0078 06       		.uleb128 0x6
 671 0079 6C000000 		.4byte	0x6c
 672 007d 04       		.uleb128 0x4
 673 007e 01       		.byte	0x1
 674 007f 08       		.byte	0x8
 675 0080 5E060000 		.4byte	.LASF8
 676 0084 03       		.uleb128 0x3
 677 0085 A8020000 		.4byte	.LASF9
 678 0089 03       		.byte	0x3
 679 008a 31       		.byte	0x31
 680 008b 19       		.byte	0x19
 681 008c 90000000 		.4byte	0x90
 682 0090 04       		.uleb128 0x4
 683 0091 02       		.byte	0x2
 684 0092 07       		.byte	0x7
ARM GAS  /tmp/cchBrCOm.s 			page 13


 685 0093 62040000 		.4byte	.LASF10
 686 0097 03       		.uleb128 0x3
 687 0098 4C070000 		.4byte	.LASF11
 688 009c 03       		.byte	0x3
 689 009d 34       		.byte	0x34
 690 009e 19       		.byte	0x19
 691 009f A8000000 		.4byte	0xa8
 692 00a3 05       		.uleb128 0x5
 693 00a4 97000000 		.4byte	0x97
 694 00a8 04       		.uleb128 0x4
 695 00a9 04       		.byte	0x4
 696 00aa 07       		.byte	0x7
 697 00ab 09040000 		.4byte	.LASF12
 698 00af 04       		.uleb128 0x4
 699 00b0 08       		.byte	0x8
 700 00b1 07       		.byte	0x7
 701 00b2 62010000 		.4byte	.LASF13
 702 00b6 03       		.uleb128 0x3
 703 00b7 34020000 		.4byte	.LASF14
 704 00bb 04       		.byte	0x4
 705 00bc 29       		.byte	0x29
 706 00bd 19       		.byte	0x19
 707 00be 52000000 		.4byte	0x52
 708 00c2 03       		.uleb128 0x3
 709 00c3 A3040000 		.4byte	.LASF15
 710 00c7 04       		.byte	0x4
 711 00c8 2A       		.byte	0x2a
 712 00c9 19       		.byte	0x19
 713 00ca 6C000000 		.4byte	0x6c
 714 00ce 03       		.uleb128 0x3
 715 00cf 76020000 		.4byte	.LASF16
 716 00d3 04       		.byte	0x4
 717 00d4 2B       		.byte	0x2b
 718 00d5 19       		.byte	0x19
 719 00d6 6C000000 		.4byte	0x6c
 720 00da 03       		.uleb128 0x3
 721 00db 06060000 		.4byte	.LASF17
 722 00df 04       		.byte	0x4
 723 00e0 2C       		.byte	0x2c
 724 00e1 19       		.byte	0x19
 725 00e2 6C000000 		.4byte	0x6c
 726 00e6 03       		.uleb128 0x3
 727 00e7 48020000 		.4byte	.LASF18
 728 00eb 04       		.byte	0x4
 729 00ec 2D       		.byte	0x2d
 730 00ed 19       		.byte	0x19
 731 00ee 6C000000 		.4byte	0x6c
 732 00f2 03       		.uleb128 0x3
 733 00f3 35060000 		.4byte	.LASF19
 734 00f7 04       		.byte	0x4
 735 00f8 2E       		.byte	0x2e
 736 00f9 19       		.byte	0x19
 737 00fa 97000000 		.4byte	0x97
 738 00fe 03       		.uleb128 0x3
 739 00ff 87040000 		.4byte	.LASF20
 740 0103 04       		.byte	0x4
 741 0104 2F       		.byte	0x2f
ARM GAS  /tmp/cchBrCOm.s 			page 14


 742 0105 19       		.byte	0x19
 743 0106 52000000 		.4byte	0x52
 744 010a 03       		.uleb128 0x3
 745 010b B7040000 		.4byte	.LASF21
 746 010f 04       		.byte	0x4
 747 0110 31       		.byte	0x31
 748 0111 19       		.byte	0x19
 749 0112 97000000 		.4byte	0x97
 750 0116 03       		.uleb128 0x3
 751 0117 A4080000 		.4byte	.LASF22
 752 011b 04       		.byte	0x4
 753 011c 32       		.byte	0x32
 754 011d 19       		.byte	0x19
 755 011e 97000000 		.4byte	0x97
 756 0122 03       		.uleb128 0x3
 757 0123 1A080000 		.4byte	.LASF23
 758 0127 04       		.byte	0x4
 759 0128 33       		.byte	0x33
 760 0129 19       		.byte	0x19
 761 012a 97000000 		.4byte	0x97
 762 012e 05       		.uleb128 0x5
 763 012f 22010000 		.4byte	0x122
 764 0133 03       		.uleb128 0x3
 765 0134 0A070000 		.4byte	.LASF24
 766 0138 05       		.byte	0x5
 767 0139 23       		.byte	0x23
 768 013a 17       		.byte	0x17
 769 013b 3F010000 		.4byte	0x13f
 770 013f 07       		.uleb128 0x7
 771 0140 0A070000 		.4byte	.LASF24
 772 0144 44       		.byte	0x44
 773 0145 06       		.byte	0x6
 774 0146 57       		.byte	0x57
 775 0147 08       		.byte	0x8
 776 0148 44020000 		.4byte	0x244
 777 014c 08       		.uleb128 0x8
 778 014d E4060000 		.4byte	.LASF25
 779 0151 06       		.byte	0x6
 780 0152 58       		.byte	0x58
 781 0153 1A       		.byte	0x1a
 782 0154 68020000 		.4byte	0x268
 783 0158 00       		.byte	0
 784 0159 08       		.uleb128 0x8
 785 015a 2E060000 		.4byte	.LASF26
 786 015e 06       		.byte	0x6
 787 015f 5A       		.byte	0x5a
 788 0160 1A       		.byte	0x1a
 789 0161 68020000 		.4byte	0x268
 790 0165 04       		.byte	0x4
 791 0166 08       		.uleb128 0x8
 792 0167 BA010000 		.4byte	.LASF27
 793 016b 06       		.byte	0x6
 794 016c 5C       		.byte	0x5c
 795 016d 19       		.byte	0x19
 796 016e F2000000 		.4byte	0xf2
 797 0172 08       		.byte	0x8
 798 0173 08       		.uleb128 0x8
ARM GAS  /tmp/cchBrCOm.s 			page 15


 799 0174 D8090000 		.4byte	.LASF28
 800 0178 06       		.byte	0x6
 801 0179 5D       		.byte	0x5d
 802 017a 19       		.byte	0x19
 803 017b 33030000 		.4byte	0x333
 804 017f 0C       		.byte	0xc
 805 0180 08       		.uleb128 0x8
 806 0181 EF020000 		.4byte	.LASF29
 807 0185 06       		.byte	0x6
 808 0186 5F       		.byte	0x5f
 809 0187 1A       		.byte	0x1a
 810 0188 68020000 		.4byte	0x268
 811 018c 10       		.byte	0x10
 812 018d 08       		.uleb128 0x8
 813 018e 7D050000 		.4byte	.LASF30
 814 0192 06       		.byte	0x6
 815 0193 60       		.byte	0x60
 816 0194 1A       		.byte	0x1a
 817 0195 68020000 		.4byte	0x268
 818 0199 14       		.byte	0x14
 819 019a 08       		.uleb128 0x8
 820 019b 58090000 		.4byte	.LASF31
 821 019f 06       		.byte	0x6
 822 01a0 67       		.byte	0x67
 823 01a1 1A       		.byte	0x1a
 824 01a2 94050000 		.4byte	0x594
 825 01a6 18       		.byte	0x18
 826 01a7 08       		.uleb128 0x8
 827 01a8 A2060000 		.4byte	.LASF32
 828 01ac 06       		.byte	0x6
 829 01ad 72       		.byte	0x72
 830 01ae 19       		.byte	0x19
 831 01af CE000000 		.4byte	0xce
 832 01b3 1C       		.byte	0x1c
 833 01b4 08       		.uleb128 0x8
 834 01b5 02070000 		.4byte	.LASF33
 835 01b9 06       		.byte	0x6
 836 01ba 76       		.byte	0x76
 837 01bb 19       		.byte	0x19
 838 01bc C2000000 		.4byte	0xc2
 839 01c0 1D       		.byte	0x1d
 840 01c1 08       		.uleb128 0x8
 841 01c2 E2080000 		.4byte	.LASF34
 842 01c6 06       		.byte	0x6
 843 01c7 7B       		.byte	0x7b
 844 01c8 19       		.byte	0x19
 845 01c9 DA000000 		.4byte	0xda
 846 01cd 1E       		.byte	0x1e
 847 01ce 08       		.uleb128 0x8
 848 01cf AA060000 		.4byte	.LASF35
 849 01d3 06       		.byte	0x6
 850 01d4 81       		.byte	0x81
 851 01d5 19       		.byte	0x19
 852 01d6 E6000000 		.4byte	0xe6
 853 01da 1F       		.byte	0x1f
 854 01db 08       		.uleb128 0x8
 855 01dc 57080000 		.4byte	.LASF36
ARM GAS  /tmp/cchBrCOm.s 			page 16


 856 01e0 06       		.byte	0x6
 857 01e1 88       		.byte	0x88
 858 01e2 19       		.byte	0x19
 859 01e3 2E010000 		.4byte	0x12e
 860 01e7 20       		.byte	0x20
 861 01e8 09       		.uleb128 0x9
 862 01e9 705F7500 		.ascii	"p_u\000"
 863 01ed 06       		.byte	0x6
 864 01ee AD       		.byte	0xad
 865 01ef 19       		.byte	0x19
 866 01f0 5A050000 		.4byte	0x55a
 867 01f4 24       		.byte	0x24
 868 01f5 08       		.uleb128 0x8
 869 01f6 DE090000 		.4byte	.LASF37
 870 01fa 06       		.byte	0x6
 871 01fb B2       		.byte	0xb2
 872 01fc 19       		.byte	0x19
 873 01fd 91020000 		.4byte	0x291
 874 0201 28       		.byte	0x28
 875 0202 08       		.uleb128 0x8
 876 0203 74080000 		.4byte	.LASF38
 877 0207 06       		.byte	0x6
 878 0208 B8       		.byte	0xb8
 879 0209 19       		.byte	0x19
 880 020a 6E020000 		.4byte	0x26e
 881 020e 2C       		.byte	0x2c
 882 020f 08       		.uleb128 0x8
 883 0210 16000000 		.4byte	.LASF39
 884 0214 06       		.byte	0x6
 885 0215 BC       		.byte	0xbc
 886 0216 19       		.byte	0x19
 887 0217 FE000000 		.4byte	0xfe
 888 021b 34       		.byte	0x34
 889 021c 08       		.uleb128 0x8
 890 021d 37070000 		.4byte	.LASF40
 891 0221 06       		.byte	0x6
 892 0222 C2       		.byte	0xc2
 893 0223 19       		.byte	0x19
 894 0224 0A010000 		.4byte	0x10a
 895 0228 38       		.byte	0x38
 896 0229 08       		.uleb128 0x8
 897 022a 8E060000 		.4byte	.LASF41
 898 022e 06       		.byte	0x6
 899 022f C9       		.byte	0xc9
 900 0230 1A       		.byte	0x1a
 901 0231 A6050000 		.4byte	0x5a6
 902 0235 3C       		.byte	0x3c
 903 0236 08       		.uleb128 0x8
 904 0237 24080000 		.4byte	.LASF42
 905 023b 06       		.byte	0x6
 906 023c CD       		.byte	0xcd
 907 023d 19       		.byte	0x19
 908 023e F2000000 		.4byte	0xf2
 909 0242 40       		.byte	0x40
 910 0243 00       		.byte	0
 911 0244 0A       		.uleb128 0xa
 912 0245 08       		.byte	0x8
ARM GAS  /tmp/cchBrCOm.s 			page 17


 913 0246 05       		.byte	0x5
 914 0247 5A       		.byte	0x5a
 915 0248 09       		.byte	0x9
 916 0249 68020000 		.4byte	0x268
 917 024d 08       		.uleb128 0x8
 918 024e E4060000 		.4byte	.LASF25
 919 0252 05       		.byte	0x5
 920 0253 5B       		.byte	0x5b
 921 0254 1A       		.byte	0x1a
 922 0255 68020000 		.4byte	0x268
 923 0259 00       		.byte	0
 924 025a 08       		.uleb128 0x8
 925 025b 2E060000 		.4byte	.LASF26
 926 025f 05       		.byte	0x5
 927 0260 5D       		.byte	0x5d
 928 0261 1A       		.byte	0x1a
 929 0262 68020000 		.4byte	0x268
 930 0266 04       		.byte	0x4
 931 0267 00       		.byte	0
 932 0268 0B       		.uleb128 0xb
 933 0269 04       		.byte	0x4
 934 026a 33010000 		.4byte	0x133
 935 026e 03       		.uleb128 0x3
 936 026f 9B050000 		.4byte	.LASF43
 937 0273 05       		.byte	0x5
 938 0274 5F       		.byte	0x5f
 939 0275 03       		.byte	0x3
 940 0276 44020000 		.4byte	0x244
 941 027a 0A       		.uleb128 0xa
 942 027b 04       		.byte	0x4
 943 027c 05       		.byte	0x5
 944 027d 64       		.byte	0x64
 945 027e 09       		.byte	0x9
 946 027f 91020000 		.4byte	0x291
 947 0283 08       		.uleb128 0x8
 948 0284 E4060000 		.4byte	.LASF25
 949 0288 05       		.byte	0x5
 950 0289 66       		.byte	0x66
 951 028a 16       		.byte	0x16
 952 028b 68020000 		.4byte	0x268
 953 028f 00       		.byte	0
 954 0290 00       		.byte	0
 955 0291 03       		.uleb128 0x3
 956 0292 AB040000 		.4byte	.LASF44
 957 0296 05       		.byte	0x5
 958 0297 69       		.byte	0x69
 959 0298 03       		.byte	0x3
 960 0299 7A020000 		.4byte	0x27a
 961 029d 03       		.uleb128 0x3
 962 029e E1040000 		.4byte	.LASF45
 963 02a2 07       		.byte	0x7
 964 02a3 9D       		.byte	0x9d
 965 02a4 12       		.byte	0x12
 966 02a5 97000000 		.4byte	0x97
 967 02a9 03       		.uleb128 0x3
 968 02aa 6A030000 		.4byte	.LASF46
 969 02ae 07       		.byte	0x7
ARM GAS  /tmp/cchBrCOm.s 			page 18


 970 02af A2       		.byte	0xa2
 971 02b0 0F       		.byte	0xf
 972 02b1 B5020000 		.4byte	0x2b5
 973 02b5 0C       		.uleb128 0xc
 974 02b6 04       		.byte	0x4
 975 02b7 07       		.uleb128 0x7
 976 02b8 6D080000 		.4byte	.LASF47
 977 02bc 24       		.byte	0x24
 978 02bd 07       		.byte	0x7
 979 02be B9       		.byte	0xb9
 980 02bf 08       		.byte	0x8
 981 02c0 33030000 		.4byte	0x333
 982 02c4 09       		.uleb128 0x9
 983 02c5 723400   		.ascii	"r4\000"
 984 02c8 07       		.byte	0x7
 985 02c9 BA       		.byte	0xba
 986 02ca 11       		.byte	0x11
 987 02cb A9020000 		.4byte	0x2a9
 988 02cf 00       		.byte	0
 989 02d0 09       		.uleb128 0x9
 990 02d1 723500   		.ascii	"r5\000"
 991 02d4 07       		.byte	0x7
 992 02d5 BB       		.byte	0xbb
 993 02d6 11       		.byte	0x11
 994 02d7 A9020000 		.4byte	0x2a9
 995 02db 04       		.byte	0x4
 996 02dc 09       		.uleb128 0x9
 997 02dd 723600   		.ascii	"r6\000"
 998 02e0 07       		.byte	0x7
 999 02e1 BC       		.byte	0xbc
 1000 02e2 11       		.byte	0x11
 1001 02e3 A9020000 		.4byte	0x2a9
 1002 02e7 08       		.byte	0x8
 1003 02e8 09       		.uleb128 0x9
 1004 02e9 723700   		.ascii	"r7\000"
 1005 02ec 07       		.byte	0x7
 1006 02ed BD       		.byte	0xbd
 1007 02ee 11       		.byte	0x11
 1008 02ef A9020000 		.4byte	0x2a9
 1009 02f3 0C       		.byte	0xc
 1010 02f4 09       		.uleb128 0x9
 1011 02f5 723800   		.ascii	"r8\000"
 1012 02f8 07       		.byte	0x7
 1013 02f9 BE       		.byte	0xbe
 1014 02fa 11       		.byte	0x11
 1015 02fb A9020000 		.4byte	0x2a9
 1016 02ff 10       		.byte	0x10
 1017 0300 09       		.uleb128 0x9
 1018 0301 723900   		.ascii	"r9\000"
 1019 0304 07       		.byte	0x7
 1020 0305 BF       		.byte	0xbf
 1021 0306 11       		.byte	0x11
 1022 0307 A9020000 		.4byte	0x2a9
 1023 030b 14       		.byte	0x14
 1024 030c 09       		.uleb128 0x9
 1025 030d 72313000 		.ascii	"r10\000"
 1026 0311 07       		.byte	0x7
ARM GAS  /tmp/cchBrCOm.s 			page 19


 1027 0312 C0       		.byte	0xc0
 1028 0313 11       		.byte	0x11
 1029 0314 A9020000 		.4byte	0x2a9
 1030 0318 18       		.byte	0x18
 1031 0319 09       		.uleb128 0x9
 1032 031a 72313100 		.ascii	"r11\000"
 1033 031e 07       		.byte	0x7
 1034 031f C1       		.byte	0xc1
 1035 0320 11       		.byte	0x11
 1036 0321 A9020000 		.4byte	0x2a9
 1037 0325 1C       		.byte	0x1c
 1038 0326 09       		.uleb128 0x9
 1039 0327 6C7200   		.ascii	"lr\000"
 1040 032a 07       		.byte	0x7
 1041 032b C2       		.byte	0xc2
 1042 032c 11       		.byte	0x11
 1043 032d A9020000 		.4byte	0x2a9
 1044 0331 20       		.byte	0x20
 1045 0332 00       		.byte	0
 1046 0333 07       		.uleb128 0x7
 1047 0334 5A040000 		.4byte	.LASF48
 1048 0338 04       		.byte	0x4
 1049 0339 07       		.byte	0x7
 1050 033a CA       		.byte	0xca
 1051 033b 08       		.byte	0x8
 1052 033c 4E030000 		.4byte	0x34e
 1053 0340 09       		.uleb128 0x9
 1054 0341 72313300 		.ascii	"r13\000"
 1055 0345 07       		.byte	0x7
 1056 0346 CB       		.byte	0xcb
 1057 0347 12       		.byte	0x12
 1058 0348 4E030000 		.4byte	0x34e
 1059 034c 00       		.byte	0
 1060 034d 00       		.byte	0
 1061 034e 0B       		.uleb128 0xb
 1062 034f 04       		.byte	0x4
 1063 0350 B7020000 		.4byte	0x2b7
 1064 0354 03       		.uleb128 0x3
 1065 0355 2F080000 		.4byte	.LASF49
 1066 0359 08       		.byte	0x8
 1067 035a 4E       		.byte	0x4e
 1068 035b 10       		.byte	0x10
 1069 035c 60030000 		.4byte	0x360
 1070 0360 0B       		.uleb128 0xb
 1071 0361 04       		.byte	0x4
 1072 0362 66030000 		.4byte	0x366
 1073 0366 0D       		.uleb128 0xd
 1074 0367 71030000 		.4byte	0x371
 1075 036b 0E       		.uleb128 0xe
 1076 036c B5020000 		.4byte	0x2b5
 1077 0370 00       		.byte	0
 1078 0371 03       		.uleb128 0x3
 1079 0372 69070000 		.4byte	.LASF50
 1080 0376 08       		.byte	0x8
 1081 0377 53       		.byte	0x53
 1082 0378 1D       		.byte	0x1d
 1083 0379 7D030000 		.4byte	0x37d
ARM GAS  /tmp/cchBrCOm.s 			page 20


 1084 037d 07       		.uleb128 0x7
 1085 037e 69070000 		.4byte	.LASF50
 1086 0382 14       		.byte	0x14
 1087 0383 08       		.byte	0x8
 1088 0384 5A       		.byte	0x5a
 1089 0385 08       		.byte	0x8
 1090 0386 CC030000 		.4byte	0x3cc
 1091 038a 08       		.uleb128 0x8
 1092 038b CA030000 		.4byte	.LASF51
 1093 038f 08       		.byte	0x8
 1094 0390 5B       		.byte	0x5b
 1095 0391 1A       		.byte	0x1a
 1096 0392 CC030000 		.4byte	0x3cc
 1097 0396 00       		.byte	0
 1098 0397 08       		.uleb128 0x8
 1099 0398 73030000 		.4byte	.LASF52
 1100 039c 08       		.byte	0x8
 1101 039d 5D       		.byte	0x5d
 1102 039e 1A       		.byte	0x1a
 1103 039f CC030000 		.4byte	0x3cc
 1104 03a3 04       		.byte	0x4
 1105 03a4 08       		.uleb128 0x8
 1106 03a5 1C050000 		.4byte	.LASF53
 1107 03a9 08       		.byte	0x8
 1108 03aa 5F       		.byte	0x5f
 1109 03ab 19       		.byte	0x19
 1110 03ac 22010000 		.4byte	0x122
 1111 03b0 08       		.byte	0x8
 1112 03b1 08       		.uleb128 0x8
 1113 03b2 44050000 		.4byte	.LASF54
 1114 03b6 08       		.byte	0x8
 1115 03b7 60       		.byte	0x60
 1116 03b8 19       		.byte	0x19
 1117 03b9 54030000 		.4byte	0x354
 1118 03bd 0C       		.byte	0xc
 1119 03be 08       		.uleb128 0x8
 1120 03bf 9D080000 		.4byte	.LASF55
 1121 03c3 08       		.byte	0x8
 1122 03c4 62       		.byte	0x62
 1123 03c5 1A       		.byte	0x1a
 1124 03c6 B5020000 		.4byte	0x2b5
 1125 03ca 10       		.byte	0x10
 1126 03cb 00       		.byte	0
 1127 03cc 0B       		.uleb128 0xb
 1128 03cd 04       		.byte	0x4
 1129 03ce 71030000 		.4byte	0x371
 1130 03d2 0A       		.uleb128 0xa
 1131 03d3 10       		.byte	0x10
 1132 03d4 08       		.byte	0x8
 1133 03d5 6C       		.byte	0x6c
 1134 03d6 09       		.byte	0x9
 1135 03d7 10040000 		.4byte	0x410
 1136 03db 08       		.uleb128 0x8
 1137 03dc CA030000 		.4byte	.LASF51
 1138 03e0 08       		.byte	0x8
 1139 03e1 6D       		.byte	0x6d
 1140 03e2 1A       		.byte	0x1a
ARM GAS  /tmp/cchBrCOm.s 			page 21


 1141 03e3 CC030000 		.4byte	0x3cc
 1142 03e7 00       		.byte	0
 1143 03e8 08       		.uleb128 0x8
 1144 03e9 73030000 		.4byte	.LASF52
 1145 03ed 08       		.byte	0x8
 1146 03ee 6F       		.byte	0x6f
 1147 03ef 1A       		.byte	0x1a
 1148 03f0 CC030000 		.4byte	0x3cc
 1149 03f4 04       		.byte	0x4
 1150 03f5 08       		.uleb128 0x8
 1151 03f6 1C050000 		.4byte	.LASF53
 1152 03fa 08       		.byte	0x8
 1153 03fb 71       		.byte	0x71
 1154 03fc 19       		.byte	0x19
 1155 03fd 22010000 		.4byte	0x122
 1156 0401 08       		.byte	0x8
 1157 0402 08       		.uleb128 0x8
 1158 0403 5F090000 		.4byte	.LASF56
 1159 0407 08       		.byte	0x8
 1160 0408 72       		.byte	0x72
 1161 0409 19       		.byte	0x19
 1162 040a 2E010000 		.4byte	0x12e
 1163 040e 0C       		.byte	0xc
 1164 040f 00       		.byte	0
 1165 0410 03       		.uleb128 0x3
 1166 0411 9E090000 		.4byte	.LASF57
 1167 0415 08       		.byte	0x8
 1168 0416 73       		.byte	0x73
 1169 0417 03       		.byte	0x3
 1170 0418 D2030000 		.4byte	0x3d2
 1171 041c 0F       		.uleb128 0xf
 1172 041d 37010000 		.4byte	.LASF65
 1173 0421 08       		.byte	0x8
 1174 0422 D1       		.byte	0xd1
 1175 0423 0F       		.byte	0xf
 1176 0424 10040000 		.4byte	0x410
 1177 0428 0A       		.uleb128 0xa
 1178 0429 1C       		.byte	0x1c
 1179 042a 09       		.byte	0x9
 1180 042b 57       		.byte	0x57
 1181 042c 09       		.byte	0x9
 1182 042d 80040000 		.4byte	0x480
 1183 0431 08       		.uleb128 0x8
 1184 0432 61070000 		.4byte	.LASF58
 1185 0436 09       		.byte	0x9
 1186 0437 58       		.byte	0x58
 1187 0438 19       		.byte	0x19
 1188 0439 6E020000 		.4byte	0x26e
 1189 043d 00       		.byte	0
 1190 043e 08       		.uleb128 0x8
 1191 043f CD060000 		.4byte	.LASF59
 1192 0443 09       		.byte	0x9
 1193 0444 59       		.byte	0x59
 1194 0445 19       		.byte	0x19
 1195 0446 F2000000 		.4byte	0xf2
 1196 044a 08       		.byte	0x8
 1197 044b 08       		.uleb128 0x8
ARM GAS  /tmp/cchBrCOm.s 			page 22


 1198 044c 95050000 		.4byte	.LASF60
 1199 0450 09       		.byte	0x9
 1200 0451 5B       		.byte	0x5b
 1201 0452 19       		.byte	0x19
 1202 0453 33030000 		.4byte	0x333
 1203 0457 0C       		.byte	0xc
 1204 0458 08       		.uleb128 0x8
 1205 0459 62030000 		.4byte	.LASF61
 1206 045d 09       		.byte	0x9
 1207 045e 5E       		.byte	0x5e
 1208 045f 1A       		.byte	0x1a
 1209 0460 68020000 		.4byte	0x268
 1210 0464 10       		.byte	0x10
 1211 0465 08       		.uleb128 0x8
 1212 0466 CE050000 		.4byte	.LASF62
 1213 046a 09       		.byte	0x9
 1214 046b 5F       		.byte	0x5f
 1215 046c 1A       		.byte	0x1a
 1216 046d 68020000 		.4byte	0x268
 1217 0471 14       		.byte	0x14
 1218 0472 08       		.uleb128 0x8
 1219 0473 C4050000 		.4byte	.LASF63
 1220 0477 09       		.byte	0x9
 1221 0478 62       		.byte	0x62
 1222 0479 1A       		.byte	0x1a
 1223 047a 68020000 		.4byte	0x268
 1224 047e 18       		.byte	0x18
 1225 047f 00       		.byte	0
 1226 0480 03       		.uleb128 0x3
 1227 0481 F0080000 		.4byte	.LASF64
 1228 0485 09       		.byte	0x9
 1229 0486 64       		.byte	0x64
 1230 0487 03       		.byte	0x3
 1231 0488 28040000 		.4byte	0x428
 1232 048c 0F       		.uleb128 0xf
 1233 048d 03090000 		.4byte	.LASF66
 1234 0491 09       		.byte	0x9
 1235 0492 68       		.byte	0x68
 1236 0493 12       		.byte	0x12
 1237 0494 80040000 		.4byte	0x480
 1238 0498 07       		.uleb128 0x7
 1239 0499 CE040000 		.4byte	.LASF67
 1240 049d 10       		.byte	0x10
 1241 049e 0A       		.byte	0xa
 1242 049f 25       		.byte	0x25
 1243 04a0 10       		.byte	0x10
 1244 04a1 CD040000 		.4byte	0x4cd
 1245 04a5 08       		.uleb128 0x8
 1246 04a6 3B020000 		.4byte	.LASF68
 1247 04aa 0A       		.byte	0xa
 1248 04ab 26       		.byte	0x26
 1249 04ac 19       		.byte	0x19
 1250 04ad 6E020000 		.4byte	0x26e
 1251 04b1 00       		.byte	0
 1252 04b2 08       		.uleb128 0x8
 1253 04b3 BD090000 		.4byte	.LASF69
 1254 04b7 0A       		.byte	0xa
ARM GAS  /tmp/cchBrCOm.s 			page 23


 1255 04b8 28       		.byte	0x28
 1256 04b9 1A       		.byte	0x1a
 1257 04ba 68020000 		.4byte	0x268
 1258 04be 08       		.byte	0x8
 1259 04bf 08       		.uleb128 0x8
 1260 04c0 13080000 		.4byte	.LASF70
 1261 04c4 0A       		.byte	0xa
 1262 04c5 2A       		.byte	0x2a
 1263 04c6 1A       		.byte	0x1a
 1264 04c7 CD040000 		.4byte	0x4cd
 1265 04cb 0C       		.byte	0xc
 1266 04cc 00       		.byte	0
 1267 04cd 0B       		.uleb128 0xb
 1268 04ce 04       		.byte	0x4
 1269 04cf 98040000 		.4byte	0x498
 1270 04d3 03       		.uleb128 0x3
 1271 04d4 CE040000 		.4byte	.LASF67
 1272 04d8 0A       		.byte	0xa
 1273 04d9 2C       		.byte	0x2c
 1274 04da 03       		.byte	0x3
 1275 04db 98040000 		.4byte	0x498
 1276 04df 03       		.uleb128 0x3
 1277 04e0 43090000 		.4byte	.LASF71
 1278 04e4 0B       		.byte	0xb
 1279 04e5 25       		.byte	0x25
 1280 04e6 1E       		.byte	0x1e
 1281 04e7 EB040000 		.4byte	0x4eb
 1282 04eb 07       		.uleb128 0x7
 1283 04ec 43090000 		.4byte	.LASF71
 1284 04f0 10       		.byte	0x10
 1285 04f1 0B       		.byte	0xb
 1286 04f2 2A       		.byte	0x2a
 1287 04f3 08       		.byte	0x8
 1288 04f4 2D050000 		.4byte	0x52d
 1289 04f8 08       		.uleb128 0x8
 1290 04f9 94040000 		.4byte	.LASF72
 1291 04fd 0B       		.byte	0xb
 1292 04fe 2B       		.byte	0x2b
 1293 04ff 1A       		.byte	0x1a
 1294 0500 2D050000 		.4byte	0x52d
 1295 0504 00       		.byte	0
 1296 0505 08       		.uleb128 0x8
 1297 0506 79060000 		.4byte	.LASF73
 1298 050a 0B       		.byte	0xb
 1299 050b 2E       		.byte	0x2e
 1300 050c 1A       		.byte	0x1a
 1301 050d 68020000 		.4byte	0x268
 1302 0511 04       		.byte	0x4
 1303 0512 08       		.uleb128 0x8
 1304 0513 D6050000 		.4byte	.LASF74
 1305 0517 0B       		.byte	0xb
 1306 0518 30       		.byte	0x30
 1307 0519 19       		.byte	0x19
 1308 051a 0A010000 		.4byte	0x10a
 1309 051e 08       		.byte	0x8
 1310 051f 08       		.uleb128 0x8
 1311 0520 85060000 		.4byte	.LASF75
ARM GAS  /tmp/cchBrCOm.s 			page 24


 1312 0524 0B       		.byte	0xb
 1313 0525 33       		.byte	0x33
 1314 0526 19       		.byte	0x19
 1315 0527 16010000 		.4byte	0x116
 1316 052b 0C       		.byte	0xc
 1317 052c 00       		.byte	0
 1318 052d 0B       		.uleb128 0xb
 1319 052e 04       		.byte	0x4
 1320 052f DF040000 		.4byte	0x4df
 1321 0533 07       		.uleb128 0x7
 1322 0534 B1030000 		.4byte	.LASF76
 1323 0538 04       		.byte	0x4
 1324 0539 0B       		.byte	0xb
 1325 053a 3A       		.byte	0x3a
 1326 053b 10       		.byte	0x10
 1327 053c 4E050000 		.4byte	0x54e
 1328 0540 08       		.uleb128 0x8
 1329 0541 6A090000 		.4byte	.LASF77
 1330 0545 0B       		.byte	0xb
 1331 0546 3B       		.byte	0x3b
 1332 0547 1A       		.byte	0x1a
 1333 0548 2D050000 		.4byte	0x52d
 1334 054c 00       		.byte	0
 1335 054d 00       		.byte	0
 1336 054e 03       		.uleb128 0x3
 1337 054f B1030000 		.4byte	.LASF76
 1338 0553 0B       		.byte	0xb
 1339 0554 3E       		.byte	0x3e
 1340 0555 03       		.byte	0x3
 1341 0556 33050000 		.4byte	0x533
 1342 055a 10       		.uleb128 0x10
 1343 055b 04       		.byte	0x4
 1344 055c 06       		.byte	0x6
 1345 055d 8F       		.byte	0x8f
 1346 055e 03       		.byte	0x3
 1347 055f 94050000 		.4byte	0x594
 1348 0563 11       		.uleb128 0x11
 1349 0564 FA000000 		.4byte	.LASF78
 1350 0568 06       		.byte	0x6
 1351 0569 96       		.byte	0x96
 1352 056a 19       		.byte	0x19
 1353 056b FE000000 		.4byte	0xfe
 1354 056f 11       		.uleb128 0x11
 1355 0570 9E010000 		.4byte	.LASF79
 1356 0574 06       		.byte	0x6
 1357 0575 9D       		.byte	0x9d
 1358 0576 19       		.byte	0x19
 1359 0577 FE000000 		.4byte	0xfe
 1360 057b 11       		.uleb128 0x11
 1361 057c 51090000 		.4byte	.LASF80
 1362 0580 06       		.byte	0x6
 1363 0581 A4       		.byte	0xa4
 1364 0582 1A       		.byte	0x1a
 1365 0583 B5020000 		.4byte	0x2b5
 1366 0587 11       		.uleb128 0x11
 1367 0588 DD060000 		.4byte	.LASF81
 1368 058c 06       		.byte	0x6
ARM GAS  /tmp/cchBrCOm.s 			page 25


 1369 058d AB       		.byte	0xab
 1370 058e 19       		.byte	0x19
 1371 058f 0A010000 		.4byte	0x10a
 1372 0593 00       		.byte	0
 1373 0594 0B       		.uleb128 0xb
 1374 0595 04       		.byte	0x4
 1375 0596 A1050000 		.4byte	0x5a1
 1376 059a 04       		.uleb128 0x4
 1377 059b 01       		.byte	0x1
 1378 059c 08       		.byte	0x8
 1379 059d E7070000 		.4byte	.LASF82
 1380 05a1 06       		.uleb128 0x6
 1381 05a2 9A050000 		.4byte	0x59a
 1382 05a6 0B       		.uleb128 0xb
 1383 05a7 04       		.byte	0x4
 1384 05a8 D3040000 		.4byte	0x4d3
 1385 05ac 0B       		.uleb128 0xb
 1386 05ad 04       		.byte	0x4
 1387 05ae B2050000 		.4byte	0x5b2
 1388 05b2 12       		.uleb128 0x12
 1389 05b3 FE000000 		.4byte	0xfe
 1390 05b7 C1050000 		.4byte	0x5c1
 1391 05bb 0E       		.uleb128 0xe
 1392 05bc B5020000 		.4byte	0x2b5
 1393 05c0 00       		.byte	0
 1394 05c1 0A       		.uleb128 0xa
 1395 05c2 16       		.byte	0x16
 1396 05c3 0C       		.byte	0xc
 1397 05c4 25       		.byte	0x25
 1398 05c5 09       		.byte	0x9
 1399 05c6 B5060000 		.4byte	0x6b5
 1400 05ca 08       		.uleb128 0x8
 1401 05cb 31040000 		.4byte	.LASF83
 1402 05cf 0C       		.byte	0xc
 1403 05d0 26       		.byte	0x26
 1404 05d1 0D       		.byte	0xd
 1405 05d2 B5060000 		.4byte	0x6b5
 1406 05d6 00       		.byte	0
 1407 05d7 08       		.uleb128 0x8
 1408 05d8 FD040000 		.4byte	.LASF84
 1409 05dc 0C       		.byte	0xc
 1410 05dd 27       		.byte	0x27
 1411 05de 0D       		.byte	0xd
 1412 05df 6C000000 		.4byte	0x6c
 1413 05e3 04       		.byte	0x4
 1414 05e4 08       		.uleb128 0x8
 1415 05e5 A8050000 		.4byte	.LASF85
 1416 05e9 0C       		.byte	0xc
 1417 05ea 28       		.byte	0x28
 1418 05eb 0D       		.byte	0xd
 1419 05ec 6C000000 		.4byte	0x6c
 1420 05f0 05       		.byte	0x5
 1421 05f1 08       		.uleb128 0x8
 1422 05f2 7C090000 		.4byte	.LASF86
 1423 05f6 0C       		.byte	0xc
 1424 05f7 29       		.byte	0x29
 1425 05f8 0D       		.byte	0xd
ARM GAS  /tmp/cchBrCOm.s 			page 26


 1426 05f9 84000000 		.4byte	0x84
 1427 05fd 06       		.byte	0x6
 1428 05fe 08       		.uleb128 0x8
 1429 05ff 19060000 		.4byte	.LASF87
 1430 0603 0C       		.byte	0xc
 1431 0604 2A       		.byte	0x2a
 1432 0605 0D       		.byte	0xd
 1433 0606 6C000000 		.4byte	0x6c
 1434 060a 08       		.byte	0x8
 1435 060b 08       		.uleb128 0x8
 1436 060c 4C050000 		.4byte	.LASF88
 1437 0610 0C       		.byte	0xc
 1438 0611 2B       		.byte	0x2b
 1439 0612 0D       		.byte	0xd
 1440 0613 6C000000 		.4byte	0x6c
 1441 0617 09       		.byte	0x9
 1442 0618 08       		.uleb128 0x8
 1443 0619 90010000 		.4byte	.LASF89
 1444 061d 0C       		.byte	0xc
 1445 061e 2C       		.byte	0x2c
 1446 061f 0D       		.byte	0xd
 1447 0620 6C000000 		.4byte	0x6c
 1448 0624 0A       		.byte	0xa
 1449 0625 08       		.uleb128 0x8
 1450 0626 55070000 		.4byte	.LASF90
 1451 062a 0C       		.byte	0xc
 1452 062b 2D       		.byte	0x2d
 1453 062c 0D       		.byte	0xd
 1454 062d 6C000000 		.4byte	0x6c
 1455 0631 0B       		.byte	0xb
 1456 0632 08       		.uleb128 0x8
 1457 0633 D7080000 		.4byte	.LASF91
 1458 0637 0C       		.byte	0xc
 1459 0638 2E       		.byte	0x2e
 1460 0639 0D       		.byte	0xd
 1461 063a 6C000000 		.4byte	0x6c
 1462 063e 0C       		.byte	0xc
 1463 063f 08       		.uleb128 0x8
 1464 0640 1F070000 		.4byte	.LASF92
 1465 0644 0C       		.byte	0xc
 1466 0645 2F       		.byte	0x2f
 1467 0646 0D       		.byte	0xd
 1468 0647 6C000000 		.4byte	0x6c
 1469 064b 0D       		.byte	0xd
 1470 064c 08       		.uleb128 0x8
 1471 064d 09000000 		.4byte	.LASF93
 1472 0651 0C       		.byte	0xc
 1473 0652 30       		.byte	0x30
 1474 0653 0D       		.byte	0xd
 1475 0654 6C000000 		.4byte	0x6c
 1476 0658 0E       		.byte	0xe
 1477 0659 08       		.uleb128 0x8
 1478 065a 71050000 		.4byte	.LASF94
 1479 065e 0C       		.byte	0xc
 1480 065f 31       		.byte	0x31
 1481 0660 0D       		.byte	0xd
 1482 0661 6C000000 		.4byte	0x6c
ARM GAS  /tmp/cchBrCOm.s 			page 27


 1483 0665 0F       		.byte	0xf
 1484 0666 08       		.uleb128 0x8
 1485 0667 06020000 		.4byte	.LASF95
 1486 066b 0C       		.byte	0xc
 1487 066c 32       		.byte	0x32
 1488 066d 0D       		.byte	0xd
 1489 066e 6C000000 		.4byte	0x6c
 1490 0672 10       		.byte	0x10
 1491 0673 08       		.uleb128 0x8
 1492 0674 C1010000 		.4byte	.LASF96
 1493 0678 0C       		.byte	0xc
 1494 0679 34       		.byte	0x34
 1495 067a 0D       		.byte	0xd
 1496 067b 6C000000 		.4byte	0x6c
 1497 067f 11       		.byte	0x11
 1498 0680 08       		.uleb128 0x8
 1499 0681 1F020000 		.4byte	.LASF97
 1500 0685 0C       		.byte	0xc
 1501 0686 35       		.byte	0x35
 1502 0687 0D       		.byte	0xd
 1503 0688 6C000000 		.4byte	0x6c
 1504 068c 12       		.byte	0x12
 1505 068d 08       		.uleb128 0x8
 1506 068e 05050000 		.4byte	.LASF98
 1507 0692 0C       		.byte	0xc
 1508 0693 36       		.byte	0x36
 1509 0694 0D       		.byte	0xd
 1510 0695 6C000000 		.4byte	0x6c
 1511 0699 13       		.byte	0x13
 1512 069a 08       		.uleb128 0x8
 1513 069b F3060000 		.4byte	.LASF99
 1514 069f 0C       		.byte	0xc
 1515 06a0 37       		.byte	0x37
 1516 06a1 0D       		.byte	0xd
 1517 06a2 6C000000 		.4byte	0x6c
 1518 06a6 14       		.byte	0x14
 1519 06a7 08       		.uleb128 0x8
 1520 06a8 B4060000 		.4byte	.LASF100
 1521 06ac 0C       		.byte	0xc
 1522 06ad 39       		.byte	0x39
 1523 06ae 0D       		.byte	0xd
 1524 06af 6C000000 		.4byte	0x6c
 1525 06b3 15       		.byte	0x15
 1526 06b4 00       		.byte	0
 1527 06b5 13       		.uleb128 0x13
 1528 06b6 9A050000 		.4byte	0x59a
 1529 06ba C5060000 		.4byte	0x6c5
 1530 06be 14       		.uleb128 0x14
 1531 06bf 38000000 		.4byte	0x38
 1532 06c3 03       		.byte	0x3
 1533 06c4 00       		.byte	0
 1534 06c5 03       		.uleb128 0x3
 1535 06c6 B6020000 		.4byte	.LASF101
 1536 06ca 0C       		.byte	0xc
 1537 06cb 3A       		.byte	0x3a
 1538 06cc 03       		.byte	0x3
 1539 06cd C1050000 		.4byte	0x5c1
ARM GAS  /tmp/cchBrCOm.s 			page 28


 1540 06d1 06       		.uleb128 0x6
 1541 06d2 C5060000 		.4byte	0x6c5
 1542 06d6 0F       		.uleb128 0xf
 1543 06d7 1B040000 		.4byte	.LASF102
 1544 06db 0C       		.byte	0xc
 1545 06dc 77       		.byte	0x77
 1546 06dd 1D       		.byte	0x1d
 1547 06de D1060000 		.4byte	0x6d1
 1548 06e2 03       		.uleb128 0x3
 1549 06e3 D4040000 		.4byte	.LASF103
 1550 06e7 0D       		.byte	0xd
 1551 06e8 30       		.byte	0x30
 1552 06e9 1D       		.byte	0x1d
 1553 06ea EE060000 		.4byte	0x6ee
 1554 06ee 07       		.uleb128 0x7
 1555 06ef D4040000 		.4byte	.LASF103
 1556 06f3 24       		.byte	0x24
 1557 06f4 0D       		.byte	0xd
 1558 06f5 3E       		.byte	0x3e
 1559 06f6 08       		.byte	0x8
 1560 06f7 64070000 		.4byte	0x764
 1561 06fb 08       		.uleb128 0x8
 1562 06fc E2010000 		.4byte	.LASF104
 1563 0700 0D       		.byte	0xd
 1564 0701 3F       		.byte	0x3f
 1565 0702 19       		.byte	0x19
 1566 0703 6E020000 		.4byte	0x26e
 1567 0707 00       		.byte	0
 1568 0708 08       		.uleb128 0x8
 1569 0709 3A050000 		.4byte	.LASF105
 1570 070d 0D       		.byte	0xd
 1571 070e 40       		.byte	0x40
 1572 070f 19       		.byte	0x19
 1573 0710 2C000000 		.4byte	0x2c
 1574 0714 08       		.byte	0x8
 1575 0715 08       		.uleb128 0x8
 1576 0716 9F020000 		.4byte	.LASF106
 1577 071a 0D       		.byte	0xd
 1578 071b 41       		.byte	0x41
 1579 071c 1A       		.byte	0x1a
 1580 071d 87070000 		.4byte	0x787
 1581 0721 0C       		.byte	0xc
 1582 0722 08       		.uleb128 0x8
 1583 0723 5C010000 		.4byte	.LASF107
 1584 0727 0D       		.byte	0xd
 1585 0728 42       		.byte	0x42
 1586 0729 1A       		.byte	0x1a
 1587 072a 87070000 		.4byte	0x787
 1588 072e 10       		.byte	0x10
 1589 072f 08       		.uleb128 0x8
 1590 0730 8D050000 		.4byte	.LASF108
 1591 0734 0D       		.byte	0xd
 1592 0735 44       		.byte	0x44
 1593 0736 1A       		.byte	0x1a
 1594 0737 87070000 		.4byte	0x787
 1595 073b 14       		.byte	0x14
 1596 073c 08       		.uleb128 0x8
ARM GAS  /tmp/cchBrCOm.s 			page 29


 1597 073d 3D060000 		.4byte	.LASF109
 1598 0741 0D       		.byte	0xd
 1599 0742 45       		.byte	0x45
 1600 0743 1A       		.byte	0x1a
 1601 0744 87070000 		.4byte	0x787
 1602 0748 18       		.byte	0x18
 1603 0749 08       		.uleb128 0x8
 1604 074a FA080000 		.4byte	.LASF110
 1605 074e 0D       		.byte	0xd
 1606 074f 46       		.byte	0x46
 1607 0750 19       		.byte	0x19
 1608 0751 64070000 		.4byte	0x764
 1609 0755 1C       		.byte	0x1c
 1610 0756 08       		.uleb128 0x8
 1611 0757 AC090000 		.4byte	.LASF111
 1612 075b 0D       		.byte	0xd
 1613 075c 47       		.byte	0x47
 1614 075d 1A       		.byte	0x1a
 1615 075e B5020000 		.4byte	0x2b5
 1616 0762 20       		.byte	0x20
 1617 0763 00       		.byte	0
 1618 0764 03       		.uleb128 0x3
 1619 0765 24060000 		.4byte	.LASF112
 1620 0769 0D       		.byte	0xd
 1621 076a 33       		.byte	0x33
 1622 076b 10       		.byte	0x10
 1623 076c 70070000 		.4byte	0x770
 1624 0770 0B       		.uleb128 0xb
 1625 0771 04       		.byte	0x4
 1626 0772 76070000 		.4byte	0x776
 1627 0776 0D       		.uleb128 0xd
 1628 0777 81070000 		.4byte	0x781
 1629 077b 0E       		.uleb128 0xe
 1630 077c 81070000 		.4byte	0x781
 1631 0780 00       		.byte	0
 1632 0781 0B       		.uleb128 0xb
 1633 0782 04       		.byte	0x4
 1634 0783 E2060000 		.4byte	0x6e2
 1635 0787 0B       		.uleb128 0xb
 1636 0788 04       		.byte	0x4
 1637 0789 6C000000 		.4byte	0x6c
 1638 078d 03       		.uleb128 0x3
 1639 078e C3040000 		.4byte	.LASF113
 1640 0792 0D       		.byte	0xd
 1641 0793 7B       		.byte	0x7b
 1642 0794 16       		.byte	0x16
 1643 0795 E2060000 		.4byte	0x6e2
 1644 0799 03       		.uleb128 0x3
 1645 079a 10010000 		.4byte	.LASF114
 1646 079e 0D       		.byte	0xd
 1647 079f EE       		.byte	0xee
 1648 07a0 16       		.byte	0x16
 1649 07a1 E2060000 		.4byte	0x6e2
 1650 07a5 12       		.uleb128 0x12
 1651 07a6 2C000000 		.4byte	0x2c
 1652 07aa BE070000 		.4byte	0x7be
 1653 07ae 0E       		.uleb128 0xe
ARM GAS  /tmp/cchBrCOm.s 			page 30


 1654 07af B5020000 		.4byte	0x2b5
 1655 07b3 0E       		.uleb128 0xe
 1656 07b4 BE070000 		.4byte	0x7be
 1657 07b8 0E       		.uleb128 0xe
 1658 07b9 2C000000 		.4byte	0x2c
 1659 07bd 00       		.byte	0
 1660 07be 0B       		.uleb128 0xb
 1661 07bf 04       		.byte	0x4
 1662 07c0 78000000 		.4byte	0x78
 1663 07c4 0B       		.uleb128 0xb
 1664 07c5 04       		.byte	0x4
 1665 07c6 A5070000 		.4byte	0x7a5
 1666 07ca 12       		.uleb128 0x12
 1667 07cb 2C000000 		.4byte	0x2c
 1668 07cf E3070000 		.4byte	0x7e3
 1669 07d3 0E       		.uleb128 0xe
 1670 07d4 B5020000 		.4byte	0x2b5
 1671 07d8 0E       		.uleb128 0xe
 1672 07d9 87070000 		.4byte	0x787
 1673 07dd 0E       		.uleb128 0xe
 1674 07de 2C000000 		.4byte	0x2c
 1675 07e2 00       		.byte	0
 1676 07e3 0B       		.uleb128 0xb
 1677 07e4 04       		.byte	0x4
 1678 07e5 CA070000 		.4byte	0x7ca
 1679 07e9 12       		.uleb128 0x12
 1680 07ea FE000000 		.4byte	0xfe
 1681 07ee FD070000 		.4byte	0x7fd
 1682 07f2 0E       		.uleb128 0xe
 1683 07f3 B5020000 		.4byte	0x2b5
 1684 07f7 0E       		.uleb128 0xe
 1685 07f8 6C000000 		.4byte	0x6c
 1686 07fc 00       		.byte	0
 1687 07fd 0B       		.uleb128 0xb
 1688 07fe 04       		.byte	0x4
 1689 07ff E9070000 		.4byte	0x7e9
 1690 0803 13       		.uleb128 0x13
 1691 0804 9D020000 		.4byte	0x29d
 1692 0808 13080000 		.4byte	0x813
 1693 080c 14       		.uleb128 0x14
 1694 080d 38000000 		.4byte	0x38
 1695 0811 26       		.byte	0x26
 1696 0812 00       		.byte	0
 1697 0813 0F       		.uleb128 0xf
 1698 0814 F7020000 		.4byte	.LASF115
 1699 0818 0E       		.byte	0xe
 1700 0819 82       		.byte	0x82
 1701 081a 08       		.byte	0x8
 1702 081b 03080000 		.4byte	0x803
 1703 081f 07       		.uleb128 0x7
 1704 0820 3E010000 		.4byte	.LASF116
 1705 0824 20       		.byte	0x20
 1706 0825 0F       		.byte	0xf
 1707 0826 FD       		.byte	0xfd
 1708 0827 08       		.byte	0x8
 1709 0828 9B080000 		.4byte	0x89b
 1710 082c 08       		.uleb128 0x8
ARM GAS  /tmp/cchBrCOm.s 			page 31


 1711 082d 5A030000 		.4byte	.LASF117
 1712 0831 0F       		.byte	0xf
 1713 0832 FE       		.byte	0xfe
 1714 0833 19       		.byte	0x19
 1715 0834 3F000000 		.4byte	0x3f
 1716 0838 00       		.byte	0
 1717 0839 08       		.uleb128 0x8
 1718 083a E9080000 		.4byte	.LASF118
 1719 083e 0F       		.byte	0xf
 1720 083f FF       		.byte	0xff
 1721 0840 19       		.byte	0x19
 1722 0841 3F000000 		.4byte	0x3f
 1723 0845 04       		.byte	0x4
 1724 0846 15       		.uleb128 0x15
 1725 0847 93090000 		.4byte	.LASF119
 1726 084b 0F       		.byte	0xf
 1727 084c 0001     		.2byte	0x100
 1728 084e 19       		.byte	0x19
 1729 084f 3F000000 		.4byte	0x3f
 1730 0853 08       		.byte	0x8
 1731 0854 15       		.uleb128 0x15
 1732 0855 8A030000 		.4byte	.LASF120
 1733 0859 0F       		.byte	0xf
 1734 085a 0101     		.2byte	0x101
 1735 085c 19       		.byte	0x19
 1736 085d 3F000000 		.4byte	0x3f
 1737 0861 0C       		.byte	0xc
 1738 0862 15       		.uleb128 0x15
 1739 0863 B1010000 		.4byte	.LASF121
 1740 0867 0F       		.byte	0xf
 1741 0868 0201     		.2byte	0x102
 1742 086a 19       		.byte	0x19
 1743 086b 3F000000 		.4byte	0x3f
 1744 086f 10       		.byte	0x10
 1745 0870 15       		.uleb128 0x15
 1746 0871 2D050000 		.4byte	.LASF122
 1747 0875 0F       		.byte	0xf
 1748 0876 0301     		.2byte	0x103
 1749 0878 19       		.byte	0x19
 1750 0879 3F000000 		.4byte	0x3f
 1751 087d 14       		.byte	0x14
 1752 087e 15       		.uleb128 0x15
 1753 087f 8F020000 		.4byte	.LASF123
 1754 0883 0F       		.byte	0xf
 1755 0884 0401     		.2byte	0x104
 1756 0886 19       		.byte	0x19
 1757 0887 3F000000 		.4byte	0x3f
 1758 088b 18       		.byte	0x18
 1759 088c 15       		.uleb128 0x15
 1760 088d F0090000 		.4byte	.LASF124
 1761 0891 0F       		.byte	0xf
 1762 0892 0501     		.2byte	0x105
 1763 0894 19       		.byte	0x19
 1764 0895 3F000000 		.4byte	0x3f
 1765 0899 1C       		.byte	0x1c
 1766 089a 00       		.byte	0
 1767 089b 16       		.uleb128 0x16
ARM GAS  /tmp/cchBrCOm.s 			page 32


 1768 089c 3E010000 		.4byte	.LASF116
 1769 08a0 0F       		.byte	0xf
 1770 08a1 0801     		.2byte	0x108
 1771 08a3 1C       		.byte	0x1c
 1772 08a4 1F080000 		.4byte	0x81f
 1773 08a8 12       		.uleb128 0x12
 1774 08a9 FE000000 		.4byte	0xfe
 1775 08ad C1080000 		.4byte	0x8c1
 1776 08b1 0E       		.uleb128 0xe
 1777 08b2 B5020000 		.4byte	0x2b5
 1778 08b6 0E       		.uleb128 0xe
 1779 08b7 6C000000 		.4byte	0x6c
 1780 08bb 0E       		.uleb128 0xe
 1781 08bc 22010000 		.4byte	0x122
 1782 08c0 00       		.byte	0
 1783 08c1 0B       		.uleb128 0xb
 1784 08c2 04       		.byte	0x4
 1785 08c3 A8080000 		.4byte	0x8a8
 1786 08c7 12       		.uleb128 0x12
 1787 08c8 FE000000 		.4byte	0xfe
 1788 08cc DB080000 		.4byte	0x8db
 1789 08d0 0E       		.uleb128 0xe
 1790 08d1 B5020000 		.4byte	0x2b5
 1791 08d5 0E       		.uleb128 0xe
 1792 08d6 22010000 		.4byte	0x122
 1793 08da 00       		.byte	0
 1794 08db 0B       		.uleb128 0xb
 1795 08dc 04       		.byte	0x4
 1796 08dd C7080000 		.4byte	0x8c7
 1797 08e1 12       		.uleb128 0x12
 1798 08e2 2C000000 		.4byte	0x2c
 1799 08e6 FF080000 		.4byte	0x8ff
 1800 08ea 0E       		.uleb128 0xe
 1801 08eb B5020000 		.4byte	0x2b5
 1802 08ef 0E       		.uleb128 0xe
 1803 08f0 BE070000 		.4byte	0x7be
 1804 08f4 0E       		.uleb128 0xe
 1805 08f5 2C000000 		.4byte	0x2c
 1806 08f9 0E       		.uleb128 0xe
 1807 08fa 22010000 		.4byte	0x122
 1808 08fe 00       		.byte	0
 1809 08ff 0B       		.uleb128 0xb
 1810 0900 04       		.byte	0x4
 1811 0901 E1080000 		.4byte	0x8e1
 1812 0905 12       		.uleb128 0x12
 1813 0906 2C000000 		.4byte	0x2c
 1814 090a 23090000 		.4byte	0x923
 1815 090e 0E       		.uleb128 0xe
 1816 090f B5020000 		.4byte	0x2b5
 1817 0913 0E       		.uleb128 0xe
 1818 0914 87070000 		.4byte	0x787
 1819 0918 0E       		.uleb128 0xe
 1820 0919 2C000000 		.4byte	0x2c
 1821 091d 0E       		.uleb128 0xe
 1822 091e 22010000 		.4byte	0x122
 1823 0922 00       		.byte	0
 1824 0923 0B       		.uleb128 0xb
ARM GAS  /tmp/cchBrCOm.s 			page 33


 1825 0924 04       		.byte	0x4
 1826 0925 05090000 		.4byte	0x905
 1827 0929 0A       		.uleb128 0xa
 1828 092a 18       		.byte	0x18
 1829 092b 10       		.byte	0x10
 1830 092c 2A       		.byte	0x2a
 1831 092d 09       		.byte	0x9
 1832 092e 81090000 		.4byte	0x981
 1833 0932 08       		.uleb128 0x8
 1834 0933 26090000 		.4byte	.LASF125
 1835 0937 10       		.byte	0x10
 1836 0938 2F       		.byte	0x2f
 1837 0939 15       		.byte	0x15
 1838 093a 97000000 		.4byte	0x97
 1839 093e 00       		.byte	0
 1840 093f 08       		.uleb128 0x8
 1841 0940 DE050000 		.4byte	.LASF126
 1842 0944 10       		.byte	0x10
 1843 0945 31       		.byte	0x31
 1844 0946 16       		.byte	0x16
 1845 0947 81090000 		.4byte	0x981
 1846 094b 04       		.byte	0x4
 1847 094c 08       		.uleb128 0x8
 1848 094d 81040000 		.4byte	.LASF127
 1849 0951 10       		.byte	0x10
 1850 0952 32       		.byte	0x32
 1851 0953 16       		.byte	0x16
 1852 0954 81090000 		.4byte	0x981
 1853 0958 08       		.byte	0x8
 1854 0959 08       		.uleb128 0x8
 1855 095a 11050000 		.4byte	.LASF128
 1856 095e 10       		.byte	0x10
 1857 095f 33       		.byte	0x33
 1858 0960 16       		.byte	0x16
 1859 0961 81090000 		.4byte	0x981
 1860 0965 0C       		.byte	0xc
 1861 0966 08       		.uleb128 0x8
 1862 0967 E4050000 		.4byte	.LASF129
 1863 096b 10       		.byte	0x10
 1864 096c 34       		.byte	0x34
 1865 096d 16       		.byte	0x16
 1866 096e 81090000 		.4byte	0x981
 1867 0972 10       		.byte	0x10
 1868 0973 08       		.uleb128 0x8
 1869 0974 D4060000 		.4byte	.LASF130
 1870 0978 10       		.byte	0x10
 1871 0979 35       		.byte	0x35
 1872 097a 10       		.byte	0x10
 1873 097b 38000000 		.4byte	0x38
 1874 097f 14       		.byte	0x14
 1875 0980 00       		.byte	0
 1876 0981 0B       		.uleb128 0xb
 1877 0982 04       		.byte	0x4
 1878 0983 A3000000 		.4byte	0xa3
 1879 0987 03       		.uleb128 0x3
 1880 0988 75040000 		.4byte	.LASF131
 1881 098c 10       		.byte	0x10
ARM GAS  /tmp/cchBrCOm.s 			page 34


 1882 098d 37       		.byte	0x37
 1883 098e 03       		.byte	0x3
 1884 098f 29090000 		.4byte	0x929
 1885 0993 17       		.uleb128 0x17
 1886 0994 00       		.byte	0
 1887 0995 10       		.byte	0x10
 1888 0996 43       		.byte	0x43
 1889 0997 09       		.byte	0x9
 1890 0998 03       		.uleb128 0x3
 1891 0999 B3090000 		.4byte	.LASF132
 1892 099d 10       		.byte	0x10
 1893 099e 45       		.byte	0x45
 1894 099f 03       		.byte	0x3
 1895 09a0 93090000 		.4byte	0x993
 1896 09a4 06       		.uleb128 0x6
 1897 09a5 98090000 		.4byte	0x998
 1898 09a9 0F       		.uleb128 0xf
 1899 09aa B0050000 		.4byte	.LASF133
 1900 09ae 10       		.byte	0x10
 1901 09af 6D       		.byte	0x6d
 1902 09b0 14       		.byte	0x14
 1903 09b1 87090000 		.4byte	0x987
 1904 09b5 0F       		.uleb128 0xf
 1905 09b6 EB060000 		.4byte	.LASF134
 1906 09ba 10       		.byte	0x10
 1907 09bb 6E       		.byte	0x6e
 1908 09bc 14       		.byte	0x14
 1909 09bd 87090000 		.4byte	0x987
 1910 09c1 0F       		.uleb128 0xf
 1911 09c2 C5090000 		.4byte	.LASF135
 1912 09c6 10       		.byte	0x10
 1913 09c7 75       		.byte	0x75
 1914 09c8 18       		.byte	0x18
 1915 09c9 A4090000 		.4byte	0x9a4
 1916 09cd 18       		.uleb128 0x18
 1917 09ce 07       		.byte	0x7
 1918 09cf 01       		.byte	0x1
 1919 09d0 7D000000 		.4byte	0x7d
 1920 09d4 11       		.byte	0x11
 1921 09d5 54       		.byte	0x54
 1922 09d6 0E       		.byte	0xe
 1923 09d7 000A0000 		.4byte	0xa00
 1924 09db 19       		.uleb128 0x19
 1925 09dc 52020000 		.4byte	.LASF136
 1926 09e0 00       		.byte	0
 1927 09e1 19       		.uleb128 0x19
 1928 09e2 24050000 		.4byte	.LASF137
 1929 09e6 01       		.byte	0x1
 1930 09e7 19       		.uleb128 0x19
 1931 09e8 38080000 		.4byte	.LASF138
 1932 09ec 02       		.byte	0x2
 1933 09ed 19       		.uleb128 0x19
 1934 09ee D5020000 		.4byte	.LASF139
 1935 09f2 03       		.byte	0x3
 1936 09f3 19       		.uleb128 0x19
 1937 09f4 D4070000 		.4byte	.LASF140
 1938 09f8 04       		.byte	0x4
ARM GAS  /tmp/cchBrCOm.s 			page 35


 1939 09f9 19       		.uleb128 0x19
 1940 09fa 2C070000 		.4byte	.LASF141
 1941 09fe 05       		.byte	0x5
 1942 09ff 00       		.byte	0
 1943 0a00 03       		.uleb128 0x3
 1944 0a01 0E060000 		.4byte	.LASF142
 1945 0a05 11       		.byte	0x11
 1946 0a06 5B       		.byte	0x5b
 1947 0a07 03       		.byte	0x3
 1948 0a08 CD090000 		.4byte	0x9cd
 1949 0a0c 03       		.uleb128 0x3
 1950 0a0d 42080000 		.4byte	.LASF143
 1951 0a11 12       		.byte	0x12
 1952 0a12 38       		.byte	0x38
 1953 0a13 1A       		.byte	0x1a
 1954 0a14 180A0000 		.4byte	0xa18
 1955 0a18 07       		.uleb128 0x7
 1956 0a19 42080000 		.4byte	.LASF143
 1957 0a1d 40       		.byte	0x40
 1958 0a1e 12       		.byte	0x12
 1959 0a1f 62       		.byte	0x62
 1960 0a20 08       		.byte	0x8
 1961 0a21 CF0A0000 		.4byte	0xacf
 1962 0a25 08       		.uleb128 0x8
 1963 0a26 67020000 		.4byte	.LASF144
 1964 0a2a 12       		.byte	0x12
 1965 0a2b 64       		.byte	0x64
 1966 0a2c 1D       		.byte	0x1d
 1967 0a2d 000A0000 		.4byte	0xa00
 1968 0a31 00       		.byte	0
 1969 0a32 08       		.uleb128 0x8
 1970 0a33 F9070000 		.4byte	.LASF145
 1971 0a37 12       		.byte	0x12
 1972 0a38 66       		.byte	0x66
 1973 0a39 1E       		.byte	0x1e
 1974 0a3a 0F0B0000 		.4byte	0xb0f
 1975 0a3e 04       		.byte	0x4
 1976 0a3f 08       		.uleb128 0x8
 1977 0a40 FB030000 		.4byte	.LASF146
 1978 0a44 12       		.byte	0x12
 1979 0a45 68       		.byte	0x68
 1980 0a46 1D       		.byte	0x1d
 1981 0a47 CF0A0000 		.4byte	0xacf
 1982 0a4b 08       		.byte	0x8
 1983 0a4c 08       		.uleb128 0x8
 1984 0a4d DB010000 		.4byte	.LASF147
 1985 0a51 12       		.byte	0x12
 1986 0a52 6A       		.byte	0x6a
 1987 0a53 1E       		.byte	0x1e
 1988 0a54 150B0000 		.4byte	0xb15
 1989 0a58 0C       		.byte	0xc
 1990 0a59 08       		.uleb128 0x8
 1991 0a5a 50060000 		.4byte	.LASF148
 1992 0a5e 12       		.byte	0x12
 1993 0a5f 6D       		.byte	0x6d
 1994 0a60 1D       		.byte	0x1d
 1995 0a61 D3040000 		.4byte	0x4d3
ARM GAS  /tmp/cchBrCOm.s 			page 36


 1996 0a65 10       		.byte	0x10
 1997 0a66 08       		.uleb128 0x8
 1998 0a67 88020000 		.4byte	.LASF149
 1999 0a6b 12       		.byte	0x12
 2000 0a6c 77       		.byte	0x77
 2001 0a6d 1E       		.byte	0x1e
 2002 0a6e 68020000 		.4byte	0x268
 2003 0a72 20       		.byte	0x20
 2004 0a73 08       		.uleb128 0x8
 2005 0a74 43020000 		.4byte	.LASF150
 2006 0a78 12       		.byte	0x12
 2007 0a79 7B       		.byte	0x7b
 2008 0a7a 1D       		.byte	0x1d
 2009 0a7b DB0A0000 		.4byte	0xadb
 2010 0a7f 24       		.byte	0x24
 2011 0a80 08       		.uleb128 0x8
 2012 0a81 D2030000 		.4byte	.LASF151
 2013 0a85 12       		.byte	0x12
 2014 0a86 7F       		.byte	0x7f
 2015 0a87 1E       		.byte	0x1e
 2016 0a88 BE070000 		.4byte	0x7be
 2017 0a8c 28       		.byte	0x28
 2018 0a8d 08       		.uleb128 0x8
 2019 0a8e E8090000 		.4byte	.LASF152
 2020 0a92 12       		.byte	0x12
 2021 0a93 83       		.byte	0x83
 2022 0a94 1D       		.byte	0x1d
 2023 0a95 2C000000 		.4byte	0x2c
 2024 0a99 2C       		.byte	0x2c
 2025 0a9a 08       		.uleb128 0x8
 2026 0a9b C4080000 		.4byte	.LASF153
 2027 0a9f 12       		.byte	0x12
 2028 0aa0 87       		.byte	0x87
 2029 0aa1 1D       		.byte	0x1d
 2030 0aa2 2C000000 		.4byte	0x2c
 2031 0aa6 30       		.byte	0x30
 2032 0aa7 08       		.uleb128 0x8
 2033 0aa8 4A010000 		.4byte	.LASF154
 2034 0aac 12       		.byte	0x12
 2035 0aad 8B       		.byte	0x8b
 2036 0aae 1E       		.byte	0x1e
 2037 0aaf 87070000 		.4byte	0x787
 2038 0ab3 34       		.byte	0x34
 2039 0ab4 08       		.uleb128 0x8
 2040 0ab5 85050000 		.4byte	.LASF155
 2041 0ab9 12       		.byte	0x12
 2042 0aba 8F       		.byte	0x8f
 2043 0abb 1D       		.byte	0x1d
 2044 0abc 2C000000 		.4byte	0x2c
 2045 0ac0 38       		.byte	0x38
 2046 0ac1 08       		.uleb128 0x8
 2047 0ac2 99020000 		.4byte	.LASF156
 2048 0ac6 12       		.byte	0x12
 2049 0ac7 93       		.byte	0x93
 2050 0ac8 1D       		.byte	0x1d
 2051 0ac9 2C000000 		.4byte	0x2c
 2052 0acd 3C       		.byte	0x3c
ARM GAS  /tmp/cchBrCOm.s 			page 37


 2053 0ace 00       		.byte	0
 2054 0acf 03       		.uleb128 0x3
 2055 0ad0 45060000 		.4byte	.LASF157
 2056 0ad4 12       		.byte	0x12
 2057 0ad5 42       		.byte	0x42
 2058 0ad6 12       		.byte	0x12
 2059 0ad7 97000000 		.4byte	0x97
 2060 0adb 03       		.uleb128 0x3
 2061 0adc 5D020000 		.4byte	.LASF158
 2062 0ae0 12       		.byte	0x12
 2063 0ae1 48       		.byte	0x48
 2064 0ae2 12       		.byte	0x12
 2065 0ae3 84000000 		.4byte	0x84
 2066 0ae7 0A       		.uleb128 0xa
 2067 0ae8 04       		.byte	0x4
 2068 0ae9 12       		.byte	0x12
 2069 0aea 57       		.byte	0x57
 2070 0aeb 09       		.byte	0x9
 2071 0aec FE0A0000 		.4byte	0xafe
 2072 0af0 08       		.uleb128 0x8
 2073 0af1 68050000 		.4byte	.LASF159
 2074 0af5 12       		.byte	0x12
 2075 0af6 59       		.byte	0x59
 2076 0af7 1D       		.byte	0x1d
 2077 0af8 97000000 		.4byte	0x97
 2078 0afc 00       		.byte	0
 2079 0afd 00       		.byte	0
 2080 0afe 03       		.uleb128 0x3
 2081 0aff B0080000 		.4byte	.LASF160
 2082 0b03 12       		.byte	0x12
 2083 0b04 5B       		.byte	0x5b
 2084 0b05 03       		.byte	0x3
 2085 0b06 E70A0000 		.4byte	0xae7
 2086 0b0a 06       		.uleb128 0x6
 2087 0b0b FE0A0000 		.4byte	0xafe
 2088 0b0f 0B       		.uleb128 0xb
 2089 0b10 04       		.byte	0x4
 2090 0b11 0A0B0000 		.4byte	0xb0a
 2091 0b15 0B       		.uleb128 0xb
 2092 0b16 04       		.byte	0x4
 2093 0b17 9B080000 		.4byte	0x89b
 2094 0b1b 0F       		.uleb128 0xf
 2095 0b1c AC030000 		.4byte	.LASF161
 2096 0b20 12       		.byte	0x12
 2097 0b21 A6       		.byte	0xa6
 2098 0b22 12       		.byte	0x12
 2099 0b23 0C0A0000 		.4byte	0xa0c
 2100 0b27 18       		.uleb128 0x18
 2101 0b28 07       		.byte	0x7
 2102 0b29 01       		.byte	0x1
 2103 0b2a 7D000000 		.4byte	0x7d
 2104 0b2e 13       		.byte	0x13
 2105 0b2f 5D       		.byte	0x5d
 2106 0b30 0E       		.byte	0xe
 2107 0b31 480B0000 		.4byte	0xb48
 2108 0b35 19       		.uleb128 0x19
 2109 0b36 42070000 		.4byte	.LASF162
ARM GAS  /tmp/cchBrCOm.s 			page 38


 2110 0b3a 00       		.byte	0
 2111 0b3b 19       		.uleb128 0x19
 2112 0b3c 2C020000 		.4byte	.LASF163
 2113 0b40 01       		.byte	0x1
 2114 0b41 19       		.uleb128 0x19
 2115 0b42 7F080000 		.4byte	.LASF164
 2116 0b46 02       		.byte	0x2
 2117 0b47 00       		.byte	0
 2118 0b48 03       		.uleb128 0x3
 2119 0b49 BA080000 		.4byte	.LASF165
 2120 0b4d 13       		.byte	0x13
 2121 0b4e 61       		.byte	0x61
 2122 0b4f 03       		.byte	0x3
 2123 0b50 270B0000 		.4byte	0xb27
 2124 0b54 03       		.uleb128 0x3
 2125 0b55 CE010000 		.4byte	.LASF166
 2126 0b59 13       		.byte	0x13
 2127 0b5a 66       		.byte	0x66
 2128 0b5b 1D       		.byte	0x1d
 2129 0b5c 600B0000 		.4byte	0xb60
 2130 0b60 07       		.uleb128 0x7
 2131 0b61 CE010000 		.4byte	.LASF166
 2132 0b65 74       		.byte	0x74
 2133 0b66 13       		.byte	0x13
 2134 0b67 80       		.byte	0x80
 2135 0b68 08       		.byte	0x8
 2136 0b69 C70B0000 		.4byte	0xbc7
 2137 0b6d 09       		.uleb128 0x9
 2138 0b6e 766D7400 		.ascii	"vmt\000"
 2139 0b72 13       		.byte	0x13
 2140 0b73 82       		.byte	0x82
 2141 0b74 21       		.byte	0x21
 2142 0b75 760C0000 		.4byte	0xc76
 2143 0b79 00       		.byte	0
 2144 0b7a 08       		.uleb128 0x8
 2145 0b7b 54040000 		.4byte	.LASF167
 2146 0b7f 13       		.byte	0x13
 2147 0b80 83       		.byte	0x83
 2148 0b81 03       		.byte	0x3
 2149 0b82 4E050000 		.4byte	0x54e
 2150 0b86 04       		.byte	0x4
 2151 0b87 08       		.uleb128 0x8
 2152 0b88 67020000 		.4byte	.LASF144
 2153 0b8c 13       		.byte	0x13
 2154 0b8d 83       		.byte	0x83
 2155 0b8e 03       		.byte	0x3
 2156 0b8f 480B0000 		.4byte	0xb48
 2157 0b93 08       		.byte	0x8
 2158 0b94 08       		.uleb128 0x8
 2159 0b95 02040000 		.4byte	.LASF168
 2160 0b99 13       		.byte	0x13
 2161 0b9a 83       		.byte	0x83
 2162 0b9b 03       		.byte	0x3
 2163 0b9c 8D070000 		.4byte	0x78d
 2164 0ba0 0C       		.byte	0xc
 2165 0ba1 08       		.uleb128 0x8
 2166 0ba2 8D040000 		.4byte	.LASF169
ARM GAS  /tmp/cchBrCOm.s 			page 39


 2167 0ba6 13       		.byte	0x13
 2168 0ba7 83       		.byte	0x83
 2169 0ba8 03       		.byte	0x3
 2170 0ba9 99070000 		.4byte	0x799
 2171 0bad 30       		.byte	0x30
 2172 0bae 09       		.uleb128 0x9
 2173 0baf 696200   		.ascii	"ib\000"
 2174 0bb2 13       		.byte	0x13
 2175 0bb3 83       		.byte	0x83
 2176 0bb4 03       		.byte	0x3
 2177 0bb5 7C0C0000 		.4byte	0xc7c
 2178 0bb9 54       		.byte	0x54
 2179 0bba 09       		.uleb128 0x9
 2180 0bbb 6F6200   		.ascii	"ob\000"
 2181 0bbe 13       		.byte	0x13
 2182 0bbf 83       		.byte	0x83
 2183 0bc0 03       		.byte	0x3
 2184 0bc1 7C0C0000 		.4byte	0xc7c
 2185 0bc5 64       		.byte	0x64
 2186 0bc6 00       		.byte	0
 2187 0bc7 0A       		.uleb128 0xa
 2188 0bc8 04       		.byte	0x4
 2189 0bc9 14       		.byte	0x14
 2190 0bca 42       		.byte	0x42
 2191 0bcb 09       		.byte	0x9
 2192 0bcc DE0B0000 		.4byte	0xbde
 2193 0bd0 08       		.uleb128 0x8
 2194 0bd1 1C000000 		.4byte	.LASF170
 2195 0bd5 14       		.byte	0x14
 2196 0bd6 44       		.byte	0x44
 2197 0bd7 1C       		.byte	0x1c
 2198 0bd8 97000000 		.4byte	0x97
 2199 0bdc 00       		.byte	0
 2200 0bdd 00       		.byte	0
 2201 0bde 03       		.uleb128 0x3
 2202 0bdf CA080000 		.4byte	.LASF171
 2203 0be3 14       		.byte	0x14
 2204 0be4 45       		.byte	0x45
 2205 0be5 03       		.byte	0x3
 2206 0be6 C70B0000 		.4byte	0xbc7
 2207 0bea 06       		.uleb128 0x6
 2208 0beb DE0B0000 		.4byte	0xbde
 2209 0bef 1A       		.uleb128 0x1a
 2210 0bf0 53443100 		.ascii	"SD1\000"
 2211 0bf4 14       		.byte	0x14
 2212 0bf5 62       		.byte	0x62
 2213 0bf6 15       		.byte	0x15
 2214 0bf7 540B0000 		.4byte	0xb54
 2215 0bfb 07       		.uleb128 0x7
 2216 0bfc D8030000 		.4byte	.LASF172
 2217 0c00 20       		.byte	0x20
 2218 0c01 13       		.byte	0x13
 2219 0c02 75       		.byte	0x75
 2220 0c03 08       		.byte	0x8
 2221 0c04 710C0000 		.4byte	0xc71
 2222 0c08 08       		.uleb128 0x8
 2223 0c09 0A010000 		.4byte	.LASF173
ARM GAS  /tmp/cchBrCOm.s 			page 40


 2224 0c0d 13       		.byte	0x13
 2225 0c0e 76       		.byte	0x76
 2226 0c0f 03       		.byte	0x3
 2227 0c10 C4070000 		.4byte	0x7c4
 2228 0c14 00       		.byte	0
 2229 0c15 08       		.uleb128 0x8
 2230 0c16 E2070000 		.4byte	.LASF174
 2231 0c1a 13       		.byte	0x13
 2232 0c1b 76       		.byte	0x76
 2233 0c1c 03       		.byte	0x3
 2234 0c1d E3070000 		.4byte	0x7e3
 2235 0c21 04       		.byte	0x4
 2236 0c22 09       		.uleb128 0x9
 2237 0c23 70757400 		.ascii	"put\000"
 2238 0c27 13       		.byte	0x13
 2239 0c28 76       		.byte	0x76
 2240 0c29 03       		.byte	0x3
 2241 0c2a FD070000 		.4byte	0x7fd
 2242 0c2e 08       		.byte	0x8
 2243 0c2f 09       		.uleb128 0x9
 2244 0c30 67657400 		.ascii	"get\000"
 2245 0c34 13       		.byte	0x13
 2246 0c35 76       		.byte	0x76
 2247 0c36 03       		.byte	0x3
 2248 0c37 AC050000 		.4byte	0x5ac
 2249 0c3b 0C       		.byte	0xc
 2250 0c3c 08       		.uleb128 0x8
 2251 0c3d 17050000 		.4byte	.LASF175
 2252 0c41 13       		.byte	0x13
 2253 0c42 76       		.byte	0x76
 2254 0c43 03       		.byte	0x3
 2255 0c44 C1080000 		.4byte	0x8c1
 2256 0c48 10       		.byte	0x10
 2257 0c49 08       		.uleb128 0x8
 2258 0c4a 2C040000 		.4byte	.LASF176
 2259 0c4e 13       		.byte	0x13
 2260 0c4f 76       		.byte	0x76
 2261 0c50 03       		.byte	0x3
 2262 0c51 DB080000 		.4byte	0x8db
 2263 0c55 14       		.byte	0x14
 2264 0c56 08       		.uleb128 0x8
 2265 0c57 9C040000 		.4byte	.LASF177
 2266 0c5b 13       		.byte	0x13
 2267 0c5c 76       		.byte	0x76
 2268 0c5d 03       		.byte	0x3
 2269 0c5e FF080000 		.4byte	0x8ff
 2270 0c62 18       		.byte	0x18
 2271 0c63 08       		.uleb128 0x8
 2272 0c64 20090000 		.4byte	.LASF178
 2273 0c68 13       		.byte	0x13
 2274 0c69 76       		.byte	0x76
 2275 0c6a 03       		.byte	0x3
 2276 0c6b 23090000 		.4byte	0x923
 2277 0c6f 1C       		.byte	0x1c
 2278 0c70 00       		.byte	0
 2279 0c71 06       		.uleb128 0x6
 2280 0c72 FB0B0000 		.4byte	0xbfb
ARM GAS  /tmp/cchBrCOm.s 			page 41


 2281 0c76 0B       		.uleb128 0xb
 2282 0c77 04       		.byte	0x4
 2283 0c78 710C0000 		.4byte	0xc71
 2284 0c7c 13       		.uleb128 0x13
 2285 0c7d 6C000000 		.4byte	0x6c
 2286 0c81 8C0C0000 		.4byte	0xc8c
 2287 0c85 14       		.uleb128 0x14
 2288 0c86 38000000 		.4byte	0x38
 2289 0c8a 0F       		.byte	0xf
 2290 0c8b 00       		.byte	0
 2291 0c8c 18       		.uleb128 0x18
 2292 0c8d 07       		.byte	0x7
 2293 0c8e 01       		.byte	0x1
 2294 0c8f 7D000000 		.4byte	0x7d
 2295 0c93 15       		.byte	0x15
 2296 0c94 4E       		.byte	0x4e
 2297 0c95 0E       		.byte	0xe
 2298 0c96 B90C0000 		.4byte	0xcb9
 2299 0c9a 19       		.uleb128 0x19
 2300 0c9b 92080000 		.4byte	.LASF179
 2301 0c9f 00       		.byte	0
 2302 0ca0 19       		.uleb128 0x19
 2303 0ca1 16020000 		.4byte	.LASF180
 2304 0ca5 01       		.byte	0x1
 2305 0ca6 19       		.uleb128 0x19
 2306 0ca7 88080000 		.4byte	.LASF181
 2307 0cab 02       		.byte	0x2
 2308 0cac 19       		.uleb128 0x19
 2309 0cad 1C010000 		.4byte	.LASF182
 2310 0cb1 03       		.byte	0x3
 2311 0cb2 19       		.uleb128 0x19
 2312 0cb3 EC070000 		.4byte	.LASF183
 2313 0cb7 04       		.byte	0x4
 2314 0cb8 00       		.byte	0
 2315 0cb9 03       		.uleb128 0x3
 2316 0cba 08080000 		.4byte	.LASF184
 2317 0cbe 15       		.byte	0x15
 2318 0cbf 54       		.byte	0x54
 2319 0cc0 03       		.byte	0x3
 2320 0cc1 8C0C0000 		.4byte	0xc8c
 2321 0cc5 03       		.uleb128 0x3
 2322 0cc6 A7010000 		.4byte	.LASF185
 2323 0cca 16       		.byte	0x16
 2324 0ccb 35       		.byte	0x35
 2325 0ccc 1A       		.byte	0x1a
 2326 0ccd D10C0000 		.4byte	0xcd1
 2327 0cd1 07       		.uleb128 0x7
 2328 0cd2 A7010000 		.4byte	.LASF185
 2329 0cd6 28       		.byte	0x28
 2330 0cd7 16       		.byte	0x16
 2331 0cd8 7C       		.byte	0x7c
 2332 0cd9 08       		.byte	0x8
 2333 0cda 3A0D0000 		.4byte	0xd3a
 2334 0cde 08       		.uleb128 0x8
 2335 0cdf 67020000 		.4byte	.LASF144
 2336 0ce3 16       		.byte	0x16
 2337 0ce4 80       		.byte	0x80
ARM GAS  /tmp/cchBrCOm.s 			page 42


 2338 0ce5 19       		.byte	0x19
 2339 0ce6 B90C0000 		.4byte	0xcb9
 2340 0cea 00       		.byte	0
 2341 0ceb 08       		.uleb128 0x8
 2342 0cec F9070000 		.4byte	.LASF145
 2343 0cf0 16       		.byte	0x16
 2344 0cf1 84       		.byte	0x84
 2345 0cf2 1A       		.byte	0x1a
 2346 0cf3 ED0D0000 		.4byte	0xded
 2347 0cf7 04       		.byte	0x4
 2348 0cf8 08       		.uleb128 0x8
 2349 0cf9 88020000 		.4byte	.LASF149
 2350 0cfd 16       		.byte	0x16
 2351 0cfe 89       		.byte	0x89
 2352 0cff 1A       		.byte	0x1a
 2353 0d00 68020000 		.4byte	0x268
 2354 0d04 08       		.byte	0x8
 2355 0d05 08       		.uleb128 0x8
 2356 0d06 50060000 		.4byte	.LASF148
 2357 0d0a 16       		.byte	0x16
 2358 0d0b 90       		.byte	0x90
 2359 0d0c 19       		.byte	0x19
 2360 0d0d D3040000 		.4byte	0x4d3
 2361 0d11 0C       		.byte	0xc
 2362 0d12 08       		.uleb128 0x8
 2363 0d13 4A010000 		.4byte	.LASF154
 2364 0d17 16       		.byte	0x16
 2365 0d18 98       		.byte	0x98
 2366 0d19 1A       		.byte	0x1a
 2367 0d1a B5020000 		.4byte	0x2b5
 2368 0d1e 1C       		.byte	0x1c
 2369 0d1f 08       		.uleb128 0x8
 2370 0d20 D2030000 		.4byte	.LASF151
 2371 0d24 16       		.byte	0x16
 2372 0d25 9D       		.byte	0x9d
 2373 0d26 1A       		.byte	0x1a
 2374 0d27 F30D0000 		.4byte	0xdf3
 2375 0d2b 20       		.byte	0x20
 2376 0d2c 08       		.uleb128 0x8
 2377 0d2d 17030000 		.4byte	.LASF186
 2378 0d31 16       		.byte	0x16
 2379 0d32 A2       		.byte	0xa2
 2380 0d33 17       		.byte	0x17
 2381 0d34 2C000000 		.4byte	0x2c
 2382 0d38 24       		.byte	0x24
 2383 0d39 00       		.byte	0
 2384 0d3a 03       		.uleb128 0x3
 2385 0d3b 9E030000 		.4byte	.LASF187
 2386 0d3f 16       		.byte	0x16
 2387 0d40 3D       		.byte	0x3d
 2388 0d41 10       		.byte	0x10
 2389 0d42 460D0000 		.4byte	0xd46
 2390 0d46 0B       		.uleb128 0xb
 2391 0d47 04       		.byte	0x4
 2392 0d48 4C0D0000 		.4byte	0xd4c
 2393 0d4c 0D       		.uleb128 0xd
 2394 0d4d 570D0000 		.4byte	0xd57
ARM GAS  /tmp/cchBrCOm.s 			page 43


 2395 0d51 0E       		.uleb128 0xe
 2396 0d52 570D0000 		.4byte	0xd57
 2397 0d56 00       		.byte	0
 2398 0d57 0B       		.uleb128 0xb
 2399 0d58 04       		.byte	0x4
 2400 0d59 C50C0000 		.4byte	0xcc5
 2401 0d5d 0A       		.uleb128 0xa
 2402 0d5e 10       		.byte	0x10
 2403 0d5f 16       		.byte	0x16
 2404 0d60 44       		.byte	0x44
 2405 0d61 09       		.byte	0x9
 2406 0d62 DC0D0000 		.4byte	0xddc
 2407 0d66 08       		.uleb128 0x8
 2408 0d67 07030000 		.4byte	.LASF188
 2409 0d6b 16       		.byte	0x16
 2410 0d6c 48       		.byte	0x48
 2411 0d6d 19       		.byte	0x19
 2412 0d6e 3A0D0000 		.4byte	0xd3a
 2413 0d72 00       		.byte	0
 2414 0d73 08       		.uleb128 0x8
 2415 0d74 ED050000 		.4byte	.LASF189
 2416 0d78 16       		.byte	0x16
 2417 0d79 4F       		.byte	0x4f
 2418 0d7a 19       		.byte	0x19
 2419 0d7b 6C000000 		.4byte	0x6c
 2420 0d7f 04       		.byte	0x4
 2421 0d80 08       		.uleb128 0x8
 2422 0d81 FA050000 		.4byte	.LASF190
 2423 0d85 16       		.byte	0x16
 2424 0d86 52       		.byte	0x52
 2425 0d87 19       		.byte	0x19
 2426 0d88 6C000000 		.4byte	0x6c
 2427 0d8c 05       		.byte	0x5
 2428 0d8d 08       		.uleb128 0x8
 2429 0d8e 3F040000 		.4byte	.LASF191
 2430 0d92 16       		.byte	0x16
 2431 0d93 58       		.byte	0x58
 2432 0d94 19       		.byte	0x19
 2433 0d95 6C000000 		.4byte	0x6c
 2434 0d99 06       		.byte	0x6
 2435 0d9a 08       		.uleb128 0x8
 2436 0d9b 1D030000 		.4byte	.LASF192
 2437 0d9f 16       		.byte	0x16
 2438 0da0 5E       		.byte	0x5e
 2439 0da1 19       		.byte	0x19
 2440 0da2 6C000000 		.4byte	0x6c
 2441 0da6 07       		.byte	0x7
 2442 0da7 08       		.uleb128 0x8
 2443 0da8 33030000 		.4byte	.LASF193
 2444 0dac 16       		.byte	0x16
 2445 0dad 64       		.byte	0x64
 2446 0dae 19       		.byte	0x19
 2447 0daf 6C000000 		.4byte	0x6c
 2448 0db3 08       		.byte	0x8
 2449 0db4 08       		.uleb128 0x8
 2450 0db5 5E080000 		.4byte	.LASF194
 2451 0db9 16       		.byte	0x16
ARM GAS  /tmp/cchBrCOm.s 			page 44


 2452 0dba 6A       		.byte	0x6a
 2453 0dbb 19       		.byte	0x19
 2454 0dbc 6C000000 		.4byte	0x6c
 2455 0dc0 09       		.byte	0x9
 2456 0dc1 08       		.uleb128 0x8
 2457 0dc2 E3020000 		.4byte	.LASF195
 2458 0dc6 16       		.byte	0x16
 2459 0dc7 70       		.byte	0x70
 2460 0dc8 19       		.byte	0x19
 2461 0dc9 6C000000 		.4byte	0x6c
 2462 0dcd 0A       		.byte	0xa
 2463 0dce 08       		.uleb128 0x8
 2464 0dcf 11070000 		.4byte	.LASF196
 2465 0dd3 16       		.byte	0x16
 2466 0dd4 73       		.byte	0x73
 2467 0dd5 19       		.byte	0x19
 2468 0dd6 97000000 		.4byte	0x97
 2469 0dda 0C       		.byte	0xc
 2470 0ddb 00       		.byte	0
 2471 0ddc 03       		.uleb128 0x3
 2472 0ddd 72090000 		.4byte	.LASF197
 2473 0de1 16       		.byte	0x16
 2474 0de2 75       		.byte	0x75
 2475 0de3 03       		.byte	0x3
 2476 0de4 5D0D0000 		.4byte	0xd5d
 2477 0de8 06       		.uleb128 0x6
 2478 0de9 DC0D0000 		.4byte	0xddc
 2479 0ded 0B       		.uleb128 0xb
 2480 0dee 04       		.byte	0x4
 2481 0def E80D0000 		.4byte	0xde8
 2482 0df3 0B       		.uleb128 0xb
 2483 0df4 04       		.byte	0x4
 2484 0df5 F90D0000 		.4byte	0xdf9
 2485 0df9 1B       		.uleb128 0x1b
 2486 0dfa 0F       		.uleb128 0xf
 2487 0dfb B1020000 		.4byte	.LASF198
 2488 0dff 16       		.byte	0x16
 2489 0e00 B6       		.byte	0xb6
 2490 0e01 14       		.byte	0x14
 2491 0e02 C50C0000 		.4byte	0xcc5
 2492 0e06 1C       		.uleb128 0x1c
 2493 0e07 766D7400 		.ascii	"vmt\000"
 2494 0e0b 01       		.byte	0x1
 2495 0e0c 61       		.byte	0x61
 2496 0e0d 25       		.byte	0x25
 2497 0e0e 710C0000 		.4byte	0xc71
 2498 0e12 05       		.uleb128 0x5
 2499 0e13 03       		.byte	0x3
 2500 0e14 00000000 		.4byte	vmt
 2501 0e18 1D       		.uleb128 0x1d
 2502 0e19 09090000 		.4byte	.LASF226
 2503 0e1d 01       		.byte	0x1
 2504 0e1e E8       		.byte	0xe8
 2505 0e1f 07       		.byte	0x7
 2506 0e20 FE000000 		.4byte	0xfe
 2507 0e24 00000000 		.4byte	.LFB20
 2508 0e28 34000000 		.4byte	.LFE20-.LFB20
ARM GAS  /tmp/cchBrCOm.s 			page 45


 2509 0e2c 01       		.uleb128 0x1
 2510 0e2d 9C       		.byte	0x9c
 2511 0e2e 820E0000 		.4byte	0xe82
 2512 0e32 1E       		.uleb128 0x1e
 2513 0e33 73647000 		.ascii	"sdp\000"
 2514 0e37 01       		.byte	0x1
 2515 0e38 E8       		.byte	0xe8
 2516 0e39 24       		.byte	0x24
 2517 0e3a 820E0000 		.4byte	0xe82
 2518 0e3e 04000000 		.4byte	.LLST30
 2519 0e42 00000000 		.4byte	.LVUS30
 2520 0e46 1F       		.uleb128 0x1f
 2521 0e47 6200     		.ascii	"b\000"
 2522 0e49 01       		.byte	0x1
 2523 0e4a E9       		.byte	0xe9
 2524 0e4b 0A       		.byte	0xa
 2525 0e4c FE000000 		.4byte	0xfe
 2526 0e50 24000000 		.4byte	.LLST31
 2527 0e54 22000000 		.4byte	.LVUS31
 2528 0e58 20       		.uleb128 0x20
 2529 0e59 10000000 		.4byte	.LVL49
 2530 0e5d 1C140000 		.4byte	0x141c
 2531 0e61 6C0E0000 		.4byte	0xe6c
 2532 0e65 21       		.uleb128 0x21
 2533 0e66 01       		.uleb128 0x1
 2534 0e67 50       		.byte	0x50
 2535 0e68 02       		.uleb128 0x2
 2536 0e69 75       		.byte	0x75
 2537 0e6a 30       		.sleb128 48
 2538 0e6b 00       		.byte	0
 2539 0e6c 22       		.uleb128 0x22
 2540 0e6d 2C000000 		.4byte	.LVL50
 2541 0e71 29140000 		.4byte	0x1429
 2542 0e75 21       		.uleb128 0x21
 2543 0e76 01       		.uleb128 0x1
 2544 0e77 50       		.byte	0x50
 2545 0e78 02       		.uleb128 0x2
 2546 0e79 75       		.byte	0x75
 2547 0e7a 04       		.sleb128 4
 2548 0e7b 21       		.uleb128 0x21
 2549 0e7c 01       		.uleb128 0x1
 2550 0e7d 51       		.byte	0x51
 2551 0e7e 01       		.uleb128 0x1
 2552 0e7f 38       		.byte	0x38
 2553 0e80 00       		.byte	0
 2554 0e81 00       		.byte	0
 2555 0e82 0B       		.uleb128 0xb
 2556 0e83 04       		.byte	0x4
 2557 0e84 540B0000 		.4byte	0xb54
 2558 0e88 23       		.uleb128 0x23
 2559 0e89 58050000 		.4byte	.LASF199
 2560 0e8d 01       		.byte	0x1
 2561 0e8e CE       		.byte	0xce
 2562 0e8f 06       		.byte	0x6
 2563 0e90 00000000 		.4byte	.LFB19
 2564 0e94 4C000000 		.4byte	.LFE19-.LFB19
 2565 0e98 01       		.uleb128 0x1
ARM GAS  /tmp/cchBrCOm.s 			page 46


 2566 0e99 9C       		.byte	0x9c
 2567 0e9a 110F0000 		.4byte	0xf11
 2568 0e9e 1E       		.uleb128 0x1e
 2569 0e9f 73647000 		.ascii	"sdp\000"
 2570 0ea3 01       		.byte	0x1
 2571 0ea4 CE       		.byte	0xce
 2572 0ea5 24       		.byte	0x24
 2573 0ea6 820E0000 		.4byte	0xe82
 2574 0eaa 43000000 		.4byte	.LLST28
 2575 0eae 37000000 		.4byte	.LVUS28
 2576 0eb2 1E       		.uleb128 0x1e
 2577 0eb3 6200     		.ascii	"b\000"
 2578 0eb5 01       		.byte	0x1
 2579 0eb6 CE       		.byte	0xce
 2580 0eb7 31       		.byte	0x31
 2581 0eb8 6C000000 		.4byte	0x6c
 2582 0ebc 9A000000 		.4byte	.LLST29
 2583 0ec0 92000000 		.4byte	.LVUS29
 2584 0ec4 20       		.uleb128 0x20
 2585 0ec5 24000000 		.4byte	.LVL41
 2586 0ec9 35140000 		.4byte	0x1435
 2587 0ecd DE0E0000 		.4byte	0xede
 2588 0ed1 21       		.uleb128 0x21
 2589 0ed2 01       		.uleb128 0x1
 2590 0ed3 50       		.byte	0x50
 2591 0ed4 02       		.uleb128 0x2
 2592 0ed5 74       		.byte	0x74
 2593 0ed6 0C       		.sleb128 12
 2594 0ed7 21       		.uleb128 0x21
 2595 0ed8 01       		.uleb128 0x1
 2596 0ed9 51       		.byte	0x51
 2597 0eda 02       		.uleb128 0x2
 2598 0edb 75       		.byte	0x75
 2599 0edc 00       		.sleb128 0
 2600 0edd 00       		.byte	0
 2601 0ede 24       		.uleb128 0x24
 2602 0edf 3C000000 		.4byte	.LVL43
 2603 0ee3 29140000 		.4byte	0x1429
 2604 0ee7 FB0E0000 		.4byte	0xefb
 2605 0eeb 21       		.uleb128 0x21
 2606 0eec 01       		.uleb128 0x1
 2607 0eed 50       		.byte	0x50
 2608 0eee 05       		.uleb128 0x5
 2609 0eef F3       		.byte	0xf3
 2610 0ef0 01       		.uleb128 0x1
 2611 0ef1 50       		.byte	0x50
 2612 0ef2 23       		.byte	0x23
 2613 0ef3 04       		.uleb128 0x4
 2614 0ef4 21       		.uleb128 0x21
 2615 0ef5 01       		.uleb128 0x1
 2616 0ef6 51       		.byte	0x51
 2617 0ef7 02       		.uleb128 0x2
 2618 0ef8 08       		.byte	0x8
 2619 0ef9 80       		.byte	0x80
 2620 0efa 00       		.byte	0
 2621 0efb 22       		.uleb128 0x22
 2622 0efc 48000000 		.4byte	.LVL46
ARM GAS  /tmp/cchBrCOm.s 			page 47


 2623 0f00 29140000 		.4byte	0x1429
 2624 0f04 21       		.uleb128 0x21
 2625 0f05 01       		.uleb128 0x1
 2626 0f06 50       		.byte	0x50
 2627 0f07 02       		.uleb128 0x2
 2628 0f08 74       		.byte	0x74
 2629 0f09 04       		.sleb128 4
 2630 0f0a 21       		.uleb128 0x21
 2631 0f0b 01       		.uleb128 0x1
 2632 0f0c 51       		.byte	0x51
 2633 0f0d 01       		.uleb128 0x1
 2634 0f0e 34       		.byte	0x34
 2635 0f0f 00       		.byte	0
 2636 0f10 00       		.byte	0
 2637 0f11 23       		.uleb128 0x23
 2638 0f12 B8050000 		.4byte	.LASF200
 2639 0f16 01       		.byte	0x1
 2640 0f17 AE       		.byte	0xae
 2641 0f18 06       		.byte	0x6
 2642 0f19 00000000 		.4byte	.LFB18
 2643 0f1d 34000000 		.4byte	.LFE18-.LFB18
 2644 0f21 01       		.uleb128 0x1
 2645 0f22 9C       		.byte	0x9c
 2646 0f23 810F0000 		.4byte	0xf81
 2647 0f27 1E       		.uleb128 0x1e
 2648 0f28 73647000 		.ascii	"sdp\000"
 2649 0f2c 01       		.byte	0x1
 2650 0f2d AE       		.byte	0xae
 2651 0f2e 1B       		.byte	0x1b
 2652 0f2f 820E0000 		.4byte	0xe82
 2653 0f33 D8000000 		.4byte	.LLST27
 2654 0f37 D4000000 		.4byte	.LVUS27
 2655 0f3b 20       		.uleb128 0x20
 2656 0f3c 10000000 		.4byte	.LVL35
 2657 0f40 42140000 		.4byte	0x1442
 2658 0f44 4F0F0000 		.4byte	0xf4f
 2659 0f48 21       		.uleb128 0x21
 2660 0f49 01       		.uleb128 0x1
 2661 0f4a 50       		.byte	0x50
 2662 0f4b 02       		.uleb128 0x2
 2663 0f4c 74       		.byte	0x74
 2664 0f4d 00       		.sleb128 0
 2665 0f4e 00       		.byte	0
 2666 0f4f 20       		.uleb128 0x20
 2667 0f50 20000000 		.4byte	.LVL36
 2668 0f54 4E140000 		.4byte	0x144e
 2669 0f58 630F0000 		.4byte	0xf63
 2670 0f5c 21       		.uleb128 0x21
 2671 0f5d 01       		.uleb128 0x1
 2672 0f5e 50       		.byte	0x50
 2673 0f5f 02       		.uleb128 0x2
 2674 0f60 74       		.byte	0x74
 2675 0f61 30       		.sleb128 48
 2676 0f62 00       		.byte	0
 2677 0f63 20       		.uleb128 0x20
 2678 0f64 28000000 		.4byte	.LVL37
 2679 0f68 5B140000 		.4byte	0x145b
ARM GAS  /tmp/cchBrCOm.s 			page 48


 2680 0f6c 770F0000 		.4byte	0xf77
 2681 0f70 21       		.uleb128 0x21
 2682 0f71 01       		.uleb128 0x1
 2683 0f72 50       		.byte	0x50
 2684 0f73 02       		.uleb128 0x2
 2685 0f74 74       		.byte	0x74
 2686 0f75 0C       		.sleb128 12
 2687 0f76 00       		.byte	0
 2688 0f77 25       		.uleb128 0x25
 2689 0f78 2C000000 		.4byte	.LVL38
 2690 0f7c 68140000 		.4byte	0x1468
 2691 0f80 00       		.byte	0
 2692 0f81 23       		.uleb128 0x23
 2693 0f82 00080000 		.4byte	.LASF201
 2694 0f86 01       		.byte	0x1
 2695 0f87 98       		.byte	0x98
 2696 0f88 06       		.byte	0x6
 2697 0f89 00000000 		.4byte	.LFB17
 2698 0f8d 20000000 		.4byte	.LFE17-.LFB17
 2699 0f91 01       		.uleb128 0x1
 2700 0f92 9C       		.byte	0x9c
 2701 0f93 D70F0000 		.4byte	0xfd7
 2702 0f97 1E       		.uleb128 0x1e
 2703 0f98 73647000 		.ascii	"sdp\000"
 2704 0f9c 01       		.byte	0x1
 2705 0f9d 98       		.byte	0x98
 2706 0f9e 1C       		.byte	0x1c
 2707 0f9f 820E0000 		.4byte	0xe82
 2708 0fa3 FA000000 		.4byte	.LLST25
 2709 0fa7 F6000000 		.4byte	.LVUS25
 2710 0fab 26       		.uleb128 0x26
 2711 0fac F9070000 		.4byte	.LASF145
 2712 0fb0 01       		.byte	0x1
 2713 0fb1 98       		.byte	0x98
 2714 0fb2 35       		.byte	0x35
 2715 0fb3 D70F0000 		.4byte	0xfd7
 2716 0fb7 1C010000 		.4byte	.LLST26
 2717 0fbb 18010000 		.4byte	.LVUS26
 2718 0fbf 22       		.uleb128 0x22
 2719 0fc0 10000000 		.4byte	.LVL33
 2720 0fc4 74140000 		.4byte	0x1474
 2721 0fc8 21       		.uleb128 0x21
 2722 0fc9 01       		.uleb128 0x1
 2723 0fca 50       		.byte	0x50
 2724 0fcb 02       		.uleb128 0x2
 2725 0fcc 74       		.byte	0x74
 2726 0fcd 00       		.sleb128 0
 2727 0fce 21       		.uleb128 0x21
 2728 0fcf 01       		.uleb128 0x1
 2729 0fd0 51       		.byte	0x51
 2730 0fd1 03       		.uleb128 0x3
 2731 0fd2 F3       		.byte	0xf3
 2732 0fd3 01       		.uleb128 0x1
 2733 0fd4 51       		.byte	0x51
 2734 0fd5 00       		.byte	0
 2735 0fd6 00       		.byte	0
 2736 0fd7 0B       		.uleb128 0xb
ARM GAS  /tmp/cchBrCOm.s 			page 49


 2737 0fd8 04       		.byte	0x4
 2738 0fd9 EA0B0000 		.4byte	0xbea
 2739 0fdd 23       		.uleb128 0x23
 2740 0fde C0060000 		.4byte	.LASF202
 2741 0fe2 01       		.byte	0x1
 2742 0fe3 85       		.byte	0x85
 2743 0fe4 06       		.byte	0x6
 2744 0fe5 00000000 		.4byte	.LFB16
 2745 0fe9 60000000 		.4byte	.LFE16-.LFB16
 2746 0fed 01       		.uleb128 0x1
 2747 0fee 9C       		.byte	0x9c
 2748 0fef 80100000 		.4byte	0x1080
 2749 0ff3 1E       		.uleb128 0x1e
 2750 0ff4 73647000 		.ascii	"sdp\000"
 2751 0ff8 01       		.byte	0x1
 2752 0ff9 85       		.byte	0x85
 2753 0ffa 21       		.byte	0x21
 2754 0ffb 820E0000 		.4byte	0xe82
 2755 0fff 43010000 		.4byte	.LLST22
 2756 1003 3D010000 		.4byte	.LVUS22
 2757 1007 26       		.uleb128 0x26
 2758 1008 F3030000 		.4byte	.LASF203
 2759 100c 01       		.byte	0x1
 2760 100d 85       		.byte	0x85
 2761 100e 30       		.byte	0x30
 2762 100f 64070000 		.4byte	0x764
 2763 1013 75010000 		.4byte	.LLST23
 2764 1017 6F010000 		.4byte	.LVUS23
 2765 101b 26       		.uleb128 0x26
 2766 101c 2C090000 		.4byte	.LASF204
 2767 1020 01       		.byte	0x1
 2768 1021 85       		.byte	0x85
 2769 1022 43       		.byte	0x43
 2770 1023 64070000 		.4byte	0x764
 2771 1027 A7010000 		.4byte	.LLST24
 2772 102b A1010000 		.4byte	.LVUS24
 2773 102f 20       		.uleb128 0x20
 2774 1030 3C000000 		.4byte	.LVL29
 2775 1034 80140000 		.4byte	0x1480
 2776 1038 56100000 		.4byte	0x1056
 2777 103c 21       		.uleb128 0x21
 2778 103d 01       		.uleb128 0x1
 2779 103e 50       		.byte	0x50
 2780 103f 02       		.uleb128 0x2
 2781 1040 74       		.byte	0x74
 2782 1041 0C       		.sleb128 12
 2783 1042 21       		.uleb128 0x21
 2784 1043 01       		.uleb128 0x1
 2785 1044 51       		.byte	0x51
 2786 1045 03       		.uleb128 0x3
 2787 1046 74       		.byte	0x74
 2788 1047 D400     		.sleb128 84
 2789 1049 21       		.uleb128 0x21
 2790 104a 01       		.uleb128 0x1
 2791 104b 52       		.byte	0x52
 2792 104c 01       		.uleb128 0x1
 2793 104d 40       		.byte	0x40
ARM GAS  /tmp/cchBrCOm.s 			page 50


 2794 104e 21       		.uleb128 0x21
 2795 104f 01       		.uleb128 0x1
 2796 1050 53       		.byte	0x53
 2797 1051 03       		.uleb128 0x3
 2798 1052 F3       		.byte	0xf3
 2799 1053 01       		.uleb128 0x1
 2800 1054 51       		.byte	0x51
 2801 1055 00       		.byte	0
 2802 1056 22       		.uleb128 0x22
 2803 1057 54000000 		.4byte	.LVL30
 2804 105b 8D140000 		.4byte	0x148d
 2805 105f 21       		.uleb128 0x21
 2806 1060 01       		.uleb128 0x1
 2807 1061 50       		.byte	0x50
 2808 1062 02       		.uleb128 0x2
 2809 1063 74       		.byte	0x74
 2810 1064 30       		.sleb128 48
 2811 1065 21       		.uleb128 0x21
 2812 1066 01       		.uleb128 0x1
 2813 1067 51       		.byte	0x51
 2814 1068 03       		.uleb128 0x3
 2815 1069 74       		.byte	0x74
 2816 106a E400     		.sleb128 100
 2817 106c 21       		.uleb128 0x21
 2818 106d 01       		.uleb128 0x1
 2819 106e 52       		.byte	0x52
 2820 106f 01       		.uleb128 0x1
 2821 1070 40       		.byte	0x40
 2822 1071 21       		.uleb128 0x21
 2823 1072 01       		.uleb128 0x1
 2824 1073 53       		.byte	0x53
 2825 1074 02       		.uleb128 0x2
 2826 1075 75       		.byte	0x75
 2827 1076 00       		.sleb128 0
 2828 1077 21       		.uleb128 0x21
 2829 1078 02       		.uleb128 0x2
 2830 1079 7D       		.byte	0x7d
 2831 107a 00       		.sleb128 0
 2832 107b 02       		.uleb128 0x2
 2833 107c 74       		.byte	0x74
 2834 107d 00       		.sleb128 0
 2835 107e 00       		.byte	0
 2836 107f 00       		.byte	0
 2837 1080 23       		.uleb128 0x23
 2838 1081 A5090000 		.4byte	.LASF205
 2839 1085 01       		.byte	0x1
 2840 1086 71       		.byte	0x71
 2841 1087 06       		.byte	0x6
 2842 1088 00000000 		.4byte	.LFB15
 2843 108c 04000000 		.4byte	.LFE15-.LFB15
 2844 1090 01       		.uleb128 0x1
 2845 1091 9C       		.byte	0x9c
 2846 1092 A0100000 		.4byte	0x10a0
 2847 1096 27       		.uleb128 0x27
 2848 1097 04000000 		.4byte	.LVL24
 2849 109b 9A140000 		.4byte	0x149a
 2850 109f 00       		.byte	0
ARM GAS  /tmp/cchBrCOm.s 			page 51


 2851 10a0 28       		.uleb128 0x28
 2852 10a1 20090000 		.4byte	.LASF178
 2853 10a5 01       		.byte	0x1
 2854 10a6 5C       		.byte	0x5c
 2855 10a7 0F       		.byte	0xf
 2856 10a8 2C000000 		.4byte	0x2c
 2857 10ac 00000000 		.4byte	.LFB14
 2858 10b0 08000000 		.4byte	.LFE14-.LFB14
 2859 10b4 01       		.uleb128 0x1
 2860 10b5 9C       		.byte	0x9c
 2861 10b6 2F110000 		.4byte	0x112f
 2862 10ba 1E       		.uleb128 0x1e
 2863 10bb 697000   		.ascii	"ip\000"
 2864 10be 01       		.byte	0x1
 2865 10bf 5C       		.byte	0x5c
 2866 10c0 1B       		.byte	0x1b
 2867 10c1 B5020000 		.4byte	0x2b5
 2868 10c5 D9010000 		.4byte	.LLST0
 2869 10c9 D3010000 		.4byte	.LVUS0
 2870 10cd 1E       		.uleb128 0x1e
 2871 10ce 627000   		.ascii	"bp\000"
 2872 10d1 01       		.byte	0x1
 2873 10d2 5C       		.byte	0x5c
 2874 10d3 28       		.byte	0x28
 2875 10d4 87070000 		.4byte	0x787
 2876 10d8 0B020000 		.4byte	.LLST1
 2877 10dc 07020000 		.4byte	.LVUS1
 2878 10e0 1E       		.uleb128 0x1e
 2879 10e1 6E00     		.ascii	"n\000"
 2880 10e3 01       		.byte	0x1
 2881 10e4 5C       		.byte	0x5c
 2882 10e5 33       		.byte	0x33
 2883 10e6 2C000000 		.4byte	0x2c
 2884 10ea 30020000 		.4byte	.LLST2
 2885 10ee 2C020000 		.4byte	.LVUS2
 2886 10f2 26       		.uleb128 0x26
 2887 10f3 BF050000 		.4byte	.LASF206
 2888 10f7 01       		.byte	0x1
 2889 10f8 5C       		.byte	0x5c
 2890 10f9 40       		.byte	0x40
 2891 10fa 22010000 		.4byte	0x122
 2892 10fe 55020000 		.4byte	.LLST3
 2893 1102 51020000 		.4byte	.LVUS3
 2894 1106 29       		.uleb128 0x29
 2895 1107 08000000 		.4byte	.LVL2
 2896 110b A6140000 		.4byte	0x14a6
 2897 110f 21       		.uleb128 0x21
 2898 1110 01       		.uleb128 0x1
 2899 1111 50       		.byte	0x50
 2900 1112 05       		.uleb128 0x5
 2901 1113 F3       		.byte	0xf3
 2902 1114 01       		.uleb128 0x1
 2903 1115 50       		.byte	0x50
 2904 1116 23       		.byte	0x23
 2905 1117 0C       		.uleb128 0xc
 2906 1118 21       		.uleb128 0x21
 2907 1119 01       		.uleb128 0x1
ARM GAS  /tmp/cchBrCOm.s 			page 52


 2908 111a 51       		.byte	0x51
 2909 111b 03       		.uleb128 0x3
 2910 111c F3       		.byte	0xf3
 2911 111d 01       		.uleb128 0x1
 2912 111e 51       		.byte	0x51
 2913 111f 21       		.uleb128 0x21
 2914 1120 01       		.uleb128 0x1
 2915 1121 52       		.byte	0x52
 2916 1122 03       		.uleb128 0x3
 2917 1123 F3       		.byte	0xf3
 2918 1124 01       		.uleb128 0x1
 2919 1125 52       		.byte	0x52
 2920 1126 21       		.uleb128 0x21
 2921 1127 01       		.uleb128 0x1
 2922 1128 53       		.byte	0x53
 2923 1129 03       		.uleb128 0x3
 2924 112a F3       		.byte	0xf3
 2925 112b 01       		.uleb128 0x1
 2926 112c 53       		.byte	0x53
 2927 112d 00       		.byte	0
 2928 112e 00       		.byte	0
 2929 112f 28       		.uleb128 0x28
 2930 1130 9C040000 		.4byte	.LASF177
 2931 1134 01       		.byte	0x1
 2932 1135 57       		.byte	0x57
 2933 1136 0F       		.byte	0xf
 2934 1137 2C000000 		.4byte	0x2c
 2935 113b 00000000 		.4byte	.LFB13
 2936 113f 08000000 		.4byte	.LFE13-.LFB13
 2937 1143 01       		.uleb128 0x1
 2938 1144 9C       		.byte	0x9c
 2939 1145 BE110000 		.4byte	0x11be
 2940 1149 1E       		.uleb128 0x1e
 2941 114a 697000   		.ascii	"ip\000"
 2942 114d 01       		.byte	0x1
 2943 114e 57       		.byte	0x57
 2944 114f 1C       		.byte	0x1c
 2945 1150 B5020000 		.4byte	0x2b5
 2946 1154 7C020000 		.4byte	.LLST7
 2947 1158 76020000 		.4byte	.LVUS7
 2948 115c 1E       		.uleb128 0x1e
 2949 115d 627000   		.ascii	"bp\000"
 2950 1160 01       		.byte	0x1
 2951 1161 57       		.byte	0x57
 2952 1162 2F       		.byte	0x2f
 2953 1163 BE070000 		.4byte	0x7be
 2954 1167 AE020000 		.4byte	.LLST8
 2955 116b AA020000 		.4byte	.LVUS8
 2956 116f 1E       		.uleb128 0x1e
 2957 1170 6E00     		.ascii	"n\000"
 2958 1172 01       		.byte	0x1
 2959 1173 57       		.byte	0x57
 2960 1174 3A       		.byte	0x3a
 2961 1175 2C000000 		.4byte	0x2c
 2962 1179 D3020000 		.4byte	.LLST9
 2963 117d CF020000 		.4byte	.LVUS9
 2964 1181 26       		.uleb128 0x26
ARM GAS  /tmp/cchBrCOm.s 			page 53


 2965 1182 BF050000 		.4byte	.LASF206
 2966 1186 01       		.byte	0x1
 2967 1187 57       		.byte	0x57
 2968 1188 47       		.byte	0x47
 2969 1189 22010000 		.4byte	0x122
 2970 118d F8020000 		.4byte	.LLST10
 2971 1191 F4020000 		.4byte	.LVUS10
 2972 1195 29       		.uleb128 0x29
 2973 1196 08000000 		.4byte	.LVL8
 2974 119a B3140000 		.4byte	0x14b3
 2975 119e 21       		.uleb128 0x21
 2976 119f 01       		.uleb128 0x1
 2977 11a0 50       		.byte	0x50
 2978 11a1 05       		.uleb128 0x5
 2979 11a2 F3       		.byte	0xf3
 2980 11a3 01       		.uleb128 0x1
 2981 11a4 50       		.byte	0x50
 2982 11a5 23       		.byte	0x23
 2983 11a6 30       		.uleb128 0x30
 2984 11a7 21       		.uleb128 0x21
 2985 11a8 01       		.uleb128 0x1
 2986 11a9 51       		.byte	0x51
 2987 11aa 03       		.uleb128 0x3
 2988 11ab F3       		.byte	0xf3
 2989 11ac 01       		.uleb128 0x1
 2990 11ad 51       		.byte	0x51
 2991 11ae 21       		.uleb128 0x21
 2992 11af 01       		.uleb128 0x1
 2993 11b0 52       		.byte	0x52
 2994 11b1 03       		.uleb128 0x3
 2995 11b2 F3       		.byte	0xf3
 2996 11b3 01       		.uleb128 0x1
 2997 11b4 52       		.byte	0x52
 2998 11b5 21       		.uleb128 0x21
 2999 11b6 01       		.uleb128 0x1
 3000 11b7 53       		.byte	0x53
 3001 11b8 03       		.uleb128 0x3
 3002 11b9 F3       		.byte	0xf3
 3003 11ba 01       		.uleb128 0x1
 3004 11bb 53       		.byte	0x53
 3005 11bc 00       		.byte	0
 3006 11bd 00       		.byte	0
 3007 11be 28       		.uleb128 0x28
 3008 11bf 2C040000 		.4byte	.LASF176
 3009 11c3 01       		.byte	0x1
 3010 11c4 52       		.byte	0x52
 3011 11c5 0E       		.byte	0xe
 3012 11c6 FE000000 		.4byte	0xfe
 3013 11ca 00000000 		.4byte	.LFB12
 3014 11ce 08000000 		.4byte	.LFE12-.LFB12
 3015 11d2 01       		.uleb128 0x1
 3016 11d3 9C       		.byte	0x9c
 3017 11d4 1A120000 		.4byte	0x121a
 3018 11d8 1E       		.uleb128 0x1e
 3019 11d9 697000   		.ascii	"ip\000"
 3020 11dc 01       		.byte	0x1
 3021 11dd 52       		.byte	0x52
ARM GAS  /tmp/cchBrCOm.s 			page 54


 3022 11de 19       		.byte	0x19
 3023 11df B5020000 		.4byte	0x2b5
 3024 11e3 1F030000 		.4byte	.LLST14
 3025 11e7 19030000 		.4byte	.LVUS14
 3026 11eb 26       		.uleb128 0x26
 3027 11ec 24040000 		.4byte	.LASF207
 3028 11f0 01       		.byte	0x1
 3029 11f1 52       		.byte	0x52
 3030 11f2 27       		.byte	0x27
 3031 11f3 22010000 		.4byte	0x122
 3032 11f7 51030000 		.4byte	.LLST15
 3033 11fb 4D030000 		.4byte	.LVUS15
 3034 11ff 29       		.uleb128 0x29
 3035 1200 08000000 		.4byte	.LVL14
 3036 1204 C0140000 		.4byte	0x14c0
 3037 1208 21       		.uleb128 0x21
 3038 1209 01       		.uleb128 0x1
 3039 120a 50       		.byte	0x50
 3040 120b 05       		.uleb128 0x5
 3041 120c F3       		.byte	0xf3
 3042 120d 01       		.uleb128 0x1
 3043 120e 50       		.byte	0x50
 3044 120f 23       		.byte	0x23
 3045 1210 0C       		.uleb128 0xc
 3046 1211 21       		.uleb128 0x21
 3047 1212 01       		.uleb128 0x1
 3048 1213 51       		.byte	0x51
 3049 1214 03       		.uleb128 0x3
 3050 1215 F3       		.byte	0xf3
 3051 1216 01       		.uleb128 0x1
 3052 1217 51       		.byte	0x51
 3053 1218 00       		.byte	0
 3054 1219 00       		.byte	0
 3055 121a 28       		.uleb128 0x28
 3056 121b 17050000 		.4byte	.LASF175
 3057 121f 01       		.byte	0x1
 3058 1220 4D       		.byte	0x4d
 3059 1221 0E       		.byte	0xe
 3060 1222 FE000000 		.4byte	0xfe
 3061 1226 00000000 		.4byte	.LFB11
 3062 122a 08000000 		.4byte	.LFE11-.LFB11
 3063 122e 01       		.uleb128 0x1
 3064 122f 9C       		.byte	0x9c
 3065 1230 88120000 		.4byte	0x1288
 3066 1234 1E       		.uleb128 0x1e
 3067 1235 697000   		.ascii	"ip\000"
 3068 1238 01       		.byte	0x1
 3069 1239 4D       		.byte	0x4d
 3070 123a 19       		.byte	0x19
 3071 123b B5020000 		.4byte	0x2b5
 3072 123f 78030000 		.4byte	.LLST17
 3073 1243 72030000 		.4byte	.LVUS17
 3074 1247 1E       		.uleb128 0x1e
 3075 1248 6200     		.ascii	"b\000"
 3076 124a 01       		.byte	0x1
 3077 124b 4D       		.byte	0x4d
 3078 124c 25       		.byte	0x25
ARM GAS  /tmp/cchBrCOm.s 			page 55


 3079 124d 6C000000 		.4byte	0x6c
 3080 1251 AA030000 		.4byte	.LLST18
 3081 1255 A6030000 		.4byte	.LVUS18
 3082 1259 26       		.uleb128 0x26
 3083 125a 24040000 		.4byte	.LASF207
 3084 125e 01       		.byte	0x1
 3085 125f 4D       		.byte	0x4d
 3086 1260 32       		.byte	0x32
 3087 1261 22010000 		.4byte	0x122
 3088 1265 CF030000 		.4byte	.LLST19
 3089 1269 CB030000 		.4byte	.LVUS19
 3090 126d 29       		.uleb128 0x29
 3091 126e 08000000 		.4byte	.LVL20
 3092 1272 CD140000 		.4byte	0x14cd
 3093 1276 21       		.uleb128 0x21
 3094 1277 01       		.uleb128 0x1
 3095 1278 50       		.byte	0x50
 3096 1279 05       		.uleb128 0x5
 3097 127a F3       		.byte	0xf3
 3098 127b 01       		.uleb128 0x1
 3099 127c 50       		.byte	0x50
 3100 127d 23       		.byte	0x23
 3101 127e 30       		.uleb128 0x30
 3102 127f 21       		.uleb128 0x21
 3103 1280 01       		.uleb128 0x1
 3104 1281 52       		.byte	0x52
 3105 1282 03       		.uleb128 0x3
 3106 1283 F3       		.byte	0xf3
 3107 1284 01       		.uleb128 0x1
 3108 1285 52       		.byte	0x52
 3109 1286 00       		.byte	0
 3110 1287 00       		.byte	0
 3111 1288 2A       		.uleb128 0x2a
 3112 1289 67657400 		.ascii	"get\000"
 3113 128d 01       		.byte	0x1
 3114 128e 48       		.byte	0x48
 3115 128f 0E       		.byte	0xe
 3116 1290 FE000000 		.4byte	0xfe
 3117 1294 00000000 		.4byte	.LFB10
 3118 1298 0C000000 		.4byte	.LFE10-.LFB10
 3119 129c 01       		.uleb128 0x1
 3120 129d 9C       		.byte	0x9c
 3121 129e CF120000 		.4byte	0x12cf
 3122 12a2 1E       		.uleb128 0x1e
 3123 12a3 697000   		.ascii	"ip\000"
 3124 12a6 01       		.byte	0x1
 3125 12a7 48       		.byte	0x48
 3126 12a8 18       		.byte	0x18
 3127 12a9 B5020000 		.4byte	0x2b5
 3128 12ad F6030000 		.4byte	.LLST16
 3129 12b1 F0030000 		.4byte	.LVUS16
 3130 12b5 29       		.uleb128 0x29
 3131 12b6 0C000000 		.4byte	.LVL17
 3132 12ba C0140000 		.4byte	0x14c0
 3133 12be 21       		.uleb128 0x21
 3134 12bf 01       		.uleb128 0x1
 3135 12c0 50       		.byte	0x50
ARM GAS  /tmp/cchBrCOm.s 			page 56


 3136 12c1 05       		.uleb128 0x5
 3137 12c2 F3       		.byte	0xf3
 3138 12c3 01       		.uleb128 0x1
 3139 12c4 50       		.byte	0x50
 3140 12c5 23       		.byte	0x23
 3141 12c6 0C       		.uleb128 0xc
 3142 12c7 21       		.uleb128 0x21
 3143 12c8 01       		.uleb128 0x1
 3144 12c9 51       		.byte	0x51
 3145 12ca 02       		.uleb128 0x2
 3146 12cb 09       		.byte	0x9
 3147 12cc FF       		.byte	0xff
 3148 12cd 00       		.byte	0
 3149 12ce 00       		.byte	0
 3150 12cf 2A       		.uleb128 0x2a
 3151 12d0 70757400 		.ascii	"put\000"
 3152 12d4 01       		.byte	0x1
 3153 12d5 43       		.byte	0x43
 3154 12d6 0E       		.byte	0xe
 3155 12d7 FE000000 		.4byte	0xfe
 3156 12db 00000000 		.4byte	.LFB9
 3157 12df 0C000000 		.4byte	.LFE9-.LFB9
 3158 12e3 01       		.uleb128 0x1
 3159 12e4 9C       		.byte	0x9c
 3160 12e5 28130000 		.4byte	0x1328
 3161 12e9 1E       		.uleb128 0x1e
 3162 12ea 697000   		.ascii	"ip\000"
 3163 12ed 01       		.byte	0x1
 3164 12ee 43       		.byte	0x43
 3165 12ef 18       		.byte	0x18
 3166 12f0 B5020000 		.4byte	0x2b5
 3167 12f4 2A040000 		.4byte	.LLST20
 3168 12f8 24040000 		.4byte	.LVUS20
 3169 12fc 1E       		.uleb128 0x1e
 3170 12fd 6200     		.ascii	"b\000"
 3171 12ff 01       		.byte	0x1
 3172 1300 43       		.byte	0x43
 3173 1301 24       		.byte	0x24
 3174 1302 6C000000 		.4byte	0x6c
 3175 1306 5C040000 		.4byte	.LLST21
 3176 130a 58040000 		.4byte	.LVUS21
 3177 130e 29       		.uleb128 0x29
 3178 130f 0C000000 		.4byte	.LVL23
 3179 1313 CD140000 		.4byte	0x14cd
 3180 1317 21       		.uleb128 0x21
 3181 1318 01       		.uleb128 0x1
 3182 1319 50       		.byte	0x50
 3183 131a 05       		.uleb128 0x5
 3184 131b F3       		.byte	0xf3
 3185 131c 01       		.uleb128 0x1
 3186 131d 50       		.byte	0x50
 3187 131e 23       		.byte	0x23
 3188 131f 30       		.uleb128 0x30
 3189 1320 21       		.uleb128 0x21
 3190 1321 01       		.uleb128 0x1
 3191 1322 52       		.byte	0x52
 3192 1323 02       		.uleb128 0x2
ARM GAS  /tmp/cchBrCOm.s 			page 57


 3193 1324 09       		.byte	0x9
 3194 1325 FF       		.byte	0xff
 3195 1326 00       		.byte	0
 3196 1327 00       		.byte	0
 3197 1328 28       		.uleb128 0x28
 3198 1329 E2070000 		.4byte	.LASF174
 3199 132d 01       		.byte	0x1
 3200 132e 3D       		.byte	0x3d
 3201 132f 0F       		.byte	0xf
 3202 1330 2C000000 		.4byte	0x2c
 3203 1334 00000000 		.4byte	.LFB8
 3204 1338 0C000000 		.4byte	.LFE8-.LFB8
 3205 133c 01       		.uleb128 0x1
 3206 133d 9C       		.byte	0x9c
 3207 133e A2130000 		.4byte	0x13a2
 3208 1342 1E       		.uleb128 0x1e
 3209 1343 697000   		.ascii	"ip\000"
 3210 1346 01       		.byte	0x1
 3211 1347 3D       		.byte	0x3d
 3212 1348 1A       		.byte	0x1a
 3213 1349 B5020000 		.4byte	0x2b5
 3214 134d 83040000 		.4byte	.LLST4
 3215 1351 7D040000 		.4byte	.LVUS4
 3216 1355 1E       		.uleb128 0x1e
 3217 1356 627000   		.ascii	"bp\000"
 3218 1359 01       		.byte	0x1
 3219 135a 3D       		.byte	0x3d
 3220 135b 27       		.byte	0x27
 3221 135c 87070000 		.4byte	0x787
 3222 1360 B5040000 		.4byte	.LLST5
 3223 1364 B1040000 		.4byte	.LVUS5
 3224 1368 1E       		.uleb128 0x1e
 3225 1369 6E00     		.ascii	"n\000"
 3226 136b 01       		.byte	0x1
 3227 136c 3D       		.byte	0x3d
 3228 136d 32       		.byte	0x32
 3229 136e 2C000000 		.4byte	0x2c
 3230 1372 DA040000 		.4byte	.LLST6
 3231 1376 D6040000 		.4byte	.LVUS6
 3232 137a 29       		.uleb128 0x29
 3233 137b 0C000000 		.4byte	.LVL5
 3234 137f A6140000 		.4byte	0x14a6
 3235 1383 21       		.uleb128 0x21
 3236 1384 01       		.uleb128 0x1
 3237 1385 50       		.byte	0x50
 3238 1386 05       		.uleb128 0x5
 3239 1387 F3       		.byte	0xf3
 3240 1388 01       		.uleb128 0x1
 3241 1389 50       		.byte	0x50
 3242 138a 23       		.byte	0x23
 3243 138b 0C       		.uleb128 0xc
 3244 138c 21       		.uleb128 0x21
 3245 138d 01       		.uleb128 0x1
 3246 138e 51       		.byte	0x51
 3247 138f 03       		.uleb128 0x3
 3248 1390 F3       		.byte	0xf3
 3249 1391 01       		.uleb128 0x1
ARM GAS  /tmp/cchBrCOm.s 			page 58


 3250 1392 51       		.byte	0x51
 3251 1393 21       		.uleb128 0x21
 3252 1394 01       		.uleb128 0x1
 3253 1395 52       		.byte	0x52
 3254 1396 03       		.uleb128 0x3
 3255 1397 F3       		.byte	0xf3
 3256 1398 01       		.uleb128 0x1
 3257 1399 52       		.byte	0x52
 3258 139a 21       		.uleb128 0x21
 3259 139b 01       		.uleb128 0x1
 3260 139c 53       		.byte	0x53
 3261 139d 02       		.uleb128 0x2
 3262 139e 09       		.byte	0x9
 3263 139f FF       		.byte	0xff
 3264 13a0 00       		.byte	0
 3265 13a1 00       		.byte	0
 3266 13a2 28       		.uleb128 0x28
 3267 13a3 0A010000 		.4byte	.LASF173
 3268 13a7 01       		.byte	0x1
 3269 13a8 37       		.byte	0x37
 3270 13a9 0F       		.byte	0xf
 3271 13aa 2C000000 		.4byte	0x2c
 3272 13ae 00000000 		.4byte	.LFB7
 3273 13b2 0C000000 		.4byte	.LFE7-.LFB7
 3274 13b6 01       		.uleb128 0x1
 3275 13b7 9C       		.byte	0x9c
 3276 13b8 1C140000 		.4byte	0x141c
 3277 13bc 1E       		.uleb128 0x1e
 3278 13bd 697000   		.ascii	"ip\000"
 3279 13c0 01       		.byte	0x1
 3280 13c1 37       		.byte	0x37
 3281 13c2 1B       		.byte	0x1b
 3282 13c3 B5020000 		.4byte	0x2b5
 3283 13c7 01050000 		.4byte	.LLST11
 3284 13cb FB040000 		.4byte	.LVUS11
 3285 13cf 1E       		.uleb128 0x1e
 3286 13d0 627000   		.ascii	"bp\000"
 3287 13d3 01       		.byte	0x1
 3288 13d4 37       		.byte	0x37
 3289 13d5 2E       		.byte	0x2e
 3290 13d6 BE070000 		.4byte	0x7be
 3291 13da 33050000 		.4byte	.LLST12
 3292 13de 2F050000 		.4byte	.LVUS12
 3293 13e2 1E       		.uleb128 0x1e
 3294 13e3 6E00     		.ascii	"n\000"
 3295 13e5 01       		.byte	0x1
 3296 13e6 37       		.byte	0x37
 3297 13e7 39       		.byte	0x39
 3298 13e8 2C000000 		.4byte	0x2c
 3299 13ec 58050000 		.4byte	.LLST13
 3300 13f0 54050000 		.4byte	.LVUS13
 3301 13f4 29       		.uleb128 0x29
 3302 13f5 0C000000 		.4byte	.LVL11
 3303 13f9 B3140000 		.4byte	0x14b3
 3304 13fd 21       		.uleb128 0x21
 3305 13fe 01       		.uleb128 0x1
 3306 13ff 50       		.byte	0x50
ARM GAS  /tmp/cchBrCOm.s 			page 59


 3307 1400 05       		.uleb128 0x5
 3308 1401 F3       		.byte	0xf3
 3309 1402 01       		.uleb128 0x1
 3310 1403 50       		.byte	0x50
 3311 1404 23       		.byte	0x23
 3312 1405 30       		.uleb128 0x30
 3313 1406 21       		.uleb128 0x21
 3314 1407 01       		.uleb128 0x1
 3315 1408 51       		.byte	0x51
 3316 1409 03       		.uleb128 0x3
 3317 140a F3       		.byte	0xf3
 3318 140b 01       		.uleb128 0x1
 3319 140c 51       		.byte	0x51
 3320 140d 21       		.uleb128 0x21
 3321 140e 01       		.uleb128 0x1
 3322 140f 52       		.byte	0x52
 3323 1410 03       		.uleb128 0x3
 3324 1411 F3       		.byte	0xf3
 3325 1412 01       		.uleb128 0x1
 3326 1413 52       		.byte	0x52
 3327 1414 21       		.uleb128 0x21
 3328 1415 01       		.uleb128 0x1
 3329 1416 53       		.byte	0x53
 3330 1417 02       		.uleb128 0x2
 3331 1418 09       		.byte	0x9
 3332 1419 FF       		.byte	0xff
 3333 141a 00       		.byte	0
 3334 141b 00       		.byte	0
 3335 141c 2B       		.uleb128 0x2b
 3336 141d 7F020000 		.4byte	.LASF208
 3337 1421 7F020000 		.4byte	.LASF208
 3338 1425 0D       		.byte	0xd
 3339 1426 6701     		.2byte	0x167
 3340 1428 09       		.byte	0x9
 3341 1429 2C       		.uleb128 0x2c
 3342 142a C0020000 		.4byte	.LASF209
 3343 142e C0020000 		.4byte	.LASF209
 3344 1432 0B       		.byte	0xb
 3345 1433 B3       		.byte	0xb3
 3346 1434 08       		.byte	0x8
 3347 1435 2B       		.uleb128 0x2b
 3348 1436 0E030000 		.4byte	.LASF210
 3349 143a 0E030000 		.4byte	.LASF210
 3350 143e 0D       		.byte	0xd
 3351 143f 5E01     		.2byte	0x15e
 3352 1441 09       		.byte	0x9
 3353 1442 2C       		.uleb128 0x2c
 3354 1443 87090000 		.4byte	.LASF211
 3355 1447 87090000 		.4byte	.LASF211
 3356 144b 14       		.byte	0x14
 3357 144c 69       		.byte	0x69
 3358 144d 08       		.byte	0x8
 3359 144e 2B       		.uleb128 0x2b
 3360 144f 4C080000 		.4byte	.LASF212
 3361 1453 4C080000 		.4byte	.LASF212
 3362 1457 0D       		.byte	0xd
 3363 1458 6501     		.2byte	0x165
ARM GAS  /tmp/cchBrCOm.s 			page 60


 3364 145a 08       		.byte	0x8
 3365 145b 2B       		.uleb128 0x2b
 3366 145c E8030000 		.4byte	.LASF213
 3367 1460 E8030000 		.4byte	.LASF213
 3368 1464 0D       		.byte	0xd
 3369 1465 5D01     		.2byte	0x15d
 3370 1467 08       		.byte	0x8
 3371 1468 2C       		.uleb128 0x2c
 3372 1469 49030000 		.4byte	.LASF214
 3373 146d 49030000 		.4byte	.LASF214
 3374 1471 09       		.byte	0x9
 3375 1472 95       		.byte	0x95
 3376 1473 08       		.byte	0x8
 3377 1474 2C       		.uleb128 0x2c
 3378 1475 6C060000 		.4byte	.LASF215
 3379 1479 6C060000 		.4byte	.LASF215
 3380 147d 14       		.byte	0x14
 3381 147e 68       		.byte	0x68
 3382 147f 08       		.byte	0x8
 3383 1480 2B       		.uleb128 0x2b
 3384 1481 01010000 		.4byte	.LASF216
 3385 1485 01010000 		.4byte	.LASF216
 3386 1489 0D       		.byte	0xd
 3387 148a 5B01     		.2byte	0x15b
 3388 148c 08       		.byte	0x8
 3389 148d 2B       		.uleb128 0x2b
 3390 148e 00000000 		.4byte	.LASF217
 3391 1492 00000000 		.4byte	.LASF217
 3392 1496 0D       		.byte	0xd
 3393 1497 6301     		.2byte	0x163
 3394 1499 08       		.byte	0x8
 3395 149a 2C       		.uleb128 0x2c
 3396 149b 50010000 		.4byte	.LASF218
 3397 149f 50010000 		.4byte	.LASF218
 3398 14a3 14       		.byte	0x14
 3399 14a4 67       		.byte	0x67
 3400 14a5 08       		.byte	0x8
 3401 14a6 2B       		.uleb128 0x2b
 3402 14a7 27010000 		.4byte	.LASF219
 3403 14ab 27010000 		.4byte	.LASF219
 3404 14af 0D       		.byte	0xd
 3405 14b0 6001     		.2byte	0x160
 3406 14b2 0A       		.byte	0xa
 3407 14b3 2B       		.uleb128 0x2b
 3408 14b4 EC040000 		.4byte	.LASF220
 3409 14b8 EC040000 		.4byte	.LASF220
 3410 14bc 0D       		.byte	0xd
 3411 14bd 6801     		.2byte	0x168
 3412 14bf 0A       		.byte	0xa
 3413 14c0 2B       		.uleb128 0x2b
 3414 14c1 34090000 		.4byte	.LASF221
 3415 14c5 34090000 		.4byte	.LASF221
 3416 14c9 0D       		.byte	0xd
 3417 14ca 5F01     		.2byte	0x15f
 3418 14cc 09       		.byte	0x9
 3419 14cd 2B       		.uleb128 0x2b
 3420 14ce 7B030000 		.4byte	.LASF222
ARM GAS  /tmp/cchBrCOm.s 			page 61


 3421 14d2 7B030000 		.4byte	.LASF222
 3422 14d6 0D       		.byte	0xd
 3423 14d7 6601     		.2byte	0x166
 3424 14d9 09       		.byte	0x9
 3425 14da 00       		.byte	0
 3426              		.section	.debug_abbrev,"",%progbits
 3427              	.Ldebug_abbrev0:
 3428 0000 01       		.uleb128 0x1
 3429 0001 11       		.uleb128 0x11
 3430 0002 01       		.byte	0x1
 3431 0003 25       		.uleb128 0x25
 3432 0004 0E       		.uleb128 0xe
 3433 0005 13       		.uleb128 0x13
 3434 0006 0B       		.uleb128 0xb
 3435 0007 03       		.uleb128 0x3
 3436 0008 0E       		.uleb128 0xe
 3437 0009 1B       		.uleb128 0x1b
 3438 000a 0E       		.uleb128 0xe
 3439 000b 55       		.uleb128 0x55
 3440 000c 17       		.uleb128 0x17
 3441 000d 11       		.uleb128 0x11
 3442 000e 01       		.uleb128 0x1
 3443 000f 10       		.uleb128 0x10
 3444 0010 17       		.uleb128 0x17
 3445 0011 00       		.byte	0
 3446 0012 00       		.byte	0
 3447 0013 02       		.uleb128 0x2
 3448 0014 24       		.uleb128 0x24
 3449 0015 00       		.byte	0
 3450 0016 0B       		.uleb128 0xb
 3451 0017 0B       		.uleb128 0xb
 3452 0018 3E       		.uleb128 0x3e
 3453 0019 0B       		.uleb128 0xb
 3454 001a 03       		.uleb128 0x3
 3455 001b 08       		.uleb128 0x8
 3456 001c 00       		.byte	0
 3457 001d 00       		.byte	0
 3458 001e 03       		.uleb128 0x3
 3459 001f 16       		.uleb128 0x16
 3460 0020 00       		.byte	0
 3461 0021 03       		.uleb128 0x3
 3462 0022 0E       		.uleb128 0xe
 3463 0023 3A       		.uleb128 0x3a
 3464 0024 0B       		.uleb128 0xb
 3465 0025 3B       		.uleb128 0x3b
 3466 0026 0B       		.uleb128 0xb
 3467 0027 39       		.uleb128 0x39
 3468 0028 0B       		.uleb128 0xb
 3469 0029 49       		.uleb128 0x49
 3470 002a 13       		.uleb128 0x13
 3471 002b 00       		.byte	0
 3472 002c 00       		.byte	0
 3473 002d 04       		.uleb128 0x4
 3474 002e 24       		.uleb128 0x24
 3475 002f 00       		.byte	0
 3476 0030 0B       		.uleb128 0xb
 3477 0031 0B       		.uleb128 0xb
ARM GAS  /tmp/cchBrCOm.s 			page 62


 3478 0032 3E       		.uleb128 0x3e
 3479 0033 0B       		.uleb128 0xb
 3480 0034 03       		.uleb128 0x3
 3481 0035 0E       		.uleb128 0xe
 3482 0036 00       		.byte	0
 3483 0037 00       		.byte	0
 3484 0038 05       		.uleb128 0x5
 3485 0039 35       		.uleb128 0x35
 3486 003a 00       		.byte	0
 3487 003b 49       		.uleb128 0x49
 3488 003c 13       		.uleb128 0x13
 3489 003d 00       		.byte	0
 3490 003e 00       		.byte	0
 3491 003f 06       		.uleb128 0x6
 3492 0040 26       		.uleb128 0x26
 3493 0041 00       		.byte	0
 3494 0042 49       		.uleb128 0x49
 3495 0043 13       		.uleb128 0x13
 3496 0044 00       		.byte	0
 3497 0045 00       		.byte	0
 3498 0046 07       		.uleb128 0x7
 3499 0047 13       		.uleb128 0x13
 3500 0048 01       		.byte	0x1
 3501 0049 03       		.uleb128 0x3
 3502 004a 0E       		.uleb128 0xe
 3503 004b 0B       		.uleb128 0xb
 3504 004c 0B       		.uleb128 0xb
 3505 004d 3A       		.uleb128 0x3a
 3506 004e 0B       		.uleb128 0xb
 3507 004f 3B       		.uleb128 0x3b
 3508 0050 0B       		.uleb128 0xb
 3509 0051 39       		.uleb128 0x39
 3510 0052 0B       		.uleb128 0xb
 3511 0053 01       		.uleb128 0x1
 3512 0054 13       		.uleb128 0x13
 3513 0055 00       		.byte	0
 3514 0056 00       		.byte	0
 3515 0057 08       		.uleb128 0x8
 3516 0058 0D       		.uleb128 0xd
 3517 0059 00       		.byte	0
 3518 005a 03       		.uleb128 0x3
 3519 005b 0E       		.uleb128 0xe
 3520 005c 3A       		.uleb128 0x3a
 3521 005d 0B       		.uleb128 0xb
 3522 005e 3B       		.uleb128 0x3b
 3523 005f 0B       		.uleb128 0xb
 3524 0060 39       		.uleb128 0x39
 3525 0061 0B       		.uleb128 0xb
 3526 0062 49       		.uleb128 0x49
 3527 0063 13       		.uleb128 0x13
 3528 0064 38       		.uleb128 0x38
 3529 0065 0B       		.uleb128 0xb
 3530 0066 00       		.byte	0
 3531 0067 00       		.byte	0
 3532 0068 09       		.uleb128 0x9
 3533 0069 0D       		.uleb128 0xd
 3534 006a 00       		.byte	0
ARM GAS  /tmp/cchBrCOm.s 			page 63


 3535 006b 03       		.uleb128 0x3
 3536 006c 08       		.uleb128 0x8
 3537 006d 3A       		.uleb128 0x3a
 3538 006e 0B       		.uleb128 0xb
 3539 006f 3B       		.uleb128 0x3b
 3540 0070 0B       		.uleb128 0xb
 3541 0071 39       		.uleb128 0x39
 3542 0072 0B       		.uleb128 0xb
 3543 0073 49       		.uleb128 0x49
 3544 0074 13       		.uleb128 0x13
 3545 0075 38       		.uleb128 0x38
 3546 0076 0B       		.uleb128 0xb
 3547 0077 00       		.byte	0
 3548 0078 00       		.byte	0
 3549 0079 0A       		.uleb128 0xa
 3550 007a 13       		.uleb128 0x13
 3551 007b 01       		.byte	0x1
 3552 007c 0B       		.uleb128 0xb
 3553 007d 0B       		.uleb128 0xb
 3554 007e 3A       		.uleb128 0x3a
 3555 007f 0B       		.uleb128 0xb
 3556 0080 3B       		.uleb128 0x3b
 3557 0081 0B       		.uleb128 0xb
 3558 0082 39       		.uleb128 0x39
 3559 0083 0B       		.uleb128 0xb
 3560 0084 01       		.uleb128 0x1
 3561 0085 13       		.uleb128 0x13
 3562 0086 00       		.byte	0
 3563 0087 00       		.byte	0
 3564 0088 0B       		.uleb128 0xb
 3565 0089 0F       		.uleb128 0xf
 3566 008a 00       		.byte	0
 3567 008b 0B       		.uleb128 0xb
 3568 008c 0B       		.uleb128 0xb
 3569 008d 49       		.uleb128 0x49
 3570 008e 13       		.uleb128 0x13
 3571 008f 00       		.byte	0
 3572 0090 00       		.byte	0
 3573 0091 0C       		.uleb128 0xc
 3574 0092 0F       		.uleb128 0xf
 3575 0093 00       		.byte	0
 3576 0094 0B       		.uleb128 0xb
 3577 0095 0B       		.uleb128 0xb
 3578 0096 00       		.byte	0
 3579 0097 00       		.byte	0
 3580 0098 0D       		.uleb128 0xd
 3581 0099 15       		.uleb128 0x15
 3582 009a 01       		.byte	0x1
 3583 009b 27       		.uleb128 0x27
 3584 009c 19       		.uleb128 0x19
 3585 009d 01       		.uleb128 0x1
 3586 009e 13       		.uleb128 0x13
 3587 009f 00       		.byte	0
 3588 00a0 00       		.byte	0
 3589 00a1 0E       		.uleb128 0xe
 3590 00a2 05       		.uleb128 0x5
 3591 00a3 00       		.byte	0
ARM GAS  /tmp/cchBrCOm.s 			page 64


 3592 00a4 49       		.uleb128 0x49
 3593 00a5 13       		.uleb128 0x13
 3594 00a6 00       		.byte	0
 3595 00a7 00       		.byte	0
 3596 00a8 0F       		.uleb128 0xf
 3597 00a9 34       		.uleb128 0x34
 3598 00aa 00       		.byte	0
 3599 00ab 03       		.uleb128 0x3
 3600 00ac 0E       		.uleb128 0xe
 3601 00ad 3A       		.uleb128 0x3a
 3602 00ae 0B       		.uleb128 0xb
 3603 00af 3B       		.uleb128 0x3b
 3604 00b0 0B       		.uleb128 0xb
 3605 00b1 39       		.uleb128 0x39
 3606 00b2 0B       		.uleb128 0xb
 3607 00b3 49       		.uleb128 0x49
 3608 00b4 13       		.uleb128 0x13
 3609 00b5 3F       		.uleb128 0x3f
 3610 00b6 19       		.uleb128 0x19
 3611 00b7 3C       		.uleb128 0x3c
 3612 00b8 19       		.uleb128 0x19
 3613 00b9 00       		.byte	0
 3614 00ba 00       		.byte	0
 3615 00bb 10       		.uleb128 0x10
 3616 00bc 17       		.uleb128 0x17
 3617 00bd 01       		.byte	0x1
 3618 00be 0B       		.uleb128 0xb
 3619 00bf 0B       		.uleb128 0xb
 3620 00c0 3A       		.uleb128 0x3a
 3621 00c1 0B       		.uleb128 0xb
 3622 00c2 3B       		.uleb128 0x3b
 3623 00c3 0B       		.uleb128 0xb
 3624 00c4 39       		.uleb128 0x39
 3625 00c5 0B       		.uleb128 0xb
 3626 00c6 01       		.uleb128 0x1
 3627 00c7 13       		.uleb128 0x13
 3628 00c8 00       		.byte	0
 3629 00c9 00       		.byte	0
 3630 00ca 11       		.uleb128 0x11
 3631 00cb 0D       		.uleb128 0xd
 3632 00cc 00       		.byte	0
 3633 00cd 03       		.uleb128 0x3
 3634 00ce 0E       		.uleb128 0xe
 3635 00cf 3A       		.uleb128 0x3a
 3636 00d0 0B       		.uleb128 0xb
 3637 00d1 3B       		.uleb128 0x3b
 3638 00d2 0B       		.uleb128 0xb
 3639 00d3 39       		.uleb128 0x39
 3640 00d4 0B       		.uleb128 0xb
 3641 00d5 49       		.uleb128 0x49
 3642 00d6 13       		.uleb128 0x13
 3643 00d7 00       		.byte	0
 3644 00d8 00       		.byte	0
 3645 00d9 12       		.uleb128 0x12
 3646 00da 15       		.uleb128 0x15
 3647 00db 01       		.byte	0x1
 3648 00dc 27       		.uleb128 0x27
ARM GAS  /tmp/cchBrCOm.s 			page 65


 3649 00dd 19       		.uleb128 0x19
 3650 00de 49       		.uleb128 0x49
 3651 00df 13       		.uleb128 0x13
 3652 00e0 01       		.uleb128 0x1
 3653 00e1 13       		.uleb128 0x13
 3654 00e2 00       		.byte	0
 3655 00e3 00       		.byte	0
 3656 00e4 13       		.uleb128 0x13
 3657 00e5 01       		.uleb128 0x1
 3658 00e6 01       		.byte	0x1
 3659 00e7 49       		.uleb128 0x49
 3660 00e8 13       		.uleb128 0x13
 3661 00e9 01       		.uleb128 0x1
 3662 00ea 13       		.uleb128 0x13
 3663 00eb 00       		.byte	0
 3664 00ec 00       		.byte	0
 3665 00ed 14       		.uleb128 0x14
 3666 00ee 21       		.uleb128 0x21
 3667 00ef 00       		.byte	0
 3668 00f0 49       		.uleb128 0x49
 3669 00f1 13       		.uleb128 0x13
 3670 00f2 2F       		.uleb128 0x2f
 3671 00f3 0B       		.uleb128 0xb
 3672 00f4 00       		.byte	0
 3673 00f5 00       		.byte	0
 3674 00f6 15       		.uleb128 0x15
 3675 00f7 0D       		.uleb128 0xd
 3676 00f8 00       		.byte	0
 3677 00f9 03       		.uleb128 0x3
 3678 00fa 0E       		.uleb128 0xe
 3679 00fb 3A       		.uleb128 0x3a
 3680 00fc 0B       		.uleb128 0xb
 3681 00fd 3B       		.uleb128 0x3b
 3682 00fe 05       		.uleb128 0x5
 3683 00ff 39       		.uleb128 0x39
 3684 0100 0B       		.uleb128 0xb
 3685 0101 49       		.uleb128 0x49
 3686 0102 13       		.uleb128 0x13
 3687 0103 38       		.uleb128 0x38
 3688 0104 0B       		.uleb128 0xb
 3689 0105 00       		.byte	0
 3690 0106 00       		.byte	0
 3691 0107 16       		.uleb128 0x16
 3692 0108 16       		.uleb128 0x16
 3693 0109 00       		.byte	0
 3694 010a 03       		.uleb128 0x3
 3695 010b 0E       		.uleb128 0xe
 3696 010c 3A       		.uleb128 0x3a
 3697 010d 0B       		.uleb128 0xb
 3698 010e 3B       		.uleb128 0x3b
 3699 010f 05       		.uleb128 0x5
 3700 0110 39       		.uleb128 0x39
 3701 0111 0B       		.uleb128 0xb
 3702 0112 49       		.uleb128 0x49
 3703 0113 13       		.uleb128 0x13
 3704 0114 00       		.byte	0
 3705 0115 00       		.byte	0
ARM GAS  /tmp/cchBrCOm.s 			page 66


 3706 0116 17       		.uleb128 0x17
 3707 0117 13       		.uleb128 0x13
 3708 0118 00       		.byte	0
 3709 0119 0B       		.uleb128 0xb
 3710 011a 0B       		.uleb128 0xb
 3711 011b 3A       		.uleb128 0x3a
 3712 011c 0B       		.uleb128 0xb
 3713 011d 3B       		.uleb128 0x3b
 3714 011e 0B       		.uleb128 0xb
 3715 011f 39       		.uleb128 0x39
 3716 0120 0B       		.uleb128 0xb
 3717 0121 00       		.byte	0
 3718 0122 00       		.byte	0
 3719 0123 18       		.uleb128 0x18
 3720 0124 04       		.uleb128 0x4
 3721 0125 01       		.byte	0x1
 3722 0126 3E       		.uleb128 0x3e
 3723 0127 0B       		.uleb128 0xb
 3724 0128 0B       		.uleb128 0xb
 3725 0129 0B       		.uleb128 0xb
 3726 012a 49       		.uleb128 0x49
 3727 012b 13       		.uleb128 0x13
 3728 012c 3A       		.uleb128 0x3a
 3729 012d 0B       		.uleb128 0xb
 3730 012e 3B       		.uleb128 0x3b
 3731 012f 0B       		.uleb128 0xb
 3732 0130 39       		.uleb128 0x39
 3733 0131 0B       		.uleb128 0xb
 3734 0132 01       		.uleb128 0x1
 3735 0133 13       		.uleb128 0x13
 3736 0134 00       		.byte	0
 3737 0135 00       		.byte	0
 3738 0136 19       		.uleb128 0x19
 3739 0137 28       		.uleb128 0x28
 3740 0138 00       		.byte	0
 3741 0139 03       		.uleb128 0x3
 3742 013a 0E       		.uleb128 0xe
 3743 013b 1C       		.uleb128 0x1c
 3744 013c 0B       		.uleb128 0xb
 3745 013d 00       		.byte	0
 3746 013e 00       		.byte	0
 3747 013f 1A       		.uleb128 0x1a
 3748 0140 34       		.uleb128 0x34
 3749 0141 00       		.byte	0
 3750 0142 03       		.uleb128 0x3
 3751 0143 08       		.uleb128 0x8
 3752 0144 3A       		.uleb128 0x3a
 3753 0145 0B       		.uleb128 0xb
 3754 0146 3B       		.uleb128 0x3b
 3755 0147 0B       		.uleb128 0xb
 3756 0148 39       		.uleb128 0x39
 3757 0149 0B       		.uleb128 0xb
 3758 014a 49       		.uleb128 0x49
 3759 014b 13       		.uleb128 0x13
 3760 014c 3F       		.uleb128 0x3f
 3761 014d 19       		.uleb128 0x19
 3762 014e 3C       		.uleb128 0x3c
ARM GAS  /tmp/cchBrCOm.s 			page 67


 3763 014f 19       		.uleb128 0x19
 3764 0150 00       		.byte	0
 3765 0151 00       		.byte	0
 3766 0152 1B       		.uleb128 0x1b
 3767 0153 26       		.uleb128 0x26
 3768 0154 00       		.byte	0
 3769 0155 00       		.byte	0
 3770 0156 00       		.byte	0
 3771 0157 1C       		.uleb128 0x1c
 3772 0158 34       		.uleb128 0x34
 3773 0159 00       		.byte	0
 3774 015a 03       		.uleb128 0x3
 3775 015b 08       		.uleb128 0x8
 3776 015c 3A       		.uleb128 0x3a
 3777 015d 0B       		.uleb128 0xb
 3778 015e 3B       		.uleb128 0x3b
 3779 015f 0B       		.uleb128 0xb
 3780 0160 39       		.uleb128 0x39
 3781 0161 0B       		.uleb128 0xb
 3782 0162 49       		.uleb128 0x49
 3783 0163 13       		.uleb128 0x13
 3784 0164 02       		.uleb128 0x2
 3785 0165 18       		.uleb128 0x18
 3786 0166 00       		.byte	0
 3787 0167 00       		.byte	0
 3788 0168 1D       		.uleb128 0x1d
 3789 0169 2E       		.uleb128 0x2e
 3790 016a 01       		.byte	0x1
 3791 016b 3F       		.uleb128 0x3f
 3792 016c 19       		.uleb128 0x19
 3793 016d 03       		.uleb128 0x3
 3794 016e 0E       		.uleb128 0xe
 3795 016f 3A       		.uleb128 0x3a
 3796 0170 0B       		.uleb128 0xb
 3797 0171 3B       		.uleb128 0x3b
 3798 0172 0B       		.uleb128 0xb
 3799 0173 39       		.uleb128 0x39
 3800 0174 0B       		.uleb128 0xb
 3801 0175 27       		.uleb128 0x27
 3802 0176 19       		.uleb128 0x19
 3803 0177 49       		.uleb128 0x49
 3804 0178 13       		.uleb128 0x13
 3805 0179 11       		.uleb128 0x11
 3806 017a 01       		.uleb128 0x1
 3807 017b 12       		.uleb128 0x12
 3808 017c 06       		.uleb128 0x6
 3809 017d 40       		.uleb128 0x40
 3810 017e 18       		.uleb128 0x18
 3811 017f 9742     		.uleb128 0x2117
 3812 0181 19       		.uleb128 0x19
 3813 0182 01       		.uleb128 0x1
 3814 0183 13       		.uleb128 0x13
 3815 0184 00       		.byte	0
 3816 0185 00       		.byte	0
 3817 0186 1E       		.uleb128 0x1e
 3818 0187 05       		.uleb128 0x5
 3819 0188 00       		.byte	0
ARM GAS  /tmp/cchBrCOm.s 			page 68


 3820 0189 03       		.uleb128 0x3
 3821 018a 08       		.uleb128 0x8
 3822 018b 3A       		.uleb128 0x3a
 3823 018c 0B       		.uleb128 0xb
 3824 018d 3B       		.uleb128 0x3b
 3825 018e 0B       		.uleb128 0xb
 3826 018f 39       		.uleb128 0x39
 3827 0190 0B       		.uleb128 0xb
 3828 0191 49       		.uleb128 0x49
 3829 0192 13       		.uleb128 0x13
 3830 0193 02       		.uleb128 0x2
 3831 0194 17       		.uleb128 0x17
 3832 0195 B742     		.uleb128 0x2137
 3833 0197 17       		.uleb128 0x17
 3834 0198 00       		.byte	0
 3835 0199 00       		.byte	0
 3836 019a 1F       		.uleb128 0x1f
 3837 019b 34       		.uleb128 0x34
 3838 019c 00       		.byte	0
 3839 019d 03       		.uleb128 0x3
 3840 019e 08       		.uleb128 0x8
 3841 019f 3A       		.uleb128 0x3a
 3842 01a0 0B       		.uleb128 0xb
 3843 01a1 3B       		.uleb128 0x3b
 3844 01a2 0B       		.uleb128 0xb
 3845 01a3 39       		.uleb128 0x39
 3846 01a4 0B       		.uleb128 0xb
 3847 01a5 49       		.uleb128 0x49
 3848 01a6 13       		.uleb128 0x13
 3849 01a7 02       		.uleb128 0x2
 3850 01a8 17       		.uleb128 0x17
 3851 01a9 B742     		.uleb128 0x2137
 3852 01ab 17       		.uleb128 0x17
 3853 01ac 00       		.byte	0
 3854 01ad 00       		.byte	0
 3855 01ae 20       		.uleb128 0x20
 3856 01af 898201   		.uleb128 0x4109
 3857 01b2 01       		.byte	0x1
 3858 01b3 11       		.uleb128 0x11
 3859 01b4 01       		.uleb128 0x1
 3860 01b5 31       		.uleb128 0x31
 3861 01b6 13       		.uleb128 0x13
 3862 01b7 01       		.uleb128 0x1
 3863 01b8 13       		.uleb128 0x13
 3864 01b9 00       		.byte	0
 3865 01ba 00       		.byte	0
 3866 01bb 21       		.uleb128 0x21
 3867 01bc 8A8201   		.uleb128 0x410a
 3868 01bf 00       		.byte	0
 3869 01c0 02       		.uleb128 0x2
 3870 01c1 18       		.uleb128 0x18
 3871 01c2 9142     		.uleb128 0x2111
 3872 01c4 18       		.uleb128 0x18
 3873 01c5 00       		.byte	0
 3874 01c6 00       		.byte	0
 3875 01c7 22       		.uleb128 0x22
 3876 01c8 898201   		.uleb128 0x4109
ARM GAS  /tmp/cchBrCOm.s 			page 69


 3877 01cb 01       		.byte	0x1
 3878 01cc 11       		.uleb128 0x11
 3879 01cd 01       		.uleb128 0x1
 3880 01ce 31       		.uleb128 0x31
 3881 01cf 13       		.uleb128 0x13
 3882 01d0 00       		.byte	0
 3883 01d1 00       		.byte	0
 3884 01d2 23       		.uleb128 0x23
 3885 01d3 2E       		.uleb128 0x2e
 3886 01d4 01       		.byte	0x1
 3887 01d5 3F       		.uleb128 0x3f
 3888 01d6 19       		.uleb128 0x19
 3889 01d7 03       		.uleb128 0x3
 3890 01d8 0E       		.uleb128 0xe
 3891 01d9 3A       		.uleb128 0x3a
 3892 01da 0B       		.uleb128 0xb
 3893 01db 3B       		.uleb128 0x3b
 3894 01dc 0B       		.uleb128 0xb
 3895 01dd 39       		.uleb128 0x39
 3896 01de 0B       		.uleb128 0xb
 3897 01df 27       		.uleb128 0x27
 3898 01e0 19       		.uleb128 0x19
 3899 01e1 11       		.uleb128 0x11
 3900 01e2 01       		.uleb128 0x1
 3901 01e3 12       		.uleb128 0x12
 3902 01e4 06       		.uleb128 0x6
 3903 01e5 40       		.uleb128 0x40
 3904 01e6 18       		.uleb128 0x18
 3905 01e7 9742     		.uleb128 0x2117
 3906 01e9 19       		.uleb128 0x19
 3907 01ea 01       		.uleb128 0x1
 3908 01eb 13       		.uleb128 0x13
 3909 01ec 00       		.byte	0
 3910 01ed 00       		.byte	0
 3911 01ee 24       		.uleb128 0x24
 3912 01ef 898201   		.uleb128 0x4109
 3913 01f2 01       		.byte	0x1
 3914 01f3 11       		.uleb128 0x11
 3915 01f4 01       		.uleb128 0x1
 3916 01f5 9542     		.uleb128 0x2115
 3917 01f7 19       		.uleb128 0x19
 3918 01f8 31       		.uleb128 0x31
 3919 01f9 13       		.uleb128 0x13
 3920 01fa 01       		.uleb128 0x1
 3921 01fb 13       		.uleb128 0x13
 3922 01fc 00       		.byte	0
 3923 01fd 00       		.byte	0
 3924 01fe 25       		.uleb128 0x25
 3925 01ff 898201   		.uleb128 0x4109
 3926 0202 00       		.byte	0
 3927 0203 11       		.uleb128 0x11
 3928 0204 01       		.uleb128 0x1
 3929 0205 31       		.uleb128 0x31
 3930 0206 13       		.uleb128 0x13
 3931 0207 00       		.byte	0
 3932 0208 00       		.byte	0
 3933 0209 26       		.uleb128 0x26
ARM GAS  /tmp/cchBrCOm.s 			page 70


 3934 020a 05       		.uleb128 0x5
 3935 020b 00       		.byte	0
 3936 020c 03       		.uleb128 0x3
 3937 020d 0E       		.uleb128 0xe
 3938 020e 3A       		.uleb128 0x3a
 3939 020f 0B       		.uleb128 0xb
 3940 0210 3B       		.uleb128 0x3b
 3941 0211 0B       		.uleb128 0xb
 3942 0212 39       		.uleb128 0x39
 3943 0213 0B       		.uleb128 0xb
 3944 0214 49       		.uleb128 0x49
 3945 0215 13       		.uleb128 0x13
 3946 0216 02       		.uleb128 0x2
 3947 0217 17       		.uleb128 0x17
 3948 0218 B742     		.uleb128 0x2137
 3949 021a 17       		.uleb128 0x17
 3950 021b 00       		.byte	0
 3951 021c 00       		.byte	0
 3952 021d 27       		.uleb128 0x27
 3953 021e 898201   		.uleb128 0x4109
 3954 0221 00       		.byte	0
 3955 0222 11       		.uleb128 0x11
 3956 0223 01       		.uleb128 0x1
 3957 0224 9542     		.uleb128 0x2115
 3958 0226 19       		.uleb128 0x19
 3959 0227 31       		.uleb128 0x31
 3960 0228 13       		.uleb128 0x13
 3961 0229 00       		.byte	0
 3962 022a 00       		.byte	0
 3963 022b 28       		.uleb128 0x28
 3964 022c 2E       		.uleb128 0x2e
 3965 022d 01       		.byte	0x1
 3966 022e 03       		.uleb128 0x3
 3967 022f 0E       		.uleb128 0xe
 3968 0230 3A       		.uleb128 0x3a
 3969 0231 0B       		.uleb128 0xb
 3970 0232 3B       		.uleb128 0x3b
 3971 0233 0B       		.uleb128 0xb
 3972 0234 39       		.uleb128 0x39
 3973 0235 0B       		.uleb128 0xb
 3974 0236 27       		.uleb128 0x27
 3975 0237 19       		.uleb128 0x19
 3976 0238 49       		.uleb128 0x49
 3977 0239 13       		.uleb128 0x13
 3978 023a 11       		.uleb128 0x11
 3979 023b 01       		.uleb128 0x1
 3980 023c 12       		.uleb128 0x12
 3981 023d 06       		.uleb128 0x6
 3982 023e 40       		.uleb128 0x40
 3983 023f 18       		.uleb128 0x18
 3984 0240 9742     		.uleb128 0x2117
 3985 0242 19       		.uleb128 0x19
 3986 0243 01       		.uleb128 0x1
 3987 0244 13       		.uleb128 0x13
 3988 0245 00       		.byte	0
 3989 0246 00       		.byte	0
 3990 0247 29       		.uleb128 0x29
ARM GAS  /tmp/cchBrCOm.s 			page 71


 3991 0248 898201   		.uleb128 0x4109
 3992 024b 01       		.byte	0x1
 3993 024c 11       		.uleb128 0x11
 3994 024d 01       		.uleb128 0x1
 3995 024e 9542     		.uleb128 0x2115
 3996 0250 19       		.uleb128 0x19
 3997 0251 31       		.uleb128 0x31
 3998 0252 13       		.uleb128 0x13
 3999 0253 00       		.byte	0
 4000 0254 00       		.byte	0
 4001 0255 2A       		.uleb128 0x2a
 4002 0256 2E       		.uleb128 0x2e
 4003 0257 01       		.byte	0x1
 4004 0258 03       		.uleb128 0x3
 4005 0259 08       		.uleb128 0x8
 4006 025a 3A       		.uleb128 0x3a
 4007 025b 0B       		.uleb128 0xb
 4008 025c 3B       		.uleb128 0x3b
 4009 025d 0B       		.uleb128 0xb
 4010 025e 39       		.uleb128 0x39
 4011 025f 0B       		.uleb128 0xb
 4012 0260 27       		.uleb128 0x27
 4013 0261 19       		.uleb128 0x19
 4014 0262 49       		.uleb128 0x49
 4015 0263 13       		.uleb128 0x13
 4016 0264 11       		.uleb128 0x11
 4017 0265 01       		.uleb128 0x1
 4018 0266 12       		.uleb128 0x12
 4019 0267 06       		.uleb128 0x6
 4020 0268 40       		.uleb128 0x40
 4021 0269 18       		.uleb128 0x18
 4022 026a 9742     		.uleb128 0x2117
 4023 026c 19       		.uleb128 0x19
 4024 026d 01       		.uleb128 0x1
 4025 026e 13       		.uleb128 0x13
 4026 026f 00       		.byte	0
 4027 0270 00       		.byte	0
 4028 0271 2B       		.uleb128 0x2b
 4029 0272 2E       		.uleb128 0x2e
 4030 0273 00       		.byte	0
 4031 0274 3F       		.uleb128 0x3f
 4032 0275 19       		.uleb128 0x19
 4033 0276 3C       		.uleb128 0x3c
 4034 0277 19       		.uleb128 0x19
 4035 0278 6E       		.uleb128 0x6e
 4036 0279 0E       		.uleb128 0xe
 4037 027a 03       		.uleb128 0x3
 4038 027b 0E       		.uleb128 0xe
 4039 027c 3A       		.uleb128 0x3a
 4040 027d 0B       		.uleb128 0xb
 4041 027e 3B       		.uleb128 0x3b
 4042 027f 05       		.uleb128 0x5
 4043 0280 39       		.uleb128 0x39
 4044 0281 0B       		.uleb128 0xb
 4045 0282 00       		.byte	0
 4046 0283 00       		.byte	0
 4047 0284 2C       		.uleb128 0x2c
ARM GAS  /tmp/cchBrCOm.s 			page 72


 4048 0285 2E       		.uleb128 0x2e
 4049 0286 00       		.byte	0
 4050 0287 3F       		.uleb128 0x3f
 4051 0288 19       		.uleb128 0x19
 4052 0289 3C       		.uleb128 0x3c
 4053 028a 19       		.uleb128 0x19
 4054 028b 6E       		.uleb128 0x6e
 4055 028c 0E       		.uleb128 0xe
 4056 028d 03       		.uleb128 0x3
 4057 028e 0E       		.uleb128 0xe
 4058 028f 3A       		.uleb128 0x3a
 4059 0290 0B       		.uleb128 0xb
 4060 0291 3B       		.uleb128 0x3b
 4061 0292 0B       		.uleb128 0xb
 4062 0293 39       		.uleb128 0x39
 4063 0294 0B       		.uleb128 0xb
 4064 0295 00       		.byte	0
 4065 0296 00       		.byte	0
 4066 0297 00       		.byte	0
 4067              		.section	.debug_loc,"",%progbits
 4068              	.Ldebug_loc0:
 4069              	.LVUS30:
 4070 0000 00       		.uleb128 0
 4071 0001 00       		.uleb128 .LVU133
 4072 0002 00       		.uleb128 .LVU133
 4073 0003 00       		.uleb128 0
 4074              	.LLST30:
 4075 0004 00000000 		.4byte	.LVL47
 4076 0008 0C000000 		.4byte	.LVL48
 4077 000c 0100     		.2byte	0x1
 4078 000e 50       		.byte	0x50
 4079 000f 0C000000 		.4byte	.LVL48
 4080 0013 34000000 		.4byte	.LFE20
 4081 0017 0100     		.2byte	0x1
 4082 0019 55       		.byte	0x55
 4083 001a 00000000 		.4byte	0
 4084 001e 00000000 		.4byte	0
 4085              	.LVUS31:
 4086 0022 00       		.uleb128 .LVU134
 4087 0023 00       		.uleb128 0
 4088              	.LLST31:
 4089 0024 10000000 		.4byte	.LVL49
 4090 0028 34000000 		.4byte	.LFE20
 4091 002c 0100     		.2byte	0x1
 4092 002e 50       		.byte	0x50
 4093 002f 00000000 		.4byte	0
 4094 0033 00000000 		.4byte	0
 4095              	.LVUS28:
 4096 0037 00       		.uleb128 0
 4097 0038 00       		.uleb128 .LVU113
 4098 0039 00       		.uleb128 .LVU113
 4099 003a 00       		.uleb128 .LVU119
 4100 003b 00       		.uleb128 .LVU119
 4101 003c 00       		.uleb128 .LVU120
 4102 003d 00       		.uleb128 .LVU120
 4103 003e 00       		.uleb128 .LVU120
 4104 003f 00       		.uleb128 .LVU120
ARM GAS  /tmp/cchBrCOm.s 			page 73


 4105 0040 00       		.uleb128 .LVU122
 4106 0041 00       		.uleb128 .LVU122
 4107 0042 00       		.uleb128 0
 4108              	.LLST28:
 4109 0043 00000000 		.4byte	.LVL39
 4110 0047 18000000 		.4byte	.LVL40
 4111 004b 0100     		.2byte	0x1
 4112 004d 50       		.byte	0x50
 4113 004e 18000000 		.4byte	.LVL40
 4114 0052 38000000 		.4byte	.LVL42
 4115 0056 0100     		.2byte	0x1
 4116 0058 54       		.byte	0x54
 4117 0059 38000000 		.4byte	.LVL42
 4118 005d 3B000000 		.4byte	.LVL43-1
 4119 0061 0300     		.2byte	0x3
 4120 0063 70       		.byte	0x70
 4121 0064 7C       		.sleb128 -4
 4122 0065 9F       		.byte	0x9f
 4123 0066 3B000000 		.4byte	.LVL43-1
 4124 006a 3C000000 		.4byte	.LVL43
 4125 006e 0400     		.2byte	0x4
 4126 0070 F3       		.byte	0xf3
 4127 0071 01       		.uleb128 0x1
 4128 0072 50       		.byte	0x50
 4129 0073 9F       		.byte	0x9f
 4130 0074 3C000000 		.4byte	.LVL43
 4131 0078 44000000 		.4byte	.LVL45
 4132 007c 0100     		.2byte	0x1
 4133 007e 50       		.byte	0x50
 4134 007f 44000000 		.4byte	.LVL45
 4135 0083 4C000000 		.4byte	.LFE19
 4136 0087 0100     		.2byte	0x1
 4137 0089 54       		.byte	0x54
 4138 008a 00000000 		.4byte	0
 4139 008e 00000000 		.4byte	0
 4140              	.LVUS29:
 4141 0092 00       		.uleb128 0
 4142 0093 00       		.uleb128 .LVU113
 4143 0094 00       		.uleb128 .LVU113
 4144 0095 00       		.uleb128 .LVU120
 4145 0096 00       		.uleb128 .LVU120
 4146 0097 00       		.uleb128 .LVU121
 4147 0098 00       		.uleb128 .LVU121
 4148 0099 00       		.uleb128 0
 4149              	.LLST29:
 4150 009a 00000000 		.4byte	.LVL39
 4151 009e 18000000 		.4byte	.LVL40
 4152 00a2 0100     		.2byte	0x1
 4153 00a4 51       		.byte	0x51
 4154 00a5 18000000 		.4byte	.LVL40
 4155 00a9 3C000000 		.4byte	.LVL43
 4156 00ad 0400     		.2byte	0x4
 4157 00af F3       		.byte	0xf3
 4158 00b0 01       		.uleb128 0x1
 4159 00b1 51       		.byte	0x51
 4160 00b2 9F       		.byte	0x9f
 4161 00b3 3C000000 		.4byte	.LVL43
ARM GAS  /tmp/cchBrCOm.s 			page 74


 4162 00b7 40000000 		.4byte	.LVL44
 4163 00bb 0100     		.2byte	0x1
 4164 00bd 51       		.byte	0x51
 4165 00be 40000000 		.4byte	.LVL44
 4166 00c2 4C000000 		.4byte	.LFE19
 4167 00c6 0400     		.2byte	0x4
 4168 00c8 F3       		.byte	0xf3
 4169 00c9 01       		.uleb128 0x1
 4170 00ca 51       		.byte	0x51
 4171 00cb 9F       		.byte	0x9f
 4172 00cc 00000000 		.4byte	0
 4173 00d0 00000000 		.4byte	0
 4174              	.LVUS27:
 4175 00d4 00       		.uleb128 0
 4176 00d5 00       		.uleb128 .LVU91
 4177 00d6 00       		.uleb128 .LVU91
 4178 00d7 00       		.uleb128 0
 4179              	.LLST27:
 4180 00d8 00000000 		.4byte	.LVL34
 4181 00dc 0F000000 		.4byte	.LVL35-1
 4182 00e0 0100     		.2byte	0x1
 4183 00e2 50       		.byte	0x50
 4184 00e3 0F000000 		.4byte	.LVL35-1
 4185 00e7 34000000 		.4byte	.LFE18
 4186 00eb 0100     		.2byte	0x1
 4187 00ed 54       		.byte	0x54
 4188 00ee 00000000 		.4byte	0
 4189 00f2 00000000 		.4byte	0
 4190              	.LVUS25:
 4191 00f6 00       		.uleb128 0
 4192 00f7 00       		.uleb128 .LVU73
 4193 00f8 00       		.uleb128 .LVU73
 4194 00f9 00       		.uleb128 0
 4195              	.LLST25:
 4196 00fa 00000000 		.4byte	.LVL32
 4197 00fe 0F000000 		.4byte	.LVL33-1
 4198 0102 0100     		.2byte	0x1
 4199 0104 50       		.byte	0x50
 4200 0105 0F000000 		.4byte	.LVL33-1
 4201 0109 20000000 		.4byte	.LFE17
 4202 010d 0100     		.2byte	0x1
 4203 010f 54       		.byte	0x54
 4204 0110 00000000 		.4byte	0
 4205 0114 00000000 		.4byte	0
 4206              	.LVUS26:
 4207 0118 00       		.uleb128 0
 4208 0119 00       		.uleb128 .LVU73
 4209 011a 00       		.uleb128 .LVU73
 4210 011b 00       		.uleb128 0
 4211              	.LLST26:
 4212 011c 00000000 		.4byte	.LVL32
 4213 0120 0F000000 		.4byte	.LVL33-1
 4214 0124 0100     		.2byte	0x1
 4215 0126 51       		.byte	0x51
 4216 0127 0F000000 		.4byte	.LVL33-1
 4217 012b 20000000 		.4byte	.LFE17
 4218 012f 0400     		.2byte	0x4
ARM GAS  /tmp/cchBrCOm.s 			page 75


 4219 0131 F3       		.byte	0xf3
 4220 0132 01       		.uleb128 0x1
 4221 0133 51       		.byte	0x51
 4222 0134 9F       		.byte	0x9f
 4223 0135 00000000 		.4byte	0
 4224 0139 00000000 		.4byte	0
 4225              	.LVUS22:
 4226 013d 00       		.uleb128 0
 4227 013e 00       		.uleb128 .LVU51
 4228 013f 00       		.uleb128 .LVU51
 4229 0140 00       		.uleb128 .LVU60
 4230 0141 00       		.uleb128 .LVU60
 4231 0142 00       		.uleb128 0
 4232              	.LLST22:
 4233 0143 00000000 		.4byte	.LVL25
 4234 0147 20000000 		.4byte	.LVL27
 4235 014b 0100     		.2byte	0x1
 4236 014d 50       		.byte	0x50
 4237 014e 20000000 		.4byte	.LVL27
 4238 0152 5C000000 		.4byte	.LVL31
 4239 0156 0100     		.2byte	0x1
 4240 0158 54       		.byte	0x54
 4241 0159 5C000000 		.4byte	.LVL31
 4242 015d 60000000 		.4byte	.LFE16
 4243 0161 0400     		.2byte	0x4
 4244 0163 F3       		.byte	0xf3
 4245 0164 01       		.uleb128 0x1
 4246 0165 50       		.byte	0x50
 4247 0166 9F       		.byte	0x9f
 4248 0167 00000000 		.4byte	0
 4249 016b 00000000 		.4byte	0
 4250              	.LVUS23:
 4251 016f 00       		.uleb128 0
 4252 0170 00       		.uleb128 .LVU57
 4253 0171 00       		.uleb128 .LVU57
 4254 0172 00       		.uleb128 .LVU58
 4255 0173 00       		.uleb128 .LVU58
 4256 0174 00       		.uleb128 0
 4257              	.LLST23:
 4258 0175 00000000 		.4byte	.LVL25
 4259 0179 30000000 		.4byte	.LVL28
 4260 017d 0100     		.2byte	0x1
 4261 017f 51       		.byte	0x51
 4262 0180 30000000 		.4byte	.LVL28
 4263 0184 3B000000 		.4byte	.LVL29-1
 4264 0188 0100     		.2byte	0x1
 4265 018a 53       		.byte	0x53
 4266 018b 3B000000 		.4byte	.LVL29-1
 4267 018f 60000000 		.4byte	.LFE16
 4268 0193 0400     		.2byte	0x4
 4269 0195 F3       		.byte	0xf3
 4270 0196 01       		.uleb128 0x1
 4271 0197 51       		.byte	0x51
 4272 0198 9F       		.byte	0x9f
 4273 0199 00000000 		.4byte	0
 4274 019d 00000000 		.4byte	0
 4275              	.LVUS24:
ARM GAS  /tmp/cchBrCOm.s 			page 76


 4276 01a1 00       		.uleb128 0
 4277 01a2 00       		.uleb128 .LVU48
 4278 01a3 00       		.uleb128 .LVU48
 4279 01a4 00       		.uleb128 .LVU60
 4280 01a5 00       		.uleb128 .LVU60
 4281 01a6 00       		.uleb128 0
 4282              	.LLST24:
 4283 01a7 00000000 		.4byte	.LVL25
 4284 01ab 14000000 		.4byte	.LVL26
 4285 01af 0100     		.2byte	0x1
 4286 01b1 52       		.byte	0x52
 4287 01b2 14000000 		.4byte	.LVL26
 4288 01b6 5C000000 		.4byte	.LVL31
 4289 01ba 0100     		.2byte	0x1
 4290 01bc 55       		.byte	0x55
 4291 01bd 5C000000 		.4byte	.LVL31
 4292 01c1 60000000 		.4byte	.LFE16
 4293 01c5 0400     		.2byte	0x4
 4294 01c7 F3       		.byte	0xf3
 4295 01c8 01       		.uleb128 0x1
 4296 01c9 52       		.byte	0x52
 4297 01ca 9F       		.byte	0x9f
 4298 01cb 00000000 		.4byte	0
 4299 01cf 00000000 		.4byte	0
 4300              	.LVUS0:
 4301 01d3 00       		.uleb128 0
 4302 01d4 00       		.uleb128 .LVU3
 4303 01d5 00       		.uleb128 .LVU3
 4304 01d6 00       		.uleb128 .LVU4
 4305 01d7 00       		.uleb128 .LVU4
 4306 01d8 00       		.uleb128 0
 4307              	.LLST0:
 4308 01d9 00000000 		.4byte	.LVL0
 4309 01dd 04000000 		.4byte	.LVL1
 4310 01e1 0100     		.2byte	0x1
 4311 01e3 50       		.byte	0x50
 4312 01e4 04000000 		.4byte	.LVL1
 4313 01e8 07000000 		.4byte	.LVL2-1
 4314 01ec 0300     		.2byte	0x3
 4315 01ee 70       		.byte	0x70
 4316 01ef 74       		.sleb128 -12
 4317 01f0 9F       		.byte	0x9f
 4318 01f1 07000000 		.4byte	.LVL2-1
 4319 01f5 08000000 		.4byte	.LFE14
 4320 01f9 0400     		.2byte	0x4
 4321 01fb F3       		.byte	0xf3
 4322 01fc 01       		.uleb128 0x1
 4323 01fd 50       		.byte	0x50
 4324 01fe 9F       		.byte	0x9f
 4325 01ff 00000000 		.4byte	0
 4326 0203 00000000 		.4byte	0
 4327              	.LVUS1:
 4328 0207 00       		.uleb128 0
 4329 0208 00       		.uleb128 .LVU4
 4330 0209 00       		.uleb128 .LVU4
 4331 020a 00       		.uleb128 0
 4332              	.LLST1:
ARM GAS  /tmp/cchBrCOm.s 			page 77


 4333 020b 00000000 		.4byte	.LVL0
 4334 020f 07000000 		.4byte	.LVL2-1
 4335 0213 0100     		.2byte	0x1
 4336 0215 51       		.byte	0x51
 4337 0216 07000000 		.4byte	.LVL2-1
 4338 021a 08000000 		.4byte	.LFE14
 4339 021e 0400     		.2byte	0x4
 4340 0220 F3       		.byte	0xf3
 4341 0221 01       		.uleb128 0x1
 4342 0222 51       		.byte	0x51
 4343 0223 9F       		.byte	0x9f
 4344 0224 00000000 		.4byte	0
 4345 0228 00000000 		.4byte	0
 4346              	.LVUS2:
 4347 022c 00       		.uleb128 0
 4348 022d 00       		.uleb128 .LVU4
 4349 022e 00       		.uleb128 .LVU4
 4350 022f 00       		.uleb128 0
 4351              	.LLST2:
 4352 0230 00000000 		.4byte	.LVL0
 4353 0234 07000000 		.4byte	.LVL2-1
 4354 0238 0100     		.2byte	0x1
 4355 023a 52       		.byte	0x52
 4356 023b 07000000 		.4byte	.LVL2-1
 4357 023f 08000000 		.4byte	.LFE14
 4358 0243 0400     		.2byte	0x4
 4359 0245 F3       		.byte	0xf3
 4360 0246 01       		.uleb128 0x1
 4361 0247 52       		.byte	0x52
 4362 0248 9F       		.byte	0x9f
 4363 0249 00000000 		.4byte	0
 4364 024d 00000000 		.4byte	0
 4365              	.LVUS3:
 4366 0251 00       		.uleb128 0
 4367 0252 00       		.uleb128 .LVU4
 4368 0253 00       		.uleb128 .LVU4
 4369 0254 00       		.uleb128 0
 4370              	.LLST3:
 4371 0255 00000000 		.4byte	.LVL0
 4372 0259 07000000 		.4byte	.LVL2-1
 4373 025d 0100     		.2byte	0x1
 4374 025f 53       		.byte	0x53
 4375 0260 07000000 		.4byte	.LVL2-1
 4376 0264 08000000 		.4byte	.LFE14
 4377 0268 0400     		.2byte	0x4
 4378 026a F3       		.byte	0xf3
 4379 026b 01       		.uleb128 0x1
 4380 026c 53       		.byte	0x53
 4381 026d 9F       		.byte	0x9f
 4382 026e 00000000 		.4byte	0
 4383 0272 00000000 		.4byte	0
 4384              	.LVUS7:
 4385 0276 00       		.uleb128 0
 4386 0277 00       		.uleb128 .LVU13
 4387 0278 00       		.uleb128 .LVU13
 4388 0279 00       		.uleb128 .LVU14
 4389 027a 00       		.uleb128 .LVU14
ARM GAS  /tmp/cchBrCOm.s 			page 78


 4390 027b 00       		.uleb128 0
 4391              	.LLST7:
 4392 027c 00000000 		.4byte	.LVL6
 4393 0280 04000000 		.4byte	.LVL7
 4394 0284 0100     		.2byte	0x1
 4395 0286 50       		.byte	0x50
 4396 0287 04000000 		.4byte	.LVL7
 4397 028b 07000000 		.4byte	.LVL8-1
 4398 028f 0300     		.2byte	0x3
 4399 0291 70       		.byte	0x70
 4400 0292 50       		.sleb128 -48
 4401 0293 9F       		.byte	0x9f
 4402 0294 07000000 		.4byte	.LVL8-1
 4403 0298 08000000 		.4byte	.LFE13
 4404 029c 0400     		.2byte	0x4
 4405 029e F3       		.byte	0xf3
 4406 029f 01       		.uleb128 0x1
 4407 02a0 50       		.byte	0x50
 4408 02a1 9F       		.byte	0x9f
 4409 02a2 00000000 		.4byte	0
 4410 02a6 00000000 		.4byte	0
 4411              	.LVUS8:
 4412 02aa 00       		.uleb128 0
 4413 02ab 00       		.uleb128 .LVU14
 4414 02ac 00       		.uleb128 .LVU14
 4415 02ad 00       		.uleb128 0
 4416              	.LLST8:
 4417 02ae 00000000 		.4byte	.LVL6
 4418 02b2 07000000 		.4byte	.LVL8-1
 4419 02b6 0100     		.2byte	0x1
 4420 02b8 51       		.byte	0x51
 4421 02b9 07000000 		.4byte	.LVL8-1
 4422 02bd 08000000 		.4byte	.LFE13
 4423 02c1 0400     		.2byte	0x4
 4424 02c3 F3       		.byte	0xf3
 4425 02c4 01       		.uleb128 0x1
 4426 02c5 51       		.byte	0x51
 4427 02c6 9F       		.byte	0x9f
 4428 02c7 00000000 		.4byte	0
 4429 02cb 00000000 		.4byte	0
 4430              	.LVUS9:
 4431 02cf 00       		.uleb128 0
 4432 02d0 00       		.uleb128 .LVU14
 4433 02d1 00       		.uleb128 .LVU14
 4434 02d2 00       		.uleb128 0
 4435              	.LLST9:
 4436 02d3 00000000 		.4byte	.LVL6
 4437 02d7 07000000 		.4byte	.LVL8-1
 4438 02db 0100     		.2byte	0x1
 4439 02dd 52       		.byte	0x52
 4440 02de 07000000 		.4byte	.LVL8-1
 4441 02e2 08000000 		.4byte	.LFE13
 4442 02e6 0400     		.2byte	0x4
 4443 02e8 F3       		.byte	0xf3
 4444 02e9 01       		.uleb128 0x1
 4445 02ea 52       		.byte	0x52
 4446 02eb 9F       		.byte	0x9f
ARM GAS  /tmp/cchBrCOm.s 			page 79


 4447 02ec 00000000 		.4byte	0
 4448 02f0 00000000 		.4byte	0
 4449              	.LVUS10:
 4450 02f4 00       		.uleb128 0
 4451 02f5 00       		.uleb128 .LVU14
 4452 02f6 00       		.uleb128 .LVU14
 4453 02f7 00       		.uleb128 0
 4454              	.LLST10:
 4455 02f8 00000000 		.4byte	.LVL6
 4456 02fc 07000000 		.4byte	.LVL8-1
 4457 0300 0100     		.2byte	0x1
 4458 0302 53       		.byte	0x53
 4459 0303 07000000 		.4byte	.LVL8-1
 4460 0307 08000000 		.4byte	.LFE13
 4461 030b 0400     		.2byte	0x4
 4462 030d F3       		.byte	0xf3
 4463 030e 01       		.uleb128 0x1
 4464 030f 53       		.byte	0x53
 4465 0310 9F       		.byte	0x9f
 4466 0311 00000000 		.4byte	0
 4467 0315 00000000 		.4byte	0
 4468              	.LVUS14:
 4469 0319 00       		.uleb128 0
 4470 031a 00       		.uleb128 .LVU23
 4471 031b 00       		.uleb128 .LVU23
 4472 031c 00       		.uleb128 .LVU24
 4473 031d 00       		.uleb128 .LVU24
 4474 031e 00       		.uleb128 0
 4475              	.LLST14:
 4476 031f 00000000 		.4byte	.LVL12
 4477 0323 04000000 		.4byte	.LVL13
 4478 0327 0100     		.2byte	0x1
 4479 0329 50       		.byte	0x50
 4480 032a 04000000 		.4byte	.LVL13
 4481 032e 07000000 		.4byte	.LVL14-1
 4482 0332 0300     		.2byte	0x3
 4483 0334 70       		.byte	0x70
 4484 0335 74       		.sleb128 -12
 4485 0336 9F       		.byte	0x9f
 4486 0337 07000000 		.4byte	.LVL14-1
 4487 033b 08000000 		.4byte	.LFE12
 4488 033f 0400     		.2byte	0x4
 4489 0341 F3       		.byte	0xf3
 4490 0342 01       		.uleb128 0x1
 4491 0343 50       		.byte	0x50
 4492 0344 9F       		.byte	0x9f
 4493 0345 00000000 		.4byte	0
 4494 0349 00000000 		.4byte	0
 4495              	.LVUS15:
 4496 034d 00       		.uleb128 0
 4497 034e 00       		.uleb128 .LVU24
 4498 034f 00       		.uleb128 .LVU24
 4499 0350 00       		.uleb128 0
 4500              	.LLST15:
 4501 0351 00000000 		.4byte	.LVL12
 4502 0355 07000000 		.4byte	.LVL14-1
 4503 0359 0100     		.2byte	0x1
ARM GAS  /tmp/cchBrCOm.s 			page 80


 4504 035b 51       		.byte	0x51
 4505 035c 07000000 		.4byte	.LVL14-1
 4506 0360 08000000 		.4byte	.LFE12
 4507 0364 0400     		.2byte	0x4
 4508 0366 F3       		.byte	0xf3
 4509 0367 01       		.uleb128 0x1
 4510 0368 51       		.byte	0x51
 4511 0369 9F       		.byte	0x9f
 4512 036a 00000000 		.4byte	0
 4513 036e 00000000 		.4byte	0
 4514              	.LVUS17:
 4515 0372 00       		.uleb128 0
 4516 0373 00       		.uleb128 .LVU33
 4517 0374 00       		.uleb128 .LVU33
 4518 0375 00       		.uleb128 .LVU34
 4519 0376 00       		.uleb128 .LVU34
 4520 0377 00       		.uleb128 0
 4521              	.LLST17:
 4522 0378 00000000 		.4byte	.LVL18
 4523 037c 04000000 		.4byte	.LVL19
 4524 0380 0100     		.2byte	0x1
 4525 0382 50       		.byte	0x50
 4526 0383 04000000 		.4byte	.LVL19
 4527 0387 07000000 		.4byte	.LVL20-1
 4528 038b 0300     		.2byte	0x3
 4529 038d 70       		.byte	0x70
 4530 038e 50       		.sleb128 -48
 4531 038f 9F       		.byte	0x9f
 4532 0390 07000000 		.4byte	.LVL20-1
 4533 0394 08000000 		.4byte	.LFE11
 4534 0398 0400     		.2byte	0x4
 4535 039a F3       		.byte	0xf3
 4536 039b 01       		.uleb128 0x1
 4537 039c 50       		.byte	0x50
 4538 039d 9F       		.byte	0x9f
 4539 039e 00000000 		.4byte	0
 4540 03a2 00000000 		.4byte	0
 4541              	.LVUS18:
 4542 03a6 00       		.uleb128 0
 4543 03a7 00       		.uleb128 .LVU34
 4544 03a8 00       		.uleb128 .LVU34
 4545 03a9 00       		.uleb128 0
 4546              	.LLST18:
 4547 03aa 00000000 		.4byte	.LVL18
 4548 03ae 07000000 		.4byte	.LVL20-1
 4549 03b2 0100     		.2byte	0x1
 4550 03b4 51       		.byte	0x51
 4551 03b5 07000000 		.4byte	.LVL20-1
 4552 03b9 08000000 		.4byte	.LFE11
 4553 03bd 0400     		.2byte	0x4
 4554 03bf F3       		.byte	0xf3
 4555 03c0 01       		.uleb128 0x1
 4556 03c1 51       		.byte	0x51
 4557 03c2 9F       		.byte	0x9f
 4558 03c3 00000000 		.4byte	0
 4559 03c7 00000000 		.4byte	0
 4560              	.LVUS19:
ARM GAS  /tmp/cchBrCOm.s 			page 81


 4561 03cb 00       		.uleb128 0
 4562 03cc 00       		.uleb128 .LVU34
 4563 03cd 00       		.uleb128 .LVU34
 4564 03ce 00       		.uleb128 0
 4565              	.LLST19:
 4566 03cf 00000000 		.4byte	.LVL18
 4567 03d3 07000000 		.4byte	.LVL20-1
 4568 03d7 0100     		.2byte	0x1
 4569 03d9 52       		.byte	0x52
 4570 03da 07000000 		.4byte	.LVL20-1
 4571 03de 08000000 		.4byte	.LFE11
 4572 03e2 0400     		.2byte	0x4
 4573 03e4 F3       		.byte	0xf3
 4574 03e5 01       		.uleb128 0x1
 4575 03e6 52       		.byte	0x52
 4576 03e7 9F       		.byte	0x9f
 4577 03e8 00000000 		.4byte	0
 4578 03ec 00000000 		.4byte	0
 4579              	.LVUS16:
 4580 03f0 00       		.uleb128 0
 4581 03f1 00       		.uleb128 .LVU28
 4582 03f2 00       		.uleb128 .LVU28
 4583 03f3 00       		.uleb128 .LVU29
 4584 03f4 00       		.uleb128 .LVU29
 4585 03f5 00       		.uleb128 0
 4586              	.LLST16:
 4587 03f6 00000000 		.4byte	.LVL15
 4588 03fa 08000000 		.4byte	.LVL16
 4589 03fe 0100     		.2byte	0x1
 4590 0400 50       		.byte	0x50
 4591 0401 08000000 		.4byte	.LVL16
 4592 0405 0B000000 		.4byte	.LVL17-1
 4593 0409 0300     		.2byte	0x3
 4594 040b 70       		.byte	0x70
 4595 040c 74       		.sleb128 -12
 4596 040d 9F       		.byte	0x9f
 4597 040e 0B000000 		.4byte	.LVL17-1
 4598 0412 0C000000 		.4byte	.LFE10
 4599 0416 0400     		.2byte	0x4
 4600 0418 F3       		.byte	0xf3
 4601 0419 01       		.uleb128 0x1
 4602 041a 50       		.byte	0x50
 4603 041b 9F       		.byte	0x9f
 4604 041c 00000000 		.4byte	0
 4605 0420 00000000 		.4byte	0
 4606              	.LVUS20:
 4607 0424 00       		.uleb128 0
 4608 0425 00       		.uleb128 .LVU38
 4609 0426 00       		.uleb128 .LVU38
 4610 0427 00       		.uleb128 .LVU39
 4611 0428 00       		.uleb128 .LVU39
 4612 0429 00       		.uleb128 0
 4613              	.LLST20:
 4614 042a 00000000 		.4byte	.LVL21
 4615 042e 08000000 		.4byte	.LVL22
 4616 0432 0100     		.2byte	0x1
 4617 0434 50       		.byte	0x50
ARM GAS  /tmp/cchBrCOm.s 			page 82


 4618 0435 08000000 		.4byte	.LVL22
 4619 0439 0B000000 		.4byte	.LVL23-1
 4620 043d 0300     		.2byte	0x3
 4621 043f 70       		.byte	0x70
 4622 0440 50       		.sleb128 -48
 4623 0441 9F       		.byte	0x9f
 4624 0442 0B000000 		.4byte	.LVL23-1
 4625 0446 0C000000 		.4byte	.LFE9
 4626 044a 0400     		.2byte	0x4
 4627 044c F3       		.byte	0xf3
 4628 044d 01       		.uleb128 0x1
 4629 044e 50       		.byte	0x50
 4630 044f 9F       		.byte	0x9f
 4631 0450 00000000 		.4byte	0
 4632 0454 00000000 		.4byte	0
 4633              	.LVUS21:
 4634 0458 00       		.uleb128 0
 4635 0459 00       		.uleb128 .LVU39
 4636 045a 00       		.uleb128 .LVU39
 4637 045b 00       		.uleb128 0
 4638              	.LLST21:
 4639 045c 00000000 		.4byte	.LVL21
 4640 0460 0B000000 		.4byte	.LVL23-1
 4641 0464 0100     		.2byte	0x1
 4642 0466 51       		.byte	0x51
 4643 0467 0B000000 		.4byte	.LVL23-1
 4644 046b 0C000000 		.4byte	.LFE9
 4645 046f 0400     		.2byte	0x4
 4646 0471 F3       		.byte	0xf3
 4647 0472 01       		.uleb128 0x1
 4648 0473 51       		.byte	0x51
 4649 0474 9F       		.byte	0x9f
 4650 0475 00000000 		.4byte	0
 4651 0479 00000000 		.4byte	0
 4652              	.LVUS4:
 4653 047d 00       		.uleb128 0
 4654 047e 00       		.uleb128 .LVU8
 4655 047f 00       		.uleb128 .LVU8
 4656 0480 00       		.uleb128 .LVU9
 4657 0481 00       		.uleb128 .LVU9
 4658 0482 00       		.uleb128 0
 4659              	.LLST4:
 4660 0483 00000000 		.4byte	.LVL3
 4661 0487 08000000 		.4byte	.LVL4
 4662 048b 0100     		.2byte	0x1
 4663 048d 50       		.byte	0x50
 4664 048e 08000000 		.4byte	.LVL4
 4665 0492 0B000000 		.4byte	.LVL5-1
 4666 0496 0300     		.2byte	0x3
 4667 0498 70       		.byte	0x70
 4668 0499 74       		.sleb128 -12
 4669 049a 9F       		.byte	0x9f
 4670 049b 0B000000 		.4byte	.LVL5-1
 4671 049f 0C000000 		.4byte	.LFE8
 4672 04a3 0400     		.2byte	0x4
 4673 04a5 F3       		.byte	0xf3
 4674 04a6 01       		.uleb128 0x1
ARM GAS  /tmp/cchBrCOm.s 			page 83


 4675 04a7 50       		.byte	0x50
 4676 04a8 9F       		.byte	0x9f
 4677 04a9 00000000 		.4byte	0
 4678 04ad 00000000 		.4byte	0
 4679              	.LVUS5:
 4680 04b1 00       		.uleb128 0
 4681 04b2 00       		.uleb128 .LVU9
 4682 04b3 00       		.uleb128 .LVU9
 4683 04b4 00       		.uleb128 0
 4684              	.LLST5:
 4685 04b5 00000000 		.4byte	.LVL3
 4686 04b9 0B000000 		.4byte	.LVL5-1
 4687 04bd 0100     		.2byte	0x1
 4688 04bf 51       		.byte	0x51
 4689 04c0 0B000000 		.4byte	.LVL5-1
 4690 04c4 0C000000 		.4byte	.LFE8
 4691 04c8 0400     		.2byte	0x4
 4692 04ca F3       		.byte	0xf3
 4693 04cb 01       		.uleb128 0x1
 4694 04cc 51       		.byte	0x51
 4695 04cd 9F       		.byte	0x9f
 4696 04ce 00000000 		.4byte	0
 4697 04d2 00000000 		.4byte	0
 4698              	.LVUS6:
 4699 04d6 00       		.uleb128 0
 4700 04d7 00       		.uleb128 .LVU9
 4701 04d8 00       		.uleb128 .LVU9
 4702 04d9 00       		.uleb128 0
 4703              	.LLST6:
 4704 04da 00000000 		.4byte	.LVL3
 4705 04de 0B000000 		.4byte	.LVL5-1
 4706 04e2 0100     		.2byte	0x1
 4707 04e4 52       		.byte	0x52
 4708 04e5 0B000000 		.4byte	.LVL5-1
 4709 04e9 0C000000 		.4byte	.LFE8
 4710 04ed 0400     		.2byte	0x4
 4711 04ef F3       		.byte	0xf3
 4712 04f0 01       		.uleb128 0x1
 4713 04f1 52       		.byte	0x52
 4714 04f2 9F       		.byte	0x9f
 4715 04f3 00000000 		.4byte	0
 4716 04f7 00000000 		.4byte	0
 4717              	.LVUS11:
 4718 04fb 00       		.uleb128 0
 4719 04fc 00       		.uleb128 .LVU18
 4720 04fd 00       		.uleb128 .LVU18
 4721 04fe 00       		.uleb128 .LVU19
 4722 04ff 00       		.uleb128 .LVU19
 4723 0500 00       		.uleb128 0
 4724              	.LLST11:
 4725 0501 00000000 		.4byte	.LVL9
 4726 0505 08000000 		.4byte	.LVL10
 4727 0509 0100     		.2byte	0x1
 4728 050b 50       		.byte	0x50
 4729 050c 08000000 		.4byte	.LVL10
 4730 0510 0B000000 		.4byte	.LVL11-1
 4731 0514 0300     		.2byte	0x3
ARM GAS  /tmp/cchBrCOm.s 			page 84


 4732 0516 70       		.byte	0x70
 4733 0517 50       		.sleb128 -48
 4734 0518 9F       		.byte	0x9f
 4735 0519 0B000000 		.4byte	.LVL11-1
 4736 051d 0C000000 		.4byte	.LFE7
 4737 0521 0400     		.2byte	0x4
 4738 0523 F3       		.byte	0xf3
 4739 0524 01       		.uleb128 0x1
 4740 0525 50       		.byte	0x50
 4741 0526 9F       		.byte	0x9f
 4742 0527 00000000 		.4byte	0
 4743 052b 00000000 		.4byte	0
 4744              	.LVUS12:
 4745 052f 00       		.uleb128 0
 4746 0530 00       		.uleb128 .LVU19
 4747 0531 00       		.uleb128 .LVU19
 4748 0532 00       		.uleb128 0
 4749              	.LLST12:
 4750 0533 00000000 		.4byte	.LVL9
 4751 0537 0B000000 		.4byte	.LVL11-1
 4752 053b 0100     		.2byte	0x1
 4753 053d 51       		.byte	0x51
 4754 053e 0B000000 		.4byte	.LVL11-1
 4755 0542 0C000000 		.4byte	.LFE7
 4756 0546 0400     		.2byte	0x4
 4757 0548 F3       		.byte	0xf3
 4758 0549 01       		.uleb128 0x1
 4759 054a 51       		.byte	0x51
 4760 054b 9F       		.byte	0x9f
 4761 054c 00000000 		.4byte	0
 4762 0550 00000000 		.4byte	0
 4763              	.LVUS13:
 4764 0554 00       		.uleb128 0
 4765 0555 00       		.uleb128 .LVU19
 4766 0556 00       		.uleb128 .LVU19
 4767 0557 00       		.uleb128 0
 4768              	.LLST13:
 4769 0558 00000000 		.4byte	.LVL9
 4770 055c 0B000000 		.4byte	.LVL11-1
 4771 0560 0100     		.2byte	0x1
 4772 0562 52       		.byte	0x52
 4773 0563 0B000000 		.4byte	.LVL11-1
 4774 0567 0C000000 		.4byte	.LFE7
 4775 056b 0400     		.2byte	0x4
 4776 056d F3       		.byte	0xf3
 4777 056e 01       		.uleb128 0x1
 4778 056f 52       		.byte	0x52
 4779 0570 9F       		.byte	0x9f
 4780 0571 00000000 		.4byte	0
 4781 0575 00000000 		.4byte	0
 4782              		.section	.debug_aranges,"",%progbits
 4783 0000 84000000 		.4byte	0x84
 4784 0004 0200     		.2byte	0x2
 4785 0006 00000000 		.4byte	.Ldebug_info0
 4786 000a 04       		.byte	0x4
 4787 000b 00       		.byte	0
 4788 000c 0000     		.2byte	0
ARM GAS  /tmp/cchBrCOm.s 			page 85


 4789 000e 0000     		.2byte	0
 4790 0010 00000000 		.4byte	.LFB14
 4791 0014 08000000 		.4byte	.LFE14-.LFB14
 4792 0018 00000000 		.4byte	.LFB8
 4793 001c 0C000000 		.4byte	.LFE8-.LFB8
 4794 0020 00000000 		.4byte	.LFB13
 4795 0024 08000000 		.4byte	.LFE13-.LFB13
 4796 0028 00000000 		.4byte	.LFB7
 4797 002c 0C000000 		.4byte	.LFE7-.LFB7
 4798 0030 00000000 		.4byte	.LFB12
 4799 0034 08000000 		.4byte	.LFE12-.LFB12
 4800 0038 00000000 		.4byte	.LFB10
 4801 003c 0C000000 		.4byte	.LFE10-.LFB10
 4802 0040 00000000 		.4byte	.LFB11
 4803 0044 08000000 		.4byte	.LFE11-.LFB11
 4804 0048 00000000 		.4byte	.LFB9
 4805 004c 0C000000 		.4byte	.LFE9-.LFB9
 4806 0050 00000000 		.4byte	.LFB15
 4807 0054 04000000 		.4byte	.LFE15-.LFB15
 4808 0058 00000000 		.4byte	.LFB16
 4809 005c 60000000 		.4byte	.LFE16-.LFB16
 4810 0060 00000000 		.4byte	.LFB17
 4811 0064 20000000 		.4byte	.LFE17-.LFB17
 4812 0068 00000000 		.4byte	.LFB18
 4813 006c 34000000 		.4byte	.LFE18-.LFB18
 4814 0070 00000000 		.4byte	.LFB19
 4815 0074 4C000000 		.4byte	.LFE19-.LFB19
 4816 0078 00000000 		.4byte	.LFB20
 4817 007c 34000000 		.4byte	.LFE20-.LFB20
 4818 0080 00000000 		.4byte	0
 4819 0084 00000000 		.4byte	0
 4820              		.section	.debug_ranges,"",%progbits
 4821              	.Ldebug_ranges0:
 4822 0000 00000000 		.4byte	.LFB14
 4823 0004 08000000 		.4byte	.LFE14
 4824 0008 00000000 		.4byte	.LFB8
 4825 000c 0C000000 		.4byte	.LFE8
 4826 0010 00000000 		.4byte	.LFB13
 4827 0014 08000000 		.4byte	.LFE13
 4828 0018 00000000 		.4byte	.LFB7
 4829 001c 0C000000 		.4byte	.LFE7
 4830 0020 00000000 		.4byte	.LFB12
 4831 0024 08000000 		.4byte	.LFE12
 4832 0028 00000000 		.4byte	.LFB10
 4833 002c 0C000000 		.4byte	.LFE10
 4834 0030 00000000 		.4byte	.LFB11
 4835 0034 08000000 		.4byte	.LFE11
 4836 0038 00000000 		.4byte	.LFB9
 4837 003c 0C000000 		.4byte	.LFE9
 4838 0040 00000000 		.4byte	.LFB15
 4839 0044 04000000 		.4byte	.LFE15
 4840 0048 00000000 		.4byte	.LFB16
 4841 004c 60000000 		.4byte	.LFE16
 4842 0050 00000000 		.4byte	.LFB17
 4843 0054 20000000 		.4byte	.LFE17
 4844 0058 00000000 		.4byte	.LFB18
 4845 005c 34000000 		.4byte	.LFE18
ARM GAS  /tmp/cchBrCOm.s 			page 86


 4846 0060 00000000 		.4byte	.LFB19
 4847 0064 4C000000 		.4byte	.LFE19
 4848 0068 00000000 		.4byte	.LFB20
 4849 006c 34000000 		.4byte	.LFE20
 4850 0070 00000000 		.4byte	0
 4851 0074 00000000 		.4byte	0
 4852              		.section	.debug_line,"",%progbits
 4853              	.Ldebug_line0:
 4854 0000 0E040000 		.section	.debug_str,"MS",%progbits,1
 4854      0300B101 
 4854      00000201 
 4854      FB0E0D00 
 4854      01010101 
 4855              	.LASF217:
 4856 0000 63684F51 		.ascii	"chOQInit\000"
 4856      496E6974 
 4856      00
 4857              	.LASF93:
 4858 0009 63665F6F 		.ascii	"cf_off_older\000"
 4858      66665F6F 
 4858      6C646572 
 4858      00
 4859              	.LASF39:
 4860 0016 705F6D73 		.ascii	"p_msg\000"
 4860      6700
 4861              	.LASF170:
 4862 001c 62617564 		.ascii	"baud_rate\000"
 4862      5F726174 
 4862      6500
 4863              	.LASF223:
 4864 0026 474E5520 		.ascii	"GNU C17 9.2.1 20191025 (release) [ARM/arm-9-branch "
 4864      43313720 
 4864      392E322E 
 4864      31203230 
 4864      31393130 
 4865 0059 72657669 		.ascii	"revision 277599] -mcpu=arm1176jz-s -mno-thumb-inter"
 4865      73696F6E 
 4865      20323737 
 4865      3539395D 
 4865      202D6D63 
 4866 008c 776F726B 		.ascii	"work -mfloat-abi=soft -marm -march=armv6kz -ggdb -O"
 4866      202D6D66 
 4866      6C6F6174 
 4866      2D616269 
 4866      3D736F66 
 4867 00bf 32202D66 		.ascii	"2 -fomit-frame-pointer -ffunction-sections -fdata-s"
 4867      6F6D6974 
 4867      2D667261 
 4867      6D652D70 
 4867      6F696E74 
 4868 00f2 65637469 		.ascii	"ections\000"
 4868      6F6E7300 
 4869              	.LASF78:
 4870 00fa 7264796D 		.ascii	"rdymsg\000"
 4870      736700
 4871              	.LASF216:
 4872 0101 63684951 		.ascii	"chIQInit\000"
ARM GAS  /tmp/cchBrCOm.s 			page 87


 4872      496E6974 
 4872      00
 4873              	.LASF173:
 4874 010a 77726974 		.ascii	"write\000"
 4874      6500
 4875              	.LASF114:
 4876 0110 4F757470 		.ascii	"OutputQueue\000"
 4876      75745175 
 4876      65756500 
 4877              	.LASF182:
 4878 011c 5350495F 		.ascii	"SPI_ACTIVE\000"
 4878      41435449 
 4878      564500
 4879              	.LASF219:
 4880 0127 63684951 		.ascii	"chIQReadTimeout\000"
 4880      52656164 
 4880      54696D65 
 4880      6F757400 
 4881              	.LASF65:
 4882 0137 76746C69 		.ascii	"vtlist\000"
 4882      737400
 4883              	.LASF116:
 4884 013e 62736364 		.ascii	"bscdevice_t\000"
 4884      65766963 
 4884      655F7400 
 4885              	.LASF154:
 4886 014a 72786275 		.ascii	"rxbuf\000"
 4886      6600
 4887              	.LASF218:
 4888 0150 73645F6C 		.ascii	"sd_lld_init\000"
 4888      6C645F69 
 4888      6E697400 
 4889              	.LASF107:
 4890 015c 715F746F 		.ascii	"q_top\000"
 4890      7000
 4891              	.LASF13:
 4892 0162 6C6F6E67 		.ascii	"long long unsigned int\000"
 4892      206C6F6E 
 4892      6720756E 
 4892      7369676E 
 4892      65642069 
 4893              	.LASF224:
 4894 0179 2E2E2F6F 		.ascii	"../os/hal/src/serial.c\000"
 4894      732F6861 
 4894      6C2F7372 
 4894      632F7365 
 4894      7269616C 
 4895              	.LASF89:
 4896 0190 63685F74 		.ascii	"ch_threadsize\000"
 4896      68726561 
 4896      6473697A 
 4896      6500
 4897              	.LASF79:
 4898 019e 65786974 		.ascii	"exitcode\000"
 4898      636F6465 
 4898      00
 4899              	.LASF185:
ARM GAS  /tmp/cchBrCOm.s 			page 88


 4900 01a7 53504944 		.ascii	"SPIDriver\000"
 4900      72697665 
 4900      7200
 4901              	.LASF121:
 4902 01b1 64617461 		.ascii	"dataFifo\000"
 4902      4669666F 
 4902      00
 4903              	.LASF27:
 4904 01ba 705F7072 		.ascii	"p_prio\000"
 4904      696F00
 4905              	.LASF96:
 4906 01c1 63665F6F 		.ascii	"cf_off_state\000"
 4906      66665F73 
 4906      74617465 
 4906      00
 4907              	.LASF166:
 4908 01ce 53657269 		.ascii	"SerialDriver\000"
 4908      616C4472 
 4908      69766572 
 4908      00
 4909              	.LASF147:
 4910 01db 64657669 		.ascii	"device\000"
 4910      636500
 4911              	.LASF104:
 4912 01e2 715F7761 		.ascii	"q_waiting\000"
 4912      6974696E 
 4912      6700
 4913              	.LASF6:
 4914 01ec 6C6F6E67 		.ascii	"long long int\000"
 4914      206C6F6E 
 4914      6720696E 
 4914      7400
 4915              	.LASF1:
 4916 01fa 7369676E 		.ascii	"signed char\000"
 4916      65642063 
 4916      68617200 
 4917              	.LASF95:
 4918 0206 63665F6F 		.ascii	"cf_off_stklimit\000"
 4918      66665F73 
 4918      746B6C69 
 4918      6D697400 
 4919              	.LASF180:
 4920 0216 5350495F 		.ascii	"SPI_STOP\000"
 4920      53544F50 
 4920      00
 4921              	.LASF97:
 4922 021f 63665F6F 		.ascii	"cf_off_flags\000"
 4922      66665F66 
 4922      6C616773 
 4922      00
 4923              	.LASF163:
 4924 022c 53445F53 		.ascii	"SD_STOP\000"
 4924      544F5000 
 4925              	.LASF14:
 4926 0234 626F6F6C 		.ascii	"bool_t\000"
 4926      5F7400
 4927              	.LASF68:
ARM GAS  /tmp/cchBrCOm.s 			page 89


 4928 023b 6D5F7175 		.ascii	"m_queue\000"
 4928      65756500 
 4929              	.LASF150:
 4930 0243 61646472 		.ascii	"addr\000"
 4930      00
 4931              	.LASF18:
 4932 0248 74736C69 		.ascii	"tslices_t\000"
 4932      6365735F 
 4932      7400
 4933              	.LASF136:
 4934 0252 4932435F 		.ascii	"I2C_UNINIT\000"
 4934      554E494E 
 4934      495400
 4935              	.LASF158:
 4936 025d 69326361 		.ascii	"i2caddr_t\000"
 4936      6464725F 
 4936      7400
 4937              	.LASF144:
 4938 0267 73746174 		.ascii	"state\000"
 4938      6500
 4939              	.LASF5:
 4940 026d 6C6F6E67 		.ascii	"long int\000"
 4940      20696E74 
 4940      00
 4941              	.LASF16:
 4942 0276 74737461 		.ascii	"tstate_t\000"
 4942      74655F74 
 4942      00
 4943              	.LASF208:
 4944 027f 63684F51 		.ascii	"chOQGetI\000"
 4944      47657449 
 4944      00
 4945              	.LASF149:
 4946 0288 74687265 		.ascii	"thread\000"
 4946      616400
 4947              	.LASF123:
 4948 028f 64617461 		.ascii	"dataDelay\000"
 4948      44656C61 
 4948      7900
 4949              	.LASF156:
 4950 0299 72786964 		.ascii	"rxidx\000"
 4950      7800
 4951              	.LASF106:
 4952 029f 715F6275 		.ascii	"q_buffer\000"
 4952      66666572 
 4952      00
 4953              	.LASF9:
 4954 02a8 75696E74 		.ascii	"uint16_t\000"
 4954      31365F74 
 4954      00
 4955              	.LASF198:
 4956 02b1 53504930 		.ascii	"SPI0\000"
 4956      00
 4957              	.LASF101:
 4958 02b6 63686465 		.ascii	"chdebug_t\000"
 4958      6275675F 
 4958      7400
ARM GAS  /tmp/cchBrCOm.s 			page 90


 4959              	.LASF209:
 4960 02c0 63684576 		.ascii	"chEvtBroadcastFlagsI\000"
 4960      7442726F 
 4960      61646361 
 4960      7374466C 
 4960      61677349 
 4961              	.LASF139:
 4962 02d5 4932435F 		.ascii	"I2C_ACTIVE_TX\000"
 4962      41435449 
 4962      56455F54 
 4962      5800
 4963              	.LASF195:
 4964 02e3 636C6F63 		.ascii	"clock_phase\000"
 4964      6B5F7068 
 4964      61736500 
 4965              	.LASF29:
 4966 02ef 705F6E65 		.ascii	"p_newer\000"
 4966      77657200 
 4967              	.LASF115:
 4968 02f7 5F69646C 		.ascii	"_idle_thread_wa\000"
 4968      655F7468 
 4968      72656164 
 4968      5F776100 
 4969              	.LASF188:
 4970 0307 656E645F 		.ascii	"end_cb\000"
 4970      636200
 4971              	.LASF210:
 4972 030e 63684951 		.ascii	"chIQPutI\000"
 4972      50757449 
 4972      00
 4973              	.LASF186:
 4974 0317 7478636E 		.ascii	"txcnt\000"
 4974      7400
 4975              	.LASF192:
 4976 031d 63686970 		.ascii	"chip_select_polarity0\000"
 4976      5F73656C 
 4976      6563745F 
 4976      706F6C61 
 4976      72697479 
 4977              	.LASF193:
 4978 0333 63686970 		.ascii	"chip_select_polarity1\000"
 4978      5F73656C 
 4978      6563745F 
 4978      706F6C61 
 4978      72697479 
 4979              	.LASF214:
 4980 0349 63685363 		.ascii	"chSchRescheduleS\000"
 4980      68526573 
 4980      63686564 
 4980      756C6553 
 4980      00
 4981              	.LASF117:
 4982 035a 636F6E74 		.ascii	"control\000"
 4982      726F6C00 
 4983              	.LASF61:
 4984 0362 725F6E65 		.ascii	"r_newer\000"
 4984      77657200 
ARM GAS  /tmp/cchBrCOm.s 			page 91


 4985              	.LASF46:
 4986 036a 72656761 		.ascii	"regarm_t\000"
 4986      726D5F74 
 4986      00
 4987              	.LASF52:
 4988 0373 76745F70 		.ascii	"vt_prev\000"
 4988      72657600 
 4989              	.LASF222:
 4990 037b 63684F51 		.ascii	"chOQPutTimeout\000"
 4990      50757454 
 4990      696D656F 
 4990      757400
 4991              	.LASF120:
 4992 038a 736C6176 		.ascii	"slaveAddress\000"
 4992      65416464 
 4992      72657373 
 4992      00
 4993              	.LASF3:
 4994 0397 73697A65 		.ascii	"size_t\000"
 4994      5F7400
 4995              	.LASF187:
 4996 039e 73706963 		.ascii	"spicallback_t\000"
 4996      616C6C62 
 4996      61636B5F 
 4996      7400
 4997              	.LASF161:
 4998 03ac 49324330 		.ascii	"I2C0\000"
 4998      00
 4999              	.LASF76:
 5000 03b1 4576656E 		.ascii	"EventSource\000"
 5000      74536F75 
 5000      72636500 
 5001              	.LASF0:
 5002 03bd 756E7369 		.ascii	"unsigned int\000"
 5002      676E6564 
 5002      20696E74 
 5002      00
 5003              	.LASF51:
 5004 03ca 76745F6E 		.ascii	"vt_next\000"
 5004      65787400 
 5005              	.LASF151:
 5006 03d2 74786275 		.ascii	"txbuf\000"
 5006      6600
 5007              	.LASF172:
 5008 03d8 53657269 		.ascii	"SerialDriverVMT\000"
 5008      616C4472 
 5008      69766572 
 5008      564D5400 
 5009              	.LASF213:
 5010 03e8 63684951 		.ascii	"chIQResetI\000"
 5010      52657365 
 5010      744900
 5011              	.LASF203:
 5012 03f3 696E6F74 		.ascii	"inotify\000"
 5012      69667900 
 5013              	.LASF146:
 5014 03fb 6572726F 		.ascii	"errors\000"
ARM GAS  /tmp/cchBrCOm.s 			page 92


 5014      727300
 5015              	.LASF168:
 5016 0402 69717565 		.ascii	"iqueue\000"
 5016      756500
 5017              	.LASF12:
 5018 0409 6C6F6E67 		.ascii	"long unsigned int\000"
 5018      20756E73 
 5018      69676E65 
 5018      6420696E 
 5018      7400
 5019              	.LASF102:
 5020 041b 63685F64 		.ascii	"ch_debug\000"
 5020      65627567 
 5020      00
 5021              	.LASF207:
 5022 0424 74696D65 		.ascii	"timeout\000"
 5022      6F757400 
 5023              	.LASF176:
 5024 042c 67657474 		.ascii	"gett\000"
 5024      00
 5025              	.LASF83:
 5026 0431 63685F69 		.ascii	"ch_identifier\000"
 5026      64656E74 
 5026      69666965 
 5026      7200
 5027              	.LASF191:
 5028 043f 63686970 		.ascii	"chip_select_polarity\000"
 5028      5F73656C 
 5028      6563745F 
 5028      706F6C61 
 5028      72697479 
 5029              	.LASF167:
 5030 0454 6576656E 		.ascii	"event\000"
 5030      7400
 5031              	.LASF48:
 5032 045a 636F6E74 		.ascii	"context\000"
 5032      65787400 
 5033              	.LASF10:
 5034 0462 73686F72 		.ascii	"short unsigned int\000"
 5034      7420756E 
 5034      7369676E 
 5034      65642069 
 5034      6E7400
 5035              	.LASF131:
 5036 0475 6770696F 		.ascii	"gpio_port_t\000"
 5036      5F706F72 
 5036      745F7400 
 5037              	.LASF127:
 5038 0481 6770636C 		.ascii	"gpclr\000"
 5038      7200
 5039              	.LASF20:
 5040 0487 6D73675F 		.ascii	"msg_t\000"
 5040      7400
 5041              	.LASF169:
 5042 048d 6F717565 		.ascii	"oqueue\000"
 5042      756500
 5043              	.LASF72:
ARM GAS  /tmp/cchBrCOm.s 			page 93


 5044 0494 656C5F6E 		.ascii	"el_next\000"
 5044      65787400 
 5045              	.LASF177:
 5046 049c 77726974 		.ascii	"writet\000"
 5046      657400
 5047              	.LASF15:
 5048 04a3 746D6F64 		.ascii	"tmode_t\000"
 5048      655F7400 
 5049              	.LASF44:
 5050 04ab 54687265 		.ascii	"ThreadsList\000"
 5050      6164734C 
 5050      69737400 
 5051              	.LASF21:
 5052 04b7 6576656E 		.ascii	"eventmask_t\000"
 5052      746D6173 
 5052      6B5F7400 
 5053              	.LASF113:
 5054 04c3 496E7075 		.ascii	"InputQueue\000"
 5054      74517565 
 5054      756500
 5055              	.LASF67:
 5056 04ce 4D757465 		.ascii	"Mutex\000"
 5056      7800
 5057              	.LASF103:
 5058 04d4 47656E65 		.ascii	"GenericQueue\000"
 5058      72696351 
 5058      75657565 
 5058      00
 5059              	.LASF45:
 5060 04e1 73746B61 		.ascii	"stkalign_t\000"
 5060      6C69676E 
 5060      5F7400
 5061              	.LASF220:
 5062 04ec 63684F51 		.ascii	"chOQWriteTimeout\000"
 5062      57726974 
 5062      6554696D 
 5062      656F7574 
 5062      00
 5063              	.LASF84:
 5064 04fd 63685F7A 		.ascii	"ch_zero\000"
 5064      65726F00 
 5065              	.LASF98:
 5066 0505 63665F6F 		.ascii	"cf_off_refs\000"
 5066      66665F72 
 5066      65667300 
 5067              	.LASF128:
 5068 0511 67706C65 		.ascii	"gplev\000"
 5068      7600
 5069              	.LASF175:
 5070 0517 70757474 		.ascii	"putt\000"
 5070      00
 5071              	.LASF53:
 5072 051c 76745F74 		.ascii	"vt_time\000"
 5072      696D6500 
 5073              	.LASF137:
 5074 0524 4932435F 		.ascii	"I2C_STOP\000"
 5074      53544F50 
ARM GAS  /tmp/cchBrCOm.s 			page 94


 5074      00
 5075              	.LASF122:
 5076 052d 636C6F63 		.ascii	"clockDivider\000"
 5076      6B446976 
 5076      69646572 
 5076      00
 5077              	.LASF105:
 5078 053a 715F636F 		.ascii	"q_counter\000"
 5078      756E7465 
 5078      7200
 5079              	.LASF54:
 5080 0544 76745F66 		.ascii	"vt_func\000"
 5080      756E6300 
 5081              	.LASF88:
 5082 054c 63685F74 		.ascii	"ch_timesize\000"
 5082      696D6573 
 5082      697A6500 
 5083              	.LASF199:
 5084 0558 7364496E 		.ascii	"sdIncomingDataI\000"
 5084      636F6D69 
 5084      6E674461 
 5084      74614900 
 5085              	.LASF159:
 5086 0568 69635F73 		.ascii	"ic_speed\000"
 5086      70656564 
 5086      00
 5087              	.LASF94:
 5088 0571 63665F6F 		.ascii	"cf_off_name\000"
 5088      66665F6E 
 5088      616D6500 
 5089              	.LASF30:
 5090 057d 705F6F6C 		.ascii	"p_older\000"
 5090      64657200 
 5091              	.LASF155:
 5092 0585 72786279 		.ascii	"rxbytes\000"
 5092      74657300 
 5093              	.LASF108:
 5094 058d 715F7772 		.ascii	"q_wrptr\000"
 5094      70747200 
 5095              	.LASF60:
 5096 0595 725F6374 		.ascii	"r_ctx\000"
 5096      7800
 5097              	.LASF43:
 5098 059b 54687265 		.ascii	"ThreadsQueue\000"
 5098      61647351 
 5098      75657565 
 5098      00
 5099              	.LASF85:
 5100 05a8 63685F73 		.ascii	"ch_size\000"
 5100      697A6500 
 5101              	.LASF133:
 5102 05b0 494F504F 		.ascii	"IOPORT0\000"
 5102      52543000 
 5103              	.LASF200:
 5104 05b8 73645374 		.ascii	"sdStop\000"
 5104      6F7000
 5105              	.LASF206:
ARM GAS  /tmp/cchBrCOm.s 			page 95


 5106 05bf 74696D65 		.ascii	"time\000"
 5106      00
 5107              	.LASF63:
 5108 05c4 725F6375 		.ascii	"r_current\000"
 5108      7272656E 
 5108      7400
 5109              	.LASF62:
 5110 05ce 725F6F6C 		.ascii	"r_older\000"
 5110      64657200 
 5111              	.LASF74:
 5112 05d6 656C5F6D 		.ascii	"el_mask\000"
 5112      61736B00 
 5113              	.LASF126:
 5114 05de 67707365 		.ascii	"gpset\000"
 5114      7400
 5115              	.LASF129:
 5116 05e4 67707075 		.ascii	"gppudclk\000"
 5116      64636C6B 
 5116      00
 5117              	.LASF189:
 5118 05ed 6C6F7373 		.ascii	"lossiEnabled\000"
 5118      69456E61 
 5118      626C6564 
 5118      00
 5119              	.LASF190:
 5120 05fa 63686970 		.ascii	"chip_select\000"
 5120      5F73656C 
 5120      65637400 
 5121              	.LASF17:
 5122 0606 74726566 		.ascii	"trefs_t\000"
 5122      735F7400 
 5123              	.LASF142:
 5124 060e 69326373 		.ascii	"i2cstate_t\000"
 5124      74617465 
 5124      5F7400
 5125              	.LASF87:
 5126 0619 63685F70 		.ascii	"ch_ptrsize\000"
 5126      74727369 
 5126      7A6500
 5127              	.LASF112:
 5128 0624 716E6F74 		.ascii	"qnotify_t\000"
 5128      6966795F 
 5128      7400
 5129              	.LASF26:
 5130 062e 705F7072 		.ascii	"p_prev\000"
 5130      657600
 5131              	.LASF19:
 5132 0635 74707269 		.ascii	"tprio_t\000"
 5132      6F5F7400 
 5133              	.LASF109:
 5134 063d 715F7264 		.ascii	"q_rdptr\000"
 5134      70747200 
 5135              	.LASF157:
 5136 0645 69326366 		.ascii	"i2cflags_t\000"
 5136      6C616773 
 5136      5F7400
 5137              	.LASF148:
ARM GAS  /tmp/cchBrCOm.s 			page 96


 5138 0650 6D757465 		.ascii	"mutex\000"
 5138      7800
 5139              	.LASF4:
 5140 0656 696E7433 		.ascii	"int32_t\000"
 5140      325F7400 
 5141              	.LASF8:
 5142 065e 756E7369 		.ascii	"unsigned char\000"
 5142      676E6564 
 5142      20636861 
 5142      7200
 5143              	.LASF215:
 5144 066c 73645F6C 		.ascii	"sd_lld_start\000"
 5144      6C645F73 
 5144      74617274 
 5144      00
 5145              	.LASF73:
 5146 0679 656C5F6C 		.ascii	"el_listener\000"
 5146      69737465 
 5146      6E657200 
 5147              	.LASF75:
 5148 0685 656C5F66 		.ascii	"el_flags\000"
 5148      6C616773 
 5148      00
 5149              	.LASF41:
 5150 068e 705F6D74 		.ascii	"p_mtxlist\000"
 5150      786C6973 
 5150      7400
 5151              	.LASF2:
 5152 0698 73686F72 		.ascii	"short int\000"
 5152      7420696E 
 5152      7400
 5153              	.LASF32:
 5154 06a2 705F7374 		.ascii	"p_state\000"
 5154      61746500 
 5155              	.LASF35:
 5156 06aa 705F7072 		.ascii	"p_preempt\000"
 5156      65656D70 
 5156      7400
 5157              	.LASF100:
 5158 06b4 63665F6F 		.ascii	"cf_off_time\000"
 5158      66665F74 
 5158      696D6500 
 5159              	.LASF202:
 5160 06c0 73644F62 		.ascii	"sdObjectInit\000"
 5160      6A656374 
 5160      496E6974 
 5160      00
 5161              	.LASF59:
 5162 06cd 725F7072 		.ascii	"r_prio\000"
 5162      696F00
 5163              	.LASF130:
 5164 06d4 70696E5F 		.ascii	"pin_base\000"
 5164      62617365 
 5164      00
 5165              	.LASF81:
 5166 06dd 65776D61 		.ascii	"ewmask\000"
 5166      736B00
ARM GAS  /tmp/cchBrCOm.s 			page 97


 5167              	.LASF25:
 5168 06e4 705F6E65 		.ascii	"p_next\000"
 5168      787400
 5169              	.LASF134:
 5170 06eb 494F504F 		.ascii	"IOPORT1\000"
 5170      52543100 
 5171              	.LASF99:
 5172 06f3 63665F6F 		.ascii	"cf_off_preempt\000"
 5172      66665F70 
 5172      7265656D 
 5172      707400
 5173              	.LASF33:
 5174 0702 705F666C 		.ascii	"p_flags\000"
 5174      61677300 
 5175              	.LASF24:
 5176 070a 54687265 		.ascii	"Thread\000"
 5176      616400
 5177              	.LASF196:
 5178 0711 636C6F63 		.ascii	"clock_divider\000"
 5178      6B5F6469 
 5178      76696465 
 5178      7200
 5179              	.LASF92:
 5180 071f 63665F6F 		.ascii	"cf_off_newer\000"
 5180      66665F6E 
 5180      65776572 
 5180      00
 5181              	.LASF141:
 5182 072c 4932435F 		.ascii	"I2C_LOCKED\000"
 5182      4C4F434B 
 5182      454400
 5183              	.LASF40:
 5184 0737 705F6570 		.ascii	"p_epending\000"
 5184      656E6469 
 5184      6E6700
 5185              	.LASF162:
 5186 0742 53445F55 		.ascii	"SD_UNINIT\000"
 5186      4E494E49 
 5186      5400
 5187              	.LASF11:
 5188 074c 75696E74 		.ascii	"uint32_t\000"
 5188      33325F74 
 5188      00
 5189              	.LASF90:
 5190 0755 63665F6F 		.ascii	"cf_off_prio\000"
 5190      66665F70 
 5190      72696F00 
 5191              	.LASF58:
 5192 0761 725F7175 		.ascii	"r_queue\000"
 5192      65756500 
 5193              	.LASF50:
 5194 0769 56697274 		.ascii	"VirtualTimer\000"
 5194      75616C54 
 5194      696D6572 
 5194      00
 5195              	.LASF225:
 5196 0776 2F686F6D 		.ascii	"/home/taskman/arduino/embedded-wind-turbine/Data_Co"
ARM GAS  /tmp/cchBrCOm.s 			page 98


 5196      652F7461 
 5196      736B6D61 
 5196      6E2F6172 
 5196      6475696E 
 5197 07a9 6C6C6563 		.ascii	"llector/raspberry/compiler/ChibiOS-RPi/led\000"
 5197      746F722F 
 5197      72617370 
 5197      62657272 
 5197      792F636F 
 5198              	.LASF140:
 5199 07d4 4932435F 		.ascii	"I2C_ACTIVE_RX\000"
 5199      41435449 
 5199      56455F52 
 5199      5800
 5200              	.LASF174:
 5201 07e2 72656164 		.ascii	"read\000"
 5201      00
 5202              	.LASF82:
 5203 07e7 63686172 		.ascii	"char\000"
 5203      00
 5204              	.LASF183:
 5205 07ec 5350495F 		.ascii	"SPI_COMPLETE\000"
 5205      434F4D50 
 5205      4C455445 
 5205      00
 5206              	.LASF145:
 5207 07f9 636F6E66 		.ascii	"config\000"
 5207      696700
 5208              	.LASF201:
 5209 0800 73645374 		.ascii	"sdStart\000"
 5209      61727400 
 5210              	.LASF184:
 5211 0808 73706973 		.ascii	"spistate_t\000"
 5211      74617465 
 5211      5F7400
 5212              	.LASF70:
 5213 0813 6D5F6E65 		.ascii	"m_next\000"
 5213      787400
 5214              	.LASF23:
 5215 081a 73797374 		.ascii	"systime_t\000"
 5215      696D655F 
 5215      7400
 5216              	.LASF42:
 5217 0824 705F7265 		.ascii	"p_realprio\000"
 5217      616C7072 
 5217      696F00
 5218              	.LASF49:
 5219 082f 76746675 		.ascii	"vtfunc_t\000"
 5219      6E635F74 
 5219      00
 5220              	.LASF138:
 5221 0838 4932435F 		.ascii	"I2C_READY\000"
 5221      52454144 
 5221      5900
 5222              	.LASF143:
 5223 0842 49324344 		.ascii	"I2CDriver\000"
 5223      72697665 
ARM GAS  /tmp/cchBrCOm.s 			page 99


 5223      7200
 5224              	.LASF212:
 5225 084c 63684F51 		.ascii	"chOQResetI\000"
 5225      52657365 
 5225      744900
 5226              	.LASF36:
 5227 0857 705F7469 		.ascii	"p_time\000"
 5227      6D6500
 5228              	.LASF194:
 5229 085e 636C6F63 		.ascii	"clock_polarity\000"
 5229      6B5F706F 
 5229      6C617269 
 5229      747900
 5230              	.LASF47:
 5231 086d 696E7463 		.ascii	"intctx\000"
 5231      747800
 5232              	.LASF38:
 5233 0874 705F6D73 		.ascii	"p_msgqueue\000"
 5233      67717565 
 5233      756500
 5234              	.LASF164:
 5235 087f 53445F52 		.ascii	"SD_READY\000"
 5235      45414459 
 5235      00
 5236              	.LASF181:
 5237 0888 5350495F 		.ascii	"SPI_READY\000"
 5237      52454144 
 5237      5900
 5238              	.LASF179:
 5239 0892 5350495F 		.ascii	"SPI_UNINIT\000"
 5239      554E494E 
 5239      495400
 5240              	.LASF55:
 5241 089d 76745F70 		.ascii	"vt_par\000"
 5241      617200
 5242              	.LASF22:
 5243 08a4 666C6167 		.ascii	"flagsmask_t\000"
 5243      736D6173 
 5243      6B5F7400 
 5244              	.LASF160:
 5245 08b0 49324343 		.ascii	"I2CConfig\000"
 5245      6F6E6669 
 5245      6700
 5246              	.LASF165:
 5247 08ba 73647374 		.ascii	"sdstate_t\000"
 5247      6174655F 
 5247      7400
 5248              	.LASF153:
 5249 08c4 74786964 		.ascii	"txidx\000"
 5249      7800
 5250              	.LASF171:
 5251 08ca 53657269 		.ascii	"SerialConfig\000"
 5251      616C436F 
 5251      6E666967 
 5251      00
 5252              	.LASF91:
 5253 08d7 63665F6F 		.ascii	"cf_off_ctx\000"
ARM GAS  /tmp/cchBrCOm.s 			page 100


 5253      66665F63 
 5253      747800
 5254              	.LASF34:
 5255 08e2 705F7265 		.ascii	"p_refs\000"
 5255      667300
 5256              	.LASF118:
 5257 08e9 73746174 		.ascii	"status\000"
 5257      757300
 5258              	.LASF64:
 5259 08f0 52656164 		.ascii	"ReadyList\000"
 5259      794C6973 
 5259      7400
 5260              	.LASF110:
 5261 08fa 715F6E6F 		.ascii	"q_notify\000"
 5261      74696679 
 5261      00
 5262              	.LASF66:
 5263 0903 726C6973 		.ascii	"rlist\000"
 5263      7400
 5264              	.LASF226:
 5265 0909 73645265 		.ascii	"sdRequestDataI\000"
 5265      71756573 
 5265      74446174 
 5265      614900
 5266              	.LASF7:
 5267 0918 75696E74 		.ascii	"uint8_t\000"
 5267      385F7400 
 5268              	.LASF178:
 5269 0920 72656164 		.ascii	"readt\000"
 5269      7400
 5270              	.LASF125:
 5271 0926 6C617463 		.ascii	"latch\000"
 5271      6800
 5272              	.LASF204:
 5273 092c 6F6E6F74 		.ascii	"onotify\000"
 5273      69667900 
 5274              	.LASF221:
 5275 0934 63684951 		.ascii	"chIQGetTimeout\000"
 5275      47657454 
 5275      696D656F 
 5275      757400
 5276              	.LASF71:
 5277 0943 4576656E 		.ascii	"EventListener\000"
 5277      744C6973 
 5277      74656E65 
 5277      7200
 5278              	.LASF80:
 5279 0951 77746F62 		.ascii	"wtobjp\000"
 5279      6A7000
 5280              	.LASF31:
 5281 0958 705F6E61 		.ascii	"p_name\000"
 5281      6D6500
 5282              	.LASF56:
 5283 095f 76745F73 		.ascii	"vt_systime\000"
 5283      79737469 
 5283      6D6500
 5284              	.LASF77:
ARM GAS  /tmp/cchBrCOm.s 			page 101


 5285 096a 65735F6E 		.ascii	"es_next\000"
 5285      65787400 
 5286              	.LASF197:
 5287 0972 53504943 		.ascii	"SPIConfig\000"
 5287      6F6E6669 
 5287      6700
 5288              	.LASF86:
 5289 097c 63685F76 		.ascii	"ch_version\000"
 5289      65727369 
 5289      6F6E00
 5290              	.LASF211:
 5291 0987 73645F6C 		.ascii	"sd_lld_stop\000"
 5291      6C645F73 
 5291      746F7000 
 5292              	.LASF119:
 5293 0993 64617461 		.ascii	"dataLength\000"
 5293      4C656E67 
 5293      746800
 5294              	.LASF57:
 5295 099e 56544C69 		.ascii	"VTList\000"
 5295      737400
 5296              	.LASF205:
 5297 09a5 7364496E 		.ascii	"sdInit\000"
 5297      697400
 5298              	.LASF111:
 5299 09ac 715F6C69 		.ascii	"q_link\000"
 5299      6E6B00
 5300              	.LASF132:
 5301 09b3 50414C43 		.ascii	"PALConfig\000"
 5301      6F6E6669 
 5301      6700
 5302              	.LASF69:
 5303 09bd 6D5F6F77 		.ascii	"m_owner\000"
 5303      6E657200 
 5304              	.LASF135:
 5305 09c5 70616C5F 		.ascii	"pal_default_config\000"
 5305      64656661 
 5305      756C745F 
 5305      636F6E66 
 5305      696700
 5306              	.LASF28:
 5307 09d8 705F6374 		.ascii	"p_ctx\000"
 5307      7800
 5308              	.LASF37:
 5309 09de 705F7761 		.ascii	"p_waiting\000"
 5309      6974696E 
 5309      6700
 5310              	.LASF152:
 5311 09e8 74786279 		.ascii	"txbytes\000"
 5311      74657300 
 5312              	.LASF124:
 5313 09f0 636C6F63 		.ascii	"clockStretchTimeout\000"
 5313      6B537472 
 5313      65746368 
 5313      54696D65 
 5313      6F757400 
 5314              		.ident	"GCC: (15:9-2019-q4-0ubuntu1) 9.2.1 20191025 (release) [ARM/arm-9-branch revision 277599]"
ARM GAS  /tmp/cchBrCOm.s 			page 102


ARM GAS  /tmp/cchBrCOm.s 			page 103


DEFINED SYMBOLS
                            *ABS*:0000000000000000 serial.c
     /tmp/cchBrCOm.s:16     .text.readt:0000000000000000 $a
     /tmp/cchBrCOm.s:22     .text.readt:0000000000000000 readt
     /tmp/cchBrCOm.s:43     .text.read:0000000000000000 $a
     /tmp/cchBrCOm.s:48     .text.read:0000000000000000 read
     /tmp/cchBrCOm.s:69     .text.writet:0000000000000000 $a
     /tmp/cchBrCOm.s:74     .text.writet:0000000000000000 writet
     /tmp/cchBrCOm.s:94     .text.write:0000000000000000 $a
     /tmp/cchBrCOm.s:99     .text.write:0000000000000000 write
     /tmp/cchBrCOm.s:120    .text.gett:0000000000000000 $a
     /tmp/cchBrCOm.s:125    .text.gett:0000000000000000 gett
     /tmp/cchBrCOm.s:145    .text.get:0000000000000000 $a
     /tmp/cchBrCOm.s:150    .text.get:0000000000000000 get
     /tmp/cchBrCOm.s:171    .text.putt:0000000000000000 $a
     /tmp/cchBrCOm.s:176    .text.putt:0000000000000000 putt
     /tmp/cchBrCOm.s:196    .text.put:0000000000000000 $a
     /tmp/cchBrCOm.s:201    .text.put:0000000000000000 put
     /tmp/cchBrCOm.s:222    .text.sdInit:0000000000000000 $a
     /tmp/cchBrCOm.s:228    .text.sdInit:0000000000000000 sdInit
     /tmp/cchBrCOm.s:242    .text.sdObjectInit:0000000000000000 $a
     /tmp/cchBrCOm.s:248    .text.sdObjectInit:0000000000000000 sdObjectInit
     /tmp/cchBrCOm.s:312    .text.sdObjectInit:000000000000005c $d
     /tmp/cchBrCOm.s:317    .text.sdStart:0000000000000000 $a
     /tmp/cchBrCOm.s:323    .text.sdStart:0000000000000000 sdStart
     /tmp/cchBrCOm.s:373    .text.sdStop:0000000000000000 $a
     /tmp/cchBrCOm.s:379    .text.sdStop:0000000000000000 sdStop
     /tmp/cchBrCOm.s:442    .text.sdIncomingDataI:0000000000000000 $a
     /tmp/cchBrCOm.s:448    .text.sdIncomingDataI:0000000000000000 sdIncomingDataI
     /tmp/cchBrCOm.s:519    .text.sdRequestDataI:0000000000000000 $a
     /tmp/cchBrCOm.s:525    .text.sdRequestDataI:0000000000000000 sdRequestDataI
     /tmp/cchBrCOm.s:576    .rodata.vmt:0000000000000000 $d
     /tmp/cchBrCOm.s:580    .rodata.vmt:0000000000000000 vmt

UNDEFINED SYMBOLS
chIQReadTimeout
chOQWriteTimeout
chIQGetTimeout
chOQPutTimeout
sd_lld_init
chIQInit
chOQInit
sd_lld_start
sd_lld_stop
chOQResetI
chIQResetI
chSchRescheduleS
chIQPutI
chEvtBroadcastFlagsI
chOQGetI
