ARM GAS  /tmp/ccCRVKmc.s 			page 1


   1              		.cpu arm1176jz-s
   2              		.eabi_attribute 20, 1
   3              		.eabi_attribute 21, 1
   4              		.eabi_attribute 23, 3
   5              		.eabi_attribute 24, 1
   6              		.eabi_attribute 25, 1
   7              		.eabi_attribute 26, 1
   8              		.eabi_attribute 30, 2
   9              		.eabi_attribute 34, 1
  10              		.eabi_attribute 18, 4
  11              		.file	"serial_lld.c"
  12              		.text
  13              	.Ltext0:
  14              		.cfi_sections	.debug_frame
  15              		.section	.text.output_notify,"ax",%progbits
  16              		.align	2
  17              		.arch armv6kz
  18              		.syntax unified
  19              		.arm
  20              		.fpu softvfp
  21              		.type	output_notify, %function
  22              	output_notify:
  23              	.LVL0:
  24              	.LFB7:
  25              		.file 1 "../os/hal/platforms/BCM2835/serial_lld.c"
  26              		.loc 1 59 45 view -0
  27              		.cfi_startproc
  28              		@ args = 0, pretend = 0, frame = 0
  29              		@ frame_needed = 0, uses_anonymous_args = 0
  30              		@ link register save eliminated.
  31              		.loc 1 60 3 view .LVU1
  32              		.loc 1 62 3 view .LVU2
  33              		.loc 1 62 18 is_stmt 0 view .LVU3
  34 0000 0C209FE5 		ldr	r2, .L3
  35 0004 443092E5 		ldr	r3, [r2, #68]
  36 0008 023083E3 		orr	r3, r3, #2
  37 000c 443082E5 		str	r3, [r2, #68]
  38              		.loc 1 63 1 view .LVU4
  39 0010 1EFF2FE1 		bx	lr
  40              	.L4:
  41              		.align	2
  42              	.L3:
  43 0014 00502120 		.word	539054080
  44              		.cfi_endproc
  45              	.LFE7:
  46              		.size	output_notify, .-output_notify
  47              		.section	.text.sd_lld_serve_interrupt,"ax",%progbits
  48              		.align	2
  49              		.global	sd_lld_serve_interrupt
  50              		.syntax unified
  51              		.arm
  52              		.fpu softvfp
  53              		.type	sd_lld_serve_interrupt, %function
  54              	sd_lld_serve_interrupt:
  55              	.LVL1:
  56              	.LFB8:
  57              		.loc 1 69 50 is_stmt 1 view -0
ARM GAS  /tmp/ccCRVKmc.s 			page 2


  58              		.cfi_startproc
  59              		@ args = 0, pretend = 0, frame = 0
  60              		@ frame_needed = 0, uses_anonymous_args = 0
  61              		.loc 1 70 3 view .LVU6
  62              		.loc 1 70 7 is_stmt 0 view .LVU7
  63 0000 9C209FE5 		ldr	r2, .L22
  64              		.loc 1 69 50 view .LVU8
  65 0004 70402DE9 		push	{r4, r5, r6, lr}
  66              		.cfi_def_cfa_offset 16
  67              		.cfi_offset 4, -16
  68              		.cfi_offset 5, -12
  69              		.cfi_offset 6, -8
  70              		.cfi_offset 14, -4
  71              		.loc 1 70 7 view .LVU9
  72 0008 483092E5 		ldr	r3, [r2, #72]
  73              		.loc 1 69 50 view .LVU10
  74 000c 0050A0E1 		mov	r5, r0
  75              		.loc 1 70 7 view .LVU11
  76 0010 073003E2 		and	r3, r3, #7
  77              		.loc 1 70 6 view .LVU12
  78 0014 040053E3 		cmp	r3, #4
  79 0018 1100000A 		beq	.L7
  80              	.LVL2:
  81              	.L6:
  82              		.loc 1 76 5 is_stmt 1 view .LVU13
  83              		.loc 1 76 5 view .LVU14
  84              		.loc 1 76 25 view .LVU15
  85              		.loc 1 79 3 view .LVU16
  86              		.loc 1 79 7 is_stmt 0 view .LVU17
  87 001c 80409FE5 		ldr	r4, .L22
  88 0020 483094E5 		ldr	r3, [r4, #72]
  89 0024 073003E2 		and	r3, r3, #7
  90              		.loc 1 79 6 view .LVU18
  91 0028 020053E3 		cmp	r3, #2
  92 002c 7080BD18 		popne	{r4, r5, r6, pc}
  93              	.L10:
  94              	.LBB15:
  95              		.loc 1 81 30 is_stmt 1 discriminator 1 view .LVU19
  96              		.loc 1 81 10 discriminator 1 view .LVU20
  97              		.loc 1 81 12 is_stmt 0 discriminator 1 view .LVU21
  98 0030 543094E5 		ldr	r3, [r4, #84]
  99              		.loc 1 81 10 discriminator 1 view .LVU22
 100 0034 200013E3 		tst	r3, #32
 101 0038 FCFFFF0A 		beq	.L10
 102              		.loc 1 82 5 is_stmt 1 view .LVU23
 103              		.loc 1 82 18 is_stmt 0 view .LVU24
 104 003c 0500A0E1 		mov	r0, r5
 105 0040 FEFFFFEB 		bl	sdRequestDataI
 106              	.LVL3:
 107              		.loc 1 83 5 is_stmt 1 view .LVU25
 108              		.loc 1 83 8 is_stmt 0 view .LVU26
 109 0044 000050E3 		cmp	r0, #0
 110              		.loc 1 83 8 view .LVU27
 111 0048 110000BA 		blt	.L21
 112              		.loc 1 88 7 is_stmt 1 view .LVU28
 113              	.LVL4:
 114              	.LBB16:
ARM GAS  /tmp/ccCRVKmc.s 			page 3


 115              	.LBI16:
 116              		.loc 1 172 6 view .LVU29
 117              	.LBB17:
 118              		.loc 1 174 3 view .LVU30
 119              		.loc 1 174 10 is_stmt 0 view .LVU31
 120 004c 50209FE5 		ldr	r2, .L22
 121              	.L12:
 122              		.loc 1 174 38 is_stmt 1 view .LVU32
 123              		.loc 1 174 8 view .LVU33
 124              		.loc 1 174 10 is_stmt 0 view .LVU34
 125 0050 543092E5 		ldr	r3, [r2, #84]
 126              		.loc 1 174 8 view .LVU35
 127 0054 200013E3 		tst	r3, #32
 128 0058 FCFFFF0A 		beq	.L12
 129              		.loc 1 175 3 is_stmt 1 view .LVU36
 130              		.loc 1 175 17 is_stmt 0 view .LVU37
 131 005c 400082E5 		str	r0, [r2, #64]
 132              	.LVL5:
 133              		.loc 1 175 17 view .LVU38
 134              	.LBE17:
 135              	.LBE16:
 136              		.loc 1 90 5 is_stmt 1 view .LVU39
 137              		.loc 1 90 5 view .LVU40
 138              		.loc 1 90 25 view .LVU41
 139              	.LBE15:
 140              		.loc 1 92 1 is_stmt 0 view .LVU42
 141 0060 7080BDE8 		pop	{r4, r5, r6, pc}
 142              	.LVL6:
 143              	.L7:
 144              		.loc 1 72 30 is_stmt 1 discriminator 1 view .LVU43
 145              		.loc 1 72 10 discriminator 1 view .LVU44
 146              		.loc 1 72 12 is_stmt 0 discriminator 1 view .LVU45
 147 0064 543092E5 		ldr	r3, [r2, #84]
 148              		.loc 1 72 10 discriminator 1 view .LVU46
 149 0068 010013E3 		tst	r3, #1
 150 006c FCFFFF0A 		beq	.L7
 151              		.loc 1 74 28 view .LVU47
 152 0070 2C409FE5 		ldr	r4, .L22
 153              	.LVL7:
 154              	.L8:
 155              		.loc 1 73 5 is_stmt 1 discriminator 1 view .LVU48
 156              		.loc 1 74 7 discriminator 1 view .LVU49
 157              		.loc 1 74 28 is_stmt 0 discriminator 1 view .LVU50
 158 0074 401094E5 		ldr	r1, [r4, #64]
 159              		.loc 1 74 7 discriminator 1 view .LVU51
 160 0078 0500A0E1 		mov	r0, r5
 161 007c 7110EFE6 		uxtb	r1, r1
 162 0080 FEFFFFEB 		bl	sdIncomingDataI
 163              	.LVL8:
 164              		.loc 1 75 13 is_stmt 1 discriminator 1 view .LVU52
 165              		.loc 1 75 14 is_stmt 0 discriminator 1 view .LVU53
 166 0084 543094E5 		ldr	r3, [r4, #84]
 167              		.loc 1 75 5 discriminator 1 view .LVU54
 168 0088 010013E3 		tst	r3, #1
 169 008c F8FFFF1A 		bne	.L8
 170 0090 E1FFFFEA 		b	.L6
 171              	.LVL9:
ARM GAS  /tmp/ccCRVKmc.s 			page 4


 172              	.L21:
 173              	.LBB18:
 174              		.loc 1 85 7 is_stmt 1 view .LVU55
 175              		.loc 1 85 22 is_stmt 0 view .LVU56
 176 0094 443094E5 		ldr	r3, [r4, #68]
 177 0098 0230C3E3 		bic	r3, r3, #2
 178 009c 443084E5 		str	r3, [r4, #68]
 179 00a0 7080BDE8 		pop	{r4, r5, r6, pc}
 180              	.L23:
 181              		.align	2
 182              	.L22:
 183 00a4 00502120 		.word	539054080
 184              	.LBE18:
 185              		.cfi_endproc
 186              	.LFE8:
 187              		.size	sd_lld_serve_interrupt, .-sd_lld_serve_interrupt
 188              		.section	.text.sd_lld_init,"ax",%progbits
 189              		.align	2
 190              		.global	sd_lld_init
 191              		.syntax unified
 192              		.arm
 193              		.fpu softvfp
 194              		.type	sd_lld_init, %function
 195              	sd_lld_init:
 196              	.LFB9:
 197              		.loc 1 103 24 is_stmt 1 view -0
 198              		.cfi_startproc
 199              		@ args = 0, pretend = 0, frame = 0
 200              		@ frame_needed = 0, uses_anonymous_args = 0
 201              		@ link register save eliminated.
 202              		.loc 1 104 3 view .LVU58
 203 0000 0010A0E3 		mov	r1, #0
 204 0004 04209FE5 		ldr	r2, .L25
 205 0008 04009FE5 		ldr	r0, .L25+4
 206 000c FEFFFFEA 		b	sdObjectInit
 207              	.LVL10:
 208              	.L26:
 209              		.align	2
 210              	.L25:
 211 0010 00000000 		.word	output_notify
 212 0014 00000000 		.word	SD1
 213              		.cfi_endproc
 214              	.LFE9:
 215              		.size	sd_lld_init, .-sd_lld_init
 216              		.global	__aeabi_uidiv
 217              		.section	.text.sd_lld_start,"ax",%progbits
 218              		.align	2
 219              		.global	sd_lld_start
 220              		.syntax unified
 221              		.arm
 222              		.fpu softvfp
 223              		.type	sd_lld_start, %function
 224              	sd_lld_start:
 225              	.LVL11:
 226              	.LFB10:
 227              		.loc 1 117 66 view -0
 228              		.cfi_startproc
ARM GAS  /tmp/ccCRVKmc.s 			page 5


 229              		@ args = 0, pretend = 0, frame = 0
 230              		@ frame_needed = 0, uses_anonymous_args = 0
 231              		.loc 1 118 3 view .LVU60
 232              		.loc 1 120 3 view .LVU61
 233              		.loc 1 117 66 is_stmt 0 view .LVU62
 234 0000 F0472DE9 		push	{r4, r5, r6, r7, r8, r9, r10, lr}
 235              		.cfi_def_cfa_offset 32
 236              		.cfi_offset 4, -32
 237              		.cfi_offset 5, -28
 238              		.cfi_offset 6, -24
 239              		.cfi_offset 7, -20
 240              		.cfi_offset 8, -16
 241              		.cfi_offset 9, -12
 242              		.cfi_offset 10, -8
 243              		.cfi_offset 14, -4
 244              		.loc 1 127 19 view .LVU63
 245 0004 0050A0E3 		mov	r5, #0
 246              		.loc 1 121 12 view .LVU64
 247 0008 A0309FE5 		ldr	r3, .L30
 248 000c 050051E1 		cmp	r1, r5
 249 0010 0310A001 		moveq	r1, r3
 250              	.LVL12:
 251              		.loc 1 123 3 is_stmt 1 view .LVU65
 252              		.loc 1 131 19 is_stmt 0 view .LVU66
 253 0014 0520A0E3 		mov	r2, #5
 254              		.loc 1 132 19 view .LVU67
 255 0018 C630A0E3 		mov	r3, #198
 256              		.loc 1 129 19 view .LVU68
 257 001c 0390A0E3 		mov	r9, #3
 258              		.loc 1 123 16 view .LVU69
 259 0020 0282A0E3 		mov	r8, #536870912
 260              		.loc 1 125 15 view .LVU70
 261 0024 0100A0E3 		mov	r0, #1
 262              	.LVL13:
 263              		.loc 1 125 15 view .LVU71
 264 0028 84409FE5 		ldr	r4, .L30+4
 265              		.loc 1 123 16 view .LVU72
 266 002c 84709FE5 		ldr	r7, .L30+8
 267              		.loc 1 138 9 view .LVU73
 268 0030 84609FE5 		ldr	r6, .L30+12
 269              		.loc 1 123 16 view .LVU74
 270 0034 1C8287E5 		str	r8, [r7, #540]
 271              		.loc 1 125 3 is_stmt 1 view .LVU75
 272              		.loc 1 125 15 is_stmt 0 view .LVU76
 273 0038 040084E5 		str	r0, [r4, #4]
 274              		.loc 1 127 3 is_stmt 1 view .LVU77
 275              		.loc 1 127 19 is_stmt 0 view .LVU78
 276 003c 445084E5 		str	r5, [r4, #68]
 277              		.loc 1 128 3 is_stmt 1 view .LVU79
 278              		.loc 1 128 19 is_stmt 0 view .LVU80
 279 0040 605084E5 		str	r5, [r4, #96]
 280              		.loc 1 129 3 is_stmt 1 view .LVU81
 281              		.loc 1 129 19 is_stmt 0 view .LVU82
 282 0044 4C9084E5 		str	r9, [r4, #76]
 283              		.loc 1 130 3 is_stmt 1 view .LVU83
 284              		.loc 1 130 19 is_stmt 0 view .LVU84
 285 0048 505084E5 		str	r5, [r4, #80]
ARM GAS  /tmp/ccCRVKmc.s 			page 6


 286              		.loc 1 131 3 is_stmt 1 view .LVU85
 287              		.loc 1 131 19 is_stmt 0 view .LVU86
 288 004c 442084E5 		str	r2, [r4, #68]
 289              		.loc 1 132 3 is_stmt 1 view .LVU87
 290              		.loc 1 132 19 is_stmt 0 view .LVU88
 291 0050 483084E5 		str	r3, [r4, #72]
 292              		.loc 1 133 3 is_stmt 1 view .LVU89
 293              		.loc 1 133 21 is_stmt 0 view .LVU90
 294 0054 001091E5 		ldr	r1, [r1]
 295              	.LVL14:
 296              		.loc 1 133 21 view .LVU91
 297 0058 60009FE5 		ldr	r0, .L30+16
 298 005c 1119A0E1 		lsl	r1, r1, r9
 299 0060 FEFFFFEB 		bl	__aeabi_uidiv
 300              	.LVL15:
 301              		.loc 1 133 21 view .LVU92
 302 0064 010040E2 		sub	r0, r0, #1
 303              		.loc 1 135 3 view .LVU93
 304 0068 0210A0E3 		mov	r1, #2
 305              		.loc 1 133 19 view .LVU94
 306 006c 680084E5 		str	r0, [r4, #104]
 307              		.loc 1 135 3 is_stmt 1 view .LVU95
 308 0070 0E00A0E3 		mov	r0, #14
 309 0074 FEFFFFEB 		bl	bcm2835_gpio_fnsel
 310              	.LVL16:
 311              		.loc 1 136 3 view .LVU96
 312 0078 0210A0E3 		mov	r1, #2
 313 007c 0F00A0E3 		mov	r0, #15
 314 0080 FEFFFFEB 		bl	bcm2835_gpio_fnsel
 315              	.LVL17:
 316              		.loc 1 138 3 view .LVU97
 317              		.loc 1 139 3 is_stmt 0 view .LVU98
 318 0084 9600A0E3 		mov	r0, #150
 319              		.loc 1 138 9 view .LVU99
 320 0088 945086E5 		str	r5, [r6, #148]
 321              		.loc 1 139 3 is_stmt 1 view .LVU100
 322 008c FEFFFFEB 		bl	bcm2835_delay
 323              	.LVL18:
 324              		.loc 1 140 3 view .LVU101
 325              		.loc 1 140 13 is_stmt 0 view .LVU102
 326 0090 0339A0E3 		mov	r3, #49152
 327              		.loc 1 141 3 view .LVU103
 328 0094 9600A0E3 		mov	r0, #150
 329              		.loc 1 140 13 view .LVU104
 330 0098 983086E5 		str	r3, [r6, #152]
 331              		.loc 1 141 3 is_stmt 1 view .LVU105
 332 009c FEFFFFEB 		bl	bcm2835_delay
 333              	.LVL19:
 334              		.loc 1 142 3 view .LVU106
 335              		.loc 1 142 13 is_stmt 0 view .LVU107
 336 00a0 985086E5 		str	r5, [r6, #152]
 337              		.loc 1 144 3 is_stmt 1 view .LVU108
 338              		.loc 1 144 19 is_stmt 0 view .LVU109
 339 00a4 609084E5 		str	r9, [r4, #96]
 340              		.loc 1 146 3 is_stmt 1 view .LVU110
 341              		.loc 1 146 15 is_stmt 0 view .LVU111
 342 00a8 108287E5 		str	r8, [r7, #528]
ARM GAS  /tmp/ccCRVKmc.s 			page 7


 343              		.loc 1 147 1 view .LVU112
 344 00ac F087BDE8 		pop	{r4, r5, r6, r7, r8, r9, r10, pc}
 345              	.L31:
 346              		.align	2
 347              	.L30:
 348 00b0 00000000 		.word	.LANCHOR0
 349 00b4 00502120 		.word	539054080
 350 00b8 00B00020 		.word	536915968
 351 00bc 00002020 		.word	538968064
 352 00c0 80B2E60E 		.word	250000000
 353              		.cfi_endproc
 354              	.LFE10:
 355              		.size	sd_lld_start, .-sd_lld_start
 356              		.section	.text.sd_lld_stop,"ax",%progbits
 357              		.align	2
 358              		.global	sd_lld_stop
 359              		.syntax unified
 360              		.arm
 361              		.fpu softvfp
 362              		.type	sd_lld_stop, %function
 363              	sd_lld_stop:
 364              	.LVL20:
 365              	.LFB11:
 366              		.loc 1 158 37 is_stmt 1 view -0
 367              		.cfi_startproc
 368              		@ args = 0, pretend = 0, frame = 0
 369              		@ frame_needed = 0, uses_anonymous_args = 0
 370              		.loc 1 159 3 view .LVU114
 371              		.loc 1 161 3 view .LVU115
 372              		.loc 1 161 16 is_stmt 0 view .LVU116
 373 0000 28209FE5 		ldr	r2, .L34
 374              		.loc 1 158 37 view .LVU117
 375 0004 10402DE9 		push	{r4, lr}
 376              		.cfi_def_cfa_offset 8
 377              		.cfi_offset 4, -8
 378              		.cfi_offset 14, -4
 379              		.loc 1 161 16 view .LVU118
 380 0008 1C3292E5 		ldr	r3, [r2, #540]
 381              		.loc 1 162 3 view .LVU119
 382 000c 0010A0E3 		mov	r1, #0
 383              		.loc 1 161 16 view .LVU120
 384 0010 023283E3 		orr	r3, r3, #536870912
 385              		.loc 1 162 3 view .LVU121
 386 0014 0E00A0E3 		mov	r0, #14
 387              	.LVL21:
 388              		.loc 1 161 16 view .LVU122
 389 0018 1C3282E5 		str	r3, [r2, #540]
 390              		.loc 1 162 3 is_stmt 1 view .LVU123
 391 001c FEFFFFEB 		bl	bcm2835_gpio_fnsel
 392              	.LVL22:
 393              		.loc 1 163 3 view .LVU124
 394              		.loc 1 164 1 is_stmt 0 view .LVU125
 395 0020 1040BDE8 		pop	{r4, lr}
 396              		.cfi_restore 14
 397              		.cfi_restore 4
 398              		.cfi_def_cfa_offset 0
 399              		.loc 1 163 3 view .LVU126
ARM GAS  /tmp/ccCRVKmc.s 			page 8


 400 0024 0010A0E3 		mov	r1, #0
 401 0028 0F00A0E3 		mov	r0, #15
 402 002c FEFFFFEA 		b	bcm2835_gpio_fnsel
 403              	.LVL23:
 404              	.L35:
 405              		.align	2
 406              	.L34:
 407 0030 00B00020 		.word	536915968
 408              		.cfi_endproc
 409              	.LFE11:
 410              		.size	sd_lld_stop, .-sd_lld_stop
 411              		.section	.text.mini_uart_recv,"ax",%progbits
 412              		.align	2
 413              		.global	mini_uart_recv
 414              		.syntax unified
 415              		.arm
 416              		.fpu softvfp
 417              		.type	mini_uart_recv, %function
 418              	mini_uart_recv:
 419              	.LFB12:
 420              		.loc 1 167 1 is_stmt 1 view -0
 421              		.cfi_startproc
 422              		@ args = 0, pretend = 0, frame = 0
 423              		@ frame_needed = 0, uses_anonymous_args = 0
 424              		@ link register save eliminated.
 425              		.loc 1 168 3 view .LVU128
 426              		.loc 1 168 10 is_stmt 0 view .LVU129
 427 0000 14209FE5 		ldr	r2, .L40
 428              	.L37:
 429              		.loc 1 168 38 is_stmt 1 discriminator 1 view .LVU130
 430              		.loc 1 168 8 discriminator 1 view .LVU131
 431              		.loc 1 168 10 is_stmt 0 discriminator 1 view .LVU132
 432 0004 543092E5 		ldr	r3, [r2, #84]
 433              		.loc 1 168 8 discriminator 1 view .LVU133
 434 0008 010013E3 		tst	r3, #1
 435 000c FCFFFF0A 		beq	.L37
 436              		.loc 1 169 3 is_stmt 1 view .LVU134
 437              		.loc 1 169 24 is_stmt 0 view .LVU135
 438 0010 400092E5 		ldr	r0, [r2, #64]
 439              		.loc 1 170 1 view .LVU136
 440 0014 7000EFE6 		uxtb	r0, r0
 441 0018 1EFF2FE1 		bx	lr
 442              	.L41:
 443              		.align	2
 444              	.L40:
 445 001c 00502120 		.word	539054080
 446              		.cfi_endproc
 447              	.LFE12:
 448              		.size	mini_uart_recv, .-mini_uart_recv
 449              		.section	.text.mini_uart_send,"ax",%progbits
 450              		.align	2
 451              		.global	mini_uart_send
 452              		.syntax unified
 453              		.arm
 454              		.fpu softvfp
 455              		.type	mini_uart_send, %function
 456              	mini_uart_send:
ARM GAS  /tmp/ccCRVKmc.s 			page 9


 457              	.LVL24:
 458              	.LFB13:
 459              		.loc 1 173 1 is_stmt 1 view -0
 460              		.cfi_startproc
 461              		@ args = 0, pretend = 0, frame = 0
 462              		@ frame_needed = 0, uses_anonymous_args = 0
 463              		@ link register save eliminated.
 464              		.loc 1 174 3 view .LVU138
 465              		.loc 1 174 10 is_stmt 0 view .LVU139
 466 0000 10209FE5 		ldr	r2, .L46
 467              	.L43:
 468              		.loc 1 174 38 is_stmt 1 discriminator 1 view .LVU140
 469              		.loc 1 174 8 discriminator 1 view .LVU141
 470              		.loc 1 174 10 is_stmt 0 discriminator 1 view .LVU142
 471 0004 543092E5 		ldr	r3, [r2, #84]
 472              		.loc 1 174 8 discriminator 1 view .LVU143
 473 0008 200013E3 		tst	r3, #32
 474 000c FCFFFF0A 		beq	.L43
 475              		.loc 1 175 3 is_stmt 1 view .LVU144
 476              		.loc 1 175 17 is_stmt 0 view .LVU145
 477 0010 400082E5 		str	r0, [r2, #64]
 478              		.loc 1 176 1 view .LVU146
 479 0014 1EFF2FE1 		bx	lr
 480              	.L47:
 481              		.align	2
 482              	.L46:
 483 0018 00502120 		.word	539054080
 484              		.cfi_endproc
 485              	.LFE13:
 486              		.size	mini_uart_send, .-mini_uart_send
 487              		.section	.text.mini_uart_sendstr,"ax",%progbits
 488              		.align	2
 489              		.global	mini_uart_sendstr
 490              		.syntax unified
 491              		.arm
 492              		.fpu softvfp
 493              		.type	mini_uart_sendstr, %function
 494              	mini_uart_sendstr:
 495              	.LVL25:
 496              	.LFB14:
 497              		.loc 1 179 1 is_stmt 1 view -0
 498              		.cfi_startproc
 499              		@ args = 0, pretend = 0, frame = 0
 500              		@ frame_needed = 0, uses_anonymous_args = 0
 501              		@ link register save eliminated.
 502              		.loc 1 180 3 view .LVU148
 503              		.loc 1 181 3 view .LVU149
 504              		.loc 1 181 8 view .LVU150
 505              		.loc 1 181 12 is_stmt 0 view .LVU151
 506 0000 0110D0E4 		ldrb	r1, [r0], #1	@ zero_extendqisi2
 507              	.LVL26:
 508              		.loc 1 181 8 view .LVU152
 509 0004 000051E3 		cmp	r1, #0
 510 0008 1EFF2F01 		bxeq	lr
 511              	.LBB19:
 512              	.LBB20:
 513              		.loc 1 174 10 view .LVU153
ARM GAS  /tmp/ccCRVKmc.s 			page 10


 514 000c 1C209FE5 		ldr	r2, .L58
 515              	.LVL27:
 516              	.L50:
 517              		.loc 1 174 38 is_stmt 1 view .LVU154
 518              		.loc 1 174 8 view .LVU155
 519              		.loc 1 174 10 is_stmt 0 view .LVU156
 520 0010 543092E5 		ldr	r3, [r2, #84]
 521              		.loc 1 174 8 view .LVU157
 522 0014 200013E3 		tst	r3, #32
 523 0018 FCFFFF0A 		beq	.L50
 524              		.loc 1 175 3 is_stmt 1 view .LVU158
 525              		.loc 1 175 17 is_stmt 0 view .LVU159
 526 001c 401082E5 		str	r1, [r2, #64]
 527              		.loc 1 175 17 view .LVU160
 528              	.LBE20:
 529              	.LBE19:
 530              		.loc 1 181 8 is_stmt 1 view .LVU161
 531              	.LVL28:
 532              		.loc 1 181 12 is_stmt 0 view .LVU162
 533 0020 0110D0E4 		ldrb	r1, [r0], #1	@ zero_extendqisi2
 534              	.LVL29:
 535              		.loc 1 181 8 view .LVU163
 536 0024 000051E3 		cmp	r1, #0
 537 0028 F8FFFF1A 		bne	.L50
 538 002c 1EFF2FE1 		bx	lr
 539              	.L59:
 540              		.align	2
 541              	.L58:
 542 0030 00502120 		.word	539054080
 543              		.cfi_endproc
 544              	.LFE14:
 545              		.size	mini_uart_sendstr, .-mini_uart_sendstr
 546              		.section	.text.mini_uart_sendhex,"ax",%progbits
 547              		.align	2
 548              		.global	mini_uart_sendhex
 549              		.syntax unified
 550              		.arm
 551              		.fpu softvfp
 552              		.type	mini_uart_sendhex, %function
 553              	mini_uart_sendhex:
 554              	.LVL30:
 555              	.LFB15:
 556              		.loc 1 185 1 is_stmt 1 view -0
 557              		.cfi_startproc
 558              		@ args = 0, pretend = 0, frame = 0
 559              		@ frame_needed = 0, uses_anonymous_args = 0
 560              		.loc 1 186 3 view .LVU165
 561              		.loc 1 187 3 view .LVU166
 562              		.loc 1 189 3 view .LVU167
 563              		.loc 1 185 1 is_stmt 0 view .LVU168
 564 0000 04E02DE5 		str	lr, [sp, #-4]!
 565              		.cfi_def_cfa_offset 4
 566              		.cfi_offset 14, -4
 567              		.loc 1 189 5 view .LVU169
 568 0004 20E0A0E3 		mov	lr, #32
 569              	.LBB21:
 570              	.LBB22:
ARM GAS  /tmp/ccCRVKmc.s 			page 11


 571              		.loc 1 174 10 view .LVU170
 572 0008 80209FE5 		ldr	r2, .L82
 573              	.LVL31:
 574              	.L64:
 575              		.loc 1 174 10 view .LVU171
 576              	.LBE22:
 577              	.LBE21:
 578              		.loc 1 190 3 is_stmt 1 view .LVU172
 579              		.loc 1 192 5 view .LVU173
 580              		.loc 1 192 7 is_stmt 0 view .LVU174
 581 000c 04E04EE2 		sub	lr, lr, #4
 582              	.LVL32:
 583              		.loc 1 193 5 is_stmt 1 view .LVU175
 584              		.loc 1 193 10 is_stmt 0 view .LVU176
 585 0010 303EA0E1 		lsr	r3, r0, lr
 586              		.loc 1 193 7 view .LVU177
 587 0014 0F3003E2 		and	r3, r3, #15
 588              	.LVL33:
 589              		.loc 1 194 5 is_stmt 1 view .LVU178
 590              		.loc 1 194 7 is_stmt 0 view .LVU179
 591 0018 090053E3 		cmp	r3, #9
 592              		.loc 1 195 7 is_stmt 1 view .LVU180
 593              		.loc 1 195 9 is_stmt 0 view .LVU181
 594 001c 37C08382 		addhi	ip, r3, #55
 595              	.LVL34:
 596              		.loc 1 197 7 is_stmt 1 view .LVU182
 597              		.loc 1 197 9 is_stmt 0 view .LVU183
 598 0020 30C08392 		addls	ip, r3, #48
 599              	.LVL35:
 600              		.loc 1 198 5 is_stmt 1 view .LVU184
 601              	.LBB25:
 602              	.LBI21:
 603              		.loc 1 172 6 view .LVU185
 604              	.LBB23:
 605              		.loc 1 174 3 view .LVU186
 606              	.L63:
 607              		.loc 1 174 38 view .LVU187
 608              		.loc 1 174 8 view .LVU188
 609              		.loc 1 174 10 is_stmt 0 view .LVU189
 610 0024 543092E5 		ldr	r3, [r2, #84]
 611              		.loc 1 174 8 view .LVU190
 612 0028 200013E3 		tst	r3, #32
 613 002c FCFFFF0A 		beq	.L63
 614              		.loc 1 175 3 is_stmt 1 view .LVU191
 615              	.LBE23:
 616              	.LBE25:
 617              		.loc 1 199 7 is_stmt 0 view .LVU192
 618 0030 00005EE3 		cmp	lr, #0
 619              	.LBB26:
 620              	.LBB24:
 621              		.loc 1 175 17 view .LVU193
 622 0034 40C082E5 		str	ip, [r2, #64]
 623              	.LVL36:
 624              		.loc 1 175 17 view .LVU194
 625              	.LBE24:
 626              	.LBE26:
 627              		.loc 1 199 5 is_stmt 1 view .LVU195
ARM GAS  /tmp/ccCRVKmc.s 			page 12


 628              		.loc 1 199 7 is_stmt 0 view .LVU196
 629 0038 F3FFFF1A 		bne	.L64
 630              	.LBB27:
 631              	.LBB28:
 632              		.loc 1 174 10 view .LVU197
 633 003c 4C209FE5 		ldr	r2, .L82
 634              	.L65:
 635              		.loc 1 174 38 is_stmt 1 view .LVU198
 636              		.loc 1 174 8 view .LVU199
 637              		.loc 1 174 10 is_stmt 0 view .LVU200
 638 0040 543092E5 		ldr	r3, [r2, #84]
 639              		.loc 1 174 8 view .LVU201
 640 0044 200013E3 		tst	r3, #32
 641 0048 FCFFFF0A 		beq	.L65
 642              		.loc 1 175 3 is_stmt 1 view .LVU202
 643              		.loc 1 175 17 is_stmt 0 view .LVU203
 644 004c 2030A0E3 		mov	r3, #32
 645              	.LBE28:
 646              	.LBE27:
 647              		.loc 1 204 6 view .LVU204
 648 0050 000051E3 		cmp	r1, #0
 649              	.LBB30:
 650              	.LBB29:
 651              		.loc 1 175 17 view .LVU205
 652 0054 403082E5 		str	r3, [r2, #64]
 653              	.LBE29:
 654              	.LBE30:
 655              		.loc 1 204 3 is_stmt 1 view .LVU206
 656              		.loc 1 204 6 is_stmt 0 view .LVU207
 657 0058 04F09D04 		ldreq	pc, [sp], #4
 658              	.LBB31:
 659              	.LBB32:
 660              		.loc 1 174 10 view .LVU208
 661 005c 2C109FE5 		ldr	r1, .L82
 662              	.LVL37:
 663              	.L67:
 664              		.loc 1 174 38 is_stmt 1 view .LVU209
 665              		.loc 1 174 8 view .LVU210
 666              		.loc 1 174 10 is_stmt 0 view .LVU211
 667 0060 543091E5 		ldr	r3, [r1, #84]
 668              		.loc 1 174 8 view .LVU212
 669 0064 200013E3 		tst	r3, #32
 670 0068 FCFFFF0A 		beq	.L67
 671              		.loc 1 175 3 is_stmt 1 view .LVU213
 672              		.loc 1 175 17 is_stmt 0 view .LVU214
 673 006c 0D30A0E3 		mov	r3, #13
 674              	.LBE32:
 675              	.LBE31:
 676              	.LBB34:
 677              	.LBB35:
 678              		.loc 1 174 10 view .LVU215
 679 0070 18209FE5 		ldr	r2, .L82
 680              	.LBE35:
 681              	.LBE34:
 682              	.LBB37:
 683              	.LBB33:
 684              		.loc 1 175 17 view .LVU216
ARM GAS  /tmp/ccCRVKmc.s 			page 13


 685 0074 403081E5 		str	r3, [r1, #64]
 686              	.L68:
 687              	.LBE33:
 688              	.LBE37:
 689              	.LBB38:
 690              	.LBB36:
 691              		.loc 1 174 38 is_stmt 1 view .LVU217
 692              		.loc 1 174 8 view .LVU218
 693              		.loc 1 174 10 is_stmt 0 view .LVU219
 694 0078 543092E5 		ldr	r3, [r2, #84]
 695              		.loc 1 174 8 view .LVU220
 696 007c 200013E3 		tst	r3, #32
 697 0080 FCFFFF0A 		beq	.L68
 698              		.loc 1 175 3 is_stmt 1 view .LVU221
 699              		.loc 1 175 17 is_stmt 0 view .LVU222
 700 0084 0A30A0E3 		mov	r3, #10
 701 0088 403082E5 		str	r3, [r2, #64]
 702              	.LBE36:
 703              	.LBE38:
 704              		.loc 1 208 1 view .LVU223
 705 008c 04F09DE4 		ldr	pc, [sp], #4
 706              	.L83:
 707              		.align	2
 708              	.L82:
 709 0090 00502120 		.word	539054080
 710              		.cfi_endproc
 711              	.LFE15:
 712              		.size	mini_uart_sendhex, .-mini_uart_sendhex
 713              		.comm	SD1,116,4
 714              		.section	.rodata.default_config,"a"
 715              		.align	2
 716              		.set	.LANCHOR0,. + 0
 717              		.type	default_config, %object
 718              		.size	default_config, 4
 719              	default_config:
 720 0000 00C20100 		.word	115200
 721              		.text
 722              	.Letext0:
 723              		.file 2 "/usr/lib/gcc/arm-none-eabi/9.2.1/include/stddef.h"
 724              		.file 3 "/usr/lib/gcc/arm-none-eabi/9.2.1/include/stdint.h"
 725              		.file 4 "../os/ports/GCC/ARM/chtypes.h"
 726              		.file 5 "../os/kernel/include/chlists.h"
 727              		.file 6 "../os/kernel/include/chthreads.h"
 728              		.file 7 "../os/ports/GCC/ARM/chcore.h"
 729              		.file 8 "../os/kernel/include/chvt.h"
 730              		.file 9 "../os/kernel/include/chschd.h"
 731              		.file 10 "../os/kernel/include/chmtx.h"
 732              		.file 11 "../os/kernel/include/chevents.h"
 733              		.file 12 "../os/kernel/include/chregistry.h"
 734              		.file 13 "../os/kernel/include/chqueues.h"
 735              		.file 14 "../os/kernel/include/ch.h"
 736              		.file 15 "../os/hal/platforms/BCM2835/bcm2835.h"
 737              		.file 16 "../os/hal/platforms/BCM2835/pal_lld.h"
 738              		.file 17 "../os/hal/include/i2c.h"
 739              		.file 18 "../os/hal/platforms/BCM2835/i2c_lld.h"
 740              		.file 19 "../os/hal/include/serial.h"
 741              		.file 20 "../os/hal/platforms/BCM2835/serial_lld.h"
ARM GAS  /tmp/ccCRVKmc.s 			page 14


 742              		.file 21 "../os/hal/include/spi.h"
 743              		.file 22 "../os/hal/platforms/BCM2835/spi_lld.h"
 744              		.section	.debug_info,"",%progbits
 745              	.Ldebug_info0:
 746 0000 9E110000 		.4byte	0x119e
 747 0004 0400     		.2byte	0x4
 748 0006 00000000 		.4byte	.Ldebug_abbrev0
 749 000a 04       		.byte	0x4
 750 000b 01       		.uleb128 0x1
 751 000c 1D000000 		.4byte	.LASF212
 752 0010 0C       		.byte	0xc
 753 0011 4E040000 		.4byte	.LASF213
 754 0015 FC010000 		.4byte	.LASF214
 755 0019 80000000 		.4byte	.Ldebug_ranges0+0x80
 756 001d 00000000 		.4byte	0
 757 0021 00000000 		.4byte	.Ldebug_line0
 758 0025 02       		.uleb128 0x2
 759 0026 04       		.byte	0x4
 760 0027 05       		.byte	0x5
 761 0028 696E7400 		.ascii	"int\000"
 762 002c 03       		.uleb128 0x3
 763 002d 73030000 		.4byte	.LASF3
 764 0031 02       		.byte	0x2
 765 0032 D1       		.byte	0xd1
 766 0033 17       		.byte	0x17
 767 0034 38000000 		.4byte	0x38
 768 0038 04       		.uleb128 0x4
 769 0039 04       		.byte	0x4
 770 003a 07       		.byte	0x7
 771 003b 99030000 		.4byte	.LASF0
 772 003f 05       		.uleb128 0x5
 773 0040 38000000 		.4byte	0x38
 774 0044 04       		.uleb128 0x4
 775 0045 01       		.byte	0x1
 776 0046 06       		.byte	0x6
 777 0047 C2010000 		.4byte	.LASF1
 778 004b 04       		.uleb128 0x4
 779 004c 02       		.byte	0x2
 780 004d 05       		.byte	0x5
 781 004e A1060000 		.4byte	.LASF2
 782 0052 03       		.uleb128 0x3
 783 0053 5F060000 		.4byte	.LASF4
 784 0057 03       		.byte	0x3
 785 0058 28       		.byte	0x28
 786 0059 18       		.byte	0x18
 787 005a 5E000000 		.4byte	0x5e
 788 005e 04       		.uleb128 0x4
 789 005f 04       		.byte	0x4
 790 0060 05       		.byte	0x5
 791 0061 81020000 		.4byte	.LASF5
 792 0065 04       		.uleb128 0x4
 793 0066 08       		.byte	0x8
 794 0067 05       		.byte	0x5
 795 0068 B4010000 		.4byte	.LASF6
 796 006c 03       		.uleb128 0x3
 797 006d DA080000 		.4byte	.LASF7
 798 0071 03       		.byte	0x3
ARM GAS  /tmp/ccCRVKmc.s 			page 15


 799 0072 2E       		.byte	0x2e
 800 0073 18       		.byte	0x18
 801 0074 7D000000 		.4byte	0x7d
 802 0078 06       		.uleb128 0x6
 803 0079 6C000000 		.4byte	0x6c
 804 007d 04       		.uleb128 0x4
 805 007e 01       		.byte	0x1
 806 007f 08       		.byte	0x8
 807 0080 67060000 		.4byte	.LASF8
 808 0084 03       		.uleb128 0x3
 809 0085 C2020000 		.4byte	.LASF9
 810 0089 03       		.byte	0x3
 811 008a 31       		.byte	0x31
 812 008b 19       		.byte	0x19
 813 008c 90000000 		.4byte	0x90
 814 0090 04       		.uleb128 0x4
 815 0091 02       		.byte	0x2
 816 0092 07       		.byte	0x7
 817 0093 2F040000 		.4byte	.LASF10
 818 0097 03       		.uleb128 0x3
 819 0098 55070000 		.4byte	.LASF11
 820 009c 03       		.byte	0x3
 821 009d 34       		.byte	0x34
 822 009e 19       		.byte	0x19
 823 009f A8000000 		.4byte	0xa8
 824 00a3 05       		.uleb128 0x5
 825 00a4 97000000 		.4byte	0x97
 826 00a8 04       		.uleb128 0x4
 827 00a9 04       		.byte	0x4
 828 00aa 07       		.byte	0x7
 829 00ab D2030000 		.4byte	.LASF12
 830 00af 04       		.uleb128 0x4
 831 00b0 08       		.byte	0x8
 832 00b1 07       		.byte	0x7
 833 00b2 34010000 		.4byte	.LASF13
 834 00b6 03       		.uleb128 0x3
 835 00b7 82010000 		.4byte	.LASF14
 836 00bb 04       		.byte	0x4
 837 00bc 29       		.byte	0x29
 838 00bd 19       		.byte	0x19
 839 00be 52000000 		.4byte	0x52
 840 00c2 03       		.uleb128 0x3
 841 00c3 A1040000 		.4byte	.LASF15
 842 00c7 04       		.byte	0x4
 843 00c8 2A       		.byte	0x2a
 844 00c9 19       		.byte	0x19
 845 00ca 6C000000 		.4byte	0x6c
 846 00ce 03       		.uleb128 0x3
 847 00cf 99020000 		.4byte	.LASF16
 848 00d3 04       		.byte	0x4
 849 00d4 2B       		.byte	0x2b
 850 00d5 19       		.byte	0x19
 851 00d6 6C000000 		.4byte	0x6c
 852 00da 03       		.uleb128 0x3
 853 00db 0F060000 		.4byte	.LASF17
 854 00df 04       		.byte	0x4
 855 00e0 2C       		.byte	0x2c
ARM GAS  /tmp/ccCRVKmc.s 			page 16


 856 00e1 19       		.byte	0x19
 857 00e2 6C000000 		.4byte	0x6c
 858 00e6 03       		.uleb128 0x3
 859 00e7 5C020000 		.4byte	.LASF18
 860 00eb 04       		.byte	0x4
 861 00ec 2D       		.byte	0x2d
 862 00ed 19       		.byte	0x19
 863 00ee 6C000000 		.4byte	0x6c
 864 00f2 03       		.uleb128 0x3
 865 00f3 3E060000 		.4byte	.LASF19
 866 00f7 04       		.byte	0x4
 867 00f8 2E       		.byte	0x2e
 868 00f9 19       		.byte	0x19
 869 00fa 97000000 		.4byte	0x97
 870 00fe 03       		.uleb128 0x3
 871 00ff 77040000 		.4byte	.LASF20
 872 0103 04       		.byte	0x4
 873 0104 2F       		.byte	0x2f
 874 0105 19       		.byte	0x19
 875 0106 52000000 		.4byte	0x52
 876 010a 03       		.uleb128 0x3
 877 010b BB040000 		.4byte	.LASF21
 878 010f 04       		.byte	0x4
 879 0110 31       		.byte	0x31
 880 0111 19       		.byte	0x19
 881 0112 97000000 		.4byte	0x97
 882 0116 03       		.uleb128 0x3
 883 0117 49080000 		.4byte	.LASF22
 884 011b 04       		.byte	0x4
 885 011c 32       		.byte	0x32
 886 011d 19       		.byte	0x19
 887 011e 97000000 		.4byte	0x97
 888 0122 03       		.uleb128 0x3
 889 0123 CA070000 		.4byte	.LASF23
 890 0127 04       		.byte	0x4
 891 0128 33       		.byte	0x33
 892 0129 19       		.byte	0x19
 893 012a 97000000 		.4byte	0x97
 894 012e 05       		.uleb128 0x5
 895 012f 22010000 		.4byte	0x122
 896 0133 03       		.uleb128 0x3
 897 0134 13070000 		.4byte	.LASF24
 898 0138 05       		.byte	0x5
 899 0139 23       		.byte	0x23
 900 013a 17       		.byte	0x17
 901 013b 3F010000 		.4byte	0x13f
 902 013f 07       		.uleb128 0x7
 903 0140 13070000 		.4byte	.LASF24
 904 0144 44       		.byte	0x44
 905 0145 06       		.byte	0x6
 906 0146 57       		.byte	0x57
 907 0147 08       		.byte	0x8
 908 0148 44020000 		.4byte	0x244
 909 014c 08       		.uleb128 0x8
 910 014d ED060000 		.4byte	.LASF25
 911 0151 06       		.byte	0x6
 912 0152 58       		.byte	0x58
ARM GAS  /tmp/ccCRVKmc.s 			page 17


 913 0153 1A       		.byte	0x1a
 914 0154 68020000 		.4byte	0x268
 915 0158 00       		.byte	0
 916 0159 08       		.uleb128 0x8
 917 015a 37060000 		.4byte	.LASF26
 918 015e 06       		.byte	0x6
 919 015f 5A       		.byte	0x5a
 920 0160 1A       		.byte	0x1a
 921 0161 68020000 		.4byte	0x268
 922 0165 04       		.byte	0x4
 923 0166 08       		.uleb128 0x8
 924 0167 89010000 		.4byte	.LASF27
 925 016b 06       		.byte	0x6
 926 016c 5C       		.byte	0x5c
 927 016d 19       		.byte	0x19
 928 016e F2000000 		.4byte	0xf2
 929 0172 08       		.byte	0x8
 930 0173 08       		.uleb128 0x8
 931 0174 B1090000 		.4byte	.LASF28
 932 0178 06       		.byte	0x6
 933 0179 5D       		.byte	0x5d
 934 017a 19       		.byte	0x19
 935 017b 33030000 		.4byte	0x333
 936 017f 0C       		.byte	0xc
 937 0180 08       		.uleb128 0x8
 938 0181 F4020000 		.4byte	.LASF29
 939 0185 06       		.byte	0x6
 940 0186 5F       		.byte	0x5f
 941 0187 1A       		.byte	0x1a
 942 0188 68020000 		.4byte	0x268
 943 018c 10       		.byte	0x10
 944 018d 08       		.uleb128 0x8
 945 018e 70050000 		.4byte	.LASF30
 946 0192 06       		.byte	0x6
 947 0193 60       		.byte	0x60
 948 0194 1A       		.byte	0x1a
 949 0195 68020000 		.4byte	0x268
 950 0199 14       		.byte	0x14
 951 019a 08       		.uleb128 0x8
 952 019b 0F090000 		.4byte	.LASF31
 953 019f 06       		.byte	0x6
 954 01a0 67       		.byte	0x67
 955 01a1 1A       		.byte	0x1a
 956 01a2 94050000 		.4byte	0x594
 957 01a6 18       		.byte	0x18
 958 01a7 08       		.uleb128 0x8
 959 01a8 AB060000 		.4byte	.LASF32
 960 01ac 06       		.byte	0x6
 961 01ad 72       		.byte	0x72
 962 01ae 19       		.byte	0x19
 963 01af CE000000 		.4byte	0xce
 964 01b3 1C       		.byte	0x1c
 965 01b4 08       		.uleb128 0x8
 966 01b5 0B070000 		.4byte	.LASF33
 967 01b9 06       		.byte	0x6
 968 01ba 76       		.byte	0x76
 969 01bb 19       		.byte	0x19
ARM GAS  /tmp/ccCRVKmc.s 			page 18


 970 01bc C2000000 		.4byte	0xc2
 971 01c0 1D       		.byte	0x1d
 972 01c1 08       		.uleb128 0x8
 973 01c2 96080000 		.4byte	.LASF34
 974 01c6 06       		.byte	0x6
 975 01c7 7B       		.byte	0x7b
 976 01c8 19       		.byte	0x19
 977 01c9 DA000000 		.4byte	0xda
 978 01cd 1E       		.byte	0x1e
 979 01ce 08       		.uleb128 0x8
 980 01cf B3060000 		.4byte	.LASF35
 981 01d3 06       		.byte	0x6
 982 01d4 81       		.byte	0x81
 983 01d5 19       		.byte	0x19
 984 01d6 E6000000 		.4byte	0xe6
 985 01da 1F       		.byte	0x1f
 986 01db 08       		.uleb128 0x8
 987 01dc FC070000 		.4byte	.LASF36
 988 01e0 06       		.byte	0x6
 989 01e1 88       		.byte	0x88
 990 01e2 19       		.byte	0x19
 991 01e3 2E010000 		.4byte	0x12e
 992 01e7 20       		.byte	0x20
 993 01e8 09       		.uleb128 0x9
 994 01e9 705F7500 		.ascii	"p_u\000"
 995 01ed 06       		.byte	0x6
 996 01ee AD       		.byte	0xad
 997 01ef 19       		.byte	0x19
 998 01f0 5A050000 		.4byte	0x55a
 999 01f4 24       		.byte	0x24
 1000 01f5 08       		.uleb128 0x8
 1001 01f6 B7090000 		.4byte	.LASF37
 1002 01fa 06       		.byte	0x6
 1003 01fb B2       		.byte	0xb2
 1004 01fc 19       		.byte	0x19
 1005 01fd 91020000 		.4byte	0x291
 1006 0201 28       		.byte	0x28
 1007 0202 08       		.uleb128 0x8
 1008 0203 19080000 		.4byte	.LASF38
 1009 0207 06       		.byte	0x6
 1010 0208 B8       		.byte	0xb8
 1011 0209 19       		.byte	0x19
 1012 020a 6E020000 		.4byte	0x26e
 1013 020e 2C       		.byte	0x2c
 1014 020f 08       		.uleb128 0x8
 1015 0210 0D000000 		.4byte	.LASF39
 1016 0214 06       		.byte	0x6
 1017 0215 BC       		.byte	0xbc
 1018 0216 19       		.byte	0x19
 1019 0217 FE000000 		.4byte	0xfe
 1020 021b 34       		.byte	0x34
 1021 021c 08       		.uleb128 0x8
 1022 021d 40070000 		.4byte	.LASF40
 1023 0221 06       		.byte	0x6
 1024 0222 C2       		.byte	0xc2
 1025 0223 19       		.byte	0x19
 1026 0224 0A010000 		.4byte	0x10a
ARM GAS  /tmp/ccCRVKmc.s 			page 19


 1027 0228 38       		.byte	0x38
 1028 0229 08       		.uleb128 0x8
 1029 022a 97060000 		.4byte	.LASF41
 1030 022e 06       		.byte	0x6
 1031 022f C9       		.byte	0xc9
 1032 0230 1A       		.byte	0x1a
 1033 0231 A6050000 		.4byte	0x5a6
 1034 0235 3C       		.byte	0x3c
 1035 0236 08       		.uleb128 0x8
 1036 0237 D4070000 		.4byte	.LASF42
 1037 023b 06       		.byte	0x6
 1038 023c CD       		.byte	0xcd
 1039 023d 19       		.byte	0x19
 1040 023e F2000000 		.4byte	0xf2
 1041 0242 40       		.byte	0x40
 1042 0243 00       		.byte	0
 1043 0244 0A       		.uleb128 0xa
 1044 0245 08       		.byte	0x8
 1045 0246 05       		.byte	0x5
 1046 0247 5A       		.byte	0x5a
 1047 0248 09       		.byte	0x9
 1048 0249 68020000 		.4byte	0x268
 1049 024d 08       		.uleb128 0x8
 1050 024e ED060000 		.4byte	.LASF25
 1051 0252 05       		.byte	0x5
 1052 0253 5B       		.byte	0x5b
 1053 0254 1A       		.byte	0x1a
 1054 0255 68020000 		.4byte	0x268
 1055 0259 00       		.byte	0
 1056 025a 08       		.uleb128 0x8
 1057 025b 37060000 		.4byte	.LASF26
 1058 025f 05       		.byte	0x5
 1059 0260 5D       		.byte	0x5d
 1060 0261 1A       		.byte	0x1a
 1061 0262 68020000 		.4byte	0x268
 1062 0266 04       		.byte	0x4
 1063 0267 00       		.byte	0
 1064 0268 0B       		.uleb128 0xb
 1065 0269 04       		.byte	0x4
 1066 026a 33010000 		.4byte	0x133
 1067 026e 03       		.uleb128 0x3
 1068 026f 8E050000 		.4byte	.LASF43
 1069 0273 05       		.byte	0x5
 1070 0274 5F       		.byte	0x5f
 1071 0275 03       		.byte	0x3
 1072 0276 44020000 		.4byte	0x244
 1073 027a 0A       		.uleb128 0xa
 1074 027b 04       		.byte	0x4
 1075 027c 05       		.byte	0x5
 1076 027d 64       		.byte	0x64
 1077 027e 09       		.byte	0x9
 1078 027f 91020000 		.4byte	0x291
 1079 0283 08       		.uleb128 0x8
 1080 0284 ED060000 		.4byte	.LASF25
 1081 0288 05       		.byte	0x5
 1082 0289 66       		.byte	0x66
 1083 028a 16       		.byte	0x16
ARM GAS  /tmp/ccCRVKmc.s 			page 20


 1084 028b 68020000 		.4byte	0x268
 1085 028f 00       		.byte	0
 1086 0290 00       		.byte	0
 1087 0291 03       		.uleb128 0x3
 1088 0292 A9040000 		.4byte	.LASF44
 1089 0296 05       		.byte	0x5
 1090 0297 69       		.byte	0x69
 1091 0298 03       		.byte	0x3
 1092 0299 7A020000 		.4byte	0x27a
 1093 029d 03       		.uleb128 0x3
 1094 029e E5040000 		.4byte	.LASF45
 1095 02a2 07       		.byte	0x7
 1096 02a3 9D       		.byte	0x9d
 1097 02a4 12       		.byte	0x12
 1098 02a5 97000000 		.4byte	0x97
 1099 02a9 03       		.uleb128 0x3
 1100 02aa 55030000 		.4byte	.LASF46
 1101 02ae 07       		.byte	0x7
 1102 02af A2       		.byte	0xa2
 1103 02b0 0F       		.byte	0xf
 1104 02b1 B5020000 		.4byte	0x2b5
 1105 02b5 0C       		.uleb128 0xc
 1106 02b6 04       		.byte	0x4
 1107 02b7 07       		.uleb128 0x7
 1108 02b8 12080000 		.4byte	.LASF47
 1109 02bc 24       		.byte	0x24
 1110 02bd 07       		.byte	0x7
 1111 02be B9       		.byte	0xb9
 1112 02bf 08       		.byte	0x8
 1113 02c0 33030000 		.4byte	0x333
 1114 02c4 09       		.uleb128 0x9
 1115 02c5 723400   		.ascii	"r4\000"
 1116 02c8 07       		.byte	0x7
 1117 02c9 BA       		.byte	0xba
 1118 02ca 11       		.byte	0x11
 1119 02cb A9020000 		.4byte	0x2a9
 1120 02cf 00       		.byte	0
 1121 02d0 09       		.uleb128 0x9
 1122 02d1 723500   		.ascii	"r5\000"
 1123 02d4 07       		.byte	0x7
 1124 02d5 BB       		.byte	0xbb
 1125 02d6 11       		.byte	0x11
 1126 02d7 A9020000 		.4byte	0x2a9
 1127 02db 04       		.byte	0x4
 1128 02dc 09       		.uleb128 0x9
 1129 02dd 723600   		.ascii	"r6\000"
 1130 02e0 07       		.byte	0x7
 1131 02e1 BC       		.byte	0xbc
 1132 02e2 11       		.byte	0x11
 1133 02e3 A9020000 		.4byte	0x2a9
 1134 02e7 08       		.byte	0x8
 1135 02e8 09       		.uleb128 0x9
 1136 02e9 723700   		.ascii	"r7\000"
 1137 02ec 07       		.byte	0x7
 1138 02ed BD       		.byte	0xbd
 1139 02ee 11       		.byte	0x11
 1140 02ef A9020000 		.4byte	0x2a9
ARM GAS  /tmp/ccCRVKmc.s 			page 21


 1141 02f3 0C       		.byte	0xc
 1142 02f4 09       		.uleb128 0x9
 1143 02f5 723800   		.ascii	"r8\000"
 1144 02f8 07       		.byte	0x7
 1145 02f9 BE       		.byte	0xbe
 1146 02fa 11       		.byte	0x11
 1147 02fb A9020000 		.4byte	0x2a9
 1148 02ff 10       		.byte	0x10
 1149 0300 09       		.uleb128 0x9
 1150 0301 723900   		.ascii	"r9\000"
 1151 0304 07       		.byte	0x7
 1152 0305 BF       		.byte	0xbf
 1153 0306 11       		.byte	0x11
 1154 0307 A9020000 		.4byte	0x2a9
 1155 030b 14       		.byte	0x14
 1156 030c 09       		.uleb128 0x9
 1157 030d 72313000 		.ascii	"r10\000"
 1158 0311 07       		.byte	0x7
 1159 0312 C0       		.byte	0xc0
 1160 0313 11       		.byte	0x11
 1161 0314 A9020000 		.4byte	0x2a9
 1162 0318 18       		.byte	0x18
 1163 0319 09       		.uleb128 0x9
 1164 031a 72313100 		.ascii	"r11\000"
 1165 031e 07       		.byte	0x7
 1166 031f C1       		.byte	0xc1
 1167 0320 11       		.byte	0x11
 1168 0321 A9020000 		.4byte	0x2a9
 1169 0325 1C       		.byte	0x1c
 1170 0326 09       		.uleb128 0x9
 1171 0327 6C7200   		.ascii	"lr\000"
 1172 032a 07       		.byte	0x7
 1173 032b C2       		.byte	0xc2
 1174 032c 11       		.byte	0x11
 1175 032d A9020000 		.4byte	0x2a9
 1176 0331 20       		.byte	0x20
 1177 0332 00       		.byte	0
 1178 0333 07       		.uleb128 0x7
 1179 0334 27040000 		.4byte	.LASF48
 1180 0338 04       		.byte	0x4
 1181 0339 07       		.byte	0x7
 1182 033a CA       		.byte	0xca
 1183 033b 08       		.byte	0x8
 1184 033c 4E030000 		.4byte	0x34e
 1185 0340 09       		.uleb128 0x9
 1186 0341 72313300 		.ascii	"r13\000"
 1187 0345 07       		.byte	0x7
 1188 0346 CB       		.byte	0xcb
 1189 0347 12       		.byte	0x12
 1190 0348 4E030000 		.4byte	0x34e
 1191 034c 00       		.byte	0
 1192 034d 00       		.byte	0
 1193 034e 0B       		.uleb128 0xb
 1194 034f 04       		.byte	0x4
 1195 0350 B7020000 		.4byte	0x2b7
 1196 0354 03       		.uleb128 0x3
 1197 0355 DF070000 		.4byte	.LASF49
ARM GAS  /tmp/ccCRVKmc.s 			page 22


 1198 0359 08       		.byte	0x8
 1199 035a 4E       		.byte	0x4e
 1200 035b 10       		.byte	0x10
 1201 035c 60030000 		.4byte	0x360
 1202 0360 0B       		.uleb128 0xb
 1203 0361 04       		.byte	0x4
 1204 0362 66030000 		.4byte	0x366
 1205 0366 0D       		.uleb128 0xd
 1206 0367 71030000 		.4byte	0x371
 1207 036b 0E       		.uleb128 0xe
 1208 036c B5020000 		.4byte	0x2b5
 1209 0370 00       		.byte	0
 1210 0371 03       		.uleb128 0x3
 1211 0372 72070000 		.4byte	.LASF50
 1212 0376 08       		.byte	0x8
 1213 0377 53       		.byte	0x53
 1214 0378 1D       		.byte	0x1d
 1215 0379 7D030000 		.4byte	0x37d
 1216 037d 07       		.uleb128 0x7
 1217 037e 72070000 		.4byte	.LASF50
 1218 0382 14       		.byte	0x14
 1219 0383 08       		.byte	0x8
 1220 0384 5A       		.byte	0x5a
 1221 0385 08       		.byte	0x8
 1222 0386 CC030000 		.4byte	0x3cc
 1223 038a 08       		.uleb128 0x8
 1224 038b A6030000 		.4byte	.LASF51
 1225 038f 08       		.byte	0x8
 1226 0390 5B       		.byte	0x5b
 1227 0391 1A       		.byte	0x1a
 1228 0392 CC030000 		.4byte	0x3cc
 1229 0396 00       		.byte	0
 1230 0397 08       		.uleb128 0x8
 1231 0398 5E030000 		.4byte	.LASF52
 1232 039c 08       		.byte	0x8
 1233 039d 5D       		.byte	0x5d
 1234 039e 1A       		.byte	0x1a
 1235 039f CC030000 		.4byte	0x3cc
 1236 03a3 04       		.byte	0x4
 1237 03a4 08       		.uleb128 0x8
 1238 03a5 0F050000 		.4byte	.LASF53
 1239 03a9 08       		.byte	0x8
 1240 03aa 5F       		.byte	0x5f
 1241 03ab 19       		.byte	0x19
 1242 03ac 22010000 		.4byte	0x122
 1243 03b0 08       		.byte	0x8
 1244 03b1 08       		.uleb128 0x8
 1245 03b2 37050000 		.4byte	.LASF54
 1246 03b6 08       		.byte	0x8
 1247 03b7 60       		.byte	0x60
 1248 03b8 19       		.byte	0x19
 1249 03b9 54030000 		.4byte	0x354
 1250 03bd 0C       		.byte	0xc
 1251 03be 08       		.uleb128 0x8
 1252 03bf 42080000 		.4byte	.LASF55
 1253 03c3 08       		.byte	0x8
 1254 03c4 62       		.byte	0x62
ARM GAS  /tmp/ccCRVKmc.s 			page 23


 1255 03c5 1A       		.byte	0x1a
 1256 03c6 B5020000 		.4byte	0x2b5
 1257 03ca 10       		.byte	0x10
 1258 03cb 00       		.byte	0
 1259 03cc 0B       		.uleb128 0xb
 1260 03cd 04       		.byte	0x4
 1261 03ce 71030000 		.4byte	0x371
 1262 03d2 0A       		.uleb128 0xa
 1263 03d3 10       		.byte	0x10
 1264 03d4 08       		.byte	0x8
 1265 03d5 6C       		.byte	0x6c
 1266 03d6 09       		.byte	0x9
 1267 03d7 10040000 		.4byte	0x410
 1268 03db 08       		.uleb128 0x8
 1269 03dc A6030000 		.4byte	.LASF51
 1270 03e0 08       		.byte	0x8
 1271 03e1 6D       		.byte	0x6d
 1272 03e2 1A       		.byte	0x1a
 1273 03e3 CC030000 		.4byte	0x3cc
 1274 03e7 00       		.byte	0
 1275 03e8 08       		.uleb128 0x8
 1276 03e9 5E030000 		.4byte	.LASF52
 1277 03ed 08       		.byte	0x8
 1278 03ee 6F       		.byte	0x6f
 1279 03ef 1A       		.byte	0x1a
 1280 03f0 CC030000 		.4byte	0x3cc
 1281 03f4 04       		.byte	0x4
 1282 03f5 08       		.uleb128 0x8
 1283 03f6 0F050000 		.4byte	.LASF53
 1284 03fa 08       		.byte	0x8
 1285 03fb 71       		.byte	0x71
 1286 03fc 19       		.byte	0x19
 1287 03fd 22010000 		.4byte	0x122
 1288 0401 08       		.byte	0x8
 1289 0402 08       		.uleb128 0x8
 1290 0403 28090000 		.4byte	.LASF56
 1291 0407 08       		.byte	0x8
 1292 0408 72       		.byte	0x72
 1293 0409 19       		.byte	0x19
 1294 040a 2E010000 		.4byte	0x12e
 1295 040e 0C       		.byte	0xc
 1296 040f 00       		.byte	0
 1297 0410 03       		.uleb128 0x3
 1298 0411 7E090000 		.4byte	.LASF57
 1299 0415 08       		.byte	0x8
 1300 0416 73       		.byte	0x73
 1301 0417 03       		.byte	0x3
 1302 0418 D2030000 		.4byte	0x3d2
 1303 041c 0F       		.uleb128 0xf
 1304 041d 15010000 		.4byte	.LASF65
 1305 0421 08       		.byte	0x8
 1306 0422 D1       		.byte	0xd1
 1307 0423 0F       		.byte	0xf
 1308 0424 10040000 		.4byte	0x410
 1309 0428 0A       		.uleb128 0xa
 1310 0429 1C       		.byte	0x1c
 1311 042a 09       		.byte	0x9
ARM GAS  /tmp/ccCRVKmc.s 			page 24


 1312 042b 57       		.byte	0x57
 1313 042c 09       		.byte	0x9
 1314 042d 80040000 		.4byte	0x480
 1315 0431 08       		.uleb128 0x8
 1316 0432 6A070000 		.4byte	.LASF58
 1317 0436 09       		.byte	0x9
 1318 0437 58       		.byte	0x58
 1319 0438 19       		.byte	0x19
 1320 0439 6E020000 		.4byte	0x26e
 1321 043d 00       		.byte	0
 1322 043e 08       		.uleb128 0x8
 1323 043f D6060000 		.4byte	.LASF59
 1324 0443 09       		.byte	0x9
 1325 0444 59       		.byte	0x59
 1326 0445 19       		.byte	0x19
 1327 0446 F2000000 		.4byte	0xf2
 1328 044a 08       		.byte	0x8
 1329 044b 08       		.uleb128 0x8
 1330 044c 88050000 		.4byte	.LASF60
 1331 0450 09       		.byte	0x9
 1332 0451 5B       		.byte	0x5b
 1333 0452 19       		.byte	0x19
 1334 0453 33030000 		.4byte	0x333
 1335 0457 0C       		.byte	0xc
 1336 0458 08       		.uleb128 0x8
 1337 0459 4D030000 		.4byte	.LASF61
 1338 045d 09       		.byte	0x9
 1339 045e 5E       		.byte	0x5e
 1340 045f 1A       		.byte	0x1a
 1341 0460 68020000 		.4byte	0x268
 1342 0464 10       		.byte	0x10
 1343 0465 08       		.uleb128 0x8
 1344 0466 C4050000 		.4byte	.LASF62
 1345 046a 09       		.byte	0x9
 1346 046b 5F       		.byte	0x5f
 1347 046c 1A       		.byte	0x1a
 1348 046d 68020000 		.4byte	0x268
 1349 0471 14       		.byte	0x14
 1350 0472 08       		.uleb128 0x8
 1351 0473 BA050000 		.4byte	.LASF63
 1352 0477 09       		.byte	0x9
 1353 0478 62       		.byte	0x62
 1354 0479 1A       		.byte	0x1a
 1355 047a 68020000 		.4byte	0x268
 1356 047e 18       		.byte	0x18
 1357 047f 00       		.byte	0
 1358 0480 03       		.uleb128 0x3
 1359 0481 A4080000 		.4byte	.LASF64
 1360 0485 09       		.byte	0x9
 1361 0486 64       		.byte	0x64
 1362 0487 03       		.byte	0x3
 1363 0488 28040000 		.4byte	0x428
 1364 048c 0F       		.uleb128 0xf
 1365 048d C5080000 		.4byte	.LASF66
 1366 0491 09       		.byte	0x9
 1367 0492 68       		.byte	0x68
 1368 0493 12       		.byte	0x12
ARM GAS  /tmp/ccCRVKmc.s 			page 25


 1369 0494 80040000 		.4byte	0x480
 1370 0498 07       		.uleb128 0x7
 1371 0499 D2040000 		.4byte	.LASF67
 1372 049d 10       		.byte	0x10
 1373 049e 0A       		.byte	0xa
 1374 049f 25       		.byte	0x25
 1375 04a0 10       		.byte	0x10
 1376 04a1 CD040000 		.4byte	0x4cd
 1377 04a5 08       		.uleb128 0x8
 1378 04a6 4F020000 		.4byte	.LASF68
 1379 04aa 0A       		.byte	0xa
 1380 04ab 26       		.byte	0x26
 1381 04ac 19       		.byte	0x19
 1382 04ad 6E020000 		.4byte	0x26e
 1383 04b1 00       		.byte	0
 1384 04b2 08       		.uleb128 0x8
 1385 04b3 96090000 		.4byte	.LASF69
 1386 04b7 0A       		.byte	0xa
 1387 04b8 28       		.byte	0x28
 1388 04b9 1A       		.byte	0x1a
 1389 04ba 68020000 		.4byte	0x268
 1390 04be 08       		.byte	0x8
 1391 04bf 08       		.uleb128 0x8
 1392 04c0 C3070000 		.4byte	.LASF70
 1393 04c4 0A       		.byte	0xa
 1394 04c5 2A       		.byte	0x2a
 1395 04c6 1A       		.byte	0x1a
 1396 04c7 CD040000 		.4byte	0x4cd
 1397 04cb 0C       		.byte	0xc
 1398 04cc 00       		.byte	0
 1399 04cd 0B       		.uleb128 0xb
 1400 04ce 04       		.byte	0x4
 1401 04cf 98040000 		.4byte	0x498
 1402 04d3 03       		.uleb128 0x3
 1403 04d4 D2040000 		.4byte	.LASF67
 1404 04d8 0A       		.byte	0xa
 1405 04d9 2C       		.byte	0x2c
 1406 04da 03       		.byte	0x3
 1407 04db 98040000 		.4byte	0x498
 1408 04df 03       		.uleb128 0x3
 1409 04e0 FA080000 		.4byte	.LASF71
 1410 04e4 0B       		.byte	0xb
 1411 04e5 25       		.byte	0x25
 1412 04e6 1E       		.byte	0x1e
 1413 04e7 EB040000 		.4byte	0x4eb
 1414 04eb 07       		.uleb128 0x7
 1415 04ec FA080000 		.4byte	.LASF71
 1416 04f0 10       		.byte	0x10
 1417 04f1 0B       		.byte	0xb
 1418 04f2 2A       		.byte	0x2a
 1419 04f3 08       		.byte	0x8
 1420 04f4 2D050000 		.4byte	0x52d
 1421 04f8 08       		.uleb128 0x8
 1422 04f9 84040000 		.4byte	.LASF72
 1423 04fd 0B       		.byte	0xb
 1424 04fe 2B       		.byte	0x2b
 1425 04ff 1A       		.byte	0x1a
ARM GAS  /tmp/ccCRVKmc.s 			page 26


 1426 0500 2D050000 		.4byte	0x52d
 1427 0504 00       		.byte	0
 1428 0505 08       		.uleb128 0x8
 1429 0506 82060000 		.4byte	.LASF73
 1430 050a 0B       		.byte	0xb
 1431 050b 2E       		.byte	0x2e
 1432 050c 1A       		.byte	0x1a
 1433 050d 68020000 		.4byte	0x268
 1434 0511 04       		.byte	0x4
 1435 0512 08       		.uleb128 0x8
 1436 0513 CC050000 		.4byte	.LASF74
 1437 0517 0B       		.byte	0xb
 1438 0518 30       		.byte	0x30
 1439 0519 19       		.byte	0x19
 1440 051a 0A010000 		.4byte	0x10a
 1441 051e 08       		.byte	0x8
 1442 051f 08       		.uleb128 0x8
 1443 0520 8E060000 		.4byte	.LASF75
 1444 0524 0B       		.byte	0xb
 1445 0525 33       		.byte	0x33
 1446 0526 19       		.byte	0x19
 1447 0527 16010000 		.4byte	0x116
 1448 052b 0C       		.byte	0xc
 1449 052c 00       		.byte	0
 1450 052d 0B       		.uleb128 0xb
 1451 052e 04       		.byte	0x4
 1452 052f DF040000 		.4byte	0x4df
 1453 0533 07       		.uleb128 0x7
 1454 0534 8D030000 		.4byte	.LASF76
 1455 0538 04       		.byte	0x4
 1456 0539 0B       		.byte	0xb
 1457 053a 3A       		.byte	0x3a
 1458 053b 10       		.byte	0x10
 1459 053c 4E050000 		.4byte	0x54e
 1460 0540 08       		.uleb128 0x8
 1461 0541 33090000 		.4byte	.LASF77
 1462 0545 0B       		.byte	0xb
 1463 0546 3B       		.byte	0x3b
 1464 0547 1A       		.byte	0x1a
 1465 0548 2D050000 		.4byte	0x52d
 1466 054c 00       		.byte	0
 1467 054d 00       		.byte	0
 1468 054e 03       		.uleb128 0x3
 1469 054f 8D030000 		.4byte	.LASF76
 1470 0553 0B       		.byte	0xb
 1471 0554 3E       		.byte	0x3e
 1472 0555 03       		.byte	0x3
 1473 0556 33050000 		.4byte	0x533
 1474 055a 10       		.uleb128 0x10
 1475 055b 04       		.byte	0x4
 1476 055c 06       		.byte	0x6
 1477 055d 8F       		.byte	0x8f
 1478 055e 03       		.byte	0x3
 1479 055f 94050000 		.4byte	0x594
 1480 0563 11       		.uleb128 0x11
 1481 0564 F1000000 		.4byte	.LASF78
 1482 0568 06       		.byte	0x6
ARM GAS  /tmp/ccCRVKmc.s 			page 27


 1483 0569 96       		.byte	0x96
 1484 056a 19       		.byte	0x19
 1485 056b FE000000 		.4byte	0xfe
 1486 056f 11       		.uleb128 0x11
 1487 0570 5E010000 		.4byte	.LASF79
 1488 0574 06       		.byte	0x6
 1489 0575 9D       		.byte	0x9d
 1490 0576 19       		.byte	0x19
 1491 0577 FE000000 		.4byte	0xfe
 1492 057b 11       		.uleb128 0x11
 1493 057c 08090000 		.4byte	.LASF80
 1494 0580 06       		.byte	0x6
 1495 0581 A4       		.byte	0xa4
 1496 0582 1A       		.byte	0x1a
 1497 0583 B5020000 		.4byte	0x2b5
 1498 0587 11       		.uleb128 0x11
 1499 0588 E6060000 		.4byte	.LASF81
 1500 058c 06       		.byte	0x6
 1501 058d AB       		.byte	0xab
 1502 058e 19       		.byte	0x19
 1503 058f 0A010000 		.4byte	0x10a
 1504 0593 00       		.byte	0
 1505 0594 0B       		.uleb128 0xb
 1506 0595 04       		.byte	0x4
 1507 0596 A1050000 		.4byte	0x5a1
 1508 059a 04       		.uleb128 0x4
 1509 059b 01       		.byte	0x1
 1510 059c 08       		.byte	0x8
 1511 059d 9F070000 		.4byte	.LASF82
 1512 05a1 06       		.uleb128 0x6
 1513 05a2 9A050000 		.4byte	0x59a
 1514 05a6 0B       		.uleb128 0xb
 1515 05a7 04       		.byte	0x4
 1516 05a8 D3040000 		.4byte	0x4d3
 1517 05ac 0B       		.uleb128 0xb
 1518 05ad 04       		.byte	0x4
 1519 05ae B2050000 		.4byte	0x5b2
 1520 05b2 12       		.uleb128 0x12
 1521 05b3 FE000000 		.4byte	0xfe
 1522 05b7 C1050000 		.4byte	0x5c1
 1523 05bb 0E       		.uleb128 0xe
 1524 05bc B5020000 		.4byte	0x2b5
 1525 05c0 00       		.byte	0
 1526 05c1 0A       		.uleb128 0xa
 1527 05c2 16       		.byte	0x16
 1528 05c3 0C       		.byte	0xc
 1529 05c4 25       		.byte	0x25
 1530 05c5 09       		.byte	0x9
 1531 05c6 B5060000 		.4byte	0x6b5
 1532 05ca 08       		.uleb128 0x8
 1533 05cb FE030000 		.4byte	.LASF83
 1534 05cf 0C       		.byte	0xc
 1535 05d0 26       		.byte	0x26
 1536 05d1 0D       		.byte	0xd
 1537 05d2 B5060000 		.4byte	0x6b5
 1538 05d6 00       		.byte	0
 1539 05d7 08       		.uleb128 0x8
ARM GAS  /tmp/ccCRVKmc.s 			page 28


 1540 05d8 F0040000 		.4byte	.LASF84
 1541 05dc 0C       		.byte	0xc
 1542 05dd 27       		.byte	0x27
 1543 05de 0D       		.byte	0xd
 1544 05df 6C000000 		.4byte	0x6c
 1545 05e3 04       		.byte	0x4
 1546 05e4 08       		.uleb128 0x8
 1547 05e5 9B050000 		.4byte	.LASF85
 1548 05e9 0C       		.byte	0xc
 1549 05ea 28       		.byte	0x28
 1550 05eb 0D       		.byte	0xd
 1551 05ec 6C000000 		.4byte	0x6c
 1552 05f0 05       		.byte	0x5
 1553 05f1 08       		.uleb128 0x8
 1554 05f2 5C090000 		.4byte	.LASF86
 1555 05f6 0C       		.byte	0xc
 1556 05f7 29       		.byte	0x29
 1557 05f8 0D       		.byte	0xd
 1558 05f9 84000000 		.4byte	0x84
 1559 05fd 06       		.byte	0x6
 1560 05fe 08       		.uleb128 0x8
 1561 05ff 22060000 		.4byte	.LASF87
 1562 0603 0C       		.byte	0xc
 1563 0604 2A       		.byte	0x2a
 1564 0605 0D       		.byte	0xd
 1565 0606 6C000000 		.4byte	0x6c
 1566 060a 08       		.byte	0x8
 1567 060b 08       		.uleb128 0x8
 1568 060c 3F050000 		.4byte	.LASF88
 1569 0610 0C       		.byte	0xc
 1570 0611 2B       		.byte	0x2b
 1571 0612 0D       		.byte	0xd
 1572 0613 6C000000 		.4byte	0x6c
 1573 0617 09       		.byte	0x9
 1574 0618 08       		.uleb128 0x8
 1575 0619 4B010000 		.4byte	.LASF89
 1576 061d 0C       		.byte	0xc
 1577 061e 2C       		.byte	0x2c
 1578 061f 0D       		.byte	0xd
 1579 0620 6C000000 		.4byte	0x6c
 1580 0624 0A       		.byte	0xa
 1581 0625 08       		.uleb128 0x8
 1582 0626 5E070000 		.4byte	.LASF90
 1583 062a 0C       		.byte	0xc
 1584 062b 2D       		.byte	0x2d
 1585 062c 0D       		.byte	0xd
 1586 062d 6C000000 		.4byte	0x6c
 1587 0631 0B       		.byte	0xb
 1588 0632 08       		.uleb128 0x8
 1589 0633 7C080000 		.4byte	.LASF91
 1590 0637 0C       		.byte	0xc
 1591 0638 2E       		.byte	0x2e
 1592 0639 0D       		.byte	0xd
 1593 063a 6C000000 		.4byte	0x6c
 1594 063e 0C       		.byte	0xc
 1595 063f 08       		.uleb128 0x8
 1596 0640 28070000 		.4byte	.LASF92
ARM GAS  /tmp/ccCRVKmc.s 			page 29


 1597 0644 0C       		.byte	0xc
 1598 0645 2F       		.byte	0x2f
 1599 0646 0D       		.byte	0xd
 1600 0647 6C000000 		.4byte	0x6c
 1601 064b 0D       		.byte	0xd
 1602 064c 08       		.uleb128 0x8
 1603 064d 00000000 		.4byte	.LASF93
 1604 0651 0C       		.byte	0xc
 1605 0652 30       		.byte	0x30
 1606 0653 0D       		.byte	0xd
 1607 0654 6C000000 		.4byte	0x6c
 1608 0658 0E       		.byte	0xe
 1609 0659 08       		.uleb128 0x8
 1610 065a 64050000 		.4byte	.LASF94
 1611 065e 0C       		.byte	0xc
 1612 065f 31       		.byte	0x31
 1613 0660 0D       		.byte	0xd
 1614 0661 6C000000 		.4byte	0x6c
 1615 0665 0F       		.byte	0xf
 1616 0666 08       		.uleb128 0x8
 1617 0667 CE010000 		.4byte	.LASF95
 1618 066b 0C       		.byte	0xc
 1619 066c 32       		.byte	0x32
 1620 066d 0D       		.byte	0xd
 1621 066e 6C000000 		.4byte	0x6c
 1622 0672 10       		.byte	0x10
 1623 0673 08       		.uleb128 0x8
 1624 0674 90010000 		.4byte	.LASF96
 1625 0678 0C       		.byte	0xc
 1626 0679 34       		.byte	0x34
 1627 067a 0D       		.byte	0xd
 1628 067b 6C000000 		.4byte	0x6c
 1629 067f 11       		.byte	0x11
 1630 0680 08       		.uleb128 0x8
 1631 0681 E7010000 		.4byte	.LASF97
 1632 0685 0C       		.byte	0xc
 1633 0686 35       		.byte	0x35
 1634 0687 0D       		.byte	0xd
 1635 0688 6C000000 		.4byte	0x6c
 1636 068c 12       		.byte	0x12
 1637 068d 08       		.uleb128 0x8
 1638 068e F8040000 		.4byte	.LASF98
 1639 0692 0C       		.byte	0xc
 1640 0693 36       		.byte	0x36
 1641 0694 0D       		.byte	0xd
 1642 0695 6C000000 		.4byte	0x6c
 1643 0699 13       		.byte	0x13
 1644 069a 08       		.uleb128 0x8
 1645 069b FC060000 		.4byte	.LASF99
 1646 069f 0C       		.byte	0xc
 1647 06a0 37       		.byte	0x37
 1648 06a1 0D       		.byte	0xd
 1649 06a2 6C000000 		.4byte	0x6c
 1650 06a6 14       		.byte	0x14
 1651 06a7 08       		.uleb128 0x8
 1652 06a8 BD060000 		.4byte	.LASF100
 1653 06ac 0C       		.byte	0xc
ARM GAS  /tmp/ccCRVKmc.s 			page 30


 1654 06ad 39       		.byte	0x39
 1655 06ae 0D       		.byte	0xd
 1656 06af 6C000000 		.4byte	0x6c
 1657 06b3 15       		.byte	0x15
 1658 06b4 00       		.byte	0
 1659 06b5 13       		.uleb128 0x13
 1660 06b6 9A050000 		.4byte	0x59a
 1661 06ba C5060000 		.4byte	0x6c5
 1662 06be 14       		.uleb128 0x14
 1663 06bf 38000000 		.4byte	0x38
 1664 06c3 03       		.byte	0x3
 1665 06c4 00       		.byte	0
 1666 06c5 03       		.uleb128 0x3
 1667 06c6 D0020000 		.4byte	.LASF101
 1668 06ca 0C       		.byte	0xc
 1669 06cb 3A       		.byte	0x3a
 1670 06cc 03       		.byte	0x3
 1671 06cd C1050000 		.4byte	0x5c1
 1672 06d1 06       		.uleb128 0x6
 1673 06d2 C5060000 		.4byte	0x6c5
 1674 06d6 0F       		.uleb128 0xf
 1675 06d7 E4030000 		.4byte	.LASF102
 1676 06db 0C       		.byte	0xc
 1677 06dc 77       		.byte	0x77
 1678 06dd 1D       		.byte	0x1d
 1679 06de D1060000 		.4byte	0x6d1
 1680 06e2 03       		.uleb128 0x3
 1681 06e3 D8040000 		.4byte	.LASF103
 1682 06e7 0D       		.byte	0xd
 1683 06e8 30       		.byte	0x30
 1684 06e9 1D       		.byte	0x1d
 1685 06ea EE060000 		.4byte	0x6ee
 1686 06ee 07       		.uleb128 0x7
 1687 06ef D8040000 		.4byte	.LASF103
 1688 06f3 24       		.byte	0x24
 1689 06f4 0D       		.byte	0xd
 1690 06f5 3E       		.byte	0x3e
 1691 06f6 08       		.byte	0x8
 1692 06f7 64070000 		.4byte	0x764
 1693 06fb 08       		.uleb128 0x8
 1694 06fc AA010000 		.4byte	.LASF104
 1695 0700 0D       		.byte	0xd
 1696 0701 3F       		.byte	0x3f
 1697 0702 19       		.byte	0x19
 1698 0703 6E020000 		.4byte	0x26e
 1699 0707 00       		.byte	0
 1700 0708 08       		.uleb128 0x8
 1701 0709 2D050000 		.4byte	.LASF105
 1702 070d 0D       		.byte	0xd
 1703 070e 40       		.byte	0x40
 1704 070f 19       		.byte	0x19
 1705 0710 2C000000 		.4byte	0x2c
 1706 0714 08       		.byte	0x8
 1707 0715 08       		.uleb128 0x8
 1708 0716 B9020000 		.4byte	.LASF106
 1709 071a 0D       		.byte	0xd
 1710 071b 41       		.byte	0x41
ARM GAS  /tmp/ccCRVKmc.s 			page 31


 1711 071c 1A       		.byte	0x1a
 1712 071d 87070000 		.4byte	0x787
 1713 0721 0C       		.byte	0xc
 1714 0722 08       		.uleb128 0x8
 1715 0723 2E010000 		.4byte	.LASF107
 1716 0727 0D       		.byte	0xd
 1717 0728 42       		.byte	0x42
 1718 0729 1A       		.byte	0x1a
 1719 072a 87070000 		.4byte	0x787
 1720 072e 10       		.byte	0x10
 1721 072f 08       		.uleb128 0x8
 1722 0730 80050000 		.4byte	.LASF108
 1723 0734 0D       		.byte	0xd
 1724 0735 44       		.byte	0x44
 1725 0736 1A       		.byte	0x1a
 1726 0737 87070000 		.4byte	0x787
 1727 073b 14       		.byte	0x14
 1728 073c 08       		.uleb128 0x8
 1729 073d 46060000 		.4byte	.LASF109
 1730 0741 0D       		.byte	0xd
 1731 0742 45       		.byte	0x45
 1732 0743 1A       		.byte	0x1a
 1733 0744 87070000 		.4byte	0x787
 1734 0748 18       		.byte	0x18
 1735 0749 08       		.uleb128 0x8
 1736 074a BC080000 		.4byte	.LASF110
 1737 074e 0D       		.byte	0xd
 1738 074f 46       		.byte	0x46
 1739 0750 19       		.byte	0x19
 1740 0751 64070000 		.4byte	0x764
 1741 0755 1C       		.byte	0x1c
 1742 0756 08       		.uleb128 0x8
 1743 0757 85090000 		.4byte	.LASF111
 1744 075b 0D       		.byte	0xd
 1745 075c 47       		.byte	0x47
 1746 075d 1A       		.byte	0x1a
 1747 075e B5020000 		.4byte	0x2b5
 1748 0762 20       		.byte	0x20
 1749 0763 00       		.byte	0
 1750 0764 03       		.uleb128 0x3
 1751 0765 2D060000 		.4byte	.LASF112
 1752 0769 0D       		.byte	0xd
 1753 076a 33       		.byte	0x33
 1754 076b 10       		.byte	0x10
 1755 076c 70070000 		.4byte	0x770
 1756 0770 0B       		.uleb128 0xb
 1757 0771 04       		.byte	0x4
 1758 0772 76070000 		.4byte	0x776
 1759 0776 0D       		.uleb128 0xd
 1760 0777 81070000 		.4byte	0x781
 1761 077b 0E       		.uleb128 0xe
 1762 077c 81070000 		.4byte	0x781
 1763 0780 00       		.byte	0
 1764 0781 0B       		.uleb128 0xb
 1765 0782 04       		.byte	0x4
 1766 0783 E2060000 		.4byte	0x6e2
 1767 0787 0B       		.uleb128 0xb
ARM GAS  /tmp/ccCRVKmc.s 			page 32


 1768 0788 04       		.byte	0x4
 1769 0789 6C000000 		.4byte	0x6c
 1770 078d 03       		.uleb128 0x3
 1771 078e C7040000 		.4byte	.LASF113
 1772 0792 0D       		.byte	0xd
 1773 0793 7B       		.byte	0x7b
 1774 0794 16       		.byte	0x16
 1775 0795 E2060000 		.4byte	0x6e2
 1776 0799 03       		.uleb128 0x3
 1777 079a FE000000 		.4byte	.LASF114
 1778 079e 0D       		.byte	0xd
 1779 079f EE       		.byte	0xee
 1780 07a0 16       		.byte	0x16
 1781 07a1 E2060000 		.4byte	0x6e2
 1782 07a5 12       		.uleb128 0x12
 1783 07a6 2C000000 		.4byte	0x2c
 1784 07aa BE070000 		.4byte	0x7be
 1785 07ae 0E       		.uleb128 0xe
 1786 07af B5020000 		.4byte	0x2b5
 1787 07b3 0E       		.uleb128 0xe
 1788 07b4 BE070000 		.4byte	0x7be
 1789 07b8 0E       		.uleb128 0xe
 1790 07b9 2C000000 		.4byte	0x2c
 1791 07bd 00       		.byte	0
 1792 07be 0B       		.uleb128 0xb
 1793 07bf 04       		.byte	0x4
 1794 07c0 78000000 		.4byte	0x78
 1795 07c4 0B       		.uleb128 0xb
 1796 07c5 04       		.byte	0x4
 1797 07c6 A5070000 		.4byte	0x7a5
 1798 07ca 12       		.uleb128 0x12
 1799 07cb 2C000000 		.4byte	0x2c
 1800 07cf E3070000 		.4byte	0x7e3
 1801 07d3 0E       		.uleb128 0xe
 1802 07d4 B5020000 		.4byte	0x2b5
 1803 07d8 0E       		.uleb128 0xe
 1804 07d9 87070000 		.4byte	0x787
 1805 07dd 0E       		.uleb128 0xe
 1806 07de 2C000000 		.4byte	0x2c
 1807 07e2 00       		.byte	0
 1808 07e3 0B       		.uleb128 0xb
 1809 07e4 04       		.byte	0x4
 1810 07e5 CA070000 		.4byte	0x7ca
 1811 07e9 12       		.uleb128 0x12
 1812 07ea FE000000 		.4byte	0xfe
 1813 07ee FD070000 		.4byte	0x7fd
 1814 07f2 0E       		.uleb128 0xe
 1815 07f3 B5020000 		.4byte	0x2b5
 1816 07f7 0E       		.uleb128 0xe
 1817 07f8 6C000000 		.4byte	0x6c
 1818 07fc 00       		.byte	0
 1819 07fd 0B       		.uleb128 0xb
 1820 07fe 04       		.byte	0x4
 1821 07ff E9070000 		.4byte	0x7e9
 1822 0803 13       		.uleb128 0x13
 1823 0804 9D020000 		.4byte	0x29d
 1824 0808 13080000 		.4byte	0x813
ARM GAS  /tmp/ccCRVKmc.s 			page 33


 1825 080c 14       		.uleb128 0x14
 1826 080d 38000000 		.4byte	0x38
 1827 0811 26       		.byte	0x26
 1828 0812 00       		.byte	0
 1829 0813 0F       		.uleb128 0xf
 1830 0814 FC020000 		.4byte	.LASF115
 1831 0818 0E       		.byte	0xe
 1832 0819 82       		.byte	0x82
 1833 081a 08       		.byte	0x8
 1834 081b 03080000 		.4byte	0x803
 1835 081f 07       		.uleb128 0x7
 1836 0820 1C010000 		.4byte	.LASF116
 1837 0824 20       		.byte	0x20
 1838 0825 0F       		.byte	0xf
 1839 0826 FD       		.byte	0xfd
 1840 0827 08       		.byte	0x8
 1841 0828 9B080000 		.4byte	0x89b
 1842 082c 08       		.uleb128 0x8
 1843 082d 45030000 		.4byte	.LASF117
 1844 0831 0F       		.byte	0xf
 1845 0832 FE       		.byte	0xfe
 1846 0833 19       		.byte	0x19
 1847 0834 3F000000 		.4byte	0x3f
 1848 0838 00       		.byte	0
 1849 0839 08       		.uleb128 0x8
 1850 083a 9D080000 		.4byte	.LASF118
 1851 083e 0F       		.byte	0xf
 1852 083f FF       		.byte	0xff
 1853 0840 19       		.byte	0x19
 1854 0841 3F000000 		.4byte	0x3f
 1855 0845 04       		.byte	0x4
 1856 0846 15       		.uleb128 0x15
 1857 0847 73090000 		.4byte	.LASF119
 1858 084b 0F       		.byte	0xf
 1859 084c 0001     		.2byte	0x100
 1860 084e 19       		.byte	0x19
 1861 084f 3F000000 		.4byte	0x3f
 1862 0853 08       		.byte	0x8
 1863 0854 15       		.uleb128 0x15
 1864 0855 66030000 		.4byte	.LASF120
 1865 0859 0F       		.byte	0xf
 1866 085a 0101     		.2byte	0x101
 1867 085c 19       		.byte	0x19
 1868 085d 3F000000 		.4byte	0x3f
 1869 0861 0C       		.byte	0xc
 1870 0862 15       		.uleb128 0x15
 1871 0863 79010000 		.4byte	.LASF121
 1872 0867 0F       		.byte	0xf
 1873 0868 0201     		.2byte	0x102
 1874 086a 19       		.byte	0x19
 1875 086b 3F000000 		.4byte	0x3f
 1876 086f 10       		.byte	0x10
 1877 0870 15       		.uleb128 0x15
 1878 0871 20050000 		.4byte	.LASF122
 1879 0875 0F       		.byte	0xf
 1880 0876 0301     		.2byte	0x103
 1881 0878 19       		.byte	0x19
ARM GAS  /tmp/ccCRVKmc.s 			page 34


 1882 0879 3F000000 		.4byte	0x3f
 1883 087d 14       		.byte	0x14
 1884 087e 15       		.uleb128 0x15
 1885 087f A9020000 		.4byte	.LASF123
 1886 0883 0F       		.byte	0xf
 1887 0884 0401     		.2byte	0x104
 1888 0886 19       		.byte	0x19
 1889 0887 3F000000 		.4byte	0x3f
 1890 088b 18       		.byte	0x18
 1891 088c 15       		.uleb128 0x15
 1892 088d C9090000 		.4byte	.LASF124
 1893 0891 0F       		.byte	0xf
 1894 0892 0501     		.2byte	0x105
 1895 0894 19       		.byte	0x19
 1896 0895 3F000000 		.4byte	0x3f
 1897 0899 1C       		.byte	0x1c
 1898 089a 00       		.byte	0
 1899 089b 16       		.uleb128 0x16
 1900 089c 1C010000 		.4byte	.LASF116
 1901 08a0 0F       		.byte	0xf
 1902 08a1 0801     		.2byte	0x108
 1903 08a3 1C       		.byte	0x1c
 1904 08a4 1F080000 		.4byte	0x81f
 1905 08a8 12       		.uleb128 0x12
 1906 08a9 FE000000 		.4byte	0xfe
 1907 08ad C1080000 		.4byte	0x8c1
 1908 08b1 0E       		.uleb128 0xe
 1909 08b2 B5020000 		.4byte	0x2b5
 1910 08b6 0E       		.uleb128 0xe
 1911 08b7 6C000000 		.4byte	0x6c
 1912 08bb 0E       		.uleb128 0xe
 1913 08bc 22010000 		.4byte	0x122
 1914 08c0 00       		.byte	0
 1915 08c1 0B       		.uleb128 0xb
 1916 08c2 04       		.byte	0x4
 1917 08c3 A8080000 		.4byte	0x8a8
 1918 08c7 12       		.uleb128 0x12
 1919 08c8 FE000000 		.4byte	0xfe
 1920 08cc DB080000 		.4byte	0x8db
 1921 08d0 0E       		.uleb128 0xe
 1922 08d1 B5020000 		.4byte	0x2b5
 1923 08d5 0E       		.uleb128 0xe
 1924 08d6 22010000 		.4byte	0x122
 1925 08da 00       		.byte	0
 1926 08db 0B       		.uleb128 0xb
 1927 08dc 04       		.byte	0x4
 1928 08dd C7080000 		.4byte	0x8c7
 1929 08e1 12       		.uleb128 0x12
 1930 08e2 2C000000 		.4byte	0x2c
 1931 08e6 FF080000 		.4byte	0x8ff
 1932 08ea 0E       		.uleb128 0xe
 1933 08eb B5020000 		.4byte	0x2b5
 1934 08ef 0E       		.uleb128 0xe
 1935 08f0 BE070000 		.4byte	0x7be
 1936 08f4 0E       		.uleb128 0xe
 1937 08f5 2C000000 		.4byte	0x2c
 1938 08f9 0E       		.uleb128 0xe
ARM GAS  /tmp/ccCRVKmc.s 			page 35


 1939 08fa 22010000 		.4byte	0x122
 1940 08fe 00       		.byte	0
 1941 08ff 0B       		.uleb128 0xb
 1942 0900 04       		.byte	0x4
 1943 0901 E1080000 		.4byte	0x8e1
 1944 0905 12       		.uleb128 0x12
 1945 0906 2C000000 		.4byte	0x2c
 1946 090a 23090000 		.4byte	0x923
 1947 090e 0E       		.uleb128 0xe
 1948 090f B5020000 		.4byte	0x2b5
 1949 0913 0E       		.uleb128 0xe
 1950 0914 87070000 		.4byte	0x787
 1951 0918 0E       		.uleb128 0xe
 1952 0919 2C000000 		.4byte	0x2c
 1953 091d 0E       		.uleb128 0xe
 1954 091e 22010000 		.4byte	0x122
 1955 0922 00       		.byte	0
 1956 0923 0B       		.uleb128 0xb
 1957 0924 04       		.byte	0x4
 1958 0925 05090000 		.4byte	0x905
 1959 0929 0A       		.uleb128 0xa
 1960 092a 18       		.byte	0x18
 1961 092b 10       		.byte	0x10
 1962 092c 2A       		.byte	0x2a
 1963 092d 09       		.byte	0x9
 1964 092e 81090000 		.4byte	0x981
 1965 0932 08       		.uleb128 0x8
 1966 0933 E2080000 		.4byte	.LASF125
 1967 0937 10       		.byte	0x10
 1968 0938 2F       		.byte	0x2f
 1969 0939 15       		.byte	0x15
 1970 093a 97000000 		.4byte	0x97
 1971 093e 00       		.byte	0
 1972 093f 08       		.uleb128 0x8
 1973 0940 D4050000 		.4byte	.LASF126
 1974 0944 10       		.byte	0x10
 1975 0945 31       		.byte	0x31
 1976 0946 16       		.byte	0x16
 1977 0947 81090000 		.4byte	0x981
 1978 094b 04       		.byte	0x4
 1979 094c 08       		.uleb128 0x8
 1980 094d B5040000 		.4byte	.LASF127
 1981 0951 10       		.byte	0x10
 1982 0952 32       		.byte	0x32
 1983 0953 16       		.byte	0x16
 1984 0954 81090000 		.4byte	0x981
 1985 0958 08       		.byte	0x8
 1986 0959 08       		.uleb128 0x8
 1987 095a 04050000 		.4byte	.LASF128
 1988 095e 10       		.byte	0x10
 1989 095f 33       		.byte	0x33
 1990 0960 16       		.byte	0x16
 1991 0961 81090000 		.4byte	0x981
 1992 0965 0C       		.byte	0xc
 1993 0966 08       		.uleb128 0x8
 1994 0967 DA050000 		.4byte	.LASF129
 1995 096b 10       		.byte	0x10
ARM GAS  /tmp/ccCRVKmc.s 			page 36


 1996 096c 34       		.byte	0x34
 1997 096d 16       		.byte	0x16
 1998 096e 81090000 		.4byte	0x981
 1999 0972 10       		.byte	0x10
 2000 0973 08       		.uleb128 0x8
 2001 0974 DD060000 		.4byte	.LASF130
 2002 0978 10       		.byte	0x10
 2003 0979 35       		.byte	0x35
 2004 097a 10       		.byte	0x10
 2005 097b 38000000 		.4byte	0x38
 2006 097f 14       		.byte	0x14
 2007 0980 00       		.byte	0
 2008 0981 0B       		.uleb128 0xb
 2009 0982 04       		.byte	0x4
 2010 0983 A3000000 		.4byte	0xa3
 2011 0987 03       		.uleb128 0x3
 2012 0988 42040000 		.4byte	.LASF131
 2013 098c 10       		.byte	0x10
 2014 098d 37       		.byte	0x37
 2015 098e 03       		.byte	0x3
 2016 098f 29090000 		.4byte	0x929
 2017 0993 17       		.uleb128 0x17
 2018 0994 00       		.byte	0
 2019 0995 10       		.byte	0x10
 2020 0996 43       		.byte	0x43
 2021 0997 09       		.byte	0x9
 2022 0998 03       		.uleb128 0x3
 2023 0999 8C090000 		.4byte	.LASF132
 2024 099d 10       		.byte	0x10
 2025 099e 45       		.byte	0x45
 2026 099f 03       		.byte	0x3
 2027 09a0 93090000 		.4byte	0x993
 2028 09a4 06       		.uleb128 0x6
 2029 09a5 98090000 		.4byte	0x998
 2030 09a9 0F       		.uleb128 0xf
 2031 09aa A3050000 		.4byte	.LASF133
 2032 09ae 10       		.byte	0x10
 2033 09af 6D       		.byte	0x6d
 2034 09b0 14       		.byte	0x14
 2035 09b1 87090000 		.4byte	0x987
 2036 09b5 0F       		.uleb128 0xf
 2037 09b6 F4060000 		.4byte	.LASF134
 2038 09ba 10       		.byte	0x10
 2039 09bb 6E       		.byte	0x6e
 2040 09bc 14       		.byte	0x14
 2041 09bd 87090000 		.4byte	0x987
 2042 09c1 0F       		.uleb128 0xf
 2043 09c2 9E090000 		.4byte	.LASF135
 2044 09c6 10       		.byte	0x10
 2045 09c7 75       		.byte	0x75
 2046 09c8 18       		.byte	0x18
 2047 09c9 A4090000 		.4byte	0x9a4
 2048 09cd 18       		.uleb128 0x18
 2049 09ce 07       		.byte	0x7
 2050 09cf 01       		.byte	0x1
 2051 09d0 7D000000 		.4byte	0x7d
 2052 09d4 11       		.byte	0x11
ARM GAS  /tmp/ccCRVKmc.s 			page 37


 2053 09d5 54       		.byte	0x54
 2054 09d6 0E       		.byte	0xe
 2055 09d7 000A0000 		.4byte	0xa00
 2056 09db 19       		.uleb128 0x19
 2057 09dc 66020000 		.4byte	.LASF136
 2058 09e0 00       		.byte	0
 2059 09e1 19       		.uleb128 0x19
 2060 09e2 17050000 		.4byte	.LASF137
 2061 09e6 01       		.byte	0x1
 2062 09e7 19       		.uleb128 0x19
 2063 09e8 E8070000 		.4byte	.LASF138
 2064 09ec 02       		.byte	0x2
 2065 09ed 19       		.uleb128 0x19
 2066 09ee DA020000 		.4byte	.LASF139
 2067 09f2 03       		.byte	0x3
 2068 09f3 19       		.uleb128 0x19
 2069 09f4 8C070000 		.4byte	.LASF140
 2070 09f8 04       		.byte	0x4
 2071 09f9 19       		.uleb128 0x19
 2072 09fa 35070000 		.4byte	.LASF141
 2073 09fe 05       		.byte	0x5
 2074 09ff 00       		.byte	0
 2075 0a00 03       		.uleb128 0x3
 2076 0a01 17060000 		.4byte	.LASF142
 2077 0a05 11       		.byte	0x11
 2078 0a06 5B       		.byte	0x5b
 2079 0a07 03       		.byte	0x3
 2080 0a08 CD090000 		.4byte	0x9cd
 2081 0a0c 03       		.uleb128 0x3
 2082 0a0d F2070000 		.4byte	.LASF143
 2083 0a11 12       		.byte	0x12
 2084 0a12 38       		.byte	0x38
 2085 0a13 1A       		.byte	0x1a
 2086 0a14 180A0000 		.4byte	0xa18
 2087 0a18 07       		.uleb128 0x7
 2088 0a19 F2070000 		.4byte	.LASF143
 2089 0a1d 40       		.byte	0x40
 2090 0a1e 12       		.byte	0x12
 2091 0a1f 62       		.byte	0x62
 2092 0a20 08       		.byte	0x8
 2093 0a21 CF0A0000 		.4byte	0xacf
 2094 0a25 08       		.uleb128 0x8
 2095 0a26 7B020000 		.4byte	.LASF144
 2096 0a2a 12       		.byte	0x12
 2097 0a2b 64       		.byte	0x64
 2098 0a2c 1D       		.byte	0x1d
 2099 0a2d 000A0000 		.4byte	0xa00
 2100 0a31 00       		.byte	0
 2101 0a32 08       		.uleb128 0x8
 2102 0a33 B1070000 		.4byte	.LASF145
 2103 0a37 12       		.byte	0x12
 2104 0a38 66       		.byte	0x66
 2105 0a39 1E       		.byte	0x1e
 2106 0a3a 0F0B0000 		.4byte	0xb0f
 2107 0a3e 04       		.byte	0x4
 2108 0a3f 08       		.uleb128 0x8
 2109 0a40 C4030000 		.4byte	.LASF146
ARM GAS  /tmp/ccCRVKmc.s 			page 38


 2110 0a44 12       		.byte	0x12
 2111 0a45 68       		.byte	0x68
 2112 0a46 1D       		.byte	0x1d
 2113 0a47 CF0A0000 		.4byte	0xacf
 2114 0a4b 08       		.byte	0x8
 2115 0a4c 08       		.uleb128 0x8
 2116 0a4d A3010000 		.4byte	.LASF147
 2117 0a51 12       		.byte	0x12
 2118 0a52 6A       		.byte	0x6a
 2119 0a53 1E       		.byte	0x1e
 2120 0a54 150B0000 		.4byte	0xb15
 2121 0a58 0C       		.byte	0xc
 2122 0a59 08       		.uleb128 0x8
 2123 0a5a 59060000 		.4byte	.LASF148
 2124 0a5e 12       		.byte	0x12
 2125 0a5f 6D       		.byte	0x6d
 2126 0a60 1D       		.byte	0x1d
 2127 0a61 D3040000 		.4byte	0x4d3
 2128 0a65 10       		.byte	0x10
 2129 0a66 08       		.uleb128 0x8
 2130 0a67 A2020000 		.4byte	.LASF149
 2131 0a6b 12       		.byte	0x12
 2132 0a6c 77       		.byte	0x77
 2133 0a6d 1E       		.byte	0x1e
 2134 0a6e 68020000 		.4byte	0x268
 2135 0a72 20       		.byte	0x20
 2136 0a73 08       		.uleb128 0x8
 2137 0a74 57020000 		.4byte	.LASF150
 2138 0a78 12       		.byte	0x12
 2139 0a79 7B       		.byte	0x7b
 2140 0a7a 1D       		.byte	0x1d
 2141 0a7b DB0A0000 		.4byte	0xadb
 2142 0a7f 24       		.byte	0x24
 2143 0a80 08       		.uleb128 0x8
 2144 0a81 AE030000 		.4byte	.LASF151
 2145 0a85 12       		.byte	0x12
 2146 0a86 7F       		.byte	0x7f
 2147 0a87 1E       		.byte	0x1e
 2148 0a88 BE070000 		.4byte	0x7be
 2149 0a8c 28       		.byte	0x28
 2150 0a8d 08       		.uleb128 0x8
 2151 0a8e C1090000 		.4byte	.LASF152
 2152 0a92 12       		.byte	0x12
 2153 0a93 83       		.byte	0x83
 2154 0a94 1D       		.byte	0x1d
 2155 0a95 2C000000 		.4byte	0x2c
 2156 0a99 2C       		.byte	0x2c
 2157 0a9a 08       		.uleb128 0x8
 2158 0a9b 69080000 		.4byte	.LASF153
 2159 0a9f 12       		.byte	0x12
 2160 0aa0 87       		.byte	0x87
 2161 0aa1 1D       		.byte	0x1d
 2162 0aa2 2C000000 		.4byte	0x2c
 2163 0aa6 30       		.byte	0x30
 2164 0aa7 08       		.uleb128 0x8
 2165 0aa8 28010000 		.4byte	.LASF154
 2166 0aac 12       		.byte	0x12
ARM GAS  /tmp/ccCRVKmc.s 			page 39


 2167 0aad 8B       		.byte	0x8b
 2168 0aae 1E       		.byte	0x1e
 2169 0aaf 87070000 		.4byte	0x787
 2170 0ab3 34       		.byte	0x34
 2171 0ab4 08       		.uleb128 0x8
 2172 0ab5 78050000 		.4byte	.LASF155
 2173 0ab9 12       		.byte	0x12
 2174 0aba 8F       		.byte	0x8f
 2175 0abb 1D       		.byte	0x1d
 2176 0abc 2C000000 		.4byte	0x2c
 2177 0ac0 38       		.byte	0x38
 2178 0ac1 08       		.uleb128 0x8
 2179 0ac2 B3020000 		.4byte	.LASF156
 2180 0ac6 12       		.byte	0x12
 2181 0ac7 93       		.byte	0x93
 2182 0ac8 1D       		.byte	0x1d
 2183 0ac9 2C000000 		.4byte	0x2c
 2184 0acd 3C       		.byte	0x3c
 2185 0ace 00       		.byte	0
 2186 0acf 03       		.uleb128 0x3
 2187 0ad0 4E060000 		.4byte	.LASF157
 2188 0ad4 12       		.byte	0x12
 2189 0ad5 42       		.byte	0x42
 2190 0ad6 12       		.byte	0x12
 2191 0ad7 97000000 		.4byte	0x97
 2192 0adb 03       		.uleb128 0x3
 2193 0adc 71020000 		.4byte	.LASF158
 2194 0ae0 12       		.byte	0x12
 2195 0ae1 48       		.byte	0x48
 2196 0ae2 12       		.byte	0x12
 2197 0ae3 84000000 		.4byte	0x84
 2198 0ae7 0A       		.uleb128 0xa
 2199 0ae8 04       		.byte	0x4
 2200 0ae9 12       		.byte	0x12
 2201 0aea 57       		.byte	0x57
 2202 0aeb 09       		.byte	0x9
 2203 0aec FE0A0000 		.4byte	0xafe
 2204 0af0 08       		.uleb128 0x8
 2205 0af1 5B050000 		.4byte	.LASF159
 2206 0af5 12       		.byte	0x12
 2207 0af6 59       		.byte	0x59
 2208 0af7 1D       		.byte	0x1d
 2209 0af8 97000000 		.4byte	0x97
 2210 0afc 00       		.byte	0
 2211 0afd 00       		.byte	0
 2212 0afe 03       		.uleb128 0x3
 2213 0aff 55080000 		.4byte	.LASF160
 2214 0b03 12       		.byte	0x12
 2215 0b04 5B       		.byte	0x5b
 2216 0b05 03       		.byte	0x3
 2217 0b06 E70A0000 		.4byte	0xae7
 2218 0b0a 06       		.uleb128 0x6
 2219 0b0b FE0A0000 		.4byte	0xafe
 2220 0b0f 0B       		.uleb128 0xb
 2221 0b10 04       		.byte	0x4
 2222 0b11 0A0B0000 		.4byte	0xb0a
 2223 0b15 0B       		.uleb128 0xb
ARM GAS  /tmp/ccCRVKmc.s 			page 40


 2224 0b16 04       		.byte	0x4
 2225 0b17 9B080000 		.4byte	0x89b
 2226 0b1b 0F       		.uleb128 0xf
 2227 0b1c 88030000 		.4byte	.LASF161
 2228 0b20 12       		.byte	0x12
 2229 0b21 A6       		.byte	0xa6
 2230 0b22 12       		.byte	0x12
 2231 0b23 0C0A0000 		.4byte	0xa0c
 2232 0b27 18       		.uleb128 0x18
 2233 0b28 07       		.byte	0x7
 2234 0b29 01       		.byte	0x1
 2235 0b2a 7D000000 		.4byte	0x7d
 2236 0b2e 13       		.byte	0x13
 2237 0b2f 5D       		.byte	0x5d
 2238 0b30 0E       		.byte	0xe
 2239 0b31 480B0000 		.4byte	0xb48
 2240 0b35 19       		.uleb128 0x19
 2241 0b36 4B070000 		.4byte	.LASF162
 2242 0b3a 00       		.byte	0
 2243 0b3b 19       		.uleb128 0x19
 2244 0b3c F4010000 		.4byte	.LASF163
 2245 0b40 01       		.byte	0x1
 2246 0b41 19       		.uleb128 0x19
 2247 0b42 24080000 		.4byte	.LASF164
 2248 0b46 02       		.byte	0x2
 2249 0b47 00       		.byte	0
 2250 0b48 03       		.uleb128 0x3
 2251 0b49 5F080000 		.4byte	.LASF165
 2252 0b4d 13       		.byte	0x13
 2253 0b4e 61       		.byte	0x61
 2254 0b4f 03       		.byte	0x3
 2255 0b50 270B0000 		.4byte	0xb27
 2256 0b54 03       		.uleb128 0x3
 2257 0b55 7F070000 		.4byte	.LASF166
 2258 0b59 13       		.byte	0x13
 2259 0b5a 66       		.byte	0x66
 2260 0b5b 1D       		.byte	0x1d
 2261 0b5c 600B0000 		.4byte	0xb60
 2262 0b60 07       		.uleb128 0x7
 2263 0b61 7F070000 		.4byte	.LASF166
 2264 0b65 74       		.byte	0x74
 2265 0b66 13       		.byte	0x13
 2266 0b67 80       		.byte	0x80
 2267 0b68 08       		.byte	0x8
 2268 0b69 C70B0000 		.4byte	0xbc7
 2269 0b6d 09       		.uleb128 0x9
 2270 0b6e 766D7400 		.ascii	"vmt\000"
 2271 0b72 13       		.byte	0x13
 2272 0b73 82       		.byte	0x82
 2273 0b74 21       		.byte	0x21
 2274 0b75 760C0000 		.4byte	0xc76
 2275 0b79 00       		.byte	0
 2276 0b7a 08       		.uleb128 0x8
 2277 0b7b 21040000 		.4byte	.LASF167
 2278 0b7f 13       		.byte	0x13
 2279 0b80 83       		.byte	0x83
 2280 0b81 03       		.byte	0x3
ARM GAS  /tmp/ccCRVKmc.s 			page 41


 2281 0b82 4E050000 		.4byte	0x54e
 2282 0b86 04       		.byte	0x4
 2283 0b87 08       		.uleb128 0x8
 2284 0b88 7B020000 		.4byte	.LASF144
 2285 0b8c 13       		.byte	0x13
 2286 0b8d 83       		.byte	0x83
 2287 0b8e 03       		.byte	0x3
 2288 0b8f 480B0000 		.4byte	0xb48
 2289 0b93 08       		.byte	0x8
 2290 0b94 08       		.uleb128 0x8
 2291 0b95 CB030000 		.4byte	.LASF168
 2292 0b99 13       		.byte	0x13
 2293 0b9a 83       		.byte	0x83
 2294 0b9b 03       		.byte	0x3
 2295 0b9c 8D070000 		.4byte	0x78d
 2296 0ba0 0C       		.byte	0xc
 2297 0ba1 08       		.uleb128 0x8
 2298 0ba2 7D040000 		.4byte	.LASF169
 2299 0ba6 13       		.byte	0x13
 2300 0ba7 83       		.byte	0x83
 2301 0ba8 03       		.byte	0x3
 2302 0ba9 99070000 		.4byte	0x799
 2303 0bad 30       		.byte	0x30
 2304 0bae 09       		.uleb128 0x9
 2305 0baf 696200   		.ascii	"ib\000"
 2306 0bb2 13       		.byte	0x13
 2307 0bb3 83       		.byte	0x83
 2308 0bb4 03       		.byte	0x3
 2309 0bb5 7C0C0000 		.4byte	0xc7c
 2310 0bb9 54       		.byte	0x54
 2311 0bba 09       		.uleb128 0x9
 2312 0bbb 6F6200   		.ascii	"ob\000"
 2313 0bbe 13       		.byte	0x13
 2314 0bbf 83       		.byte	0x83
 2315 0bc0 03       		.byte	0x3
 2316 0bc1 7C0C0000 		.4byte	0xc7c
 2317 0bc5 64       		.byte	0x64
 2318 0bc6 00       		.byte	0
 2319 0bc7 0A       		.uleb128 0xa
 2320 0bc8 04       		.byte	0x4
 2321 0bc9 14       		.byte	0x14
 2322 0bca 42       		.byte	0x42
 2323 0bcb 09       		.byte	0x9
 2324 0bcc DE0B0000 		.4byte	0xbde
 2325 0bd0 08       		.uleb128 0x8
 2326 0bd1 13000000 		.4byte	.LASF170
 2327 0bd5 14       		.byte	0x14
 2328 0bd6 44       		.byte	0x44
 2329 0bd7 1C       		.byte	0x1c
 2330 0bd8 97000000 		.4byte	0x97
 2331 0bdc 00       		.byte	0
 2332 0bdd 00       		.byte	0
 2333 0bde 03       		.uleb128 0x3
 2334 0bdf 6F080000 		.4byte	.LASF171
 2335 0be3 14       		.byte	0x14
 2336 0be4 45       		.byte	0x45
 2337 0be5 03       		.byte	0x3
ARM GAS  /tmp/ccCRVKmc.s 			page 42


 2338 0be6 C70B0000 		.4byte	0xbc7
 2339 0bea 06       		.uleb128 0x6
 2340 0beb DE0B0000 		.4byte	0xbde
 2341 0bef 1A       		.uleb128 0x1a
 2342 0bf0 53443100 		.ascii	"SD1\000"
 2343 0bf4 14       		.byte	0x14
 2344 0bf5 62       		.byte	0x62
 2345 0bf6 15       		.byte	0x15
 2346 0bf7 540B0000 		.4byte	0xb54
 2347 0bfb 07       		.uleb128 0x7
 2348 0bfc B4030000 		.4byte	.LASF172
 2349 0c00 20       		.byte	0x20
 2350 0c01 13       		.byte	0x13
 2351 0c02 75       		.byte	0x75
 2352 0c03 08       		.byte	0x8
 2353 0c04 710C0000 		.4byte	0xc71
 2354 0c08 08       		.uleb128 0x8
 2355 0c09 F8000000 		.4byte	.LASF173
 2356 0c0d 13       		.byte	0x13
 2357 0c0e 76       		.byte	0x76
 2358 0c0f 03       		.byte	0x3
 2359 0c10 C4070000 		.4byte	0x7c4
 2360 0c14 00       		.byte	0
 2361 0c15 08       		.uleb128 0x8
 2362 0c16 9A070000 		.4byte	.LASF174
 2363 0c1a 13       		.byte	0x13
 2364 0c1b 76       		.byte	0x76
 2365 0c1c 03       		.byte	0x3
 2366 0c1d E3070000 		.4byte	0x7e3
 2367 0c21 04       		.byte	0x4
 2368 0c22 09       		.uleb128 0x9
 2369 0c23 70757400 		.ascii	"put\000"
 2370 0c27 13       		.byte	0x13
 2371 0c28 76       		.byte	0x76
 2372 0c29 03       		.byte	0x3
 2373 0c2a FD070000 		.4byte	0x7fd
 2374 0c2e 08       		.byte	0x8
 2375 0c2f 09       		.uleb128 0x9
 2376 0c30 67657400 		.ascii	"get\000"
 2377 0c34 13       		.byte	0x13
 2378 0c35 76       		.byte	0x76
 2379 0c36 03       		.byte	0x3
 2380 0c37 AC050000 		.4byte	0x5ac
 2381 0c3b 0C       		.byte	0xc
 2382 0c3c 08       		.uleb128 0x8
 2383 0c3d 0A050000 		.4byte	.LASF175
 2384 0c41 13       		.byte	0x13
 2385 0c42 76       		.byte	0x76
 2386 0c43 03       		.byte	0x3
 2387 0c44 C1080000 		.4byte	0x8c1
 2388 0c48 10       		.byte	0x10
 2389 0c49 08       		.uleb128 0x8
 2390 0c4a F9030000 		.4byte	.LASF176
 2391 0c4e 13       		.byte	0x13
 2392 0c4f 76       		.byte	0x76
 2393 0c50 03       		.byte	0x3
 2394 0c51 DB080000 		.4byte	0x8db
ARM GAS  /tmp/ccCRVKmc.s 			page 43


 2395 0c55 14       		.byte	0x14
 2396 0c56 08       		.uleb128 0x8
 2397 0c57 9A040000 		.4byte	.LASF177
 2398 0c5b 13       		.byte	0x13
 2399 0c5c 76       		.byte	0x76
 2400 0c5d 03       		.byte	0x3
 2401 0c5e FF080000 		.4byte	0x8ff
 2402 0c62 18       		.byte	0x18
 2403 0c63 08       		.uleb128 0x8
 2404 0c64 9D010000 		.4byte	.LASF178
 2405 0c68 13       		.byte	0x13
 2406 0c69 76       		.byte	0x76
 2407 0c6a 03       		.byte	0x3
 2408 0c6b 23090000 		.4byte	0x923
 2409 0c6f 1C       		.byte	0x1c
 2410 0c70 00       		.byte	0
 2411 0c71 06       		.uleb128 0x6
 2412 0c72 FB0B0000 		.4byte	0xbfb
 2413 0c76 0B       		.uleb128 0xb
 2414 0c77 04       		.byte	0x4
 2415 0c78 710C0000 		.4byte	0xc71
 2416 0c7c 13       		.uleb128 0x13
 2417 0c7d 6C000000 		.4byte	0x6c
 2418 0c81 8C0C0000 		.4byte	0xc8c
 2419 0c85 14       		.uleb128 0x14
 2420 0c86 38000000 		.4byte	0x38
 2421 0c8a 0F       		.byte	0xf
 2422 0c8b 00       		.byte	0
 2423 0c8c 18       		.uleb128 0x18
 2424 0c8d 07       		.byte	0x7
 2425 0c8e 01       		.byte	0x1
 2426 0c8f 7D000000 		.4byte	0x7d
 2427 0c93 15       		.byte	0x15
 2428 0c94 4E       		.byte	0x4e
 2429 0c95 0E       		.byte	0xe
 2430 0c96 B90C0000 		.4byte	0xcb9
 2431 0c9a 19       		.uleb128 0x19
 2432 0c9b 37080000 		.4byte	.LASF179
 2433 0c9f 00       		.byte	0
 2434 0ca0 19       		.uleb128 0x19
 2435 0ca1 DE010000 		.4byte	.LASF180
 2436 0ca5 01       		.byte	0x1
 2437 0ca6 19       		.uleb128 0x19
 2438 0ca7 2D080000 		.4byte	.LASF181
 2439 0cab 02       		.byte	0x2
 2440 0cac 19       		.uleb128 0x19
 2441 0cad 0A010000 		.4byte	.LASF182
 2442 0cb1 03       		.byte	0x3
 2443 0cb2 19       		.uleb128 0x19
 2444 0cb3 A4070000 		.4byte	.LASF183
 2445 0cb7 04       		.byte	0x4
 2446 0cb8 00       		.byte	0
 2447 0cb9 03       		.uleb128 0x3
 2448 0cba B8070000 		.4byte	.LASF184
 2449 0cbe 15       		.byte	0x15
 2450 0cbf 54       		.byte	0x54
 2451 0cc0 03       		.byte	0x3
ARM GAS  /tmp/ccCRVKmc.s 			page 44


 2452 0cc1 8C0C0000 		.4byte	0xc8c
 2453 0cc5 03       		.uleb128 0x3
 2454 0cc6 67010000 		.4byte	.LASF185
 2455 0cca 16       		.byte	0x16
 2456 0ccb 35       		.byte	0x35
 2457 0ccc 1A       		.byte	0x1a
 2458 0ccd D10C0000 		.4byte	0xcd1
 2459 0cd1 07       		.uleb128 0x7
 2460 0cd2 67010000 		.4byte	.LASF185
 2461 0cd6 28       		.byte	0x28
 2462 0cd7 16       		.byte	0x16
 2463 0cd8 7C       		.byte	0x7c
 2464 0cd9 08       		.byte	0x8
 2465 0cda 3A0D0000 		.4byte	0xd3a
 2466 0cde 08       		.uleb128 0x8
 2467 0cdf 7B020000 		.4byte	.LASF144
 2468 0ce3 16       		.byte	0x16
 2469 0ce4 80       		.byte	0x80
 2470 0ce5 19       		.byte	0x19
 2471 0ce6 B90C0000 		.4byte	0xcb9
 2472 0cea 00       		.byte	0
 2473 0ceb 08       		.uleb128 0x8
 2474 0cec B1070000 		.4byte	.LASF145
 2475 0cf0 16       		.byte	0x16
 2476 0cf1 84       		.byte	0x84
 2477 0cf2 1A       		.byte	0x1a
 2478 0cf3 ED0D0000 		.4byte	0xded
 2479 0cf7 04       		.byte	0x4
 2480 0cf8 08       		.uleb128 0x8
 2481 0cf9 A2020000 		.4byte	.LASF149
 2482 0cfd 16       		.byte	0x16
 2483 0cfe 89       		.byte	0x89
 2484 0cff 1A       		.byte	0x1a
 2485 0d00 68020000 		.4byte	0x268
 2486 0d04 08       		.byte	0x8
 2487 0d05 08       		.uleb128 0x8
 2488 0d06 59060000 		.4byte	.LASF148
 2489 0d0a 16       		.byte	0x16
 2490 0d0b 90       		.byte	0x90
 2491 0d0c 19       		.byte	0x19
 2492 0d0d D3040000 		.4byte	0x4d3
 2493 0d11 0C       		.byte	0xc
 2494 0d12 08       		.uleb128 0x8
 2495 0d13 28010000 		.4byte	.LASF154
 2496 0d17 16       		.byte	0x16
 2497 0d18 98       		.byte	0x98
 2498 0d19 1A       		.byte	0x1a
 2499 0d1a B5020000 		.4byte	0x2b5
 2500 0d1e 1C       		.byte	0x1c
 2501 0d1f 08       		.uleb128 0x8
 2502 0d20 AE030000 		.4byte	.LASF151
 2503 0d24 16       		.byte	0x16
 2504 0d25 9D       		.byte	0x9d
 2505 0d26 1A       		.byte	0x1a
 2506 0d27 F30D0000 		.4byte	0xdf3
 2507 0d2b 20       		.byte	0x20
 2508 0d2c 08       		.uleb128 0x8
ARM GAS  /tmp/ccCRVKmc.s 			page 45


 2509 0d2d 13030000 		.4byte	.LASF186
 2510 0d31 16       		.byte	0x16
 2511 0d32 A2       		.byte	0xa2
 2512 0d33 17       		.byte	0x17
 2513 0d34 2C000000 		.4byte	0x2c
 2514 0d38 24       		.byte	0x24
 2515 0d39 00       		.byte	0
 2516 0d3a 03       		.uleb128 0x3
 2517 0d3b 7A030000 		.4byte	.LASF187
 2518 0d3f 16       		.byte	0x16
 2519 0d40 3D       		.byte	0x3d
 2520 0d41 10       		.byte	0x10
 2521 0d42 460D0000 		.4byte	0xd46
 2522 0d46 0B       		.uleb128 0xb
 2523 0d47 04       		.byte	0x4
 2524 0d48 4C0D0000 		.4byte	0xd4c
 2525 0d4c 0D       		.uleb128 0xd
 2526 0d4d 570D0000 		.4byte	0xd57
 2527 0d51 0E       		.uleb128 0xe
 2528 0d52 570D0000 		.4byte	0xd57
 2529 0d56 00       		.byte	0
 2530 0d57 0B       		.uleb128 0xb
 2531 0d58 04       		.byte	0x4
 2532 0d59 C50C0000 		.4byte	0xcc5
 2533 0d5d 0A       		.uleb128 0xa
 2534 0d5e 10       		.byte	0x10
 2535 0d5f 16       		.byte	0x16
 2536 0d60 44       		.byte	0x44
 2537 0d61 09       		.byte	0x9
 2538 0d62 DC0D0000 		.4byte	0xddc
 2539 0d66 08       		.uleb128 0x8
 2540 0d67 0C030000 		.4byte	.LASF188
 2541 0d6b 16       		.byte	0x16
 2542 0d6c 48       		.byte	0x48
 2543 0d6d 19       		.byte	0x19
 2544 0d6e 3A0D0000 		.4byte	0xd3a
 2545 0d72 00       		.byte	0
 2546 0d73 08       		.uleb128 0x8
 2547 0d74 E3050000 		.4byte	.LASF189
 2548 0d78 16       		.byte	0x16
 2549 0d79 4F       		.byte	0x4f
 2550 0d7a 19       		.byte	0x19
 2551 0d7b 6C000000 		.4byte	0x6c
 2552 0d7f 04       		.byte	0x4
 2553 0d80 08       		.uleb128 0x8
 2554 0d81 03060000 		.4byte	.LASF190
 2555 0d85 16       		.byte	0x16
 2556 0d86 52       		.byte	0x52
 2557 0d87 19       		.byte	0x19
 2558 0d88 6C000000 		.4byte	0x6c
 2559 0d8c 05       		.byte	0x5
 2560 0d8d 08       		.uleb128 0x8
 2561 0d8e 0C040000 		.4byte	.LASF191
 2562 0d92 16       		.byte	0x16
 2563 0d93 58       		.byte	0x58
 2564 0d94 19       		.byte	0x19
 2565 0d95 6C000000 		.4byte	0x6c
ARM GAS  /tmp/ccCRVKmc.s 			page 46


 2566 0d99 06       		.byte	0x6
 2567 0d9a 08       		.uleb128 0x8
 2568 0d9b 19030000 		.4byte	.LASF192
 2569 0d9f 16       		.byte	0x16
 2570 0da0 5E       		.byte	0x5e
 2571 0da1 19       		.byte	0x19
 2572 0da2 6C000000 		.4byte	0x6c
 2573 0da6 07       		.byte	0x7
 2574 0da7 08       		.uleb128 0x8
 2575 0da8 2F030000 		.4byte	.LASF193
 2576 0dac 16       		.byte	0x16
 2577 0dad 64       		.byte	0x64
 2578 0dae 19       		.byte	0x19
 2579 0daf 6C000000 		.4byte	0x6c
 2580 0db3 08       		.byte	0x8
 2581 0db4 08       		.uleb128 0x8
 2582 0db5 03080000 		.4byte	.LASF194
 2583 0db9 16       		.byte	0x16
 2584 0dba 6A       		.byte	0x6a
 2585 0dbb 19       		.byte	0x19
 2586 0dbc 6C000000 		.4byte	0x6c
 2587 0dc0 09       		.byte	0x9
 2588 0dc1 08       		.uleb128 0x8
 2589 0dc2 E8020000 		.4byte	.LASF195
 2590 0dc6 16       		.byte	0x16
 2591 0dc7 70       		.byte	0x70
 2592 0dc8 19       		.byte	0x19
 2593 0dc9 6C000000 		.4byte	0x6c
 2594 0dcd 0A       		.byte	0xa
 2595 0dce 08       		.uleb128 0x8
 2596 0dcf 1A070000 		.4byte	.LASF196
 2597 0dd3 16       		.byte	0x16
 2598 0dd4 73       		.byte	0x73
 2599 0dd5 19       		.byte	0x19
 2600 0dd6 97000000 		.4byte	0x97
 2601 0dda 0C       		.byte	0xc
 2602 0ddb 00       		.byte	0
 2603 0ddc 03       		.uleb128 0x3
 2604 0ddd 3B090000 		.4byte	.LASF197
 2605 0de1 16       		.byte	0x16
 2606 0de2 75       		.byte	0x75
 2607 0de3 03       		.byte	0x3
 2608 0de4 5D0D0000 		.4byte	0xd5d
 2609 0de8 06       		.uleb128 0x6
 2610 0de9 DC0D0000 		.4byte	0xddc
 2611 0ded 0B       		.uleb128 0xb
 2612 0dee 04       		.byte	0x4
 2613 0def E80D0000 		.4byte	0xde8
 2614 0df3 0B       		.uleb128 0xb
 2615 0df4 04       		.byte	0x4
 2616 0df5 F90D0000 		.4byte	0xdf9
 2617 0df9 1B       		.uleb128 0x1b
 2618 0dfa 0F       		.uleb128 0xf
 2619 0dfb CB020000 		.4byte	.LASF198
 2620 0dff 16       		.byte	0x16
 2621 0e00 B6       		.byte	0xb6
 2622 0e01 14       		.byte	0x14
ARM GAS  /tmp/ccCRVKmc.s 			page 47


 2623 0e02 C50C0000 		.4byte	0xcc5
 2624 0e06 1C       		.uleb128 0x1c
 2625 0e07 EF0B0000 		.4byte	0xbef
 2626 0e0b 01       		.byte	0x1
 2627 0e0c 2A       		.byte	0x2a
 2628 0e0d 0E       		.byte	0xe
 2629 0e0e 05       		.uleb128 0x5
 2630 0e0f 03       		.byte	0x3
 2631 0e10 00000000 		.4byte	SD1
 2632 0e14 1D       		.uleb128 0x1d
 2633 0e15 AB050000 		.4byte	.LASF215
 2634 0e19 01       		.byte	0x1
 2635 0e1a 33       		.byte	0x33
 2636 0e1b 1B       		.byte	0x1b
 2637 0e1c EA0B0000 		.4byte	0xbea
 2638 0e20 05       		.uleb128 0x5
 2639 0e21 03       		.byte	0x3
 2640 0e22 00000000 		.4byte	default_config
 2641 0e26 1E       		.uleb128 0x1e
 2642 0e27 16090000 		.4byte	.LASF199
 2643 0e2b 01       		.byte	0x1
 2644 0e2c B8       		.byte	0xb8
 2645 0e2d 06       		.byte	0x6
 2646 0e2e 00000000 		.4byte	.LFB15
 2647 0e32 94000000 		.4byte	.LFE15-.LFB15
 2648 0e36 01       		.uleb128 0x1
 2649 0e37 9C       		.byte	0x9c
 2650 0e38 E40E0000 		.4byte	0xee4
 2651 0e3c 1F       		.uleb128 0x1f
 2652 0e3d 6400     		.ascii	"d\000"
 2653 0e3f 01       		.byte	0x1
 2654 0e40 B8       		.byte	0xb8
 2655 0e41 23       		.byte	0x23
 2656 0e42 97000000 		.4byte	0x97
 2657 0e46 01       		.uleb128 0x1
 2658 0e47 50       		.byte	0x50
 2659 0e48 20       		.uleb128 0x20
 2660 0e49 71010000 		.4byte	.LASF201
 2661 0e4d 01       		.byte	0x1
 2662 0e4e B8       		.byte	0xb8
 2663 0e4f 2D       		.byte	0x2d
 2664 0e50 B6000000 		.4byte	0xb6
 2665 0e54 04000000 		.4byte	.LLST8
 2666 0e58 00000000 		.4byte	.LVUS8
 2667 0e5c 21       		.uleb128 0x21
 2668 0e5d 726200   		.ascii	"rb\000"
 2669 0e60 01       		.byte	0x1
 2670 0e61 BA       		.byte	0xba
 2671 0e62 0C       		.byte	0xc
 2672 0e63 97000000 		.4byte	0x97
 2673 0e67 29000000 		.4byte	.LLST9
 2674 0e6b 25000000 		.4byte	.LVUS9
 2675 0e6f 21       		.uleb128 0x21
 2676 0e70 726300   		.ascii	"rc\000"
 2677 0e73 01       		.byte	0x1
 2678 0e74 BB       		.byte	0xbb
 2679 0e75 0C       		.byte	0xc
ARM GAS  /tmp/ccCRVKmc.s 			page 48


 2680 0e76 97000000 		.4byte	0x97
 2681 0e7a 4D000000 		.4byte	.LLST10
 2682 0e7e 49000000 		.4byte	.LVUS10
 2683 0e82 22       		.uleb128 0x22
 2684 0e83 350F0000 		.4byte	0xf35
 2685 0e87 24000000 		.4byte	.LBI21
 2686 0e8b 01       		.byte	.LVU185
 2687 0e8c 18000000 		.4byte	.Ldebug_ranges0+0x18
 2688 0e90 01       		.byte	0x1
 2689 0e91 C6       		.byte	0xc6
 2690 0e92 05       		.byte	0x5
 2691 0e93 A50E0000 		.4byte	0xea5
 2692 0e97 23       		.uleb128 0x23
 2693 0e98 420F0000 		.4byte	0xf42
 2694 0e9c 6D000000 		.4byte	.LLST11
 2695 0ea0 6B000000 		.4byte	.LVUS11
 2696 0ea4 00       		.byte	0
 2697 0ea5 24       		.uleb128 0x24
 2698 0ea6 350F0000 		.4byte	0xf35
 2699 0eaa 38000000 		.4byte	.Ldebug_ranges0+0x38
 2700 0eae 01       		.byte	0x1
 2701 0eaf CA       		.byte	0xca
 2702 0eb0 03       		.byte	0x3
 2703 0eb1 BB0E0000 		.4byte	0xebb
 2704 0eb5 25       		.uleb128 0x25
 2705 0eb6 420F0000 		.4byte	0xf42
 2706 0eba 00       		.byte	0
 2707 0ebb 24       		.uleb128 0x24
 2708 0ebc 350F0000 		.4byte	0xf35
 2709 0ec0 50000000 		.4byte	.Ldebug_ranges0+0x50
 2710 0ec4 01       		.byte	0x1
 2711 0ec5 CD       		.byte	0xcd
 2712 0ec6 05       		.byte	0x5
 2713 0ec7 D10E0000 		.4byte	0xed1
 2714 0ecb 25       		.uleb128 0x25
 2715 0ecc 420F0000 		.4byte	0xf42
 2716 0ed0 00       		.byte	0
 2717 0ed1 26       		.uleb128 0x26
 2718 0ed2 350F0000 		.4byte	0xf35
 2719 0ed6 68000000 		.4byte	.Ldebug_ranges0+0x68
 2720 0eda 01       		.byte	0x1
 2721 0edb CE       		.byte	0xce
 2722 0edc 05       		.byte	0x5
 2723 0edd 25       		.uleb128 0x25
 2724 0ede 420F0000 		.4byte	0xf42
 2725 0ee2 00       		.byte	0
 2726 0ee3 00       		.byte	0
 2727 0ee4 1E       		.uleb128 0x1e
 2728 0ee5 E8080000 		.4byte	.LASF200
 2729 0ee9 01       		.byte	0x1
 2730 0eea B2       		.byte	0xb2
 2731 0eeb 06       		.byte	0x6
 2732 0eec 00000000 		.4byte	.LFB14
 2733 0ef0 34000000 		.4byte	.LFE14-.LFB14
 2734 0ef4 01       		.uleb128 0x1
 2735 0ef5 9C       		.byte	0x9c
 2736 0ef6 350F0000 		.4byte	0xf35
ARM GAS  /tmp/ccCRVKmc.s 			page 49


 2737 0efa 27       		.uleb128 0x27
 2738 0efb 7300     		.ascii	"s\000"
 2739 0efd 01       		.byte	0x1
 2740 0efe B2       		.byte	0xb2
 2741 0eff 25       		.byte	0x25
 2742 0f00 94050000 		.4byte	0x594
 2743 0f04 8A000000 		.4byte	.LLST6
 2744 0f08 80000000 		.4byte	.LVUS6
 2745 0f0c 21       		.uleb128 0x21
 2746 0f0d 6300     		.ascii	"c\000"
 2747 0f0f 01       		.byte	0x1
 2748 0f10 B4       		.byte	0xb4
 2749 0f11 08       		.byte	0x8
 2750 0f12 9A050000 		.4byte	0x59a
 2751 0f16 D1000000 		.4byte	.LLST7
 2752 0f1a CD000000 		.4byte	.LVUS7
 2753 0f1e 28       		.uleb128 0x28
 2754 0f1f 350F0000 		.4byte	0xf35
 2755 0f23 0C000000 		.4byte	.LBB19
 2756 0f27 14000000 		.4byte	.LBE19-.LBB19
 2757 0f2b 01       		.byte	0x1
 2758 0f2c B5       		.byte	0xb5
 2759 0f2d 15       		.byte	0x15
 2760 0f2e 25       		.uleb128 0x25
 2761 0f2f 420F0000 		.4byte	0xf42
 2762 0f33 00       		.byte	0
 2763 0f34 00       		.byte	0
 2764 0f35 29       		.uleb128 0x29
 2765 0f36 8A020000 		.4byte	.LASF216
 2766 0f3a 01       		.byte	0x1
 2767 0f3b AC       		.byte	0xac
 2768 0f3c 06       		.byte	0x6
 2769 0f3d 01       		.byte	0x1
 2770 0f3e 4D0F0000 		.4byte	0xf4d
 2771 0f42 2A       		.uleb128 0x2a
 2772 0f43 6300     		.ascii	"c\000"
 2773 0f45 01       		.byte	0x1
 2774 0f46 AC       		.byte	0xac
 2775 0f47 20       		.byte	0x20
 2776 0f48 97000000 		.4byte	0x97
 2777 0f4c 00       		.byte	0
 2778 0f4d 2B       		.uleb128 0x2b
 2779 0f4e 87080000 		.4byte	.LASF217
 2780 0f52 01       		.byte	0x1
 2781 0f53 A6       		.byte	0xa6
 2782 0f54 0A       		.byte	0xa
 2783 0f55 97000000 		.4byte	0x97
 2784 0f59 00000000 		.4byte	.LFB12
 2785 0f5d 20000000 		.4byte	.LFE12-.LFB12
 2786 0f61 01       		.uleb128 0x1
 2787 0f62 9C       		.byte	0x9c
 2788 0f63 1E       		.uleb128 0x1e
 2789 0f64 67090000 		.4byte	.LASF202
 2790 0f68 01       		.byte	0x1
 2791 0f69 9E       		.byte	0x9e
 2792 0f6a 06       		.byte	0x6
 2793 0f6b 00000000 		.4byte	.LFB11
ARM GAS  /tmp/ccCRVKmc.s 			page 50


 2794 0f6f 34000000 		.4byte	.LFE11-.LFB11
 2795 0f73 01       		.uleb128 0x1
 2796 0f74 9C       		.byte	0x9c
 2797 0f75 BA0F0000 		.4byte	0xfba
 2798 0f79 27       		.uleb128 0x27
 2799 0f7a 73647000 		.ascii	"sdp\000"
 2800 0f7e 01       		.byte	0x1
 2801 0f7f 9E       		.byte	0x9e
 2802 0f80 20       		.byte	0x20
 2803 0f81 BA0F0000 		.4byte	0xfba
 2804 0f85 F3000000 		.4byte	.LLST5
 2805 0f89 EF000000 		.4byte	.LVUS5
 2806 0f8d 2C       		.uleb128 0x2c
 2807 0f8e 20000000 		.4byte	.LVL22
 2808 0f92 60110000 		.4byte	0x1160
 2809 0f96 A50F0000 		.4byte	0xfa5
 2810 0f9a 2D       		.uleb128 0x2d
 2811 0f9b 01       		.uleb128 0x1
 2812 0f9c 50       		.byte	0x50
 2813 0f9d 01       		.uleb128 0x1
 2814 0f9e 3E       		.byte	0x3e
 2815 0f9f 2D       		.uleb128 0x2d
 2816 0fa0 01       		.uleb128 0x1
 2817 0fa1 51       		.byte	0x51
 2818 0fa2 01       		.uleb128 0x1
 2819 0fa3 30       		.byte	0x30
 2820 0fa4 00       		.byte	0
 2821 0fa5 2E       		.uleb128 0x2e
 2822 0fa6 30000000 		.4byte	.LVL23
 2823 0faa 60110000 		.4byte	0x1160
 2824 0fae 2D       		.uleb128 0x2d
 2825 0faf 01       		.uleb128 0x1
 2826 0fb0 50       		.byte	0x50
 2827 0fb1 01       		.uleb128 0x1
 2828 0fb2 3F       		.byte	0x3f
 2829 0fb3 2D       		.uleb128 0x2d
 2830 0fb4 01       		.uleb128 0x1
 2831 0fb5 51       		.byte	0x51
 2832 0fb6 01       		.uleb128 0x1
 2833 0fb7 30       		.byte	0x30
 2834 0fb8 00       		.byte	0
 2835 0fb9 00       		.byte	0
 2836 0fba 0B       		.uleb128 0xb
 2837 0fbb 04       		.byte	0x4
 2838 0fbc 540B0000 		.4byte	0xb54
 2839 0fc0 2F       		.uleb128 0x2f
 2840 0fc1 75060000 		.4byte	.LASF203
 2841 0fc5 01       		.byte	0x1
 2842 0fc6 75       		.byte	0x75
 2843 0fc7 06       		.byte	0x6
 2844 0fc8 00000000 		.4byte	.LFB10
 2845 0fcc C4000000 		.4byte	.LFE10-.LFB10
 2846 0fd0 01       		.uleb128 0x1
 2847 0fd1 9C       		.byte	0x9c
 2848 0fd2 53100000 		.4byte	0x1053
 2849 0fd6 27       		.uleb128 0x27
 2850 0fd7 73647000 		.ascii	"sdp\000"
ARM GAS  /tmp/ccCRVKmc.s 			page 51


 2851 0fdb 01       		.byte	0x1
 2852 0fdc 75       		.byte	0x75
 2853 0fdd 21       		.byte	0x21
 2854 0fde BA0F0000 		.4byte	0xfba
 2855 0fe2 18010000 		.4byte	.LLST3
 2856 0fe6 14010000 		.4byte	.LVUS3
 2857 0fea 20       		.uleb128 0x20
 2858 0feb B1070000 		.4byte	.LASF145
 2859 0fef 01       		.byte	0x1
 2860 0ff0 75       		.byte	0x75
 2861 0ff1 3A       		.byte	0x3a
 2862 0ff2 53100000 		.4byte	0x1053
 2863 0ff6 3F010000 		.4byte	.LLST4
 2864 0ffa 39010000 		.4byte	.LVUS4
 2865 0ffe 2C       		.uleb128 0x2c
 2866 0fff 78000000 		.4byte	.LVL16
 2867 1003 60110000 		.4byte	0x1160
 2868 1007 16100000 		.4byte	0x1016
 2869 100b 2D       		.uleb128 0x2d
 2870 100c 01       		.uleb128 0x1
 2871 100d 50       		.byte	0x50
 2872 100e 01       		.uleb128 0x1
 2873 100f 3E       		.byte	0x3e
 2874 1010 2D       		.uleb128 0x2d
 2875 1011 01       		.uleb128 0x1
 2876 1012 51       		.byte	0x51
 2877 1013 01       		.uleb128 0x1
 2878 1014 32       		.byte	0x32
 2879 1015 00       		.byte	0
 2880 1016 2C       		.uleb128 0x2c
 2881 1017 84000000 		.4byte	.LVL17
 2882 101b 60110000 		.4byte	0x1160
 2883 101f 2E100000 		.4byte	0x102e
 2884 1023 2D       		.uleb128 0x2d
 2885 1024 01       		.uleb128 0x1
 2886 1025 50       		.byte	0x50
 2887 1026 01       		.uleb128 0x1
 2888 1027 3F       		.byte	0x3f
 2889 1028 2D       		.uleb128 0x2d
 2890 1029 01       		.uleb128 0x1
 2891 102a 51       		.byte	0x51
 2892 102b 01       		.uleb128 0x1
 2893 102c 32       		.byte	0x32
 2894 102d 00       		.byte	0
 2895 102e 2C       		.uleb128 0x2c
 2896 102f 90000000 		.4byte	.LVL18
 2897 1033 6D110000 		.4byte	0x116d
 2898 1037 42100000 		.4byte	0x1042
 2899 103b 2D       		.uleb128 0x2d
 2900 103c 01       		.uleb128 0x1
 2901 103d 50       		.byte	0x50
 2902 103e 02       		.uleb128 0x2
 2903 103f 08       		.byte	0x8
 2904 1040 96       		.byte	0x96
 2905 1041 00       		.byte	0
 2906 1042 30       		.uleb128 0x30
 2907 1043 A0000000 		.4byte	.LVL19
ARM GAS  /tmp/ccCRVKmc.s 			page 52


 2908 1047 6D110000 		.4byte	0x116d
 2909 104b 2D       		.uleb128 0x2d
 2910 104c 01       		.uleb128 0x1
 2911 104d 50       		.byte	0x50
 2912 104e 02       		.uleb128 0x2
 2913 104f 08       		.byte	0x8
 2914 1050 96       		.byte	0x96
 2915 1051 00       		.byte	0
 2916 1052 00       		.byte	0
 2917 1053 0B       		.uleb128 0xb
 2918 1054 04       		.byte	0x4
 2919 1055 EA0B0000 		.4byte	0xbea
 2920 1059 1E       		.uleb128 0x1e
 2921 105a ED030000 		.4byte	.LASF204
 2922 105e 01       		.byte	0x1
 2923 105f 67       		.byte	0x67
 2924 1060 06       		.byte	0x6
 2925 1061 00000000 		.4byte	.LFB9
 2926 1065 18000000 		.4byte	.LFE9-.LFB9
 2927 1069 01       		.uleb128 0x1
 2928 106a 9C       		.byte	0x9c
 2929 106b 91100000 		.4byte	0x1091
 2930 106f 2E       		.uleb128 0x2e
 2931 1070 10000000 		.4byte	.LVL10
 2932 1074 7A110000 		.4byte	0x117a
 2933 1078 2D       		.uleb128 0x2d
 2934 1079 01       		.uleb128 0x1
 2935 107a 50       		.byte	0x50
 2936 107b 05       		.uleb128 0x5
 2937 107c 03       		.byte	0x3
 2938 107d 00000000 		.4byte	SD1
 2939 1081 2D       		.uleb128 0x2d
 2940 1082 01       		.uleb128 0x1
 2941 1083 51       		.byte	0x51
 2942 1084 01       		.uleb128 0x1
 2943 1085 30       		.byte	0x30
 2944 1086 2D       		.uleb128 0x2d
 2945 1087 01       		.uleb128 0x1
 2946 1088 52       		.byte	0x52
 2947 1089 05       		.uleb128 0x5
 2948 108a 03       		.byte	0x3
 2949 108b 00000000 		.4byte	output_notify
 2950 108f 00       		.byte	0
 2951 1090 00       		.byte	0
 2952 1091 1E       		.uleb128 0x1e
 2953 1092 45090000 		.4byte	.LASF205
 2954 1096 01       		.byte	0x1
 2955 1097 45       		.byte	0x45
 2956 1098 06       		.byte	0x6
 2957 1099 00000000 		.4byte	.LFB8
 2958 109d A8000000 		.4byte	.LFE8-.LFB8
 2959 10a1 01       		.uleb128 0x1
 2960 10a2 9C       		.byte	0x9c
 2961 10a3 21110000 		.4byte	0x1121
 2962 10a7 27       		.uleb128 0x27
 2963 10a8 73647000 		.ascii	"sdp\000"
 2964 10ac 01       		.byte	0x1
ARM GAS  /tmp/ccCRVKmc.s 			page 53


 2965 10ad 45       		.byte	0x45
 2966 10ae 2C       		.byte	0x2c
 2967 10af BA0F0000 		.4byte	0xfba
 2968 10b3 83010000 		.4byte	.LLST0
 2969 10b7 7B010000 		.4byte	.LVUS0
 2970 10bb 31       		.uleb128 0x31
 2971 10bc 00000000 		.4byte	.Ldebug_ranges0+0
 2972 10c0 10110000 		.4byte	0x1110
 2973 10c4 32       		.uleb128 0x32
 2974 10c5 59010000 		.4byte	.LASF206
 2975 10c9 01       		.byte	0x1
 2976 10ca 52       		.byte	0x52
 2977 10cb 0B       		.byte	0xb
 2978 10cc FE000000 		.4byte	0xfe
 2979 10d0 BB010000 		.4byte	.LLST1
 2980 10d4 B7010000 		.4byte	.LVUS1
 2981 10d8 33       		.uleb128 0x33
 2982 10d9 350F0000 		.4byte	0xf35
 2983 10dd 4C000000 		.4byte	.LBI16
 2984 10e1 01       		.byte	.LVU29
 2985 10e2 4C000000 		.4byte	.LBB16
 2986 10e6 14000000 		.4byte	.LBE16-.LBB16
 2987 10ea 01       		.byte	0x1
 2988 10eb 58       		.byte	0x58
 2989 10ec 07       		.byte	0x7
 2990 10ed FF100000 		.4byte	0x10ff
 2991 10f1 23       		.uleb128 0x23
 2992 10f2 420F0000 		.4byte	0xf42
 2993 10f6 DB010000 		.4byte	.LLST2
 2994 10fa D9010000 		.4byte	.LVUS2
 2995 10fe 00       		.byte	0
 2996 10ff 30       		.uleb128 0x30
 2997 1100 44000000 		.4byte	.LVL3
 2998 1104 87110000 		.4byte	0x1187
 2999 1108 2D       		.uleb128 0x2d
 3000 1109 01       		.uleb128 0x1
 3001 110a 50       		.byte	0x50
 3002 110b 02       		.uleb128 0x2
 3003 110c 75       		.byte	0x75
 3004 110d 00       		.sleb128 0
 3005 110e 00       		.byte	0
 3006 110f 00       		.byte	0
 3007 1110 30       		.uleb128 0x30
 3008 1111 84000000 		.4byte	.LVL8
 3009 1115 94110000 		.4byte	0x1194
 3010 1119 2D       		.uleb128 0x2d
 3011 111a 01       		.uleb128 0x1
 3012 111b 50       		.byte	0x50
 3013 111c 02       		.uleb128 0x2
 3014 111d 75       		.byte	0x75
 3015 111e 00       		.sleb128 0
 3016 111f 00       		.byte	0
 3017 1120 00       		.byte	0
 3018 1121 34       		.uleb128 0x34
 3019 1122 AE080000 		.4byte	.LASF218
 3020 1126 01       		.byte	0x1
 3021 1127 3B       		.byte	0x3b
ARM GAS  /tmp/ccCRVKmc.s 			page 54


 3022 1128 0D       		.byte	0xd
 3023 1129 00000000 		.4byte	.LFB7
 3024 112d 18000000 		.4byte	.LFE7-.LFB7
 3025 1131 01       		.uleb128 0x1
 3026 1132 9C       		.byte	0x9c
 3027 1133 45110000 		.4byte	0x1145
 3028 1137 1F       		.uleb128 0x1f
 3029 1138 717000   		.ascii	"qp\000"
 3030 113b 01       		.byte	0x1
 3031 113c 3B       		.byte	0x3b
 3032 113d 29       		.byte	0x29
 3033 113e 81070000 		.4byte	0x781
 3034 1142 01       		.uleb128 0x1
 3035 1143 50       		.byte	0x50
 3036 1144 00       		.byte	0
 3037 1145 35       		.uleb128 0x35
 3038 1146 350F0000 		.4byte	0xf35
 3039 114a 00000000 		.4byte	.LFB13
 3040 114e 1C000000 		.4byte	.LFE13-.LFB13
 3041 1152 01       		.uleb128 0x1
 3042 1153 9C       		.byte	0x9c
 3043 1154 60110000 		.4byte	0x1160
 3044 1158 36       		.uleb128 0x36
 3045 1159 420F0000 		.4byte	0xf42
 3046 115d 01       		.uleb128 0x1
 3047 115e 50       		.byte	0x50
 3048 115f 00       		.byte	0
 3049 1160 37       		.uleb128 0x37
 3050 1161 F0050000 		.4byte	.LASF207
 3051 1165 F0050000 		.4byte	.LASF207
 3052 1169 0F       		.byte	0xf
 3053 116a 8C01     		.2byte	0x18c
 3054 116c 08       		.byte	0x8
 3055 116d 37       		.uleb128 0x37
 3056 116e 8C040000 		.4byte	.LASF208
 3057 1172 8C040000 		.4byte	.LASF208
 3058 1176 0F       		.byte	0xf
 3059 1177 8D01     		.2byte	0x18d
 3060 1179 08       		.byte	0x8
 3061 117a 37       		.uleb128 0x37
 3062 117b C9060000 		.4byte	.LASF209
 3063 117f C9060000 		.4byte	.LASF209
 3064 1183 13       		.byte	0x13
 3065 1184 3101     		.2byte	0x131
 3066 1186 08       		.byte	0x8
 3067 1187 37       		.uleb128 0x37
 3068 1188 CB080000 		.4byte	.LASF210
 3069 118c CB080000 		.4byte	.LASF210
 3070 1190 13       		.byte	0x13
 3071 1191 3501     		.2byte	0x135
 3072 1193 09       		.byte	0x9
 3073 1194 37       		.uleb128 0x37
 3074 1195 4B050000 		.4byte	.LASF211
 3075 1199 4B050000 		.4byte	.LASF211
 3076 119d 13       		.byte	0x13
 3077 119e 3401     		.2byte	0x134
 3078 11a0 08       		.byte	0x8
ARM GAS  /tmp/ccCRVKmc.s 			page 55


 3079 11a1 00       		.byte	0
 3080              		.section	.debug_abbrev,"",%progbits
 3081              	.Ldebug_abbrev0:
 3082 0000 01       		.uleb128 0x1
 3083 0001 11       		.uleb128 0x11
 3084 0002 01       		.byte	0x1
 3085 0003 25       		.uleb128 0x25
 3086 0004 0E       		.uleb128 0xe
 3087 0005 13       		.uleb128 0x13
 3088 0006 0B       		.uleb128 0xb
 3089 0007 03       		.uleb128 0x3
 3090 0008 0E       		.uleb128 0xe
 3091 0009 1B       		.uleb128 0x1b
 3092 000a 0E       		.uleb128 0xe
 3093 000b 55       		.uleb128 0x55
 3094 000c 17       		.uleb128 0x17
 3095 000d 11       		.uleb128 0x11
 3096 000e 01       		.uleb128 0x1
 3097 000f 10       		.uleb128 0x10
 3098 0010 17       		.uleb128 0x17
 3099 0011 00       		.byte	0
 3100 0012 00       		.byte	0
 3101 0013 02       		.uleb128 0x2
 3102 0014 24       		.uleb128 0x24
 3103 0015 00       		.byte	0
 3104 0016 0B       		.uleb128 0xb
 3105 0017 0B       		.uleb128 0xb
 3106 0018 3E       		.uleb128 0x3e
 3107 0019 0B       		.uleb128 0xb
 3108 001a 03       		.uleb128 0x3
 3109 001b 08       		.uleb128 0x8
 3110 001c 00       		.byte	0
 3111 001d 00       		.byte	0
 3112 001e 03       		.uleb128 0x3
 3113 001f 16       		.uleb128 0x16
 3114 0020 00       		.byte	0
 3115 0021 03       		.uleb128 0x3
 3116 0022 0E       		.uleb128 0xe
 3117 0023 3A       		.uleb128 0x3a
 3118 0024 0B       		.uleb128 0xb
 3119 0025 3B       		.uleb128 0x3b
 3120 0026 0B       		.uleb128 0xb
 3121 0027 39       		.uleb128 0x39
 3122 0028 0B       		.uleb128 0xb
 3123 0029 49       		.uleb128 0x49
 3124 002a 13       		.uleb128 0x13
 3125 002b 00       		.byte	0
 3126 002c 00       		.byte	0
 3127 002d 04       		.uleb128 0x4
 3128 002e 24       		.uleb128 0x24
 3129 002f 00       		.byte	0
 3130 0030 0B       		.uleb128 0xb
 3131 0031 0B       		.uleb128 0xb
 3132 0032 3E       		.uleb128 0x3e
 3133 0033 0B       		.uleb128 0xb
 3134 0034 03       		.uleb128 0x3
 3135 0035 0E       		.uleb128 0xe
ARM GAS  /tmp/ccCRVKmc.s 			page 56


 3136 0036 00       		.byte	0
 3137 0037 00       		.byte	0
 3138 0038 05       		.uleb128 0x5
 3139 0039 35       		.uleb128 0x35
 3140 003a 00       		.byte	0
 3141 003b 49       		.uleb128 0x49
 3142 003c 13       		.uleb128 0x13
 3143 003d 00       		.byte	0
 3144 003e 00       		.byte	0
 3145 003f 06       		.uleb128 0x6
 3146 0040 26       		.uleb128 0x26
 3147 0041 00       		.byte	0
 3148 0042 49       		.uleb128 0x49
 3149 0043 13       		.uleb128 0x13
 3150 0044 00       		.byte	0
 3151 0045 00       		.byte	0
 3152 0046 07       		.uleb128 0x7
 3153 0047 13       		.uleb128 0x13
 3154 0048 01       		.byte	0x1
 3155 0049 03       		.uleb128 0x3
 3156 004a 0E       		.uleb128 0xe
 3157 004b 0B       		.uleb128 0xb
 3158 004c 0B       		.uleb128 0xb
 3159 004d 3A       		.uleb128 0x3a
 3160 004e 0B       		.uleb128 0xb
 3161 004f 3B       		.uleb128 0x3b
 3162 0050 0B       		.uleb128 0xb
 3163 0051 39       		.uleb128 0x39
 3164 0052 0B       		.uleb128 0xb
 3165 0053 01       		.uleb128 0x1
 3166 0054 13       		.uleb128 0x13
 3167 0055 00       		.byte	0
 3168 0056 00       		.byte	0
 3169 0057 08       		.uleb128 0x8
 3170 0058 0D       		.uleb128 0xd
 3171 0059 00       		.byte	0
 3172 005a 03       		.uleb128 0x3
 3173 005b 0E       		.uleb128 0xe
 3174 005c 3A       		.uleb128 0x3a
 3175 005d 0B       		.uleb128 0xb
 3176 005e 3B       		.uleb128 0x3b
 3177 005f 0B       		.uleb128 0xb
 3178 0060 39       		.uleb128 0x39
 3179 0061 0B       		.uleb128 0xb
 3180 0062 49       		.uleb128 0x49
 3181 0063 13       		.uleb128 0x13
 3182 0064 38       		.uleb128 0x38
 3183 0065 0B       		.uleb128 0xb
 3184 0066 00       		.byte	0
 3185 0067 00       		.byte	0
 3186 0068 09       		.uleb128 0x9
 3187 0069 0D       		.uleb128 0xd
 3188 006a 00       		.byte	0
 3189 006b 03       		.uleb128 0x3
 3190 006c 08       		.uleb128 0x8
 3191 006d 3A       		.uleb128 0x3a
 3192 006e 0B       		.uleb128 0xb
ARM GAS  /tmp/ccCRVKmc.s 			page 57


 3193 006f 3B       		.uleb128 0x3b
 3194 0070 0B       		.uleb128 0xb
 3195 0071 39       		.uleb128 0x39
 3196 0072 0B       		.uleb128 0xb
 3197 0073 49       		.uleb128 0x49
 3198 0074 13       		.uleb128 0x13
 3199 0075 38       		.uleb128 0x38
 3200 0076 0B       		.uleb128 0xb
 3201 0077 00       		.byte	0
 3202 0078 00       		.byte	0
 3203 0079 0A       		.uleb128 0xa
 3204 007a 13       		.uleb128 0x13
 3205 007b 01       		.byte	0x1
 3206 007c 0B       		.uleb128 0xb
 3207 007d 0B       		.uleb128 0xb
 3208 007e 3A       		.uleb128 0x3a
 3209 007f 0B       		.uleb128 0xb
 3210 0080 3B       		.uleb128 0x3b
 3211 0081 0B       		.uleb128 0xb
 3212 0082 39       		.uleb128 0x39
 3213 0083 0B       		.uleb128 0xb
 3214 0084 01       		.uleb128 0x1
 3215 0085 13       		.uleb128 0x13
 3216 0086 00       		.byte	0
 3217 0087 00       		.byte	0
 3218 0088 0B       		.uleb128 0xb
 3219 0089 0F       		.uleb128 0xf
 3220 008a 00       		.byte	0
 3221 008b 0B       		.uleb128 0xb
 3222 008c 0B       		.uleb128 0xb
 3223 008d 49       		.uleb128 0x49
 3224 008e 13       		.uleb128 0x13
 3225 008f 00       		.byte	0
 3226 0090 00       		.byte	0
 3227 0091 0C       		.uleb128 0xc
 3228 0092 0F       		.uleb128 0xf
 3229 0093 00       		.byte	0
 3230 0094 0B       		.uleb128 0xb
 3231 0095 0B       		.uleb128 0xb
 3232 0096 00       		.byte	0
 3233 0097 00       		.byte	0
 3234 0098 0D       		.uleb128 0xd
 3235 0099 15       		.uleb128 0x15
 3236 009a 01       		.byte	0x1
 3237 009b 27       		.uleb128 0x27
 3238 009c 19       		.uleb128 0x19
 3239 009d 01       		.uleb128 0x1
 3240 009e 13       		.uleb128 0x13
 3241 009f 00       		.byte	0
 3242 00a0 00       		.byte	0
 3243 00a1 0E       		.uleb128 0xe
 3244 00a2 05       		.uleb128 0x5
 3245 00a3 00       		.byte	0
 3246 00a4 49       		.uleb128 0x49
 3247 00a5 13       		.uleb128 0x13
 3248 00a6 00       		.byte	0
 3249 00a7 00       		.byte	0
ARM GAS  /tmp/ccCRVKmc.s 			page 58


 3250 00a8 0F       		.uleb128 0xf
 3251 00a9 34       		.uleb128 0x34
 3252 00aa 00       		.byte	0
 3253 00ab 03       		.uleb128 0x3
 3254 00ac 0E       		.uleb128 0xe
 3255 00ad 3A       		.uleb128 0x3a
 3256 00ae 0B       		.uleb128 0xb
 3257 00af 3B       		.uleb128 0x3b
 3258 00b0 0B       		.uleb128 0xb
 3259 00b1 39       		.uleb128 0x39
 3260 00b2 0B       		.uleb128 0xb
 3261 00b3 49       		.uleb128 0x49
 3262 00b4 13       		.uleb128 0x13
 3263 00b5 3F       		.uleb128 0x3f
 3264 00b6 19       		.uleb128 0x19
 3265 00b7 3C       		.uleb128 0x3c
 3266 00b8 19       		.uleb128 0x19
 3267 00b9 00       		.byte	0
 3268 00ba 00       		.byte	0
 3269 00bb 10       		.uleb128 0x10
 3270 00bc 17       		.uleb128 0x17
 3271 00bd 01       		.byte	0x1
 3272 00be 0B       		.uleb128 0xb
 3273 00bf 0B       		.uleb128 0xb
 3274 00c0 3A       		.uleb128 0x3a
 3275 00c1 0B       		.uleb128 0xb
 3276 00c2 3B       		.uleb128 0x3b
 3277 00c3 0B       		.uleb128 0xb
 3278 00c4 39       		.uleb128 0x39
 3279 00c5 0B       		.uleb128 0xb
 3280 00c6 01       		.uleb128 0x1
 3281 00c7 13       		.uleb128 0x13
 3282 00c8 00       		.byte	0
 3283 00c9 00       		.byte	0
 3284 00ca 11       		.uleb128 0x11
 3285 00cb 0D       		.uleb128 0xd
 3286 00cc 00       		.byte	0
 3287 00cd 03       		.uleb128 0x3
 3288 00ce 0E       		.uleb128 0xe
 3289 00cf 3A       		.uleb128 0x3a
 3290 00d0 0B       		.uleb128 0xb
 3291 00d1 3B       		.uleb128 0x3b
 3292 00d2 0B       		.uleb128 0xb
 3293 00d3 39       		.uleb128 0x39
 3294 00d4 0B       		.uleb128 0xb
 3295 00d5 49       		.uleb128 0x49
 3296 00d6 13       		.uleb128 0x13
 3297 00d7 00       		.byte	0
 3298 00d8 00       		.byte	0
 3299 00d9 12       		.uleb128 0x12
 3300 00da 15       		.uleb128 0x15
 3301 00db 01       		.byte	0x1
 3302 00dc 27       		.uleb128 0x27
 3303 00dd 19       		.uleb128 0x19
 3304 00de 49       		.uleb128 0x49
 3305 00df 13       		.uleb128 0x13
 3306 00e0 01       		.uleb128 0x1
ARM GAS  /tmp/ccCRVKmc.s 			page 59


 3307 00e1 13       		.uleb128 0x13
 3308 00e2 00       		.byte	0
 3309 00e3 00       		.byte	0
 3310 00e4 13       		.uleb128 0x13
 3311 00e5 01       		.uleb128 0x1
 3312 00e6 01       		.byte	0x1
 3313 00e7 49       		.uleb128 0x49
 3314 00e8 13       		.uleb128 0x13
 3315 00e9 01       		.uleb128 0x1
 3316 00ea 13       		.uleb128 0x13
 3317 00eb 00       		.byte	0
 3318 00ec 00       		.byte	0
 3319 00ed 14       		.uleb128 0x14
 3320 00ee 21       		.uleb128 0x21
 3321 00ef 00       		.byte	0
 3322 00f0 49       		.uleb128 0x49
 3323 00f1 13       		.uleb128 0x13
 3324 00f2 2F       		.uleb128 0x2f
 3325 00f3 0B       		.uleb128 0xb
 3326 00f4 00       		.byte	0
 3327 00f5 00       		.byte	0
 3328 00f6 15       		.uleb128 0x15
 3329 00f7 0D       		.uleb128 0xd
 3330 00f8 00       		.byte	0
 3331 00f9 03       		.uleb128 0x3
 3332 00fa 0E       		.uleb128 0xe
 3333 00fb 3A       		.uleb128 0x3a
 3334 00fc 0B       		.uleb128 0xb
 3335 00fd 3B       		.uleb128 0x3b
 3336 00fe 05       		.uleb128 0x5
 3337 00ff 39       		.uleb128 0x39
 3338 0100 0B       		.uleb128 0xb
 3339 0101 49       		.uleb128 0x49
 3340 0102 13       		.uleb128 0x13
 3341 0103 38       		.uleb128 0x38
 3342 0104 0B       		.uleb128 0xb
 3343 0105 00       		.byte	0
 3344 0106 00       		.byte	0
 3345 0107 16       		.uleb128 0x16
 3346 0108 16       		.uleb128 0x16
 3347 0109 00       		.byte	0
 3348 010a 03       		.uleb128 0x3
 3349 010b 0E       		.uleb128 0xe
 3350 010c 3A       		.uleb128 0x3a
 3351 010d 0B       		.uleb128 0xb
 3352 010e 3B       		.uleb128 0x3b
 3353 010f 05       		.uleb128 0x5
 3354 0110 39       		.uleb128 0x39
 3355 0111 0B       		.uleb128 0xb
 3356 0112 49       		.uleb128 0x49
 3357 0113 13       		.uleb128 0x13
 3358 0114 00       		.byte	0
 3359 0115 00       		.byte	0
 3360 0116 17       		.uleb128 0x17
 3361 0117 13       		.uleb128 0x13
 3362 0118 00       		.byte	0
 3363 0119 0B       		.uleb128 0xb
ARM GAS  /tmp/ccCRVKmc.s 			page 60


 3364 011a 0B       		.uleb128 0xb
 3365 011b 3A       		.uleb128 0x3a
 3366 011c 0B       		.uleb128 0xb
 3367 011d 3B       		.uleb128 0x3b
 3368 011e 0B       		.uleb128 0xb
 3369 011f 39       		.uleb128 0x39
 3370 0120 0B       		.uleb128 0xb
 3371 0121 00       		.byte	0
 3372 0122 00       		.byte	0
 3373 0123 18       		.uleb128 0x18
 3374 0124 04       		.uleb128 0x4
 3375 0125 01       		.byte	0x1
 3376 0126 3E       		.uleb128 0x3e
 3377 0127 0B       		.uleb128 0xb
 3378 0128 0B       		.uleb128 0xb
 3379 0129 0B       		.uleb128 0xb
 3380 012a 49       		.uleb128 0x49
 3381 012b 13       		.uleb128 0x13
 3382 012c 3A       		.uleb128 0x3a
 3383 012d 0B       		.uleb128 0xb
 3384 012e 3B       		.uleb128 0x3b
 3385 012f 0B       		.uleb128 0xb
 3386 0130 39       		.uleb128 0x39
 3387 0131 0B       		.uleb128 0xb
 3388 0132 01       		.uleb128 0x1
 3389 0133 13       		.uleb128 0x13
 3390 0134 00       		.byte	0
 3391 0135 00       		.byte	0
 3392 0136 19       		.uleb128 0x19
 3393 0137 28       		.uleb128 0x28
 3394 0138 00       		.byte	0
 3395 0139 03       		.uleb128 0x3
 3396 013a 0E       		.uleb128 0xe
 3397 013b 1C       		.uleb128 0x1c
 3398 013c 0B       		.uleb128 0xb
 3399 013d 00       		.byte	0
 3400 013e 00       		.byte	0
 3401 013f 1A       		.uleb128 0x1a
 3402 0140 34       		.uleb128 0x34
 3403 0141 00       		.byte	0
 3404 0142 03       		.uleb128 0x3
 3405 0143 08       		.uleb128 0x8
 3406 0144 3A       		.uleb128 0x3a
 3407 0145 0B       		.uleb128 0xb
 3408 0146 3B       		.uleb128 0x3b
 3409 0147 0B       		.uleb128 0xb
 3410 0148 39       		.uleb128 0x39
 3411 0149 0B       		.uleb128 0xb
 3412 014a 49       		.uleb128 0x49
 3413 014b 13       		.uleb128 0x13
 3414 014c 3F       		.uleb128 0x3f
 3415 014d 19       		.uleb128 0x19
 3416 014e 3C       		.uleb128 0x3c
 3417 014f 19       		.uleb128 0x19
 3418 0150 00       		.byte	0
 3419 0151 00       		.byte	0
 3420 0152 1B       		.uleb128 0x1b
ARM GAS  /tmp/ccCRVKmc.s 			page 61


 3421 0153 26       		.uleb128 0x26
 3422 0154 00       		.byte	0
 3423 0155 00       		.byte	0
 3424 0156 00       		.byte	0
 3425 0157 1C       		.uleb128 0x1c
 3426 0158 34       		.uleb128 0x34
 3427 0159 00       		.byte	0
 3428 015a 47       		.uleb128 0x47
 3429 015b 13       		.uleb128 0x13
 3430 015c 3A       		.uleb128 0x3a
 3431 015d 0B       		.uleb128 0xb
 3432 015e 3B       		.uleb128 0x3b
 3433 015f 0B       		.uleb128 0xb
 3434 0160 39       		.uleb128 0x39
 3435 0161 0B       		.uleb128 0xb
 3436 0162 02       		.uleb128 0x2
 3437 0163 18       		.uleb128 0x18
 3438 0164 00       		.byte	0
 3439 0165 00       		.byte	0
 3440 0166 1D       		.uleb128 0x1d
 3441 0167 34       		.uleb128 0x34
 3442 0168 00       		.byte	0
 3443 0169 03       		.uleb128 0x3
 3444 016a 0E       		.uleb128 0xe
 3445 016b 3A       		.uleb128 0x3a
 3446 016c 0B       		.uleb128 0xb
 3447 016d 3B       		.uleb128 0x3b
 3448 016e 0B       		.uleb128 0xb
 3449 016f 39       		.uleb128 0x39
 3450 0170 0B       		.uleb128 0xb
 3451 0171 49       		.uleb128 0x49
 3452 0172 13       		.uleb128 0x13
 3453 0173 02       		.uleb128 0x2
 3454 0174 18       		.uleb128 0x18
 3455 0175 00       		.byte	0
 3456 0176 00       		.byte	0
 3457 0177 1E       		.uleb128 0x1e
 3458 0178 2E       		.uleb128 0x2e
 3459 0179 01       		.byte	0x1
 3460 017a 3F       		.uleb128 0x3f
 3461 017b 19       		.uleb128 0x19
 3462 017c 03       		.uleb128 0x3
 3463 017d 0E       		.uleb128 0xe
 3464 017e 3A       		.uleb128 0x3a
 3465 017f 0B       		.uleb128 0xb
 3466 0180 3B       		.uleb128 0x3b
 3467 0181 0B       		.uleb128 0xb
 3468 0182 39       		.uleb128 0x39
 3469 0183 0B       		.uleb128 0xb
 3470 0184 27       		.uleb128 0x27
 3471 0185 19       		.uleb128 0x19
 3472 0186 11       		.uleb128 0x11
 3473 0187 01       		.uleb128 0x1
 3474 0188 12       		.uleb128 0x12
 3475 0189 06       		.uleb128 0x6
 3476 018a 40       		.uleb128 0x40
 3477 018b 18       		.uleb128 0x18
ARM GAS  /tmp/ccCRVKmc.s 			page 62


 3478 018c 9742     		.uleb128 0x2117
 3479 018e 19       		.uleb128 0x19
 3480 018f 01       		.uleb128 0x1
 3481 0190 13       		.uleb128 0x13
 3482 0191 00       		.byte	0
 3483 0192 00       		.byte	0
 3484 0193 1F       		.uleb128 0x1f
 3485 0194 05       		.uleb128 0x5
 3486 0195 00       		.byte	0
 3487 0196 03       		.uleb128 0x3
 3488 0197 08       		.uleb128 0x8
 3489 0198 3A       		.uleb128 0x3a
 3490 0199 0B       		.uleb128 0xb
 3491 019a 3B       		.uleb128 0x3b
 3492 019b 0B       		.uleb128 0xb
 3493 019c 39       		.uleb128 0x39
 3494 019d 0B       		.uleb128 0xb
 3495 019e 49       		.uleb128 0x49
 3496 019f 13       		.uleb128 0x13
 3497 01a0 02       		.uleb128 0x2
 3498 01a1 18       		.uleb128 0x18
 3499 01a2 00       		.byte	0
 3500 01a3 00       		.byte	0
 3501 01a4 20       		.uleb128 0x20
 3502 01a5 05       		.uleb128 0x5
 3503 01a6 00       		.byte	0
 3504 01a7 03       		.uleb128 0x3
 3505 01a8 0E       		.uleb128 0xe
 3506 01a9 3A       		.uleb128 0x3a
 3507 01aa 0B       		.uleb128 0xb
 3508 01ab 3B       		.uleb128 0x3b
 3509 01ac 0B       		.uleb128 0xb
 3510 01ad 39       		.uleb128 0x39
 3511 01ae 0B       		.uleb128 0xb
 3512 01af 49       		.uleb128 0x49
 3513 01b0 13       		.uleb128 0x13
 3514 01b1 02       		.uleb128 0x2
 3515 01b2 17       		.uleb128 0x17
 3516 01b3 B742     		.uleb128 0x2137
 3517 01b5 17       		.uleb128 0x17
 3518 01b6 00       		.byte	0
 3519 01b7 00       		.byte	0
 3520 01b8 21       		.uleb128 0x21
 3521 01b9 34       		.uleb128 0x34
 3522 01ba 00       		.byte	0
 3523 01bb 03       		.uleb128 0x3
 3524 01bc 08       		.uleb128 0x8
 3525 01bd 3A       		.uleb128 0x3a
 3526 01be 0B       		.uleb128 0xb
 3527 01bf 3B       		.uleb128 0x3b
 3528 01c0 0B       		.uleb128 0xb
 3529 01c1 39       		.uleb128 0x39
 3530 01c2 0B       		.uleb128 0xb
 3531 01c3 49       		.uleb128 0x49
 3532 01c4 13       		.uleb128 0x13
 3533 01c5 02       		.uleb128 0x2
 3534 01c6 17       		.uleb128 0x17
ARM GAS  /tmp/ccCRVKmc.s 			page 63


 3535 01c7 B742     		.uleb128 0x2137
 3536 01c9 17       		.uleb128 0x17
 3537 01ca 00       		.byte	0
 3538 01cb 00       		.byte	0
 3539 01cc 22       		.uleb128 0x22
 3540 01cd 1D       		.uleb128 0x1d
 3541 01ce 01       		.byte	0x1
 3542 01cf 31       		.uleb128 0x31
 3543 01d0 13       		.uleb128 0x13
 3544 01d1 52       		.uleb128 0x52
 3545 01d2 01       		.uleb128 0x1
 3546 01d3 B842     		.uleb128 0x2138
 3547 01d5 0B       		.uleb128 0xb
 3548 01d6 55       		.uleb128 0x55
 3549 01d7 17       		.uleb128 0x17
 3550 01d8 58       		.uleb128 0x58
 3551 01d9 0B       		.uleb128 0xb
 3552 01da 59       		.uleb128 0x59
 3553 01db 0B       		.uleb128 0xb
 3554 01dc 57       		.uleb128 0x57
 3555 01dd 0B       		.uleb128 0xb
 3556 01de 01       		.uleb128 0x1
 3557 01df 13       		.uleb128 0x13
 3558 01e0 00       		.byte	0
 3559 01e1 00       		.byte	0
 3560 01e2 23       		.uleb128 0x23
 3561 01e3 05       		.uleb128 0x5
 3562 01e4 00       		.byte	0
 3563 01e5 31       		.uleb128 0x31
 3564 01e6 13       		.uleb128 0x13
 3565 01e7 02       		.uleb128 0x2
 3566 01e8 17       		.uleb128 0x17
 3567 01e9 B742     		.uleb128 0x2137
 3568 01eb 17       		.uleb128 0x17
 3569 01ec 00       		.byte	0
 3570 01ed 00       		.byte	0
 3571 01ee 24       		.uleb128 0x24
 3572 01ef 1D       		.uleb128 0x1d
 3573 01f0 01       		.byte	0x1
 3574 01f1 31       		.uleb128 0x31
 3575 01f2 13       		.uleb128 0x13
 3576 01f3 55       		.uleb128 0x55
 3577 01f4 17       		.uleb128 0x17
 3578 01f5 58       		.uleb128 0x58
 3579 01f6 0B       		.uleb128 0xb
 3580 01f7 59       		.uleb128 0x59
 3581 01f8 0B       		.uleb128 0xb
 3582 01f9 57       		.uleb128 0x57
 3583 01fa 0B       		.uleb128 0xb
 3584 01fb 01       		.uleb128 0x1
 3585 01fc 13       		.uleb128 0x13
 3586 01fd 00       		.byte	0
 3587 01fe 00       		.byte	0
 3588 01ff 25       		.uleb128 0x25
 3589 0200 05       		.uleb128 0x5
 3590 0201 00       		.byte	0
 3591 0202 31       		.uleb128 0x31
ARM GAS  /tmp/ccCRVKmc.s 			page 64


 3592 0203 13       		.uleb128 0x13
 3593 0204 00       		.byte	0
 3594 0205 00       		.byte	0
 3595 0206 26       		.uleb128 0x26
 3596 0207 1D       		.uleb128 0x1d
 3597 0208 01       		.byte	0x1
 3598 0209 31       		.uleb128 0x31
 3599 020a 13       		.uleb128 0x13
 3600 020b 55       		.uleb128 0x55
 3601 020c 17       		.uleb128 0x17
 3602 020d 58       		.uleb128 0x58
 3603 020e 0B       		.uleb128 0xb
 3604 020f 59       		.uleb128 0x59
 3605 0210 0B       		.uleb128 0xb
 3606 0211 57       		.uleb128 0x57
 3607 0212 0B       		.uleb128 0xb
 3608 0213 00       		.byte	0
 3609 0214 00       		.byte	0
 3610 0215 27       		.uleb128 0x27
 3611 0216 05       		.uleb128 0x5
 3612 0217 00       		.byte	0
 3613 0218 03       		.uleb128 0x3
 3614 0219 08       		.uleb128 0x8
 3615 021a 3A       		.uleb128 0x3a
 3616 021b 0B       		.uleb128 0xb
 3617 021c 3B       		.uleb128 0x3b
 3618 021d 0B       		.uleb128 0xb
 3619 021e 39       		.uleb128 0x39
 3620 021f 0B       		.uleb128 0xb
 3621 0220 49       		.uleb128 0x49
 3622 0221 13       		.uleb128 0x13
 3623 0222 02       		.uleb128 0x2
 3624 0223 17       		.uleb128 0x17
 3625 0224 B742     		.uleb128 0x2137
 3626 0226 17       		.uleb128 0x17
 3627 0227 00       		.byte	0
 3628 0228 00       		.byte	0
 3629 0229 28       		.uleb128 0x28
 3630 022a 1D       		.uleb128 0x1d
 3631 022b 01       		.byte	0x1
 3632 022c 31       		.uleb128 0x31
 3633 022d 13       		.uleb128 0x13
 3634 022e 11       		.uleb128 0x11
 3635 022f 01       		.uleb128 0x1
 3636 0230 12       		.uleb128 0x12
 3637 0231 06       		.uleb128 0x6
 3638 0232 58       		.uleb128 0x58
 3639 0233 0B       		.uleb128 0xb
 3640 0234 59       		.uleb128 0x59
 3641 0235 0B       		.uleb128 0xb
 3642 0236 57       		.uleb128 0x57
 3643 0237 0B       		.uleb128 0xb
 3644 0238 00       		.byte	0
 3645 0239 00       		.byte	0
 3646 023a 29       		.uleb128 0x29
 3647 023b 2E       		.uleb128 0x2e
 3648 023c 01       		.byte	0x1
ARM GAS  /tmp/ccCRVKmc.s 			page 65


 3649 023d 3F       		.uleb128 0x3f
 3650 023e 19       		.uleb128 0x19
 3651 023f 03       		.uleb128 0x3
 3652 0240 0E       		.uleb128 0xe
 3653 0241 3A       		.uleb128 0x3a
 3654 0242 0B       		.uleb128 0xb
 3655 0243 3B       		.uleb128 0x3b
 3656 0244 0B       		.uleb128 0xb
 3657 0245 39       		.uleb128 0x39
 3658 0246 0B       		.uleb128 0xb
 3659 0247 27       		.uleb128 0x27
 3660 0248 19       		.uleb128 0x19
 3661 0249 20       		.uleb128 0x20
 3662 024a 0B       		.uleb128 0xb
 3663 024b 01       		.uleb128 0x1
 3664 024c 13       		.uleb128 0x13
 3665 024d 00       		.byte	0
 3666 024e 00       		.byte	0
 3667 024f 2A       		.uleb128 0x2a
 3668 0250 05       		.uleb128 0x5
 3669 0251 00       		.byte	0
 3670 0252 03       		.uleb128 0x3
 3671 0253 08       		.uleb128 0x8
 3672 0254 3A       		.uleb128 0x3a
 3673 0255 0B       		.uleb128 0xb
 3674 0256 3B       		.uleb128 0x3b
 3675 0257 0B       		.uleb128 0xb
 3676 0258 39       		.uleb128 0x39
 3677 0259 0B       		.uleb128 0xb
 3678 025a 49       		.uleb128 0x49
 3679 025b 13       		.uleb128 0x13
 3680 025c 00       		.byte	0
 3681 025d 00       		.byte	0
 3682 025e 2B       		.uleb128 0x2b
 3683 025f 2E       		.uleb128 0x2e
 3684 0260 00       		.byte	0
 3685 0261 3F       		.uleb128 0x3f
 3686 0262 19       		.uleb128 0x19
 3687 0263 03       		.uleb128 0x3
 3688 0264 0E       		.uleb128 0xe
 3689 0265 3A       		.uleb128 0x3a
 3690 0266 0B       		.uleb128 0xb
 3691 0267 3B       		.uleb128 0x3b
 3692 0268 0B       		.uleb128 0xb
 3693 0269 39       		.uleb128 0x39
 3694 026a 0B       		.uleb128 0xb
 3695 026b 27       		.uleb128 0x27
 3696 026c 19       		.uleb128 0x19
 3697 026d 49       		.uleb128 0x49
 3698 026e 13       		.uleb128 0x13
 3699 026f 11       		.uleb128 0x11
 3700 0270 01       		.uleb128 0x1
 3701 0271 12       		.uleb128 0x12
 3702 0272 06       		.uleb128 0x6
 3703 0273 40       		.uleb128 0x40
 3704 0274 18       		.uleb128 0x18
 3705 0275 9742     		.uleb128 0x2117
ARM GAS  /tmp/ccCRVKmc.s 			page 66


 3706 0277 19       		.uleb128 0x19
 3707 0278 00       		.byte	0
 3708 0279 00       		.byte	0
 3709 027a 2C       		.uleb128 0x2c
 3710 027b 898201   		.uleb128 0x4109
 3711 027e 01       		.byte	0x1
 3712 027f 11       		.uleb128 0x11
 3713 0280 01       		.uleb128 0x1
 3714 0281 31       		.uleb128 0x31
 3715 0282 13       		.uleb128 0x13
 3716 0283 01       		.uleb128 0x1
 3717 0284 13       		.uleb128 0x13
 3718 0285 00       		.byte	0
 3719 0286 00       		.byte	0
 3720 0287 2D       		.uleb128 0x2d
 3721 0288 8A8201   		.uleb128 0x410a
 3722 028b 00       		.byte	0
 3723 028c 02       		.uleb128 0x2
 3724 028d 18       		.uleb128 0x18
 3725 028e 9142     		.uleb128 0x2111
 3726 0290 18       		.uleb128 0x18
 3727 0291 00       		.byte	0
 3728 0292 00       		.byte	0
 3729 0293 2E       		.uleb128 0x2e
 3730 0294 898201   		.uleb128 0x4109
 3731 0297 01       		.byte	0x1
 3732 0298 11       		.uleb128 0x11
 3733 0299 01       		.uleb128 0x1
 3734 029a 9542     		.uleb128 0x2115
 3735 029c 19       		.uleb128 0x19
 3736 029d 31       		.uleb128 0x31
 3737 029e 13       		.uleb128 0x13
 3738 029f 00       		.byte	0
 3739 02a0 00       		.byte	0
 3740 02a1 2F       		.uleb128 0x2f
 3741 02a2 2E       		.uleb128 0x2e
 3742 02a3 01       		.byte	0x1
 3743 02a4 3F       		.uleb128 0x3f
 3744 02a5 19       		.uleb128 0x19
 3745 02a6 03       		.uleb128 0x3
 3746 02a7 0E       		.uleb128 0xe
 3747 02a8 3A       		.uleb128 0x3a
 3748 02a9 0B       		.uleb128 0xb
 3749 02aa 3B       		.uleb128 0x3b
 3750 02ab 0B       		.uleb128 0xb
 3751 02ac 39       		.uleb128 0x39
 3752 02ad 0B       		.uleb128 0xb
 3753 02ae 27       		.uleb128 0x27
 3754 02af 19       		.uleb128 0x19
 3755 02b0 11       		.uleb128 0x11
 3756 02b1 01       		.uleb128 0x1
 3757 02b2 12       		.uleb128 0x12
 3758 02b3 06       		.uleb128 0x6
 3759 02b4 40       		.uleb128 0x40
 3760 02b5 18       		.uleb128 0x18
 3761 02b6 9642     		.uleb128 0x2116
 3762 02b8 19       		.uleb128 0x19
ARM GAS  /tmp/ccCRVKmc.s 			page 67


 3763 02b9 01       		.uleb128 0x1
 3764 02ba 13       		.uleb128 0x13
 3765 02bb 00       		.byte	0
 3766 02bc 00       		.byte	0
 3767 02bd 30       		.uleb128 0x30
 3768 02be 898201   		.uleb128 0x4109
 3769 02c1 01       		.byte	0x1
 3770 02c2 11       		.uleb128 0x11
 3771 02c3 01       		.uleb128 0x1
 3772 02c4 31       		.uleb128 0x31
 3773 02c5 13       		.uleb128 0x13
 3774 02c6 00       		.byte	0
 3775 02c7 00       		.byte	0
 3776 02c8 31       		.uleb128 0x31
 3777 02c9 0B       		.uleb128 0xb
 3778 02ca 01       		.byte	0x1
 3779 02cb 55       		.uleb128 0x55
 3780 02cc 17       		.uleb128 0x17
 3781 02cd 01       		.uleb128 0x1
 3782 02ce 13       		.uleb128 0x13
 3783 02cf 00       		.byte	0
 3784 02d0 00       		.byte	0
 3785 02d1 32       		.uleb128 0x32
 3786 02d2 34       		.uleb128 0x34
 3787 02d3 00       		.byte	0
 3788 02d4 03       		.uleb128 0x3
 3789 02d5 0E       		.uleb128 0xe
 3790 02d6 3A       		.uleb128 0x3a
 3791 02d7 0B       		.uleb128 0xb
 3792 02d8 3B       		.uleb128 0x3b
 3793 02d9 0B       		.uleb128 0xb
 3794 02da 39       		.uleb128 0x39
 3795 02db 0B       		.uleb128 0xb
 3796 02dc 49       		.uleb128 0x49
 3797 02dd 13       		.uleb128 0x13
 3798 02de 02       		.uleb128 0x2
 3799 02df 17       		.uleb128 0x17
 3800 02e0 B742     		.uleb128 0x2137
 3801 02e2 17       		.uleb128 0x17
 3802 02e3 00       		.byte	0
 3803 02e4 00       		.byte	0
 3804 02e5 33       		.uleb128 0x33
 3805 02e6 1D       		.uleb128 0x1d
 3806 02e7 01       		.byte	0x1
 3807 02e8 31       		.uleb128 0x31
 3808 02e9 13       		.uleb128 0x13
 3809 02ea 52       		.uleb128 0x52
 3810 02eb 01       		.uleb128 0x1
 3811 02ec B842     		.uleb128 0x2138
 3812 02ee 0B       		.uleb128 0xb
 3813 02ef 11       		.uleb128 0x11
 3814 02f0 01       		.uleb128 0x1
 3815 02f1 12       		.uleb128 0x12
 3816 02f2 06       		.uleb128 0x6
 3817 02f3 58       		.uleb128 0x58
 3818 02f4 0B       		.uleb128 0xb
 3819 02f5 59       		.uleb128 0x59
ARM GAS  /tmp/ccCRVKmc.s 			page 68


 3820 02f6 0B       		.uleb128 0xb
 3821 02f7 57       		.uleb128 0x57
 3822 02f8 0B       		.uleb128 0xb
 3823 02f9 01       		.uleb128 0x1
 3824 02fa 13       		.uleb128 0x13
 3825 02fb 00       		.byte	0
 3826 02fc 00       		.byte	0
 3827 02fd 34       		.uleb128 0x34
 3828 02fe 2E       		.uleb128 0x2e
 3829 02ff 01       		.byte	0x1
 3830 0300 03       		.uleb128 0x3
 3831 0301 0E       		.uleb128 0xe
 3832 0302 3A       		.uleb128 0x3a
 3833 0303 0B       		.uleb128 0xb
 3834 0304 3B       		.uleb128 0x3b
 3835 0305 0B       		.uleb128 0xb
 3836 0306 39       		.uleb128 0x39
 3837 0307 0B       		.uleb128 0xb
 3838 0308 27       		.uleb128 0x27
 3839 0309 19       		.uleb128 0x19
 3840 030a 11       		.uleb128 0x11
 3841 030b 01       		.uleb128 0x1
 3842 030c 12       		.uleb128 0x12
 3843 030d 06       		.uleb128 0x6
 3844 030e 40       		.uleb128 0x40
 3845 030f 18       		.uleb128 0x18
 3846 0310 9742     		.uleb128 0x2117
 3847 0312 19       		.uleb128 0x19
 3848 0313 01       		.uleb128 0x1
 3849 0314 13       		.uleb128 0x13
 3850 0315 00       		.byte	0
 3851 0316 00       		.byte	0
 3852 0317 35       		.uleb128 0x35
 3853 0318 2E       		.uleb128 0x2e
 3854 0319 01       		.byte	0x1
 3855 031a 31       		.uleb128 0x31
 3856 031b 13       		.uleb128 0x13
 3857 031c 11       		.uleb128 0x11
 3858 031d 01       		.uleb128 0x1
 3859 031e 12       		.uleb128 0x12
 3860 031f 06       		.uleb128 0x6
 3861 0320 40       		.uleb128 0x40
 3862 0321 18       		.uleb128 0x18
 3863 0322 9742     		.uleb128 0x2117
 3864 0324 19       		.uleb128 0x19
 3865 0325 01       		.uleb128 0x1
 3866 0326 13       		.uleb128 0x13
 3867 0327 00       		.byte	0
 3868 0328 00       		.byte	0
 3869 0329 36       		.uleb128 0x36
 3870 032a 05       		.uleb128 0x5
 3871 032b 00       		.byte	0
 3872 032c 31       		.uleb128 0x31
 3873 032d 13       		.uleb128 0x13
 3874 032e 02       		.uleb128 0x2
 3875 032f 18       		.uleb128 0x18
 3876 0330 00       		.byte	0
ARM GAS  /tmp/ccCRVKmc.s 			page 69


 3877 0331 00       		.byte	0
 3878 0332 37       		.uleb128 0x37
 3879 0333 2E       		.uleb128 0x2e
 3880 0334 00       		.byte	0
 3881 0335 3F       		.uleb128 0x3f
 3882 0336 19       		.uleb128 0x19
 3883 0337 3C       		.uleb128 0x3c
 3884 0338 19       		.uleb128 0x19
 3885 0339 6E       		.uleb128 0x6e
 3886 033a 0E       		.uleb128 0xe
 3887 033b 03       		.uleb128 0x3
 3888 033c 0E       		.uleb128 0xe
 3889 033d 3A       		.uleb128 0x3a
 3890 033e 0B       		.uleb128 0xb
 3891 033f 3B       		.uleb128 0x3b
 3892 0340 05       		.uleb128 0x5
 3893 0341 39       		.uleb128 0x39
 3894 0342 0B       		.uleb128 0xb
 3895 0343 00       		.byte	0
 3896 0344 00       		.byte	0
 3897 0345 00       		.byte	0
 3898              		.section	.debug_loc,"",%progbits
 3899              	.Ldebug_loc0:
 3900              	.LVUS8:
 3901 0000 00       		.uleb128 0
 3902 0001 00       		.uleb128 .LVU209
 3903 0002 00       		.uleb128 .LVU209
 3904 0003 00       		.uleb128 0
 3905              	.LLST8:
 3906 0004 00000000 		.4byte	.LVL30
 3907 0008 60000000 		.4byte	.LVL37
 3908 000c 0100     		.2byte	0x1
 3909 000e 51       		.byte	0x51
 3910 000f 60000000 		.4byte	.LVL37
 3911 0013 94000000 		.4byte	.LFE15
 3912 0017 0400     		.2byte	0x4
 3913 0019 F3       		.byte	0xf3
 3914 001a 01       		.uleb128 0x1
 3915 001b 51       		.byte	0x51
 3916 001c 9F       		.byte	0x9f
 3917 001d 00000000 		.4byte	0
 3918 0021 00000000 		.4byte	0
 3919              	.LVUS9:
 3920 0025 04       		.uleb128 .LVU168
 3921 0026 00       		.uleb128 .LVU171
 3922 0027 00       		.uleb128 .LVU171
 3923 0028 00       		.uleb128 0
 3924              	.LLST9:
 3925 0029 00000000 		.4byte	.LVL30
 3926 002d 0C000000 		.4byte	.LVL31
 3927 0031 0300     		.2byte	0x3
 3928 0033 08       		.byte	0x8
 3929 0034 20       		.byte	0x20
 3930 0035 9F       		.byte	0x9f
 3931 0036 0C000000 		.4byte	.LVL31
 3932 003a 94000000 		.4byte	.LFE15
 3933 003e 0100     		.2byte	0x1
ARM GAS  /tmp/ccCRVKmc.s 			page 70


 3934 0040 5E       		.byte	0x5e
 3935 0041 00000000 		.4byte	0
 3936 0045 00000000 		.4byte	0
 3937              	.LVUS10:
 3938 0049 00       		.uleb128 .LVU178
 3939 004a 00       		.uleb128 .LVU182
 3940 004b 00       		.uleb128 .LVU182
 3941 004c 00       		.uleb128 0
 3942              	.LLST10:
 3943 004d 18000000 		.4byte	.LVL33
 3944 0051 20000000 		.4byte	.LVL34
 3945 0055 0100     		.2byte	0x1
 3946 0057 53       		.byte	0x53
 3947 0058 20000000 		.4byte	.LVL34
 3948 005c 94000000 		.4byte	.LFE15
 3949 0060 0100     		.2byte	0x1
 3950 0062 5C       		.byte	0x5c
 3951 0063 00000000 		.4byte	0
 3952 0067 00000000 		.4byte	0
 3953              	.LVUS11:
 3954 006b 01       		.uleb128 .LVU185
 3955 006c 00       		.uleb128 .LVU194
 3956              	.LLST11:
 3957 006d 24000000 		.4byte	.LVL35
 3958 0071 38000000 		.4byte	.LVL36
 3959 0075 0100     		.2byte	0x1
 3960 0077 5C       		.byte	0x5c
 3961 0078 00000000 		.4byte	0
 3962 007c 00000000 		.4byte	0
 3963              	.LVUS6:
 3964 0080 00       		.uleb128 0
 3965 0081 04       		.uleb128 .LVU151
 3966 0082 04       		.uleb128 .LVU151
 3967 0083 00       		.uleb128 .LVU152
 3968 0084 00       		.uleb128 .LVU152
 3969 0085 02       		.uleb128 .LVU162
 3970 0086 02       		.uleb128 .LVU162
 3971 0087 00       		.uleb128 .LVU163
 3972 0088 00       		.uleb128 .LVU163
 3973 0089 00       		.uleb128 0
 3974              	.LLST6:
 3975 008a 00000000 		.4byte	.LVL25
 3976 008e 00000000 		.4byte	.LVL25
 3977 0092 0100     		.2byte	0x1
 3978 0094 50       		.byte	0x50
 3979 0095 00000000 		.4byte	.LVL25
 3980 0099 04000000 		.4byte	.LVL26
 3981 009d 0300     		.2byte	0x3
 3982 009f 70       		.byte	0x70
 3983 00a0 01       		.sleb128 1
 3984 00a1 9F       		.byte	0x9f
 3985 00a2 04000000 		.4byte	.LVL26
 3986 00a6 20000000 		.4byte	.LVL28
 3987 00aa 0100     		.2byte	0x1
 3988 00ac 50       		.byte	0x50
 3989 00ad 20000000 		.4byte	.LVL28
 3990 00b1 24000000 		.4byte	.LVL29
ARM GAS  /tmp/ccCRVKmc.s 			page 71


 3991 00b5 0300     		.2byte	0x3
 3992 00b7 70       		.byte	0x70
 3993 00b8 01       		.sleb128 1
 3994 00b9 9F       		.byte	0x9f
 3995 00ba 24000000 		.4byte	.LVL29
 3996 00be 34000000 		.4byte	.LFE14
 3997 00c2 0100     		.2byte	0x1
 3998 00c4 50       		.byte	0x50
 3999 00c5 00000000 		.4byte	0
 4000 00c9 00000000 		.4byte	0
 4001              	.LVUS7:
 4002 00cd 00       		.uleb128 .LVU152
 4003 00ce 00       		.uleb128 .LVU154
 4004 00cf 00       		.uleb128 .LVU163
 4005 00d0 00       		.uleb128 0
 4006              	.LLST7:
 4007 00d1 04000000 		.4byte	.LVL26
 4008 00d5 10000000 		.4byte	.LVL27
 4009 00d9 0100     		.2byte	0x1
 4010 00db 51       		.byte	0x51
 4011 00dc 24000000 		.4byte	.LVL29
 4012 00e0 34000000 		.4byte	.LFE14
 4013 00e4 0100     		.2byte	0x1
 4014 00e6 51       		.byte	0x51
 4015 00e7 00000000 		.4byte	0
 4016 00eb 00000000 		.4byte	0
 4017              	.LVUS5:
 4018 00ef 00       		.uleb128 0
 4019 00f0 00       		.uleb128 .LVU122
 4020 00f1 00       		.uleb128 .LVU122
 4021 00f2 00       		.uleb128 0
 4022              	.LLST5:
 4023 00f3 00000000 		.4byte	.LVL20
 4024 00f7 18000000 		.4byte	.LVL21
 4025 00fb 0100     		.2byte	0x1
 4026 00fd 50       		.byte	0x50
 4027 00fe 18000000 		.4byte	.LVL21
 4028 0102 34000000 		.4byte	.LFE11
 4029 0106 0400     		.2byte	0x4
 4030 0108 F3       		.byte	0xf3
 4031 0109 01       		.uleb128 0x1
 4032 010a 50       		.byte	0x50
 4033 010b 9F       		.byte	0x9f
 4034 010c 00000000 		.4byte	0
 4035 0110 00000000 		.4byte	0
 4036              	.LVUS3:
 4037 0114 00       		.uleb128 0
 4038 0115 00       		.uleb128 .LVU71
 4039 0116 00       		.uleb128 .LVU71
 4040 0117 00       		.uleb128 0
 4041              	.LLST3:
 4042 0118 00000000 		.4byte	.LVL11
 4043 011c 28000000 		.4byte	.LVL13
 4044 0120 0100     		.2byte	0x1
 4045 0122 50       		.byte	0x50
 4046 0123 28000000 		.4byte	.LVL13
 4047 0127 C4000000 		.4byte	.LFE10
ARM GAS  /tmp/ccCRVKmc.s 			page 72


 4048 012b 0400     		.2byte	0x4
 4049 012d F3       		.byte	0xf3
 4050 012e 01       		.uleb128 0x1
 4051 012f 50       		.byte	0x50
 4052 0130 9F       		.byte	0x9f
 4053 0131 00000000 		.4byte	0
 4054 0135 00000000 		.4byte	0
 4055              	.LVUS4:
 4056 0139 00       		.uleb128 0
 4057 013a 00       		.uleb128 .LVU65
 4058 013b 00       		.uleb128 .LVU65
 4059 013c 00       		.uleb128 .LVU91
 4060 013d 00       		.uleb128 .LVU92
 4061 013e 00       		.uleb128 0
 4062              	.LLST4:
 4063 013f 00000000 		.4byte	.LVL11
 4064 0143 14000000 		.4byte	.LVL12
 4065 0147 0100     		.2byte	0x1
 4066 0149 51       		.byte	0x51
 4067 014a 14000000 		.4byte	.LVL12
 4068 014e 58000000 		.4byte	.LVL14
 4069 0152 0100     		.2byte	0x1
 4070 0154 51       		.byte	0x51
 4071 0155 63000000 		.4byte	.LVL15-1
 4072 0159 C4000000 		.4byte	.LFE10
 4073 015d 1400     		.2byte	0x14
 4074 015f 03       		.byte	0x3
 4075 0160 00000000 		.4byte	.LANCHOR0
 4076 0164 F3       		.byte	0xf3
 4077 0165 01       		.uleb128 0x1
 4078 0166 51       		.byte	0x51
 4079 0167 F3       		.byte	0xf3
 4080 0168 01       		.uleb128 0x1
 4081 0169 51       		.byte	0x51
 4082 016a 75       		.byte	0x75
 4083 016b 00       		.sleb128 0
 4084 016c 29       		.byte	0x29
 4085 016d 28       		.byte	0x28
 4086 016e 0100     		.2byte	0x1
 4087 0170 16       		.byte	0x16
 4088 0171 13       		.byte	0x13
 4089 0172 9F       		.byte	0x9f
 4090 0173 00000000 		.4byte	0
 4091 0177 00000000 		.4byte	0
 4092              	.LVUS0:
 4093 017b 00       		.uleb128 0
 4094 017c 00       		.uleb128 .LVU13
 4095 017d 00       		.uleb128 .LVU13
 4096 017e 00       		.uleb128 .LVU43
 4097 017f 00       		.uleb128 .LVU43
 4098 0180 00       		.uleb128 .LVU48
 4099 0181 00       		.uleb128 .LVU48
 4100 0182 00       		.uleb128 0
 4101              	.LLST0:
 4102 0183 00000000 		.4byte	.LVL1
 4103 0187 1C000000 		.4byte	.LVL2
 4104 018b 0100     		.2byte	0x1
ARM GAS  /tmp/ccCRVKmc.s 			page 73


 4105 018d 50       		.byte	0x50
 4106 018e 1C000000 		.4byte	.LVL2
 4107 0192 64000000 		.4byte	.LVL6
 4108 0196 0100     		.2byte	0x1
 4109 0198 55       		.byte	0x55
 4110 0199 64000000 		.4byte	.LVL6
 4111 019d 74000000 		.4byte	.LVL7
 4112 01a1 0100     		.2byte	0x1
 4113 01a3 50       		.byte	0x50
 4114 01a4 74000000 		.4byte	.LVL7
 4115 01a8 A8000000 		.4byte	.LFE8
 4116 01ac 0100     		.2byte	0x1
 4117 01ae 55       		.byte	0x55
 4118 01af 00000000 		.4byte	0
 4119 01b3 00000000 		.4byte	0
 4120              	.LVUS1:
 4121 01b7 00       		.uleb128 .LVU25
 4122 01b8 00       		.uleb128 .LVU43
 4123 01b9 00       		.uleb128 .LVU55
 4124 01ba 00       		.uleb128 0
 4125              	.LLST1:
 4126 01bb 44000000 		.4byte	.LVL3
 4127 01bf 64000000 		.4byte	.LVL6
 4128 01c3 0100     		.2byte	0x1
 4129 01c5 50       		.byte	0x50
 4130 01c6 94000000 		.4byte	.LVL9
 4131 01ca A8000000 		.4byte	.LFE8
 4132 01ce 0100     		.2byte	0x1
 4133 01d0 50       		.byte	0x50
 4134 01d1 00000000 		.4byte	0
 4135 01d5 00000000 		.4byte	0
 4136              	.LVUS2:
 4137 01d9 01       		.uleb128 .LVU29
 4138 01da 00       		.uleb128 .LVU38
 4139              	.LLST2:
 4140 01db 4C000000 		.4byte	.LVL4
 4141 01df 60000000 		.4byte	.LVL5
 4142 01e3 0100     		.2byte	0x1
 4143 01e5 50       		.byte	0x50
 4144 01e6 00000000 		.4byte	0
 4145 01ea 00000000 		.4byte	0
 4146              		.section	.debug_aranges,"",%progbits
 4147 0000 5C000000 		.4byte	0x5c
 4148 0004 0200     		.2byte	0x2
 4149 0006 00000000 		.4byte	.Ldebug_info0
 4150 000a 04       		.byte	0x4
 4151 000b 00       		.byte	0
 4152 000c 0000     		.2byte	0
 4153 000e 0000     		.2byte	0
 4154 0010 00000000 		.4byte	.LFB7
 4155 0014 18000000 		.4byte	.LFE7-.LFB7
 4156 0018 00000000 		.4byte	.LFB8
 4157 001c A8000000 		.4byte	.LFE8-.LFB8
 4158 0020 00000000 		.4byte	.LFB9
 4159 0024 18000000 		.4byte	.LFE9-.LFB9
 4160 0028 00000000 		.4byte	.LFB10
 4161 002c C4000000 		.4byte	.LFE10-.LFB10
ARM GAS  /tmp/ccCRVKmc.s 			page 74


 4162 0030 00000000 		.4byte	.LFB11
 4163 0034 34000000 		.4byte	.LFE11-.LFB11
 4164 0038 00000000 		.4byte	.LFB12
 4165 003c 20000000 		.4byte	.LFE12-.LFB12
 4166 0040 00000000 		.4byte	.LFB13
 4167 0044 1C000000 		.4byte	.LFE13-.LFB13
 4168 0048 00000000 		.4byte	.LFB14
 4169 004c 34000000 		.4byte	.LFE14-.LFB14
 4170 0050 00000000 		.4byte	.LFB15
 4171 0054 94000000 		.4byte	.LFE15-.LFB15
 4172 0058 00000000 		.4byte	0
 4173 005c 00000000 		.4byte	0
 4174              		.section	.debug_ranges,"",%progbits
 4175              	.Ldebug_ranges0:
 4176 0000 30000000 		.4byte	.LBB15
 4177 0004 60000000 		.4byte	.LBE15
 4178 0008 94000000 		.4byte	.LBB18
 4179 000c A8000000 		.4byte	.LBE18
 4180 0010 00000000 		.4byte	0
 4181 0014 00000000 		.4byte	0
 4182 0018 08000000 		.4byte	.LBB21
 4183 001c 0C000000 		.4byte	.LBE21
 4184 0020 24000000 		.4byte	.LBB25
 4185 0024 30000000 		.4byte	.LBE25
 4186 0028 34000000 		.4byte	.LBB26
 4187 002c 38000000 		.4byte	.LBE26
 4188 0030 00000000 		.4byte	0
 4189 0034 00000000 		.4byte	0
 4190 0038 3C000000 		.4byte	.LBB27
 4191 003c 50000000 		.4byte	.LBE27
 4192 0040 54000000 		.4byte	.LBB30
 4193 0044 58000000 		.4byte	.LBE30
 4194 0048 00000000 		.4byte	0
 4195 004c 00000000 		.4byte	0
 4196 0050 5C000000 		.4byte	.LBB31
 4197 0054 70000000 		.4byte	.LBE31
 4198 0058 74000000 		.4byte	.LBB37
 4199 005c 78000000 		.4byte	.LBE37
 4200 0060 00000000 		.4byte	0
 4201 0064 00000000 		.4byte	0
 4202 0068 70000000 		.4byte	.LBB34
 4203 006c 74000000 		.4byte	.LBE34
 4204 0070 78000000 		.4byte	.LBB38
 4205 0074 8C000000 		.4byte	.LBE38
 4206 0078 00000000 		.4byte	0
 4207 007c 00000000 		.4byte	0
 4208 0080 00000000 		.4byte	.LFB7
 4209 0084 18000000 		.4byte	.LFE7
 4210 0088 00000000 		.4byte	.LFB8
 4211 008c A8000000 		.4byte	.LFE8
 4212 0090 00000000 		.4byte	.LFB9
 4213 0094 18000000 		.4byte	.LFE9
 4214 0098 00000000 		.4byte	.LFB10
 4215 009c C4000000 		.4byte	.LFE10
 4216 00a0 00000000 		.4byte	.LFB11
 4217 00a4 34000000 		.4byte	.LFE11
 4218 00a8 00000000 		.4byte	.LFB12
ARM GAS  /tmp/ccCRVKmc.s 			page 75


 4219 00ac 20000000 		.4byte	.LFE12
 4220 00b0 00000000 		.4byte	.LFB13
 4221 00b4 1C000000 		.4byte	.LFE13
 4222 00b8 00000000 		.4byte	.LFB14
 4223 00bc 34000000 		.4byte	.LFE14
 4224 00c0 00000000 		.4byte	.LFB15
 4225 00c4 94000000 		.4byte	.LFE15
 4226 00c8 00000000 		.4byte	0
 4227 00cc 00000000 		.4byte	0
 4228              		.section	.debug_line,"",%progbits
 4229              	.Ldebug_line0:
 4230 0000 95050000 		.section	.debug_str,"MS",%progbits,1
 4230      0300A701 
 4230      00000201 
 4230      FB0E0D00 
 4230      01010101 
 4231              	.LASF93:
 4232 0000 63665F6F 		.ascii	"cf_off_older\000"
 4232      66665F6F 
 4232      6C646572 
 4232      00
 4233              	.LASF39:
 4234 000d 705F6D73 		.ascii	"p_msg\000"
 4234      6700
 4235              	.LASF170:
 4236 0013 62617564 		.ascii	"baud_rate\000"
 4236      5F726174 
 4236      6500
 4237              	.LASF212:
 4238 001d 474E5520 		.ascii	"GNU C17 9.2.1 20191025 (release) [ARM/arm-9-branch "
 4238      43313720 
 4238      392E322E 
 4238      31203230 
 4238      31393130 
 4239 0050 72657669 		.ascii	"revision 277599] -mcpu=arm1176jz-s -mno-thumb-inter"
 4239      73696F6E 
 4239      20323737 
 4239      3539395D 
 4239      202D6D63 
 4240 0083 776F726B 		.ascii	"work -mfloat-abi=soft -marm -march=armv6kz -ggdb -O"
 4240      202D6D66 
 4240      6C6F6174 
 4240      2D616269 
 4240      3D736F66 
 4241 00b6 32202D66 		.ascii	"2 -fomit-frame-pointer -ffunction-sections -fdata-s"
 4241      6F6D6974 
 4241      2D667261 
 4241      6D652D70 
 4241      6F696E74 
 4242 00e9 65637469 		.ascii	"ections\000"
 4242      6F6E7300 
 4243              	.LASF78:
 4244 00f1 7264796D 		.ascii	"rdymsg\000"
 4244      736700
 4245              	.LASF173:
 4246 00f8 77726974 		.ascii	"write\000"
 4246      6500
ARM GAS  /tmp/ccCRVKmc.s 			page 76


 4247              	.LASF114:
 4248 00fe 4F757470 		.ascii	"OutputQueue\000"
 4248      75745175 
 4248      65756500 
 4249              	.LASF182:
 4250 010a 5350495F 		.ascii	"SPI_ACTIVE\000"
 4250      41435449 
 4250      564500
 4251              	.LASF65:
 4252 0115 76746C69 		.ascii	"vtlist\000"
 4252      737400
 4253              	.LASF116:
 4254 011c 62736364 		.ascii	"bscdevice_t\000"
 4254      65766963 
 4254      655F7400 
 4255              	.LASF154:
 4256 0128 72786275 		.ascii	"rxbuf\000"
 4256      6600
 4257              	.LASF107:
 4258 012e 715F746F 		.ascii	"q_top\000"
 4258      7000
 4259              	.LASF13:
 4260 0134 6C6F6E67 		.ascii	"long long unsigned int\000"
 4260      206C6F6E 
 4260      6720756E 
 4260      7369676E 
 4260      65642069 
 4261              	.LASF89:
 4262 014b 63685F74 		.ascii	"ch_threadsize\000"
 4262      68726561 
 4262      6473697A 
 4262      6500
 4263              	.LASF206:
 4264 0159 64617461 		.ascii	"data\000"
 4264      00
 4265              	.LASF79:
 4266 015e 65786974 		.ascii	"exitcode\000"
 4266      636F6465 
 4266      00
 4267              	.LASF185:
 4268 0167 53504944 		.ascii	"SPIDriver\000"
 4268      72697665 
 4268      7200
 4269              	.LASF201:
 4270 0171 6E65776C 		.ascii	"newline\000"
 4270      696E6500 
 4271              	.LASF121:
 4272 0179 64617461 		.ascii	"dataFifo\000"
 4272      4669666F 
 4272      00
 4273              	.LASF14:
 4274 0182 626F6F6C 		.ascii	"bool_t\000"
 4274      5F7400
 4275              	.LASF27:
 4276 0189 705F7072 		.ascii	"p_prio\000"
 4276      696F00
 4277              	.LASF96:
ARM GAS  /tmp/ccCRVKmc.s 			page 77


 4278 0190 63665F6F 		.ascii	"cf_off_state\000"
 4278      66665F73 
 4278      74617465 
 4278      00
 4279              	.LASF178:
 4280 019d 72656164 		.ascii	"readt\000"
 4280      7400
 4281              	.LASF147:
 4282 01a3 64657669 		.ascii	"device\000"
 4282      636500
 4283              	.LASF104:
 4284 01aa 715F7761 		.ascii	"q_waiting\000"
 4284      6974696E 
 4284      6700
 4285              	.LASF6:
 4286 01b4 6C6F6E67 		.ascii	"long long int\000"
 4286      206C6F6E 
 4286      6720696E 
 4286      7400
 4287              	.LASF1:
 4288 01c2 7369676E 		.ascii	"signed char\000"
 4288      65642063 
 4288      68617200 
 4289              	.LASF95:
 4290 01ce 63665F6F 		.ascii	"cf_off_stklimit\000"
 4290      66665F73 
 4290      746B6C69 
 4290      6D697400 
 4291              	.LASF180:
 4292 01de 5350495F 		.ascii	"SPI_STOP\000"
 4292      53544F50 
 4292      00
 4293              	.LASF97:
 4294 01e7 63665F6F 		.ascii	"cf_off_flags\000"
 4294      66665F66 
 4294      6C616773 
 4294      00
 4295              	.LASF163:
 4296 01f4 53445F53 		.ascii	"SD_STOP\000"
 4296      544F5000 
 4297              	.LASF214:
 4298 01fc 2F686F6D 		.ascii	"/home/taskman/arduino/embedded-wind-turbine/Data_Co"
 4298      652F7461 
 4298      736B6D61 
 4298      6E2F6172 
 4298      6475696E 
 4299 022f 6C6C6563 		.ascii	"llector/raspberry/compiler/boot\000"
 4299      746F722F 
 4299      72617370 
 4299      62657272 
 4299      792F636F 
 4300              	.LASF68:
 4301 024f 6D5F7175 		.ascii	"m_queue\000"
 4301      65756500 
 4302              	.LASF150:
 4303 0257 61646472 		.ascii	"addr\000"
 4303      00
ARM GAS  /tmp/ccCRVKmc.s 			page 78


 4304              	.LASF18:
 4305 025c 74736C69 		.ascii	"tslices_t\000"
 4305      6365735F 
 4305      7400
 4306              	.LASF136:
 4307 0266 4932435F 		.ascii	"I2C_UNINIT\000"
 4307      554E494E 
 4307      495400
 4308              	.LASF158:
 4309 0271 69326361 		.ascii	"i2caddr_t\000"
 4309      6464725F 
 4309      7400
 4310              	.LASF144:
 4311 027b 73746174 		.ascii	"state\000"
 4311      6500
 4312              	.LASF5:
 4313 0281 6C6F6E67 		.ascii	"long int\000"
 4313      20696E74 
 4313      00
 4314              	.LASF216:
 4315 028a 6D696E69 		.ascii	"mini_uart_send\000"
 4315      5F756172 
 4315      745F7365 
 4315      6E6400
 4316              	.LASF16:
 4317 0299 74737461 		.ascii	"tstate_t\000"
 4317      74655F74 
 4317      00
 4318              	.LASF149:
 4319 02a2 74687265 		.ascii	"thread\000"
 4319      616400
 4320              	.LASF123:
 4321 02a9 64617461 		.ascii	"dataDelay\000"
 4321      44656C61 
 4321      7900
 4322              	.LASF156:
 4323 02b3 72786964 		.ascii	"rxidx\000"
 4323      7800
 4324              	.LASF106:
 4325 02b9 715F6275 		.ascii	"q_buffer\000"
 4325      66666572 
 4325      00
 4326              	.LASF9:
 4327 02c2 75696E74 		.ascii	"uint16_t\000"
 4327      31365F74 
 4327      00
 4328              	.LASF198:
 4329 02cb 53504930 		.ascii	"SPI0\000"
 4329      00
 4330              	.LASF101:
 4331 02d0 63686465 		.ascii	"chdebug_t\000"
 4331      6275675F 
 4331      7400
 4332              	.LASF139:
 4333 02da 4932435F 		.ascii	"I2C_ACTIVE_TX\000"
 4333      41435449 
 4333      56455F54 
ARM GAS  /tmp/ccCRVKmc.s 			page 79


 4333      5800
 4334              	.LASF195:
 4335 02e8 636C6F63 		.ascii	"clock_phase\000"
 4335      6B5F7068 
 4335      61736500 
 4336              	.LASF29:
 4337 02f4 705F6E65 		.ascii	"p_newer\000"
 4337      77657200 
 4338              	.LASF115:
 4339 02fc 5F69646C 		.ascii	"_idle_thread_wa\000"
 4339      655F7468 
 4339      72656164 
 4339      5F776100 
 4340              	.LASF188:
 4341 030c 656E645F 		.ascii	"end_cb\000"
 4341      636200
 4342              	.LASF186:
 4343 0313 7478636E 		.ascii	"txcnt\000"
 4343      7400
 4344              	.LASF192:
 4345 0319 63686970 		.ascii	"chip_select_polarity0\000"
 4345      5F73656C 
 4345      6563745F 
 4345      706F6C61 
 4345      72697479 
 4346              	.LASF193:
 4347 032f 63686970 		.ascii	"chip_select_polarity1\000"
 4347      5F73656C 
 4347      6563745F 
 4347      706F6C61 
 4347      72697479 
 4348              	.LASF117:
 4349 0345 636F6E74 		.ascii	"control\000"
 4349      726F6C00 
 4350              	.LASF61:
 4351 034d 725F6E65 		.ascii	"r_newer\000"
 4351      77657200 
 4352              	.LASF46:
 4353 0355 72656761 		.ascii	"regarm_t\000"
 4353      726D5F74 
 4353      00
 4354              	.LASF52:
 4355 035e 76745F70 		.ascii	"vt_prev\000"
 4355      72657600 
 4356              	.LASF120:
 4357 0366 736C6176 		.ascii	"slaveAddress\000"
 4357      65416464 
 4357      72657373 
 4357      00
 4358              	.LASF3:
 4359 0373 73697A65 		.ascii	"size_t\000"
 4359      5F7400
 4360              	.LASF187:
 4361 037a 73706963 		.ascii	"spicallback_t\000"
 4361      616C6C62 
 4361      61636B5F 
 4361      7400
ARM GAS  /tmp/ccCRVKmc.s 			page 80


 4362              	.LASF161:
 4363 0388 49324330 		.ascii	"I2C0\000"
 4363      00
 4364              	.LASF76:
 4365 038d 4576656E 		.ascii	"EventSource\000"
 4365      74536F75 
 4365      72636500 
 4366              	.LASF0:
 4367 0399 756E7369 		.ascii	"unsigned int\000"
 4367      676E6564 
 4367      20696E74 
 4367      00
 4368              	.LASF51:
 4369 03a6 76745F6E 		.ascii	"vt_next\000"
 4369      65787400 
 4370              	.LASF151:
 4371 03ae 74786275 		.ascii	"txbuf\000"
 4371      6600
 4372              	.LASF172:
 4373 03b4 53657269 		.ascii	"SerialDriverVMT\000"
 4373      616C4472 
 4373      69766572 
 4373      564D5400 
 4374              	.LASF146:
 4375 03c4 6572726F 		.ascii	"errors\000"
 4375      727300
 4376              	.LASF168:
 4377 03cb 69717565 		.ascii	"iqueue\000"
 4377      756500
 4378              	.LASF12:
 4379 03d2 6C6F6E67 		.ascii	"long unsigned int\000"
 4379      20756E73 
 4379      69676E65 
 4379      6420696E 
 4379      7400
 4380              	.LASF102:
 4381 03e4 63685F64 		.ascii	"ch_debug\000"
 4381      65627567 
 4381      00
 4382              	.LASF204:
 4383 03ed 73645F6C 		.ascii	"sd_lld_init\000"
 4383      6C645F69 
 4383      6E697400 
 4384              	.LASF176:
 4385 03f9 67657474 		.ascii	"gett\000"
 4385      00
 4386              	.LASF83:
 4387 03fe 63685F69 		.ascii	"ch_identifier\000"
 4387      64656E74 
 4387      69666965 
 4387      7200
 4388              	.LASF191:
 4389 040c 63686970 		.ascii	"chip_select_polarity\000"
 4389      5F73656C 
 4389      6563745F 
 4389      706F6C61 
 4389      72697479 
ARM GAS  /tmp/ccCRVKmc.s 			page 81


 4390              	.LASF167:
 4391 0421 6576656E 		.ascii	"event\000"
 4391      7400
 4392              	.LASF48:
 4393 0427 636F6E74 		.ascii	"context\000"
 4393      65787400 
 4394              	.LASF10:
 4395 042f 73686F72 		.ascii	"short unsigned int\000"
 4395      7420756E 
 4395      7369676E 
 4395      65642069 
 4395      6E7400
 4396              	.LASF131:
 4397 0442 6770696F 		.ascii	"gpio_port_t\000"
 4397      5F706F72 
 4397      745F7400 
 4398              	.LASF213:
 4399 044e 2E2E2F6F 		.ascii	"../os/hal/platforms/BCM2835/serial_lld.c\000"
 4399      732F6861 
 4399      6C2F706C 
 4399      6174666F 
 4399      726D732F 
 4400              	.LASF20:
 4401 0477 6D73675F 		.ascii	"msg_t\000"
 4401      7400
 4402              	.LASF169:
 4403 047d 6F717565 		.ascii	"oqueue\000"
 4403      756500
 4404              	.LASF72:
 4405 0484 656C5F6E 		.ascii	"el_next\000"
 4405      65787400 
 4406              	.LASF208:
 4407 048c 62636D32 		.ascii	"bcm2835_delay\000"
 4407      3833355F 
 4407      64656C61 
 4407      7900
 4408              	.LASF177:
 4409 049a 77726974 		.ascii	"writet\000"
 4409      657400
 4410              	.LASF15:
 4411 04a1 746D6F64 		.ascii	"tmode_t\000"
 4411      655F7400 
 4412              	.LASF44:
 4413 04a9 54687265 		.ascii	"ThreadsList\000"
 4413      6164734C 
 4413      69737400 
 4414              	.LASF127:
 4415 04b5 6770636C 		.ascii	"gpclr\000"
 4415      7200
 4416              	.LASF21:
 4417 04bb 6576656E 		.ascii	"eventmask_t\000"
 4417      746D6173 
 4417      6B5F7400 
 4418              	.LASF113:
 4419 04c7 496E7075 		.ascii	"InputQueue\000"
 4419      74517565 
 4419      756500
ARM GAS  /tmp/ccCRVKmc.s 			page 82


 4420              	.LASF67:
 4421 04d2 4D757465 		.ascii	"Mutex\000"
 4421      7800
 4422              	.LASF103:
 4423 04d8 47656E65 		.ascii	"GenericQueue\000"
 4423      72696351 
 4423      75657565 
 4423      00
 4424              	.LASF45:
 4425 04e5 73746B61 		.ascii	"stkalign_t\000"
 4425      6C69676E 
 4425      5F7400
 4426              	.LASF84:
 4427 04f0 63685F7A 		.ascii	"ch_zero\000"
 4427      65726F00 
 4428              	.LASF98:
 4429 04f8 63665F6F 		.ascii	"cf_off_refs\000"
 4429      66665F72 
 4429      65667300 
 4430              	.LASF128:
 4431 0504 67706C65 		.ascii	"gplev\000"
 4431      7600
 4432              	.LASF175:
 4433 050a 70757474 		.ascii	"putt\000"
 4433      00
 4434              	.LASF53:
 4435 050f 76745F74 		.ascii	"vt_time\000"
 4435      696D6500 
 4436              	.LASF137:
 4437 0517 4932435F 		.ascii	"I2C_STOP\000"
 4437      53544F50 
 4437      00
 4438              	.LASF122:
 4439 0520 636C6F63 		.ascii	"clockDivider\000"
 4439      6B446976 
 4439      69646572 
 4439      00
 4440              	.LASF105:
 4441 052d 715F636F 		.ascii	"q_counter\000"
 4441      756E7465 
 4441      7200
 4442              	.LASF54:
 4443 0537 76745F66 		.ascii	"vt_func\000"
 4443      756E6300 
 4444              	.LASF88:
 4445 053f 63685F74 		.ascii	"ch_timesize\000"
 4445      696D6573 
 4445      697A6500 
 4446              	.LASF211:
 4447 054b 7364496E 		.ascii	"sdIncomingDataI\000"
 4447      636F6D69 
 4447      6E674461 
 4447      74614900 
 4448              	.LASF159:
 4449 055b 69635F73 		.ascii	"ic_speed\000"
 4449      70656564 
 4449      00
ARM GAS  /tmp/ccCRVKmc.s 			page 83


 4450              	.LASF94:
 4451 0564 63665F6F 		.ascii	"cf_off_name\000"
 4451      66665F6E 
 4451      616D6500 
 4452              	.LASF30:
 4453 0570 705F6F6C 		.ascii	"p_older\000"
 4453      64657200 
 4454              	.LASF155:
 4455 0578 72786279 		.ascii	"rxbytes\000"
 4455      74657300 
 4456              	.LASF108:
 4457 0580 715F7772 		.ascii	"q_wrptr\000"
 4457      70747200 
 4458              	.LASF60:
 4459 0588 725F6374 		.ascii	"r_ctx\000"
 4459      7800
 4460              	.LASF43:
 4461 058e 54687265 		.ascii	"ThreadsQueue\000"
 4461      61647351 
 4461      75657565 
 4461      00
 4462              	.LASF85:
 4463 059b 63685F73 		.ascii	"ch_size\000"
 4463      697A6500 
 4464              	.LASF133:
 4465 05a3 494F504F 		.ascii	"IOPORT0\000"
 4465      52543000 
 4466              	.LASF215:
 4467 05ab 64656661 		.ascii	"default_config\000"
 4467      756C745F 
 4467      636F6E66 
 4467      696700
 4468              	.LASF63:
 4469 05ba 725F6375 		.ascii	"r_current\000"
 4469      7272656E 
 4469      7400
 4470              	.LASF62:
 4471 05c4 725F6F6C 		.ascii	"r_older\000"
 4471      64657200 
 4472              	.LASF74:
 4473 05cc 656C5F6D 		.ascii	"el_mask\000"
 4473      61736B00 
 4474              	.LASF126:
 4475 05d4 67707365 		.ascii	"gpset\000"
 4475      7400
 4476              	.LASF129:
 4477 05da 67707075 		.ascii	"gppudclk\000"
 4477      64636C6B 
 4477      00
 4478              	.LASF189:
 4479 05e3 6C6F7373 		.ascii	"lossiEnabled\000"
 4479      69456E61 
 4479      626C6564 
 4479      00
 4480              	.LASF207:
 4481 05f0 62636D32 		.ascii	"bcm2835_gpio_fnsel\000"
 4481      3833355F 
ARM GAS  /tmp/ccCRVKmc.s 			page 84


 4481      6770696F 
 4481      5F666E73 
 4481      656C00
 4482              	.LASF190:
 4483 0603 63686970 		.ascii	"chip_select\000"
 4483      5F73656C 
 4483      65637400 
 4484              	.LASF17:
 4485 060f 74726566 		.ascii	"trefs_t\000"
 4485      735F7400 
 4486              	.LASF142:
 4487 0617 69326373 		.ascii	"i2cstate_t\000"
 4487      74617465 
 4487      5F7400
 4488              	.LASF87:
 4489 0622 63685F70 		.ascii	"ch_ptrsize\000"
 4489      74727369 
 4489      7A6500
 4490              	.LASF112:
 4491 062d 716E6F74 		.ascii	"qnotify_t\000"
 4491      6966795F 
 4491      7400
 4492              	.LASF26:
 4493 0637 705F7072 		.ascii	"p_prev\000"
 4493      657600
 4494              	.LASF19:
 4495 063e 74707269 		.ascii	"tprio_t\000"
 4495      6F5F7400 
 4496              	.LASF109:
 4497 0646 715F7264 		.ascii	"q_rdptr\000"
 4497      70747200 
 4498              	.LASF157:
 4499 064e 69326366 		.ascii	"i2cflags_t\000"
 4499      6C616773 
 4499      5F7400
 4500              	.LASF148:
 4501 0659 6D757465 		.ascii	"mutex\000"
 4501      7800
 4502              	.LASF4:
 4503 065f 696E7433 		.ascii	"int32_t\000"
 4503      325F7400 
 4504              	.LASF8:
 4505 0667 756E7369 		.ascii	"unsigned char\000"
 4505      676E6564 
 4505      20636861 
 4505      7200
 4506              	.LASF203:
 4507 0675 73645F6C 		.ascii	"sd_lld_start\000"
 4507      6C645F73 
 4507      74617274 
 4507      00
 4508              	.LASF73:
 4509 0682 656C5F6C 		.ascii	"el_listener\000"
 4509      69737465 
 4509      6E657200 
 4510              	.LASF75:
 4511 068e 656C5F66 		.ascii	"el_flags\000"
ARM GAS  /tmp/ccCRVKmc.s 			page 85


 4511      6C616773 
 4511      00
 4512              	.LASF41:
 4513 0697 705F6D74 		.ascii	"p_mtxlist\000"
 4513      786C6973 
 4513      7400
 4514              	.LASF2:
 4515 06a1 73686F72 		.ascii	"short int\000"
 4515      7420696E 
 4515      7400
 4516              	.LASF32:
 4517 06ab 705F7374 		.ascii	"p_state\000"
 4517      61746500 
 4518              	.LASF35:
 4519 06b3 705F7072 		.ascii	"p_preempt\000"
 4519      65656D70 
 4519      7400
 4520              	.LASF100:
 4521 06bd 63665F6F 		.ascii	"cf_off_time\000"
 4521      66665F74 
 4521      696D6500 
 4522              	.LASF209:
 4523 06c9 73644F62 		.ascii	"sdObjectInit\000"
 4523      6A656374 
 4523      496E6974 
 4523      00
 4524              	.LASF59:
 4525 06d6 725F7072 		.ascii	"r_prio\000"
 4525      696F00
 4526              	.LASF130:
 4527 06dd 70696E5F 		.ascii	"pin_base\000"
 4527      62617365 
 4527      00
 4528              	.LASF81:
 4529 06e6 65776D61 		.ascii	"ewmask\000"
 4529      736B00
 4530              	.LASF25:
 4531 06ed 705F6E65 		.ascii	"p_next\000"
 4531      787400
 4532              	.LASF134:
 4533 06f4 494F504F 		.ascii	"IOPORT1\000"
 4533      52543100 
 4534              	.LASF99:
 4535 06fc 63665F6F 		.ascii	"cf_off_preempt\000"
 4535      66665F70 
 4535      7265656D 
 4535      707400
 4536              	.LASF33:
 4537 070b 705F666C 		.ascii	"p_flags\000"
 4537      61677300 
 4538              	.LASF24:
 4539 0713 54687265 		.ascii	"Thread\000"
 4539      616400
 4540              	.LASF196:
 4541 071a 636C6F63 		.ascii	"clock_divider\000"
 4541      6B5F6469 
 4541      76696465 
ARM GAS  /tmp/ccCRVKmc.s 			page 86


 4541      7200
 4542              	.LASF92:
 4543 0728 63665F6F 		.ascii	"cf_off_newer\000"
 4543      66665F6E 
 4543      65776572 
 4543      00
 4544              	.LASF141:
 4545 0735 4932435F 		.ascii	"I2C_LOCKED\000"
 4545      4C4F434B 
 4545      454400
 4546              	.LASF40:
 4547 0740 705F6570 		.ascii	"p_epending\000"
 4547      656E6469 
 4547      6E6700
 4548              	.LASF162:
 4549 074b 53445F55 		.ascii	"SD_UNINIT\000"
 4549      4E494E49 
 4549      5400
 4550              	.LASF11:
 4551 0755 75696E74 		.ascii	"uint32_t\000"
 4551      33325F74 
 4551      00
 4552              	.LASF90:
 4553 075e 63665F6F 		.ascii	"cf_off_prio\000"
 4553      66665F70 
 4553      72696F00 
 4554              	.LASF58:
 4555 076a 725F7175 		.ascii	"r_queue\000"
 4555      65756500 
 4556              	.LASF50:
 4557 0772 56697274 		.ascii	"VirtualTimer\000"
 4557      75616C54 
 4557      696D6572 
 4557      00
 4558              	.LASF166:
 4559 077f 53657269 		.ascii	"SerialDriver\000"
 4559      616C4472 
 4559      69766572 
 4559      00
 4560              	.LASF140:
 4561 078c 4932435F 		.ascii	"I2C_ACTIVE_RX\000"
 4561      41435449 
 4561      56455F52 
 4561      5800
 4562              	.LASF174:
 4563 079a 72656164 		.ascii	"read\000"
 4563      00
 4564              	.LASF82:
 4565 079f 63686172 		.ascii	"char\000"
 4565      00
 4566              	.LASF183:
 4567 07a4 5350495F 		.ascii	"SPI_COMPLETE\000"
 4567      434F4D50 
 4567      4C455445 
 4567      00
 4568              	.LASF145:
 4569 07b1 636F6E66 		.ascii	"config\000"
ARM GAS  /tmp/ccCRVKmc.s 			page 87


 4569      696700
 4570              	.LASF184:
 4571 07b8 73706973 		.ascii	"spistate_t\000"
 4571      74617465 
 4571      5F7400
 4572              	.LASF70:
 4573 07c3 6D5F6E65 		.ascii	"m_next\000"
 4573      787400
 4574              	.LASF23:
 4575 07ca 73797374 		.ascii	"systime_t\000"
 4575      696D655F 
 4575      7400
 4576              	.LASF42:
 4577 07d4 705F7265 		.ascii	"p_realprio\000"
 4577      616C7072 
 4577      696F00
 4578              	.LASF49:
 4579 07df 76746675 		.ascii	"vtfunc_t\000"
 4579      6E635F74 
 4579      00
 4580              	.LASF138:
 4581 07e8 4932435F 		.ascii	"I2C_READY\000"
 4581      52454144 
 4581      5900
 4582              	.LASF143:
 4583 07f2 49324344 		.ascii	"I2CDriver\000"
 4583      72697665 
 4583      7200
 4584              	.LASF36:
 4585 07fc 705F7469 		.ascii	"p_time\000"
 4585      6D6500
 4586              	.LASF194:
 4587 0803 636C6F63 		.ascii	"clock_polarity\000"
 4587      6B5F706F 
 4587      6C617269 
 4587      747900
 4588              	.LASF47:
 4589 0812 696E7463 		.ascii	"intctx\000"
 4589      747800
 4590              	.LASF38:
 4591 0819 705F6D73 		.ascii	"p_msgqueue\000"
 4591      67717565 
 4591      756500
 4592              	.LASF164:
 4593 0824 53445F52 		.ascii	"SD_READY\000"
 4593      45414459 
 4593      00
 4594              	.LASF181:
 4595 082d 5350495F 		.ascii	"SPI_READY\000"
 4595      52454144 
 4595      5900
 4596              	.LASF179:
 4597 0837 5350495F 		.ascii	"SPI_UNINIT\000"
 4597      554E494E 
 4597      495400
 4598              	.LASF55:
 4599 0842 76745F70 		.ascii	"vt_par\000"
ARM GAS  /tmp/ccCRVKmc.s 			page 88


 4599      617200
 4600              	.LASF22:
 4601 0849 666C6167 		.ascii	"flagsmask_t\000"
 4601      736D6173 
 4601      6B5F7400 
 4602              	.LASF160:
 4603 0855 49324343 		.ascii	"I2CConfig\000"
 4603      6F6E6669 
 4603      6700
 4604              	.LASF165:
 4605 085f 73647374 		.ascii	"sdstate_t\000"
 4605      6174655F 
 4605      7400
 4606              	.LASF153:
 4607 0869 74786964 		.ascii	"txidx\000"
 4607      7800
 4608              	.LASF171:
 4609 086f 53657269 		.ascii	"SerialConfig\000"
 4609      616C436F 
 4609      6E666967 
 4609      00
 4610              	.LASF91:
 4611 087c 63665F6F 		.ascii	"cf_off_ctx\000"
 4611      66665F63 
 4611      747800
 4612              	.LASF217:
 4613 0887 6D696E69 		.ascii	"mini_uart_recv\000"
 4613      5F756172 
 4613      745F7265 
 4613      637600
 4614              	.LASF34:
 4615 0896 705F7265 		.ascii	"p_refs\000"
 4615      667300
 4616              	.LASF118:
 4617 089d 73746174 		.ascii	"status\000"
 4617      757300
 4618              	.LASF64:
 4619 08a4 52656164 		.ascii	"ReadyList\000"
 4619      794C6973 
 4619      7400
 4620              	.LASF218:
 4621 08ae 6F757470 		.ascii	"output_notify\000"
 4621      75745F6E 
 4621      6F746966 
 4621      7900
 4622              	.LASF110:
 4623 08bc 715F6E6F 		.ascii	"q_notify\000"
 4623      74696679 
 4623      00
 4624              	.LASF66:
 4625 08c5 726C6973 		.ascii	"rlist\000"
 4625      7400
 4626              	.LASF210:
 4627 08cb 73645265 		.ascii	"sdRequestDataI\000"
 4627      71756573 
 4627      74446174 
 4627      614900
ARM GAS  /tmp/ccCRVKmc.s 			page 89


 4628              	.LASF7:
 4629 08da 75696E74 		.ascii	"uint8_t\000"
 4629      385F7400 
 4630              	.LASF125:
 4631 08e2 6C617463 		.ascii	"latch\000"
 4631      6800
 4632              	.LASF200:
 4633 08e8 6D696E69 		.ascii	"mini_uart_sendstr\000"
 4633      5F756172 
 4633      745F7365 
 4633      6E647374 
 4633      7200
 4634              	.LASF71:
 4635 08fa 4576656E 		.ascii	"EventListener\000"
 4635      744C6973 
 4635      74656E65 
 4635      7200
 4636              	.LASF80:
 4637 0908 77746F62 		.ascii	"wtobjp\000"
 4637      6A7000
 4638              	.LASF31:
 4639 090f 705F6E61 		.ascii	"p_name\000"
 4639      6D6500
 4640              	.LASF199:
 4641 0916 6D696E69 		.ascii	"mini_uart_sendhex\000"
 4641      5F756172 
 4641      745F7365 
 4641      6E646865 
 4641      7800
 4642              	.LASF56:
 4643 0928 76745F73 		.ascii	"vt_systime\000"
 4643      79737469 
 4643      6D6500
 4644              	.LASF77:
 4645 0933 65735F6E 		.ascii	"es_next\000"
 4645      65787400 
 4646              	.LASF197:
 4647 093b 53504943 		.ascii	"SPIConfig\000"
 4647      6F6E6669 
 4647      6700
 4648              	.LASF205:
 4649 0945 73645F6C 		.ascii	"sd_lld_serve_interrupt\000"
 4649      6C645F73 
 4649      65727665 
 4649      5F696E74 
 4649      65727275 
 4650              	.LASF86:
 4651 095c 63685F76 		.ascii	"ch_version\000"
 4651      65727369 
 4651      6F6E00
 4652              	.LASF202:
 4653 0967 73645F6C 		.ascii	"sd_lld_stop\000"
 4653      6C645F73 
 4653      746F7000 
 4654              	.LASF119:
 4655 0973 64617461 		.ascii	"dataLength\000"
 4655      4C656E67 
ARM GAS  /tmp/ccCRVKmc.s 			page 90


 4655      746800
 4656              	.LASF57:
 4657 097e 56544C69 		.ascii	"VTList\000"
 4657      737400
 4658              	.LASF111:
 4659 0985 715F6C69 		.ascii	"q_link\000"
 4659      6E6B00
 4660              	.LASF132:
 4661 098c 50414C43 		.ascii	"PALConfig\000"
 4661      6F6E6669 
 4661      6700
 4662              	.LASF69:
 4663 0996 6D5F6F77 		.ascii	"m_owner\000"
 4663      6E657200 
 4664              	.LASF135:
 4665 099e 70616C5F 		.ascii	"pal_default_config\000"
 4665      64656661 
 4665      756C745F 
 4665      636F6E66 
 4665      696700
 4666              	.LASF28:
 4667 09b1 705F6374 		.ascii	"p_ctx\000"
 4667      7800
 4668              	.LASF37:
 4669 09b7 705F7761 		.ascii	"p_waiting\000"
 4669      6974696E 
 4669      6700
 4670              	.LASF152:
 4671 09c1 74786279 		.ascii	"txbytes\000"
 4671      74657300 
 4672              	.LASF124:
 4673 09c9 636C6F63 		.ascii	"clockStretchTimeout\000"
 4673      6B537472 
 4673      65746368 
 4673      54696D65 
 4673      6F757400 
 4674              		.ident	"GCC: (15:9-2019-q4-0ubuntu1) 9.2.1 20191025 (release) [ARM/arm-9-branch revision 277599]"
ARM GAS  /tmp/ccCRVKmc.s 			page 91


DEFINED SYMBOLS
                            *ABS*:0000000000000000 serial_lld.c
     /tmp/ccCRVKmc.s:16     .text.output_notify:0000000000000000 $a
     /tmp/ccCRVKmc.s:22     .text.output_notify:0000000000000000 output_notify
     /tmp/ccCRVKmc.s:43     .text.output_notify:0000000000000014 $d
     /tmp/ccCRVKmc.s:48     .text.sd_lld_serve_interrupt:0000000000000000 $a
     /tmp/ccCRVKmc.s:54     .text.sd_lld_serve_interrupt:0000000000000000 sd_lld_serve_interrupt
     /tmp/ccCRVKmc.s:183    .text.sd_lld_serve_interrupt:00000000000000a4 $d
     /tmp/ccCRVKmc.s:189    .text.sd_lld_init:0000000000000000 $a
     /tmp/ccCRVKmc.s:195    .text.sd_lld_init:0000000000000000 sd_lld_init
     /tmp/ccCRVKmc.s:211    .text.sd_lld_init:0000000000000010 $d
                            *COM*:0000000000000074 SD1
     /tmp/ccCRVKmc.s:218    .text.sd_lld_start:0000000000000000 $a
     /tmp/ccCRVKmc.s:224    .text.sd_lld_start:0000000000000000 sd_lld_start
     /tmp/ccCRVKmc.s:348    .text.sd_lld_start:00000000000000b0 $d
     /tmp/ccCRVKmc.s:357    .text.sd_lld_stop:0000000000000000 $a
     /tmp/ccCRVKmc.s:363    .text.sd_lld_stop:0000000000000000 sd_lld_stop
     /tmp/ccCRVKmc.s:407    .text.sd_lld_stop:0000000000000030 $d
     /tmp/ccCRVKmc.s:412    .text.mini_uart_recv:0000000000000000 $a
     /tmp/ccCRVKmc.s:418    .text.mini_uart_recv:0000000000000000 mini_uart_recv
     /tmp/ccCRVKmc.s:445    .text.mini_uart_recv:000000000000001c $d
     /tmp/ccCRVKmc.s:450    .text.mini_uart_send:0000000000000000 $a
     /tmp/ccCRVKmc.s:456    .text.mini_uart_send:0000000000000000 mini_uart_send
     /tmp/ccCRVKmc.s:483    .text.mini_uart_send:0000000000000018 $d
     /tmp/ccCRVKmc.s:488    .text.mini_uart_sendstr:0000000000000000 $a
     /tmp/ccCRVKmc.s:494    .text.mini_uart_sendstr:0000000000000000 mini_uart_sendstr
     /tmp/ccCRVKmc.s:542    .text.mini_uart_sendstr:0000000000000030 $d
     /tmp/ccCRVKmc.s:547    .text.mini_uart_sendhex:0000000000000000 $a
     /tmp/ccCRVKmc.s:553    .text.mini_uart_sendhex:0000000000000000 mini_uart_sendhex
     /tmp/ccCRVKmc.s:709    .text.mini_uart_sendhex:0000000000000090 $d
     /tmp/ccCRVKmc.s:715    .rodata.default_config:0000000000000000 $d
     /tmp/ccCRVKmc.s:719    .rodata.default_config:0000000000000000 default_config

UNDEFINED SYMBOLS
sdRequestDataI
sdIncomingDataI
sdObjectInit
__aeabi_uidiv
bcm2835_gpio_fnsel
bcm2835_delay
