ARM GAS  /tmp/ccCRVKmc.s 			page 1


   1              		.cpu arm1176jz-s
   2              		.eabi_attribute 20, 1
   3              		.eabi_attribute 21, 1
   4              		.eabi_attribute 23, 3
   5              		.eabi_attribute 24, 1
   6              		.eabi_attribute 25, 1
   7              		.eabi_attribute 26, 1
   8              		.eabi_attribute 30, 2
   9              		.eabi_attribute 34, 1
  10              		.eabi_attribute 18, 4
  11              		.file	"serial_lld.c"
  12              		.text
  13              	.Ltext0:
  14              		.cfi_sections	.debug_frame
  15              		.section	.text.output_notify,"ax",%progbits
  16              		.align	2
  17              		.arch armv6kz
  18              		.syntax unified
  19              		.arm
  20              		.fpu softvfp
  21              		.type	output_notify, %function
  22              	output_notify:
  23              	.LVL0:
  24              	.LFB7:
  25              		.file 1 "../os/hal/platforms/BCM2835/serial_lld.c"
  26              		.loc 1 59 45 view -0
  27              		.cfi_startproc
  28              		@ args = 0, pretend = 0, frame = 0
  29              		@ frame_needed = 0, uses_anonymous_args = 0
  30              		@ link register save eliminated.
  31              		.loc 1 60 3 view .LVU1
  32              		.loc 1 62 3 view .LVU2
  33              		.loc 1 62 18 is_stmt 0 view .LVU3
  34 0000 0C209FE5 		ldr	r2, .L3
  35 0004 443092E5 		ldr	r3, [r2, #68]
  36 0008 023083E3 		orr	r3, r3, #2
  37 000c 443082E5 		str	r3, [r2, #68]
  38              		.loc 1 63 1 view .LVU4
  39 0010 1EFF2FE1 		bx	lr
  40              	.L4:
  41              		.align	2
  42              	.L3:
  43 0014 00502120 		.word	539054080
  44              		.cfi_endproc
  45              	.LFE7:
  46              		.size	output_notify, .-output_notify
  47              		.section	.text.sd_lld_serve_interrupt,"ax",%progbits
  48              		.align	2
  49              		.global	sd_lld_serve_interrupt
  50              		.syntax unified
  51              		.arm
  52              		.fpu softvfp
  53              		.type	sd_lld_serve_interrupt, %function
  54              	sd_lld_serve_interrupt:
  55              	.LVL1:
  56              	.LFB8:
  57              		.loc 1 69 50 is_stmt 1 view -0
ARM GAS  /tmp/ccCRVKmc.s 			page 2


  58              		.cfi_startproc
  59              		@ args = 0, pretend = 0, frame = 0
  60              		@ frame_needed = 0, uses_anonymous_args = 0
  61              		.loc 1 70 3 view .LVU6
  62              		.loc 1 70 7 is_stmt 0 view .LVU7
  63 0000 9C209FE5 		ldr	r2, .L22
  64              		.loc 1 69 50 view .LVU8
  65 0004 70402DE9 		push	{r4, r5, r6, lr}
  66              		.cfi_def_cfa_offset 16
  67              		.cfi_offset 4, -16
  68              		.cfi_offset 5, -12
  69              		.cfi_offset 6, -8
  70              		.cfi_offset 14, -4
  71              		.loc 1 70 7 view .LVU9
  72 0008 483092E5 		ldr	r3, [r2, #72]
  73              		.loc 1 69 50 view .LVU10
  74 000c 0050A0E1 		mov	r5, r0
  75              		.loc 1 70 7 view .LVU11
  76 0010 073003E2 		and	r3, r3, #7
  77              		.loc 1 70 6 view .LVU12
  78 0014 040053E3 		cmp	r3, #4
  79 0018 1100000A 		beq	.L7
  80              	.LVL2:
  81              	.L6:
  82              		.loc 1 76 5 is_stmt 1 view .LVU13
  83              		.loc 1 76 5 view .LVU14
  84              		.loc 1 76 25 view .LVU15
  85              		.loc 1 79 3 view .LVU16
  86              		.loc 1 79 7 is_stmt 0 view .LVU17
  87 001c 80409FE5 		ldr	r4, .L22
  88 0020 483094E5 		ldr	r3, [r4, #72]
  89 0024 073003E2 		and	r3, r3, #7
  90              		.loc 1 79 6 view .LVU18
  91 0028 020053E3 		cmp	r3, #2
  92 002c 7080BD18 		popne	{r4, r5, r6, pc}
  93              	.L10:
  94              	.LBB15:
  95              		.loc 1 81 30 is_stmt 1 discriminator 1 view .LVU19
  96              		.loc 1 81 10 discriminator 1 view .LVU20
  97              		.loc 1 81 12 is_stmt 0 discriminator 1 view .LVU21
  98 0030 543094E5 		ldr	r3, [r4, #84]
  99              		.loc 1 81 10 discriminator 1 view .LVU22
 100 0034 200013E3 		tst	r3, #32
 101 0038 FCFFFF0A 		beq	.L10
 102              		.loc 1 82 5 is_stmt 1 view .LVU23
 103              		.loc 1 82 18 is_stmt 0 view .LVU24
 104 003c 0500A0E1 		mov	r0, r5
 105 0040 FEFFFFEB 		bl	sdRequestDataI
 106              	.LVL3:
 107              		.loc 1 83 5 is_stmt 1 view .LVU25
 108              		.loc 1 83 8 is_stmt 0 view .LVU26
 109 0044 000050E3 		cmp	r0, #0
 110              		.loc 1 83 8 view .LVU27
 111 0048 110000BA 		blt	.L21
 112              		.loc 1 88 7 is_stmt 1 view .LVU28
 113              	.LVL4:
 114              	.LBB16:
ARM GAS  /tmp/ccCRVKmc.s 			page 3


 115              	.LBI16:
 116              		.loc 1 172 6 view .LVU29
 117              	.LBB17:
 118              		.loc 1 174 3 view .LVU30
 119              		.loc 1 174 10 is_stmt 0 view .LVU31
 120 004c 50209FE5 		ldr	r2, .L22
 121              	.L12:
 122              		.loc 1 174 38 is_stmt 1 view .LVU32
 123              		.loc 1 174 8 view .LVU33
 124              		.loc 1 174 10 is_stmt 0 view .LVU34
 125 0050 543092E5 		ldr	r3, [r2, #84]
 126              		.loc 1 174 8 view .LVU35
 127 0054 200013E3 		tst	r3, #32
 128 0058 FCFFFF0A 		beq	.L12
 129              		.loc 1 175 3 is_stmt 1 view .LVU36
 130              		.loc 1 175 17 is_stmt 0 view .LVU37
 131 005c 400082E5 		str	r0, [r2, #64]
 132              	.LVL5:
 133              		.loc 1 175 17 view .LVU38
 134              	.LBE17:
 135              	.LBE16:
 136              		.loc 1 90 5 is_stmt 1 view .LVU39
 137              		.loc 1 90 5 view .LVU40
 138              		.loc 1 90 25 view .LVU41
 139              	.LBE15:
 140              		.loc 1 92 1 is_stmt 0 view .LVU42
 141 0060 7080BDE8 		pop	{r4, r5, r6, pc}
 142              	.LVL6:
 143              	.L7:
 144              		.loc 1 72 30 is_stmt 1 discriminator 1 view .LVU43
 145              		.loc 1 72 10 discriminator 1 view .LVU44
 146              		.loc 1 72 12 is_stmt 0 discriminator 1 view .LVU45
 147 0064 543092E5 		ldr	r3, [r2, #84]
 148              		.loc 1 72 10 discriminator 1 view .LVU46
 149 0068 010013E3 		tst	r3, #1
 150 006c FCFFFF0A 		beq	.L7
 151              		.loc 1 74 28 view .LVU47
 152 0070 2C409FE5 		ldr	r4, .L22
 153              	.LVL7:
 154              	.L8:
 155              		.loc 1 73 5 is_stmt 1 discriminator 1 view .LVU48
 156              		.loc 1 74 7 discriminator 1 view .LVU49
 157              		.loc 1 74 28 is_stmt 0 discriminator 1 view .LVU50
 158 0074 401094E5 		ldr	r1, [r4, #64]
 159              		.loc 1 74 7 discriminator 1 view .LVU51
 160 0078 0500A0E1 		mov	r0, r5
 161 007c 7110EFE6 		uxtb	r1, r1
 162 0080 FEFFFFEB 		bl	sdIncomingDataI
 163              	.LVL8:
 164              		.loc 1 75 13 is_stmt 1 discriminator 1 view .LVU52
 165              		.loc 1 75 14 is_stmt 0 discriminator 1 view .LVU53
 166 0084 543094E5 		ldr	r3, [r4, #84]
 167              		.loc 1 75 5 discriminator 1 view .LVU54
 168 0088 010013E3 		tst	r3, #1
 169 008c F8FFFF1A 		bne	.L8
 170 0090 E1FFFFEA 		b	.L6
 171              	.LVL9:
ARM GAS  /tmp/ccCRVKmc.s 			page 4


 172              	.L21:
 173              	.LBB18:
 174              		.loc 1 85 7 is_stmt 1 view .LVU55
 175              		.loc 1 85 22 is_stmt 0 view .LVU56
 176 0094 443094E5 		ldr	r3, [r4, #68]
 177 0098 0230C3E3 		bic	r3, r3, #2
 178 009c 443084E5 		str	r3, [r4, #68]
 179 00a0 7080BDE8 		pop	{r4, r5, r6, pc}
 180              	.L23:
 181              		.align	2
 182              	.L22:
 183 00a4 00502120 		.word	539054080
 184              	.LBE18:
 185              		.cfi_endproc
 186              	.LFE8:
 187              		.size	sd_lld_serve_interrupt, .-sd_lld_serve_interrupt
 188              		.section	.text.sd_lld_init,"ax",%progbits
 189              		.align	2
 190              		.global	sd_lld_init
 191              		.syntax unified
 192              		.arm
 193              		.fpu softvfp
 194              		.type	sd_lld_init, %function
 195              	sd_lld_init:
 196              	.LFB9:
 197              		.loc 1 103 24 is_stmt 1 view -0
 198              		.cfi_startproc
 199              		@ args = 0, pretend = 0, frame = 0
 200              		@ frame_needed = 0, uses_anonymous_args = 0
 201              		@ link register save eliminated.
 202              		.loc 1 104 3 view .LVU58
 203 0000 0010A0E3 		mov	r1, #0
 204 0004 04209FE5 		ldr	r2, .L25
 205 0008 04009FE5 		ldr	r0, .L25+4
 206 000c FEFFFFEA 		b	sdObjectInit
 207              	.LVL10:
 208              	.L26:
 209              		.align	2
 210              	.L25:
 211 0010 00000000 		.word	output_notify
 212 0014 00000000 		.word	SD1
 213              		.cfi_endproc
 214              	.LFE9:
 215              		.size	sd_lld_init, .-sd_lld_init
 216              		.global	__aeabi_uidiv
 217              		.section	.text.sd_lld_start,"ax",%progbits
 218              		.align	2
 219              		.global	sd_lld_start
 220              		.syntax unified
 221              		.arm
 222              		.fpu softvfp
 223              		.type	sd_lld_start, %function
 224              	sd_lld_start:
 225              	.LVL11:
 226              	.LFB10:
 227              		.loc 1 117 66 view -0
 228              		.cfi_startproc
ARM GAS  /tmp/ccCRVKmc.s 			page 5


 229              		@ args = 0, pretend = 0, frame = 0
 230              		@ frame_needed = 0, uses_anonymous_args = 0
 231              		.loc 1 118 3 view .LVU60
 232              		.loc 1 120 3 view .LVU61
 233              		.loc 1 117 66 is_stmt 0 view .LVU62
 234 0000 F0472DE9 		push	{r4, r5, r6, r7, r8, r9, r10, lr}
 235              		.cfi_def_cfa_offset 32
 236              		.cfi_offset 4, -32
 237              		.cfi_offset 5, -28
 238              		.cfi_offset 6, -24
 239              		.cfi_offset 7, -20
 240              		.cfi_offset 8, -16
 241              		.cfi_offset 9, -12
 242              		.cfi_offset 10, -8
 243              		.cfi_offset 14, -4
 244              		.loc 1 127 19 view .LVU63
 245 0004 0050A0E3 		mov	r5, #0
 246              		.loc 1 121 12 view .LVU64
 247 0008 A0309FE5 		ldr	r3, .L30
 248 000c 050051E1 		cmp	r1, r5
 249 0010 0310A001 		moveq	r1, r3
 250              	.LVL12:
 251              		.loc 1 123 3 is_stmt 1 view .LVU65
 252              		.loc 1 131 19 is_stmt 0 view .LVU66
 253 0014 0520A0E3 		mov	r2, #5
 254              		.loc 1 132 19 view .LVU67
 255 0018 C630A0E3 		mov	r3, #198
 256              		.loc 1 129 19 view .LVU68
 257 001c 0390A0E3 		mov	r9, #3
 258              		.loc 1 123 16 view .LVU69
 259 0020 0282A0E3 		mov	r8, #536870912
 260              		.loc 1 125 15 view .LVU70
 261 0024 0100A0E3 		mov	r0, #1
 262              	.LVL13:
 263              		.loc 1 125 15 view .LVU71
 264 0028 84409FE5 		ldr	r4, .L30+4
 265              		.loc 1 123 16 view .LVU72
 266 002c 84709FE5 		ldr	r7, .L30+8
 267              		.loc 1 138 9 view .LVU73
 268 0030 84609FE5 		ldr	r6, .L30+12
 269              		.loc 1 123 16 view .LVU74
 270 0034 1C8287E5 		str	r8, [r7, #540]
 271              		.loc 1 125 3 is_stmt 1 view .LVU75
 272              		.loc 1 125 15 is_stmt 0 view .LVU76
 273 0038 040084E5 		str	r0, [r4, #4]
 274              		.loc 1 127 3 is_stmt 1 view .LVU77
 275              		.loc 1 127 19 is_stmt 0 view .LVU78
 276 003c 445084E5 		str	r5, [r4, #68]
 277              		.loc 1 128 3 is_stmt 1 view .LVU79
 278              		.loc 1 128 19 is_stmt 0 view .LVU80
 279 0040 605084E5 		str	r5, [r4, #96]
 280              		.loc 1 129 3 is_stmt 1 view .LVU81
 281              		.loc 1 129 19 is_stmt 0 view .LVU82
 282 0044 4C9084E5 		str	r9, [r4, #76]
 283              		.loc 1 130 3 is_stmt 1 view .LVU83
 284              		.loc 1 130 19 is_stmt 0 view .LVU84
 285 0048 505084E5 		str	r5, [r4, #80]
ARM GAS  /tmp/ccCRVKmc.s 			page 6


 286              		.loc 1 131 3 is_stmt 1 view .LVU85
 287              		.loc 1 131 19 is_stmt 0 view .LVU86
 288 004c 442084E5 		str	r2, [r4, #68]
 289              		.loc 1 132 3 is_stmt 1 view .LVU87
 290              		.loc 1 132 19 is_stmt 0 view .LVU88
 291 0050 483084E5 		str	r3, [r4, #72]
 292              		.loc 1 133 3 is_stmt 1 view .LVU89
 293              		.loc 1 133 21 is_stmt 0 view .LVU90
 294 0054 001091E5 		ldr	r1, [r1]
 295              	.LVL14:
 296              		.loc 1 133 21 view .LVU91
 297 0058 60009FE5 		ldr	r0, .L30+16
 298 005c 1119A0E1 		lsl	r1, r1, r9
 299 0060 FEFFFFEB 		bl	__aeabi_uidiv
 300              	.LVL15:
 301              		.loc 1 133 21 view .LVU92
 302 0064 010040E2 		sub	r0, r0, #1
 303              		.loc 1 135 3 view .LVU93
 304 0068 0210A0E3 		mov	r1, #2
 305              		.loc 1 133 19 view .LVU94
 306 006c 680084E5 		str	r0, [r4, #104]
 307              		.loc 1 135 3 is_stmt 1 view .LVU95
 308 0070 0E00A0E3 		mov	r0, #14
 309 0074 FEFFFFEB 		bl	bcm2835_gpio_fnsel
 310              	.LVL16:
 311              		.loc 1 136 3 view .LVU96
 312 0078 0210A0E3 		mov	r1, #2
 313 007c 0F00A0E3 		mov	r0, #15
 314 0080 FEFFFFEB 		bl	bcm2835_gpio_fnsel
 315              	.LVL17:
 316              		.loc 1 138 3 view .LVU97
 317              		.loc 1 139 3 is_stmt 0 view .LVU98
 318 0084 9600A0E3 		mov	r0, #150
 319              		.loc 1 138 9 view .LVU99
 320 0088 945086E5 		str	r5, [r6, #148]
 321              		.loc 1 139 3 is_stmt 1 view .LVU100
 322 008c FEFFFFEB 		bl	bcm2835_delay
 323              	.LVL18:
 324              		.loc 1 140 3 view .LVU101
 325              		.loc 1 140 13 is_stmt 0 view .LVU102
 326 0090 0339A0E3 		mov	r3, #49152
 327              		.loc 1 141 3 view .LVU103
 328 0094 9600A0E3 		mov	r0, #150
 329              		.loc 1 140 13 view .LVU104
 330 0098 983086E5 		str	r3, [r6, #152]
 331              		.loc 1 141 3 is_stmt 1 view .LVU105
 332 009c FEFFFFEB 		bl	bcm2835_delay
 333              	.LVL19:
 334              		.loc 1 142 3 view .LVU106
 335              		.loc 1 142 13 is_stmt 0 view .LVU107
 336 00a0 985086E5 		str	r5, [r6, #152]
 337              		.loc 1 144 3 is_stmt 1 view .LVU108
 338              		.loc 1 144 19 is_stmt 0 view .LVU109
 339 00a4 609084E5 		str	r9, [r4, #96]
 340              		.loc 1 146 3 is_stmt 1 view .LVU110
 341              		.loc 1 146 15 is_stmt 0 view .LVU111
 342 00a8 108287E5 		str	r8, [r7, #528]
ARM GAS  /tmp/ccCRVKmc.s 			page 7


 343              		.loc 1 147 1 view .LVU112
 344 00ac F087BDE8 		pop	{r4, r5, r6, r7, r8, r9, r10, pc}
 345              	.L31:
 346              		.align	2
 347              	.L30:
 348 00b0 00000000 		.word	.LANCHOR0
 349 00b4 00502120 		.word	539054080
 350 00b8 00B00020 		.word	536915968
 351 00bc 00002020 		.word	538968064
 352 00c0 80B2E60E 		.word	250000000
 353              		.cfi_endproc
 354              	.LFE10:
 355              		.size	sd_lld_start, .-sd_lld_start
 356              		.section	.text.sd_lld_stop,"ax",%progbits
 357              		.align	2
 358              		.global	sd_lld_stop
 359              		.syntax unified
 360              		.arm
 361              		.fpu softvfp
 362              		.type	sd_lld_stop, %function
 363              	sd_lld_stop:
 364              	.LVL20:
 365              	.LFB11:
 366              		.loc 1 158 37 is_stmt 1 view -0
 367              		.cfi_startproc
 368              		@ args = 0, pretend = 0, frame = 0
 369              		@ frame_needed = 0, uses_anonymous_args = 0
 370              		.loc 1 159 3 view .LVU114
 371              		.loc 1 161 3 view .LVU115
 372              		.loc 1 161 16 is_stmt 0 view .LVU116
 373 0000 28209FE5 		ldr	r2, .L34
 374              		.loc 1 158 37 view .LVU117
 375 0004 10402DE9 		push	{r4, lr}
 376              		.cfi_def_cfa_offset 8
 377              		.cfi_offset 4, -8
 378              		.cfi_offset 14, -4
 379              		.loc 1 161 16 view .LVU118
 380 0008 1C3292E5 		ldr	r3, [r2, #540]
 381              		.loc 1 162 3 view .LVU119
 382 000c 0010A0E3 		mov	r1, #0
 383              		.loc 1 161 16 view .LVU120
 384 0010 023283E3 		orr	r3, r3, #536870912
 385              		.loc 1 162 3 view .LVU121
 386 0014 0E00A0E3 		mov	r0, #14
 387              	.LVL21:
 388              		.loc 1 161 16 view .LVU122
 389 0018 1C3282E5 		str	r3, [r2, #540]
 390              		.loc 1 162 3 is_stmt 1 view .LVU123
 391 001c FEFFFFEB 		bl	bcm2835_gpio_fnsel
 392              	.LVL22:
 393              		.loc 1 163 3 view .LVU124
 394              		.loc 1 164 1 is_stmt 0 view .LVU125
 395 0020 1040BDE8 		pop	{r4, lr}
 396              		.cfi_restore 14
 397              		.cfi_restore 4
 398              		.cfi_def_cfa_offset 0
 399              		.loc 1 163 3 view .LVU126
ARM GAS  /tmp/ccCRVKmc.s 			page 8


 400 0024 0010A0E3 		mov	r1, #0
 401 0028 0F00A0E3 		mov	r0, #15
 402 002c FEFFFFEA 		b	bcm2835_gpio_fnsel
 403              	.LVL23:
 404              	.L35:
 405              		.align	2
 406              	.L34:
 407 0030 00B00020 		.word	536915968
 408              		.cfi_endproc
 409              	.LFE11:
 410              		.size	sd_lld_stop, .-sd_lld_stop
 411              		.section	.text.mini_uart_recv,"ax",%progbits
 412              		.align	2
 413              		.global	mini_uart_recv
 414              		.syntax unified
 415              		.arm
 416              		.fpu softvfp
 417              		.type	mini_uart_recv, %function
 418              	mini_uart_recv:
 419              	.LFB12:
 420              		.loc 1 167 1 is_stmt 1 view -0
 421              		.cfi_startproc
 422              		@ args = 0, pretend = 0, frame = 0
 423              		@ frame_needed = 0, uses_anonymous_args = 0
 424              		@ link register save eliminated.
 425              		.loc 1 168 3 view .LVU128
 426              		.loc 1 168 10 is_stmt 0 view .LVU129
 427 0000 14209FE5 		ldr	r2, .L40
 428              	.L37:
 429              		.loc 1 168 38 is_stmt 1 discriminator 1 view .LVU130
 430              		.loc 1 168 8 discriminator 1 view .LVU131
 431              		.loc 1 168 10 is_stmt 0 discriminator 1 view .LVU132
 432 0004 543092E5 		ldr	r3, [r2, #84]
 433              		.loc 1 168 8 discriminator 1 view .LVU133
 434 0008 010013E3 		tst	r3, #1
 435 000c FCFFFF0A 		beq	.L37
 436              		.loc 1 169 3 is_stmt 1 view .LVU134
 437              		.loc 1 169 24 is_stmt 0 view .LVU135
 438 0010 400092E5 		ldr	r0, [r2, #64]
 439              		.loc 1 170 1 view .LVU136
 440 0014 7000EFE6 		uxtb	r0, r0
 441 0018 1EFF2FE1 		bx	lr
 442              	.L41:
 443              		.align	2
 444              	.L40:
 445 001c 00502120 		.word	539054080
 446              		.cfi_endproc
 447              	.LFE12:
 448              		.size	mini_uart_recv, .-mini_uart_recv
 449              		.section	.text.mini_uart_send,"ax",%progbits
 450              		.align	2
 451              		.global	mini_uart_send
 452              		.syntax unified
 453              		.arm
 454              		.fpu softvfp
 455              		.type	mini_uart_send, %function
 456              	mini_uart_send:
ARM GAS  /tmp/ccCRVKmc.s 			page 9


 457              	.LVL24:
 458              	.LFB13:
 459              		.loc 1 173 1 is_stmt 1 view -0
 460              		.cfi_startproc
 461              		@ args = 0, pretend = 0, frame = 0
 462              		@ frame_needed = 0, uses_anonymous_args = 0
 463              		@ link register save eliminated.
 464              		.loc 1 174 3 view .LVU138
 465              		.loc 1 174 10 is_stmt 0 view .LVU139
 466 0000 10209FE5 		ldr	r2, .L46
 467              	.L43:
 468              		.loc 1 174 38 is_stmt 1 discriminator 1 view .LVU140
 469              		.loc 1 174 8 discriminator 1 view .LVU141
 470              		.loc 1 174 10 is_stmt 0 discriminator 1 view .LVU142
 471 0004 543092E5 		ldr	r3, [r2, #84]
 472              		.loc 1 174 8 discriminator 1 view .LVU143
 473 0008 200013E3 		tst	r3, #32
 474 000c FCFFFF0A 		beq	.L43
 475              		.loc 1 175 3 is_stmt 1 view .LVU144
 476              		.loc 1 175 17 is_stmt 0 view .LVU145
 477 0010 400082E5 		str	r0, [r2, #64]
 478              		.loc 1 176 1 view .LVU146
 479 0014 1EFF2FE1 		bx	lr
 480              	.L47:
 481              		.align	2
 482              	.L46:
 483 0018 00502120 		.word	539054080
 484              		.cfi_endproc
 485              	.LFE13:
 486              		.size	mini_uart_send, .-mini_uart_send
 487              		.section	.text.mini_uart_sendstr,"ax",%progbits
 488              		.align	2
 489              		.global	mini_uart_sendstr
 490              		.syntax unified
 491              		.arm
 492              		.fpu softvfp
 493              		.type	mini_uart_sendstr, %function
 494              	mini_uart_sendstr:
 495              	.LVL25:
 496              	.LFB14:
 497              		.loc 1 179 1 is_stmt 1 view -0
 498              		.cfi_startproc
 499              		@ args = 0, pretend = 0, frame = 0
 500              		@ frame_needed = 0, uses_anonymous_args = 0
 501              		@ link register save eliminated.
 502              		.loc 1 180 3 view .LVU148
 503              		.loc 1 181 3 view .LVU149
 504              		.loc 1 181 8 view .LVU150
 505              		.loc 1 181 12 is_stmt 0 view .LVU151
 506 0000 0110D0E4 		ldrb	r1, [r0], #1	@ zero_extendqisi2
 507              	.LVL26:
 508              		.loc 1 181 8 view .LVU152
 509 0004 000051E3 		cmp	r1, #0
 510 0008 1EFF2F01 		bxeq	lr
 511              	.LBB19:
 512              	.LBB20:
 513              		.loc 1 174 10 view .LVU153
ARM GAS  /tmp/ccCRVKmc.s 			page 10


 514 000c 1C209FE5 		ldr	r2, .L58
 515              	.LVL27:
 516              	.L50:
 517              		.loc 1 174 38 is_stmt 1 view .LVU154
 518              		.loc 1 174 8 view .LVU155
 519              		.loc 1 174 10 is_stmt 0 view .LVU156
 520 0010 543092E5 		ldr	r3, [r2, #84]
 521              		.loc 1 174 8 view .LVU157
 522 0014 200013E3 		tst	r3, #32
 523 0018 FCFFFF0A 		beq	.L50
 524              		.loc 1 175 3 is_stmt 1 view .LVU158
 525              		.loc 1 175 17 is_stmt 0 view .LVU159
 526 001c 401082E5 		str	r1, [r2, #64]
 527              		.loc 1 175 17 view .LVU160
 528              	.LBE20:
 529              	.LBE19:
 530              		.loc 1 181 8 is_stmt 1 view .LVU161
 531              	.LVL28:
 532              		.loc 1 181 12 is_stmt 0 view .LVU162
 533 0020 0110D0E4 		ldrb	r1, [r0], #1	@ zero_extendqisi2
 534              	.LVL29:
 535              		.loc 1 181 8 view .LVU163
 536 0024 000051E3 		cmp	r1, #0
 537 0028 F8FFFF1A 		bne	.L50
 538 002c 1EFF2FE1 		bx	lr
 539              	.L59:
 540              		.align	2
 541              	.L58:
 542 0030 00502120 		.word	539054080
 543              		.cfi_endproc
 544              	.LFE14:
 545              		.size	mini_uart_sendstr, .-mini_uart_sendstr
 546              		.section	.text.mini_uart_sendhex,"ax",%progbits
 547              		.align	2
 548              		.global	mini_uart_sendhex
 549              		.syntax unified
 550              		.arm
 551              		.fpu softvfp
 552              		.type	mini_uart_sendhex, %function
 553              	mini_uart_sendhex:
 554              	.LVL30:
 555              	.LFB15:
 556              		.loc 1 185 1 is_stmt 1 view -0
 557              		.cfi_startproc
 558              		@ args = 0, pretend = 0, frame = 0
 559              		@ frame_needed = 0, uses_anonymous_args = 0
 560              		.loc 1 186 3 view .LVU165
 561              		.loc 1 187 3 view .LVU166
 562              		.loc 1 189 3 view .LVU167
 563              		.loc 1 185 1 is_stmt 0 view .LVU168
 564 0000 04E02DE5 		str	lr, [sp, #-4]!
 565              		.cfi_def_cfa_offset 4
 566              		.cfi_offset 14, -4
 567              		.loc 1 189 5 view .LVU169
 568 0004 20E0A0E3 		mov	lr, #32
 569              	.LBB21:
 570              	.LBB22:
ARM GAS  /tmp/ccCRVKmc.s 			page 11


 571              		.loc 1 174 10 view .LVU170
 572 0008 80209FE5 		ldr	r2, .L82
 573              	.LVL31:
 574              	.L64:
 575              		.loc 1 174 10 view .LVU171
 576              	.LBE22:
 577              	.LBE21:
 578              		.loc 1 190 3 is_stmt 1 view .LVU172
 579              		.loc 1 192 5 view .LVU173
 580              		.loc 1 192 7 is_stmt 0 view .LVU174
 581 000c 04E04EE2 		sub	lr, lr, #4
 582              	.LVL32:
 583              		.loc 1 193 5 is_stmt 1 view .LVU175
 584              		.loc 1 193 10 is_stmt 0 view .LVU176
 585 0010 303EA0E1 		lsr	r3, r0, lr
 586              		.loc 1 193 7 view .LVU177
 587 0014 0F3003E2 		and	r3, r3, #15
 588              	.LVL33:
 589              		.loc 1 194 5 is_stmt 1 view .LVU178
 590              		.loc 1 194 7 is_stmt 0 view .LVU179
 591 0018 090053E3 		cmp	r3, #9
 592              		.loc 1 195 7 is_stmt 1 view .LVU180
 593              		.loc 1 195 9 is_stmt 0 view .LVU181
 594 001c 37C08382 		addhi	ip, r3, #55
 595              	.LVL34:
 596              		.loc 1 197 7 is_stmt 1 view .LVU182
 597              		.loc 1 197 9 is_stmt 0 view .LVU183
 598 0020 30C08392 		addls	ip, r3, #48
 599              	.LVL35:
 600              		.loc 1 198 5 is_stmt 1 view .LVU184
 601              	.LBB25:
 602              	.LBI21:
 603              		.loc 1 172 6 view .LVU185
 604              	.LBB23:
 605              		.loc 1 174 3 view .LVU186
 606              	.L63:
 607              		.loc 1 174 38 view .LVU187
 608              		.loc 1 174 8 view .LVU188
 609              		.loc 1 174 10 is_stmt 0 view .LVU189
 610 0024 543092E5 		ldr	r3, [r2, #84]
 611              		.loc 1 174 8 view .LVU190
 612 0028 200013E3 		tst	r3, #32
 613 002c FCFFFF0A 		beq	.L63
 614              		.loc 1 175 3 is_stmt 1 view .LVU191
 615              	.LBE23:
 616              	.LBE25:
 617              		.loc 1 199 7 is_stmt 0 view .LVU192
 618 0030 00005EE3 		cmp	lr, #0
 619              	.LBB26:
 620              	.LBB24:
 621              		.loc 1 175 17 view .LVU193
 622 0034 40C082E5 		str	ip, [r2, #64]
 623              	.LVL36:
 624              		.loc 1 175 17 view .LVU194
 625              	.LBE24:
 626              	.LBE26:
 627              		.loc 1 199 5 is_stmt 1 view .LVU195
ARM GAS  /tmp/ccCRVKmc.s 			page 12


 628              		.loc 1 199 7 is_stmt 0 view .LVU196
 629 0038 F3FFFF1A 		bne	.L64
 630              	.LBB27:
 631              	.LBB28:
 632              		.loc 1 174 10 view .LVU197
 633 003c 4C209FE5 		ldr	r2, .L82
 634              	.L65:
 635              		.loc 1 174 38 is_stmt 1 view .LVU198
 636              		.loc 1 174 8 view .LVU199
 637              		.loc 1 174 10 is_stmt 0 view .LVU200
 638 0040 543092E5 		ldr	r3, [r2, #84]
 639              		.loc 1 174 8 view .LVU201
 640 0044 200013E3 		tst	r3, #32
 641 0048 FCFFFF0A 		beq	.L65
 642              		.loc 1 175 3 is_stmt 1 view .LVU202
 643              		.loc 1 175 17 is_stmt 0 view .LVU203
 644 004c 2030A0E3 		mov	r3, #32
 645              	.LBE28:
 646              	.LBE27:
 647              		.loc 1 204 6 view .LVU204
 648 0050 000051E3 		cmp	r1, #0
 649              	.LBB30:
 650              	.LBB29:
 651              		.loc 1 175 17 view .LVU205
 652 0054 403082E5 		str	r3, [r2, #64]
 653              	.LBE29:
 654              	.LBE30:
 655              		.loc 1 204 3 is_stmt 1 view .LVU206
 656              		.loc 1 204 6 is_stmt 0 view .LVU207
 657 0058 04F09D04 		ldreq	pc, [sp], #4
 658              	.LBB31:
 659              	.LBB32:
 660              		.loc 1 174 10 view .LVU208
 661 005c 2C109FE5 		ldr	r1, .L82
 662              	.LVL37:
 663              	.L67:
 664              		.loc 1 174 38 is_stmt 1 view .LVU209
 665              		.loc 1 174 8 view .LVU210
 666              		.loc 1 174 10 is_stmt 0 view .LVU211
 667 0060 543091E5 		ldr	r3, [r1, #84]
 668              		.loc 1 174 8 view .LVU212
 669 0064 200013E3 		tst	r3, #32
 670 0068 FCFFFF0A 		beq	.L67
 671              		.loc 1 175 3 is_stmt 1 view .LVU213
 672              		.loc 1 175 17 is_stmt 0 view .LVU214
 673 006c 0D30A0E3 		mov	r3, #13
 674              	.LBE32:
 675              	.LBE31:
 676              	.LBB34:
 677              	.LBB35:
 678              		.loc 1 174 10 view .LVU215
 679 0070 18209FE5 		ldr	r2, .L82
 680              	.LBE35:
 681              	.LBE34:
 682              	.LBB37:
 683              	.LBB33:
 684              		.loc 1 175 17 view .LVU216
ARM GAS  /tmp/ccCRVKmc.s 			page 13


 685 0074 403081E5 		str	r3, [r1, #64]
 686              	.L68:
 687              	.LBE33:
 688              	.LBE37:
 689              	.LBB38:
 690              	.LBB36:
 691              		.loc 1 174 38 is_stmt 1 view .LVU217
 692              		.loc 1 174 8 view .LVU218
 693              		.loc 1 174 10 is_stmt 0 view .LVU219
 694 0078 543092E5 		ldr	r3, [r2, #84]
 695              		.loc 1 174 8 view .LVU220
 696 007c 200013E3 		tst	r3, #32
 697 0080 FCFFFF0A 		beq	.L68
 698              		.loc 1 175 3 is_stmt 1 view .LVU221
 699              		.loc 1 175 17 is_stmt 0 view .LVU222
 700 0084 0A30A0E3 		mov	r3, #10
 701 0088 403082E5 		str	r3, [r2, #64]
 702              	.LBE36:
 703              	.LBE38:
 704              		.loc 1 208 1 view .LVU223
 705 008c 04F09DE4 		ldr	pc, [sp], #4
 706              	.L83:
 707              		.align	2
 708              	.L82:
 709 0090 00502120 		.word	539054080
 710              		.cfi_endproc
 711              	.LFE15:
 712              		.size	mini_uart_sendhex, .-mini_uart_sendhex
 713              		.comm	SD1,116,4
 714              		.section	.rodata.default_config,"a"
 715              		.align	2
 716              		.set	.LANCHOR0,. + 0
 717              		.type	default_config, %object
 718              		.size	default_config, 4
 719              	default_config:
 720 0000 00C20100 		.word	115200
 721              		.text
 722              	.Letext0:
 723              		.file 2 "/usr/lib/gcc/arm-none-eabi/9.2.1/include/stddef.h"
 724              		.file 3 "/usr/lib/gcc/arm-none-eabi/9.2.1/include/stdint.h"
 725              		.file 4 "../os/ports/GCC/ARM/chtypes.h"
 726              		.file 5 "../os/kernel/include/chlists.h"
 727              		.file 6 "../os/kernel/include/chthreads.h"
 728              		.file 7 "../os/ports/GCC/ARM/chcore.h"
 729              		.file 8 "../os/kernel/include/chvt.h"
 730              		.file 9 "../os/kernel/include/chschd.h"
 731              		.file 10 "../os/kernel/include/chmtx.h"
 732              		.file 11 "../os/kernel/include/chevents.h"
 733              		.file 12 "../os/kernel/include/chregistry.h"
 734              		.file 13 "../os/kernel/include/chqueues.h"
 735              		.file 14 "../os/kernel/include/ch.h"
 736              		.file 15 "../os/hal/platforms/BCM2835/bcm2835.h"
 737              		.file 16 "../os/hal/platforms/BCM2835/pal_lld.h"
 738              		.file 17 "../os/hal/include/i2c.h"
 739              		.file 18 "../os/hal/platforms/BCM2835/i2c_lld.h"
 740              		.file 19 "../os/hal/include/serial.h"
 741              		.file 20 "../os/hal/platforms/BCM2835/serial_lld.h"
ARM GAS  /tmp/ccCRVKmc.s 			page 14


 742              		.file 21 "../os/hal/include/spi.h"
 743              		.file 22 "../os/hal/platforms/BCM2835/spi_lld.h"