ARM GAS  /tmp/ccEbIMc7.s 			page 1


   1              		.cpu arm1176jz-s
   2              		.eabi_attribute 20, 1
   3              		.eabi_attribute 21, 1
   4              		.eabi_attribute 23, 3
   5              		.eabi_attribute 24, 1
   6              		.eabi_attribute 25, 1
   7              		.eabi_attribute 26, 1
   8              		.eabi_attribute 30, 2
   9              		.eabi_attribute 34, 1
  10              		.eabi_attribute 18, 4
  11              		.file	"shell.c"
  12              		.text
  13              	.Ltext0:
  14              		.cfi_sections	.debug_frame
  15              		.section	.rodata.cmd_systime.str1.4,"aMS",%progbits,1
  16              		.align	2
  17              	.LC0:
  18 0000 73797374 		.ascii	"systime\000"
  18      696D6500 
  19              		.align	2
  20              	.LC1:
  21 0008 55736167 		.ascii	"Usage: %s\015\012\000"
  21      653A2025 
  21      730D0A00 
  22              		.align	2
  23              	.LC2:
  24 0014 256C750D 		.ascii	"%lu\015\012\000"
  24      0A00
  25              		.section	.text.cmd_systime,"ax",%progbits
  26              		.align	2
  27              		.arch armv6kz
  28              		.syntax unified
  29              		.arm
  30              		.fpu softvfp
  31              		.type	cmd_systime, %function
  32              	cmd_systime:
  33              	.LVL0:
  34              	.LFB11:
  35              		.file 1 "../os/various/shell.c"
  36              		.loc 1 103 76 view -0
  37              		.cfi_startproc
  38              		@ args = 0, pretend = 0, frame = 0
  39              		@ frame_needed = 0, uses_anonymous_args = 0
  40              		@ link register save eliminated.
  41              		.loc 1 105 3 view .LVU1
  42              		.loc 1 106 3 view .LVU2
  43              		.loc 1 106 6 is_stmt 0 view .LVU3
  44 0000 000051E3 		cmp	r1, #0
  45 0004 030000CA 		bgt	.L4
  46              		.loc 1 110 3 is_stmt 1 view .LVU4
  47              		.loc 1 110 43 is_stmt 0 view .LVU5
  48 0008 14309FE5 		ldr	r3, .L5
  49              		.loc 1 110 3 view .LVU6
  50 000c 14109FE5 		ldr	r1, .L5+4
  51              	.LVL1:
  52              		.loc 1 110 43 view .LVU7
  53 0010 0C2093E5 		ldr	r2, [r3, #12]
ARM GAS  /tmp/ccEbIMc7.s 			page 2


  54              	.LVL2:
  55              		.loc 1 110 3 view .LVU8
  56 0014 FEFFFFEA 		b	chprintf
  57              	.LVL3:
  58              	.L4:
  59              	.LBB22:
  60              	.LBI22:
  61              		.loc 1 103 13 is_stmt 1 view .LVU9
  62              	.LBB23:
  63              		.loc 1 107 5 view .LVU10
  64              	.LBB24:
  65              	.LBI24:
  66              		.loc 1 58 13 view .LVU11
  67              	.LBB25:
  68              		.loc 1 60 3 view .LVU12
  69 0018 0C209FE5 		ldr	r2, .L5+8
  70              	.LVL4:
  71              		.loc 1 60 3 is_stmt 0 view .LVU13
  72 001c 0C109FE5 		ldr	r1, .L5+12
  73              	.LVL5:
  74              		.loc 1 60 3 view .LVU14
  75 0020 FEFFFFEA 		b	chprintf
  76              	.LVL6:
  77              	.L6:
  78              		.loc 1 60 3 view .LVU15
  79              		.align	2
  80              	.L5:
  81 0024 00000000 		.word	vtlist
  82 0028 14000000 		.word	.LC2
  83 002c 00000000 		.word	.LC0
  84 0030 08000000 		.word	.LC1
  85              	.LBE25:
  86              	.LBE24:
  87              	.LBE23:
  88              	.LBE22:
  89              		.cfi_endproc
  90              	.LFE11:
  91              		.size	cmd_systime, .-cmd_systime
  92              		.section	.rodata.cmd_info.str1.4,"aMS",%progbits,1
  93              		.align	2
  94              	.LC3:
  95 0000 696E666F 		.ascii	"info\000"
  95      00
  96 0005 000000   		.align	2
  97              	.LC4:
  98 0008 322E352E 		.ascii	"2.5.1unstable\000"
  98      31756E73 
  98      7461626C 
  98      6500
  99 0016 0000     		.align	2
 100              	.LC5:
 101 0018 4B65726E 		.ascii	"Kernel:       %s\015\012\000"
 101      656C3A20 
 101      20202020 
 101      20202573 
 101      0D0A00
 102 002b 00       		.align	2
ARM GAS  /tmp/ccEbIMc7.s 			page 3


 103              	.LC6:
 104 002c 47434320 		.ascii	"GCC 9.2.1 20191025 (release) [ARM/arm-9-branch revi"
 104      392E322E 
 104      31203230 
 104      31393130 
 104      32352028 
 105 005f 73696F6E 		.ascii	"sion 277599]\000"
 105      20323737 
 105      3539395D 
 105      00
 106              		.align	2
 107              	.LC7:
 108 006c 436F6D70 		.ascii	"Compiler:     %s\015\012\000"
 108      696C6572 
 108      3A202020 
 108      20202573 
 108      0D0A00
 109 007f 00       		.align	2
 110              	.LC8:
 111 0080 41524D31 		.ascii	"ARM11\000"
 111      3100
 112 0086 0000     		.align	2
 113              	.LC9:
 114 0088 41726368 		.ascii	"Architecture: %s\015\012\000"
 114      69746563 
 114      74757265 
 114      3A202573 
 114      0D0A00
 115 009b 00       		.align	2
 116              	.LC10:
 117 009c 41524D31 		.ascii	"ARM1176JZF-S\000"
 117      3137364A 
 117      5A462D53 
 117      00
 118 00a9 000000   		.align	2
 119              	.LC11:
 120 00ac 436F7265 		.ascii	"Core Variant: %s\015\012\000"
 120      20566172 
 120      69616E74 
 120      3A202573 
 120      0D0A00
 121 00bf 00       		.align	2
 122              	.LC12:
 123 00c0 50757265 		.ascii	"Pure ARM mode\000"
 123      2041524D 
 123      206D6F64 
 123      6500
 124 00ce 0000     		.align	2
 125              	.LC13:
 126 00d0 506F7274 		.ascii	"Port Info:    %s\015\012\000"
 126      20496E66 
 126      6F3A2020 
 126      20202573 
 126      0D0A00
 127 00e3 00       		.align	2
 128              	.LC14:
 129 00e4 42434D32 		.ascii	"BCM2835\000"
ARM GAS  /tmp/ccEbIMc7.s 			page 4


 129      38333500 
 130              		.align	2
 131              	.LC15:
 132 00ec 506C6174 		.ascii	"Platform:     %s\015\012\000"
 132      666F726D 
 132      3A202020 
 132      20202573 
 132      0D0A00
 133 00ff 00       		.align	2
 134              	.LC16:
 135 0100 202D2000 		.ascii	" - \000"
 136              		.align	2
 137              	.LC17:
 138 0104 44656320 		.ascii	"Dec  6 2021\000"
 138      20362032 
 138      30323100 
 139              		.align	2
 140              	.LC18:
 141 0110 4275696C 		.ascii	"Build time:   %s%s%s\015\012\000"
 141      64207469 
 141      6D653A20 
 141      20202573 
 141      25732573 
 142 0127 00       		.align	2
 143              	.LC19:
 144 0128 30313A33 		.ascii	"01:30:55\000"
 144      303A3535 
 144      00
 145              		.section	.text.cmd_info,"ax",%progbits
 146              		.align	2
 147              		.syntax unified
 148              		.arm
 149              		.fpu softvfp
 150              		.type	cmd_info, %function
 151              	cmd_info:
 152              	.LVL7:
 153              	.LFB10:
 154              		.loc 1 71 73 is_stmt 1 view -0
 155              		.cfi_startproc
 156              		@ args = 0, pretend = 0, frame = 0
 157              		@ frame_needed = 0, uses_anonymous_args = 0
 158              		.loc 1 74 6 is_stmt 0 view .LVU17
 159 0000 000051E3 		cmp	r1, #0
 160              		.loc 1 73 3 is_stmt 1 view .LVU18
 161              		.loc 1 74 3 view .LVU19
 162              		.loc 1 74 6 is_stmt 0 view .LVU20
 163 0004 220000CA 		bgt	.L11
 164              		.loc 1 71 73 view .LVU21
 165 0008 10402DE9 		push	{r4, lr}
 166              		.cfi_def_cfa_offset 8
 167              		.cfi_offset 4, -8
 168              		.cfi_offset 14, -4
 169 000c 0040A0E1 		mov	r4, r0
 170              		.loc 1 79 3 is_stmt 1 view .LVU22
 171              		.loc 1 71 73 is_stmt 0 view .LVU23
 172 0010 08D04DE2 		sub	sp, sp, #8
 173              		.cfi_def_cfa_offset 16
ARM GAS  /tmp/ccEbIMc7.s 			page 5


 174              		.loc 1 79 3 view .LVU24
 175 0014 84209FE5 		ldr	r2, .L12
 176              	.LVL8:
 177              		.loc 1 79 3 view .LVU25
 178 0018 84109FE5 		ldr	r1, .L12+4
 179              	.LVL9:
 180              		.loc 1 79 3 view .LVU26
 181 001c FEFFFFEB 		bl	chprintf
 182              	.LVL10:
 183              		.loc 1 81 3 is_stmt 1 view .LVU27
 184 0020 0400A0E1 		mov	r0, r4
 185 0024 7C209FE5 		ldr	r2, .L12+8
 186 0028 7C109FE5 		ldr	r1, .L12+12
 187 002c FEFFFFEB 		bl	chprintf
 188              	.LVL11:
 189              		.loc 1 83 3 view .LVU28
 190 0030 0400A0E1 		mov	r0, r4
 191 0034 74209FE5 		ldr	r2, .L12+16
 192 0038 74109FE5 		ldr	r1, .L12+20
 193 003c FEFFFFEB 		bl	chprintf
 194              	.LVL12:
 195              		.loc 1 85 3 view .LVU29
 196 0040 0400A0E1 		mov	r0, r4
 197 0044 6C209FE5 		ldr	r2, .L12+24
 198 0048 6C109FE5 		ldr	r1, .L12+28
 199 004c FEFFFFEB 		bl	chprintf
 200              	.LVL13:
 201              		.loc 1 88 3 view .LVU30
 202 0050 0400A0E1 		mov	r0, r4
 203 0054 64209FE5 		ldr	r2, .L12+32
 204 0058 64109FE5 		ldr	r1, .L12+36
 205 005c FEFFFFEB 		bl	chprintf
 206              	.LVL14:
 207              		.loc 1 91 3 view .LVU31
 208 0060 0400A0E1 		mov	r0, r4
 209 0064 5C209FE5 		ldr	r2, .L12+40
 210 0068 5C109FE5 		ldr	r1, .L12+44
 211 006c FEFFFFEB 		bl	chprintf
 212              	.LVL15:
 213              		.loc 1 98 3 view .LVU32
 214 0070 58309FE5 		ldr	r3, .L12+48
 215 0074 0400A0E1 		mov	r0, r4
 216 0078 00308DE5 		str	r3, [sp]
 217 007c 50209FE5 		ldr	r2, .L12+52
 218 0080 50309FE5 		ldr	r3, .L12+56
 219 0084 50109FE5 		ldr	r1, .L12+60
 220 0088 FEFFFFEB 		bl	chprintf
 221              	.LVL16:
 222              		.loc 1 101 1 is_stmt 0 view .LVU33
 223 008c 08D08DE2 		add	sp, sp, #8
 224              		.cfi_def_cfa_offset 8
 225              		@ sp needed
 226 0090 1080BDE8 		pop	{r4, pc}
 227              	.LVL17:
 228              	.L11:
 229              		.cfi_def_cfa_offset 0
 230              		.cfi_restore 4
ARM GAS  /tmp/ccEbIMc7.s 			page 6


 231              		.cfi_restore 14
 232              	.LBB30:
 233              	.LBI30:
 234              		.loc 1 71 13 is_stmt 1 view .LVU34
 235              	.LBB31:
 236              		.loc 1 75 5 view .LVU35
 237              	.LBB32:
 238              	.LBI32:
 239              		.loc 1 58 13 view .LVU36
 240              	.LBB33:
 241              		.loc 1 60 3 view .LVU37
 242 0094 44209FE5 		ldr	r2, .L12+64
 243              	.LVL18:
 244              		.loc 1 60 3 is_stmt 0 view .LVU38
 245 0098 44109FE5 		ldr	r1, .L12+68
 246              	.LVL19:
 247              		.loc 1 60 3 view .LVU39
 248 009c FEFFFFEA 		b	chprintf
 249              	.LVL20:
 250              	.L13:
 251              		.loc 1 60 3 view .LVU40
 252              		.align	2
 253              	.L12:
 254 00a0 08000000 		.word	.LC4
 255 00a4 18000000 		.word	.LC5
 256 00a8 2C000000 		.word	.LC6
 257 00ac 6C000000 		.word	.LC7
 258 00b0 80000000 		.word	.LC8
 259 00b4 88000000 		.word	.LC9
 260 00b8 9C000000 		.word	.LC10
 261 00bc AC000000 		.word	.LC11
 262 00c0 C0000000 		.word	.LC12
 263 00c4 D0000000 		.word	.LC13
 264 00c8 E4000000 		.word	.LC14
 265 00cc EC000000 		.word	.LC15
 266 00d0 28010000 		.word	.LC19
 267 00d4 04010000 		.word	.LC17
 268 00d8 00010000 		.word	.LC16
 269 00dc 10010000 		.word	.LC18
 270 00e0 00000000 		.word	.LC3
 271 00e4 08000000 		.word	.LC1
 272              	.LBE33:
 273              	.LBE32:
 274              	.LBE31:
 275              	.LBE30:
 276              		.cfi_endproc
 277              	.LFE10:
 278              		.size	cmd_info, .-cmd_info
 279              		.section	.text._strtok.constprop.0,"ax",%progbits
 280              		.align	2
 281              		.syntax unified
 282              		.arm
 283              		.fpu softvfp
 284              		.type	_strtok.constprop.0, %function
 285              	_strtok.constprop.0:
 286              	.LVL21:
 287              	.LFB20:
ARM GAS  /tmp/ccEbIMc7.s 			page 7


 288              		.loc 1 41 14 is_stmt 1 view -0
 289              		.cfi_startproc
 290              		@ args = 0, pretend = 0, frame = 0
 291              		@ frame_needed = 0, uses_anonymous_args = 0
 292              		.loc 1 42 3 view .LVU42
 293              		.loc 1 43 3 view .LVU43
 294              		.loc 1 41 14 is_stmt 0 view .LVU44
 295 0000 70402DE9 		push	{r4, r5, r6, lr}
 296              		.cfi_def_cfa_offset 16
 297              		.cfi_offset 4, -16
 298              		.cfi_offset 5, -12
 299              		.cfi_offset 6, -8
 300              		.cfi_offset 14, -4
 301              		.loc 1 43 6 view .LVU45
 302 0004 004050E2 		subs	r4, r0, #0
 303              		.loc 1 41 14 view .LVU46
 304 0008 0150A0E1 		mov	r5, r1
 305              		.loc 1 44 14 view .LVU47
 306 000c 00408115 		strne	r4, [r1]
 307              		.loc 1 43 6 view .LVU48
 308 0010 1100000A 		beq	.L25
 309              	.L16:
 310              	.LVL22:
 311              		.loc 1 50 3 is_stmt 1 view .LVU49
 312              		.loc 1 50 12 is_stmt 0 view .LVU50
 313 0014 0400A0E1 		mov	r0, r4
 314              	.LVL23:
 315              		.loc 1 50 12 view .LVU51
 316 0018 54109FE5 		ldr	r1, .L26
 317              	.LVL24:
 318              		.loc 1 50 12 view .LVU52
 319 001c FEFFFFEB 		bl	strspn
 320              	.LVL25:
 321              		.loc 1 50 9 view .LVU53
 322 0020 004084E0 		add	r4, r4, r0
 323              	.LVL26:
 324              		.loc 1 51 3 is_stmt 1 view .LVU54
 325              		.loc 1 51 14 is_stmt 0 view .LVU55
 326 0024 0400A0E1 		mov	r0, r4
 327 0028 2010A0E3 		mov	r1, #32
 328 002c FEFFFFEB 		bl	strchr
 329              	.LVL27:
 330              		.loc 1 52 3 is_stmt 1 view .LVU56
 331              		.loc 1 52 6 is_stmt 0 view .LVU57
 332 0030 000050E3 		cmp	r0, #0
 333              		.loc 1 53 19 view .LVU58
 334 0034 0030A013 		movne	r3, #0
 335              		.loc 1 53 16 view .LVU59
 336 0038 01208012 		addne	r2, r0, #1
 337 003c 00208515 		strne	r2, [r5]
 338              		.loc 1 51 12 view .LVU60
 339 0040 00008505 		streq	r0, [r5]
 340              		.loc 1 53 5 is_stmt 1 view .LVU61
 341              		.loc 1 53 19 is_stmt 0 view .LVU62
 342 0044 0030C015 		strbne	r3, [r0]
 343              		.loc 1 55 3 is_stmt 1 view .LVU63
 344              		.loc 1 55 25 is_stmt 0 view .LVU64
ARM GAS  /tmp/ccEbIMc7.s 			page 8


 345 0048 0030D4E5 		ldrb	r3, [r4]	@ zero_extendqisi2
 346 004c 000053E3 		cmp	r3, #0
 347 0050 0400000A 		beq	.L20
 348              		.loc 1 56 1 view .LVU65
 349 0054 0400A0E1 		mov	r0, r4
 350 0058 7080BDE8 		pop	{r4, r5, r6, pc}
 351              	.LVL28:
 352              	.L25:
 353              		.loc 1 45 3 is_stmt 1 view .LVU66
 354              		.loc 1 45 9 is_stmt 0 view .LVU67
 355 005c 004091E5 		ldr	r4, [r1]
 356              	.LVL29:
 357              		.loc 1 47 3 is_stmt 1 view .LVU68
 358              		.loc 1 47 6 is_stmt 0 view .LVU69
 359 0060 000054E3 		cmp	r4, #0
 360 0064 EAFFFF1A 		bne	.L16
 361              	.LVL30:
 362              	.L20:
 363              		.loc 1 48 12 view .LVU70
 364 0068 0040A0E3 		mov	r4, #0
 365              	.LVL31:
 366              		.loc 1 56 1 view .LVU71
 367 006c 0400A0E1 		mov	r0, r4
 368 0070 7080BDE8 		pop	{r4, r5, r6, pc}
 369              	.L27:
 370              		.align	2
 371              	.L26:
 372 0074 00000000 		.word	.LANCHOR0
 373              		.cfi_endproc
 374              	.LFE20:
 375              		.size	_strtok.constprop.0, .-_strtok.constprop.0
 376              		.section	.text.shellInit,"ax",%progbits
 377              		.align	2
 378              		.global	shellInit
 379              		.syntax unified
 380              		.arm
 381              		.fpu softvfp
 382              		.type	shellInit, %function
 383              	shellInit:
 384              	.LFB14:
 385              		.loc 1 208 22 is_stmt 1 view -0
 386              		.cfi_startproc
 387              		@ args = 0, pretend = 0, frame = 0
 388              		@ frame_needed = 0, uses_anonymous_args = 0
 389              		@ link register save eliminated.
 390              		.loc 1 210 3 view .LVU73
 391 0000 04309FE5 		ldr	r3, .L29
 392 0004 003083E5 		str	r3, [r3]
 393              		.loc 1 211 1 is_stmt 0 view .LVU74
 394 0008 1EFF2FE1 		bx	lr
 395              	.L30:
 396              		.align	2
 397              	.L29:
 398 000c 00000000 		.word	shell_terminated
 399              		.cfi_endproc
 400              	.LFE14:
 401              		.size	shellInit, .-shellInit
ARM GAS  /tmp/ccEbIMc7.s 			page 9


 402              		.section	.text.shellCreate,"ax",%progbits
 403              		.align	2
 404              		.global	shellCreate
 405              		.syntax unified
 406              		.arm
 407              		.fpu softvfp
 408              		.type	shellCreate, %function
 409              	shellCreate:
 410              	.LVL32:
 411              	.LFB15:
 412              		.loc 1 224 72 is_stmt 1 view -0
 413              		.cfi_startproc
 414              		@ args = 0, pretend = 0, frame = 0
 415              		@ frame_needed = 0, uses_anonymous_args = 0
 416              		.loc 1 226 3 view .LVU76
 417              		.loc 1 224 72 is_stmt 0 view .LVU77
 418 0000 04E02DE5 		str	lr, [sp, #-4]!
 419              		.cfi_def_cfa_offset 4
 420              		.cfi_offset 14, -4
 421 0004 0CD04DE2 		sub	sp, sp, #12
 422              		.cfi_def_cfa_offset 16
 423              		.loc 1 226 10 view .LVU78
 424 0008 00008DE5 		str	r0, [sp]
 425 000c 0C309FE5 		ldr	r3, .L33
 426 0010 0000A0E3 		mov	r0, #0
 427              	.LVL33:
 428              		.loc 1 226 10 view .LVU79
 429 0014 FEFFFFEB 		bl	chThdCreateFromHeap
 430              	.LVL34:
 431              		.loc 1 227 1 view .LVU80
 432 0018 0CD08DE2 		add	sp, sp, #12
 433              		.cfi_def_cfa_offset 4
 434              		@ sp needed
 435 001c 04F09DE4 		ldr	pc, [sp], #4
 436              	.L34:
 437              		.align	2
 438              	.L33:
 439 0020 00000000 		.word	shell_thread
 440              		.cfi_endproc
 441              	.LFE15:
 442              		.size	shellCreate, .-shellCreate
 443              		.section	.text.shellCreateStatic,"ax",%progbits
 444              		.align	2
 445              		.global	shellCreateStatic
 446              		.syntax unified
 447              		.arm
 448              		.fpu softvfp
 449              		.type	shellCreateStatic, %function
 450              	shellCreateStatic:
 451              	.LVL35:
 452              	.LFB16:
 453              		.loc 1 240 54 is_stmt 1 view -0
 454              		.cfi_startproc
 455              		@ args = 0, pretend = 0, frame = 0
 456              		@ frame_needed = 0, uses_anonymous_args = 0
 457              		.loc 1 242 3 view .LVU82
 458              		.loc 1 240 54 is_stmt 0 view .LVU83
ARM GAS  /tmp/ccEbIMc7.s 			page 10


 459 0000 04E02DE5 		str	lr, [sp, #-4]!
 460              		.cfi_def_cfa_offset 4
 461              		.cfi_offset 14, -4
 462 0004 0CD04DE2 		sub	sp, sp, #12
 463              		.cfi_def_cfa_offset 16
 464              		.loc 1 242 10 view .LVU84
 465 0008 00008DE5 		str	r0, [sp]
 466 000c 0100A0E1 		mov	r0, r1
 467              	.LVL36:
 468              		.loc 1 242 10 view .LVU85
 469 0010 0210A0E1 		mov	r1, r2
 470              	.LVL37:
 471              		.loc 1 242 10 view .LVU86
 472 0014 0320A0E1 		mov	r2, r3
 473              	.LVL38:
 474              		.loc 1 242 10 view .LVU87
 475 0018 08309FE5 		ldr	r3, .L37
 476              	.LVL39:
 477              		.loc 1 242 10 view .LVU88
 478 001c FEFFFFEB 		bl	chThdCreateStatic
 479              	.LVL40:
 480              		.loc 1 243 1 view .LVU89
 481 0020 0CD08DE2 		add	sp, sp, #12
 482              		.cfi_def_cfa_offset 4
 483              		@ sp needed
 484 0024 04F09DE4 		ldr	pc, [sp], #4
 485              	.L38:
 486              		.align	2
 487              	.L37:
 488 0028 00000000 		.word	shell_thread
 489              		.cfi_endproc
 490              	.LFE16:
 491              		.size	shellCreateStatic, .-shellCreateStatic
 492              		.section	.rodata.shellGetLine.str1.4,"aMS",%progbits,1
 493              		.align	2
 494              	.LC21:
 495 0000 5E4400   		.ascii	"^D\000"
 496 0003 00       		.align	2
 497              	.LC22:
 498 0004 0D0A00   		.ascii	"\015\012\000"
 499              		.section	.text.shellGetLine,"ax",%progbits
 500              		.align	2
 501              		.global	shellGetLine
 502              		.syntax unified
 503              		.arm
 504              		.fpu softvfp
 505              		.type	shellGetLine, %function
 506              	shellGetLine:
 507              	.LVL41:
 508              	.LFB17:
 509              		.loc 1 255 75 is_stmt 1 view -0
 510              		.cfi_startproc
 511              		@ args = 0, pretend = 0, frame = 8
 512              		@ frame_needed = 0, uses_anonymous_args = 0
 513              		.loc 1 256 3 view .LVU91
 514              		.loc 1 255 75 is_stmt 0 view .LVU92
 515 0000 F0402DE9 		push	{r4, r5, r6, r7, lr}
ARM GAS  /tmp/ccEbIMc7.s 			page 11


 516              		.cfi_def_cfa_offset 20
 517              		.cfi_offset 4, -20
 518              		.cfi_offset 5, -16
 519              		.cfi_offset 6, -12
 520              		.cfi_offset 7, -8
 521              		.cfi_offset 14, -4
 522 0004 0170A0E1 		mov	r7, r1
 523              	.LVL42:
 524              		.loc 1 255 75 view .LVU93
 525 0008 0040A0E1 		mov	r4, r0
 526 000c 0150A0E1 		mov	r5, r1
 527              	.LBB34:
 528              		.loc 1 283 25 view .LVU94
 529 0010 012042E2 		sub	r2, r2, #1
 530              	.LVL43:
 531              		.loc 1 283 25 view .LVU95
 532              	.LBE34:
 533              		.loc 1 255 75 view .LVU96
 534 0014 0CD04DE2 		sub	sp, sp, #12
 535              		.cfi_def_cfa_offset 32
 536              	.LBB35:
 537              		.loc 1 283 25 view .LVU97
 538 0018 026081E0 		add	r6, r1, r2
 539              	.LVL44:
 540              	.L40:
 541              		.loc 1 283 25 view .LVU98
 542              	.LBE35:
 543              		.loc 1 258 3 is_stmt 1 view .LVU99
 544              	.LBB36:
 545              		.loc 1 259 5 view .LVU100
 546              		.loc 1 261 5 view .LVU101
 547              		.loc 1 261 9 is_stmt 0 view .LVU102
 548 001c 003094E5 		ldr	r3, [r4]
 549 0020 0120A0E3 		mov	r2, #1
 550 0024 0400A0E1 		mov	r0, r4
 551 0028 043093E5 		ldr	r3, [r3, #4]
 552 002c 07108DE2 		add	r1, sp, #7
 553 0030 33FF2FE1 		blx	r3
 554              	.LVL45:
 555              		.loc 1 263 5 is_stmt 1 view .LVU103
 556              		.loc 1 267 5 view .LVU104
 557              		.loc 1 276 5 view .LVU105
 558              		.loc 1 281 5 view .LVU106
 559              		.loc 1 283 5 view .LVU107
 560              		.loc 1 261 8 is_stmt 0 view .LVU108
 561 0034 000050E3 		cmp	r0, #0
 562 0038 2300000A 		beq	.L48
 563              		.loc 1 263 11 view .LVU109
 564 003c 0710DDE5 		ldrb	r1, [sp, #7]	@ zero_extendqisi2
 565              		.loc 1 263 8 view .LVU110
 566 0040 040051E3 		cmp	r1, #4
 567 0044 2300000A 		beq	.L51
 568              		.loc 1 267 8 view .LVU111
 569 0048 080051E3 		cmp	r1, #8
 570 004c 0C00000A 		beq	.L52
 571              		.loc 1 276 8 view .LVU112
 572 0050 0D0051E3 		cmp	r1, #13
ARM GAS  /tmp/ccEbIMc7.s 			page 12


 573 0054 2500000A 		beq	.L53
 574              		.loc 1 281 8 view .LVU113
 575 0058 1F0051E3 		cmp	r1, #31
 576 005c EEFFFF9A 		bls	.L40
 577              		.loc 1 284 7 is_stmt 1 view .LVU114
 578              		.loc 1 283 8 is_stmt 0 view .LVU115
 579 0060 060055E1 		cmp	r5, r6
 580 0064 ECFFFF2A 		bcs	.L40
 581              		.loc 1 284 7 view .LVU116
 582 0068 003094E5 		ldr	r3, [r4]
 583 006c 0400A0E1 		mov	r0, r4
 584 0070 083093E5 		ldr	r3, [r3, #8]
 585 0074 33FF2FE1 		blx	r3
 586              	.LVL46:
 587              		.loc 1 285 7 is_stmt 1 view .LVU117
 588              		.loc 1 285 12 is_stmt 0 view .LVU118
 589 0078 0730DDE5 		ldrb	r3, [sp, #7]	@ zero_extendqisi2
 590 007c 0130C5E4 		strb	r3, [r5], #1
 591              	.LVL47:
 592              		.loc 1 285 12 view .LVU119
 593 0080 E5FFFFEA 		b	.L40
 594              	.L52:
 595              		.loc 1 268 7 is_stmt 1 view .LVU120
 596              		.loc 1 269 9 view .LVU121
 597              		.loc 1 268 10 is_stmt 0 view .LVU122
 598 0084 070055E1 		cmp	r5, r7
 599 0088 E3FFFF0A 		beq	.L40
 600              		.loc 1 269 9 view .LVU123
 601 008c 003094E5 		ldr	r3, [r4]
 602 0090 0400A0E1 		mov	r0, r4
 603 0094 083093E5 		ldr	r3, [r3, #8]
 604 0098 33FF2FE1 		blx	r3
 605              	.LVL48:
 606              		.loc 1 270 9 is_stmt 1 view .LVU124
 607 009c 003094E5 		ldr	r3, [r4]
 608 00a0 2010A0E3 		mov	r1, #32
 609 00a4 0400A0E1 		mov	r0, r4
 610 00a8 083093E5 		ldr	r3, [r3, #8]
 611 00ac 33FF2FE1 		blx	r3
 612              	.LVL49:
 613              		.loc 1 271 9 view .LVU125
 614 00b0 003094E5 		ldr	r3, [r4]
 615 00b4 0400A0E1 		mov	r0, r4
 616 00b8 0710DDE5 		ldrb	r1, [sp, #7]	@ zero_extendqisi2
 617 00bc 083093E5 		ldr	r3, [r3, #8]
 618              		.loc 1 272 10 is_stmt 0 view .LVU126
 619 00c0 015045E2 		sub	r5, r5, #1
 620              	.LVL50:
 621              		.loc 1 271 9 view .LVU127
 622 00c4 33FF2FE1 		blx	r3
 623              	.LVL51:
 624              		.loc 1 272 9 is_stmt 1 view .LVU128
 625              		.loc 1 272 9 is_stmt 0 view .LVU129
 626 00c8 D3FFFFEA 		b	.L40
 627              	.L48:
 628              		.loc 1 262 14 view .LVU130
 629 00cc 0100A0E3 		mov	r0, #1
ARM GAS  /tmp/ccEbIMc7.s 			page 13


 630              	.LBE36:
 631              		.loc 1 288 1 view .LVU131
 632 00d0 0CD08DE2 		add	sp, sp, #12
 633              		.cfi_remember_state
 634              		.cfi_def_cfa_offset 20
 635              		@ sp needed
 636 00d4 F080BDE8 		pop	{r4, r5, r6, r7, pc}
 637              	.LVL52:
 638              	.L51:
 639              		.cfi_restore_state
 640              	.LBB37:
 641              		.loc 1 264 7 is_stmt 1 view .LVU132
 642 00d8 0400A0E1 		mov	r0, r4
 643 00dc 28109FE5 		ldr	r1, .L54
 644 00e0 FEFFFFEB 		bl	chprintf
 645              	.LVL53:
 646              		.loc 1 265 7 view .LVU133
 647              		.loc 1 265 14 is_stmt 0 view .LVU134
 648 00e4 0100A0E3 		mov	r0, #1
 649              	.LBE37:
 650              		.loc 1 288 1 view .LVU135
 651 00e8 0CD08DE2 		add	sp, sp, #12
 652              		.cfi_remember_state
 653              		.cfi_def_cfa_offset 20
 654              		@ sp needed
 655 00ec F080BDE8 		pop	{r4, r5, r6, r7, pc}
 656              	.LVL54:
 657              	.L53:
 658              		.cfi_restore_state
 659              	.LBB38:
 660              		.loc 1 277 7 is_stmt 1 view .LVU136
 661 00f0 0400A0E1 		mov	r0, r4
 662 00f4 14109FE5 		ldr	r1, .L54+4
 663 00f8 FEFFFFEB 		bl	chprintf
 664              	.LVL55:
 665              		.loc 1 278 7 view .LVU137
 666              		.loc 1 278 10 is_stmt 0 view .LVU138
 667 00fc 0000A0E3 		mov	r0, #0
 668 0100 0000C5E5 		strb	r0, [r5]
 669              		.loc 1 279 7 is_stmt 1 view .LVU139
 670              	.LBE38:
 671              		.loc 1 288 1 is_stmt 0 view .LVU140
 672 0104 0CD08DE2 		add	sp, sp, #12
 673              		.cfi_def_cfa_offset 20
 674              		@ sp needed
 675 0108 F080BDE8 		pop	{r4, r5, r6, r7, pc}
 676              	.LVL56:
 677              	.L55:
 678              		.loc 1 288 1 view .LVU141
 679              		.align	2
 680              	.L54:
 681 010c 00000000 		.word	.LC21
 682 0110 04000000 		.word	.LC22
 683              		.cfi_endproc
 684              	.LFE17:
 685              		.size	shellGetLine, .-shellGetLine
 686              		.section	.rodata.shell_thread.str1.4,"aMS",%progbits,1
ARM GAS  /tmp/ccEbIMc7.s 			page 14


 687              		.align	2
 688              	.LC23:
 689 0000 7368656C 		.ascii	"shell\000"
 689      6C00
 690 0006 0000     		.align	2
 691              	.LC24:
 692 0008 0D0A4368 		.ascii	"\015\012ChibiOS/RT Shell\015\012\000"
 692      6962694F 
 692      532F5254 
 692      20536865 
 692      6C6C0D0A 
 693 001d 000000   		.align	2
 694              	.LC25:
 695 0020 63683E20 		.ascii	"ch> \000"
 695      00
 696 0025 000000   		.align	2
 697              	.LC26:
 698 0028 0D0A6C6F 		.ascii	"\015\012logout\000"
 698      676F7574 
 698      00
 699 0031 000000   		.align	2
 700              	.LC27:
 701 0034 746F6F20 		.ascii	"too many arguments\015\012\000"
 701      6D616E79 
 701      20617267 
 701      756D656E 
 701      74730D0A 
 702 0049 000000   		.align	2
 703              	.LC28:
 704 004c 65786974 		.ascii	"exit\000"
 704      00
 705 0051 000000   		.align	2
 706              	.LC29:
 707 0054 68656C70 		.ascii	"help\000"
 707      00
 708 0059 000000   		.align	2
 709              	.LC30:
 710 005c 436F6D6D 		.ascii	"Commands: help exit \000"
 710      616E6473 
 710      3A206865 
 710      6C702065 
 710      78697420 
 711 0071 000000   		.align	2
 712              	.LC31:
 713 0074 25732000 		.ascii	"%s \000"
 714              		.align	2
 715              	.LC32:
 716 0078 257300   		.ascii	"%s\000"
 717 007b 00       		.align	2
 718              	.LC33:
 719 007c 203F0D0A 		.ascii	" ?\015\012\000"
 719      00
 720              		.section	.text.shell_thread,"ax",%progbits
 721              		.align	2
 722              		.syntax unified
 723              		.arm
 724              		.fpu softvfp
ARM GAS  /tmp/ccEbIMc7.s 			page 15


 725              		.type	shell_thread, %function
 726              	shell_thread:
 727              	.LVL57:
 728              	.LFB13:
 729              		.loc 1 143 36 is_stmt 1 view -0
 730              		.cfi_startproc
 731              		@ args = 0, pretend = 0, frame = 88
 732              		@ frame_needed = 0, uses_anonymous_args = 0
 733              		.loc 1 144 3 view .LVU143
 734              		.loc 1 145 3 view .LVU144
 735              		.loc 1 146 3 view .LVU145
 736              		.loc 1 143 36 is_stmt 0 view .LVU146
 737 0000 F04F2DE9 		push	{r4, r5, r6, r7, r8, r9, r10, fp, lr}
 738              		.cfi_def_cfa_offset 36
 739              		.cfi_offset 4, -36
 740              		.cfi_offset 5, -32
 741              		.cfi_offset 6, -28
 742              		.cfi_offset 7, -24
 743              		.cfi_offset 8, -20
 744              		.cfi_offset 9, -16
 745              		.cfi_offset 10, -12
 746              		.cfi_offset 11, -8
 747              		.cfi_offset 14, -4
 748              		.loc 1 151 3 view .LVU147
 749 0004 74329FE5 		ldr	r3, .L111
 750              		.loc 1 146 25 view .LVU148
 751 0008 006090E5 		ldr	r6, [r0]
 752              	.LVL58:
 753              		.loc 1 147 3 is_stmt 1 view .LVU149
 754              		.loc 1 151 3 is_stmt 0 view .LVU150
 755 000c 183093E5 		ldr	r3, [r3, #24]
 756 0010 6C229FE5 		ldr	r2, .L111+4
 757              		.loc 1 147 23 view .LVU151
 758 0014 04A090E5 		ldr	r10, [r0, #4]
 759              	.LVL59:
 760              		.loc 1 148 3 is_stmt 1 view .LVU152
 761              		.loc 1 149 3 view .LVU153
 762              		.loc 1 151 3 view .LVU154
 763              		.loc 1 152 3 is_stmt 0 view .LVU155
 764 0018 68129FE5 		ldr	r1, .L111+8
 765 001c 0600A0E1 		mov	r0, r6
 766              	.LVL60:
 767              		.loc 1 143 36 view .LVU156
 768 0020 5CD04DE2 		sub	sp, sp, #92
 769              		.cfi_def_cfa_offset 128
 770              		.loc 1 151 3 view .LVU157
 771 0024 182083E5 		str	r2, [r3, #24]
 772              		.loc 1 152 3 is_stmt 1 view .LVU158
 773 0028 FEFFFFEB 		bl	chprintf
 774              	.LVL61:
 775              		.loc 1 154 5 is_stmt 0 view .LVU159
 776 002c 58729FE5 		ldr	r7, .L111+12
 777              		.loc 1 172 11 view .LVU160
 778 0030 58829FE5 		ldr	r8, .L111+16
 779              		.loc 1 179 16 view .LVU161
 780 0034 58929FE5 		ldr	r9, .L111+20
 781              	.L57:
ARM GAS  /tmp/ccEbIMc7.s 			page 16


 782              		.loc 1 153 3 is_stmt 1 view .LVU162
 783              		.loc 1 154 5 view .LVU163
 784 0038 0710A0E1 		mov	r1, r7
 785 003c 0600A0E1 		mov	r0, r6
 786 0040 FEFFFFEB 		bl	chprintf
 787              	.LVL62:
 788              		.loc 1 155 5 view .LVU164
 789              		.loc 1 155 9 is_stmt 0 view .LVU165
 790 0044 4020A0E3 		mov	r2, #64
 791 0048 0600A0E1 		mov	r0, r6
 792 004c 18108DE2 		add	r1, sp, #24
 793 0050 FEFFFFEB 		bl	shellGetLine
 794              	.LVL63:
 795              		.loc 1 155 8 view .LVU166
 796 0054 00B050E2 		subs	fp, r0, #0
 797 0058 4700001A 		bne	.L105
 798              		.loc 1 159 5 is_stmt 1 view .LVU167
 799              		.loc 1 159 10 is_stmt 0 view .LVU168
 800 005c 0D10A0E1 		mov	r1, sp
 801 0060 18008DE2 		add	r0, sp, #24
 802 0064 FEFFFFEB 		bl	_strtok.constprop.0
 803              	.LVL64:
 804 0068 0050A0E1 		mov	r5, r0
 805              	.LVL65:
 806              		.loc 1 160 5 is_stmt 1 view .LVU169
 807              		.loc 1 161 5 view .LVU170
 808              		.loc 1 162 5 view .LVU171
 809 006c 04408DE2 		add	r4, sp, #4
 810              	.LVL66:
 811              	.L60:
 812              		.loc 1 162 11 view .LVU172
 813              		.loc 1 162 18 is_stmt 0 view .LVU173
 814 0070 0D10A0E1 		mov	r1, sp
 815 0074 0000A0E3 		mov	r0, #0
 816              	.LVL67:
 817              		.loc 1 162 18 view .LVU174
 818 0078 FEFFFFEB 		bl	_strtok.constprop.0
 819              	.LVL68:
 820              		.loc 1 163 7 is_stmt 1 view .LVU175
 821              		.loc 1 168 7 view .LVU176
 822              		.loc 1 162 11 is_stmt 0 view .LVU177
 823 007c 000050E3 		cmp	r0, #0
 824              		.loc 1 162 11 view .LVU178
 825 0080 0900000A 		beq	.L106
 826              		.loc 1 163 10 view .LVU179
 827 0084 04005BE3 		cmp	fp, #4
 828              		.loc 1 168 13 view .LVU180
 829 0088 01B08B12 		addne	fp, fp, #1
 830              	.LVL69:
 831              		.loc 1 168 17 view .LVU181
 832 008c 04008414 		strne	r0, [r4], #4
 833 0090 F6FFFF1A 		bne	.L60
 834              	.L107:
 835              		.loc 1 164 9 is_stmt 1 view .LVU182
 836 0094 0600A0E1 		mov	r0, r6
 837              	.LVL70:
 838              		.loc 1 164 9 is_stmt 0 view .LVU183
ARM GAS  /tmp/ccEbIMc7.s 			page 17


 839 0098 F8119FE5 		ldr	r1, .L111+24
 840 009c FEFFFFEB 		bl	chprintf
 841              	.LVL71:
 842              		.loc 1 165 9 is_stmt 1 view .LVU184
 843              		.loc 1 166 9 view .LVU185
 844              		.loc 1 170 5 view .LVU186
 845              		.loc 1 170 13 is_stmt 0 view .LVU187
 846 00a0 0030A0E3 		mov	r3, #0
 847 00a4 14308DE5 		str	r3, [sp, #20]
 848              		.loc 1 171 5 is_stmt 1 view .LVU188
 849 00a8 E2FFFFEA 		b	.L57
 850              	.LVL72:
 851              	.L106:
 852              		.loc 1 170 5 view .LVU189
 853              		.loc 1 170 13 is_stmt 0 view .LVU190
 854 00ac 58308DE2 		add	r3, sp, #88
 855 00b0 0B3183E0 		add	r3, r3, fp, lsl #2
 856              		.loc 1 171 8 view .LVU191
 857 00b4 000055E3 		cmp	r5, #0
 858              		.loc 1 170 13 view .LVU192
 859 00b8 540003E5 		str	r0, [r3, #-84]
 860              		.loc 1 171 5 is_stmt 1 view .LVU193
 861              		.loc 1 171 8 is_stmt 0 view .LVU194
 862 00bc DDFFFF0A 		beq	.L57
 863              		.loc 1 172 7 is_stmt 1 view .LVU195
 864              		.loc 1 172 11 is_stmt 0 view .LVU196
 865 00c0 0810A0E1 		mov	r1, r8
 866 00c4 0500A0E1 		mov	r0, r5
 867              	.LVL73:
 868              		.loc 1 172 11 view .LVU197
 869 00c8 FEFFFFEB 		bl	strcasecmp
 870              	.LVL74:
 871              		.loc 1 172 10 view .LVU198
 872 00cc 000050E3 		cmp	r0, #0
 873 00d0 0A00001A 		bne	.L64
 874              		.loc 1 173 9 is_stmt 1 view .LVU199
 875              		.loc 1 173 12 is_stmt 0 view .LVU200
 876 00d4 00005BE3 		cmp	fp, #0
 877 00d8 4000001A 		bne	.L108
 878              	.LVL75:
 879              	.L59:
 880              		.loc 1 199 3 is_stmt 1 view .LVU201
 881              		.syntax divided
 882              	@ 199 "../os/various/shell.c" 1
 883 00dc 9FF021E3 		msr     CPSR_c, #0x9F
 884              	@ 0 "" 2
 885              		.loc 1 199 3 view .LVU202
 886              		.loc 1 199 14 view .LVU203
 887              		.loc 1 200 3 view .LVU204
 888              		.arm
 889              		.syntax unified
 890 00e0 0010A0E3 		mov	r1, #0
 891 00e4 B0019FE5 		ldr	r0, .L111+28
 892 00e8 FEFFFFEB 		bl	chEvtBroadcastFlagsI
 893              	.LVL76:
 894              		.loc 1 201 3 view .LVU205
 895 00ec 0000A0E3 		mov	r0, #0
ARM GAS  /tmp/ccEbIMc7.s 			page 18


 896 00f0 FEFFFFEB 		bl	chThdExitS
 897              	.LVL77:
 898              		.loc 1 202 3 view .LVU206
 899              		.loc 1 203 1 is_stmt 0 view .LVU207
 900 00f4 0000A0E3 		mov	r0, #0
 901 00f8 5CD08DE2 		add	sp, sp, #92
 902              		.cfi_remember_state
 903              		.cfi_def_cfa_offset 36
 904              		@ sp needed
 905 00fc F08FBDE8 		pop	{r4, r5, r6, r7, r8, r9, r10, fp, pc}
 906              	.LVL78:
 907              	.L64:
 908              		.cfi_restore_state
 909              		.loc 1 179 12 is_stmt 1 view .LVU208
 910              		.loc 1 179 16 is_stmt 0 view .LVU209
 911 0100 0910A0E1 		mov	r1, r9
 912 0104 0500A0E1 		mov	r0, r5
 913 0108 FEFFFFEB 		bl	strcasecmp
 914              	.LVL79:
 915              		.loc 1 179 15 view .LVU210
 916 010c 000050E3 		cmp	r0, #0
 917 0110 0600001A 		bne	.L109
 918              		.loc 1 180 9 is_stmt 1 view .LVU211
 919              		.loc 1 180 12 is_stmt 0 view .LVU212
 920 0114 00005BE3 		cmp	fp, #0
 921 0118 1B00000A 		beq	.L68
 922              		.loc 1 181 11 is_stmt 1 view .LVU213
 923              	.LVL80:
 924              	.LBB51:
 925              	.LBI51:
 926              		.loc 1 58 13 view .LVU214
 927              	.LBB52:
 928              		.loc 1 60 3 view .LVU215
 929 011c 0920A0E1 		mov	r2, r9
 930 0120 0600A0E1 		mov	r0, r6
 931 0124 74119FE5 		ldr	r1, .L111+32
 932 0128 FEFFFFEB 		bl	chprintf
 933              	.LVL81:
 934              		.loc 1 60 3 is_stmt 0 view .LVU216
 935              	.LBE52:
 936              	.LBE51:
 937              		.loc 1 182 11 is_stmt 1 view .LVU217
 938 012c C1FFFFEA 		b	.L57
 939              	.L109:
 940              	.LVL82:
 941              	.LBB53:
 942              	.LBB54:
 943              		.loc 1 125 9 view .LVU218
 944              		.loc 1 125 13 is_stmt 0 view .LVU219
 945 0130 6C319FE5 		ldr	r3, .L111+36
 946 0134 000093E5 		ldr	r0, [r3]
 947              		.loc 1 125 9 view .LVU220
 948 0138 000050E3 		cmp	r0, #0
 949 013c 60419F15 		ldrne	r4, .L111+36
 950 0140 0300001A 		bne	.L74
 951 0144 2A0000EA 		b	.L67
 952              	.LVL83:
ARM GAS  /tmp/ccEbIMc7.s 			page 19


 953              	.L73:
 954              		.loc 1 125 13 view .LVU221
 955 0148 0800B4E5 		ldr	r0, [r4, #8]!
 956              	.LVL84:
 957              		.loc 1 125 9 view .LVU222
 958 014c 000050E3 		cmp	r0, #0
 959 0150 2700000A 		beq	.L67
 960              	.LVL85:
 961              	.L74:
 962              		.loc 1 126 5 is_stmt 1 view .LVU223
 963              		.loc 1 126 9 is_stmt 0 view .LVU224
 964 0154 0510A0E1 		mov	r1, r5
 965 0158 FEFFFFEB 		bl	strcasecmp
 966              	.LVL86:
 967              		.loc 1 130 5 is_stmt 1 view .LVU225
 968              		.loc 1 125 9 view .LVU226
 969              		.loc 1 126 8 is_stmt 0 view .LVU227
 970 015c 000050E3 		cmp	r0, #0
 971 0160 F8FFFF1A 		bne	.L73
 972              	.LVL87:
 973              	.L104:
 974              		.loc 1 126 8 view .LVU228
 975              	.LBE54:
 976              	.LBE53:
 977              	.LBB55:
 978              	.LBB56:
 979              		.loc 1 127 7 is_stmt 1 view .LVU229
 980 0164 0B10A0E1 		mov	r1, fp
 981 0168 0600A0E1 		mov	r0, r6
 982 016c 043094E5 		ldr	r3, [r4, #4]
 983 0170 04208DE2 		add	r2, sp, #4
 984 0174 33FF2FE1 		blx	r3
 985              	.LVL88:
 986              		.loc 1 128 7 view .LVU230
 987 0178 AEFFFFEA 		b	.L57
 988              	.LVL89:
 989              	.L105:
 990              		.loc 1 128 7 is_stmt 0 view .LVU231
 991              	.LBE56:
 992              	.LBE55:
 993              		.loc 1 156 7 is_stmt 1 view .LVU232
 994 017c 0600A0E1 		mov	r0, r6
 995 0180 20119FE5 		ldr	r1, .L111+40
 996 0184 FEFFFFEB 		bl	chprintf
 997              	.LVL90:
 998              		.loc 1 157 7 view .LVU233
 999 0188 D3FFFFEA 		b	.L59
 1000              	.LVL91:
 1001              	.L68:
 1002              		.loc 1 184 9 view .LVU234
 1003 018c 0600A0E1 		mov	r0, r6
 1004 0190 14119FE5 		ldr	r1, .L111+44
 1005 0194 FEFFFFEB 		bl	chprintf
 1006              	.LVL92:
 1007              		.loc 1 185 9 view .LVU235
 1008              	.LBB58:
 1009              	.LBI58:
ARM GAS  /tmp/ccEbIMc7.s 			page 20


 1010              		.loc 1 63 13 view .LVU236
 1011              	.LBB59:
 1012              		.loc 1 65 3 view .LVU237
 1013              		.loc 1 65 9 view .LVU238
 1014              		.loc 1 65 13 is_stmt 0 view .LVU239
 1015 0198 04319FE5 		ldr	r3, .L111+36
 1016 019c 002093E5 		ldr	r2, [r3]
 1017              		.loc 1 65 9 view .LVU240
 1018 01a0 000052E3 		cmp	r2, #0
 1019 01a4 0700000A 		beq	.L69
 1020 01a8 0340A0E1 		mov	r4, r3
 1021              		.loc 1 66 5 view .LVU241
 1022 01ac FC509FE5 		ldr	r5, .L111+48
 1023              	.LVL93:
 1024              	.L70:
 1025              		.loc 1 66 5 is_stmt 1 view .LVU242
 1026 01b0 0510A0E1 		mov	r1, r5
 1027 01b4 0600A0E1 		mov	r0, r6
 1028 01b8 FEFFFFEB 		bl	chprintf
 1029              	.LVL94:
 1030              		.loc 1 67 5 view .LVU243
 1031              		.loc 1 65 9 view .LVU244
 1032              		.loc 1 65 13 is_stmt 0 view .LVU245
 1033 01bc 0820B4E5 		ldr	r2, [r4, #8]!
 1034              	.LVL95:
 1035              		.loc 1 65 9 view .LVU246
 1036 01c0 000052E3 		cmp	r2, #0
 1037 01c4 F9FFFF1A 		bne	.L70
 1038              	.LVL96:
 1039              	.L69:
 1040              		.loc 1 65 9 view .LVU247
 1041              	.LBE59:
 1042              	.LBE58:
 1043              		.loc 1 186 9 is_stmt 1 view .LVU248
 1044              		.loc 1 186 12 is_stmt 0 view .LVU249
 1045 01c8 00005AE3 		cmp	r10, #0
 1046 01cc 1700001A 		bne	.L110
 1047              	.L71:
 1048              		.loc 1 188 9 is_stmt 1 view .LVU250
 1049 01d0 0600A0E1 		mov	r0, r6
 1050 01d4 D8109FE5 		ldr	r1, .L111+52
 1051 01d8 FEFFFFEB 		bl	chprintf
 1052              	.LVL97:
 1053 01dc 95FFFFEA 		b	.L57
 1054              	.LVL98:
 1055              	.L108:
 1056              		.loc 1 174 11 view .LVU251
 1057              	.LBB60:
 1058              	.LBI60:
 1059              		.loc 1 58 13 view .LVU252
 1060              	.LBB61:
 1061              		.loc 1 60 3 view .LVU253
 1062 01e0 0820A0E1 		mov	r2, r8
 1063 01e4 0600A0E1 		mov	r0, r6
 1064 01e8 B0109FE5 		ldr	r1, .L111+32
 1065 01ec FEFFFFEB 		bl	chprintf
 1066              	.LVL99:
ARM GAS  /tmp/ccEbIMc7.s 			page 21


 1067              		.loc 1 60 3 is_stmt 0 view .LVU254
 1068              	.LBE61:
 1069              	.LBE60:
 1070              		.loc 1 175 11 is_stmt 1 view .LVU255
 1071 01f0 90FFFFEA 		b	.L57
 1072              	.L67:
 1073              		.loc 1 190 59 is_stmt 0 view .LVU256
 1074 01f4 00005AE3 		cmp	r10, #0
 1075 01f8 1800000A 		beq	.L75
 1076              	.LVL100:
 1077              	.LBB62:
 1078              	.LBB57:
 1079              		.loc 1 125 9 is_stmt 1 view .LVU257
 1080              		.loc 1 125 13 is_stmt 0 view .LVU258
 1081 01fc 00009AE5 		ldr	r0, [r10]
 1082              		.loc 1 125 9 view .LVU259
 1083 0200 000050E3 		cmp	r0, #0
 1084 0204 1500000A 		beq	.L75
 1085 0208 0A40A0E1 		mov	r4, r10
 1086 020c 020000EA 		b	.L77
 1087              	.LVL101:
 1088              	.L76:
 1089              		.loc 1 125 13 view .LVU260
 1090 0210 0800B4E5 		ldr	r0, [r4, #8]!
 1091              	.LVL102:
 1092              		.loc 1 125 9 view .LVU261
 1093 0214 000050E3 		cmp	r0, #0
 1094 0218 1000000A 		beq	.L75
 1095              	.LVL103:
 1096              	.L77:
 1097              		.loc 1 126 5 is_stmt 1 view .LVU262
 1098              		.loc 1 126 9 is_stmt 0 view .LVU263
 1099 021c 0510A0E1 		mov	r1, r5
 1100 0220 FEFFFFEB 		bl	strcasecmp
 1101              	.LVL104:
 1102              		.loc 1 130 5 is_stmt 1 view .LVU264
 1103              		.loc 1 125 9 view .LVU265
 1104              		.loc 1 126 8 is_stmt 0 view .LVU266
 1105 0224 000050E3 		cmp	r0, #0
 1106 0228 F8FFFF1A 		bne	.L76
 1107 022c CCFFFFEA 		b	.L104
 1108              	.LVL105:
 1109              	.L110:
 1110              		.loc 1 126 8 view .LVU267
 1111              	.LBE57:
 1112              	.LBE62:
 1113              	.LBB63:
 1114              	.LBB64:
 1115              		.loc 1 65 9 is_stmt 1 view .LVU268
 1116              		.loc 1 65 13 is_stmt 0 view .LVU269
 1117 0230 00209AE5 		ldr	r2, [r10]
 1118              		.loc 1 65 9 view .LVU270
 1119 0234 000052E3 		cmp	r2, #0
 1120 0238 E4FFFF0A 		beq	.L71
 1121 023c 0A40A0E1 		mov	r4, r10
 1122              		.loc 1 66 5 view .LVU271
 1123 0240 68509FE5 		ldr	r5, .L111+48
ARM GAS  /tmp/ccEbIMc7.s 			page 22


 1124              	.LVL106:
 1125              	.L72:
 1126              		.loc 1 66 5 is_stmt 1 view .LVU272
 1127 0244 0510A0E1 		mov	r1, r5
 1128 0248 0600A0E1 		mov	r0, r6
 1129 024c FEFFFFEB 		bl	chprintf
 1130              	.LVL107:
 1131              		.loc 1 67 5 view .LVU273
 1132              		.loc 1 65 9 view .LVU274
 1133              		.loc 1 65 13 is_stmt 0 view .LVU275
 1134 0250 0820B4E5 		ldr	r2, [r4, #8]!
 1135              	.LVL108:
 1136              		.loc 1 65 9 view .LVU276
 1137 0254 000052E3 		cmp	r2, #0
 1138 0258 F9FFFF1A 		bne	.L72
 1139 025c DBFFFFEA 		b	.L71
 1140              	.LVL109:
 1141              	.L75:
 1142              		.loc 1 65 9 view .LVU277
 1143              	.LBE64:
 1144              	.LBE63:
 1145              		.loc 1 192 9 is_stmt 1 view .LVU278
 1146 0260 0600A0E1 		mov	r0, r6
 1147 0264 0520A0E1 		mov	r2, r5
 1148 0268 48109FE5 		ldr	r1, .L111+56
 1149 026c FEFFFFEB 		bl	chprintf
 1150              	.LVL110:
 1151              		.loc 1 193 9 view .LVU279
 1152 0270 0600A0E1 		mov	r0, r6
 1153 0274 40109FE5 		ldr	r1, .L111+60
 1154 0278 FEFFFFEB 		bl	chprintf
 1155              	.LVL111:
 1156 027c 6DFFFFEA 		b	.L57
 1157              	.L112:
 1158              		.align	2
 1159              	.L111:
 1160 0280 00000000 		.word	rlist
 1161 0284 00000000 		.word	.LC23
 1162 0288 08000000 		.word	.LC24
 1163 028c 20000000 		.word	.LC25
 1164 0290 4C000000 		.word	.LC28
 1165 0294 54000000 		.word	.LC29
 1166 0298 34000000 		.word	.LC27
 1167 029c 00000000 		.word	shell_terminated
 1168 02a0 08000000 		.word	.LC1
 1169 02a4 00000000 		.word	.LANCHOR1
 1170 02a8 28000000 		.word	.LC26
 1171 02ac 5C000000 		.word	.LC30
 1172 02b0 74000000 		.word	.LC31
 1173 02b4 04000000 		.word	.LC22
 1174 02b8 78000000 		.word	.LC32
 1175 02bc 7C000000 		.word	.LC33
 1176              		.cfi_endproc
 1177              	.LFE13:
 1178              		.size	shell_thread, .-shell_thread
 1179              		.comm	shell_terminated,4,4
 1180              		.section	.rodata
ARM GAS  /tmp/ccEbIMc7.s 			page 23


 1181              		.align	2
 1182              		.set	.LANCHOR0,. + 0
 1183              	.LC20:
 1184 0000 20003900 		.ascii	" \0009\000"
 1185              		.section	.data.local_commands,"aw"
 1186              		.align	2
 1187              		.set	.LANCHOR1,. + 0
 1188              		.type	local_commands, %object
 1189              		.size	local_commands, 24
 1190              	local_commands:
 1191 0000 00000000 		.word	.LC3
 1192 0004 00000000 		.word	cmd_info
 1193 0008 00000000 		.word	.LC0
 1194 000c 00000000 		.word	cmd_systime
 1195 0010 00000000 		.word	0
 1196 0014 00000000 		.word	0
 1197              		.text
 1198              	.Letext0:
 1199              		.file 2 "/usr/lib/gcc/arm-none-eabi/9.2.1/include/stddef.h"
 1200              		.file 3 "/usr/include/newlib/sys/_types.h"
 1201              		.file 4 "/usr/include/newlib/sys/reent.h"
 1202              		.file 5 "/usr/include/newlib/sys/lock.h"
 1203              		.file 6 "/usr/lib/gcc/arm-none-eabi/9.2.1/include/stdint.h"
 1204              		.file 7 "../os/ports/GCC/ARM/chtypes.h"
 1205              		.file 8 "../os/kernel/include/chlists.h"
 1206              		.file 9 "../os/kernel/include/chthreads.h"
 1207              		.file 10 "../os/ports/GCC/ARM/chcore.h"
 1208              		.file 11 "../os/kernel/include/chvt.h"
 1209              		.file 12 "../os/kernel/include/chschd.h"
 1210              		.file 13 "../os/kernel/include/chmtx.h"
 1211              		.file 14 "../os/kernel/include/chevents.h"
 1212              		.file 15 "../os/kernel/include/chregistry.h"
 1213              		.file 16 "../os/kernel/include/chqueues.h"
 1214              		.file 17 "../os/kernel/include/chstreams.h"
 1215              		.file 18 "../os/kernel/include/ch.h"
 1216              		.file 19 "../os/hal/platforms/BCM2835/bcm2835.h"
 1217              		.file 20 "../os/hal/platforms/BCM2835/pal_lld.h"
 1218              		.file 21 "../os/hal/include/i2c.h"
 1219              		.file 22 "../os/hal/platforms/BCM2835/i2c_lld.h"
 1220              		.file 23 "../os/hal/include/serial.h"
 1221              		.file 24 "../os/hal/include/spi.h"
 1222              		.file 25 "../os/hal/platforms/BCM2835/spi_lld.h"
 1223              		.file 26 "../os/various/shell.h"
 1224              		.file 27 "../os/hal/platforms/BCM2835/serial_lld.h"
 1225              		.file 28 "../os/various/chprintf.h"
 1226              		.file 29 "../os/kernel/include/chdynamic.h"
 1227              		.file 30 "/usr/include/newlib/strings.h"
 1228              		.file 31 "/usr/include/newlib/string.h"
 1229              		.file 32 "<built-in>"