ARM GAS  /tmp/cc07qyya.s 			page 1


   1              		.cpu arm1176jz-s
   2              		.eabi_attribute 20, 1
   3              		.eabi_attribute 21, 1
   4              		.eabi_attribute 23, 3
   5              		.eabi_attribute 24, 1
   6              		.eabi_attribute 25, 1
   7              		.eabi_attribute 26, 1
   8              		.eabi_attribute 30, 2
   9              		.eabi_attribute 34, 1
  10              		.eabi_attribute 18, 4
  11              		.file	"spi_lld.c"
  12              		.text
  13              	.Ltext0:
  14              		.cfi_sections	.debug_frame
  15              		.section	.text.spi_lld_serve_interrupt,"ax",%progbits
  16              		.align	2
  17              		.global	spi_lld_serve_interrupt
  18              		.arch armv6kz
  19              		.syntax unified
  20              		.arm
  21              		.fpu softvfp
  22              		.type	spi_lld_serve_interrupt, %function
  23              	spi_lld_serve_interrupt:
  24              	.LVL0:
  25              	.LFB7:
  26              		.file 1 "../os/hal/platforms/BCM2835/spi_lld.c"
  27              		.loc 1 75 47 view -0
  28              		.cfi_startproc
  29              		@ args = 0, pretend = 0, frame = 0
  30              		@ frame_needed = 0, uses_anonymous_args = 0
  31              		.loc 1 76 3 view .LVU1
  32              		.loc 1 76 7 is_stmt 0 view .LVU2
  33 0000 64319FE5 		ldr	r3, .L53
  34 0004 083293E5 		ldr	r3, [r3, #520]
  35              		.loc 1 76 6 view .LVU3
  36 0008 010513E3 		tst	r3, #4194304
  37 000c 1EFF2F01 		bxeq	lr
  38              		.loc 1 77 5 is_stmt 1 view .LVU4
  39              		.loc 1 77 9 is_stmt 0 view .LVU5
  40 0010 58319FE5 		ldr	r3, .L53+4
  41              		.loc 1 75 47 view .LVU6
  42 0014 10402DE9 		push	{r4, lr}
  43              		.cfi_def_cfa_offset 8
  44              		.cfi_offset 4, -8
  45              		.cfi_offset 14, -4
  46              		.loc 1 77 9 view .LVU7
  47 0018 002093E5 		ldr	r2, [r3]
  48 001c 0040A0E1 		mov	r4, r0
  49              		.loc 1 77 8 view .LVU8
  50 0020 010812E3 		tst	r2, #65536
  51 0024 1600000A 		beq	.L4
  52              	.LBB8:
  53              		.loc 1 78 7 is_stmt 1 view .LVU9
  54              	.LVL1:
  55              		.loc 1 79 7 view .LVU10
  56              		.loc 1 79 11 is_stmt 0 view .LVU11
  57 0028 242090E5 		ldr	r2, [r0, #36]
ARM GAS  /tmp/cc07qyya.s 			page 2


  58              		.loc 1 79 10 view .LVU12
  59 002c 000052E3 		cmp	r2, #0
  60 0030 2300000A 		beq	.L13
  61              		.loc 1 81 2 is_stmt 1 view .LVU13
  62              		.loc 1 81 18 is_stmt 0 view .LVU14
  63 0034 041090E5 		ldr	r1, [r0, #4]
  64              	.LBB9:
  65              		.loc 1 83 14 view .LVU15
  66 0038 20C090E5 		ldr	ip, [r0, #32]
  67              	.LBE9:
  68              		.loc 1 81 5 view .LVU16
  69 003c 0410D1E5 		ldrb	r1, [r1, #4]	@ zero_extendqisi2
  70 0040 000051E3 		cmp	r1, #0
  71              	.LBB10:
  72              		.loc 1 84 12 view .LVU17
  73 0044 001093E5 		ldr	r1, [r3]
  74              	.LBE10:
  75              		.loc 1 81 5 view .LVU18
  76 0048 3800000A 		beq	.L6
  77              	.LBB11:
  78              		.loc 1 83 4 is_stmt 1 view .LVU19
  79              	.LVL2:
  80              		.loc 1 84 4 view .LVU20
  81              		.loc 1 84 10 view .LVU21
  82 004c 010711E3 		tst	r1, #262144
  83 0050 0B00000A 		beq	.L4
  84              		.loc 1 83 14 is_stmt 0 view .LVU22
  85 0054 0C10A0E1 		mov	r1, ip
  86              	.LVL3:
  87              	.L10:
  88              		.loc 1 85 6 is_stmt 1 view .LVU23
  89              		.loc 1 85 51 is_stmt 0 view .LVU24
  90 0058 00005CE3 		cmp	ip, #0
  91              	.LVL4:
  92              		.loc 1 85 51 view .LVU25
  93 005c 0C00A001 		moveq	r0, ip
  94 0060 B200D110 		ldrhne	r0, [r1], #2
  95              	.LVL5:
  96              		.loc 1 86 13 view .LVU26
  97 0064 022042E2 		sub	r2, r2, #2
  98              		.loc 1 85 16 view .LVU27
  99 0068 040083E5 		str	r0, [r3, #4]
 100              		.loc 1 86 6 is_stmt 1 view .LVU28
 101              		.loc 1 84 10 view .LVU29
 102              		.loc 1 84 12 is_stmt 0 view .LVU30
 103 006c 000093E5 		ldr	r0, [r3]
 104              		.loc 1 84 10 view .LVU31
 105 0070 010710E3 		tst	r0, #262144
 106 0074 0100000A 		beq	.L51
 107              		.loc 1 84 34 discriminator 1 view .LVU32
 108 0078 000052E3 		cmp	r2, #0
 109 007c F5FFFF1A 		bne	.L10
 110              	.L51:
 111 0080 242084E5 		str	r2, [r4, #36]
 112              	.LVL6:
 113              	.L4:
 114              		.loc 1 84 34 discriminator 1 view .LVU33
ARM GAS  /tmp/cc07qyya.s 			page 3


 115              	.LBE11:
 116              	.LBB12:
 117              		.loc 1 102 2 is_stmt 1 discriminator 7 view .LVU34
 118              		.loc 1 102 2 discriminator 7 view .LVU35
 119              		.loc 1 102 2 discriminator 7 view .LVU36
 120              	.LBE12:
 121              		.loc 1 102 2 discriminator 7 view .LVU37
 122              		.loc 1 102 21 discriminator 7 view .LVU38
 123              	.LBE8:
 124              		.loc 1 106 5 discriminator 7 view .LVU39
 125              		.loc 1 106 9 is_stmt 0 discriminator 7 view .LVU40
 126 0084 E4309FE5 		ldr	r3, .L53+4
 127 0088 002093E5 		ldr	r2, [r3]
 128              		.loc 1 106 8 discriminator 7 view .LVU41
 129 008c 020712E3 		tst	r2, #524288
 130 0090 1080BD08 		popeq	{r4, pc}
 131              	.L19:
 132              	.LBB16:
 133              		.loc 1 107 7 is_stmt 1 discriminator 3 view .LVU42
 134              	.LBE16:
 135              		.loc 1 107 7 discriminator 3 view .LVU43
 136 0094 002093E5 		ldr	r2, [r3]
 137 0098 020812E3 		tst	r2, #131072
 138 009c 1080BD08 		popeq	{r4, pc}
 139              	.LBB17:
 140              		.loc 1 107 7 is_stmt 0 discriminator 4 view .LVU44
 141 00a0 1C2094E5 		ldr	r2, [r4, #28]
 142 00a4 041093E5 		ldr	r1, [r3, #4]
 143              	.LVL7:
 144              		.loc 1 107 7 is_stmt 1 discriminator 4 view .LVU45
 145              		.loc 1 107 7 discriminator 4 view .LVU46
 146 00a8 000052E3 		cmp	r2, #0
 147              		.loc 1 107 7 discriminator 4 view .LVU47
 148              	.LVL8:
 149              		.loc 1 107 7 is_stmt 0 discriminator 4 view .LVU48
 150 00ac 0010C215 		strbne	r1, [r2]
 151 00b0 F7FFFFEA 		b	.L19
 152              	.LVL9:
 153              	.L14:
 154              		.loc 1 107 7 discriminator 4 view .LVU49
 155              	.LBE17:
 156              	.LBB18:
 157              	.LBB13:
 158              		.loc 1 99 2 discriminator 4 view .LVU50
 159 00b4 1C2094E5 		ldr	r2, [r4, #28]
 160 00b8 041093E5 		ldr	r1, [r3, #4]
 161              	.LVL10:
 162              		.loc 1 99 2 is_stmt 1 discriminator 4 view .LVU51
 163              		.loc 1 99 2 discriminator 4 view .LVU52
 164 00bc 000052E3 		cmp	r2, #0
 165              		.loc 1 99 2 discriminator 4 view .LVU53
 166              	.LVL11:
 167              		.loc 1 99 2 is_stmt 0 discriminator 4 view .LVU54
 168 00c0 0010C215 		strbne	r1, [r2]
 169              	.LVL12:
 170              	.L13:
 171              		.loc 1 99 2 is_stmt 1 discriminator 3 view .LVU55
ARM GAS  /tmp/cc07qyya.s 			page 4


 172              	.LBE13:
 173              		.loc 1 99 2 discriminator 3 view .LVU56
 174 00c4 002093E5 		ldr	r2, [r3]
 175 00c8 020812E3 		tst	r2, #131072
 176 00cc F8FFFF1A 		bne	.L14
 177              		.loc 1 99 17 discriminator 5 view .LVU57
 178              		.loc 1 101 2 discriminator 5 view .LVU58
 179              		.loc 1 102 2 is_stmt 0 discriminator 5 view .LVU59
 180 00d0 041094E5 		ldr	r1, [r4, #4]
 181              		.loc 1 101 10 discriminator 5 view .LVU60
 182 00d4 002093E5 		ldr	r2, [r3]
 183              		.loc 1 102 2 discriminator 5 view .LVU61
 184 00d8 001091E5 		ldr	r1, [r1]
 185              		.loc 1 101 10 discriminator 5 view .LVU62
 186 00dc 1A2DC2E3 		bic	r2, r2, #1664
 187              		.loc 1 102 2 discriminator 5 view .LVU63
 188 00e0 000051E3 		cmp	r1, #0
 189              		.loc 1 101 10 discriminator 5 view .LVU64
 190 00e4 002083E5 		str	r2, [r3]
 191              		.loc 1 102 2 is_stmt 1 discriminator 5 view .LVU65
 192 00e8 0D00000A 		beq	.L15
 193              		.loc 1 102 2 discriminator 1 view .LVU66
 194 00ec 0430A0E3 		mov	r3, #4
 195 00f0 0400A0E1 		mov	r0, r4
 196              	.LVL13:
 197              		.loc 1 102 2 is_stmt 0 discriminator 1 view .LVU67
 198 00f4 0030C4E5 		strb	r3, [r4]
 199              		.loc 1 102 2 is_stmt 1 discriminator 1 view .LVU68
 200 00f8 31FF2FE1 		blx	r1
 201              	.LVL14:
 202              		.loc 1 102 2 discriminator 1 view .LVU69
 203 00fc 0030D4E5 		ldrb	r3, [r4]	@ zero_extendqisi2
 204 0100 040053E3 		cmp	r3, #4
 205 0104 0600000A 		beq	.L15
 206              	.L16:
 207              		.loc 1 102 2 discriminator 4 view .LVU70
 208 0108 080094E5 		ldr	r0, [r4, #8]
 209 010c 000050E3 		cmp	r0, #0
 210 0110 DBFFFF0A 		beq	.L4
 211              	.LBB14:
 212              		.loc 1 102 2 discriminator 5 view .LVU71
 213              	.LVL15:
 214              		.loc 1 102 2 discriminator 5 view .LVU72
 215 0114 0030A0E3 		mov	r3, #0
 216 0118 083084E5 		str	r3, [r4, #8]
 217              		.loc 1 102 2 discriminator 5 view .LVU73
 218              		.loc 1 102 2 discriminator 5 view .LVU74
 219              		.loc 1 102 2 discriminator 5 view .LVU75
 220              		.loc 1 102 2 discriminator 5 view .LVU76
 221 011c FEFFFFEB 		bl	chSchReadyI
 222              	.LVL16:
 223              		.loc 1 102 2 is_stmt 0 discriminator 5 view .LVU77
 224 0120 D7FFFFEA 		b	.L4
 225              	.L15:
 226              		.loc 1 102 2 discriminator 5 view .LVU78
 227              	.LBE14:
 228              		.loc 1 102 2 is_stmt 1 discriminator 3 view .LVU79
ARM GAS  /tmp/cc07qyya.s 			page 5


 229 0124 0230A0E3 		mov	r3, #2
 230 0128 0030C4E5 		strb	r3, [r4]
 231 012c F5FFFFEA 		b	.L16
 232              	.LVL17:
 233              	.L6:
 234              	.LBB15:
 235              		.loc 1 90 4 view .LVU80
 236              		.loc 1 91 4 view .LVU81
 237              		.loc 1 91 10 view .LVU82
 238 0130 010711E3 		tst	r1, #262144
 239 0134 D2FFFF0A 		beq	.L4
 240              		.loc 1 90 13 is_stmt 0 view .LVU83
 241 0138 0C10A0E1 		mov	r1, ip
 242              	.LVL18:
 243              	.L12:
 244              		.loc 1 92 6 is_stmt 1 view .LVU84
 245              		.loc 1 92 51 is_stmt 0 view .LVU85
 246 013c 00005CE3 		cmp	ip, #0
 247              	.LVL19:
 248              		.loc 1 92 51 view .LVU86
 249 0140 0C00A001 		moveq	r0, ip
 250 0144 0100D114 		ldrbne	r0, [r1], #1	@ zero_extendqisi2
 251              	.LVL20:
 252              		.loc 1 93 6 view .LVU87
 253 0148 012042E2 		sub	r2, r2, #1
 254              		.loc 1 92 16 view .LVU88
 255 014c 040083E5 		str	r0, [r3, #4]
 256              		.loc 1 93 6 is_stmt 1 view .LVU89
 257              		.loc 1 91 12 is_stmt 0 view .LVU90
 258 0150 000093E5 		ldr	r0, [r3]
 259              		.loc 1 93 6 view .LVU91
 260 0154 242084E5 		str	r2, [r4, #36]
 261              		.loc 1 91 10 is_stmt 1 view .LVU92
 262 0158 010710E3 		tst	r0, #262144
 263 015c C8FFFF0A 		beq	.L4
 264              		.loc 1 91 34 is_stmt 0 discriminator 1 view .LVU93
 265 0160 000052E3 		cmp	r2, #0
 266 0164 F4FFFF1A 		bne	.L12
 267 0168 C5FFFFEA 		b	.L4
 268              	.L54:
 269              		.align	2
 270              	.L53:
 271 016c 00B00020 		.word	536915968
 272 0170 00402020 		.word	538984448
 273              	.LBE15:
 274              	.LBE18:
 275              		.cfi_endproc
 276              	.LFE7:
 277              		.size	spi_lld_serve_interrupt, .-spi_lld_serve_interrupt
 278              		.section	.text.spi_lld_init,"ax",%progbits
 279              		.align	2
 280              		.global	spi_lld_init
 281              		.syntax unified
 282              		.arm
 283              		.fpu softvfp
 284              		.type	spi_lld_init, %function
 285              	spi_lld_init:
ARM GAS  /tmp/cc07qyya.s 			page 6


 286              	.LFB8:
 287              		.loc 1 121 25 is_stmt 1 view -0
 288              		.cfi_startproc
 289              		@ args = 0, pretend = 0, frame = 0
 290              		@ frame_needed = 0, uses_anonymous_args = 0
 291              		@ link register save eliminated.
 292              		.loc 1 122 3 view .LVU95
 293 0000 00009FE5 		ldr	r0, .L56
 294 0004 FEFFFFEA 		b	spiObjectInit
 295              	.LVL21:
 296              	.L57:
 297              		.align	2
 298              	.L56:
 299 0008 00000000 		.word	SPI0
 300              		.cfi_endproc
 301              	.LFE8:
 302              		.size	spi_lld_init, .-spi_lld_init
 303              		.section	.text.spi_lld_start,"ax",%progbits
 304              		.align	2
 305              		.global	spi_lld_start
 306              		.syntax unified
 307              		.arm
 308              		.fpu softvfp
 309              		.type	spi_lld_start, %function
 310              	spi_lld_start:
 311              	.LVL22:
 312              	.LFB9:
 313              		.loc 1 132 37 view -0
 314              		.cfi_startproc
 315              		@ args = 0, pretend = 0, frame = 0
 316              		@ frame_needed = 0, uses_anonymous_args = 0
 317              		.loc 1 133 3 view .LVU97
 318              		.loc 1 135 3 view .LVU98
 319              		.loc 1 132 37 is_stmt 0 view .LVU99
 320 0000 10402DE9 		push	{r4, lr}
 321              		.cfi_def_cfa_offset 8
 322              		.cfi_offset 4, -8
 323              		.cfi_offset 14, -4
 324              		.loc 1 132 37 view .LVU100
 325 0004 0040A0E1 		mov	r4, r0
 326              		.loc 1 135 16 view .LVU101
 327 0008 AC209FE5 		ldr	r2, .L82
 328              		.loc 1 138 3 view .LVU102
 329 000c 0410A0E3 		mov	r1, #4
 330              		.loc 1 135 16 view .LVU103
 331 0010 203292E5 		ldr	r3, [r2, #544]
 332              		.loc 1 138 3 view .LVU104
 333 0014 0700A0E3 		mov	r0, #7
 334              	.LVL23:
 335              		.loc 1 135 16 view .LVU105
 336 0018 013583E3 		orr	r3, r3, #4194304
 337 001c 203282E5 		str	r3, [r2, #544]
 338              		.loc 1 138 3 is_stmt 1 view .LVU106
 339 0020 FEFFFFEB 		bl	bcm2835_gpio_fnsel
 340              	.LVL24:
 341              		.loc 1 139 3 view .LVU107
 342 0024 0410A0E3 		mov	r1, #4
ARM GAS  /tmp/cc07qyya.s 			page 7


 343 0028 0800A0E3 		mov	r0, #8
 344 002c FEFFFFEB 		bl	bcm2835_gpio_fnsel
 345              	.LVL25:
 346              		.loc 1 140 3 view .LVU108
 347 0030 0410A0E3 		mov	r1, #4
 348 0034 0900A0E3 		mov	r0, #9
 349 0038 FEFFFFEB 		bl	bcm2835_gpio_fnsel
 350              	.LVL26:
 351              		.loc 1 141 3 view .LVU109
 352 003c 0410A0E3 		mov	r1, #4
 353 0040 0A00A0E3 		mov	r0, #10
 354 0044 FEFFFFEB 		bl	bcm2835_gpio_fnsel
 355              	.LVL27:
 356              		.loc 1 142 3 view .LVU110
 357 0048 0410A0E3 		mov	r1, #4
 358 004c 0B00A0E3 		mov	r0, #11
 359 0050 FEFFFFEB 		bl	bcm2835_gpio_fnsel
 360              	.LVL28:
 361              		.loc 1 144 3 view .LVU111
 362              		.loc 1 147 3 view .LVU112
 363              		.loc 1 149 3 view .LVU113
 364              		.loc 1 149 20 is_stmt 0 view .LVU114
 365 0054 042094E5 		ldr	r2, [r4, #4]
 366              	.LVL29:
 367              		.loc 1 151 3 is_stmt 1 view .LVU115
 368              		.loc 1 151 6 is_stmt 0 view .LVU116
 369 0058 0930D2E5 		ldrb	r3, [r2, #9]	@ zero_extendqisi2
 370              		.loc 1 154 6 view .LVU117
 371 005c 0A10D2E5 		ldrb	r1, [r2, #10]	@ zero_extendqisi2
 372              		.loc 1 152 13 view .LVU118
 373 0060 000053E3 		cmp	r3, #0
 374 0064 0830A013 		movne	r3, #8
 375 0068 0030A003 		moveq	r3, #0
 376              	.LVL30:
 377              		.loc 1 154 3 is_stmt 1 view .LVU119
 378              		.loc 1 154 6 is_stmt 0 view .LVU120
 379 006c 000051E3 		cmp	r1, #0
 380              		.loc 1 155 5 is_stmt 1 view .LVU121
 381              		.loc 1 157 6 is_stmt 0 view .LVU122
 382 0070 0610D2E5 		ldrb	r1, [r2, #6]	@ zero_extendqisi2
 383              		.loc 1 155 13 view .LVU123
 384 0074 04308313 		orrne	r3, r3, #4
 385              	.LVL31:
 386              		.loc 1 157 3 is_stmt 1 view .LVU124
 387              		.loc 1 157 6 is_stmt 0 view .LVU125
 388 0078 000051E3 		cmp	r1, #0
 389              		.loc 1 158 5 is_stmt 1 view .LVU126
 390              		.loc 1 160 6 is_stmt 0 view .LVU127
 391 007c 0710D2E5 		ldrb	r1, [r2, #7]	@ zero_extendqisi2
 392              		.loc 1 158 13 view .LVU128
 393 0080 40308313 		orrne	r3, r3, #64
 394              	.LVL32:
 395              		.loc 1 160 3 is_stmt 1 view .LVU129
 396              		.loc 1 160 6 is_stmt 0 view .LVU130
 397 0084 000051E3 		cmp	r1, #0
 398              		.loc 1 161 5 is_stmt 1 view .LVU131
 399              		.loc 1 163 6 is_stmt 0 view .LVU132
ARM GAS  /tmp/cc07qyya.s 			page 8


 400 0088 0810D2E5 		ldrb	r1, [r2, #8]	@ zero_extendqisi2
 401              		.loc 1 161 13 view .LVU133
 402 008c 02368313 		orrne	r3, r3, #2097152
 403              	.LVL33:
 404              		.loc 1 163 3 is_stmt 1 view .LVU134
 405              		.loc 1 163 6 is_stmt 0 view .LVU135
 406 0090 000051E3 		cmp	r1, #0
 407              		.loc 1 164 5 is_stmt 1 view .LVU136
 408              		.loc 1 166 6 is_stmt 0 view .LVU137
 409 0094 0410D2E5 		ldrb	r1, [r2, #4]	@ zero_extendqisi2
 410              		.loc 1 164 13 view .LVU138
 411 0098 01358313 		orrne	r3, r3, #4194304
 412              	.LVL34:
 413              		.loc 1 166 3 is_stmt 1 view .LVU139
 414              		.loc 1 166 6 is_stmt 0 view .LVU140
 415 009c 000051E3 		cmp	r1, #0
 416              		.loc 1 167 5 is_stmt 1 view .LVU141
 417              		.loc 1 167 13 is_stmt 0 view .LVU142
 418 00a0 023A8313 		orrne	r3, r3, #8192
 419              	.LVL35:
 420              		.loc 1 170 3 is_stmt 1 view .LVU143
 421              		.loc 1 170 11 is_stmt 0 view .LVU144
 422 00a4 14109FE5 		ldr	r1, .L82+4
 423              		.loc 1 170 39 view .LVU145
 424 00a8 303083E3 		orr	r3, r3, #48
 425              	.LVL36:
 426              		.loc 1 170 11 view .LVU146
 427 00ac 003081E5 		str	r3, [r1]
 428              	.LVL37:
 429              		.loc 1 172 3 is_stmt 1 view .LVU147
 430              		.loc 1 172 17 is_stmt 0 view .LVU148
 431 00b0 0C3092E5 		ldr	r3, [r2, #12]
 432              		.loc 1 172 12 view .LVU149
 433 00b4 083081E5 		str	r3, [r1, #8]
 434              		.loc 1 173 1 view .LVU150
 435 00b8 1080BDE8 		pop	{r4, pc}
 436              	.L83:
 437              		.align	2
 438              	.L82:
 439 00bc 00B00020 		.word	536915968
 440 00c0 00402020 		.word	538984448
 441              		.cfi_endproc
 442              	.LFE9:
 443              		.size	spi_lld_start, .-spi_lld_start
 444              		.section	.text.spi_lld_stop,"ax",%progbits
 445              		.align	2
 446              		.global	spi_lld_stop
 447              		.syntax unified
 448              		.arm
 449              		.fpu softvfp
 450              		.type	spi_lld_stop, %function
 451              	spi_lld_stop:
 452              	.LVL38:
 453              	.LFB10:
 454              		.loc 1 182 36 is_stmt 1 view -0
 455              		.cfi_startproc
 456              		@ args = 0, pretend = 0, frame = 0
ARM GAS  /tmp/cc07qyya.s 			page 9


 457              		@ frame_needed = 0, uses_anonymous_args = 0
 458              		.loc 1 183 3 view .LVU152
 459              		.loc 1 185 3 view .LVU153
 460              		.loc 1 185 16 is_stmt 0 view .LVU154
 461 0000 4C209FE5 		ldr	r2, .L86
 462              		.loc 1 182 36 view .LVU155
 463 0004 10402DE9 		push	{r4, lr}
 464              		.cfi_def_cfa_offset 8
 465              		.cfi_offset 4, -8
 466              		.cfi_offset 14, -4
 467              		.loc 1 185 16 view .LVU156
 468 0008 203292E5 		ldr	r3, [r2, #544]
 469              		.loc 1 188 3 view .LVU157
 470 000c 0010A0E3 		mov	r1, #0
 471              		.loc 1 185 16 view .LVU158
 472 0010 013583E3 		orr	r3, r3, #4194304
 473 0014 203282E5 		str	r3, [r2, #544]
 474              		.loc 1 188 3 is_stmt 1 view .LVU159
 475 0018 0700A0E3 		mov	r0, #7
 476              	.LVL39:
 477              		.loc 1 188 3 is_stmt 0 view .LVU160
 478 001c FEFFFFEB 		bl	bcm2835_gpio_fnsel
 479              	.LVL40:
 480              		.loc 1 189 3 is_stmt 1 view .LVU161
 481 0020 0010A0E3 		mov	r1, #0
 482 0024 0800A0E3 		mov	r0, #8
 483 0028 FEFFFFEB 		bl	bcm2835_gpio_fnsel
 484              	.LVL41:
 485              		.loc 1 190 3 view .LVU162
 486 002c 0010A0E3 		mov	r1, #0
 487 0030 0900A0E3 		mov	r0, #9
 488 0034 FEFFFFEB 		bl	bcm2835_gpio_fnsel
 489              	.LVL42:
 490              		.loc 1 191 3 view .LVU163
 491 0038 0010A0E3 		mov	r1, #0
 492 003c 0A00A0E3 		mov	r0, #10
 493 0040 FEFFFFEB 		bl	bcm2835_gpio_fnsel
 494              	.LVL43:
 495              		.loc 1 192 3 view .LVU164
 496              		.loc 1 193 1 is_stmt 0 view .LVU165
 497 0044 1040BDE8 		pop	{r4, lr}
 498              		.cfi_restore 14
 499              		.cfi_restore 4
 500              		.cfi_def_cfa_offset 0
 501              		.loc 1 192 3 view .LVU166
 502 0048 0010A0E3 		mov	r1, #0
 503 004c 0B00A0E3 		mov	r0, #11
 504 0050 FEFFFFEA 		b	bcm2835_gpio_fnsel
 505              	.LVL44:
 506              	.L87:
 507              		.align	2
 508              	.L86:
 509 0054 00B00020 		.word	536915968
 510              		.cfi_endproc
 511              	.LFE10:
 512              		.size	spi_lld_stop, .-spi_lld_stop
 513              		.section	.text.spi_lld_select,"ax",%progbits
ARM GAS  /tmp/cc07qyya.s 			page 10


 514              		.align	2
 515              		.global	spi_lld_select
 516              		.syntax unified
 517              		.arm
 518              		.fpu softvfp
 519              		.type	spi_lld_select, %function
 520              	spi_lld_select:
 521              	.LVL45:
 522              	.LFB11:
 523              		.loc 1 202 38 is_stmt 1 view -0
 524              		.cfi_startproc
 525              		@ args = 0, pretend = 0, frame = 0
 526              		@ frame_needed = 0, uses_anonymous_args = 0
 527              		@ link register save eliminated.
 528              		.loc 1 203 3 view .LVU168
 529              		.loc 1 203 12 is_stmt 0 view .LVU169
 530 0000 1C109FE5 		ldr	r1, .L89
 531              		.loc 1 205 22 view .LVU170
 532 0004 043090E5 		ldr	r3, [r0, #4]
 533              		.loc 1 203 12 view .LVU171
 534 0008 002091E5 		ldr	r2, [r1]
 535              	.LVL46:
 536              		.loc 1 204 3 is_stmt 1 view .LVU172
 537              		.loc 1 205 36 is_stmt 0 view .LVU173
 538 000c 0530D3E5 		ldrb	r3, [r3, #5]	@ zero_extendqisi2
 539              		.loc 1 204 6 view .LVU174
 540 0010 0320C2E3 		bic	r2, r2, #3
 541              	.LVL47:
 542              		.loc 1 205 3 is_stmt 1 view .LVU175
 543              		.loc 1 205 36 is_stmt 0 view .LVU176
 544 0014 033003E2 		and	r3, r3, #3
 545              		.loc 1 205 6 view .LVU177
 546 0018 023083E1 		orr	r3, r3, r2
 547              	.LVL48:
 548              		.loc 1 206 3 is_stmt 1 view .LVU178
 549              		.loc 1 206 11 is_stmt 0 view .LVU179
 550 001c 003081E5 		str	r3, [r1]
 551              		.loc 1 207 1 view .LVU180
 552 0020 1EFF2FE1 		bx	lr
 553              	.L90:
 554              		.align	2
 555              	.L89:
 556 0024 00402020 		.word	538984448
 557              		.cfi_endproc
 558              	.LFE11:
 559              		.size	spi_lld_select, .-spi_lld_select
 560              		.section	.text.spi_lld_unselect,"ax",%progbits
 561              		.align	2
 562              		.global	spi_lld_unselect
 563              		.syntax unified
 564              		.arm
 565              		.fpu softvfp
 566              		.type	spi_lld_unselect, %function
 567              	spi_lld_unselect:
 568              	.LVL49:
 569              	.LFB12:
 570              		.loc 1 217 40 is_stmt 1 view -0
ARM GAS  /tmp/cc07qyya.s 			page 11


 571              		.cfi_startproc
 572              		@ args = 0, pretend = 0, frame = 0
 573              		@ frame_needed = 0, uses_anonymous_args = 0
 574              		@ link register save eliminated.
 575              		.loc 1 218 3 view .LVU182
 576              		.loc 1 223 3 view .LVU183
 577              		.loc 1 223 11 is_stmt 0 view .LVU184
 578 0000 0C209FE5 		ldr	r2, .L92
 579 0004 003092E5 		ldr	r3, [r2]
 580 0008 0330C3E3 		bic	r3, r3, #3
 581 000c 003082E5 		str	r3, [r2]
 582              		.loc 1 224 1 view .LVU185
 583 0010 1EFF2FE1 		bx	lr
 584              	.L93:
 585              		.align	2
 586              	.L92:
 587 0014 00402020 		.word	538984448
 588              		.cfi_endproc
 589              	.LFE12:
 590              		.size	spi_lld_unselect, .-spi_lld_unselect
 591              		.section	.text.spi_lld_ignore,"ax",%progbits
 592              		.align	2
 593              		.global	spi_lld_ignore
 594              		.syntax unified
 595              		.arm
 596              		.fpu softvfp
 597              		.type	spi_lld_ignore, %function
 598              	spi_lld_ignore:
 599              	.LVL50:
 600              	.LFB13:
 601              		.loc 1 237 48 is_stmt 1 view -0
 602              		.cfi_startproc
 603              		@ args = 0, pretend = 0, frame = 0
 604              		@ frame_needed = 0, uses_anonymous_args = 0
 605              		.loc 1 238 3 view .LVU187
 606              	.LBB19:
 607              	.LBI19:
 608              		.loc 1 256 6 view .LVU188
 609              	.LBB20:
 610              		.loc 1 259 3 view .LVU189
 611              	.LBE20:
 612              	.LBE19:
 613              		.loc 1 237 48 is_stmt 0 view .LVU190
 614 0000 04E02DE5 		str	lr, [sp, #-4]!
 615              		.cfi_def_cfa_offset 4
 616              		.cfi_offset 14, -4
 617              	.LBB22:
 618              	.LBB21:
 619              		.loc 1 261 15 view .LVU191
 620 0004 00E0A0E3 		mov	lr, #0
 621              		.loc 1 259 11 view .LVU192
 622 0008 34309FE5 		ldr	r3, .L96
 623              		.loc 1 267 15 view .LVU193
 624 000c 34C09FE5 		ldr	ip, .L96+4
 625              		.loc 1 259 11 view .LVU194
 626 0010 002093E5 		ldr	r2, [r3]
 627 0014 302082E3 		orr	r2, r2, #48
ARM GAS  /tmp/cc07qyya.s 			page 12


 628 0018 002083E5 		str	r2, [r3]
 629              		.loc 1 261 3 is_stmt 1 view .LVU195
 630              		.loc 1 266 11 is_stmt 0 view .LVU196
 631 001c 002093E5 		ldr	r2, [r3]
 632              		.loc 1 262 15 view .LVU197
 633 0020 241080E5 		str	r1, [r0, #36]
 634              		.loc 1 266 11 view .LVU198
 635 0024 1A2D82E3 		orr	r2, r2, #1664
 636              		.loc 1 261 15 view .LVU199
 637 0028 20E080E5 		str	lr, [r0, #32]
 638              		.loc 1 262 3 is_stmt 1 view .LVU200
 639              		.loc 1 263 3 view .LVU201
 640              		.loc 1 263 15 is_stmt 0 view .LVU202
 641 002c 1CE080E5 		str	lr, [r0, #28]
 642              		.loc 1 266 3 is_stmt 1 view .LVU203
 643              		.loc 1 266 11 is_stmt 0 view .LVU204
 644 0030 002083E5 		str	r2, [r3]
 645              		.loc 1 267 3 is_stmt 1 view .LVU205
 646              		.loc 1 267 15 is_stmt 0 view .LVU206
 647 0034 14329CE5 		ldr	r3, [ip, #532]
 648 0038 013583E3 		orr	r3, r3, #4194304
 649 003c 14328CE5 		str	r3, [ip, #532]
 650              	.LVL51:
 651              		.loc 1 267 15 view .LVU207
 652              	.LBE21:
 653              	.LBE22:
 654              		.loc 1 239 1 view .LVU208
 655 0040 04F09DE4 		ldr	pc, [sp], #4
 656              	.L97:
 657              		.align	2
 658              	.L96:
 659 0044 00402020 		.word	538984448
 660 0048 00B00020 		.word	536915968
 661              		.cfi_endproc
 662              	.LFE13:
 663              		.size	spi_lld_ignore, .-spi_lld_ignore
 664              		.section	.text.spi_lld_exchange,"ax",%progbits
 665              		.align	2
 666              		.global	spi_lld_exchange
 667              		.syntax unified
 668              		.arm
 669              		.fpu softvfp
 670              		.type	spi_lld_exchange, %function
 671              	spi_lld_exchange:
 672              	.LVL52:
 673              	.LFB14:
 674              		.loc 1 257 55 is_stmt 1 view -0
 675              		.cfi_startproc
 676              		@ args = 0, pretend = 0, frame = 0
 677              		@ frame_needed = 0, uses_anonymous_args = 0
 678              		.loc 1 259 3 view .LVU210
 679              		.loc 1 259 11 is_stmt 0 view .LVU211
 680 0000 38C09FE5 		ldr	ip, .L100
 681              		.loc 1 257 55 view .LVU212
 682 0004 10402DE9 		push	{r4, lr}
 683              		.cfi_def_cfa_offset 8
 684              		.cfi_offset 4, -8
ARM GAS  /tmp/cc07qyya.s 			page 13


 685              		.cfi_offset 14, -4
 686              		.loc 1 259 11 view .LVU213
 687 0008 00E09CE5 		ldr	lr, [ip]
 688              		.loc 1 267 15 view .LVU214
 689 000c 30409FE5 		ldr	r4, .L100+4
 690              		.loc 1 259 11 view .LVU215
 691 0010 30E08EE3 		orr	lr, lr, #48
 692 0014 00E08CE5 		str	lr, [ip]
 693              		.loc 1 261 3 is_stmt 1 view .LVU216
 694              		.loc 1 266 11 is_stmt 0 view .LVU217
 695 0018 00E09CE5 		ldr	lr, [ip]
 696              		.loc 1 263 15 view .LVU218
 697 001c 1C3080E5 		str	r3, [r0, #28]
 698              		.loc 1 266 11 view .LVU219
 699 0020 1AED8EE3 		orr	lr, lr, #1664
 700              		.loc 1 261 15 view .LVU220
 701 0024 202080E5 		str	r2, [r0, #32]
 702              		.loc 1 262 3 is_stmt 1 view .LVU221
 703              		.loc 1 262 15 is_stmt 0 view .LVU222
 704 0028 241080E5 		str	r1, [r0, #36]
 705              		.loc 1 263 3 is_stmt 1 view .LVU223
 706              		.loc 1 266 3 view .LVU224
 707              		.loc 1 266 11 is_stmt 0 view .LVU225
 708 002c 00E08CE5 		str	lr, [ip]
 709              		.loc 1 267 3 is_stmt 1 view .LVU226
 710              		.loc 1 267 15 is_stmt 0 view .LVU227
 711 0030 143294E5 		ldr	r3, [r4, #532]
 712              	.LVL53:
 713              		.loc 1 267 15 view .LVU228
 714 0034 013583E3 		orr	r3, r3, #4194304
 715 0038 143284E5 		str	r3, [r4, #532]
 716              		.loc 1 268 1 view .LVU229
 717 003c 1080BDE8 		pop	{r4, pc}
 718              	.L101:
 719              		.align	2
 720              	.L100:
 721 0040 00402020 		.word	538984448
 722 0044 00B00020 		.word	536915968
 723              		.cfi_endproc
 724              	.LFE14:
 725              		.size	spi_lld_exchange, .-spi_lld_exchange
 726              		.section	.text.spi_lld_send,"ax",%progbits
 727              		.align	2
 728              		.global	spi_lld_send
 729              		.syntax unified
 730              		.arm
 731              		.fpu softvfp
 732              		.type	spi_lld_send, %function
 733              	spi_lld_send:
 734              	.LVL54:
 735              	.LFB15:
 736              		.loc 1 283 65 is_stmt 1 view -0
 737              		.cfi_startproc
 738              		@ args = 0, pretend = 0, frame = 0
 739              		@ frame_needed = 0, uses_anonymous_args = 0
 740              		.loc 1 284 3 view .LVU231
 741              	.LBB23:
ARM GAS  /tmp/cc07qyya.s 			page 14


 742              	.LBI23:
 743              		.loc 1 256 6 view .LVU232
 744              	.LBB24:
 745              		.loc 1 259 3 view .LVU233
 746              	.LBE24:
 747              	.LBE23:
 748              		.loc 1 283 65 is_stmt 0 view .LVU234
 749 0000 04E02DE5 		str	lr, [sp, #-4]!
 750              		.cfi_def_cfa_offset 4
 751              		.cfi_offset 14, -4
 752              	.LBB26:
 753              	.LBB25:
 754              		.loc 1 263 15 view .LVU235
 755 0004 00E0A0E3 		mov	lr, #0
 756              		.loc 1 259 11 view .LVU236
 757 0008 34309FE5 		ldr	r3, .L104
 758 000c 00C093E5 		ldr	ip, [r3]
 759 0010 30C08CE3 		orr	ip, ip, #48
 760 0014 00C083E5 		str	ip, [r3]
 761              		.loc 1 261 3 is_stmt 1 view .LVU237
 762              		.loc 1 266 11 is_stmt 0 view .LVU238
 763 0018 00C093E5 		ldr	ip, [r3]
 764              		.loc 1 261 15 view .LVU239
 765 001c 202080E5 		str	r2, [r0, #32]
 766              		.loc 1 262 3 is_stmt 1 view .LVU240
 767              		.loc 1 266 11 is_stmt 0 view .LVU241
 768 0020 1ACD8CE3 		orr	ip, ip, #1664
 769              		.loc 1 267 15 view .LVU242
 770 0024 1C209FE5 		ldr	r2, .L104+4
 771              	.LVL55:
 772              		.loc 1 262 15 view .LVU243
 773 0028 241080E5 		str	r1, [r0, #36]
 774              		.loc 1 263 3 is_stmt 1 view .LVU244
 775              		.loc 1 263 15 is_stmt 0 view .LVU245
 776 002c 1CE080E5 		str	lr, [r0, #28]
 777              		.loc 1 266 3 is_stmt 1 view .LVU246
 778              		.loc 1 266 11 is_stmt 0 view .LVU247
 779 0030 00C083E5 		str	ip, [r3]
 780              		.loc 1 267 3 is_stmt 1 view .LVU248
 781              		.loc 1 267 15 is_stmt 0 view .LVU249
 782 0034 143292E5 		ldr	r3, [r2, #532]
 783 0038 013583E3 		orr	r3, r3, #4194304
 784 003c 143282E5 		str	r3, [r2, #532]
 785              	.LVL56:
 786              		.loc 1 267 15 view .LVU250
 787              	.LBE25:
 788              	.LBE26:
 789              		.loc 1 285 1 view .LVU251
 790 0040 04F09DE4 		ldr	pc, [sp], #4
 791              	.L105:
 792              		.align	2
 793              	.L104:
 794 0044 00402020 		.word	538984448
 795 0048 00B00020 		.word	536915968
 796              		.cfi_endproc
 797              	.LFE15:
 798              		.size	spi_lld_send, .-spi_lld_send
ARM GAS  /tmp/cc07qyya.s 			page 15


 799              		.section	.text.spi_lld_receive,"ax",%progbits
 800              		.align	2
 801              		.global	spi_lld_receive
 802              		.syntax unified
 803              		.arm
 804              		.fpu softvfp
 805              		.type	spi_lld_receive, %function
 806              	spi_lld_receive:
 807              	.LVL57:
 808              	.LFB16:
 809              		.loc 1 300 62 is_stmt 1 view -0
 810              		.cfi_startproc
 811              		@ args = 0, pretend = 0, frame = 0
 812              		@ frame_needed = 0, uses_anonymous_args = 0
 813              		.loc 1 301 3 view .LVU253
 814              	.LBB27:
 815              	.LBI27:
 816              		.loc 1 256 6 view .LVU254
 817              	.LBB28:
 818              		.loc 1 259 3 view .LVU255
 819              	.LBE28:
 820              	.LBE27:
 821              		.loc 1 300 62 is_stmt 0 view .LVU256
 822 0000 04E02DE5 		str	lr, [sp, #-4]!
 823              		.cfi_def_cfa_offset 4
 824              		.cfi_offset 14, -4
 825              	.LBB30:
 826              	.LBB29:
 827              		.loc 1 261 15 view .LVU257
 828 0004 00E0A0E3 		mov	lr, #0
 829              		.loc 1 259 11 view .LVU258
 830 0008 34309FE5 		ldr	r3, .L108
 831 000c 00C093E5 		ldr	ip, [r3]
 832 0010 30C08CE3 		orr	ip, ip, #48
 833 0014 00C083E5 		str	ip, [r3]
 834              		.loc 1 261 3 is_stmt 1 view .LVU259
 835              		.loc 1 266 11 is_stmt 0 view .LVU260
 836 0018 00C093E5 		ldr	ip, [r3]
 837              		.loc 1 262 15 view .LVU261
 838 001c 241080E5 		str	r1, [r0, #36]
 839              		.loc 1 266 11 view .LVU262
 840 0020 1ACD8CE3 		orr	ip, ip, #1664
 841              		.loc 1 267 15 view .LVU263
 842 0024 1C109FE5 		ldr	r1, .L108+4
 843              	.LVL58:
 844              		.loc 1 263 15 view .LVU264
 845 0028 1C2080E5 		str	r2, [r0, #28]
 846              		.loc 1 261 15 view .LVU265
 847 002c 20E080E5 		str	lr, [r0, #32]
 848              		.loc 1 262 3 is_stmt 1 view .LVU266
 849              		.loc 1 263 3 view .LVU267
 850              		.loc 1 266 3 view .LVU268
 851              		.loc 1 266 11 is_stmt 0 view .LVU269
 852 0030 00C083E5 		str	ip, [r3]
 853              		.loc 1 267 3 is_stmt 1 view .LVU270
 854              		.loc 1 267 15 is_stmt 0 view .LVU271
 855 0034 143291E5 		ldr	r3, [r1, #532]
ARM GAS  /tmp/cc07qyya.s 			page 16


 856 0038 013583E3 		orr	r3, r3, #4194304
 857 003c 143281E5 		str	r3, [r1, #532]
 858              	.LVL59:
 859              		.loc 1 267 15 view .LVU272
 860              	.LBE29:
 861              	.LBE30:
 862              		.loc 1 302 1 view .LVU273
 863 0040 04F09DE4 		ldr	pc, [sp], #4
 864              	.L109:
 865              		.align	2
 866              	.L108:
 867 0044 00402020 		.word	538984448
 868 0048 00B00020 		.word	536915968
 869              		.cfi_endproc
 870              	.LFE16:
 871              		.size	spi_lld_receive, .-spi_lld_receive
 872              		.section	.text.spi_lld_polled_exchange,"ax",%progbits
 873              		.align	2
 874              		.global	spi_lld_polled_exchange
 875              		.syntax unified
 876              		.arm
 877              		.fpu softvfp
 878              		.type	spi_lld_polled_exchange, %function
 879              	spi_lld_polled_exchange:
 880              	.LVL60:
 881              	.LFB17:
 882              		.loc 1 316 67 is_stmt 1 view -0
 883              		.cfi_startproc
 884              		@ args = 0, pretend = 0, frame = 0
 885              		@ frame_needed = 0, uses_anonymous_args = 0
 886              		@ link register save eliminated.
 887              		.loc 1 317 3 view .LVU275
 888              		.loc 1 320 3 view .LVU276
 889              		.loc 1 320 11 is_stmt 0 view .LVU277
 890 0000 44309FE5 		ldr	r3, .L117
 891              		.loc 1 323 12 view .LVU278
 892 0004 0300A0E1 		mov	r0, r3
 893              	.LVL61:
 894              		.loc 1 320 11 view .LVU279
 895 0008 002093E5 		ldr	r2, [r3]
 896 000c B02082E3 		orr	r2, r2, #176
 897 0010 002083E5 		str	r2, [r3]
 898              		.loc 1 323 3 is_stmt 1 view .LVU280
 899              	.L111:
 900              		.loc 1 323 34 discriminator 1 view .LVU281
 901              		.loc 1 323 9 discriminator 1 view .LVU282
 902              		.loc 1 323 12 is_stmt 0 discriminator 1 view .LVU283
 903 0014 003090E5 		ldr	r3, [r0]
 904              		.loc 1 323 9 discriminator 1 view .LVU284
 905 0018 010713E3 		tst	r3, #262144
 906 001c FCFFFF0A 		beq	.L111
 907              		.loc 1 326 3 is_stmt 1 view .LVU285
 908              		.loc 1 329 12 is_stmt 0 view .LVU286
 909 0020 24209FE5 		ldr	r2, .L117
 910              		.loc 1 326 13 view .LVU287
 911 0024 041080E5 		str	r1, [r0, #4]
 912              		.loc 1 329 3 is_stmt 1 view .LVU288
ARM GAS  /tmp/cc07qyya.s 			page 17


 913              	.L112:
 914              		.loc 1 329 35 discriminator 1 view .LVU289
 915              		.loc 1 329 9 discriminator 1 view .LVU290
 916              		.loc 1 329 12 is_stmt 0 discriminator 1 view .LVU291
 917 0028 003092E5 		ldr	r3, [r2]
 918              		.loc 1 329 9 discriminator 1 view .LVU292
 919 002c 010813E3 		tst	r3, #65536
 920 0030 FCFFFF0A 		beq	.L112
 921              		.loc 1 332 3 is_stmt 1 view .LVU293
 922              		.loc 1 332 21 is_stmt 0 view .LVU294
 923 0034 040092E5 		ldr	r0, [r2, #4]
 924              	.LVL62:
 925              		.loc 1 335 3 is_stmt 1 view .LVU295
 926              		.loc 1 335 11 is_stmt 0 view .LVU296
 927 0038 003092E5 		ldr	r3, [r2]
 928              		.loc 1 338 1 view .LVU297
 929 003c 7000FFE6 		uxth	r0, r0
 930              		.loc 1 335 11 view .LVU298
 931 0040 8030C3E3 		bic	r3, r3, #128
 932 0044 003082E5 		str	r3, [r2]
 933              		.loc 1 337 3 is_stmt 1 view .LVU299
 934              		.loc 1 338 1 is_stmt 0 view .LVU300
 935 0048 1EFF2FE1 		bx	lr
 936              	.L118:
 937              		.align	2
 938              	.L117:
 939 004c 00402020 		.word	538984448
 940              		.cfi_endproc
 941              	.LFE17:
 942              		.size	spi_lld_polled_exchange, .-spi_lld_polled_exchange
 943              		.comm	SPI0,40,4
 944              		.text
 945              	.Letext0:
 946              		.file 2 "/usr/lib/gcc/arm-none-eabi/9.2.1/include/stddef.h"
 947              		.file 3 "/usr/lib/gcc/arm-none-eabi/9.2.1/include/stdint.h"
 948              		.file 4 "../os/ports/GCC/ARM/chtypes.h"
 949              		.file 5 "../os/kernel/include/chlists.h"
 950              		.file 6 "../os/kernel/include/chthreads.h"
 951              		.file 7 "../os/ports/GCC/ARM/chcore.h"
 952              		.file 8 "../os/kernel/include/chvt.h"
 953              		.file 9 "../os/kernel/include/chschd.h"
 954              		.file 10 "../os/kernel/include/chmtx.h"
 955              		.file 11 "../os/kernel/include/chevents.h"
 956              		.file 12 "../os/kernel/include/chregistry.h"
 957              		.file 13 "../os/kernel/include/chqueues.h"
 958              		.file 14 "../os/kernel/include/ch.h"
 959              		.file 15 "../os/hal/platforms/BCM2835/bcm2835.h"
 960              		.file 16 "../os/hal/platforms/BCM2835/pal_lld.h"
 961              		.file 17 "../os/hal/include/i2c.h"
 962              		.file 18 "../os/hal/platforms/BCM2835/i2c_lld.h"
 963              		.file 19 "../os/hal/include/serial.h"
 964              		.file 20 "../os/hal/include/spi.h"
 965              		.file 21 "../os/hal/platforms/BCM2835/spi_lld.h"
 966              		.file 22 "../os/hal/platforms/BCM2835/serial_lld.h"