ARM GAS  /tmp/ccz1fEzT.s 			page 1


   1              		.cpu arm1176jz-s
   2              		.eabi_attribute 20, 1
   3              		.eabi_attribute 21, 1
   4              		.eabi_attribute 23, 3
   5              		.eabi_attribute 24, 1
   6              		.eabi_attribute 25, 1
   7              		.eabi_attribute 26, 1
   8              		.eabi_attribute 30, 2
   9              		.eabi_attribute 34, 1
  10              		.eabi_attribute 18, 4
  11              		.file	"testmsg.c"
  12              		.text
  13              	.Ltext0:
  14              		.cfi_sections	.debug_frame
  15              		.section	.rodata.msg1_execute.str1.4,"aMS",%progbits,1
  16              		.align	2
  17              	.LC0:
  18 0000 41424300 		.ascii	"ABC\000"
  19              		.section	.text.msg1_execute,"ax",%progbits
  20              		.align	2
  21              		.arch armv6kz
  22              		.syntax unified
  23              		.arm
  24              		.fpu softvfp
  25              		.type	msg1_execute, %function
  26              	msg1_execute:
  27              	.LFB8:
  28              		.file 1 "../test/testmsg.c"
  29              		.loc 1 71 32 view -0
  30              		.cfi_startproc
  31              		@ args = 0, pretend = 0, frame = 0
  32              		@ frame_needed = 0, uses_anonymous_args = 0
  33              		.loc 1 72 3 view .LVU1
  34              		.loc 1 73 3 view .LVU2
  35              		.loc 1 78 3 view .LVU3
  36              		.loc 1 71 32 is_stmt 0 view .LVU4
  37 0000 10402DE9 		push	{r4, lr}
  38              		.cfi_def_cfa_offset 8
  39              		.cfi_offset 4, -8
  40              		.cfi_offset 14, -4
  41              		.loc 1 78 50 view .LVU5
  42 0004 88209FE5 		ldr	r2, .L4
  43              		.loc 1 78 16 view .LVU6
  44 0008 88309FE5 		ldr	r3, .L4+4
  45              		.loc 1 78 50 view .LVU7
  46 000c 181092E5 		ldr	r1, [r2, #24]
  47              		.loc 1 71 32 view .LVU8
  48 0010 08D04DE2 		sub	sp, sp, #8
  49              		.cfi_def_cfa_offset 16
  50              		.loc 1 78 16 view .LVU9
  51 0014 082091E5 		ldr	r2, [r1, #8]
  52 0018 000093E5 		ldr	r0, [r3]
  53 001c 012082E2 		add	r2, r2, #1
  54 0020 00108DE5 		str	r1, [sp]
  55 0024 70309FE5 		ldr	r3, .L4+8
  56 0028 461FA0E3 		mov	r1, #280
  57 002c FEFFFFEB 		bl	chThdCreateStatic
ARM GAS  /tmp/ccz1fEzT.s 			page 2


  58              	.LVL0:
  59              		.loc 1 78 14 view .LVU10
  60 0030 68309FE5 		ldr	r3, .L4+12
  61 0034 000083E5 		str	r0, [r3]
  62              		.loc 1 80 3 is_stmt 1 view .LVU11
  63              		.loc 1 80 8 is_stmt 0 view .LVU12
  64 0038 FEFFFFEB 		bl	chMsgWait
  65              	.LVL1:
  66              		.loc 1 81 3 is_stmt 1 view .LVU13
  67              		.loc 1 81 7 is_stmt 0 view .LVU14
  68 003c 344090E5 		ldr	r4, [r0, #52]
  69              	.LVL2:
  70              		.loc 1 82 3 is_stmt 1 view .LVU15
  71 0040 0410A0E1 		mov	r1, r4
  72 0044 FEFFFFEB 		bl	chMsgRelease
  73              	.LVL3:
  74              		.loc 1 83 3 view .LVU16
  75 0048 7400EFE6 		uxtb	r0, r4
  76 004c FEFFFFEB 		bl	test_emit_token
  77              	.LVL4:
  78              		.loc 1 84 3 view .LVU17
  79              		.loc 1 84 8 is_stmt 0 view .LVU18
  80 0050 FEFFFFEB 		bl	chMsgWait
  81              	.LVL5:
  82              		.loc 1 85 3 is_stmt 1 view .LVU19
  83              		.loc 1 85 7 is_stmt 0 view .LVU20
  84 0054 344090E5 		ldr	r4, [r0, #52]
  85              	.LVL6:
  86              		.loc 1 86 3 is_stmt 1 view .LVU21
  87 0058 0410A0E1 		mov	r1, r4
  88 005c FEFFFFEB 		bl	chMsgRelease
  89              	.LVL7:
  90              		.loc 1 87 3 view .LVU22
  91 0060 7400EFE6 		uxtb	r0, r4
  92 0064 FEFFFFEB 		bl	test_emit_token
  93              	.LVL8:
  94              		.loc 1 88 3 view .LVU23
  95              		.loc 1 88 8 is_stmt 0 view .LVU24
  96 0068 FEFFFFEB 		bl	chMsgWait
  97              	.LVL9:
  98              		.loc 1 89 3 is_stmt 1 view .LVU25
  99              		.loc 1 89 7 is_stmt 0 view .LVU26
 100 006c 344090E5 		ldr	r4, [r0, #52]
 101              	.LVL10:
 102              		.loc 1 90 3 is_stmt 1 view .LVU27
 103 0070 0410A0E1 		mov	r1, r4
 104 0074 FEFFFFEB 		bl	chMsgRelease
 105              	.LVL11:
 106              		.loc 1 91 3 view .LVU28
 107 0078 7400EFE6 		uxtb	r0, r4
 108 007c FEFFFFEB 		bl	test_emit_token
 109              	.LVL12:
 110              		.loc 1 92 3 view .LVU29
 111 0080 0100A0E3 		mov	r0, #1
 112 0084 18109FE5 		ldr	r1, .L4+16
 113              		.loc 1 93 1 is_stmt 0 view .LVU30
 114 0088 08D08DE2 		add	sp, sp, #8
ARM GAS  /tmp/ccz1fEzT.s 			page 3


 115              		.cfi_def_cfa_offset 8
 116              		@ sp needed
 117 008c 1040BDE8 		pop	{r4, lr}
 118              		.cfi_restore 14
 119              		.cfi_restore 4
 120              		.cfi_def_cfa_offset 0
 121              	.LVL13:
 122              		.loc 1 92 3 view .LVU31
 123 0090 FEFFFFEA 		b	_test_assert_sequence
 124              	.LVL14:
 125              	.L5:
 126              		.align	2
 127              	.L4:
 128 0094 00000000 		.word	rlist
 129 0098 00000000 		.word	wa
 130 009c 00000000 		.word	thread
 131 00a0 00000000 		.word	threads
 132 00a4 00000000 		.word	.LC0
 133              		.cfi_endproc
 134              	.LFE8:
 135              		.size	msg1_execute, .-msg1_execute
 136              		.section	.text.thread,"ax",%progbits
 137              		.align	2
 138              		.syntax unified
 139              		.arm
 140              		.fpu softvfp
 141              		.type	thread, %function
 142              	thread:
 143              	.LVL15:
 144              	.LFB7:
 145              		.loc 1 63 30 is_stmt 1 view -0
 146              		.cfi_startproc
 147              		@ args = 0, pretend = 0, frame = 0
 148              		@ frame_needed = 0, uses_anonymous_args = 0
 149              		.loc 1 65 3 view .LVU33
 150              		.loc 1 63 30 is_stmt 0 view .LVU34
 151 0000 10402DE9 		push	{r4, lr}
 152              		.cfi_def_cfa_offset 8
 153              		.cfi_offset 4, -8
 154              		.cfi_offset 14, -4
 155              		.loc 1 63 30 view .LVU35
 156 0004 0040A0E1 		mov	r4, r0
 157              		.loc 1 65 3 view .LVU36
 158 0008 4110A0E3 		mov	r1, #65
 159 000c FEFFFFEB 		bl	chMsgSend
 160              	.LVL16:
 161              		.loc 1 66 3 is_stmt 1 view .LVU37
 162 0010 0400A0E1 		mov	r0, r4
 163 0014 4210A0E3 		mov	r1, #66
 164 0018 FEFFFFEB 		bl	chMsgSend
 165              	.LVL17:
 166              		.loc 1 67 3 view .LVU38
 167 001c 0400A0E1 		mov	r0, r4
 168 0020 4310A0E3 		mov	r1, #67
 169 0024 FEFFFFEB 		bl	chMsgSend
 170              	.LVL18:
 171              		.loc 1 68 3 view .LVU39
ARM GAS  /tmp/ccz1fEzT.s 			page 4


 172              		.loc 1 69 1 is_stmt 0 view .LVU40
 173 0028 0000A0E3 		mov	r0, #0
 174 002c 1080BDE8 		pop	{r4, pc}
 175              		.cfi_endproc
 176              	.LFE7:
 177              		.size	thread, .-thread
 178              		.global	patternmsg
 179              		.global	testmsg1
 180              		.section	.rodata.str1.4,"aMS",%progbits,1
 181              		.align	2
 182              	.LC1:
 183 0000 4D657373 		.ascii	"Messages, loop\000"
 183      61676573 
 183      2C206C6F 
 183      6F7000
 184              		.section	.rodata.patternmsg,"a"
 185              		.align	2
 186              		.type	patternmsg, %object
 187              		.size	patternmsg, 8
 188              	patternmsg:
 189 0000 00000000 		.word	testmsg1
 190 0004 00000000 		.word	0
 191              		.section	.rodata.testmsg1,"a"
 192              		.align	2
 193              		.type	testmsg1, %object
 194              		.size	testmsg1, 16
 195              	testmsg1:
 196 0000 00000000 		.word	.LC1
 197 0004 00000000 		.word	0
 198 0008 00000000 		.word	0
 199 000c 00000000 		.word	msg1_execute
 200              		.text
 201              	.Letext0:
 202              		.file 2 "/usr/lib/gcc/arm-none-eabi/9.2.1/include/stdint.h"
 203              		.file 3 "../os/ports/GCC/ARM/chtypes.h"
 204              		.file 4 "../os/kernel/include/chlists.h"
 205              		.file 5 "../os/kernel/include/chthreads.h"
 206              		.file 6 "../os/ports/GCC/ARM/chcore.h"
 207              		.file 7 "../os/kernel/include/chvt.h"
 208              		.file 8 "../os/kernel/include/chschd.h"
 209              		.file 9 "../os/kernel/include/chmtx.h"
 210              		.file 10 "../os/kernel/include/chregistry.h"
 211              		.file 11 "../os/kernel/include/ch.h"
 212              		.file 12 "../test/test.h"
 213              		.file 13 "../os/kernel/include/chmsg.h"
 214              		.section	.debug_info,"",%progbits
 215              	.Ldebug_info0:
 216 0000 83090000 		.4byte	0x983
 217 0004 0400     		.2byte	0x4
 218 0006 00000000 		.4byte	.Ldebug_abbrev0
 219 000a 04       		.byte	0x4
 220 000b 01       		.uleb128 0x1
 221 000c 13000000 		.4byte	.LASF112
 222 0010 0C       		.byte	0xc
 223 0011 8C050000 		.4byte	.LASF113
 224 0015 63040000 		.4byte	.LASF114
 225 0019 00000000 		.4byte	.Ldebug_ranges0+0
ARM GAS  /tmp/ccz1fEzT.s 			page 5


 226 001d 00000000 		.4byte	0
 227 0021 00000000 		.4byte	.Ldebug_line0
 228 0025 02       		.uleb128 0x2
 229 0026 04       		.byte	0x4
 230 0027 05       		.byte	0x5
 231 0028 696E7400 		.ascii	"int\000"
 232 002c 03       		.uleb128 0x3
 233 002d 04       		.byte	0x4
 234 002e 07       		.byte	0x7
 235 002f 0C020000 		.4byte	.LASF0
 236 0033 03       		.uleb128 0x3
 237 0034 01       		.byte	0x1
 238 0035 06       		.byte	0x6
 239 0036 53010000 		.4byte	.LASF1
 240 003a 03       		.uleb128 0x3
 241 003b 02       		.byte	0x2
 242 003c 05       		.byte	0x5
 243 003d B4030000 		.4byte	.LASF2
 244 0041 04       		.uleb128 0x4
 245 0042 94030000 		.4byte	.LASF5
 246 0046 02       		.byte	0x2
 247 0047 28       		.byte	0x28
 248 0048 18       		.byte	0x18
 249 0049 4D000000 		.4byte	0x4d
 250 004d 03       		.uleb128 0x3
 251 004e 04       		.byte	0x4
 252 004f 05       		.byte	0x5
 253 0050 A5010000 		.4byte	.LASF3
 254 0054 03       		.uleb128 0x3
 255 0055 08       		.byte	0x8
 256 0056 05       		.byte	0x5
 257 0057 45010000 		.4byte	.LASF4
 258 005b 04       		.uleb128 0x4
 259 005c 4C050000 		.4byte	.LASF6
 260 0060 02       		.byte	0x2
 261 0061 2E       		.byte	0x2e
 262 0062 18       		.byte	0x18
 263 0063 67000000 		.4byte	0x67
 264 0067 03       		.uleb128 0x3
 265 0068 01       		.byte	0x1
 266 0069 08       		.byte	0x8
 267 006a 9C030000 		.4byte	.LASF7
 268 006e 04       		.uleb128 0x4
 269 006f C1010000 		.4byte	.LASF8
 270 0073 02       		.byte	0x2
 271 0074 31       		.byte	0x31
 272 0075 19       		.byte	0x19
 273 0076 7A000000 		.4byte	0x7a
 274 007a 03       		.uleb128 0x3
 275 007b 02       		.byte	0x2
 276 007c 07       		.byte	0x7
 277 007d 67020000 		.4byte	.LASF9
 278 0081 04       		.uleb128 0x4
 279 0082 39040000 		.4byte	.LASF10
 280 0086 02       		.byte	0x2
 281 0087 34       		.byte	0x34
 282 0088 19       		.byte	0x19
ARM GAS  /tmp/ccz1fEzT.s 			page 6


 283 0089 8D000000 		.4byte	0x8d
 284 008d 03       		.uleb128 0x3
 285 008e 04       		.byte	0x4
 286 008f 07       		.byte	0x7
 287 0090 21020000 		.4byte	.LASF11
 288 0094 03       		.uleb128 0x3
 289 0095 08       		.byte	0x8
 290 0096 07       		.byte	0x7
 291 0097 F5000000 		.4byte	.LASF12
 292 009b 04       		.uleb128 0x4
 293 009c 7C010000 		.4byte	.LASF13
 294 00a0 03       		.byte	0x3
 295 00a1 29       		.byte	0x29
 296 00a2 19       		.byte	0x19
 297 00a3 41000000 		.4byte	0x41
 298 00a7 04       		.uleb128 0x4
 299 00a8 88020000 		.4byte	.LASF14
 300 00ac 03       		.byte	0x3
 301 00ad 2A       		.byte	0x2a
 302 00ae 19       		.byte	0x19
 303 00af 5B000000 		.4byte	0x5b
 304 00b3 04       		.uleb128 0x4
 305 00b4 B8010000 		.4byte	.LASF15
 306 00b8 03       		.byte	0x3
 307 00b9 2B       		.byte	0x2b
 308 00ba 19       		.byte	0x19
 309 00bb 5B000000 		.4byte	0x5b
 310 00bf 04       		.uleb128 0x4
 311 00c0 63030000 		.4byte	.LASF16
 312 00c4 03       		.byte	0x3
 313 00c5 2C       		.byte	0x2c
 314 00c6 19       		.byte	0x19
 315 00c7 5B000000 		.4byte	0x5b
 316 00cb 04       		.uleb128 0x4
 317 00cc 9B010000 		.4byte	.LASF17
 318 00d0 03       		.byte	0x3
 319 00d1 2D       		.byte	0x2d
 320 00d2 19       		.byte	0x19
 321 00d3 5B000000 		.4byte	0x5b
 322 00d7 04       		.uleb128 0x4
 323 00d8 85030000 		.4byte	.LASF18
 324 00dc 03       		.byte	0x3
 325 00dd 2E       		.byte	0x2e
 326 00de 19       		.byte	0x19
 327 00df 81000000 		.4byte	0x81
 328 00e3 04       		.uleb128 0x4
 329 00e4 7A020000 		.4byte	.LASF19
 330 00e8 03       		.byte	0x3
 331 00e9 2F       		.byte	0x2f
 332 00ea 19       		.byte	0x19
 333 00eb 41000000 		.4byte	0x41
 334 00ef 04       		.uleb128 0x4
 335 00f0 9C020000 		.4byte	.LASF20
 336 00f4 03       		.byte	0x3
 337 00f5 31       		.byte	0x31
 338 00f6 19       		.byte	0x19
 339 00f7 81000000 		.4byte	0x81
ARM GAS  /tmp/ccz1fEzT.s 			page 7


 340 00fb 04       		.uleb128 0x4
 341 00fc DA040000 		.4byte	.LASF21
 342 0100 03       		.byte	0x3
 343 0101 33       		.byte	0x33
 344 0102 19       		.byte	0x19
 345 0103 81000000 		.4byte	0x81
 346 0107 05       		.uleb128 0x5
 347 0108 FB000000 		.4byte	0xfb
 348 010c 04       		.uleb128 0x4
 349 010d 11040000 		.4byte	.LASF22
 350 0111 04       		.byte	0x4
 351 0112 23       		.byte	0x23
 352 0113 17       		.byte	0x17
 353 0114 18010000 		.4byte	0x118
 354 0118 06       		.uleb128 0x6
 355 0119 11040000 		.4byte	.LASF22
 356 011d 44       		.byte	0x44
 357 011e 05       		.byte	0x5
 358 011f 57       		.byte	0x57
 359 0120 08       		.byte	0x8
 360 0121 1D020000 		.4byte	0x21d
 361 0125 07       		.uleb128 0x7
 362 0126 F3030000 		.4byte	.LASF23
 363 012a 05       		.byte	0x5
 364 012b 58       		.byte	0x58
 365 012c 1A       		.byte	0x1a
 366 012d 41020000 		.4byte	0x241
 367 0131 00       		.byte	0
 368 0132 07       		.uleb128 0x7
 369 0133 76030000 		.4byte	.LASF24
 370 0137 05       		.byte	0x5
 371 0138 5A       		.byte	0x5a
 372 0139 1A       		.byte	0x1a
 373 013a 41020000 		.4byte	0x241
 374 013e 04       		.byte	0x4
 375 013f 07       		.uleb128 0x7
 376 0140 28010000 		.4byte	.LASF25
 377 0144 05       		.byte	0x5
 378 0145 5C       		.byte	0x5c
 379 0146 19       		.byte	0x19
 380 0147 D7000000 		.4byte	0xd7
 381 014b 08       		.byte	0x8
 382 014c 07       		.uleb128 0x7
 383 014d 9E050000 		.4byte	.LASF26
 384 0151 05       		.byte	0x5
 385 0152 5D       		.byte	0x5d
 386 0153 19       		.byte	0x19
 387 0154 11030000 		.4byte	0x311
 388 0158 0C       		.byte	0xc
 389 0159 07       		.uleb128 0x7
 390 015a DB010000 		.4byte	.LASF27
 391 015e 05       		.byte	0x5
 392 015f 5F       		.byte	0x5f
 393 0160 1A       		.byte	0x1a
 394 0161 41020000 		.4byte	0x241
 395 0165 10       		.byte	0x10
 396 0166 07       		.uleb128 0x7
ARM GAS  /tmp/ccz1fEzT.s 			page 8


 397 0167 12030000 		.4byte	.LASF28
 398 016b 05       		.byte	0x5
 399 016c 60       		.byte	0x60
 400 016d 1A       		.byte	0x1a
 401 016e 41020000 		.4byte	0x241
 402 0172 14       		.byte	0x14
 403 0173 07       		.uleb128 0x7
 404 0174 68050000 		.4byte	.LASF29
 405 0178 05       		.byte	0x5
 406 0179 67       		.byte	0x67
 407 017a 1A       		.byte	0x1a
 408 017b F7040000 		.4byte	0x4f7
 409 017f 18       		.byte	0x18
 410 0180 07       		.uleb128 0x7
 411 0181 BE030000 		.4byte	.LASF30
 412 0185 05       		.byte	0x5
 413 0186 72       		.byte	0x72
 414 0187 19       		.byte	0x19
 415 0188 B3000000 		.4byte	0xb3
 416 018c 1C       		.byte	0x1c
 417 018d 07       		.uleb128 0x7
 418 018e 09040000 		.4byte	.LASF31
 419 0192 05       		.byte	0x5
 420 0193 76       		.byte	0x76
 421 0194 19       		.byte	0x19
 422 0195 A7000000 		.4byte	0xa7
 423 0199 1D       		.byte	0x1d
 424 019a 07       		.uleb128 0x7
 425 019b 2D050000 		.4byte	.LASF32
 426 019f 05       		.byte	0x5
 427 01a0 7B       		.byte	0x7b
 428 01a1 19       		.byte	0x19
 429 01a2 BF000000 		.4byte	0xbf
 430 01a6 1E       		.byte	0x1e
 431 01a7 07       		.uleb128 0x7
 432 01a8 C6030000 		.4byte	.LASF33
 433 01ac 05       		.byte	0x5
 434 01ad 81       		.byte	0x81
 435 01ae 19       		.byte	0x19
 436 01af CB000000 		.4byte	0xcb
 437 01b3 1F       		.byte	0x1f
 438 01b4 07       		.uleb128 0x7
 439 01b5 F8040000 		.4byte	.LASF34
 440 01b9 05       		.byte	0x5
 441 01ba 88       		.byte	0x88
 442 01bb 19       		.byte	0x19
 443 01bc 07010000 		.4byte	0x107
 444 01c0 20       		.byte	0x20
 445 01c1 08       		.uleb128 0x8
 446 01c2 705F7500 		.ascii	"p_u\000"
 447 01c6 05       		.byte	0x5
 448 01c7 AD       		.byte	0xad
 449 01c8 19       		.byte	0x19
 450 01c9 BD040000 		.4byte	0x4bd
 451 01cd 24       		.byte	0x24
 452 01ce 07       		.uleb128 0x7
 453 01cf A4050000 		.4byte	.LASF35
ARM GAS  /tmp/ccz1fEzT.s 			page 9


 454 01d3 05       		.byte	0x5
 455 01d4 B2       		.byte	0xb2
 456 01d5 19       		.byte	0x19
 457 01d6 6A020000 		.4byte	0x26a
 458 01da 28       		.byte	0x28
 459 01db 07       		.uleb128 0x7
 460 01dc 06050000 		.4byte	.LASF36
 461 01e0 05       		.byte	0x5
 462 01e1 B8       		.byte	0xb8
 463 01e2 19       		.byte	0x19
 464 01e3 47020000 		.4byte	0x247
 465 01e7 2C       		.byte	0x2c
 466 01e8 07       		.uleb128 0x7
 467 01e9 0D000000 		.4byte	.LASF37
 468 01ed 05       		.byte	0x5
 469 01ee BC       		.byte	0xbc
 470 01ef 19       		.byte	0x19
 471 01f0 E3000000 		.4byte	0xe3
 472 01f4 34       		.byte	0x34
 473 01f5 07       		.uleb128 0x7
 474 01f6 2E040000 		.4byte	.LASF38
 475 01fa 05       		.byte	0x5
 476 01fb C2       		.byte	0xc2
 477 01fc 19       		.byte	0x19
 478 01fd EF000000 		.4byte	0xef
 479 0201 38       		.byte	0x38
 480 0202 07       		.uleb128 0x7
 481 0203 AA030000 		.4byte	.LASF39
 482 0207 05       		.byte	0x5
 483 0208 C9       		.byte	0xc9
 484 0209 1A       		.byte	0x1a
 485 020a 09050000 		.4byte	0x509
 486 020e 3C       		.byte	0x3c
 487 020f 07       		.uleb128 0x7
 488 0210 E4040000 		.4byte	.LASF40
 489 0214 05       		.byte	0x5
 490 0215 CD       		.byte	0xcd
 491 0216 19       		.byte	0x19
 492 0217 D7000000 		.4byte	0xd7
 493 021b 40       		.byte	0x40
 494 021c 00       		.byte	0
 495 021d 09       		.uleb128 0x9
 496 021e 08       		.byte	0x8
 497 021f 04       		.byte	0x4
 498 0220 5A       		.byte	0x5a
 499 0221 09       		.byte	0x9
 500 0222 41020000 		.4byte	0x241
 501 0226 07       		.uleb128 0x7
 502 0227 F3030000 		.4byte	.LASF23
 503 022b 04       		.byte	0x4
 504 022c 5B       		.byte	0x5b
 505 022d 1A       		.byte	0x1a
 506 022e 41020000 		.4byte	0x241
 507 0232 00       		.byte	0
 508 0233 07       		.uleb128 0x7
 509 0234 76030000 		.4byte	.LASF24
 510 0238 04       		.byte	0x4
ARM GAS  /tmp/ccz1fEzT.s 			page 10


 511 0239 5D       		.byte	0x5d
 512 023a 1A       		.byte	0x1a
 513 023b 41020000 		.4byte	0x241
 514 023f 04       		.byte	0x4
 515 0240 00       		.byte	0
 516 0241 0A       		.uleb128 0xa
 517 0242 04       		.byte	0x4
 518 0243 0C010000 		.4byte	0x10c
 519 0247 04       		.uleb128 0x4
 520 0248 20030000 		.4byte	.LASF41
 521 024c 04       		.byte	0x4
 522 024d 5F       		.byte	0x5f
 523 024e 03       		.byte	0x3
 524 024f 1D020000 		.4byte	0x21d
 525 0253 09       		.uleb128 0x9
 526 0254 04       		.byte	0x4
 527 0255 04       		.byte	0x4
 528 0256 64       		.byte	0x64
 529 0257 09       		.byte	0x9
 530 0258 6A020000 		.4byte	0x26a
 531 025c 07       		.uleb128 0x7
 532 025d F3030000 		.4byte	.LASF23
 533 0261 04       		.byte	0x4
 534 0262 66       		.byte	0x66
 535 0263 16       		.byte	0x16
 536 0264 41020000 		.4byte	0x241
 537 0268 00       		.byte	0
 538 0269 00       		.byte	0
 539 026a 04       		.uleb128 0x4
 540 026b 90020000 		.4byte	.LASF42
 541 026f 04       		.byte	0x4
 542 0270 69       		.byte	0x69
 543 0271 03       		.byte	0x3
 544 0272 53020000 		.4byte	0x253
 545 0276 04       		.uleb128 0x4
 546 0277 AE020000 		.4byte	.LASF43
 547 027b 06       		.byte	0x6
 548 027c 9D       		.byte	0x9d
 549 027d 12       		.byte	0x12
 550 027e 81000000 		.4byte	0x81
 551 0282 04       		.uleb128 0x4
 552 0283 FB010000 		.4byte	.LASF44
 553 0287 06       		.byte	0x6
 554 0288 A2       		.byte	0xa2
 555 0289 0F       		.byte	0xf
 556 028a 8E020000 		.4byte	0x28e
 557 028e 0B       		.uleb128 0xb
 558 028f 04       		.byte	0x4
 559 0290 0C       		.uleb128 0xc
 560 0291 8E020000 		.4byte	0x28e
 561 0295 06       		.uleb128 0x6
 562 0296 FF040000 		.4byte	.LASF45
 563 029a 24       		.byte	0x24
 564 029b 06       		.byte	0x6
 565 029c B9       		.byte	0xb9
 566 029d 08       		.byte	0x8
 567 029e 11030000 		.4byte	0x311
ARM GAS  /tmp/ccz1fEzT.s 			page 11


 568 02a2 08       		.uleb128 0x8
 569 02a3 723400   		.ascii	"r4\000"
 570 02a6 06       		.byte	0x6
 571 02a7 BA       		.byte	0xba
 572 02a8 11       		.byte	0x11
 573 02a9 82020000 		.4byte	0x282
 574 02ad 00       		.byte	0
 575 02ae 08       		.uleb128 0x8
 576 02af 723500   		.ascii	"r5\000"
 577 02b2 06       		.byte	0x6
 578 02b3 BB       		.byte	0xbb
 579 02b4 11       		.byte	0x11
 580 02b5 82020000 		.4byte	0x282
 581 02b9 04       		.byte	0x4
 582 02ba 08       		.uleb128 0x8
 583 02bb 723600   		.ascii	"r6\000"
 584 02be 06       		.byte	0x6
 585 02bf BC       		.byte	0xbc
 586 02c0 11       		.byte	0x11
 587 02c1 82020000 		.4byte	0x282
 588 02c5 08       		.byte	0x8
 589 02c6 08       		.uleb128 0x8
 590 02c7 723700   		.ascii	"r7\000"
 591 02ca 06       		.byte	0x6
 592 02cb BD       		.byte	0xbd
 593 02cc 11       		.byte	0x11
 594 02cd 82020000 		.4byte	0x282
 595 02d1 0C       		.byte	0xc
 596 02d2 08       		.uleb128 0x8
 597 02d3 723800   		.ascii	"r8\000"
 598 02d6 06       		.byte	0x6
 599 02d7 BE       		.byte	0xbe
 600 02d8 11       		.byte	0x11
 601 02d9 82020000 		.4byte	0x282
 602 02dd 10       		.byte	0x10
 603 02de 08       		.uleb128 0x8
 604 02df 723900   		.ascii	"r9\000"
 605 02e2 06       		.byte	0x6
 606 02e3 BF       		.byte	0xbf
 607 02e4 11       		.byte	0x11
 608 02e5 82020000 		.4byte	0x282
 609 02e9 14       		.byte	0x14
 610 02ea 08       		.uleb128 0x8
 611 02eb 72313000 		.ascii	"r10\000"
 612 02ef 06       		.byte	0x6
 613 02f0 C0       		.byte	0xc0
 614 02f1 11       		.byte	0x11
 615 02f2 82020000 		.4byte	0x282
 616 02f6 18       		.byte	0x18
 617 02f7 08       		.uleb128 0x8
 618 02f8 72313100 		.ascii	"r11\000"
 619 02fc 06       		.byte	0x6
 620 02fd C1       		.byte	0xc1
 621 02fe 11       		.byte	0x11
 622 02ff 82020000 		.4byte	0x282
 623 0303 1C       		.byte	0x1c
 624 0304 08       		.uleb128 0x8
ARM GAS  /tmp/ccz1fEzT.s 			page 12


 625 0305 6C7200   		.ascii	"lr\000"
 626 0308 06       		.byte	0x6
 627 0309 C2       		.byte	0xc2
 628 030a 11       		.byte	0x11
 629 030b 82020000 		.4byte	0x282
 630 030f 20       		.byte	0x20
 631 0310 00       		.byte	0
 632 0311 06       		.uleb128 0x6
 633 0312 5F020000 		.4byte	.LASF46
 634 0316 04       		.byte	0x4
 635 0317 06       		.byte	0x6
 636 0318 CA       		.byte	0xca
 637 0319 08       		.byte	0x8
 638 031a 2C030000 		.4byte	0x32c
 639 031e 08       		.uleb128 0x8
 640 031f 72313300 		.ascii	"r13\000"
 641 0323 06       		.byte	0x6
 642 0324 CB       		.byte	0xcb
 643 0325 12       		.byte	0x12
 644 0326 2C030000 		.4byte	0x32c
 645 032a 00       		.byte	0
 646 032b 00       		.byte	0
 647 032c 0A       		.uleb128 0xa
 648 032d 04       		.byte	0x4
 649 032e 95020000 		.4byte	0x295
 650 0332 04       		.uleb128 0x4
 651 0333 EF040000 		.4byte	.LASF47
 652 0337 07       		.byte	0x7
 653 0338 4E       		.byte	0x4e
 654 0339 10       		.byte	0x10
 655 033a 3E030000 		.4byte	0x33e
 656 033e 0A       		.uleb128 0xa
 657 033f 04       		.byte	0x4
 658 0340 44030000 		.4byte	0x344
 659 0344 0D       		.uleb128 0xd
 660 0345 4F030000 		.4byte	0x34f
 661 0349 0E       		.uleb128 0xe
 662 034a 8E020000 		.4byte	0x28e
 663 034e 00       		.byte	0
 664 034f 04       		.uleb128 0x4
 665 0350 56040000 		.4byte	.LASF48
 666 0354 07       		.byte	0x7
 667 0355 53       		.byte	0x53
 668 0356 1D       		.byte	0x1d
 669 0357 5B030000 		.4byte	0x35b
 670 035b 06       		.uleb128 0x6
 671 035c 56040000 		.4byte	.LASF48
 672 0360 14       		.byte	0x14
 673 0361 07       		.byte	0x7
 674 0362 5A       		.byte	0x5a
 675 0363 08       		.byte	0x8
 676 0364 AA030000 		.4byte	0x3aa
 677 0368 07       		.uleb128 0x7
 678 0369 19020000 		.4byte	.LASF49
 679 036d 07       		.byte	0x7
 680 036e 5B       		.byte	0x5b
 681 036f 1A       		.byte	0x1a
ARM GAS  /tmp/ccz1fEzT.s 			page 13


 682 0370 AA030000 		.4byte	0x3aa
 683 0374 00       		.byte	0
 684 0375 07       		.uleb128 0x7
 685 0376 04020000 		.4byte	.LASF50
 686 037a 07       		.byte	0x7
 687 037b 5D       		.byte	0x5d
 688 037c 1A       		.byte	0x1a
 689 037d AA030000 		.4byte	0x3aa
 690 0381 04       		.byte	0x4
 691 0382 07       		.uleb128 0x7
 692 0383 DF020000 		.4byte	.LASF51
 693 0387 07       		.byte	0x7
 694 0388 5F       		.byte	0x5f
 695 0389 19       		.byte	0x19
 696 038a FB000000 		.4byte	0xfb
 697 038e 08       		.byte	0x8
 698 038f 07       		.uleb128 0x7
 699 0390 F2020000 		.4byte	.LASF52
 700 0394 07       		.byte	0x7
 701 0395 60       		.byte	0x60
 702 0396 19       		.byte	0x19
 703 0397 32030000 		.4byte	0x332
 704 039b 0C       		.byte	0xc
 705 039c 07       		.uleb128 0x7
 706 039d 11050000 		.4byte	.LASF53
 707 03a1 07       		.byte	0x7
 708 03a2 62       		.byte	0x62
 709 03a3 1A       		.byte	0x1a
 710 03a4 8E020000 		.4byte	0x28e
 711 03a8 10       		.byte	0x10
 712 03a9 00       		.byte	0
 713 03aa 0A       		.uleb128 0xa
 714 03ab 04       		.byte	0x4
 715 03ac 4F030000 		.4byte	0x34f
 716 03b0 09       		.uleb128 0x9
 717 03b1 10       		.byte	0x10
 718 03b2 07       		.byte	0x7
 719 03b3 6C       		.byte	0x6c
 720 03b4 09       		.byte	0x9
 721 03b5 EE030000 		.4byte	0x3ee
 722 03b9 07       		.uleb128 0x7
 723 03ba 19020000 		.4byte	.LASF49
 724 03be 07       		.byte	0x7
 725 03bf 6D       		.byte	0x6d
 726 03c0 1A       		.byte	0x1a
 727 03c1 AA030000 		.4byte	0x3aa
 728 03c5 00       		.byte	0
 729 03c6 07       		.uleb128 0x7
 730 03c7 04020000 		.4byte	.LASF50
 731 03cb 07       		.byte	0x7
 732 03cc 6F       		.byte	0x6f
 733 03cd 1A       		.byte	0x1a
 734 03ce AA030000 		.4byte	0x3aa
 735 03d2 04       		.byte	0x4
 736 03d3 07       		.uleb128 0x7
 737 03d4 DF020000 		.4byte	.LASF51
 738 03d8 07       		.byte	0x7
ARM GAS  /tmp/ccz1fEzT.s 			page 14


 739 03d9 71       		.byte	0x71
 740 03da 19       		.byte	0x19
 741 03db FB000000 		.4byte	0xfb
 742 03df 08       		.byte	0x8
 743 03e0 07       		.uleb128 0x7
 744 03e1 6F050000 		.4byte	.LASF54
 745 03e5 07       		.byte	0x7
 746 03e6 72       		.byte	0x72
 747 03e7 19       		.byte	0x19
 748 03e8 07010000 		.4byte	0x107
 749 03ec 0C       		.byte	0xc
 750 03ed 00       		.byte	0
 751 03ee 04       		.uleb128 0x4
 752 03ef 85050000 		.4byte	.LASF55
 753 03f3 07       		.byte	0x7
 754 03f4 73       		.byte	0x73
 755 03f5 03       		.byte	0x3
 756 03f6 B0030000 		.4byte	0x3b0
 757 03fa 0F       		.uleb128 0xf
 758 03fb EE000000 		.4byte	.LASF63
 759 03ff 07       		.byte	0x7
 760 0400 D1       		.byte	0xd1
 761 0401 0F       		.byte	0xf
 762 0402 EE030000 		.4byte	0x3ee
 763 0406 09       		.uleb128 0x9
 764 0407 1C       		.byte	0x1c
 765 0408 08       		.byte	0x8
 766 0409 57       		.byte	0x57
 767 040a 09       		.byte	0x9
 768 040b 5E040000 		.4byte	0x45e
 769 040f 07       		.uleb128 0x7
 770 0410 4E040000 		.4byte	.LASF56
 771 0414 08       		.byte	0x8
 772 0415 58       		.byte	0x58
 773 0416 19       		.byte	0x19
 774 0417 47020000 		.4byte	0x247
 775 041b 00       		.byte	0
 776 041c 07       		.uleb128 0x7
 777 041d DC030000 		.4byte	.LASF57
 778 0421 08       		.byte	0x8
 779 0422 59       		.byte	0x59
 780 0423 19       		.byte	0x19
 781 0424 D7000000 		.4byte	0xd7
 782 0428 08       		.byte	0x8
 783 0429 07       		.uleb128 0x7
 784 042a 1A030000 		.4byte	.LASF58
 785 042e 08       		.byte	0x8
 786 042f 5B       		.byte	0x5b
 787 0430 19       		.byte	0x19
 788 0431 11030000 		.4byte	0x311
 789 0435 0C       		.byte	0xc
 790 0436 07       		.uleb128 0x7
 791 0437 F3010000 		.4byte	.LASF59
 792 043b 08       		.byte	0x8
 793 043c 5E       		.byte	0x5e
 794 043d 1A       		.byte	0x1a
 795 043e 41020000 		.4byte	0x241
ARM GAS  /tmp/ccz1fEzT.s 			page 15


 796 0442 10       		.byte	0x10
 797 0443 07       		.uleb128 0x7
 798 0444 5B030000 		.4byte	.LASF60
 799 0448 08       		.byte	0x8
 800 0449 5F       		.byte	0x5f
 801 044a 1A       		.byte	0x1a
 802 044b 41020000 		.4byte	0x241
 803 044f 14       		.byte	0x14
 804 0450 07       		.uleb128 0x7
 805 0451 51030000 		.4byte	.LASF61
 806 0455 08       		.byte	0x8
 807 0456 62       		.byte	0x62
 808 0457 1A       		.byte	0x1a
 809 0458 41020000 		.4byte	0x241
 810 045c 18       		.byte	0x18
 811 045d 00       		.byte	0
 812 045e 04       		.uleb128 0x4
 813 045f 34050000 		.4byte	.LASF62
 814 0463 08       		.byte	0x8
 815 0464 64       		.byte	0x64
 816 0465 03       		.byte	0x3
 817 0466 06040000 		.4byte	0x406
 818 046a 0F       		.uleb128 0xf
 819 046b 3E050000 		.4byte	.LASF64
 820 046f 08       		.byte	0x8
 821 0470 68       		.byte	0x68
 822 0471 12       		.byte	0x12
 823 0472 5E040000 		.4byte	0x45e
 824 0476 06       		.uleb128 0x6
 825 0477 A8020000 		.4byte	.LASF65
 826 047b 10       		.byte	0x10
 827 047c 09       		.byte	0x9
 828 047d 25       		.byte	0x25
 829 047e 10       		.byte	0x10
 830 047f AB040000 		.4byte	0x4ab
 831 0483 07       		.uleb128 0x7
 832 0484 83010000 		.4byte	.LASF66
 833 0488 09       		.byte	0x9
 834 0489 26       		.byte	0x26
 835 048a 19       		.byte	0x19
 836 048b 47020000 		.4byte	0x247
 837 048f 00       		.byte	0
 838 0490 07       		.uleb128 0x7
 839 0491 44050000 		.4byte	.LASF67
 840 0495 09       		.byte	0x9
 841 0496 28       		.byte	0x28
 842 0497 1A       		.byte	0x1a
 843 0498 41020000 		.4byte	0x241
 844 049c 08       		.byte	0x8
 845 049d 07       		.uleb128 0x7
 846 049e D3040000 		.4byte	.LASF68
 847 04a2 09       		.byte	0x9
 848 04a3 2A       		.byte	0x2a
 849 04a4 1A       		.byte	0x1a
 850 04a5 AB040000 		.4byte	0x4ab
 851 04a9 0C       		.byte	0xc
 852 04aa 00       		.byte	0
ARM GAS  /tmp/ccz1fEzT.s 			page 16


 853 04ab 0A       		.uleb128 0xa
 854 04ac 04       		.byte	0x4
 855 04ad 76040000 		.4byte	0x476
 856 04b1 04       		.uleb128 0x4
 857 04b2 A8020000 		.4byte	.LASF65
 858 04b6 09       		.byte	0x9
 859 04b7 2C       		.byte	0x2c
 860 04b8 03       		.byte	0x3
 861 04b9 76040000 		.4byte	0x476
 862 04bd 10       		.uleb128 0x10
 863 04be 04       		.byte	0x4
 864 04bf 05       		.byte	0x5
 865 04c0 8F       		.byte	0x8f
 866 04c1 03       		.byte	0x3
 867 04c2 F7040000 		.4byte	0x4f7
 868 04c6 11       		.uleb128 0x11
 869 04c7 E7000000 		.4byte	.LASF69
 870 04cb 05       		.byte	0x5
 871 04cc 96       		.byte	0x96
 872 04cd 19       		.byte	0x19
 873 04ce E3000000 		.4byte	0xe3
 874 04d2 11       		.uleb128 0x11
 875 04d3 1A010000 		.4byte	.LASF70
 876 04d7 05       		.byte	0x5
 877 04d8 9D       		.byte	0x9d
 878 04d9 19       		.byte	0x19
 879 04da E3000000 		.4byte	0xe3
 880 04de 11       		.uleb128 0x11
 881 04df 61050000 		.4byte	.LASF71
 882 04e3 05       		.byte	0x5
 883 04e4 A4       		.byte	0xa4
 884 04e5 1A       		.byte	0x1a
 885 04e6 8E020000 		.4byte	0x28e
 886 04ea 11       		.uleb128 0x11
 887 04eb EC030000 		.4byte	.LASF72
 888 04ef 05       		.byte	0x5
 889 04f0 AB       		.byte	0xab
 890 04f1 19       		.byte	0x19
 891 04f2 EF000000 		.4byte	0xef
 892 04f6 00       		.byte	0
 893 04f7 0A       		.uleb128 0xa
 894 04f8 04       		.byte	0x4
 895 04f9 04050000 		.4byte	0x504
 896 04fd 03       		.uleb128 0x3
 897 04fe 01       		.byte	0x1
 898 04ff 08       		.byte	0x8
 899 0500 C1040000 		.4byte	.LASF73
 900 0504 0C       		.uleb128 0xc
 901 0505 FD040000 		.4byte	0x4fd
 902 0509 0A       		.uleb128 0xa
 903 050a 04       		.byte	0x4
 904 050b B1040000 		.4byte	0x4b1
 905 050f 09       		.uleb128 0x9
 906 0510 16       		.byte	0x16
 907 0511 0A       		.byte	0xa
 908 0512 25       		.byte	0x25
 909 0513 09       		.byte	0x9
ARM GAS  /tmp/ccz1fEzT.s 			page 17


 910 0514 03060000 		.4byte	0x603
 911 0518 07       		.uleb128 0x7
 912 0519 51020000 		.4byte	.LASF74
 913 051d 0A       		.byte	0xa
 914 051e 26       		.byte	0x26
 915 051f 0D       		.byte	0xd
 916 0520 03060000 		.4byte	0x603
 917 0524 00       		.byte	0
 918 0525 07       		.uleb128 0x7
 919 0526 CB020000 		.4byte	.LASF75
 920 052a 0A       		.byte	0xa
 921 052b 27       		.byte	0x27
 922 052c 0D       		.byte	0xd
 923 052d 5B000000 		.4byte	0x5b
 924 0531 04       		.byte	0x4
 925 0532 07       		.uleb128 0x7
 926 0533 2D030000 		.4byte	.LASF76
 927 0537 0A       		.byte	0xa
 928 0538 28       		.byte	0x28
 929 0539 0D       		.byte	0xd
 930 053a 5B000000 		.4byte	0x5b
 931 053e 05       		.byte	0x5
 932 053f 07       		.uleb128 0x7
 933 0540 7A050000 		.4byte	.LASF77
 934 0544 0A       		.byte	0xa
 935 0545 29       		.byte	0x29
 936 0546 0D       		.byte	0xd
 937 0547 6E000000 		.4byte	0x6e
 938 054b 06       		.byte	0x6
 939 054c 07       		.uleb128 0x7
 940 054d 6B030000 		.4byte	.LASF78
 941 0551 0A       		.byte	0xa
 942 0552 2A       		.byte	0x2a
 943 0553 0D       		.byte	0xd
 944 0554 5B000000 		.4byte	0x5b
 945 0558 08       		.byte	0x8
 946 0559 07       		.uleb128 0x7
 947 055a FA020000 		.4byte	.LASF79
 948 055e 0A       		.byte	0xa
 949 055f 2B       		.byte	0x2b
 950 0560 0D       		.byte	0xd
 951 0561 5B000000 		.4byte	0x5b
 952 0565 09       		.byte	0x9
 953 0566 07       		.uleb128 0x7
 954 0567 0C010000 		.4byte	.LASF80
 955 056b 0A       		.byte	0xa
 956 056c 2C       		.byte	0x2c
 957 056d 0D       		.byte	0xd
 958 056e 5B000000 		.4byte	0x5b
 959 0572 0A       		.byte	0xa
 960 0573 07       		.uleb128 0x7
 961 0574 42040000 		.4byte	.LASF81
 962 0578 0A       		.byte	0xa
 963 0579 2D       		.byte	0x2d
 964 057a 0D       		.byte	0xd
 965 057b 5B000000 		.4byte	0x5b
 966 057f 0B       		.byte	0xb
ARM GAS  /tmp/ccz1fEzT.s 			page 18


 967 0580 07       		.uleb128 0x7
 968 0581 22050000 		.4byte	.LASF82
 969 0585 0A       		.byte	0xa
 970 0586 2E       		.byte	0x2e
 971 0587 0D       		.byte	0xd
 972 0588 5B000000 		.4byte	0x5b
 973 058c 0C       		.byte	0xc
 974 058d 07       		.uleb128 0x7
 975 058e 18040000 		.4byte	.LASF83
 976 0592 0A       		.byte	0xa
 977 0593 2F       		.byte	0x2f
 978 0594 0D       		.byte	0xd
 979 0595 5B000000 		.4byte	0x5b
 980 0599 0D       		.byte	0xd
 981 059a 07       		.uleb128 0x7
 982 059b 00000000 		.4byte	.LASF84
 983 059f 0A       		.byte	0xa
 984 05a0 30       		.byte	0x30
 985 05a1 0D       		.byte	0xd
 986 05a2 5B000000 		.4byte	0x5b
 987 05a6 0E       		.byte	0xe
 988 05a7 07       		.uleb128 0x7
 989 05a8 06030000 		.4byte	.LASF85
 990 05ac 0A       		.byte	0xa
 991 05ad 31       		.byte	0x31
 992 05ae 0D       		.byte	0xd
 993 05af 5B000000 		.4byte	0x5b
 994 05b3 0F       		.byte	0xf
 995 05b4 07       		.uleb128 0x7
 996 05b5 5F010000 		.4byte	.LASF86
 997 05b9 0A       		.byte	0xa
 998 05ba 32       		.byte	0x32
 999 05bb 0D       		.byte	0xd
 1000 05bc 5B000000 		.4byte	0x5b
 1001 05c0 10       		.byte	0x10
 1002 05c1 07       		.uleb128 0x7
 1003 05c2 2F010000 		.4byte	.LASF87
 1004 05c6 0A       		.byte	0xa
 1005 05c7 34       		.byte	0x34
 1006 05c8 0D       		.byte	0xd
 1007 05c9 5B000000 		.4byte	0x5b
 1008 05cd 11       		.byte	0x11
 1009 05ce 07       		.uleb128 0x7
 1010 05cf 6F010000 		.4byte	.LASF88
 1011 05d3 0A       		.byte	0xa
 1012 05d4 35       		.byte	0x35
 1013 05d5 0D       		.byte	0xd
 1014 05d6 5B000000 		.4byte	0x5b
 1015 05da 12       		.byte	0x12
 1016 05db 07       		.uleb128 0x7
 1017 05dc D3020000 		.4byte	.LASF89
 1018 05e0 0A       		.byte	0xa
 1019 05e1 36       		.byte	0x36
 1020 05e2 0D       		.byte	0xd
 1021 05e3 5B000000 		.4byte	0x5b
 1022 05e7 13       		.byte	0x13
 1023 05e8 07       		.uleb128 0x7
ARM GAS  /tmp/ccz1fEzT.s 			page 19


 1024 05e9 FA030000 		.4byte	.LASF90
 1025 05ed 0A       		.byte	0xa
 1026 05ee 37       		.byte	0x37
 1027 05ef 0D       		.byte	0xd
 1028 05f0 5B000000 		.4byte	0x5b
 1029 05f4 14       		.byte	0x14
 1030 05f5 07       		.uleb128 0x7
 1031 05f6 D0030000 		.4byte	.LASF91
 1032 05fa 0A       		.byte	0xa
 1033 05fb 39       		.byte	0x39
 1034 05fc 0D       		.byte	0xd
 1035 05fd 5B000000 		.4byte	0x5b
 1036 0601 15       		.byte	0x15
 1037 0602 00       		.byte	0
 1038 0603 12       		.uleb128 0x12
 1039 0604 FD040000 		.4byte	0x4fd
 1040 0608 13060000 		.4byte	0x613
 1041 060c 13       		.uleb128 0x13
 1042 060d 2C000000 		.4byte	0x2c
 1043 0611 03       		.byte	0x3
 1044 0612 00       		.byte	0
 1045 0613 04       		.uleb128 0x4
 1046 0614 CA010000 		.4byte	.LASF92
 1047 0618 0A       		.byte	0xa
 1048 0619 3A       		.byte	0x3a
 1049 061a 03       		.byte	0x3
 1050 061b 0F050000 		.4byte	0x50f
 1051 061f 0C       		.uleb128 0xc
 1052 0620 13060000 		.4byte	0x613
 1053 0624 0F       		.uleb128 0xf
 1054 0625 33020000 		.4byte	.LASF93
 1055 0629 0A       		.byte	0xa
 1056 062a 77       		.byte	0x77
 1057 062b 1D       		.byte	0x1d
 1058 062c 1F060000 		.4byte	0x61f
 1059 0630 12       		.uleb128 0x12
 1060 0631 76020000 		.4byte	0x276
 1061 0635 40060000 		.4byte	0x640
 1062 0639 13       		.uleb128 0x13
 1063 063a 2C000000 		.4byte	0x2c
 1064 063e 26       		.byte	0x26
 1065 063f 00       		.byte	0
 1066 0640 0F       		.uleb128 0xf
 1067 0641 E3010000 		.4byte	.LASF94
 1068 0645 0B       		.byte	0xb
 1069 0646 82       		.byte	0x82
 1070 0647 08       		.byte	0x8
 1071 0648 30060000 		.4byte	0x630
 1072 064c 06       		.uleb128 0x6
 1073 064d 25040000 		.4byte	.LASF95
 1074 0651 10       		.byte	0x10
 1075 0652 0C       		.byte	0xc
 1076 0653 3F       		.byte	0x3f
 1077 0654 08       		.byte	0x8
 1078 0655 8E060000 		.4byte	0x68e
 1079 0659 07       		.uleb128 0x7
 1080 065a 4C020000 		.4byte	.LASF96
ARM GAS  /tmp/ccz1fEzT.s 			page 20


 1081 065e 0C       		.byte	0xc
 1082 065f 40       		.byte	0x40
 1083 0660 0F       		.byte	0xf
 1084 0661 F7040000 		.4byte	0x4f7
 1085 0665 00       		.byte	0
 1086 0666 07       		.uleb128 0x7
 1087 0667 35030000 		.4byte	.LASF97
 1088 066b 0C       		.byte	0xc
 1089 066c 41       		.byte	0x41
 1090 066d 0A       		.byte	0xa
 1091 066e 94060000 		.4byte	0x694
 1092 0672 04       		.byte	0x4
 1093 0673 07       		.uleb128 0x7
 1094 0674 3C010000 		.4byte	.LASF98
 1095 0678 0C       		.byte	0xc
 1096 0679 42       		.byte	0x42
 1097 067a 0A       		.byte	0xa
 1098 067b 94060000 		.4byte	0x694
 1099 067f 08       		.byte	0x8
 1100 0680 07       		.uleb128 0x7
 1101 0681 7D030000 		.4byte	.LASF99
 1102 0685 0C       		.byte	0xc
 1103 0686 43       		.byte	0x43
 1104 0687 0A       		.byte	0xa
 1105 0688 94060000 		.4byte	0x694
 1106 068c 0C       		.byte	0xc
 1107 068d 00       		.byte	0
 1108 068e 0C       		.uleb128 0xc
 1109 068f 4C060000 		.4byte	0x64c
 1110 0693 14       		.uleb128 0x14
 1111 0694 0A       		.uleb128 0xa
 1112 0695 04       		.byte	0x4
 1113 0696 93060000 		.4byte	0x693
 1114 069a 15       		.uleb128 0x15
 1115 069b 7805     		.2byte	0x578
 1116 069d 0C       		.byte	0xc
 1117 069e 48       		.byte	0x48
 1118 069f 03       		.byte	0x3
 1119 06a0 E5060000 		.4byte	0x6e5
 1120 06a4 08       		.uleb128 0x8
 1121 06a5 543000   		.ascii	"T0\000"
 1122 06a8 0C       		.byte	0xc
 1123 06a9 49       		.byte	0x49
 1124 06aa 05       		.byte	0x5
 1125 06ab E5060000 		.4byte	0x6e5
 1126 06af 00       		.byte	0
 1127 06b0 16       		.uleb128 0x16
 1128 06b1 543100   		.ascii	"T1\000"
 1129 06b4 0C       		.byte	0xc
 1130 06b5 4A       		.byte	0x4a
 1131 06b6 05       		.byte	0x5
 1132 06b7 E5060000 		.4byte	0x6e5
 1133 06bb 1801     		.2byte	0x118
 1134 06bd 16       		.uleb128 0x16
 1135 06be 543200   		.ascii	"T2\000"
 1136 06c1 0C       		.byte	0xc
 1137 06c2 4B       		.byte	0x4b
ARM GAS  /tmp/ccz1fEzT.s 			page 21


 1138 06c3 05       		.byte	0x5
 1139 06c4 E5060000 		.4byte	0x6e5
 1140 06c8 3002     		.2byte	0x230
 1141 06ca 16       		.uleb128 0x16
 1142 06cb 543300   		.ascii	"T3\000"
 1143 06ce 0C       		.byte	0xc
 1144 06cf 4C       		.byte	0x4c
 1145 06d0 05       		.byte	0x5
 1146 06d1 E5060000 		.4byte	0x6e5
 1147 06d5 4803     		.2byte	0x348
 1148 06d7 16       		.uleb128 0x16
 1149 06d8 543400   		.ascii	"T4\000"
 1150 06db 0C       		.byte	0xc
 1151 06dc 4D       		.byte	0x4d
 1152 06dd 05       		.byte	0x5
 1153 06de E5060000 		.4byte	0x6e5
 1154 06e2 6004     		.2byte	0x460
 1155 06e4 00       		.byte	0
 1156 06e5 12       		.uleb128 0x12
 1157 06e6 76020000 		.4byte	0x276
 1158 06ea F5060000 		.4byte	0x6f5
 1159 06ee 13       		.uleb128 0x13
 1160 06ef 2C000000 		.4byte	0x2c
 1161 06f3 45       		.byte	0x45
 1162 06f4 00       		.byte	0
 1163 06f5 17       		.uleb128 0x17
 1164 06f6 C6040000 		.4byte	.LASF115
 1165 06fa 7805     		.2byte	0x578
 1166 06fc 0C       		.byte	0xc
 1167 06fd 47       		.byte	0x47
 1168 06fe 07       		.byte	0x7
 1169 06ff 1B070000 		.4byte	0x71b
 1170 0703 18       		.uleb128 0x18
 1171 0704 776100   		.ascii	"wa\000"
 1172 0707 0C       		.byte	0xc
 1173 0708 4E       		.byte	0x4e
 1174 0709 05       		.byte	0x5
 1175 070a 9A060000 		.4byte	0x69a
 1176 070e 11       		.uleb128 0x11
 1177 070f D4010000 		.4byte	.LASF100
 1178 0713 0C       		.byte	0xc
 1179 0714 4F       		.byte	0x4f
 1180 0715 0B       		.byte	0xb
 1181 0716 1B070000 		.4byte	0x71b
 1182 071a 00       		.byte	0
 1183 071b 12       		.uleb128 0x12
 1184 071c 5B000000 		.4byte	0x5b
 1185 0720 2C070000 		.4byte	0x72c
 1186 0724 19       		.uleb128 0x19
 1187 0725 2C000000 		.4byte	0x2c
 1188 0729 7705     		.2byte	0x577
 1189 072b 00       		.byte	0
 1190 072c 12       		.uleb128 0x12
 1191 072d 41020000 		.4byte	0x241
 1192 0731 3C070000 		.4byte	0x73c
 1193 0735 13       		.uleb128 0x13
 1194 0736 2C000000 		.4byte	0x2c
ARM GAS  /tmp/ccz1fEzT.s 			page 22


 1195 073a 04       		.byte	0x4
 1196 073b 00       		.byte	0
 1197 073c 0F       		.uleb128 0xf
 1198 073d 80020000 		.4byte	.LASF101
 1199 0741 0C       		.byte	0xc
 1200 0742 A9       		.byte	0xa9
 1201 0743 10       		.byte	0x10
 1202 0744 2C070000 		.4byte	0x72c
 1203 0748 0F       		.uleb128 0xf
 1204 0749 23010000 		.4byte	.LASF102
 1205 074d 0C       		.byte	0xc
 1206 074e AA       		.byte	0xaa
 1207 074f 1B       		.byte	0x1b
 1208 0750 F5060000 		.4byte	0x6f5
 1209 0754 12       		.uleb128 0x12
 1210 0755 90020000 		.4byte	0x290
 1211 0759 5F070000 		.4byte	0x75f
 1212 075d 1A       		.uleb128 0x1a
 1213 075e 00       		.byte	0
 1214 075f 0C       		.uleb128 0xc
 1215 0760 54070000 		.4byte	0x754
 1216 0764 1B       		.uleb128 0x1b
 1217 0765 776100   		.ascii	"wa\000"
 1218 0768 0C       		.byte	0xc
 1219 0769 AB       		.byte	0xab
 1220 076a 18       		.byte	0x18
 1221 076b 5F070000 		.4byte	0x75f
 1222 076f 0F       		.uleb128 0xf
 1223 0770 3C020000 		.4byte	.LASF103
 1224 0774 0C       		.byte	0xc
 1225 0775 AC       		.byte	0xac
 1226 0776 0F       		.byte	0xf
 1227 0777 9B000000 		.4byte	0x9b
 1228 077b 1C       		.uleb128 0x1c
 1229 077c E3030000 		.4byte	.LASF104
 1230 0780 01       		.byte	0x1
 1231 0781 5F       		.byte	0x5f
 1232 0782 1A       		.byte	0x1a
 1233 0783 8E060000 		.4byte	0x68e
 1234 0787 05       		.uleb128 0x5
 1235 0788 03       		.byte	0x3
 1236 0789 00000000 		.4byte	testmsg1
 1237 078d 12       		.uleb128 0x12
 1238 078e A8070000 		.4byte	0x7a8
 1239 0792 9D070000 		.4byte	0x79d
 1240 0796 13       		.uleb128 0x13
 1241 0797 2C000000 		.4byte	0x2c
 1242 079b 01       		.byte	0x1
 1243 079c 00       		.byte	0
 1244 079d 0C       		.uleb128 0xc
 1245 079e 8D070000 		.4byte	0x78d
 1246 07a2 0A       		.uleb128 0xa
 1247 07a3 04       		.byte	0x4
 1248 07a4 8E060000 		.4byte	0x68e
 1249 07a8 0C       		.uleb128 0xc
 1250 07a9 A2070000 		.4byte	0x7a2
 1251 07ad 1C       		.uleb128 0x1c
ARM GAS  /tmp/ccz1fEzT.s 			page 23


 1252 07ae E7020000 		.4byte	.LASF105
 1253 07b2 01       		.byte	0x1
 1254 07b3 6B       		.byte	0x6b
 1255 07b4 25       		.byte	0x25
 1256 07b5 9D070000 		.4byte	0x79d
 1257 07b9 05       		.uleb128 0x5
 1258 07ba 03       		.byte	0x3
 1259 07bb 00000000 		.4byte	patternmsg
 1260 07bf 1D       		.uleb128 0x1d
 1261 07c0 54050000 		.4byte	.LASF116
 1262 07c4 01       		.byte	0x1
 1263 07c5 47       		.byte	0x47
 1264 07c6 0D       		.byte	0xd
 1265 07c7 00000000 		.4byte	.LFB8
 1266 07cb A8000000 		.4byte	.LFE8-.LFB8
 1267 07cf 01       		.uleb128 0x1
 1268 07d0 9C       		.byte	0x9c
 1269 07d1 C6080000 		.4byte	0x8c6
 1270 07d5 1E       		.uleb128 0x1e
 1271 07d6 747000   		.ascii	"tp\000"
 1272 07d9 01       		.byte	0x1
 1273 07da 48       		.byte	0x48
 1274 07db 0B       		.byte	0xb
 1275 07dc 41020000 		.4byte	0x241
 1276 07e0 06000000 		.4byte	.LLST0
 1277 07e4 00000000 		.4byte	.LVUS0
 1278 07e8 1E       		.uleb128 0x1e
 1279 07e9 6D736700 		.ascii	"msg\000"
 1280 07ed 01       		.byte	0x1
 1281 07ee 49       		.byte	0x49
 1282 07ef 09       		.byte	0x9
 1283 07f0 E3000000 		.4byte	0xe3
 1284 07f4 31000000 		.4byte	.LLST1
 1285 07f8 2F000000 		.4byte	.LVUS1
 1286 07fc 1F       		.uleb128 0x1f
 1287 07fd 30000000 		.4byte	.LVL0
 1288 0801 3D090000 		.4byte	0x93d
 1289 0805 1A080000 		.4byte	0x81a
 1290 0809 20       		.uleb128 0x20
 1291 080a 01       		.uleb128 0x1
 1292 080b 51       		.byte	0x51
 1293 080c 03       		.uleb128 0x3
 1294 080d 0A       		.byte	0xa
 1295 080e 1801     		.2byte	0x118
 1296 0810 20       		.uleb128 0x20
 1297 0811 01       		.uleb128 0x1
 1298 0812 53       		.byte	0x53
 1299 0813 05       		.uleb128 0x5
 1300 0814 03       		.byte	0x3
 1301 0815 00000000 		.4byte	thread
 1302 0819 00       		.byte	0
 1303 081a 21       		.uleb128 0x21
 1304 081b 3C000000 		.4byte	.LVL1
 1305 081f 4A090000 		.4byte	0x94a
 1306 0823 1F       		.uleb128 0x1f
 1307 0824 48000000 		.4byte	.LVL3
 1308 0828 56090000 		.4byte	0x956
ARM GAS  /tmp/ccz1fEzT.s 			page 24


 1309 082c 37080000 		.4byte	0x837
 1310 0830 20       		.uleb128 0x20
 1311 0831 01       		.uleb128 0x1
 1312 0832 51       		.byte	0x51
 1313 0833 02       		.uleb128 0x2
 1314 0834 74       		.byte	0x74
 1315 0835 00       		.sleb128 0
 1316 0836 00       		.byte	0
 1317 0837 1F       		.uleb128 0x1f
 1318 0838 50000000 		.4byte	.LVL4
 1319 083c 62090000 		.4byte	0x962
 1320 0840 4B080000 		.4byte	0x84b
 1321 0844 20       		.uleb128 0x20
 1322 0845 01       		.uleb128 0x1
 1323 0846 50       		.byte	0x50
 1324 0847 02       		.uleb128 0x2
 1325 0848 74       		.byte	0x74
 1326 0849 00       		.sleb128 0
 1327 084a 00       		.byte	0
 1328 084b 21       		.uleb128 0x21
 1329 084c 54000000 		.4byte	.LVL5
 1330 0850 4A090000 		.4byte	0x94a
 1331 0854 1F       		.uleb128 0x1f
 1332 0855 60000000 		.4byte	.LVL7
 1333 0859 56090000 		.4byte	0x956
 1334 085d 68080000 		.4byte	0x868
 1335 0861 20       		.uleb128 0x20
 1336 0862 01       		.uleb128 0x1
 1337 0863 51       		.byte	0x51
 1338 0864 02       		.uleb128 0x2
 1339 0865 74       		.byte	0x74
 1340 0866 00       		.sleb128 0
 1341 0867 00       		.byte	0
 1342 0868 1F       		.uleb128 0x1f
 1343 0869 68000000 		.4byte	.LVL8
 1344 086d 62090000 		.4byte	0x962
 1345 0871 7C080000 		.4byte	0x87c
 1346 0875 20       		.uleb128 0x20
 1347 0876 01       		.uleb128 0x1
 1348 0877 50       		.byte	0x50
 1349 0878 02       		.uleb128 0x2
 1350 0879 74       		.byte	0x74
 1351 087a 00       		.sleb128 0
 1352 087b 00       		.byte	0
 1353 087c 21       		.uleb128 0x21
 1354 087d 6C000000 		.4byte	.LVL9
 1355 0881 4A090000 		.4byte	0x94a
 1356 0885 1F       		.uleb128 0x1f
 1357 0886 78000000 		.4byte	.LVL11
 1358 088a 56090000 		.4byte	0x956
 1359 088e 99080000 		.4byte	0x899
 1360 0892 20       		.uleb128 0x20
 1361 0893 01       		.uleb128 0x1
 1362 0894 51       		.byte	0x51
 1363 0895 02       		.uleb128 0x2
 1364 0896 74       		.byte	0x74
 1365 0897 00       		.sleb128 0
ARM GAS  /tmp/ccz1fEzT.s 			page 25


 1366 0898 00       		.byte	0
 1367 0899 1F       		.uleb128 0x1f
 1368 089a 80000000 		.4byte	.LVL12
 1369 089e 62090000 		.4byte	0x962
 1370 08a2 AD080000 		.4byte	0x8ad
 1371 08a6 20       		.uleb128 0x20
 1372 08a7 01       		.uleb128 0x1
 1373 08a8 50       		.byte	0x50
 1374 08a9 02       		.uleb128 0x2
 1375 08aa 74       		.byte	0x74
 1376 08ab 00       		.sleb128 0
 1377 08ac 00       		.byte	0
 1378 08ad 22       		.uleb128 0x22
 1379 08ae 94000000 		.4byte	.LVL14
 1380 08b2 6E090000 		.4byte	0x96e
 1381 08b6 20       		.uleb128 0x20
 1382 08b7 01       		.uleb128 0x1
 1383 08b8 50       		.byte	0x50
 1384 08b9 01       		.uleb128 0x1
 1385 08ba 31       		.byte	0x31
 1386 08bb 20       		.uleb128 0x20
 1387 08bc 01       		.uleb128 0x1
 1388 08bd 51       		.byte	0x51
 1389 08be 05       		.uleb128 0x5
 1390 08bf 03       		.byte	0x3
 1391 08c0 00000000 		.4byte	.LC0
 1392 08c4 00       		.byte	0
 1393 08c5 00       		.byte	0
 1394 08c6 23       		.uleb128 0x23
 1395 08c7 8D030000 		.4byte	.LASF117
 1396 08cb 01       		.byte	0x1
 1397 08cc 3F       		.byte	0x3f
 1398 08cd 0E       		.byte	0xe
 1399 08ce E3000000 		.4byte	0xe3
 1400 08d2 00000000 		.4byte	.LFB7
 1401 08d6 30000000 		.4byte	.LFE7-.LFB7
 1402 08da 01       		.uleb128 0x1
 1403 08db 9C       		.byte	0x9c
 1404 08dc 3D090000 		.4byte	0x93d
 1405 08e0 24       		.uleb128 0x24
 1406 08e1 7000     		.ascii	"p\000"
 1407 08e3 01       		.byte	0x1
 1408 08e4 3F       		.byte	0x3f
 1409 08e5 1B       		.byte	0x1b
 1410 08e6 8E020000 		.4byte	0x28e
 1411 08ea 48000000 		.4byte	.LLST2
 1412 08ee 44000000 		.4byte	.LVUS2
 1413 08f2 1F       		.uleb128 0x1f
 1414 08f3 10000000 		.4byte	.LVL16
 1415 08f7 7A090000 		.4byte	0x97a
 1416 08fb 0C090000 		.4byte	0x90c
 1417 08ff 20       		.uleb128 0x20
 1418 0900 01       		.uleb128 0x1
 1419 0901 50       		.byte	0x50
 1420 0902 02       		.uleb128 0x2
 1421 0903 74       		.byte	0x74
 1422 0904 00       		.sleb128 0
ARM GAS  /tmp/ccz1fEzT.s 			page 26


 1423 0905 20       		.uleb128 0x20
 1424 0906 01       		.uleb128 0x1
 1425 0907 51       		.byte	0x51
 1426 0908 02       		.uleb128 0x2
 1427 0909 08       		.byte	0x8
 1428 090a 41       		.byte	0x41
 1429 090b 00       		.byte	0
 1430 090c 1F       		.uleb128 0x1f
 1431 090d 1C000000 		.4byte	.LVL17
 1432 0911 7A090000 		.4byte	0x97a
 1433 0915 26090000 		.4byte	0x926
 1434 0919 20       		.uleb128 0x20
 1435 091a 01       		.uleb128 0x1
 1436 091b 50       		.byte	0x50
 1437 091c 02       		.uleb128 0x2
 1438 091d 74       		.byte	0x74
 1439 091e 00       		.sleb128 0
 1440 091f 20       		.uleb128 0x20
 1441 0920 01       		.uleb128 0x1
 1442 0921 51       		.byte	0x51
 1443 0922 02       		.uleb128 0x2
 1444 0923 08       		.byte	0x8
 1445 0924 42       		.byte	0x42
 1446 0925 00       		.byte	0
 1447 0926 25       		.uleb128 0x25
 1448 0927 28000000 		.4byte	.LVL18
 1449 092b 7A090000 		.4byte	0x97a
 1450 092f 20       		.uleb128 0x20
 1451 0930 01       		.uleb128 0x1
 1452 0931 50       		.byte	0x50
 1453 0932 02       		.uleb128 0x2
 1454 0933 74       		.byte	0x74
 1455 0934 00       		.sleb128 0
 1456 0935 20       		.uleb128 0x20
 1457 0936 01       		.uleb128 0x1
 1458 0937 51       		.byte	0x51
 1459 0938 02       		.uleb128 0x2
 1460 0939 08       		.byte	0x8
 1461 093a 43       		.byte	0x43
 1462 093b 00       		.byte	0
 1463 093c 00       		.byte	0
 1464 093d 26       		.uleb128 0x26
 1465 093e B9020000 		.4byte	.LASF106
 1466 0942 B9020000 		.4byte	.LASF106
 1467 0946 05       		.byte	0x5
 1468 0947 6401     		.2byte	0x164
 1469 0949 0B       		.byte	0xb
 1470 094a 27       		.uleb128 0x27
 1471 094b 18050000 		.4byte	.LASF107
 1472 094f 18050000 		.4byte	.LASF107
 1473 0953 0D       		.byte	0xd
 1474 0954 4B       		.byte	0x4b
 1475 0955 0C       		.byte	0xc
 1476 0956 27       		.uleb128 0x27
 1477 0957 AE050000 		.4byte	.LASF108
 1478 095b AE050000 		.4byte	.LASF108
 1479 095f 0D       		.byte	0xd
ARM GAS  /tmp/ccz1fEzT.s 			page 27


 1480 0960 4C       		.byte	0x4c
 1481 0961 08       		.byte	0x8
 1482 0962 27       		.uleb128 0x27
 1483 0963 8B010000 		.4byte	.LASF109
 1484 0967 8B010000 		.4byte	.LASF109
 1485 096b 0C       		.byte	0xc
 1486 096c 5A       		.byte	0x5a
 1487 096d 08       		.byte	0x8
 1488 096e 27       		.uleb128 0x27
 1489 096f 3B030000 		.4byte	.LASF110
 1490 0973 3B030000 		.4byte	.LASF110
 1491 0977 0C       		.byte	0xc
 1492 0978 5D       		.byte	0x5d
 1493 0979 0A       		.byte	0xa
 1494 097a 27       		.uleb128 0x27
 1495 097b AE010000 		.4byte	.LASF111
 1496 097f AE010000 		.4byte	.LASF111
 1497 0983 0D       		.byte	0xd
 1498 0984 4A       		.byte	0x4a
 1499 0985 09       		.byte	0x9
 1500 0986 00       		.byte	0
 1501              		.section	.debug_abbrev,"",%progbits
 1502              	.Ldebug_abbrev0:
 1503 0000 01       		.uleb128 0x1
 1504 0001 11       		.uleb128 0x11
 1505 0002 01       		.byte	0x1
 1506 0003 25       		.uleb128 0x25
 1507 0004 0E       		.uleb128 0xe
 1508 0005 13       		.uleb128 0x13
 1509 0006 0B       		.uleb128 0xb
 1510 0007 03       		.uleb128 0x3
 1511 0008 0E       		.uleb128 0xe
 1512 0009 1B       		.uleb128 0x1b
 1513 000a 0E       		.uleb128 0xe
 1514 000b 55       		.uleb128 0x55
 1515 000c 17       		.uleb128 0x17
 1516 000d 11       		.uleb128 0x11
 1517 000e 01       		.uleb128 0x1
 1518 000f 10       		.uleb128 0x10
 1519 0010 17       		.uleb128 0x17
 1520 0011 00       		.byte	0
 1521 0012 00       		.byte	0
 1522 0013 02       		.uleb128 0x2
 1523 0014 24       		.uleb128 0x24
 1524 0015 00       		.byte	0
 1525 0016 0B       		.uleb128 0xb
 1526 0017 0B       		.uleb128 0xb
 1527 0018 3E       		.uleb128 0x3e
 1528 0019 0B       		.uleb128 0xb
 1529 001a 03       		.uleb128 0x3
 1530 001b 08       		.uleb128 0x8
 1531 001c 00       		.byte	0
 1532 001d 00       		.byte	0
 1533 001e 03       		.uleb128 0x3
 1534 001f 24       		.uleb128 0x24
 1535 0020 00       		.byte	0
 1536 0021 0B       		.uleb128 0xb
ARM GAS  /tmp/ccz1fEzT.s 			page 28


 1537 0022 0B       		.uleb128 0xb
 1538 0023 3E       		.uleb128 0x3e
 1539 0024 0B       		.uleb128 0xb
 1540 0025 03       		.uleb128 0x3
 1541 0026 0E       		.uleb128 0xe
 1542 0027 00       		.byte	0
 1543 0028 00       		.byte	0
 1544 0029 04       		.uleb128 0x4
 1545 002a 16       		.uleb128 0x16
 1546 002b 00       		.byte	0
 1547 002c 03       		.uleb128 0x3
 1548 002d 0E       		.uleb128 0xe
 1549 002e 3A       		.uleb128 0x3a
 1550 002f 0B       		.uleb128 0xb
 1551 0030 3B       		.uleb128 0x3b
 1552 0031 0B       		.uleb128 0xb
 1553 0032 39       		.uleb128 0x39
 1554 0033 0B       		.uleb128 0xb
 1555 0034 49       		.uleb128 0x49
 1556 0035 13       		.uleb128 0x13
 1557 0036 00       		.byte	0
 1558 0037 00       		.byte	0
 1559 0038 05       		.uleb128 0x5
 1560 0039 35       		.uleb128 0x35
 1561 003a 00       		.byte	0
 1562 003b 49       		.uleb128 0x49
 1563 003c 13       		.uleb128 0x13
 1564 003d 00       		.byte	0
 1565 003e 00       		.byte	0
 1566 003f 06       		.uleb128 0x6
 1567 0040 13       		.uleb128 0x13
 1568 0041 01       		.byte	0x1
 1569 0042 03       		.uleb128 0x3
 1570 0043 0E       		.uleb128 0xe
 1571 0044 0B       		.uleb128 0xb
 1572 0045 0B       		.uleb128 0xb
 1573 0046 3A       		.uleb128 0x3a
 1574 0047 0B       		.uleb128 0xb
 1575 0048 3B       		.uleb128 0x3b
 1576 0049 0B       		.uleb128 0xb
 1577 004a 39       		.uleb128 0x39
 1578 004b 0B       		.uleb128 0xb
 1579 004c 01       		.uleb128 0x1
 1580 004d 13       		.uleb128 0x13
 1581 004e 00       		.byte	0
 1582 004f 00       		.byte	0
 1583 0050 07       		.uleb128 0x7
 1584 0051 0D       		.uleb128 0xd
 1585 0052 00       		.byte	0
 1586 0053 03       		.uleb128 0x3
 1587 0054 0E       		.uleb128 0xe
 1588 0055 3A       		.uleb128 0x3a
 1589 0056 0B       		.uleb128 0xb
 1590 0057 3B       		.uleb128 0x3b
 1591 0058 0B       		.uleb128 0xb
 1592 0059 39       		.uleb128 0x39
 1593 005a 0B       		.uleb128 0xb
ARM GAS  /tmp/ccz1fEzT.s 			page 29


 1594 005b 49       		.uleb128 0x49
 1595 005c 13       		.uleb128 0x13
 1596 005d 38       		.uleb128 0x38
 1597 005e 0B       		.uleb128 0xb
 1598 005f 00       		.byte	0
 1599 0060 00       		.byte	0
 1600 0061 08       		.uleb128 0x8
 1601 0062 0D       		.uleb128 0xd
 1602 0063 00       		.byte	0
 1603 0064 03       		.uleb128 0x3
 1604 0065 08       		.uleb128 0x8
 1605 0066 3A       		.uleb128 0x3a
 1606 0067 0B       		.uleb128 0xb
 1607 0068 3B       		.uleb128 0x3b
 1608 0069 0B       		.uleb128 0xb
 1609 006a 39       		.uleb128 0x39
 1610 006b 0B       		.uleb128 0xb
 1611 006c 49       		.uleb128 0x49
 1612 006d 13       		.uleb128 0x13
 1613 006e 38       		.uleb128 0x38
 1614 006f 0B       		.uleb128 0xb
 1615 0070 00       		.byte	0
 1616 0071 00       		.byte	0
 1617 0072 09       		.uleb128 0x9
 1618 0073 13       		.uleb128 0x13
 1619 0074 01       		.byte	0x1
 1620 0075 0B       		.uleb128 0xb
 1621 0076 0B       		.uleb128 0xb
 1622 0077 3A       		.uleb128 0x3a
 1623 0078 0B       		.uleb128 0xb
 1624 0079 3B       		.uleb128 0x3b
 1625 007a 0B       		.uleb128 0xb
 1626 007b 39       		.uleb128 0x39
 1627 007c 0B       		.uleb128 0xb
 1628 007d 01       		.uleb128 0x1
 1629 007e 13       		.uleb128 0x13
 1630 007f 00       		.byte	0
 1631 0080 00       		.byte	0
 1632 0081 0A       		.uleb128 0xa
 1633 0082 0F       		.uleb128 0xf
 1634 0083 00       		.byte	0
 1635 0084 0B       		.uleb128 0xb
 1636 0085 0B       		.uleb128 0xb
 1637 0086 49       		.uleb128 0x49
 1638 0087 13       		.uleb128 0x13
 1639 0088 00       		.byte	0
 1640 0089 00       		.byte	0
 1641 008a 0B       		.uleb128 0xb
 1642 008b 0F       		.uleb128 0xf
 1643 008c 00       		.byte	0
 1644 008d 0B       		.uleb128 0xb
 1645 008e 0B       		.uleb128 0xb
 1646 008f 00       		.byte	0
 1647 0090 00       		.byte	0
 1648 0091 0C       		.uleb128 0xc
 1649 0092 26       		.uleb128 0x26
 1650 0093 00       		.byte	0
ARM GAS  /tmp/ccz1fEzT.s 			page 30


 1651 0094 49       		.uleb128 0x49
 1652 0095 13       		.uleb128 0x13
 1653 0096 00       		.byte	0
 1654 0097 00       		.byte	0
 1655 0098 0D       		.uleb128 0xd
 1656 0099 15       		.uleb128 0x15
 1657 009a 01       		.byte	0x1
 1658 009b 27       		.uleb128 0x27
 1659 009c 19       		.uleb128 0x19
 1660 009d 01       		.uleb128 0x1
 1661 009e 13       		.uleb128 0x13
 1662 009f 00       		.byte	0
 1663 00a0 00       		.byte	0
 1664 00a1 0E       		.uleb128 0xe
 1665 00a2 05       		.uleb128 0x5
 1666 00a3 00       		.byte	0
 1667 00a4 49       		.uleb128 0x49
 1668 00a5 13       		.uleb128 0x13
 1669 00a6 00       		.byte	0
 1670 00a7 00       		.byte	0
 1671 00a8 0F       		.uleb128 0xf
 1672 00a9 34       		.uleb128 0x34
 1673 00aa 00       		.byte	0
 1674 00ab 03       		.uleb128 0x3
 1675 00ac 0E       		.uleb128 0xe
 1676 00ad 3A       		.uleb128 0x3a
 1677 00ae 0B       		.uleb128 0xb
 1678 00af 3B       		.uleb128 0x3b
 1679 00b0 0B       		.uleb128 0xb
 1680 00b1 39       		.uleb128 0x39
 1681 00b2 0B       		.uleb128 0xb
 1682 00b3 49       		.uleb128 0x49
 1683 00b4 13       		.uleb128 0x13
 1684 00b5 3F       		.uleb128 0x3f
 1685 00b6 19       		.uleb128 0x19
 1686 00b7 3C       		.uleb128 0x3c
 1687 00b8 19       		.uleb128 0x19
 1688 00b9 00       		.byte	0
 1689 00ba 00       		.byte	0
 1690 00bb 10       		.uleb128 0x10
 1691 00bc 17       		.uleb128 0x17
 1692 00bd 01       		.byte	0x1
 1693 00be 0B       		.uleb128 0xb
 1694 00bf 0B       		.uleb128 0xb
 1695 00c0 3A       		.uleb128 0x3a
 1696 00c1 0B       		.uleb128 0xb
 1697 00c2 3B       		.uleb128 0x3b
 1698 00c3 0B       		.uleb128 0xb
 1699 00c4 39       		.uleb128 0x39
 1700 00c5 0B       		.uleb128 0xb
 1701 00c6 01       		.uleb128 0x1
 1702 00c7 13       		.uleb128 0x13
 1703 00c8 00       		.byte	0
 1704 00c9 00       		.byte	0
 1705 00ca 11       		.uleb128 0x11
 1706 00cb 0D       		.uleb128 0xd
 1707 00cc 00       		.byte	0
ARM GAS  /tmp/ccz1fEzT.s 			page 31


 1708 00cd 03       		.uleb128 0x3
 1709 00ce 0E       		.uleb128 0xe
 1710 00cf 3A       		.uleb128 0x3a
 1711 00d0 0B       		.uleb128 0xb
 1712 00d1 3B       		.uleb128 0x3b
 1713 00d2 0B       		.uleb128 0xb
 1714 00d3 39       		.uleb128 0x39
 1715 00d4 0B       		.uleb128 0xb
 1716 00d5 49       		.uleb128 0x49
 1717 00d6 13       		.uleb128 0x13
 1718 00d7 00       		.byte	0
 1719 00d8 00       		.byte	0
 1720 00d9 12       		.uleb128 0x12
 1721 00da 01       		.uleb128 0x1
 1722 00db 01       		.byte	0x1
 1723 00dc 49       		.uleb128 0x49
 1724 00dd 13       		.uleb128 0x13
 1725 00de 01       		.uleb128 0x1
 1726 00df 13       		.uleb128 0x13
 1727 00e0 00       		.byte	0
 1728 00e1 00       		.byte	0
 1729 00e2 13       		.uleb128 0x13
 1730 00e3 21       		.uleb128 0x21
 1731 00e4 00       		.byte	0
 1732 00e5 49       		.uleb128 0x49
 1733 00e6 13       		.uleb128 0x13
 1734 00e7 2F       		.uleb128 0x2f
 1735 00e8 0B       		.uleb128 0xb
 1736 00e9 00       		.byte	0
 1737 00ea 00       		.byte	0
 1738 00eb 14       		.uleb128 0x14
 1739 00ec 15       		.uleb128 0x15
 1740 00ed 00       		.byte	0
 1741 00ee 27       		.uleb128 0x27
 1742 00ef 19       		.uleb128 0x19
 1743 00f0 00       		.byte	0
 1744 00f1 00       		.byte	0
 1745 00f2 15       		.uleb128 0x15
 1746 00f3 13       		.uleb128 0x13
 1747 00f4 01       		.byte	0x1
 1748 00f5 0B       		.uleb128 0xb
 1749 00f6 05       		.uleb128 0x5
 1750 00f7 3A       		.uleb128 0x3a
 1751 00f8 0B       		.uleb128 0xb
 1752 00f9 3B       		.uleb128 0x3b
 1753 00fa 0B       		.uleb128 0xb
 1754 00fb 39       		.uleb128 0x39
 1755 00fc 0B       		.uleb128 0xb
 1756 00fd 01       		.uleb128 0x1
 1757 00fe 13       		.uleb128 0x13
 1758 00ff 00       		.byte	0
 1759 0100 00       		.byte	0
 1760 0101 16       		.uleb128 0x16
 1761 0102 0D       		.uleb128 0xd
 1762 0103 00       		.byte	0
 1763 0104 03       		.uleb128 0x3
 1764 0105 08       		.uleb128 0x8
ARM GAS  /tmp/ccz1fEzT.s 			page 32


 1765 0106 3A       		.uleb128 0x3a
 1766 0107 0B       		.uleb128 0xb
 1767 0108 3B       		.uleb128 0x3b
 1768 0109 0B       		.uleb128 0xb
 1769 010a 39       		.uleb128 0x39
 1770 010b 0B       		.uleb128 0xb
 1771 010c 49       		.uleb128 0x49
 1772 010d 13       		.uleb128 0x13
 1773 010e 38       		.uleb128 0x38
 1774 010f 05       		.uleb128 0x5
 1775 0110 00       		.byte	0
 1776 0111 00       		.byte	0
 1777 0112 17       		.uleb128 0x17
 1778 0113 17       		.uleb128 0x17
 1779 0114 01       		.byte	0x1
 1780 0115 03       		.uleb128 0x3
 1781 0116 0E       		.uleb128 0xe
 1782 0117 0B       		.uleb128 0xb
 1783 0118 05       		.uleb128 0x5
 1784 0119 3A       		.uleb128 0x3a
 1785 011a 0B       		.uleb128 0xb
 1786 011b 3B       		.uleb128 0x3b
 1787 011c 0B       		.uleb128 0xb
 1788 011d 39       		.uleb128 0x39
 1789 011e 0B       		.uleb128 0xb
 1790 011f 01       		.uleb128 0x1
 1791 0120 13       		.uleb128 0x13
 1792 0121 00       		.byte	0
 1793 0122 00       		.byte	0
 1794 0123 18       		.uleb128 0x18
 1795 0124 0D       		.uleb128 0xd
 1796 0125 00       		.byte	0
 1797 0126 03       		.uleb128 0x3
 1798 0127 08       		.uleb128 0x8
 1799 0128 3A       		.uleb128 0x3a
 1800 0129 0B       		.uleb128 0xb
 1801 012a 3B       		.uleb128 0x3b
 1802 012b 0B       		.uleb128 0xb
 1803 012c 39       		.uleb128 0x39
 1804 012d 0B       		.uleb128 0xb
 1805 012e 49       		.uleb128 0x49
 1806 012f 13       		.uleb128 0x13
 1807 0130 00       		.byte	0
 1808 0131 00       		.byte	0
 1809 0132 19       		.uleb128 0x19
 1810 0133 21       		.uleb128 0x21
 1811 0134 00       		.byte	0
 1812 0135 49       		.uleb128 0x49
 1813 0136 13       		.uleb128 0x13
 1814 0137 2F       		.uleb128 0x2f
 1815 0138 05       		.uleb128 0x5
 1816 0139 00       		.byte	0
 1817 013a 00       		.byte	0
 1818 013b 1A       		.uleb128 0x1a
 1819 013c 21       		.uleb128 0x21
 1820 013d 00       		.byte	0
 1821 013e 00       		.byte	0
ARM GAS  /tmp/ccz1fEzT.s 			page 33


 1822 013f 00       		.byte	0
 1823 0140 1B       		.uleb128 0x1b
 1824 0141 34       		.uleb128 0x34
 1825 0142 00       		.byte	0
 1826 0143 03       		.uleb128 0x3
 1827 0144 08       		.uleb128 0x8
 1828 0145 3A       		.uleb128 0x3a
 1829 0146 0B       		.uleb128 0xb
 1830 0147 3B       		.uleb128 0x3b
 1831 0148 0B       		.uleb128 0xb
 1832 0149 39       		.uleb128 0x39
 1833 014a 0B       		.uleb128 0xb
 1834 014b 49       		.uleb128 0x49
 1835 014c 13       		.uleb128 0x13
 1836 014d 3F       		.uleb128 0x3f
 1837 014e 19       		.uleb128 0x19
 1838 014f 3C       		.uleb128 0x3c
 1839 0150 19       		.uleb128 0x19
 1840 0151 00       		.byte	0
 1841 0152 00       		.byte	0
 1842 0153 1C       		.uleb128 0x1c
 1843 0154 34       		.uleb128 0x34
 1844 0155 00       		.byte	0
 1845 0156 03       		.uleb128 0x3
 1846 0157 0E       		.uleb128 0xe
 1847 0158 3A       		.uleb128 0x3a
 1848 0159 0B       		.uleb128 0xb
 1849 015a 3B       		.uleb128 0x3b
 1850 015b 0B       		.uleb128 0xb
 1851 015c 39       		.uleb128 0x39
 1852 015d 0B       		.uleb128 0xb
 1853 015e 49       		.uleb128 0x49
 1854 015f 13       		.uleb128 0x13
 1855 0160 3F       		.uleb128 0x3f
 1856 0161 19       		.uleb128 0x19
 1857 0162 02       		.uleb128 0x2
 1858 0163 18       		.uleb128 0x18
 1859 0164 00       		.byte	0
 1860 0165 00       		.byte	0
 1861 0166 1D       		.uleb128 0x1d
 1862 0167 2E       		.uleb128 0x2e
 1863 0168 01       		.byte	0x1
 1864 0169 03       		.uleb128 0x3
 1865 016a 0E       		.uleb128 0xe
 1866 016b 3A       		.uleb128 0x3a
 1867 016c 0B       		.uleb128 0xb
 1868 016d 3B       		.uleb128 0x3b
 1869 016e 0B       		.uleb128 0xb
 1870 016f 39       		.uleb128 0x39
 1871 0170 0B       		.uleb128 0xb
 1872 0171 27       		.uleb128 0x27
 1873 0172 19       		.uleb128 0x19
 1874 0173 11       		.uleb128 0x11
 1875 0174 01       		.uleb128 0x1
 1876 0175 12       		.uleb128 0x12
 1877 0176 06       		.uleb128 0x6
 1878 0177 40       		.uleb128 0x40
ARM GAS  /tmp/ccz1fEzT.s 			page 34


 1879 0178 18       		.uleb128 0x18
 1880 0179 9742     		.uleb128 0x2117
 1881 017b 19       		.uleb128 0x19
 1882 017c 01       		.uleb128 0x1
 1883 017d 13       		.uleb128 0x13
 1884 017e 00       		.byte	0
 1885 017f 00       		.byte	0
 1886 0180 1E       		.uleb128 0x1e
 1887 0181 34       		.uleb128 0x34
 1888 0182 00       		.byte	0
 1889 0183 03       		.uleb128 0x3
 1890 0184 08       		.uleb128 0x8
 1891 0185 3A       		.uleb128 0x3a
 1892 0186 0B       		.uleb128 0xb
 1893 0187 3B       		.uleb128 0x3b
 1894 0188 0B       		.uleb128 0xb
 1895 0189 39       		.uleb128 0x39
 1896 018a 0B       		.uleb128 0xb
 1897 018b 49       		.uleb128 0x49
 1898 018c 13       		.uleb128 0x13
 1899 018d 02       		.uleb128 0x2
 1900 018e 17       		.uleb128 0x17
 1901 018f B742     		.uleb128 0x2137
 1902 0191 17       		.uleb128 0x17
 1903 0192 00       		.byte	0
 1904 0193 00       		.byte	0
 1905 0194 1F       		.uleb128 0x1f
 1906 0195 898201   		.uleb128 0x4109
 1907 0198 01       		.byte	0x1
 1908 0199 11       		.uleb128 0x11
 1909 019a 01       		.uleb128 0x1
 1910 019b 31       		.uleb128 0x31
 1911 019c 13       		.uleb128 0x13
 1912 019d 01       		.uleb128 0x1
 1913 019e 13       		.uleb128 0x13
 1914 019f 00       		.byte	0
 1915 01a0 00       		.byte	0
 1916 01a1 20       		.uleb128 0x20
 1917 01a2 8A8201   		.uleb128 0x410a
 1918 01a5 00       		.byte	0
 1919 01a6 02       		.uleb128 0x2
 1920 01a7 18       		.uleb128 0x18
 1921 01a8 9142     		.uleb128 0x2111
 1922 01aa 18       		.uleb128 0x18
 1923 01ab 00       		.byte	0
 1924 01ac 00       		.byte	0
 1925 01ad 21       		.uleb128 0x21
 1926 01ae 898201   		.uleb128 0x4109
 1927 01b1 00       		.byte	0
 1928 01b2 11       		.uleb128 0x11
 1929 01b3 01       		.uleb128 0x1
 1930 01b4 31       		.uleb128 0x31
 1931 01b5 13       		.uleb128 0x13
 1932 01b6 00       		.byte	0
 1933 01b7 00       		.byte	0
 1934 01b8 22       		.uleb128 0x22
 1935 01b9 898201   		.uleb128 0x4109
ARM GAS  /tmp/ccz1fEzT.s 			page 35


 1936 01bc 01       		.byte	0x1
 1937 01bd 11       		.uleb128 0x11
 1938 01be 01       		.uleb128 0x1
 1939 01bf 9542     		.uleb128 0x2115
 1940 01c1 19       		.uleb128 0x19
 1941 01c2 31       		.uleb128 0x31
 1942 01c3 13       		.uleb128 0x13
 1943 01c4 00       		.byte	0
 1944 01c5 00       		.byte	0
 1945 01c6 23       		.uleb128 0x23
 1946 01c7 2E       		.uleb128 0x2e
 1947 01c8 01       		.byte	0x1
 1948 01c9 03       		.uleb128 0x3
 1949 01ca 0E       		.uleb128 0xe
 1950 01cb 3A       		.uleb128 0x3a
 1951 01cc 0B       		.uleb128 0xb
 1952 01cd 3B       		.uleb128 0x3b
 1953 01ce 0B       		.uleb128 0xb
 1954 01cf 39       		.uleb128 0x39
 1955 01d0 0B       		.uleb128 0xb
 1956 01d1 27       		.uleb128 0x27
 1957 01d2 19       		.uleb128 0x19
 1958 01d3 49       		.uleb128 0x49
 1959 01d4 13       		.uleb128 0x13
 1960 01d5 11       		.uleb128 0x11
 1961 01d6 01       		.uleb128 0x1
 1962 01d7 12       		.uleb128 0x12
 1963 01d8 06       		.uleb128 0x6
 1964 01d9 40       		.uleb128 0x40
 1965 01da 18       		.uleb128 0x18
 1966 01db 9742     		.uleb128 0x2117
 1967 01dd 19       		.uleb128 0x19
 1968 01de 01       		.uleb128 0x1
 1969 01df 13       		.uleb128 0x13
 1970 01e0 00       		.byte	0
 1971 01e1 00       		.byte	0
 1972 01e2 24       		.uleb128 0x24
 1973 01e3 05       		.uleb128 0x5
 1974 01e4 00       		.byte	0
 1975 01e5 03       		.uleb128 0x3
 1976 01e6 08       		.uleb128 0x8
 1977 01e7 3A       		.uleb128 0x3a
 1978 01e8 0B       		.uleb128 0xb
 1979 01e9 3B       		.uleb128 0x3b
 1980 01ea 0B       		.uleb128 0xb
 1981 01eb 39       		.uleb128 0x39
 1982 01ec 0B       		.uleb128 0xb
 1983 01ed 49       		.uleb128 0x49
 1984 01ee 13       		.uleb128 0x13
 1985 01ef 02       		.uleb128 0x2
 1986 01f0 17       		.uleb128 0x17
 1987 01f1 B742     		.uleb128 0x2137
 1988 01f3 17       		.uleb128 0x17
 1989 01f4 00       		.byte	0
 1990 01f5 00       		.byte	0
 1991 01f6 25       		.uleb128 0x25
 1992 01f7 898201   		.uleb128 0x4109
ARM GAS  /tmp/ccz1fEzT.s 			page 36


 1993 01fa 01       		.byte	0x1
 1994 01fb 11       		.uleb128 0x11
 1995 01fc 01       		.uleb128 0x1
 1996 01fd 31       		.uleb128 0x31
 1997 01fe 13       		.uleb128 0x13
 1998 01ff 00       		.byte	0
 1999 0200 00       		.byte	0
 2000 0201 26       		.uleb128 0x26
 2001 0202 2E       		.uleb128 0x2e
 2002 0203 00       		.byte	0
 2003 0204 3F       		.uleb128 0x3f
 2004 0205 19       		.uleb128 0x19
 2005 0206 3C       		.uleb128 0x3c
 2006 0207 19       		.uleb128 0x19
 2007 0208 6E       		.uleb128 0x6e
 2008 0209 0E       		.uleb128 0xe
 2009 020a 03       		.uleb128 0x3
 2010 020b 0E       		.uleb128 0xe
 2011 020c 3A       		.uleb128 0x3a
 2012 020d 0B       		.uleb128 0xb
 2013 020e 3B       		.uleb128 0x3b
 2014 020f 05       		.uleb128 0x5
 2015 0210 39       		.uleb128 0x39
 2016 0211 0B       		.uleb128 0xb
 2017 0212 00       		.byte	0
 2018 0213 00       		.byte	0
 2019 0214 27       		.uleb128 0x27
 2020 0215 2E       		.uleb128 0x2e
 2021 0216 00       		.byte	0
 2022 0217 3F       		.uleb128 0x3f
 2023 0218 19       		.uleb128 0x19
 2024 0219 3C       		.uleb128 0x3c
 2025 021a 19       		.uleb128 0x19
 2026 021b 6E       		.uleb128 0x6e
 2027 021c 0E       		.uleb128 0xe
 2028 021d 03       		.uleb128 0x3
 2029 021e 0E       		.uleb128 0xe
 2030 021f 3A       		.uleb128 0x3a
 2031 0220 0B       		.uleb128 0xb
 2032 0221 3B       		.uleb128 0x3b
 2033 0222 0B       		.uleb128 0xb
 2034 0223 39       		.uleb128 0x39
 2035 0224 0B       		.uleb128 0xb
 2036 0225 00       		.byte	0
 2037 0226 00       		.byte	0
 2038 0227 00       		.byte	0
 2039              		.section	.debug_loc,"",%progbits
 2040              	.Ldebug_loc0:
 2041              	.LVUS0:
 2042 0000 00       		.uleb128 .LVU13
 2043 0001 00       		.uleb128 .LVU16
 2044 0002 00       		.uleb128 .LVU19
 2045 0003 00       		.uleb128 .LVU22
 2046 0004 00       		.uleb128 .LVU25
 2047 0005 00       		.uleb128 .LVU28
 2048              	.LLST0:
 2049 0006 3C000000 		.4byte	.LVL1
ARM GAS  /tmp/ccz1fEzT.s 			page 37


 2050 000a 47000000 		.4byte	.LVL3-1
 2051 000e 0100     		.2byte	0x1
 2052 0010 50       		.byte	0x50
 2053 0011 54000000 		.4byte	.LVL5
 2054 0015 5F000000 		.4byte	.LVL7-1
 2055 0019 0100     		.2byte	0x1
 2056 001b 50       		.byte	0x50
 2057 001c 6C000000 		.4byte	.LVL9
 2058 0020 77000000 		.4byte	.LVL11-1
 2059 0024 0100     		.2byte	0x1
 2060 0026 50       		.byte	0x50
 2061 0027 00000000 		.4byte	0
 2062 002b 00000000 		.4byte	0
 2063              	.LVUS1:
 2064 002f 00       		.uleb128 .LVU15
 2065 0030 00       		.uleb128 .LVU31
 2066              	.LLST1:
 2067 0031 40000000 		.4byte	.LVL2
 2068 0035 90000000 		.4byte	.LVL13
 2069 0039 0100     		.2byte	0x1
 2070 003b 54       		.byte	0x54
 2071 003c 00000000 		.4byte	0
 2072 0040 00000000 		.4byte	0
 2073              	.LVUS2:
 2074 0044 00       		.uleb128 0
 2075 0045 00       		.uleb128 .LVU37
 2076 0046 00       		.uleb128 .LVU37
 2077 0047 00       		.uleb128 0
 2078              	.LLST2:
 2079 0048 00000000 		.4byte	.LVL15
 2080 004c 0F000000 		.4byte	.LVL16-1
 2081 0050 0100     		.2byte	0x1
 2082 0052 50       		.byte	0x50
 2083 0053 0F000000 		.4byte	.LVL16-1
 2084 0057 30000000 		.4byte	.LFE7
 2085 005b 0100     		.2byte	0x1
 2086 005d 54       		.byte	0x54
 2087 005e 00000000 		.4byte	0
 2088 0062 00000000 		.4byte	0
 2089              		.section	.debug_aranges,"",%progbits
 2090 0000 24000000 		.4byte	0x24
 2091 0004 0200     		.2byte	0x2
 2092 0006 00000000 		.4byte	.Ldebug_info0
 2093 000a 04       		.byte	0x4
 2094 000b 00       		.byte	0
 2095 000c 0000     		.2byte	0
 2096 000e 0000     		.2byte	0
 2097 0010 00000000 		.4byte	.LFB8
 2098 0014 A8000000 		.4byte	.LFE8-.LFB8
 2099 0018 00000000 		.4byte	.LFB7
 2100 001c 30000000 		.4byte	.LFE7-.LFB7
 2101 0020 00000000 		.4byte	0
 2102 0024 00000000 		.4byte	0
 2103              		.section	.debug_ranges,"",%progbits
 2104              	.Ldebug_ranges0:
 2105 0000 00000000 		.4byte	.LFB8
 2106 0004 A8000000 		.4byte	.LFE8
ARM GAS  /tmp/ccz1fEzT.s 			page 38


 2107 0008 00000000 		.4byte	.LFB7
 2108 000c 30000000 		.4byte	.LFE7
 2109 0010 00000000 		.4byte	0
 2110 0014 00000000 		.4byte	0
 2111              		.section	.debug_line,"",%progbits
 2112              	.Ldebug_line0:
 2113 0000 A5010000 		.section	.debug_str,"MS",%progbits,1
 2113      03000901 
 2113      00000201 
 2113      FB0E0D00 
 2113      01010101 
 2114              	.LASF84:
 2115 0000 63665F6F 		.ascii	"cf_off_older\000"
 2115      66665F6F 
 2115      6C646572 
 2115      00
 2116              	.LASF37:
 2117 000d 705F6D73 		.ascii	"p_msg\000"
 2117      6700
 2118              	.LASF112:
 2119 0013 474E5520 		.ascii	"GNU C17 9.2.1 20191025 (release) [ARM/arm-9-branch "
 2119      43313720 
 2119      392E322E 
 2119      31203230 
 2119      31393130 
 2120 0046 72657669 		.ascii	"revision 277599] -mcpu=arm1176jz-s -mno-thumb-inter"
 2120      73696F6E 
 2120      20323737 
 2120      3539395D 
 2120      202D6D63 
 2121 0079 776F726B 		.ascii	"work -mfloat-abi=soft -marm -march=armv6kz -ggdb -O"
 2121      202D6D66 
 2121      6C6F6174 
 2121      2D616269 
 2121      3D736F66 
 2122 00ac 32202D66 		.ascii	"2 -fomit-frame-pointer -ffunction-sections -fdata-s"
 2122      6F6D6974 
 2122      2D667261 
 2122      6D652D70 
 2122      6F696E74 
 2123 00df 65637469 		.ascii	"ections\000"
 2123      6F6E7300 
 2124              	.LASF69:
 2125 00e7 7264796D 		.ascii	"rdymsg\000"
 2125      736700
 2126              	.LASF63:
 2127 00ee 76746C69 		.ascii	"vtlist\000"
 2127      737400
 2128              	.LASF12:
 2129 00f5 6C6F6E67 		.ascii	"long long unsigned int\000"
 2129      206C6F6E 
 2129      6720756E 
 2129      7369676E 
 2129      65642069 
 2130              	.LASF80:
 2131 010c 63685F74 		.ascii	"ch_threadsize\000"
 2131      68726561 
ARM GAS  /tmp/ccz1fEzT.s 			page 39


 2131      6473697A 
 2131      6500
 2132              	.LASF70:
 2133 011a 65786974 		.ascii	"exitcode\000"
 2133      636F6465 
 2133      00
 2134              	.LASF102:
 2135 0123 74657374 		.ascii	"test\000"
 2135      00
 2136              	.LASF25:
 2137 0128 705F7072 		.ascii	"p_prio\000"
 2137      696F00
 2138              	.LASF87:
 2139 012f 63665F6F 		.ascii	"cf_off_state\000"
 2139      66665F73 
 2139      74617465 
 2139      00
 2140              	.LASF98:
 2141 013c 74656172 		.ascii	"teardown\000"
 2141      646F776E 
 2141      00
 2142              	.LASF4:
 2143 0145 6C6F6E67 		.ascii	"long long int\000"
 2143      206C6F6E 
 2143      6720696E 
 2143      7400
 2144              	.LASF1:
 2145 0153 7369676E 		.ascii	"signed char\000"
 2145      65642063 
 2145      68617200 
 2146              	.LASF86:
 2147 015f 63665F6F 		.ascii	"cf_off_stklimit\000"
 2147      66665F73 
 2147      746B6C69 
 2147      6D697400 
 2148              	.LASF88:
 2149 016f 63665F6F 		.ascii	"cf_off_flags\000"
 2149      66665F66 
 2149      6C616773 
 2149      00
 2150              	.LASF13:
 2151 017c 626F6F6C 		.ascii	"bool_t\000"
 2151      5F7400
 2152              	.LASF66:
 2153 0183 6D5F7175 		.ascii	"m_queue\000"
 2153      65756500 
 2154              	.LASF109:
 2155 018b 74657374 		.ascii	"test_emit_token\000"
 2155      5F656D69 
 2155      745F746F 
 2155      6B656E00 
 2156              	.LASF17:
 2157 019b 74736C69 		.ascii	"tslices_t\000"
 2157      6365735F 
 2157      7400
 2158              	.LASF3:
 2159 01a5 6C6F6E67 		.ascii	"long int\000"
ARM GAS  /tmp/ccz1fEzT.s 			page 40


 2159      20696E74 
 2159      00
 2160              	.LASF111:
 2161 01ae 63684D73 		.ascii	"chMsgSend\000"
 2161      6753656E 
 2161      6400
 2162              	.LASF15:
 2163 01b8 74737461 		.ascii	"tstate_t\000"
 2163      74655F74 
 2163      00
 2164              	.LASF8:
 2165 01c1 75696E74 		.ascii	"uint16_t\000"
 2165      31365F74 
 2165      00
 2166              	.LASF92:
 2167 01ca 63686465 		.ascii	"chdebug_t\000"
 2167      6275675F 
 2167      7400
 2168              	.LASF100:
 2169 01d4 62756666 		.ascii	"buffer\000"
 2169      657200
 2170              	.LASF27:
 2171 01db 705F6E65 		.ascii	"p_newer\000"
 2171      77657200 
 2172              	.LASF94:
 2173 01e3 5F69646C 		.ascii	"_idle_thread_wa\000"
 2173      655F7468 
 2173      72656164 
 2173      5F776100 
 2174              	.LASF59:
 2175 01f3 725F6E65 		.ascii	"r_newer\000"
 2175      77657200 
 2176              	.LASF44:
 2177 01fb 72656761 		.ascii	"regarm_t\000"
 2177      726D5F74 
 2177      00
 2178              	.LASF50:
 2179 0204 76745F70 		.ascii	"vt_prev\000"
 2179      72657600 
 2180              	.LASF0:
 2181 020c 756E7369 		.ascii	"unsigned int\000"
 2181      676E6564 
 2181      20696E74 
 2181      00
 2182              	.LASF49:
 2183 0219 76745F6E 		.ascii	"vt_next\000"
 2183      65787400 
 2184              	.LASF11:
 2185 0221 6C6F6E67 		.ascii	"long unsigned int\000"
 2185      20756E73 
 2185      69676E65 
 2185      6420696E 
 2185      7400
 2186              	.LASF93:
 2187 0233 63685F64 		.ascii	"ch_debug\000"
 2187      65627567 
 2187      00
ARM GAS  /tmp/ccz1fEzT.s 			page 41


 2188              	.LASF103:
 2189 023c 74657374 		.ascii	"test_timer_done\000"
 2189      5F74696D 
 2189      65725F64 
 2189      6F6E6500 
 2190              	.LASF96:
 2191 024c 6E616D65 		.ascii	"name\000"
 2191      00
 2192              	.LASF74:
 2193 0251 63685F69 		.ascii	"ch_identifier\000"
 2193      64656E74 
 2193      69666965 
 2193      7200
 2194              	.LASF46:
 2195 025f 636F6E74 		.ascii	"context\000"
 2195      65787400 
 2196              	.LASF9:
 2197 0267 73686F72 		.ascii	"short unsigned int\000"
 2197      7420756E 
 2197      7369676E 
 2197      65642069 
 2197      6E7400
 2198              	.LASF19:
 2199 027a 6D73675F 		.ascii	"msg_t\000"
 2199      7400
 2200              	.LASF101:
 2201 0280 74687265 		.ascii	"threads\000"
 2201      61647300 
 2202              	.LASF14:
 2203 0288 746D6F64 		.ascii	"tmode_t\000"
 2203      655F7400 
 2204              	.LASF42:
 2205 0290 54687265 		.ascii	"ThreadsList\000"
 2205      6164734C 
 2205      69737400 
 2206              	.LASF20:
 2207 029c 6576656E 		.ascii	"eventmask_t\000"
 2207      746D6173 
 2207      6B5F7400 
 2208              	.LASF65:
 2209 02a8 4D757465 		.ascii	"Mutex\000"
 2209      7800
 2210              	.LASF43:
 2211 02ae 73746B61 		.ascii	"stkalign_t\000"
 2211      6C69676E 
 2211      5F7400
 2212              	.LASF106:
 2213 02b9 63685468 		.ascii	"chThdCreateStatic\000"
 2213      64437265 
 2213      61746553 
 2213      74617469 
 2213      6300
 2214              	.LASF75:
 2215 02cb 63685F7A 		.ascii	"ch_zero\000"
 2215      65726F00 
 2216              	.LASF89:
 2217 02d3 63665F6F 		.ascii	"cf_off_refs\000"
ARM GAS  /tmp/ccz1fEzT.s 			page 42


 2217      66665F72 
 2217      65667300 
 2218              	.LASF51:
 2219 02df 76745F74 		.ascii	"vt_time\000"
 2219      696D6500 
 2220              	.LASF105:
 2221 02e7 70617474 		.ascii	"patternmsg\000"
 2221      65726E6D 
 2221      736700
 2222              	.LASF52:
 2223 02f2 76745F66 		.ascii	"vt_func\000"
 2223      756E6300 
 2224              	.LASF79:
 2225 02fa 63685F74 		.ascii	"ch_timesize\000"
 2225      696D6573 
 2225      697A6500 
 2226              	.LASF85:
 2227 0306 63665F6F 		.ascii	"cf_off_name\000"
 2227      66665F6E 
 2227      616D6500 
 2228              	.LASF28:
 2229 0312 705F6F6C 		.ascii	"p_older\000"
 2229      64657200 
 2230              	.LASF58:
 2231 031a 725F6374 		.ascii	"r_ctx\000"
 2231      7800
 2232              	.LASF41:
 2233 0320 54687265 		.ascii	"ThreadsQueue\000"
 2233      61647351 
 2233      75657565 
 2233      00
 2234              	.LASF76:
 2235 032d 63685F73 		.ascii	"ch_size\000"
 2235      697A6500 
 2236              	.LASF97:
 2237 0335 73657475 		.ascii	"setup\000"
 2237      7000
 2238              	.LASF110:
 2239 033b 5F746573 		.ascii	"_test_assert_sequence\000"
 2239      745F6173 
 2239      73657274 
 2239      5F736571 
 2239      75656E63 
 2240              	.LASF61:
 2241 0351 725F6375 		.ascii	"r_current\000"
 2241      7272656E 
 2241      7400
 2242              	.LASF60:
 2243 035b 725F6F6C 		.ascii	"r_older\000"
 2243      64657200 
 2244              	.LASF16:
 2245 0363 74726566 		.ascii	"trefs_t\000"
 2245      735F7400 
 2246              	.LASF78:
 2247 036b 63685F70 		.ascii	"ch_ptrsize\000"
 2247      74727369 
 2247      7A6500
ARM GAS  /tmp/ccz1fEzT.s 			page 43


 2248              	.LASF24:
 2249 0376 705F7072 		.ascii	"p_prev\000"
 2249      657600
 2250              	.LASF99:
 2251 037d 65786563 		.ascii	"execute\000"
 2251      75746500 
 2252              	.LASF18:
 2253 0385 74707269 		.ascii	"tprio_t\000"
 2253      6F5F7400 
 2254              	.LASF117:
 2255 038d 74687265 		.ascii	"thread\000"
 2255      616400
 2256              	.LASF5:
 2257 0394 696E7433 		.ascii	"int32_t\000"
 2257      325F7400 
 2258              	.LASF7:
 2259 039c 756E7369 		.ascii	"unsigned char\000"
 2259      676E6564 
 2259      20636861 
 2259      7200
 2260              	.LASF39:
 2261 03aa 705F6D74 		.ascii	"p_mtxlist\000"
 2261      786C6973 
 2261      7400
 2262              	.LASF2:
 2263 03b4 73686F72 		.ascii	"short int\000"
 2263      7420696E 
 2263      7400
 2264              	.LASF30:
 2265 03be 705F7374 		.ascii	"p_state\000"
 2265      61746500 
 2266              	.LASF33:
 2267 03c6 705F7072 		.ascii	"p_preempt\000"
 2267      65656D70 
 2267      7400
 2268              	.LASF91:
 2269 03d0 63665F6F 		.ascii	"cf_off_time\000"
 2269      66665F74 
 2269      696D6500 
 2270              	.LASF57:
 2271 03dc 725F7072 		.ascii	"r_prio\000"
 2271      696F00
 2272              	.LASF104:
 2273 03e3 74657374 		.ascii	"testmsg1\000"
 2273      6D736731 
 2273      00
 2274              	.LASF72:
 2275 03ec 65776D61 		.ascii	"ewmask\000"
 2275      736B00
 2276              	.LASF23:
 2277 03f3 705F6E65 		.ascii	"p_next\000"
 2277      787400
 2278              	.LASF90:
 2279 03fa 63665F6F 		.ascii	"cf_off_preempt\000"
 2279      66665F70 
 2279      7265656D 
 2279      707400
ARM GAS  /tmp/ccz1fEzT.s 			page 44


 2280              	.LASF31:
 2281 0409 705F666C 		.ascii	"p_flags\000"
 2281      61677300 
 2282              	.LASF22:
 2283 0411 54687265 		.ascii	"Thread\000"
 2283      616400
 2284              	.LASF83:
 2285 0418 63665F6F 		.ascii	"cf_off_newer\000"
 2285      66665F6E 
 2285      65776572 
 2285      00
 2286              	.LASF95:
 2287 0425 74657374 		.ascii	"testcase\000"
 2287      63617365 
 2287      00
 2288              	.LASF38:
 2289 042e 705F6570 		.ascii	"p_epending\000"
 2289      656E6469 
 2289      6E6700
 2290              	.LASF10:
 2291 0439 75696E74 		.ascii	"uint32_t\000"
 2291      33325F74 
 2291      00
 2292              	.LASF81:
 2293 0442 63665F6F 		.ascii	"cf_off_prio\000"
 2293      66665F70 
 2293      72696F00 
 2294              	.LASF56:
 2295 044e 725F7175 		.ascii	"r_queue\000"
 2295      65756500 
 2296              	.LASF48:
 2297 0456 56697274 		.ascii	"VirtualTimer\000"
 2297      75616C54 
 2297      696D6572 
 2297      00
 2298              	.LASF114:
 2299 0463 2F686F6D 		.ascii	"/home/taskman/arduino/embedded-wind-turbine/Data_Co"
 2299      652F7461 
 2299      736B6D61 
 2299      6E2F6172 
 2299      6475696E 
 2300 0496 6C6C6563 		.ascii	"llector/raspberry/compiler/ChibiOS-RPi/led\000"
 2300      746F722F 
 2300      72617370 
 2300      62657272 
 2300      792F636F 
 2301              	.LASF73:
 2302 04c1 63686172 		.ascii	"char\000"
 2302      00
 2303              	.LASF115:
 2304 04c6 74657374 		.ascii	"test_buffers\000"
 2304      5F627566 
 2304      66657273 
 2304      00
 2305              	.LASF68:
 2306 04d3 6D5F6E65 		.ascii	"m_next\000"
 2306      787400
ARM GAS  /tmp/ccz1fEzT.s 			page 45


 2307              	.LASF21:
 2308 04da 73797374 		.ascii	"systime_t\000"
 2308      696D655F 
 2308      7400
 2309              	.LASF40:
 2310 04e4 705F7265 		.ascii	"p_realprio\000"
 2310      616C7072 
 2310      696F00
 2311              	.LASF47:
 2312 04ef 76746675 		.ascii	"vtfunc_t\000"
 2312      6E635F74 
 2312      00
 2313              	.LASF34:
 2314 04f8 705F7469 		.ascii	"p_time\000"
 2314      6D6500
 2315              	.LASF45:
 2316 04ff 696E7463 		.ascii	"intctx\000"
 2316      747800
 2317              	.LASF36:
 2318 0506 705F6D73 		.ascii	"p_msgqueue\000"
 2318      67717565 
 2318      756500
 2319              	.LASF53:
 2320 0511 76745F70 		.ascii	"vt_par\000"
 2320      617200
 2321              	.LASF107:
 2322 0518 63684D73 		.ascii	"chMsgWait\000"
 2322      67576169 
 2322      7400
 2323              	.LASF82:
 2324 0522 63665F6F 		.ascii	"cf_off_ctx\000"
 2324      66665F63 
 2324      747800
 2325              	.LASF32:
 2326 052d 705F7265 		.ascii	"p_refs\000"
 2326      667300
 2327              	.LASF62:
 2328 0534 52656164 		.ascii	"ReadyList\000"
 2328      794C6973 
 2328      7400
 2329              	.LASF64:
 2330 053e 726C6973 		.ascii	"rlist\000"
 2330      7400
 2331              	.LASF67:
 2332 0544 6D5F6F77 		.ascii	"m_owner\000"
 2332      6E657200 
 2333              	.LASF6:
 2334 054c 75696E74 		.ascii	"uint8_t\000"
 2334      385F7400 
 2335              	.LASF116:
 2336 0554 6D736731 		.ascii	"msg1_execute\000"
 2336      5F657865 
 2336      63757465 
 2336      00
 2337              	.LASF71:
 2338 0561 77746F62 		.ascii	"wtobjp\000"
 2338      6A7000
ARM GAS  /tmp/ccz1fEzT.s 			page 46


 2339              	.LASF29:
 2340 0568 705F6E61 		.ascii	"p_name\000"
 2340      6D6500
 2341              	.LASF54:
 2342 056f 76745F73 		.ascii	"vt_systime\000"
 2342      79737469 
 2342      6D6500
 2343              	.LASF77:
 2344 057a 63685F76 		.ascii	"ch_version\000"
 2344      65727369 
 2344      6F6E00
 2345              	.LASF55:
 2346 0585 56544C69 		.ascii	"VTList\000"
 2346      737400
 2347              	.LASF113:
 2348 058c 2E2E2F74 		.ascii	"../test/testmsg.c\000"
 2348      6573742F 
 2348      74657374 
 2348      6D73672E 
 2348      6300
 2349              	.LASF26:
 2350 059e 705F6374 		.ascii	"p_ctx\000"
 2350      7800
 2351              	.LASF35:
 2352 05a4 705F7761 		.ascii	"p_waiting\000"
 2352      6974696E 
 2352      6700
 2353              	.LASF108:
 2354 05ae 63684D73 		.ascii	"chMsgRelease\000"
 2354      6752656C 
 2354      65617365 
 2354      00
 2355              		.ident	"GCC: (15:9-2019-q4-0ubuntu1) 9.2.1 20191025 (release) [ARM/arm-9-branch revision 277599]"
ARM GAS  /tmp/ccz1fEzT.s 			page 47


DEFINED SYMBOLS
                            *ABS*:0000000000000000 testmsg.c
     /tmp/ccz1fEzT.s:16     .rodata.msg1_execute.str1.4:0000000000000000 $d
     /tmp/ccz1fEzT.s:20     .text.msg1_execute:0000000000000000 $a
     /tmp/ccz1fEzT.s:26     .text.msg1_execute:0000000000000000 msg1_execute
     /tmp/ccz1fEzT.s:128    .text.msg1_execute:0000000000000094 $d
     /tmp/ccz1fEzT.s:142    .text.thread:0000000000000000 thread
     /tmp/ccz1fEzT.s:137    .text.thread:0000000000000000 $a
     /tmp/ccz1fEzT.s:188    .rodata.patternmsg:0000000000000000 patternmsg
     /tmp/ccz1fEzT.s:195    .rodata.testmsg1:0000000000000000 testmsg1
     /tmp/ccz1fEzT.s:181    .rodata.str1.4:0000000000000000 $d
     /tmp/ccz1fEzT.s:185    .rodata.patternmsg:0000000000000000 $d
     /tmp/ccz1fEzT.s:192    .rodata.testmsg1:0000000000000000 $d

UNDEFINED SYMBOLS
chThdCreateStatic
chMsgWait
chMsgRelease
test_emit_token
_test_assert_sequence
rlist
wa
threads
chMsgSend
