ARM GAS  /tmp/ccLBGe59.s 			page 1


   1              		.cpu arm1176jz-s
   2              		.eabi_attribute 20, 1
   3              		.eabi_attribute 21, 1
   4              		.eabi_attribute 23, 3
   5              		.eabi_attribute 24, 1
   6              		.eabi_attribute 25, 1
   7              		.eabi_attribute 26, 1
   8              		.eabi_attribute 30, 2
   9              		.eabi_attribute 34, 1
  10              		.eabi_attribute 18, 4
  11              		.file	"testqueues.c"
  12              		.text
  13              	.Ltext0:
  14              		.cfi_sections	.debug_frame
  15              		.section	.text.notify,"ax",%progbits
  16              		.align	2
  17              		.arch armv6kz
  18              		.syntax unified
  19              		.arm
  20              		.fpu softvfp
  21              		.type	notify, %function
  22              	notify:
  23              	.LVL0:
  24              	.LFB7:
  25              		.file 1 "../test/testqueues.c"
  26              		.loc 1 61 38 view -0
  27              		.cfi_startproc
  28              		@ args = 0, pretend = 0, frame = 0
  29              		@ frame_needed = 0, uses_anonymous_args = 0
  30              		@ link register save eliminated.
  31              		.loc 1 62 3 view .LVU1
  32              		.loc 1 63 1 is_stmt 0 view .LVU2
  33 0000 1EFF2FE1 		bx	lr
  34              		.cfi_endproc
  35              	.LFE7:
  36              		.size	notify, .-notify
  37              		.section	.text.thread1,"ax",%progbits
  38              		.align	2
  39              		.syntax unified
  40              		.arm
  41              		.fpu softvfp
  42              		.type	thread1, %function
  43              	thread1:
  44              	.LVL1:
  45              	.LFB9:
  46              		.loc 1 87 31 is_stmt 1 view -0
  47              		.cfi_startproc
  48              		@ args = 0, pretend = 0, frame = 0
  49              		@ frame_needed = 0, uses_anonymous_args = 0
  50              		.loc 1 89 3 view .LVU4
  51              		.loc 1 90 3 view .LVU5
  52 0000 C810A0E3 		mov	r1, #200
  53              		.loc 1 87 31 is_stmt 0 view .LVU6
  54 0004 10402DE9 		push	{r4, lr}
  55              		.cfi_def_cfa_offset 8
  56              		.cfi_offset 4, -8
  57              		.cfi_offset 14, -4
ARM GAS  /tmp/ccLBGe59.s 			page 2


  58              		.loc 1 90 3 view .LVU7
  59 0008 08009FE5 		ldr	r0, .L5
  60              	.LVL2:
  61              		.loc 1 90 3 view .LVU8
  62 000c FEFFFFEB 		bl	chIQGetTimeout
  63              	.LVL3:
  64              		.loc 1 91 3 is_stmt 1 view .LVU9
  65              		.loc 1 92 1 is_stmt 0 view .LVU10
  66 0010 0000A0E3 		mov	r0, #0
  67 0014 1080BDE8 		pop	{r4, pc}
  68              	.L6:
  69              		.align	2
  70              	.L5:
  71 0018 00000000 		.word	.LANCHOR0
  72              		.cfi_endproc
  73              	.LFE9:
  74              		.size	thread1, .-thread1
  75              		.section	.text.queues1_setup,"ax",%progbits
  76              		.align	2
  77              		.syntax unified
  78              		.arm
  79              		.fpu softvfp
  80              		.type	queues1_setup, %function
  81              	queues1_setup:
  82              	.LFB8:
  83              		.loc 1 82 33 is_stmt 1 view -0
  84              		.cfi_startproc
  85              		@ args = 0, pretend = 0, frame = 0
  86              		@ frame_needed = 0, uses_anonymous_args = 0
  87              		.loc 1 84 3 view .LVU12
  88 0000 0020A0E3 		mov	r2, #0
  89              		.loc 1 82 33 is_stmt 0 view .LVU13
  90 0004 04E02DE5 		str	lr, [sp, #-4]!
  91              		.cfi_def_cfa_offset 4
  92              		.cfi_offset 14, -4
  93              		.loc 1 84 19 view .LVU14
  94 0008 20309FE5 		ldr	r3, .L9
  95              		.loc 1 82 33 view .LVU15
  96 000c 0CD04DE2 		sub	sp, sp, #12
  97              		.cfi_def_cfa_offset 16
  98              		.loc 1 84 3 view .LVU16
  99 0010 001093E5 		ldr	r1, [r3]
 100 0014 00208DE5 		str	r2, [sp]
 101 0018 14309FE5 		ldr	r3, .L9+4
 102 001c 0420A0E3 		mov	r2, #4
 103 0020 10009FE5 		ldr	r0, .L9+8
 104 0024 FEFFFFEB 		bl	chIQInit
 105              	.LVL4:
 106              		.loc 1 85 1 view .LVU17
 107 0028 0CD08DE2 		add	sp, sp, #12
 108              		.cfi_def_cfa_offset 4
 109              		@ sp needed
 110 002c 04F09DE4 		ldr	pc, [sp], #4
 111              	.L10:
 112              		.align	2
 113              	.L9:
 114 0030 00000000 		.word	wa
ARM GAS  /tmp/ccLBGe59.s 			page 3


 115 0034 00000000 		.word	notify
 116 0038 00000000 		.word	.LANCHOR0
 117              		.cfi_endproc
 118              	.LFE8:
 119              		.size	queues1_setup, .-queues1_setup
 120              		.section	.text.thread2,"ax",%progbits
 121              		.align	2
 122              		.syntax unified
 123              		.arm
 124              		.fpu softvfp
 125              		.type	thread2, %function
 126              	thread2:
 127              	.LVL5:
 128              	.LFB12:
 129              		.loc 1 174 31 is_stmt 1 view -0
 130              		.cfi_startproc
 131              		@ args = 0, pretend = 0, frame = 0
 132              		@ frame_needed = 0, uses_anonymous_args = 0
 133              		.loc 1 176 3 view .LVU19
 134              		.loc 1 177 3 view .LVU20
 135 0000 C820A0E3 		mov	r2, #200
 136 0004 0010A0E3 		mov	r1, #0
 137              		.loc 1 174 31 is_stmt 0 view .LVU21
 138 0008 10402DE9 		push	{r4, lr}
 139              		.cfi_def_cfa_offset 8
 140              		.cfi_offset 4, -8
 141              		.cfi_offset 14, -4
 142              		.loc 1 177 3 view .LVU22
 143 000c 08009FE5 		ldr	r0, .L13
 144              	.LVL6:
 145              		.loc 1 177 3 view .LVU23
 146 0010 FEFFFFEB 		bl	chOQPutTimeout
 147              	.LVL7:
 148              		.loc 1 178 3 is_stmt 1 view .LVU24
 149              		.loc 1 179 1 is_stmt 0 view .LVU25
 150 0014 0000A0E3 		mov	r0, #0
 151 0018 1080BDE8 		pop	{r4, pc}
 152              	.L14:
 153              		.align	2
 154              	.L13:
 155 001c 00000000 		.word	.LANCHOR1
 156              		.cfi_endproc
 157              	.LFE12:
 158              		.size	thread2, .-thread2
 159              		.section	.text.queues2_setup,"ax",%progbits
 160              		.align	2
 161              		.syntax unified
 162              		.arm
 163              		.fpu softvfp
 164              		.type	queues2_setup, %function
 165              	queues2_setup:
 166              	.LFB11:
 167              		.loc 1 169 33 is_stmt 1 view -0
 168              		.cfi_startproc
 169              		@ args = 0, pretend = 0, frame = 0
 170              		@ frame_needed = 0, uses_anonymous_args = 0
 171              		.loc 1 171 3 view .LVU27
ARM GAS  /tmp/ccLBGe59.s 			page 4


 172 0000 0020A0E3 		mov	r2, #0
 173              		.loc 1 169 33 is_stmt 0 view .LVU28
 174 0004 04E02DE5 		str	lr, [sp, #-4]!
 175              		.cfi_def_cfa_offset 4
 176              		.cfi_offset 14, -4
 177              		.loc 1 171 19 view .LVU29
 178 0008 20309FE5 		ldr	r3, .L17
 179              		.loc 1 169 33 view .LVU30
 180 000c 0CD04DE2 		sub	sp, sp, #12
 181              		.cfi_def_cfa_offset 16
 182              		.loc 1 171 3 view .LVU31
 183 0010 001093E5 		ldr	r1, [r3]
 184 0014 00208DE5 		str	r2, [sp]
 185 0018 14309FE5 		ldr	r3, .L17+4
 186 001c 0420A0E3 		mov	r2, #4
 187 0020 10009FE5 		ldr	r0, .L17+8
 188 0024 FEFFFFEB 		bl	chOQInit
 189              	.LVL8:
 190              		.loc 1 172 1 view .LVU32
 191 0028 0CD08DE2 		add	sp, sp, #12
 192              		.cfi_def_cfa_offset 4
 193              		@ sp needed
 194 002c 04F09DE4 		ldr	pc, [sp], #4
 195              	.L18:
 196              		.align	2
 197              	.L17:
 198 0030 00000000 		.word	wa
 199 0034 00000000 		.word	notify
 200 0038 00000000 		.word	.LANCHOR1
 201              		.cfi_endproc
 202              	.LFE11:
 203              		.size	queues2_setup, .-queues2_setup
 204              		.section	.rodata.queues1_execute.str1.4,"aMS",%progbits,1
 205              		.align	2
 206              	.LC0:
 207 0000 41424344 		.ascii	"ABCD\000"
 207      00
 208              		.section	.text.queues1_execute,"ax",%progbits
 209              		.align	2
 210              		.syntax unified
 211              		.arm
 212              		.fpu softvfp
 213              		.type	queues1_execute, %function
 214              	queues1_execute:
 215              	.LFB10:
 216              		.loc 1 94 35 is_stmt 1 view -0
 217              		.cfi_startproc
 218              		@ args = 0, pretend = 0, frame = 0
 219              		@ frame_needed = 0, uses_anonymous_args = 0
 220              		.loc 1 95 3 view .LVU34
 221              		.loc 1 96 3 view .LVU35
 222              		.loc 1 99 3 view .LVU36
 223              		.loc 1 94 35 is_stmt 0 view .LVU37
 224 0000 F0402DE9 		push	{r4, r5, r6, r7, lr}
 225              		.cfi_def_cfa_offset 20
 226              		.cfi_offset 4, -20
 227              		.cfi_offset 5, -16
ARM GAS  /tmp/ccLBGe59.s 			page 5


 228              		.cfi_offset 6, -12
 229              		.cfi_offset 7, -8
 230              		.cfi_offset 14, -4
 231 0004 0CD04DE2 		sub	sp, sp, #12
 232              		.cfi_def_cfa_offset 32
 233              		.loc 1 99 3 view .LVU38
 234              		.syntax divided
 235              	@ 99 "../test/testqueues.c" 1
 236 0008 9FF021E3 		msr     CPSR_c, #0x9F
 237              	@ 0 "" 2
 238              		.loc 1 99 3 is_stmt 1 view .LVU39
 239              		.loc 1 99 3 view .LVU40
 240              		.loc 1 99 3 view .LVU41
 241              		.arm
 242              		.syntax unified
 243 000c 40439FE5 		ldr	r4, .L37
 244 0010 0100A0E3 		mov	r0, #1
 245 0014 081094E5 		ldr	r1, [r4, #8]
 246 0018 111F6FE1 		clz	r1, r1
 247 001c A112A0E1 		lsr	r1, r1, #5
 248 0020 FEFFFFEB 		bl	_test_assert
 249              	.LVL9:
 250 0024 005050E2 		subs	r5, r0, #0
 251 0028 1700001A 		bne	.L35
 252              		.loc 1 99 3 discriminator 2 view .LVU42
 253              		.loc 1 99 3 discriminator 2 view .LVU43
 254              		.syntax divided
 255              	@ 99 "../test/testqueues.c" 1
 256 002c 1FF021E3 		msr     CPSR_c, #0x1F
 257              	@ 0 "" 2
 258              		.loc 1 99 3 discriminator 2 view .LVU44
 259              		.loc 1 99 54 discriminator 2 view .LVU45
 260              		.loc 1 102 3 discriminator 2 view .LVU46
 261              	@ 102 "../test/testqueues.c" 1
 262 0030 9FF021E3 		msr     CPSR_c, #0x9F
 263              	@ 0 "" 2
 264              		.loc 1 102 3 discriminator 2 view .LVU47
 265              		.loc 1 102 14 discriminator 2 view .LVU48
 266              		.loc 1 103 3 discriminator 2 view .LVU49
 267              	.LVL10:
 268              		.loc 1 103 15 discriminator 2 view .LVU50
 269              		.loc 1 104 5 discriminator 2 view .LVU51
 270              		.arm
 271              		.syntax unified
 272 0034 4110A0E3 		mov	r1, #65
 273 0038 0400A0E1 		mov	r0, r4
 274 003c FEFFFFEB 		bl	chIQPutI
 275              	.LVL11:
 276              		.loc 1 103 37 discriminator 2 view .LVU52
 277              		.loc 1 103 15 discriminator 2 view .LVU53
 278              		.loc 1 104 5 discriminator 2 view .LVU54
 279 0040 0400A0E1 		mov	r0, r4
 280 0044 4210A0E3 		mov	r1, #66
 281 0048 FEFFFFEB 		bl	chIQPutI
 282              	.LVL12:
 283              		.loc 1 103 37 discriminator 2 view .LVU55
 284              		.loc 1 103 15 discriminator 2 view .LVU56
ARM GAS  /tmp/ccLBGe59.s 			page 6


 285              		.loc 1 104 5 discriminator 2 view .LVU57
 286 004c 0400A0E1 		mov	r0, r4
 287 0050 4310A0E3 		mov	r1, #67
 288 0054 FEFFFFEB 		bl	chIQPutI
 289              	.LVL13:
 290              		.loc 1 103 37 discriminator 2 view .LVU58
 291              		.loc 1 103 15 discriminator 2 view .LVU59
 292              		.loc 1 104 5 discriminator 2 view .LVU60
 293 0058 0400A0E1 		mov	r0, r4
 294 005c 4410A0E3 		mov	r1, #68
 295 0060 FEFFFFEB 		bl	chIQPutI
 296              	.LVL14:
 297              		.loc 1 103 37 discriminator 2 view .LVU61
 298              		.loc 1 103 15 discriminator 2 view .LVU62
 299              		.loc 1 105 3 discriminator 2 view .LVU63
 300              		.loc 1 105 3 discriminator 2 view .LVU64
 301              		.syntax divided
 302              	@ 105 "../test/testqueues.c" 1
 303 0064 1FF021E3 		msr     CPSR_c, #0x1F
 304              	@ 0 "" 2
 305              		.loc 1 105 16 discriminator 2 view .LVU65
 306              		.loc 1 106 3 discriminator 2 view .LVU66
 307              	@ 106 "../test/testqueues.c" 1
 308 0068 9FF021E3 		msr     CPSR_c, #0x9F
 309              	@ 0 "" 2
 310              		.loc 1 106 3 discriminator 2 view .LVU67
 311              		.loc 1 106 3 discriminator 2 view .LVU68
 312              		.loc 1 106 3 discriminator 2 view .LVU69
 313              		.arm
 314              		.syntax unified
 315 006c D421C4E1 		ldrd	r2, [r4, #20]
 316 0070 030052E1 		cmp	r2, r3
 317 0074 B200000A 		beq	.L36
 318              	.L22:
 319              		.loc 1 106 3 is_stmt 0 discriminator 6 view .LVU70
 320 0078 0510A0E1 		mov	r1, r5
 321 007c 0200A0E3 		mov	r0, #2
 322 0080 FEFFFFEB 		bl	_test_assert
 323              	.LVL15:
 324 0084 001050E2 		subs	r1, r0, #0
 325 0088 0200000A 		beq	.L23
 326              	.LVL16:
 327              	.L35:
 328              	.LBB5:
 329              	.LBB6:
 330              		.loc 1 146 3 is_stmt 1 view .LVU71
 331              		.loc 1 146 3 view .LVU72
 332              		.syntax divided
 333              	@ 146 "../test/testqueues.c" 1
 334 008c 1FF021E3 		msr     CPSR_c, #0x1F
 335              	@ 0 "" 2
 336              		.loc 1 146 3 view .LVU73
 337              		.loc 1 146 3 view .LVU74
 338              		.arm
 339              		.syntax unified
 340              	.L19:
 341              	.LBE6:
ARM GAS  /tmp/ccLBGe59.s 			page 7


 342              	.LBE5:
 343              		.loc 1 151 1 is_stmt 0 view .LVU75
 344 0090 0CD08DE2 		add	sp, sp, #12
 345              		.cfi_remember_state
 346              		.cfi_def_cfa_offset 20
 347              		@ sp needed
 348 0094 F080BDE8 		pop	{r4, r5, r6, r7, pc}
 349              	.LVL17:
 350              	.L23:
 351              		.cfi_restore_state
 352              	.LBB9:
 353              	.LBI5:
 354              		.loc 1 94 13 is_stmt 1 view .LVU76
 355              	.LBB7:
 356              		.loc 1 106 3 view .LVU77
 357              		.loc 1 106 3 view .LVU78
 358              		.syntax divided
 359              	@ 106 "../test/testqueues.c" 1
 360 0098 1FF021E3 		msr     CPSR_c, #0x1F
 361              	@ 0 "" 2
 362              		.loc 1 106 3 view .LVU79
 363              		.loc 1 106 59 view .LVU80
 364              		.loc 1 107 3 view .LVU81
 365              	@ 107 "../test/testqueues.c" 1
 366 009c 9FF021E3 		msr     CPSR_c, #0x9F
 367              	@ 0 "" 2
 368              		.loc 1 107 3 view .LVU82
 369              		.loc 1 107 3 view .LVU83
 370              		.loc 1 107 3 view .LVU84
 371              		.arm
 372              		.syntax unified
 373 00a0 AC029FE5 		ldr	r0, .L37
 374 00a4 FEFFFFEB 		bl	chIQPutI
 375              	.LVL18:
 376 00a8 0010A0E1 		mov	r1, r0
 377 00ac 040071E3 		cmn	r1, #4
 378 00b0 0010A013 		movne	r1, #0
 379 00b4 0110A003 		moveq	r1, #1
 380 00b8 0300A0E3 		mov	r0, #3
 381 00bc FEFFFFEB 		bl	_test_assert
 382              	.LVL19:
 383 00c0 000050E3 		cmp	r0, #0
 384 00c4 F0FFFF1A 		bne	.L35
 385              		.loc 1 107 3 view .LVU85
 386              		.loc 1 107 3 view .LVU86
 387              		.syntax divided
 388              	@ 107 "../test/testqueues.c" 1
 389 00c8 1FF021E3 		msr     CPSR_c, #0x1F
 390              	@ 0 "" 2
 391              		.loc 1 107 3 view .LVU87
 392              		.loc 1 107 77 view .LVU88
 393              		.loc 1 110 3 view .LVU89
 394              	.LVL20:
 395              		.loc 1 110 15 view .LVU90
 396              		.loc 1 107 3 is_stmt 0 view .LVU91
 397              		.arm
 398              		.syntax unified
ARM GAS  /tmp/ccLBGe59.s 			page 8


 399 00cc 0450A0E3 		mov	r5, #4
 400              		.loc 1 111 21 view .LVU92
 401 00d0 7C629FE5 		ldr	r6, .L37
 402              	.LVL21:
 403              	.L25:
 404              		.loc 1 111 5 is_stmt 1 view .LVU93
 405              		.loc 1 111 21 is_stmt 0 view .LVU94
 406 00d4 0010E0E3 		mvn	r1, #0
 407 00d8 0600A0E1 		mov	r0, r6
 408 00dc FEFFFFEB 		bl	chIQGetTimeout
 409              	.LVL22:
 410              		.loc 1 111 5 view .LVU95
 411 00e0 7000EFE6 		uxtb	r0, r0
 412 00e4 FEFFFFEB 		bl	test_emit_token
 413              	.LVL23:
 414              		.loc 1 110 37 is_stmt 1 view .LVU96
 415              		.loc 1 110 15 view .LVU97
 416              		.loc 1 110 3 is_stmt 0 view .LVU98
 417 00e8 015055E2 		subs	r5, r5, #1
 418              	.LVL24:
 419              		.loc 1 110 3 view .LVU99
 420 00ec F8FFFF1A 		bne	.L25
 421              		.loc 1 112 3 is_stmt 1 view .LVU100
 422              		.syntax divided
 423              	@ 112 "../test/testqueues.c" 1
 424 00f0 9FF021E3 		msr     CPSR_c, #0x9F
 425              	@ 0 "" 2
 426              		.loc 1 112 3 view .LVU101
 427              		.loc 1 112 3 view .LVU102
 428              		.loc 1 112 3 view .LVU103
 429              		.arm
 430              		.syntax unified
 431 00f4 081094E5 		ldr	r1, [r4, #8]
 432 00f8 0400A0E3 		mov	r0, #4
 433 00fc 111F6FE1 		clz	r1, r1
 434 0100 A112A0E1 		lsr	r1, r1, #5
 435 0104 FEFFFFEB 		bl	_test_assert
 436              	.LVL25:
 437 0108 000050E3 		cmp	r0, #0
 438 010c DEFFFF1A 		bne	.L35
 439              		.loc 1 112 3 view .LVU104
 440              		.loc 1 112 3 view .LVU105
 441              		.syntax divided
 442              	@ 112 "../test/testqueues.c" 1
 443 0110 1FF021E3 		msr     CPSR_c, #0x1F
 444              	@ 0 "" 2
 445              		.loc 1 112 3 view .LVU106
 446              		.loc 1 112 55 view .LVU107
 447              		.loc 1 113 3 view .LVU108
 448              		.arm
 449              		.syntax unified
 450 0114 0500A0E3 		mov	r0, #5
 451 0118 38129FE5 		ldr	r1, .L37+4
 452 011c FEFFFFEB 		bl	_test_assert_sequence
 453              	.LVL26:
 454 0120 000050E3 		cmp	r0, #0
 455 0124 D9FFFF1A 		bne	.L19
ARM GAS  /tmp/ccLBGe59.s 			page 9


 456              		.loc 1 113 34 view .LVU109
 457              		.loc 1 116 3 view .LVU110
 458              		.syntax divided
 459              	@ 116 "../test/testqueues.c" 1
 460 0128 9FF021E3 		msr     CPSR_c, #0x9F
 461              	@ 0 "" 2
 462              		.loc 1 116 3 view .LVU111
 463              		.loc 1 116 14 view .LVU112
 464              		.loc 1 117 3 view .LVU113
 465              	.LVL27:
 466              		.loc 1 117 15 view .LVU114
 467              		.loc 1 118 5 view .LVU115
 468              		.arm
 469              		.syntax unified
 470 012c 4110A0E3 		mov	r1, #65
 471 0130 1C029FE5 		ldr	r0, .L37
 472 0134 FEFFFFEB 		bl	chIQPutI
 473              	.LVL28:
 474              		.loc 1 117 37 view .LVU116
 475              		.loc 1 117 15 view .LVU117
 476              		.loc 1 118 5 view .LVU118
 477 0138 4210A0E3 		mov	r1, #66
 478 013c 10029FE5 		ldr	r0, .L37
 479 0140 FEFFFFEB 		bl	chIQPutI
 480              	.LVL29:
 481              		.loc 1 117 37 view .LVU119
 482              		.loc 1 117 15 view .LVU120
 483              		.loc 1 118 5 view .LVU121
 484 0144 4310A0E3 		mov	r1, #67
 485 0148 04029FE5 		ldr	r0, .L37
 486 014c FEFFFFEB 		bl	chIQPutI
 487              	.LVL30:
 488              		.loc 1 117 37 view .LVU122
 489              		.loc 1 117 15 view .LVU123
 490              		.loc 1 118 5 view .LVU124
 491 0150 4410A0E3 		mov	r1, #68
 492 0154 F8019FE5 		ldr	r0, .L37
 493 0158 FEFFFFEB 		bl	chIQPutI
 494              	.LVL31:
 495              		.loc 1 117 37 view .LVU125
 496              		.loc 1 117 15 view .LVU126
 497              		.loc 1 119 3 view .LVU127
 498              		.loc 1 119 3 view .LVU128
 499              		.syntax divided
 500              	@ 119 "../test/testqueues.c" 1
 501 015c 1FF021E3 		msr     CPSR_c, #0x1F
 502              	@ 0 "" 2
 503              		.loc 1 119 16 view .LVU129
 504              		.loc 1 122 3 view .LVU130
 505              		.loc 1 122 30 is_stmt 0 view .LVU131
 506              		.arm
 507              		.syntax unified
 508 0160 F4719FE5 		ldr	r7, .L37+8
 509              		.loc 1 122 7 view .LVU132
 510 0164 0530A0E1 		mov	r3, r5
 511 0168 046097E5 		ldr	r6, [r7, #4]
 512 016c 0820A0E3 		mov	r2, #8
ARM GAS  /tmp/ccLBGe59.s 			page 10


 513 0170 0610A0E1 		mov	r1, r6
 514 0174 D8019FE5 		ldr	r0, .L37
 515 0178 FEFFFFEB 		bl	chIQReadTimeout
 516              	.LVL32:
 517 017c 0010A0E1 		mov	r1, r0
 518              	.LVL33:
 519              		.loc 1 123 3 is_stmt 1 view .LVU133
 520 0180 041041E2 		sub	r1, r1, #4
 521 0184 111F6FE1 		clz	r1, r1
 522 0188 0600A0E3 		mov	r0, #6
 523              	.LVL34:
 524              		.loc 1 123 3 is_stmt 0 view .LVU134
 525 018c A112A0E1 		lsr	r1, r1, #5
 526 0190 FEFFFFEB 		bl	_test_assert
 527              	.LVL35:
 528 0194 000050E3 		cmp	r0, #0
 529 0198 BCFFFF1A 		bne	.L19
 530              		.loc 1 123 63 is_stmt 1 view .LVU135
 531              		.loc 1 124 3 view .LVU136
 532              		.syntax divided
 533              	@ 124 "../test/testqueues.c" 1
 534 019c 9FF021E3 		msr     CPSR_c, #0x9F
 535              	@ 0 "" 2
 536              		.loc 1 124 3 view .LVU137
 537              		.loc 1 124 3 view .LVU138
 538              		.loc 1 124 3 view .LVU139
 539              		.arm
 540              		.syntax unified
 541 01a0 081094E5 		ldr	r1, [r4, #8]
 542 01a4 0700A0E3 		mov	r0, #7
 543 01a8 111F6FE1 		clz	r1, r1
 544 01ac A112A0E1 		lsr	r1, r1, #5
 545 01b0 FEFFFFEB 		bl	_test_assert
 546              	.LVL36:
 547 01b4 000050E3 		cmp	r0, #0
 548 01b8 B3FFFF1A 		bne	.L35
 549              		.loc 1 124 3 view .LVU140
 550              		.loc 1 124 3 view .LVU141
 551              		.syntax divided
 552              	@ 124 "../test/testqueues.c" 1
 553 01bc 1FF021E3 		msr     CPSR_c, #0x1F
 554              	@ 0 "" 2
 555              		.loc 1 124 3 view .LVU142
 556              		.loc 1 124 55 view .LVU143
 557              		.loc 1 127 3 view .LVU144
 558              	@ 127 "../test/testqueues.c" 1
 559 01c0 9FF021E3 		msr     CPSR_c, #0x9F
 560              	@ 0 "" 2
 561              		.loc 1 127 3 view .LVU145
 562              		.loc 1 127 14 view .LVU146
 563              		.loc 1 128 3 view .LVU147
 564              	.LVL37:
 565              		.loc 1 128 15 view .LVU148
 566              		.loc 1 129 5 view .LVU149
 567              		.arm
 568              		.syntax unified
 569 01c4 4110A0E3 		mov	r1, #65
ARM GAS  /tmp/ccLBGe59.s 			page 11


 570 01c8 84019FE5 		ldr	r0, .L37
 571 01cc FEFFFFEB 		bl	chIQPutI
 572              	.LVL38:
 573              		.loc 1 128 37 view .LVU150
 574              		.loc 1 128 15 view .LVU151
 575              		.loc 1 129 5 view .LVU152
 576 01d0 4210A0E3 		mov	r1, #66
 577 01d4 78019FE5 		ldr	r0, .L37
 578 01d8 FEFFFFEB 		bl	chIQPutI
 579              	.LVL39:
 580              		.loc 1 128 37 view .LVU153
 581              		.loc 1 128 15 view .LVU154
 582              		.loc 1 129 5 view .LVU155
 583 01dc 4310A0E3 		mov	r1, #67
 584 01e0 6C019FE5 		ldr	r0, .L37
 585 01e4 FEFFFFEB 		bl	chIQPutI
 586              	.LVL40:
 587              		.loc 1 128 37 view .LVU156
 588              		.loc 1 128 15 view .LVU157
 589              		.loc 1 129 5 view .LVU158
 590 01e8 4410A0E3 		mov	r1, #68
 591 01ec 60019FE5 		ldr	r0, .L37
 592 01f0 FEFFFFEB 		bl	chIQPutI
 593              	.LVL41:
 594              		.loc 1 128 37 view .LVU159
 595              		.loc 1 128 15 view .LVU160
 596              		.loc 1 130 3 view .LVU161
 597              		.loc 1 130 3 view .LVU162
 598              		.syntax divided
 599              	@ 130 "../test/testqueues.c" 1
 600 01f4 1FF021E3 		msr     CPSR_c, #0x1F
 601              	@ 0 "" 2
 602              		.loc 1 130 16 view .LVU163
 603              		.loc 1 133 3 view .LVU164
 604              		.loc 1 133 7 is_stmt 0 view .LVU165
 605              		.arm
 606              		.syntax unified
 607 01f8 0220A0E3 		mov	r2, #2
 608 01fc 0530A0E1 		mov	r3, r5
 609 0200 0610A0E1 		mov	r1, r6
 610 0204 48019FE5 		ldr	r0, .L37
 611 0208 FEFFFFEB 		bl	chIQReadTimeout
 612              	.LVL42:
 613 020c 0010A0E1 		mov	r1, r0
 614              	.LVL43:
 615              		.loc 1 134 3 is_stmt 1 view .LVU166
 616 0210 021041E2 		sub	r1, r1, #2
 617 0214 111F6FE1 		clz	r1, r1
 618 0218 0800A0E3 		mov	r0, #8
 619              	.LVL44:
 620              		.loc 1 134 3 is_stmt 0 view .LVU167
 621 021c A112A0E1 		lsr	r1, r1, #5
 622 0220 FEFFFFEB 		bl	_test_assert
 623              	.LVL45:
 624 0224 000050E3 		cmp	r0, #0
 625 0228 98FFFF1A 		bne	.L19
 626              		.loc 1 134 67 is_stmt 1 view .LVU168
ARM GAS  /tmp/ccLBGe59.s 			page 12


 627              		.loc 1 135 3 view .LVU169
 628              		.loc 1 135 7 is_stmt 0 view .LVU170
 629 022c 0610A0E1 		mov	r1, r6
 630 0230 0530A0E1 		mov	r3, r5
 631 0234 0220A0E3 		mov	r2, #2
 632 0238 14019FE5 		ldr	r0, .L37
 633 023c FEFFFFEB 		bl	chIQReadTimeout
 634              	.LVL46:
 635 0240 0010A0E1 		mov	r1, r0
 636              	.LVL47:
 637              		.loc 1 136 3 is_stmt 1 view .LVU171
 638 0244 021041E2 		sub	r1, r1, #2
 639 0248 111F6FE1 		clz	r1, r1
 640 024c 0900A0E3 		mov	r0, #9
 641              	.LVL48:
 642              		.loc 1 136 3 is_stmt 0 view .LVU172
 643 0250 A112A0E1 		lsr	r1, r1, #5
 644 0254 FEFFFFEB 		bl	_test_assert
 645              	.LVL49:
 646 0258 000050E3 		cmp	r0, #0
 647 025c 8BFFFF1A 		bne	.L19
 648              		.loc 1 136 67 is_stmt 1 view .LVU173
 649              		.loc 1 137 3 view .LVU174
 650              		.syntax divided
 651              	@ 137 "../test/testqueues.c" 1
 652 0260 9FF021E3 		msr     CPSR_c, #0x9F
 653              	@ 0 "" 2
 654              		.loc 1 137 3 view .LVU175
 655              		.loc 1 137 3 view .LVU176
 656              		.loc 1 137 3 view .LVU177
 657              		.arm
 658              		.syntax unified
 659 0264 081094E5 		ldr	r1, [r4, #8]
 660 0268 0A00A0E3 		mov	r0, #10
 661 026c 111F6FE1 		clz	r1, r1
 662 0270 A112A0E1 		lsr	r1, r1, #5
 663 0274 FEFFFFEB 		bl	_test_assert
 664              	.LVL50:
 665 0278 000050E3 		cmp	r0, #0
 666 027c 82FFFF1A 		bne	.L35
 667              		.loc 1 137 3 view .LVU178
 668              		.loc 1 137 3 view .LVU179
 669              		.syntax divided
 670              	@ 137 "../test/testqueues.c" 1
 671 0280 1FF021E3 		msr     CPSR_c, #0x1F
 672              	@ 0 "" 2
 673              		.loc 1 137 3 view .LVU180
 674              		.loc 1 137 56 view .LVU181
 675              		.loc 1 140 3 view .LVU182
 676              	@ 140 "../test/testqueues.c" 1
 677 0284 9FF021E3 		msr     CPSR_c, #0x9F
 678              	@ 0 "" 2
 679              		.loc 1 140 3 view .LVU183
 680              		.loc 1 140 14 view .LVU184
 681              		.loc 1 141 3 view .LVU185
 682              		.arm
 683              		.syntax unified
ARM GAS  /tmp/ccLBGe59.s 			page 13


 684 0288 C4009FE5 		ldr	r0, .L37
 685 028c 0510A0E1 		mov	r1, r5
 686 0290 FEFFFFEB 		bl	chIQPutI
 687              	.LVL51:
 688              		.loc 1 142 3 view .LVU186
 689 0294 B8009FE5 		ldr	r0, .L37
 690 0298 FEFFFFEB 		bl	chIQResetI
 691              	.LVL52:
 692              		.loc 1 143 3 view .LVU187
 693              		.loc 1 143 3 view .LVU188
 694              		.syntax divided
 695              	@ 143 "../test/testqueues.c" 1
 696 029c 1FF021E3 		msr     CPSR_c, #0x1F
 697              	@ 0 "" 2
 698              		.loc 1 143 16 view .LVU189
 699              		.loc 1 144 3 view .LVU190
 700              	@ 144 "../test/testqueues.c" 1
 701 02a0 9FF021E3 		msr     CPSR_c, #0x9F
 702              	@ 0 "" 2
 703              		.loc 1 144 3 view .LVU191
 704              		.loc 1 144 3 view .LVU192
 705              		.loc 1 144 3 view .LVU193
 706              		.arm
 707              		.syntax unified
 708 02a4 081094E5 		ldr	r1, [r4, #8]
 709 02a8 0B00A0E3 		mov	r0, #11
 710 02ac 111F6FE1 		clz	r1, r1
 711 02b0 A112A0E1 		lsr	r1, r1, #5
 712 02b4 FEFFFFEB 		bl	_test_assert
 713              	.LVL53:
 714 02b8 000050E3 		cmp	r0, #0
 715 02bc 72FFFF1A 		bne	.L35
 716              		.loc 1 144 3 view .LVU194
 717              		.loc 1 144 3 view .LVU195
 718              		.syntax divided
 719              	@ 144 "../test/testqueues.c" 1
 720 02c0 1FF021E3 		msr     CPSR_c, #0x1F
 721              	@ 0 "" 2
 722              		.loc 1 144 3 view .LVU196
 723              		.loc 1 144 61 view .LVU197
 724              		.loc 1 145 3 view .LVU198
 725              		.loc 1 145 50 is_stmt 0 view .LVU199
 726              		.arm
 727              		.syntax unified
 728 02c4 94309FE5 		ldr	r3, .L37+12
 729              		.loc 1 145 16 view .LVU200
 730 02c8 461FA0E3 		mov	r1, #280
 731              		.loc 1 145 50 view .LVU201
 732 02cc 182093E5 		ldr	r2, [r3, #24]
 733              		.loc 1 145 16 view .LVU202
 734 02d0 000097E5 		ldr	r0, [r7]
 735 02d4 082092E5 		ldr	r2, [r2, #8]
 736 02d8 84309FE5 		ldr	r3, .L37+16
 737 02dc 00508DE5 		str	r5, [sp]
 738 02e0 012082E2 		add	r2, r2, #1
 739 02e4 FEFFFFEB 		bl	chThdCreateStatic
 740              	.LVL54:
ARM GAS  /tmp/ccLBGe59.s 			page 14


 741              		.loc 1 145 14 view .LVU203
 742 02e8 78309FE5 		ldr	r3, .L37+20
 743 02ec 000083E5 		str	r0, [r3]
 744              		.loc 1 146 3 is_stmt 1 view .LVU204
 745              		.syntax divided
 746              	@ 146 "../test/testqueues.c" 1
 747 02f0 9FF021E3 		msr     CPSR_c, #0x9F
 748              	@ 0 "" 2
 749              		.loc 1 146 3 view .LVU205
 750              		.loc 1 146 3 view .LVU206
 751              		.loc 1 146 3 view .LVU207
 752              		.arm
 753              		.syntax unified
 754 02f4 081094E5 		ldr	r1, [r4, #8]
 755 02f8 0C00A0E3 		mov	r0, #12
 756 02fc 111F6FE1 		clz	r1, r1
 757 0300 A112A0E1 		lsr	r1, r1, #5
 758 0304 FEFFFFEB 		bl	_test_assert
 759              	.LVL55:
 760 0308 000050E3 		cmp	r0, #0
 761 030c 5EFFFF1A 		bne	.L35
 762              		.loc 1 146 3 view .LVU208
 763              		.loc 1 146 3 view .LVU209
 764              		.syntax divided
 765              	@ 146 "../test/testqueues.c" 1
 766 0310 1FF021E3 		msr     CPSR_c, #0x1F
 767              	@ 0 "" 2
 768              		.loc 1 146 3 view .LVU210
 769              		.loc 1 146 60 view .LVU211
 770              		.loc 1 147 3 view .LVU212
 771              		.arm
 772              		.syntax unified
 773 0314 FEFFFFEB 		bl	test_wait_threads
 774              	.LVL56:
 775              		.loc 1 150 3 view .LVU213
 776 0318 0A10A0E3 		mov	r1, #10
 777 031c 30009FE5 		ldr	r0, .L37
 778 0320 FEFFFFEB 		bl	chIQGetTimeout
 779              	.LVL57:
 780 0324 0010A0E1 		mov	r1, r0
 781 0328 010071E3 		cmn	r1, #1
 782 032c 0D00A0E3 		mov	r0, #13
 783 0330 0010A013 		movne	r1, #0
 784 0334 0110A003 		moveq	r1, #1
 785              	.LBE7:
 786              	.LBE9:
 787              		.loc 1 151 1 is_stmt 0 view .LVU214
 788 0338 0CD08DE2 		add	sp, sp, #12
 789              		.cfi_remember_state
 790              		.cfi_def_cfa_offset 20
 791              		@ sp needed
 792 033c F040BDE8 		pop	{r4, r5, r6, r7, lr}
 793              		.cfi_restore 14
 794              		.cfi_restore 7
 795              		.cfi_restore 6
 796              		.cfi_restore 5
 797              		.cfi_restore 4
ARM GAS  /tmp/ccLBGe59.s 			page 15


 798              		.cfi_def_cfa_offset 0
 799              	.LBB10:
 800              	.LBB8:
 801              		.loc 1 150 3 view .LVU215
 802 0340 FEFFFFEA 		b	_test_assert
 803              	.LVL58:
 804              	.L36:
 805              		.cfi_restore_state
 806              		.loc 1 150 3 view .LVU216
 807              	.LBE8:
 808              	.LBE10:
 809              		.loc 1 106 3 discriminator 1 view .LVU217
 810 0344 080094E5 		ldr	r0, [r4, #8]
 811 0348 005050E2 		subs	r5, r0, #0
 812 034c 0150A013 		movne	r5, #1
 813 0350 48FFFFEA 		b	.L22
 814              	.L38:
 815              		.align	2
 816              	.L37:
 817 0354 00000000 		.word	.LANCHOR0
 818 0358 00000000 		.word	.LC0
 819 035c 00000000 		.word	wa
 820 0360 00000000 		.word	rlist
 821 0364 00000000 		.word	thread1
 822 0368 00000000 		.word	threads
 823              		.cfi_endproc
 824              	.LFE10:
 825              		.size	queues1_execute, .-queues1_execute
 826              		.section	.text.queues2_execute,"ax",%progbits
 827              		.align	2
 828              		.syntax unified
 829              		.arm
 830              		.fpu softvfp
 831              		.type	queues2_execute, %function
 832              	queues2_execute:
 833              	.LFB13:
 834              		.loc 1 181 35 is_stmt 1 view -0
 835              		.cfi_startproc
 836              		@ args = 0, pretend = 0, frame = 0
 837              		@ frame_needed = 0, uses_anonymous_args = 0
 838              		.loc 1 182 3 view .LVU219
 839              		.loc 1 183 3 view .LVU220
 840              		.loc 1 186 3 view .LVU221
 841              		.loc 1 181 35 is_stmt 0 view .LVU222
 842 0000 F0402DE9 		push	{r4, r5, r6, r7, lr}
 843              		.cfi_def_cfa_offset 20
 844              		.cfi_offset 4, -20
 845              		.cfi_offset 5, -16
 846              		.cfi_offset 6, -12
 847              		.cfi_offset 7, -8
 848              		.cfi_offset 14, -4
 849 0004 0CD04DE2 		sub	sp, sp, #12
 850              		.cfi_def_cfa_offset 32
 851              		.loc 1 186 3 view .LVU223
 852              		.syntax divided
 853              	@ 186 "../test/testqueues.c" 1
 854 0008 9FF021E3 		msr     CPSR_c, #0x9F
ARM GAS  /tmp/ccLBGe59.s 			page 16


 855              	@ 0 "" 2
 856              		.loc 1 186 3 is_stmt 1 view .LVU224
 857              		.loc 1 186 3 view .LVU225
 858              		.loc 1 186 3 view .LVU226
 859              		.arm
 860              		.syntax unified
 861 000c E4529FE5 		ldr	r5, .L62
 862 0010 D421C5E1 		ldrd	r2, [r5, #20]
 863 0014 030052E1 		cmp	r2, r3
 864 0018 0010A013 		movne	r1, #0
 865 001c AD00000A 		beq	.L60
 866              	.L40:
 867              		.loc 1 186 3 is_stmt 0 discriminator 6 view .LVU227
 868 0020 0100A0E3 		mov	r0, #1
 869 0024 FEFFFFEB 		bl	_test_assert
 870              	.LVL59:
 871 0028 000050E3 		cmp	r0, #0
 872 002c A600001A 		bne	.L59
 873              		.loc 1 186 3 is_stmt 1 discriminator 8 view .LVU228
 874              		.loc 1 186 3 discriminator 8 view .LVU229
 875              		.syntax divided
 876              	@ 186 "../test/testqueues.c" 1
 877 0030 1FF021E3 		msr     CPSR_c, #0x1F
 878              	@ 0 "" 2
 879              		.loc 1 186 3 discriminator 8 view .LVU230
 880              		.loc 1 186 54 discriminator 8 view .LVU231
 881              		.loc 1 189 3 discriminator 8 view .LVU232
 882              	.LVL60:
 883              		.loc 1 189 15 discriminator 8 view .LVU233
 884              		.loc 1 186 3 is_stmt 0 discriminator 8 view .LVU234
 885              		.arm
 886              		.syntax unified
 887 0034 4140A0E3 		mov	r4, #65
 888              		.loc 1 190 5 discriminator 8 view .LVU235
 889 0038 B8629FE5 		ldr	r6, .L62
 890              	.LVL61:
 891              	.L43:
 892              		.loc 1 190 5 is_stmt 1 discriminator 3 view .LVU236
 893 003c 0410A0E1 		mov	r1, r4
 894 0040 014084E2 		add	r4, r4, #1
 895 0044 0020E0E3 		mvn	r2, #0
 896 0048 0600A0E1 		mov	r0, r6
 897 004c 7440EFE6 		uxtb	r4, r4
 898 0050 FEFFFFEB 		bl	chOQPutTimeout
 899              	.LVL62:
 900              		.loc 1 189 37 discriminator 3 view .LVU237
 901              		.loc 1 189 15 discriminator 3 view .LVU238
 902              		.loc 1 189 3 is_stmt 0 discriminator 3 view .LVU239
 903 0054 450054E3 		cmp	r4, #69
 904 0058 F7FFFF1A 		bne	.L43
 905              		.loc 1 191 3 is_stmt 1 view .LVU240
 906              		.syntax divided
 907              	@ 191 "../test/testqueues.c" 1
 908 005c 9FF021E3 		msr     CPSR_c, #0x9F
 909              	@ 0 "" 2
 910              		.loc 1 191 3 view .LVU241
 911              		.loc 1 191 3 view .LVU242
ARM GAS  /tmp/ccLBGe59.s 			page 17


 912              		.loc 1 191 3 view .LVU243
 913              		.arm
 914              		.syntax unified
 915 0060 081095E5 		ldr	r1, [r5, #8]
 916 0064 0200A0E3 		mov	r0, #2
 917 0068 111F6FE1 		clz	r1, r1
 918 006c A112A0E1 		lsr	r1, r1, #5
 919 0070 FEFFFFEB 		bl	_test_assert
 920              	.LVL63:
 921 0074 006050E2 		subs	r6, r0, #0
 922 0078 9300001A 		bne	.L59
 923              	.LBB14:
 924              	.LBI14:
 925              		.loc 1 181 13 view .LVU244
 926              	.LBB15:
 927              		.loc 1 191 3 view .LVU245
 928              		.loc 1 191 3 view .LVU246
 929              		.syntax divided
 930              	@ 191 "../test/testqueues.c" 1
 931 007c 1FF021E3 		msr     CPSR_c, #0x1F
 932              	@ 0 "" 2
 933              		.loc 1 191 3 view .LVU247
 934              		.loc 1 191 59 view .LVU248
 935              		.loc 1 194 3 view .LVU249
 936              	.LVL64:
 937              		.loc 1 194 15 view .LVU250
 938              		.loc 1 191 3 is_stmt 0 view .LVU251
 939              		.arm
 940              		.syntax unified
 941 0080 0440A0E3 		mov	r4, #4
 942              	.LBB16:
 943              		.loc 1 198 9 view .LVU252
 944 0084 6C729FE5 		ldr	r7, .L62
 945              	.LVL65:
 946              	.L45:
 947              		.loc 1 195 5 is_stmt 1 view .LVU253
 948              		.loc 1 197 5 view .LVU254
 949              		.syntax divided
 950              	@ 197 "../test/testqueues.c" 1
 951 0088 9FF021E3 		msr     CPSR_c, #0x9F
 952              	@ 0 "" 2
 953              		.loc 1 197 5 view .LVU255
 954              		.loc 1 197 16 view .LVU256
 955              		.loc 1 198 5 view .LVU257
 956              		.loc 1 198 9 is_stmt 0 view .LVU258
 957              		.arm
 958              		.syntax unified
 959 008c 0700A0E1 		mov	r0, r7
 960 0090 FEFFFFEB 		bl	chOQGetI
 961              	.LVL66:
 962              		.loc 1 199 5 is_stmt 1 view .LVU259
 963              		.loc 1 199 5 view .LVU260
 964              		.syntax divided
 965              	@ 199 "../test/testqueues.c" 1
 966 0094 1FF021E3 		msr     CPSR_c, #0x1F
 967              	@ 0 "" 2
 968              		.loc 1 199 18 view .LVU261
ARM GAS  /tmp/ccLBGe59.s 			page 18


 969              		.loc 1 200 5 view .LVU262
 970              		.arm
 971              		.syntax unified
 972 0098 7000EFE6 		uxtb	r0, r0
 973              		.loc 1 200 5 is_stmt 0 view .LVU263
 974 009c FEFFFFEB 		bl	test_emit_token
 975              	.LVL67:
 976              		.loc 1 200 5 view .LVU264
 977              	.LBE16:
 978              		.loc 1 194 37 is_stmt 1 view .LVU265
 979              		.loc 1 194 15 view .LVU266
 980              		.loc 1 194 3 is_stmt 0 view .LVU267
 981 00a0 014054E2 		subs	r4, r4, #1
 982              	.LVL68:
 983              		.loc 1 194 3 view .LVU268
 984 00a4 F7FFFF1A 		bne	.L45
 985              		.loc 1 202 3 is_stmt 1 view .LVU269
 986              		.syntax divided
 987              	@ 202 "../test/testqueues.c" 1
 988 00a8 9FF021E3 		msr     CPSR_c, #0x9F
 989              	@ 0 "" 2
 990              		.loc 1 202 3 view .LVU270
 991              		.loc 1 202 3 view .LVU271
 992              		.loc 1 202 3 view .LVU272
 993              		.arm
 994              		.syntax unified
 995 00ac D421C5E1 		ldrd	r2, [r5, #20]
 996 00b0 030052E1 		cmp	r2, r3
 997 00b4 8B00000A 		beq	.L61
 998              	.L46:
 999 00b8 0610A0E1 		mov	r1, r6
 1000 00bc 0300A0E3 		mov	r0, #3
 1001 00c0 FEFFFFEB 		bl	_test_assert
 1002              	.LVL69:
 1003 00c4 000050E3 		cmp	r0, #0
 1004 00c8 7F00001A 		bne	.L59
 1005              		.loc 1 202 3 view .LVU273
 1006              		.loc 1 202 3 view .LVU274
 1007              		.syntax divided
 1008              	@ 202 "../test/testqueues.c" 1
 1009 00cc 1FF021E3 		msr     CPSR_c, #0x1F
 1010              	@ 0 "" 2
 1011              		.loc 1 202 3 view .LVU275
 1012              		.loc 1 202 55 view .LVU276
 1013              		.loc 1 203 3 view .LVU277
 1014              		.arm
 1015              		.syntax unified
 1016 00d0 0400A0E3 		mov	r0, #4
 1017 00d4 20129FE5 		ldr	r1, .L62+4
 1018 00d8 FEFFFFEB 		bl	_test_assert_sequence
 1019              	.LVL70:
 1020 00dc 000050E3 		cmp	r0, #0
 1021 00e0 7A00001A 		bne	.L39
 1022              		.loc 1 203 34 view .LVU278
 1023              		.loc 1 204 3 view .LVU279
 1024              		.syntax divided
 1025              	@ 204 "../test/testqueues.c" 1
ARM GAS  /tmp/ccLBGe59.s 			page 19


 1026 00e4 9FF021E3 		msr     CPSR_c, #0x9F
 1027              	@ 0 "" 2
 1028              		.loc 1 204 3 view .LVU280
 1029              		.loc 1 204 3 view .LVU281
 1030              		.loc 1 204 3 view .LVU282
 1031              		.arm
 1032              		.syntax unified
 1033 00e8 08029FE5 		ldr	r0, .L62
 1034 00ec FEFFFFEB 		bl	chOQGetI
 1035              	.LVL71:
 1036 00f0 0010A0E1 		mov	r1, r0
 1037 00f4 030071E3 		cmn	r1, #3
 1038 00f8 0010A013 		movne	r1, #0
 1039 00fc 0110A003 		moveq	r1, #1
 1040 0100 0500A0E3 		mov	r0, #5
 1041 0104 FEFFFFEB 		bl	_test_assert
 1042              	.LVL72:
 1043 0108 003050E2 		subs	r3, r0, #0
 1044 010c 6E00001A 		bne	.L59
 1045              		.loc 1 204 3 view .LVU283
 1046              		.loc 1 204 3 view .LVU284
 1047              		.syntax divided
 1048              	@ 204 "../test/testqueues.c" 1
 1049 0110 1FF021E3 		msr     CPSR_c, #0x1F
 1050              	@ 0 "" 2
 1051              		.loc 1 204 3 view .LVU285
 1052              		.loc 1 204 76 view .LVU286
 1053              		.loc 1 207 3 view .LVU287
 1054              		.loc 1 207 31 is_stmt 0 view .LVU288
 1055              		.arm
 1056              		.syntax unified
 1057 0114 E4419FE5 		ldr	r4, .L62+8
 1058              	.LVL73:
 1059              		.loc 1 207 7 view .LVU289
 1060 0118 0820A0E3 		mov	r2, #8
 1061 011c 046094E5 		ldr	r6, [r4, #4]
 1062 0120 D0019FE5 		ldr	r0, .L62
 1063 0124 0610A0E1 		mov	r1, r6
 1064 0128 FEFFFFEB 		bl	chOQWriteTimeout
 1065              	.LVL74:
 1066 012c 0010A0E1 		mov	r1, r0
 1067              	.LVL75:
 1068              		.loc 1 208 3 is_stmt 1 view .LVU290
 1069 0130 041041E2 		sub	r1, r1, #4
 1070 0134 111F6FE1 		clz	r1, r1
 1071 0138 0600A0E3 		mov	r0, #6
 1072              	.LVL76:
 1073              		.loc 1 208 3 is_stmt 0 view .LVU291
 1074 013c A112A0E1 		lsr	r1, r1, #5
 1075 0140 FEFFFFEB 		bl	_test_assert
 1076              	.LVL77:
 1077 0144 000050E3 		cmp	r0, #0
 1078 0148 6000001A 		bne	.L39
 1079              		.loc 1 208 63 is_stmt 1 view .LVU292
 1080              		.loc 1 209 3 view .LVU293
 1081              		.syntax divided
 1082              	@ 209 "../test/testqueues.c" 1
ARM GAS  /tmp/ccLBGe59.s 			page 20


 1083 014c 9FF021E3 		msr     CPSR_c, #0x9F
 1084              	@ 0 "" 2
 1085              		.loc 1 209 3 view .LVU294
 1086              		.loc 1 209 3 view .LVU295
 1087              		.loc 1 209 3 view .LVU296
 1088              		.arm
 1089              		.syntax unified
 1090 0150 081095E5 		ldr	r1, [r5, #8]
 1091 0154 0700A0E3 		mov	r0, #7
 1092 0158 111F6FE1 		clz	r1, r1
 1093 015c A112A0E1 		lsr	r1, r1, #5
 1094 0160 FEFFFFEB 		bl	_test_assert
 1095              	.LVL78:
 1096 0164 001050E2 		subs	r1, r0, #0
 1097 0168 5700001A 		bne	.L59
 1098              		.loc 1 209 3 view .LVU297
 1099              		.loc 1 209 3 view .LVU298
 1100              		.syntax divided
 1101              	@ 209 "../test/testqueues.c" 1
 1102 016c 1FF021E3 		msr     CPSR_c, #0x1F
 1103              	@ 0 "" 2
 1104              		.loc 1 209 3 view .LVU299
 1105              		.loc 1 209 52 view .LVU300
 1106              		.loc 1 210 3 view .LVU301
 1107              		.loc 1 210 50 is_stmt 0 view .LVU302
 1108              		.arm
 1109              		.syntax unified
 1110 0170 8C319FE5 		ldr	r3, .L62+12
 1111              		.loc 1 210 16 view .LVU303
 1112 0174 000094E5 		ldr	r0, [r4]
 1113              		.loc 1 210 50 view .LVU304
 1114 0178 182093E5 		ldr	r2, [r3, #24]
 1115              		.loc 1 210 16 view .LVU305
 1116 017c 84319FE5 		ldr	r3, .L62+16
 1117 0180 082092E5 		ldr	r2, [r2, #8]
 1118 0184 00108DE5 		str	r1, [sp]
 1119 0188 012082E2 		add	r2, r2, #1
 1120 018c 461FA0E3 		mov	r1, #280
 1121 0190 FEFFFFEB 		bl	chThdCreateStatic
 1122              	.LVL79:
 1123              		.loc 1 210 14 view .LVU306
 1124 0194 70319FE5 		ldr	r3, .L62+20
 1125 0198 000083E5 		str	r0, [r3]
 1126              		.loc 1 211 3 is_stmt 1 view .LVU307
 1127              		.syntax divided
 1128              	@ 211 "../test/testqueues.c" 1
 1129 019c 9FF021E3 		msr     CPSR_c, #0x9F
 1130              	@ 0 "" 2
 1131              		.loc 1 211 3 view .LVU308
 1132              		.loc 1 211 3 view .LVU309
 1133              		.loc 1 211 3 view .LVU310
 1134              		.arm
 1135              		.syntax unified
 1136 01a0 101095E5 		ldr	r1, [r5, #16]
 1137 01a4 0C2095E5 		ldr	r2, [r5, #12]
 1138 01a8 083095E5 		ldr	r3, [r5, #8]
 1139 01ac 021041E0 		sub	r1, r1, r2
ARM GAS  /tmp/ccLBGe59.s 			page 21


 1140 01b0 031041E0 		sub	r1, r1, r3
 1141 01b4 041041E2 		sub	r1, r1, #4
 1142 01b8 111F6FE1 		clz	r1, r1
 1143 01bc 0800A0E3 		mov	r0, #8
 1144 01c0 A112A0E1 		lsr	r1, r1, #5
 1145 01c4 FEFFFFEB 		bl	_test_assert
 1146              	.LVL80:
 1147 01c8 000050E3 		cmp	r0, #0
 1148 01cc 3E00001A 		bne	.L59
 1149              		.loc 1 211 3 view .LVU311
 1150              		.loc 1 211 3 view .LVU312
 1151              		.syntax divided
 1152              	@ 211 "../test/testqueues.c" 1
 1153 01d0 1FF021E3 		msr     CPSR_c, #0x1F
 1154              	@ 0 "" 2
 1155              		.loc 1 211 3 view .LVU313
 1156              		.loc 1 211 74 view .LVU314
 1157              		.loc 1 212 3 view .LVU315
 1158              		.arm
 1159              		.syntax unified
 1160 01d4 FEFFFFEB 		bl	test_wait_threads
 1161              	.LVL81:
 1162              		.loc 1 215 3 view .LVU316
 1163              		.syntax divided
 1164              	@ 215 "../test/testqueues.c" 1
 1165 01d8 9FF021E3 		msr     CPSR_c, #0x9F
 1166              	@ 0 "" 2
 1167              		.loc 1 215 3 view .LVU317
 1168              		.loc 1 215 14 view .LVU318
 1169              		.loc 1 216 3 view .LVU319
 1170              		.arm
 1171              		.syntax unified
 1172 01dc 14019FE5 		ldr	r0, .L62
 1173 01e0 FEFFFFEB 		bl	chOQResetI
 1174              	.LVL82:
 1175              		.loc 1 217 3 view .LVU320
 1176              		.loc 1 217 3 view .LVU321
 1177              		.syntax divided
 1178              	@ 217 "../test/testqueues.c" 1
 1179 01e4 1FF021E3 		msr     CPSR_c, #0x1F
 1180              	@ 0 "" 2
 1181              		.loc 1 217 16 view .LVU322
 1182              		.loc 1 218 3 view .LVU323
 1183              	@ 218 "../test/testqueues.c" 1
 1184 01e8 9FF021E3 		msr     CPSR_c, #0x9F
 1185              	@ 0 "" 2
 1186              		.loc 1 218 3 view .LVU324
 1187              		.loc 1 218 3 view .LVU325
 1188              		.loc 1 218 3 view .LVU326
 1189              		.arm
 1190              		.syntax unified
 1191 01ec DC20C5E1 		ldrd	r2, [r5, #12]
 1192 01f0 081095E5 		ldr	r1, [r5, #8]
 1193 01f4 023043E0 		sub	r3, r3, r2
 1194 01f8 011043E0 		sub	r1, r3, r1
 1195 01fc 111F6FE1 		clz	r1, r1
 1196 0200 0900A0E3 		mov	r0, #9
ARM GAS  /tmp/ccLBGe59.s 			page 22


 1197 0204 A112A0E1 		lsr	r1, r1, #5
 1198 0208 FEFFFFEB 		bl	_test_assert
 1199              	.LVL83:
 1200 020c 003050E2 		subs	r3, r0, #0
 1201 0210 2D00001A 		bne	.L59
 1202              		.loc 1 218 3 view .LVU327
 1203              		.loc 1 218 3 view .LVU328
 1204              		.syntax divided
 1205              	@ 218 "../test/testqueues.c" 1
 1206 0214 1FF021E3 		msr     CPSR_c, #0x1F
 1207              	@ 0 "" 2
 1208              		.loc 1 218 3 view .LVU329
 1209              		.loc 1 218 60 view .LVU330
 1210              		.loc 1 221 3 view .LVU331
 1211              		.loc 1 221 7 is_stmt 0 view .LVU332
 1212              		.arm
 1213              		.syntax unified
 1214 0218 0220A0E3 		mov	r2, #2
 1215 021c 0610A0E1 		mov	r1, r6
 1216 0220 D0009FE5 		ldr	r0, .L62
 1217 0224 FEFFFFEB 		bl	chOQWriteTimeout
 1218              	.LVL84:
 1219 0228 0010A0E1 		mov	r1, r0
 1220              	.LVL85:
 1221              		.loc 1 222 3 is_stmt 1 view .LVU333
 1222 022c 021041E2 		sub	r1, r1, #2
 1223 0230 111F6FE1 		clz	r1, r1
 1224 0234 0A00A0E3 		mov	r0, #10
 1225              	.LVL86:
 1226              		.loc 1 222 3 is_stmt 0 view .LVU334
 1227 0238 A112A0E1 		lsr	r1, r1, #5
 1228 023c FEFFFFEB 		bl	_test_assert
 1229              	.LVL87:
 1230 0240 003050E2 		subs	r3, r0, #0
 1231 0244 2100001A 		bne	.L39
 1232              		.loc 1 222 68 is_stmt 1 view .LVU335
 1233              		.loc 1 223 3 view .LVU336
 1234              		.loc 1 223 7 is_stmt 0 view .LVU337
 1235 0248 0610A0E1 		mov	r1, r6
 1236 024c 0220A0E3 		mov	r2, #2
 1237 0250 A0009FE5 		ldr	r0, .L62
 1238 0254 FEFFFFEB 		bl	chOQWriteTimeout
 1239              	.LVL88:
 1240 0258 0010A0E1 		mov	r1, r0
 1241              	.LVL89:
 1242              		.loc 1 224 3 is_stmt 1 view .LVU338
 1243 025c 021041E2 		sub	r1, r1, #2
 1244 0260 111F6FE1 		clz	r1, r1
 1245 0264 0B00A0E3 		mov	r0, #11
 1246              	.LVL90:
 1247              		.loc 1 224 3 is_stmt 0 view .LVU339
 1248 0268 A112A0E1 		lsr	r1, r1, #5
 1249 026c FEFFFFEB 		bl	_test_assert
 1250              	.LVL91:
 1251 0270 000050E3 		cmp	r0, #0
 1252 0274 1500001A 		bne	.L39
 1253              		.loc 1 224 68 is_stmt 1 view .LVU340
ARM GAS  /tmp/ccLBGe59.s 			page 23


 1254              		.loc 1 225 3 view .LVU341
 1255              		.syntax divided
 1256              	@ 225 "../test/testqueues.c" 1
 1257 0278 9FF021E3 		msr     CPSR_c, #0x9F
 1258              	@ 0 "" 2
 1259              		.loc 1 225 3 view .LVU342
 1260              		.loc 1 225 3 view .LVU343
 1261              		.loc 1 225 3 view .LVU344
 1262              		.arm
 1263              		.syntax unified
 1264 027c 081095E5 		ldr	r1, [r5, #8]
 1265 0280 0C00A0E3 		mov	r0, #12
 1266 0284 111F6FE1 		clz	r1, r1
 1267 0288 A112A0E1 		lsr	r1, r1, #5
 1268 028c FEFFFFEB 		bl	_test_assert
 1269              	.LVL92:
 1270 0290 000050E3 		cmp	r0, #0
 1271 0294 0C00001A 		bne	.L59
 1272              		.loc 1 225 3 view .LVU345
 1273              		.loc 1 225 3 view .LVU346
 1274              		.syntax divided
 1275              	@ 225 "../test/testqueues.c" 1
 1276 0298 1FF021E3 		msr     CPSR_c, #0x1F
 1277              	@ 0 "" 2
 1278              		.loc 1 225 3 view .LVU347
 1279              		.loc 1 225 53 view .LVU348
 1280              		.loc 1 228 3 view .LVU349
 1281              		.arm
 1282              		.syntax unified
 1283 029c 0A20A0E3 		mov	r2, #10
 1284 02a0 0010A0E3 		mov	r1, #0
 1285 02a4 4C009FE5 		ldr	r0, .L62
 1286 02a8 FEFFFFEB 		bl	chOQPutTimeout
 1287              	.LVL93:
 1288 02ac 0010A0E1 		mov	r1, r0
 1289 02b0 010071E3 		cmn	r1, #1
 1290 02b4 0D00A0E3 		mov	r0, #13
 1291 02b8 0010A013 		movne	r1, #0
 1292 02bc 0110A003 		moveq	r1, #1
 1293              	.LBE15:
 1294              	.LBE14:
 1295              		.loc 1 229 1 is_stmt 0 view .LVU350
 1296 02c0 0CD08DE2 		add	sp, sp, #12
 1297              		.cfi_remember_state
 1298              		.cfi_def_cfa_offset 20
 1299              		@ sp needed
 1300 02c4 F040BDE8 		pop	{r4, r5, r6, r7, lr}
 1301              		.cfi_restore 14
 1302              		.cfi_restore 7
 1303              		.cfi_restore 6
 1304              		.cfi_restore 5
 1305              		.cfi_restore 4
 1306              		.cfi_def_cfa_offset 0
 1307              	.LBB19:
 1308              	.LBB17:
 1309              		.loc 1 228 3 view .LVU351
 1310 02c8 FEFFFFEA 		b	_test_assert
ARM GAS  /tmp/ccLBGe59.s 			page 24


 1311              	.LVL94:
 1312              	.L59:
 1313              		.cfi_restore_state
 1314              		.loc 1 225 3 is_stmt 1 view .LVU352
 1315              		.loc 1 225 3 view .LVU353
 1316              		.syntax divided
 1317              	@ 225 "../test/testqueues.c" 1
 1318 02cc 1FF021E3 		msr     CPSR_c, #0x1F
 1319              	@ 0 "" 2
 1320              		.loc 1 225 3 view .LVU354
 1321              		.loc 1 225 3 view .LVU355
 1322              		.arm
 1323              		.syntax unified
 1324              	.L39:
 1325              	.LBE17:
 1326              	.LBE19:
 1327              		.loc 1 229 1 is_stmt 0 view .LVU356
 1328 02d0 0CD08DE2 		add	sp, sp, #12
 1329              		.cfi_remember_state
 1330              		.cfi_def_cfa_offset 20
 1331              		@ sp needed
 1332 02d4 F080BDE8 		pop	{r4, r5, r6, r7, pc}
 1333              	.L60:
 1334              		.cfi_restore_state
 1335              		.loc 1 186 3 discriminator 1 view .LVU357
 1336 02d8 081095E5 		ldr	r1, [r5, #8]
 1337 02dc 001051E2 		subs	r1, r1, #0
 1338 02e0 0110A013 		movne	r1, #1
 1339 02e4 4DFFFFEA 		b	.L40
 1340              	.LVL95:
 1341              	.L61:
 1342              	.LBB20:
 1343              	.LBB18:
 1344              		.loc 1 202 3 view .LVU358
 1345 02e8 080095E5 		ldr	r0, [r5, #8]
 1346 02ec 006050E2 		subs	r6, r0, #0
 1347 02f0 0160A013 		movne	r6, #1
 1348 02f4 6FFFFFEA 		b	.L46
 1349              	.L63:
 1350              		.align	2
 1351              	.L62:
 1352 02f8 00000000 		.word	.LANCHOR1
 1353 02fc 00000000 		.word	.LC0
 1354 0300 00000000 		.word	wa
 1355 0304 00000000 		.word	rlist
 1356 0308 00000000 		.word	thread2
 1357 030c 00000000 		.word	threads
 1358              	.LBE18:
 1359              	.LBE20:
 1360              		.cfi_endproc
 1361              	.LFE13:
 1362              		.size	queues2_execute, .-queues2_execute
 1363              		.global	patternqueues
 1364              		.global	testqueues2
 1365              		.section	.rodata.str1.4,"aMS",%progbits,1
 1366              		.align	2
 1367              	.LC1:
ARM GAS  /tmp/ccLBGe59.s 			page 25


 1368 0000 51756575 		.ascii	"Queues, output queues\000"
 1368      65732C20 
 1368      6F757470 
 1368      75742071 
 1368      75657565 
 1369              		.global	testqueues1
 1370 0016 0000     		.align	2
 1371              	.LC2:
 1372 0018 51756575 		.ascii	"Queues, input queues\000"
 1372      65732C20 
 1372      696E7075 
 1372      74207175 
 1372      65756573 
 1373              		.section	.data.iq,"aw"
 1374              		.align	2
 1375              		.set	.LANCHOR0,. + 0
 1376              		.type	iq, %object
 1377              		.size	iq, 36
 1378              	iq:
 1379 0000 00000000 		.word	iq
 1380 0004 00000000 		.word	iq
 1381 0008 00000000 		.word	0
 1382 000c 00000000 		.word	test
 1383 0010 04000000 		.word	test+4
 1384 0014 00000000 		.word	test
 1385 0018 00000000 		.word	test
 1386 001c 00000000 		.word	notify
 1387 0020 00000000 		.word	0
 1388              		.section	.data.oq,"aw"
 1389              		.align	2
 1390              		.set	.LANCHOR1,. + 0
 1391              		.type	oq, %object
 1392              		.size	oq, 36
 1393              	oq:
 1394 0000 00000000 		.word	oq
 1395 0004 00000000 		.word	oq
 1396 0008 04000000 		.word	4
 1397 000c 18010000 		.word	test+280
 1398 0010 1C010000 		.word	test+284
 1399 0014 18010000 		.word	test+280
 1400 0018 18010000 		.word	test+280
 1401 001c 00000000 		.word	notify
 1402 0020 00000000 		.word	0
 1403              		.section	.rodata.patternqueues,"a"
 1404              		.align	2
 1405              		.type	patternqueues, %object
 1406              		.size	patternqueues, 12
 1407              	patternqueues:
 1408 0000 00000000 		.word	testqueues1
 1409 0004 00000000 		.word	testqueues2
 1410 0008 00000000 		.word	0
 1411              		.section	.rodata.testqueues1,"a"
 1412              		.align	2
 1413              		.type	testqueues1, %object
 1414              		.size	testqueues1, 16
 1415              	testqueues1:
 1416 0000 18000000 		.word	.LC2
ARM GAS  /tmp/ccLBGe59.s 			page 26


 1417 0004 00000000 		.word	queues1_setup
 1418 0008 00000000 		.word	0
 1419 000c 00000000 		.word	queues1_execute
 1420              		.section	.rodata.testqueues2,"a"
 1421              		.align	2
 1422              		.type	testqueues2, %object
 1423              		.size	testqueues2, 16
 1424              	testqueues2:
 1425 0000 00000000 		.word	.LC1
 1426 0004 00000000 		.word	queues2_setup
 1427 0008 00000000 		.word	0
 1428 000c 00000000 		.word	queues2_execute
 1429              		.text
 1430              	.Letext0:
 1431              		.file 2 "/usr/lib/gcc/arm-none-eabi/9.2.1/include/stddef.h"
 1432              		.file 3 "/usr/lib/gcc/arm-none-eabi/9.2.1/include/stdint.h"
 1433              		.file 4 "../os/ports/GCC/ARM/chtypes.h"
 1434              		.file 5 "../os/kernel/include/chlists.h"
 1435              		.file 6 "../os/kernel/include/chthreads.h"
 1436              		.file 7 "../os/ports/GCC/ARM/chcore.h"
 1437              		.file 8 "../os/kernel/include/chvt.h"
 1438              		.file 9 "../os/kernel/include/chschd.h"
 1439              		.file 10 "../os/kernel/include/chmtx.h"
 1440              		.file 11 "../os/kernel/include/chregistry.h"
 1441              		.file 12 "../os/kernel/include/chqueues.h"
 1442              		.file 13 "../os/kernel/include/ch.h"
 1443              		.file 14 "../test/test.h"
 1444              		.section	.debug_info,"",%progbits
 1445              	.Ldebug_info0:
 1446 0000 34110000 		.4byte	0x1134
 1447 0004 0400     		.2byte	0x4
 1448 0006 00000000 		.4byte	.Ldebug_abbrev0
 1449 000a 04       		.byte	0x4
 1450 000b 01       		.uleb128 0x1
 1451 000c 22000000 		.4byte	.LASF142
 1452 0010 0C       		.byte	0xc
 1453 0011 CF030000 		.4byte	.LASF143
 1454 0015 9D050000 		.4byte	.LASF144
 1455 0019 40000000 		.4byte	.Ldebug_ranges0+0x40
 1456 001d 00000000 		.4byte	0
 1457 0021 00000000 		.4byte	.Ldebug_line0
 1458 0025 02       		.uleb128 0x2
 1459 0026 04       		.byte	0x4
 1460 0027 05       		.byte	0x5
 1461 0028 696E7400 		.ascii	"int\000"
 1462 002c 03       		.uleb128 0x3
 1463 002d 95020000 		.4byte	.LASF3
 1464 0031 02       		.byte	0x2
 1465 0032 D1       		.byte	0xd1
 1466 0033 17       		.byte	0x17
 1467 0034 38000000 		.4byte	0x38
 1468 0038 04       		.uleb128 0x4
 1469 0039 04       		.byte	0x4
 1470 003a 07       		.byte	0x7
 1471 003b A5020000 		.4byte	.LASF0
 1472 003f 04       		.uleb128 0x4
 1473 0040 01       		.byte	0x1
ARM GAS  /tmp/ccLBGe59.s 			page 27


 1474 0041 06       		.byte	0x6
 1475 0042 C4010000 		.4byte	.LASF1
 1476 0046 04       		.uleb128 0x4
 1477 0047 02       		.byte	0x2
 1478 0048 05       		.byte	0x5
 1479 0049 F7040000 		.4byte	.LASF2
 1480 004d 03       		.uleb128 0x3
 1481 004e D7040000 		.4byte	.LASF4
 1482 0052 03       		.byte	0x3
 1483 0053 28       		.byte	0x28
 1484 0054 18       		.byte	0x18
 1485 0055 59000000 		.4byte	0x59
 1486 0059 04       		.uleb128 0x4
 1487 005a 04       		.byte	0x4
 1488 005b 05       		.byte	0x5
 1489 005c 1F020000 		.4byte	.LASF5
 1490 0060 04       		.uleb128 0x4
 1491 0061 08       		.byte	0x8
 1492 0062 05       		.byte	0x5
 1493 0063 B6010000 		.4byte	.LASF6
 1494 0067 03       		.uleb128 0x3
 1495 0068 90060000 		.4byte	.LASF7
 1496 006c 03       		.byte	0x3
 1497 006d 2E       		.byte	0x2e
 1498 006e 18       		.byte	0x18
 1499 006f 73000000 		.4byte	0x73
 1500 0073 04       		.uleb128 0x4
 1501 0074 01       		.byte	0x1
 1502 0075 08       		.byte	0x8
 1503 0076 DF040000 		.4byte	.LASF8
 1504 007a 03       		.uleb128 0x3
 1505 007b 4A020000 		.4byte	.LASF9
 1506 007f 03       		.byte	0x3
 1507 0080 31       		.byte	0x31
 1508 0081 19       		.byte	0x19
 1509 0082 86000000 		.4byte	0x86
 1510 0086 04       		.uleb128 0x4
 1511 0087 02       		.byte	0x2
 1512 0088 07       		.byte	0x7
 1513 0089 0B030000 		.4byte	.LASF10
 1514 008d 03       		.uleb128 0x3
 1515 008e 73050000 		.4byte	.LASF11
 1516 0092 03       		.byte	0x3
 1517 0093 34       		.byte	0x34
 1518 0094 19       		.byte	0x19
 1519 0095 99000000 		.4byte	0x99
 1520 0099 04       		.uleb128 0x4
 1521 009a 04       		.byte	0x4
 1522 009b 07       		.byte	0x7
 1523 009c C5020000 		.4byte	.LASF12
 1524 00a0 04       		.uleb128 0x4
 1525 00a1 08       		.byte	0x8
 1526 00a2 07       		.byte	0x7
 1527 00a3 3D010000 		.4byte	.LASF13
 1528 00a7 03       		.uleb128 0x3
 1529 00a8 ED010000 		.4byte	.LASF14
 1530 00ac 04       		.byte	0x4
ARM GAS  /tmp/ccLBGe59.s 			page 28


 1531 00ad 29       		.byte	0x29
 1532 00ae 19       		.byte	0x19
 1533 00af 4D000000 		.4byte	0x4d
 1534 00b3 03       		.uleb128 0x3
 1535 00b4 48030000 		.4byte	.LASF15
 1536 00b8 04       		.byte	0x4
 1537 00b9 2A       		.byte	0x2a
 1538 00ba 19       		.byte	0x19
 1539 00bb 67000000 		.4byte	0x67
 1540 00bf 03       		.uleb128 0x3
 1541 00c0 2F020000 		.4byte	.LASF16
 1542 00c4 04       		.byte	0x4
 1543 00c5 2B       		.byte	0x2b
 1544 00c6 19       		.byte	0x19
 1545 00c7 67000000 		.4byte	0x67
 1546 00cb 03       		.uleb128 0x3
 1547 00cc 9B040000 		.4byte	.LASF17
 1548 00d0 04       		.byte	0x4
 1549 00d1 2C       		.byte	0x2c
 1550 00d2 19       		.byte	0x19
 1551 00d3 67000000 		.4byte	0x67
 1552 00d7 03       		.uleb128 0x3
 1553 00d8 0C020000 		.4byte	.LASF18
 1554 00dc 04       		.byte	0x4
 1555 00dd 2D       		.byte	0x2d
 1556 00de 19       		.byte	0x19
 1557 00df 67000000 		.4byte	0x67
 1558 00e3 03       		.uleb128 0x3
 1559 00e4 C7040000 		.4byte	.LASF19
 1560 00e8 04       		.byte	0x4
 1561 00e9 2E       		.byte	0x2e
 1562 00ea 19       		.byte	0x19
 1563 00eb 8D000000 		.4byte	0x8d
 1564 00ef 03       		.uleb128 0x3
 1565 00f0 3A030000 		.4byte	.LASF20
 1566 00f4 04       		.byte	0x4
 1567 00f5 2F       		.byte	0x2f
 1568 00f6 19       		.byte	0x19
 1569 00f7 4D000000 		.4byte	0x4d
 1570 00fb 03       		.uleb128 0x3
 1571 00fc 5C030000 		.4byte	.LASF21
 1572 0100 04       		.byte	0x4
 1573 0101 31       		.byte	0x31
 1574 0102 19       		.byte	0x19
 1575 0103 8D000000 		.4byte	0x8d
 1576 0107 03       		.uleb128 0x3
 1577 0108 1C060000 		.4byte	.LASF22
 1578 010c 04       		.byte	0x4
 1579 010d 33       		.byte	0x33
 1580 010e 19       		.byte	0x19
 1581 010f 8D000000 		.4byte	0x8d
 1582 0113 05       		.uleb128 0x5
 1583 0114 07010000 		.4byte	0x107
 1584 0118 03       		.uleb128 0x3
 1585 0119 4B050000 		.4byte	.LASF23
 1586 011d 05       		.byte	0x5
 1587 011e 23       		.byte	0x23
ARM GAS  /tmp/ccLBGe59.s 			page 29


 1588 011f 17       		.byte	0x17
 1589 0120 24010000 		.4byte	0x124
 1590 0124 06       		.uleb128 0x6
 1591 0125 4B050000 		.4byte	.LASF23
 1592 0129 44       		.byte	0x44
 1593 012a 06       		.byte	0x6
 1594 012b 57       		.byte	0x57
 1595 012c 08       		.byte	0x8
 1596 012d 29020000 		.4byte	0x229
 1597 0131 07       		.uleb128 0x7
 1598 0132 2D050000 		.4byte	.LASF24
 1599 0136 06       		.byte	0x6
 1600 0137 58       		.byte	0x58
 1601 0138 1A       		.byte	0x1a
 1602 0139 4D020000 		.4byte	0x24d
 1603 013d 00       		.byte	0
 1604 013e 07       		.uleb128 0x7
 1605 013f B8040000 		.4byte	.LASF25
 1606 0143 06       		.byte	0x6
 1607 0144 5A       		.byte	0x5a
 1608 0145 1A       		.byte	0x1a
 1609 0146 4D020000 		.4byte	0x24d
 1610 014a 04       		.byte	0x4
 1611 014b 07       		.uleb128 0x7
 1612 014c 8F010000 		.4byte	.LASF26
 1613 0150 06       		.byte	0x6
 1614 0151 5C       		.byte	0x5c
 1615 0152 19       		.byte	0x19
 1616 0153 E3000000 		.4byte	0xe3
 1617 0157 08       		.byte	0x8
 1618 0158 07       		.uleb128 0x7
 1619 0159 DF060000 		.4byte	.LASF27
 1620 015d 06       		.byte	0x6
 1621 015e 5D       		.byte	0x5d
 1622 015f 19       		.byte	0x19
 1623 0160 1D030000 		.4byte	0x31d
 1624 0164 0C       		.byte	0xc
 1625 0165 07       		.uleb128 0x7
 1626 0166 64020000 		.4byte	.LASF28
 1627 016a 06       		.byte	0x6
 1628 016b 5F       		.byte	0x5f
 1629 016c 1A       		.byte	0x1a
 1630 016d 4D020000 		.4byte	0x24d
 1631 0171 10       		.byte	0x10
 1632 0172 07       		.uleb128 0x7
 1633 0173 2C040000 		.4byte	.LASF29
 1634 0177 06       		.byte	0x6
 1635 0178 60       		.byte	0x60
 1636 0179 1A       		.byte	0x1a
 1637 017a 4D020000 		.4byte	0x24d
 1638 017e 14       		.byte	0x14
 1639 017f 07       		.uleb128 0x7
 1640 0180 9F060000 		.4byte	.LASF30
 1641 0184 06       		.byte	0x6
 1642 0185 67       		.byte	0x67
 1643 0186 1A       		.byte	0x1a
 1644 0187 03050000 		.4byte	0x503
ARM GAS  /tmp/ccLBGe59.s 			page 30


 1645 018b 18       		.byte	0x18
 1646 018c 07       		.uleb128 0x7
 1647 018d 01050000 		.4byte	.LASF31
 1648 0191 06       		.byte	0x6
 1649 0192 72       		.byte	0x72
 1650 0193 19       		.byte	0x19
 1651 0194 BF000000 		.4byte	0xbf
 1652 0198 1C       		.byte	0x1c
 1653 0199 07       		.uleb128 0x7
 1654 019a 43050000 		.4byte	.LASF32
 1655 019e 06       		.byte	0x6
 1656 019f 76       		.byte	0x76
 1657 01a0 19       		.byte	0x19
 1658 01a1 B3000000 		.4byte	0xb3
 1659 01a5 1D       		.byte	0x1d
 1660 01a6 07       		.uleb128 0x7
 1661 01a7 70060000 		.4byte	.LASF33
 1662 01ab 06       		.byte	0x6
 1663 01ac 7B       		.byte	0x7b
 1664 01ad 19       		.byte	0x19
 1665 01ae CB000000 		.4byte	0xcb
 1666 01b2 1E       		.byte	0x1e
 1667 01b3 07       		.uleb128 0x7
 1668 01b4 09050000 		.4byte	.LASF34
 1669 01b8 06       		.byte	0x6
 1670 01b9 81       		.byte	0x81
 1671 01ba 19       		.byte	0x19
 1672 01bb D7000000 		.4byte	0xd7
 1673 01bf 1F       		.byte	0x1f
 1674 01c0 07       		.uleb128 0x7
 1675 01c1 45060000 		.4byte	.LASF35
 1676 01c5 06       		.byte	0x6
 1677 01c6 88       		.byte	0x88
 1678 01c7 19       		.byte	0x19
 1679 01c8 13010000 		.4byte	0x113
 1680 01cc 20       		.byte	0x20
 1681 01cd 08       		.uleb128 0x8
 1682 01ce 705F7500 		.ascii	"p_u\000"
 1683 01d2 06       		.byte	0x6
 1684 01d3 AD       		.byte	0xad
 1685 01d4 19       		.byte	0x19
 1686 01d5 C9040000 		.4byte	0x4c9
 1687 01d9 24       		.byte	0x24
 1688 01da 07       		.uleb128 0x7
 1689 01db E5060000 		.4byte	.LASF36
 1690 01df 06       		.byte	0x6
 1691 01e0 B2       		.byte	0xb2
 1692 01e1 19       		.byte	0x19
 1693 01e2 76020000 		.4byte	0x276
 1694 01e6 28       		.byte	0x28
 1695 01e7 07       		.uleb128 0x7
 1696 01e8 53060000 		.4byte	.LASF37
 1697 01ec 06       		.byte	0x6
 1698 01ed B8       		.byte	0xb8
 1699 01ee 19       		.byte	0x19
 1700 01ef 53020000 		.4byte	0x253
 1701 01f3 2C       		.byte	0x2c
ARM GAS  /tmp/ccLBGe59.s 			page 31


 1702 01f4 07       		.uleb128 0x7
 1703 01f5 1C000000 		.4byte	.LASF38
 1704 01f9 06       		.byte	0x6
 1705 01fa BC       		.byte	0xbc
 1706 01fb 19       		.byte	0x19
 1707 01fc EF000000 		.4byte	0xef
 1708 0200 34       		.byte	0x34
 1709 0201 07       		.uleb128 0x7
 1710 0202 68050000 		.4byte	.LASF39
 1711 0206 06       		.byte	0x6
 1712 0207 C2       		.byte	0xc2
 1713 0208 19       		.byte	0x19
 1714 0209 FB000000 		.4byte	0xfb
 1715 020d 38       		.byte	0x38
 1716 020e 07       		.uleb128 0x7
 1717 020f ED040000 		.4byte	.LASF40
 1718 0213 06       		.byte	0x6
 1719 0214 C9       		.byte	0xc9
 1720 0215 1A       		.byte	0x1a
 1721 0216 15050000 		.4byte	0x515
 1722 021a 3C       		.byte	0x3c
 1723 021b 07       		.uleb128 0x7
 1724 021c 26060000 		.4byte	.LASF41
 1725 0220 06       		.byte	0x6
 1726 0221 CD       		.byte	0xcd
 1727 0222 19       		.byte	0x19
 1728 0223 E3000000 		.4byte	0xe3
 1729 0227 40       		.byte	0x40
 1730 0228 00       		.byte	0
 1731 0229 09       		.uleb128 0x9
 1732 022a 08       		.byte	0x8
 1733 022b 05       		.byte	0x5
 1734 022c 5A       		.byte	0x5a
 1735 022d 09       		.byte	0x9
 1736 022e 4D020000 		.4byte	0x24d
 1737 0232 07       		.uleb128 0x7
 1738 0233 2D050000 		.4byte	.LASF24
 1739 0237 05       		.byte	0x5
 1740 0238 5B       		.byte	0x5b
 1741 0239 1A       		.byte	0x1a
 1742 023a 4D020000 		.4byte	0x24d
 1743 023e 00       		.byte	0
 1744 023f 07       		.uleb128 0x7
 1745 0240 B8040000 		.4byte	.LASF25
 1746 0244 05       		.byte	0x5
 1747 0245 5D       		.byte	0x5d
 1748 0246 1A       		.byte	0x1a
 1749 0247 4D020000 		.4byte	0x24d
 1750 024b 04       		.byte	0x4
 1751 024c 00       		.byte	0
 1752 024d 0A       		.uleb128 0xa
 1753 024e 04       		.byte	0x4
 1754 024f 18010000 		.4byte	0x118
 1755 0253 03       		.uleb128 0x3
 1756 0254 4A040000 		.4byte	.LASF42
 1757 0258 05       		.byte	0x5
 1758 0259 5F       		.byte	0x5f
ARM GAS  /tmp/ccLBGe59.s 			page 32


 1759 025a 03       		.byte	0x3
 1760 025b 29020000 		.4byte	0x229
 1761 025f 09       		.uleb128 0x9
 1762 0260 04       		.byte	0x4
 1763 0261 05       		.byte	0x5
 1764 0262 64       		.byte	0x64
 1765 0263 09       		.byte	0x9
 1766 0264 76020000 		.4byte	0x276
 1767 0268 07       		.uleb128 0x7
 1768 0269 2D050000 		.4byte	.LASF24
 1769 026d 05       		.byte	0x5
 1770 026e 66       		.byte	0x66
 1771 026f 16       		.byte	0x16
 1772 0270 4D020000 		.4byte	0x24d
 1773 0274 00       		.byte	0
 1774 0275 00       		.byte	0
 1775 0276 03       		.uleb128 0x3
 1776 0277 50030000 		.4byte	.LASF43
 1777 027b 05       		.byte	0x5
 1778 027c 69       		.byte	0x69
 1779 027d 03       		.byte	0x3
 1780 027e 5F020000 		.4byte	0x25f
 1781 0282 03       		.uleb128 0x3
 1782 0283 86030000 		.4byte	.LASF44
 1783 0287 07       		.byte	0x7
 1784 0288 9D       		.byte	0x9d
 1785 0289 12       		.byte	0x12
 1786 028a 8D000000 		.4byte	0x8d
 1787 028e 03       		.uleb128 0x3
 1788 028f 84020000 		.4byte	.LASF45
 1789 0293 07       		.byte	0x7
 1790 0294 A2       		.byte	0xa2
 1791 0295 0F       		.byte	0xf
 1792 0296 9A020000 		.4byte	0x29a
 1793 029a 0B       		.uleb128 0xb
 1794 029b 04       		.byte	0x4
 1795 029c 0C       		.uleb128 0xc
 1796 029d 9A020000 		.4byte	0x29a
 1797 02a1 06       		.uleb128 0x6
 1798 02a2 4C060000 		.4byte	.LASF46
 1799 02a6 24       		.byte	0x24
 1800 02a7 07       		.byte	0x7
 1801 02a8 B9       		.byte	0xb9
 1802 02a9 08       		.byte	0x8
 1803 02aa 1D030000 		.4byte	0x31d
 1804 02ae 08       		.uleb128 0x8
 1805 02af 723400   		.ascii	"r4\000"
 1806 02b2 07       		.byte	0x7
 1807 02b3 BA       		.byte	0xba
 1808 02b4 11       		.byte	0x11
 1809 02b5 8E020000 		.4byte	0x28e
 1810 02b9 00       		.byte	0
 1811 02ba 08       		.uleb128 0x8
 1812 02bb 723500   		.ascii	"r5\000"
 1813 02be 07       		.byte	0x7
 1814 02bf BB       		.byte	0xbb
 1815 02c0 11       		.byte	0x11
ARM GAS  /tmp/ccLBGe59.s 			page 33


 1816 02c1 8E020000 		.4byte	0x28e
 1817 02c5 04       		.byte	0x4
 1818 02c6 08       		.uleb128 0x8
 1819 02c7 723600   		.ascii	"r6\000"
 1820 02ca 07       		.byte	0x7
 1821 02cb BC       		.byte	0xbc
 1822 02cc 11       		.byte	0x11
 1823 02cd 8E020000 		.4byte	0x28e
 1824 02d1 08       		.byte	0x8
 1825 02d2 08       		.uleb128 0x8
 1826 02d3 723700   		.ascii	"r7\000"
 1827 02d6 07       		.byte	0x7
 1828 02d7 BD       		.byte	0xbd
 1829 02d8 11       		.byte	0x11
 1830 02d9 8E020000 		.4byte	0x28e
 1831 02dd 0C       		.byte	0xc
 1832 02de 08       		.uleb128 0x8
 1833 02df 723800   		.ascii	"r8\000"
 1834 02e2 07       		.byte	0x7
 1835 02e3 BE       		.byte	0xbe
 1836 02e4 11       		.byte	0x11
 1837 02e5 8E020000 		.4byte	0x28e
 1838 02e9 10       		.byte	0x10
 1839 02ea 08       		.uleb128 0x8
 1840 02eb 723900   		.ascii	"r9\000"
 1841 02ee 07       		.byte	0x7
 1842 02ef BF       		.byte	0xbf
 1843 02f0 11       		.byte	0x11
 1844 02f1 8E020000 		.4byte	0x28e
 1845 02f5 14       		.byte	0x14
 1846 02f6 08       		.uleb128 0x8
 1847 02f7 72313000 		.ascii	"r10\000"
 1848 02fb 07       		.byte	0x7
 1849 02fc C0       		.byte	0xc0
 1850 02fd 11       		.byte	0x11
 1851 02fe 8E020000 		.4byte	0x28e
 1852 0302 18       		.byte	0x18
 1853 0303 08       		.uleb128 0x8
 1854 0304 72313100 		.ascii	"r11\000"
 1855 0308 07       		.byte	0x7
 1856 0309 C1       		.byte	0xc1
 1857 030a 11       		.byte	0x11
 1858 030b 8E020000 		.4byte	0x28e
 1859 030f 1C       		.byte	0x1c
 1860 0310 08       		.uleb128 0x8
 1861 0311 6C7200   		.ascii	"lr\000"
 1862 0314 07       		.byte	0x7
 1863 0315 C2       		.byte	0xc2
 1864 0316 11       		.byte	0x11
 1865 0317 8E020000 		.4byte	0x28e
 1866 031b 20       		.byte	0x20
 1867 031c 00       		.byte	0
 1868 031d 06       		.uleb128 0x6
 1869 031e 03030000 		.4byte	.LASF47
 1870 0322 04       		.byte	0x4
 1871 0323 07       		.byte	0x7
 1872 0324 CA       		.byte	0xca
ARM GAS  /tmp/ccLBGe59.s 			page 34


 1873 0325 08       		.byte	0x8
 1874 0326 38030000 		.4byte	0x338
 1875 032a 08       		.uleb128 0x8
 1876 032b 72313300 		.ascii	"r13\000"
 1877 032f 07       		.byte	0x7
 1878 0330 CB       		.byte	0xcb
 1879 0331 12       		.byte	0x12
 1880 0332 38030000 		.4byte	0x338
 1881 0336 00       		.byte	0
 1882 0337 00       		.byte	0
 1883 0338 0A       		.uleb128 0xa
 1884 0339 04       		.byte	0x4
 1885 033a A1020000 		.4byte	0x2a1
 1886 033e 03       		.uleb128 0x3
 1887 033f 31060000 		.4byte	.LASF48
 1888 0343 08       		.byte	0x8
 1889 0344 4E       		.byte	0x4e
 1890 0345 10       		.byte	0x10
 1891 0346 4A030000 		.4byte	0x34a
 1892 034a 0A       		.uleb128 0xa
 1893 034b 04       		.byte	0x4
 1894 034c 50030000 		.4byte	0x350
 1895 0350 0D       		.uleb128 0xd
 1896 0351 5B030000 		.4byte	0x35b
 1897 0355 0E       		.uleb128 0xe
 1898 0356 9A020000 		.4byte	0x29a
 1899 035a 00       		.byte	0
 1900 035b 03       		.uleb128 0x3
 1901 035c 90050000 		.4byte	.LASF49
 1902 0360 08       		.byte	0x8
 1903 0361 53       		.byte	0x53
 1904 0362 1D       		.byte	0x1d
 1905 0363 67030000 		.4byte	0x367
 1906 0367 06       		.uleb128 0x6
 1907 0368 90050000 		.4byte	.LASF49
 1908 036c 14       		.byte	0x14
 1909 036d 08       		.byte	0x8
 1910 036e 5A       		.byte	0x5a
 1911 036f 08       		.byte	0x8
 1912 0370 B6030000 		.4byte	0x3b6
 1913 0374 07       		.uleb128 0x7
 1914 0375 B2020000 		.4byte	.LASF50
 1915 0379 08       		.byte	0x8
 1916 037a 5B       		.byte	0x5b
 1917 037b 1A       		.byte	0x1a
 1918 037c B6030000 		.4byte	0x3b6
 1919 0380 00       		.byte	0
 1920 0381 07       		.uleb128 0x7
 1921 0382 8D020000 		.4byte	.LASF51
 1922 0386 08       		.byte	0x8
 1923 0387 5D       		.byte	0x5d
 1924 0388 1A       		.byte	0x1a
 1925 0389 B6030000 		.4byte	0x3b6
 1926 038d 04       		.byte	0x4
 1927 038e 07       		.uleb128 0x7
 1928 038f B7030000 		.4byte	.LASF52
 1929 0393 08       		.byte	0x8
ARM GAS  /tmp/ccLBGe59.s 			page 35


 1930 0394 5F       		.byte	0x5f
 1931 0395 19       		.byte	0x19
 1932 0396 07010000 		.4byte	0x107
 1933 039a 08       		.byte	0x8
 1934 039b 07       		.uleb128 0x7
 1935 039c EE030000 		.4byte	.LASF53
 1936 03a0 08       		.byte	0x8
 1937 03a1 60       		.byte	0x60
 1938 03a2 19       		.byte	0x19
 1939 03a3 3E030000 		.4byte	0x33e
 1940 03a7 0C       		.byte	0xc
 1941 03a8 07       		.uleb128 0x7
 1942 03a9 5E060000 		.4byte	.LASF54
 1943 03ad 08       		.byte	0x8
 1944 03ae 62       		.byte	0x62
 1945 03af 1A       		.byte	0x1a
 1946 03b0 9A020000 		.4byte	0x29a
 1947 03b4 10       		.byte	0x10
 1948 03b5 00       		.byte	0
 1949 03b6 0A       		.uleb128 0xa
 1950 03b7 04       		.byte	0x4
 1951 03b8 5B030000 		.4byte	0x35b
 1952 03bc 09       		.uleb128 0x9
 1953 03bd 10       		.byte	0x10
 1954 03be 08       		.byte	0x8
 1955 03bf 6C       		.byte	0x6c
 1956 03c0 09       		.byte	0x9
 1957 03c1 FA030000 		.4byte	0x3fa
 1958 03c5 07       		.uleb128 0x7
 1959 03c6 B2020000 		.4byte	.LASF50
 1960 03ca 08       		.byte	0x8
 1961 03cb 6D       		.byte	0x6d
 1962 03cc 1A       		.byte	0x1a
 1963 03cd B6030000 		.4byte	0x3b6
 1964 03d1 00       		.byte	0
 1965 03d2 07       		.uleb128 0x7
 1966 03d3 8D020000 		.4byte	.LASF51
 1967 03d7 08       		.byte	0x8
 1968 03d8 6F       		.byte	0x6f
 1969 03d9 1A       		.byte	0x1a
 1970 03da B6030000 		.4byte	0x3b6
 1971 03de 04       		.byte	0x4
 1972 03df 07       		.uleb128 0x7
 1973 03e0 B7030000 		.4byte	.LASF52
 1974 03e4 08       		.byte	0x8
 1975 03e5 71       		.byte	0x71
 1976 03e6 19       		.byte	0x19
 1977 03e7 07010000 		.4byte	0x107
 1978 03eb 08       		.byte	0x8
 1979 03ec 07       		.uleb128 0x7
 1980 03ed B3060000 		.4byte	.LASF55
 1981 03f1 08       		.byte	0x8
 1982 03f2 72       		.byte	0x72
 1983 03f3 19       		.byte	0x19
 1984 03f4 13010000 		.4byte	0x113
 1985 03f8 0C       		.byte	0xc
 1986 03f9 00       		.byte	0
ARM GAS  /tmp/ccLBGe59.s 			page 36


 1987 03fa 03       		.uleb128 0x3
 1988 03fb C9060000 		.4byte	.LASF56
 1989 03ff 08       		.byte	0x8
 1990 0400 73       		.byte	0x73
 1991 0401 03       		.byte	0x3
 1992 0402 BC030000 		.4byte	0x3bc
 1993 0406 0F       		.uleb128 0xf
 1994 0407 12010000 		.4byte	.LASF64
 1995 040b 08       		.byte	0x8
 1996 040c D1       		.byte	0xd1
 1997 040d 0F       		.byte	0xf
 1998 040e FA030000 		.4byte	0x3fa
 1999 0412 09       		.uleb128 0x9
 2000 0413 1C       		.byte	0x1c
 2001 0414 09       		.byte	0x9
 2002 0415 57       		.byte	0x57
 2003 0416 09       		.byte	0x9
 2004 0417 6A040000 		.4byte	0x46a
 2005 041b 07       		.uleb128 0x7
 2006 041c 88050000 		.4byte	.LASF57
 2007 0420 09       		.byte	0x9
 2008 0421 58       		.byte	0x58
 2009 0422 19       		.byte	0x19
 2010 0423 53020000 		.4byte	0x253
 2011 0427 00       		.byte	0
 2012 0428 07       		.uleb128 0x7
 2013 0429 1F050000 		.4byte	.LASF58
 2014 042d 09       		.byte	0x9
 2015 042e 59       		.byte	0x59
 2016 042f 19       		.byte	0x19
 2017 0430 E3000000 		.4byte	0xe3
 2018 0434 08       		.byte	0x8
 2019 0435 07       		.uleb128 0x7
 2020 0436 44040000 		.4byte	.LASF59
 2021 043a 09       		.byte	0x9
 2022 043b 5B       		.byte	0x5b
 2023 043c 19       		.byte	0x19
 2024 043d 1D030000 		.4byte	0x31d
 2025 0441 0C       		.byte	0xc
 2026 0442 07       		.uleb128 0x7
 2027 0443 7C020000 		.4byte	.LASF60
 2028 0447 09       		.byte	0x9
 2029 0448 5E       		.byte	0x5e
 2030 0449 1A       		.byte	0x1a
 2031 044a 4D020000 		.4byte	0x24d
 2032 044e 10       		.byte	0x10
 2033 044f 07       		.uleb128 0x7
 2034 0450 85040000 		.4byte	.LASF61
 2035 0454 09       		.byte	0x9
 2036 0455 5F       		.byte	0x5f
 2037 0456 1A       		.byte	0x1a
 2038 0457 4D020000 		.4byte	0x24d
 2039 045b 14       		.byte	0x14
 2040 045c 07       		.uleb128 0x7
 2041 045d 7B040000 		.4byte	.LASF62
 2042 0461 09       		.byte	0x9
 2043 0462 62       		.byte	0x62
ARM GAS  /tmp/ccLBGe59.s 			page 37


 2044 0463 1A       		.byte	0x1a
 2045 0464 4D020000 		.4byte	0x24d
 2046 0468 18       		.byte	0x18
 2047 0469 00       		.byte	0
 2048 046a 03       		.uleb128 0x3
 2049 046b 77060000 		.4byte	.LASF63
 2050 046f 09       		.byte	0x9
 2051 0470 64       		.byte	0x64
 2052 0471 03       		.byte	0x3
 2053 0472 12040000 		.4byte	0x412
 2054 0476 0F       		.uleb128 0xf
 2055 0477 8A060000 		.4byte	.LASF65
 2056 047b 09       		.byte	0x9
 2057 047c 68       		.byte	0x68
 2058 047d 12       		.byte	0x12
 2059 047e 6A040000 		.4byte	0x46a
 2060 0482 06       		.uleb128 0x6
 2061 0483 73030000 		.4byte	.LASF66
 2062 0487 10       		.byte	0x10
 2063 0488 0A       		.byte	0xa
 2064 0489 25       		.byte	0x25
 2065 048a 10       		.byte	0x10
 2066 048b B7040000 		.4byte	0x4b7
 2067 048f 07       		.uleb128 0x7
 2068 0490 F4010000 		.4byte	.LASF67
 2069 0494 0A       		.byte	0xa
 2070 0495 26       		.byte	0x26
 2071 0496 19       		.byte	0x19
 2072 0497 53020000 		.4byte	0x253
 2073 049b 00       		.byte	0
 2074 049c 07       		.uleb128 0x7
 2075 049d D7060000 		.4byte	.LASF68
 2076 04a1 0A       		.byte	0xa
 2077 04a2 28       		.byte	0x28
 2078 04a3 1A       		.byte	0x1a
 2079 04a4 4D020000 		.4byte	0x24d
 2080 04a8 08       		.byte	0x8
 2081 04a9 07       		.uleb128 0x7
 2082 04aa 15060000 		.4byte	.LASF69
 2083 04ae 0A       		.byte	0xa
 2084 04af 2A       		.byte	0x2a
 2085 04b0 1A       		.byte	0x1a
 2086 04b1 B7040000 		.4byte	0x4b7
 2087 04b5 0C       		.byte	0xc
 2088 04b6 00       		.byte	0
 2089 04b7 0A       		.uleb128 0xa
 2090 04b8 04       		.byte	0x4
 2091 04b9 82040000 		.4byte	0x482
 2092 04bd 03       		.uleb128 0x3
 2093 04be 73030000 		.4byte	.LASF66
 2094 04c2 0A       		.byte	0xa
 2095 04c3 2C       		.byte	0x2c
 2096 04c4 03       		.byte	0x3
 2097 04c5 82040000 		.4byte	0x482
 2098 04c9 10       		.uleb128 0x10
 2099 04ca 04       		.byte	0x4
 2100 04cb 06       		.byte	0x6
ARM GAS  /tmp/ccLBGe59.s 			page 38


 2101 04cc 8F       		.byte	0x8f
 2102 04cd 03       		.byte	0x3
 2103 04ce 03050000 		.4byte	0x503
 2104 04d2 11       		.uleb128 0x11
 2105 04d3 F6000000 		.4byte	.LASF70
 2106 04d7 06       		.byte	0x6
 2107 04d8 96       		.byte	0x96
 2108 04d9 19       		.byte	0x19
 2109 04da EF000000 		.4byte	0xef
 2110 04de 11       		.uleb128 0x11
 2111 04df 73010000 		.4byte	.LASF71
 2112 04e3 06       		.byte	0x6
 2113 04e4 9D       		.byte	0x9d
 2114 04e5 19       		.byte	0x19
 2115 04e6 EF000000 		.4byte	0xef
 2116 04ea 11       		.uleb128 0x11
 2117 04eb 98060000 		.4byte	.LASF72
 2118 04ef 06       		.byte	0x6
 2119 04f0 A4       		.byte	0xa4
 2120 04f1 1A       		.byte	0x1a
 2121 04f2 9A020000 		.4byte	0x29a
 2122 04f6 11       		.uleb128 0x11
 2123 04f7 26050000 		.4byte	.LASF73
 2124 04fb 06       		.byte	0x6
 2125 04fc AB       		.byte	0xab
 2126 04fd 19       		.byte	0x19
 2127 04fe FB000000 		.4byte	0xfb
 2128 0502 00       		.byte	0
 2129 0503 0A       		.uleb128 0xa
 2130 0504 04       		.byte	0x4
 2131 0505 10050000 		.4byte	0x510
 2132 0509 04       		.uleb128 0x4
 2133 050a 01       		.byte	0x1
 2134 050b 08       		.byte	0x8
 2135 050c FB050000 		.4byte	.LASF74
 2136 0510 0C       		.uleb128 0xc
 2137 0511 09050000 		.4byte	0x509
 2138 0515 0A       		.uleb128 0xa
 2139 0516 04       		.byte	0x4
 2140 0517 BD040000 		.4byte	0x4bd
 2141 051b 09       		.uleb128 0x9
 2142 051c 16       		.byte	0x16
 2143 051d 0B       		.byte	0xb
 2144 051e 25       		.byte	0x25
 2145 051f 09       		.byte	0x9
 2146 0520 0F060000 		.4byte	0x60f
 2147 0524 07       		.uleb128 0x7
 2148 0525 F5020000 		.4byte	.LASF75
 2149 0529 0B       		.byte	0xb
 2150 052a 26       		.byte	0x26
 2151 052b 0D       		.byte	0xd
 2152 052c 0F060000 		.4byte	0x60f
 2153 0530 00       		.byte	0
 2154 0531 07       		.uleb128 0x7
 2155 0532 A3030000 		.4byte	.LASF76
 2156 0536 0B       		.byte	0xb
 2157 0537 27       		.byte	0x27
ARM GAS  /tmp/ccLBGe59.s 			page 39


 2158 0538 0D       		.byte	0xd
 2159 0539 67000000 		.4byte	0x67
 2160 053d 04       		.byte	0x4
 2161 053e 07       		.uleb128 0x7
 2162 053f 57040000 		.4byte	.LASF77
 2163 0543 0B       		.byte	0xb
 2164 0544 28       		.byte	0x28
 2165 0545 0D       		.byte	0xd
 2166 0546 67000000 		.4byte	0x67
 2167 054a 05       		.byte	0x5
 2168 054b 07       		.uleb128 0x7
 2169 054c BE060000 		.4byte	.LASF78
 2170 0550 0B       		.byte	0xb
 2171 0551 29       		.byte	0x29
 2172 0552 0D       		.byte	0xd
 2173 0553 7A000000 		.4byte	0x7a
 2174 0557 06       		.byte	0x6
 2175 0558 07       		.uleb128 0x7
 2176 0559 A3040000 		.4byte	.LASF79
 2177 055d 0B       		.byte	0xb
 2178 055e 2A       		.byte	0x2a
 2179 055f 0D       		.byte	0xd
 2180 0560 67000000 		.4byte	0x67
 2181 0564 08       		.byte	0x8
 2182 0565 07       		.uleb128 0x7
 2183 0566 F6030000 		.4byte	.LASF80
 2184 056a 0B       		.byte	0xb
 2185 056b 2B       		.byte	0x2b
 2186 056c 0D       		.byte	0xd
 2187 056d 67000000 		.4byte	0x67
 2188 0571 09       		.byte	0x9
 2189 0572 07       		.uleb128 0x7
 2190 0573 65010000 		.4byte	.LASF81
 2191 0577 0B       		.byte	0xb
 2192 0578 2C       		.byte	0x2c
 2193 0579 0D       		.byte	0xd
 2194 057a 67000000 		.4byte	0x67
 2195 057e 0A       		.byte	0xa
 2196 057f 07       		.uleb128 0x7
 2197 0580 7C050000 		.4byte	.LASF82
 2198 0584 0B       		.byte	0xb
 2199 0585 2D       		.byte	0x2d
 2200 0586 0D       		.byte	0xd
 2201 0587 67000000 		.4byte	0x67
 2202 058b 0B       		.byte	0xb
 2203 058c 07       		.uleb128 0x7
 2204 058d 65060000 		.4byte	.LASF83
 2205 0591 0B       		.byte	0xb
 2206 0592 2E       		.byte	0x2e
 2207 0593 0D       		.byte	0xd
 2208 0594 67000000 		.4byte	0x67
 2209 0598 0C       		.byte	0xc
 2210 0599 07       		.uleb128 0x7
 2211 059a 52050000 		.4byte	.LASF84
 2212 059e 0B       		.byte	0xb
 2213 059f 2F       		.byte	0x2f
 2214 05a0 0D       		.byte	0xd
ARM GAS  /tmp/ccLBGe59.s 			page 40


 2215 05a1 67000000 		.4byte	0x67
 2216 05a5 0D       		.byte	0xd
 2217 05a6 07       		.uleb128 0x7
 2218 05a7 0F000000 		.4byte	.LASF85
 2219 05ab 0B       		.byte	0xb
 2220 05ac 30       		.byte	0x30
 2221 05ad 0D       		.byte	0xd
 2222 05ae 67000000 		.4byte	0x67
 2223 05b2 0E       		.byte	0xe
 2224 05b3 07       		.uleb128 0x7
 2225 05b4 02040000 		.4byte	.LASF86
 2226 05b8 0B       		.byte	0xb
 2227 05b9 31       		.byte	0x31
 2228 05ba 0D       		.byte	0xd
 2229 05bb 67000000 		.4byte	0x67
 2230 05bf 0F       		.byte	0xf
 2231 05c0 07       		.uleb128 0x7
 2232 05c1 D0010000 		.4byte	.LASF87
 2233 05c5 0B       		.byte	0xb
 2234 05c6 32       		.byte	0x32
 2235 05c7 0D       		.byte	0xd
 2236 05c8 67000000 		.4byte	0x67
 2237 05cc 10       		.byte	0x10
 2238 05cd 07       		.uleb128 0x7
 2239 05ce 96010000 		.4byte	.LASF88
 2240 05d2 0B       		.byte	0xb
 2241 05d3 34       		.byte	0x34
 2242 05d4 0D       		.byte	0xd
 2243 05d5 67000000 		.4byte	0x67
 2244 05d9 11       		.byte	0x11
 2245 05da 07       		.uleb128 0x7
 2246 05db E0010000 		.4byte	.LASF89
 2247 05df 0B       		.byte	0xb
 2248 05e0 35       		.byte	0x35
 2249 05e1 0D       		.byte	0xd
 2250 05e2 67000000 		.4byte	0x67
 2251 05e6 12       		.byte	0x12
 2252 05e7 07       		.uleb128 0x7
 2253 05e8 AB030000 		.4byte	.LASF90
 2254 05ec 0B       		.byte	0xb
 2255 05ed 36       		.byte	0x36
 2256 05ee 0D       		.byte	0xd
 2257 05ef 67000000 		.4byte	0x67
 2258 05f3 13       		.byte	0x13
 2259 05f4 07       		.uleb128 0x7
 2260 05f5 34050000 		.4byte	.LASF91
 2261 05f9 0B       		.byte	0xb
 2262 05fa 37       		.byte	0x37
 2263 05fb 0D       		.byte	0xd
 2264 05fc 67000000 		.4byte	0x67
 2265 0600 14       		.byte	0x14
 2266 0601 07       		.uleb128 0x7
 2267 0602 13050000 		.4byte	.LASF92
 2268 0606 0B       		.byte	0xb
 2269 0607 39       		.byte	0x39
 2270 0608 0D       		.byte	0xd
 2271 0609 67000000 		.4byte	0x67
ARM GAS  /tmp/ccLBGe59.s 			page 41


 2272 060d 15       		.byte	0x15
 2273 060e 00       		.byte	0
 2274 060f 12       		.uleb128 0x12
 2275 0610 09050000 		.4byte	0x509
 2276 0614 1F060000 		.4byte	0x61f
 2277 0618 13       		.uleb128 0x13
 2278 0619 38000000 		.4byte	0x38
 2279 061d 03       		.byte	0x3
 2280 061e 00       		.byte	0
 2281 061f 03       		.uleb128 0x3
 2282 0620 53020000 		.4byte	.LASF93
 2283 0624 0B       		.byte	0xb
 2284 0625 3A       		.byte	0x3a
 2285 0626 03       		.byte	0x3
 2286 0627 1B050000 		.4byte	0x51b
 2287 062b 0C       		.uleb128 0xc
 2288 062c 1F060000 		.4byte	0x61f
 2289 0630 0F       		.uleb128 0xf
 2290 0631 D7020000 		.4byte	.LASF94
 2291 0635 0B       		.byte	0xb
 2292 0636 77       		.byte	0x77
 2293 0637 1D       		.byte	0x1d
 2294 0638 2B060000 		.4byte	0x62b
 2295 063c 03       		.uleb128 0x3
 2296 063d 79030000 		.4byte	.LASF95
 2297 0641 0C       		.byte	0xc
 2298 0642 30       		.byte	0x30
 2299 0643 1D       		.byte	0x1d
 2300 0644 48060000 		.4byte	0x648
 2301 0648 06       		.uleb128 0x6
 2302 0649 79030000 		.4byte	.LASF95
 2303 064d 24       		.byte	0x24
 2304 064e 0C       		.byte	0xc
 2305 064f 3E       		.byte	0x3e
 2306 0650 08       		.byte	0x8
 2307 0651 BE060000 		.4byte	0x6be
 2308 0655 07       		.uleb128 0x7
 2309 0656 AC010000 		.4byte	.LASF96
 2310 065a 0C       		.byte	0xc
 2311 065b 3F       		.byte	0x3f
 2312 065c 19       		.byte	0x19
 2313 065d 53020000 		.4byte	0x253
 2314 0661 00       		.byte	0
 2315 0662 07       		.uleb128 0x7
 2316 0663 E4030000 		.4byte	.LASF97
 2317 0667 0C       		.byte	0xc
 2318 0668 40       		.byte	0x40
 2319 0669 19       		.byte	0x19
 2320 066a 2C000000 		.4byte	0x2c
 2321 066e 08       		.byte	0x8
 2322 066f 07       		.uleb128 0x7
 2323 0670 41020000 		.4byte	.LASF98
 2324 0674 0C       		.byte	0xc
 2325 0675 41       		.byte	0x41
 2326 0676 1A       		.byte	0x1a
 2327 0677 E1060000 		.4byte	0x6e1
 2328 067b 0C       		.byte	0xc
ARM GAS  /tmp/ccLBGe59.s 			page 42


 2329 067c 07       		.uleb128 0x7
 2330 067d 37010000 		.4byte	.LASF99
 2331 0681 0C       		.byte	0xc
 2332 0682 42       		.byte	0x42
 2333 0683 1A       		.byte	0x1a
 2334 0684 E1060000 		.4byte	0x6e1
 2335 0688 10       		.byte	0x10
 2336 0689 07       		.uleb128 0x7
 2337 068a 3C040000 		.4byte	.LASF100
 2338 068e 0C       		.byte	0xc
 2339 068f 44       		.byte	0x44
 2340 0690 1A       		.byte	0x1a
 2341 0691 E1060000 		.4byte	0x6e1
 2342 0695 14       		.byte	0x14
 2343 0696 07       		.uleb128 0x7
 2344 0697 CF040000 		.4byte	.LASF101
 2345 069b 0C       		.byte	0xc
 2346 069c 45       		.byte	0x45
 2347 069d 1A       		.byte	0x1a
 2348 069e E1060000 		.4byte	0x6e1
 2349 06a2 18       		.byte	0x18
 2350 06a3 07       		.uleb128 0x7
 2351 06a4 81060000 		.4byte	.LASF102
 2352 06a8 0C       		.byte	0xc
 2353 06a9 46       		.byte	0x46
 2354 06aa 19       		.byte	0x19
 2355 06ab BE060000 		.4byte	0x6be
 2356 06af 1C       		.byte	0x1c
 2357 06b0 07       		.uleb128 0x7
 2358 06b1 D0060000 		.4byte	.LASF103
 2359 06b5 0C       		.byte	0xc
 2360 06b6 47       		.byte	0x47
 2361 06b7 1A       		.byte	0x1a
 2362 06b8 9A020000 		.4byte	0x29a
 2363 06bc 20       		.byte	0x20
 2364 06bd 00       		.byte	0
 2365 06be 03       		.uleb128 0x3
 2366 06bf AE040000 		.4byte	.LASF104
 2367 06c3 0C       		.byte	0xc
 2368 06c4 33       		.byte	0x33
 2369 06c5 10       		.byte	0x10
 2370 06c6 CA060000 		.4byte	0x6ca
 2371 06ca 0A       		.uleb128 0xa
 2372 06cb 04       		.byte	0x4
 2373 06cc D0060000 		.4byte	0x6d0
 2374 06d0 0D       		.uleb128 0xd
 2375 06d1 DB060000 		.4byte	0x6db
 2376 06d5 0E       		.uleb128 0xe
 2377 06d6 DB060000 		.4byte	0x6db
 2378 06da 00       		.byte	0
 2379 06db 0A       		.uleb128 0xa
 2380 06dc 04       		.byte	0x4
 2381 06dd 3C060000 		.4byte	0x63c
 2382 06e1 0A       		.uleb128 0xa
 2383 06e2 04       		.byte	0x4
 2384 06e3 67000000 		.4byte	0x67
 2385 06e7 03       		.uleb128 0x3
ARM GAS  /tmp/ccLBGe59.s 			page 43


 2386 06e8 68030000 		.4byte	.LASF105
 2387 06ec 0C       		.byte	0xc
 2388 06ed 7B       		.byte	0x7b
 2389 06ee 16       		.byte	0x16
 2390 06ef 3C060000 		.4byte	0x63c
 2391 06f3 03       		.uleb128 0x3
 2392 06f4 06010000 		.4byte	.LASF106
 2393 06f8 0C       		.byte	0xc
 2394 06f9 EE       		.byte	0xee
 2395 06fa 16       		.byte	0x16
 2396 06fb 3C060000 		.4byte	0x63c
 2397 06ff 12       		.uleb128 0x12
 2398 0700 82020000 		.4byte	0x282
 2399 0704 0F070000 		.4byte	0x70f
 2400 0708 13       		.uleb128 0x13
 2401 0709 38000000 		.4byte	0x38
 2402 070d 26       		.byte	0x26
 2403 070e 00       		.byte	0
 2404 070f 0F       		.uleb128 0xf
 2405 0710 6C020000 		.4byte	.LASF107
 2406 0714 0D       		.byte	0xd
 2407 0715 82       		.byte	0x82
 2408 0716 08       		.byte	0x8
 2409 0717 FF060000 		.4byte	0x6ff
 2410 071b 06       		.uleb128 0x6
 2411 071c 5F050000 		.4byte	.LASF108
 2412 0720 10       		.byte	0x10
 2413 0721 0E       		.byte	0xe
 2414 0722 3F       		.byte	0x3f
 2415 0723 08       		.byte	0x8
 2416 0724 5D070000 		.4byte	0x75d
 2417 0728 07       		.uleb128 0x7
 2418 0729 F0020000 		.4byte	.LASF109
 2419 072d 0E       		.byte	0xe
 2420 072e 40       		.byte	0x40
 2421 072f 0F       		.byte	0xf
 2422 0730 03050000 		.4byte	0x503
 2423 0734 00       		.byte	0
 2424 0735 07       		.uleb128 0x7
 2425 0736 5F040000 		.4byte	.LASF110
 2426 073a 0E       		.byte	0xe
 2427 073b 41       		.byte	0x41
 2428 073c 0A       		.byte	0xa
 2429 073d 63070000 		.4byte	0x763
 2430 0741 04       		.byte	0x4
 2431 0742 07       		.uleb128 0x7
 2432 0743 A3010000 		.4byte	.LASF111
 2433 0747 0E       		.byte	0xe
 2434 0748 42       		.byte	0x42
 2435 0749 0A       		.byte	0xa
 2436 074a 63070000 		.4byte	0x763
 2437 074e 08       		.byte	0x8
 2438 074f 07       		.uleb128 0x7
 2439 0750 BF040000 		.4byte	.LASF112
 2440 0754 0E       		.byte	0xe
 2441 0755 43       		.byte	0x43
 2442 0756 0A       		.byte	0xa
ARM GAS  /tmp/ccLBGe59.s 			page 44


 2443 0757 63070000 		.4byte	0x763
 2444 075b 0C       		.byte	0xc
 2445 075c 00       		.byte	0
 2446 075d 0C       		.uleb128 0xc
 2447 075e 1B070000 		.4byte	0x71b
 2448 0762 14       		.uleb128 0x14
 2449 0763 0A       		.uleb128 0xa
 2450 0764 04       		.byte	0x4
 2451 0765 62070000 		.4byte	0x762
 2452 0769 15       		.uleb128 0x15
 2453 076a 7805     		.2byte	0x578
 2454 076c 0E       		.byte	0xe
 2455 076d 48       		.byte	0x48
 2456 076e 03       		.byte	0x3
 2457 076f B4070000 		.4byte	0x7b4
 2458 0773 08       		.uleb128 0x8
 2459 0774 543000   		.ascii	"T0\000"
 2460 0777 0E       		.byte	0xe
 2461 0778 49       		.byte	0x49
 2462 0779 05       		.byte	0x5
 2463 077a B4070000 		.4byte	0x7b4
 2464 077e 00       		.byte	0
 2465 077f 16       		.uleb128 0x16
 2466 0780 543100   		.ascii	"T1\000"
 2467 0783 0E       		.byte	0xe
 2468 0784 4A       		.byte	0x4a
 2469 0785 05       		.byte	0x5
 2470 0786 B4070000 		.4byte	0x7b4
 2471 078a 1801     		.2byte	0x118
 2472 078c 16       		.uleb128 0x16
 2473 078d 543200   		.ascii	"T2\000"
 2474 0790 0E       		.byte	0xe
 2475 0791 4B       		.byte	0x4b
 2476 0792 05       		.byte	0x5
 2477 0793 B4070000 		.4byte	0x7b4
 2478 0797 3002     		.2byte	0x230
 2479 0799 16       		.uleb128 0x16
 2480 079a 543300   		.ascii	"T3\000"
 2481 079d 0E       		.byte	0xe
 2482 079e 4C       		.byte	0x4c
 2483 079f 05       		.byte	0x5
 2484 07a0 B4070000 		.4byte	0x7b4
 2485 07a4 4803     		.2byte	0x348
 2486 07a6 16       		.uleb128 0x16
 2487 07a7 543400   		.ascii	"T4\000"
 2488 07aa 0E       		.byte	0xe
 2489 07ab 4D       		.byte	0x4d
 2490 07ac 05       		.byte	0x5
 2491 07ad B4070000 		.4byte	0x7b4
 2492 07b1 6004     		.2byte	0x460
 2493 07b3 00       		.byte	0
 2494 07b4 12       		.uleb128 0x12
 2495 07b5 82020000 		.4byte	0x282
 2496 07b9 C4070000 		.4byte	0x7c4
 2497 07bd 13       		.uleb128 0x13
 2498 07be 38000000 		.4byte	0x38
 2499 07c2 45       		.byte	0x45
ARM GAS  /tmp/ccLBGe59.s 			page 45


 2500 07c3 00       		.byte	0
 2501 07c4 17       		.uleb128 0x17
 2502 07c5 00060000 		.4byte	.LASF145
 2503 07c9 7805     		.2byte	0x578
 2504 07cb 0E       		.byte	0xe
 2505 07cc 47       		.byte	0x47
 2506 07cd 07       		.byte	0x7
 2507 07ce EA070000 		.4byte	0x7ea
 2508 07d2 18       		.uleb128 0x18
 2509 07d3 776100   		.ascii	"wa\000"
 2510 07d6 0E       		.byte	0xe
 2511 07d7 4E       		.byte	0x4e
 2512 07d8 05       		.byte	0x5
 2513 07d9 69070000 		.4byte	0x769
 2514 07dd 11       		.uleb128 0x11
 2515 07de 5D020000 		.4byte	.LASF113
 2516 07e2 0E       		.byte	0xe
 2517 07e3 4F       		.byte	0x4f
 2518 07e4 0B       		.byte	0xb
 2519 07e5 EA070000 		.4byte	0x7ea
 2520 07e9 00       		.byte	0
 2521 07ea 12       		.uleb128 0x12
 2522 07eb 67000000 		.4byte	0x67
 2523 07ef FB070000 		.4byte	0x7fb
 2524 07f3 19       		.uleb128 0x19
 2525 07f4 38000000 		.4byte	0x38
 2526 07f8 7705     		.2byte	0x577
 2527 07fa 00       		.byte	0
 2528 07fb 12       		.uleb128 0x12
 2529 07fc 4D020000 		.4byte	0x24d
 2530 0800 0B080000 		.4byte	0x80b
 2531 0804 13       		.uleb128 0x13
 2532 0805 38000000 		.4byte	0x38
 2533 0809 04       		.byte	0x4
 2534 080a 00       		.byte	0
 2535 080b 0F       		.uleb128 0xf
 2536 080c 40030000 		.4byte	.LASF114
 2537 0810 0E       		.byte	0xe
 2538 0811 A9       		.byte	0xa9
 2539 0812 10       		.byte	0x10
 2540 0813 FB070000 		.4byte	0x7fb
 2541 0817 0F       		.uleb128 0xf
 2542 0818 8A010000 		.4byte	.LASF115
 2543 081c 0E       		.byte	0xe
 2544 081d AA       		.byte	0xaa
 2545 081e 1B       		.byte	0x1b
 2546 081f C4070000 		.4byte	0x7c4
 2547 0823 12       		.uleb128 0x12
 2548 0824 9C020000 		.4byte	0x29c
 2549 0828 2E080000 		.4byte	0x82e
 2550 082c 1A       		.uleb128 0x1a
 2551 082d 00       		.byte	0
 2552 082e 0C       		.uleb128 0xc
 2553 082f 23080000 		.4byte	0x823
 2554 0833 1B       		.uleb128 0x1b
 2555 0834 776100   		.ascii	"wa\000"
 2556 0837 0E       		.byte	0xe
ARM GAS  /tmp/ccLBGe59.s 			page 46


 2557 0838 AB       		.byte	0xab
 2558 0839 18       		.byte	0x18
 2559 083a 2E080000 		.4byte	0x82e
 2560 083e 0F       		.uleb128 0xf
 2561 083f E0020000 		.4byte	.LASF116
 2562 0843 0E       		.byte	0xe
 2563 0844 AC       		.byte	0xac
 2564 0845 0F       		.byte	0xf
 2565 0846 A7000000 		.4byte	0xa7
 2566 084a 1C       		.uleb128 0x1c
 2567 084b 697100   		.ascii	"iq\000"
 2568 084e 01       		.byte	0x1
 2569 084f 46       		.byte	0x46
 2570 0850 08       		.byte	0x8
 2571 0851 E7060000 		.4byte	0x6e7
 2572 0855 05       		.uleb128 0x5
 2573 0856 03       		.byte	0x3
 2574 0857 00000000 		.4byte	iq
 2575 085b 1C       		.uleb128 0x1c
 2576 085c 6F7100   		.ascii	"oq\000"
 2577 085f 01       		.byte	0x1
 2578 0860 47       		.byte	0x47
 2579 0861 08       		.byte	0x8
 2580 0862 F3060000 		.4byte	0x6f3
 2581 0866 05       		.uleb128 0x5
 2582 0867 03       		.byte	0x3
 2583 0868 00000000 		.4byte	oq
 2584 086c 1D       		.uleb128 0x1d
 2585 086d 2E030000 		.4byte	.LASF117
 2586 0871 01       		.byte	0x1
 2587 0872 99       		.byte	0x99
 2588 0873 1A       		.byte	0x1a
 2589 0874 5D070000 		.4byte	0x75d
 2590 0878 05       		.uleb128 0x5
 2591 0879 03       		.byte	0x3
 2592 087a 00000000 		.4byte	testqueues1
 2593 087e 1D       		.uleb128 0x1d
 2594 087f 0E040000 		.4byte	.LASF118
 2595 0883 01       		.byte	0x1
 2596 0884 E7       		.byte	0xe7
 2597 0885 1A       		.byte	0x1a
 2598 0886 5D070000 		.4byte	0x75d
 2599 088a 05       		.uleb128 0x5
 2600 088b 03       		.byte	0x3
 2601 088c 00000000 		.4byte	testqueues2
 2602 0890 12       		.uleb128 0x12
 2603 0891 AB080000 		.4byte	0x8ab
 2604 0895 A0080000 		.4byte	0x8a0
 2605 0899 13       		.uleb128 0x13
 2606 089a 38000000 		.4byte	0x38
 2607 089e 02       		.byte	0x2
 2608 089f 00       		.byte	0
 2609 08a0 0C       		.uleb128 0xc
 2610 08a1 90080000 		.4byte	0x890
 2611 08a5 0A       		.uleb128 0xa
 2612 08a6 04       		.byte	0x4
 2613 08a7 5D070000 		.4byte	0x75d
ARM GAS  /tmp/ccLBGe59.s 			page 47


 2614 08ab 0C       		.uleb128 0xc
 2615 08ac A5080000 		.4byte	0x8a5
 2616 08b0 1D       		.uleb128 0x1d
 2617 08b1 29010000 		.4byte	.LASF119
 2618 08b5 01       		.byte	0x1
 2619 08b6 F2       		.byte	0xf2
 2620 08b7 25       		.byte	0x25
 2621 08b8 A0080000 		.4byte	0x8a0
 2622 08bc 05       		.uleb128 0x5
 2623 08bd 03       		.byte	0x3
 2624 08be 00000000 		.4byte	patternqueues
 2625 08c2 1E       		.uleb128 0x1e
 2626 08c3 BF030000 		.4byte	.LASF120
 2627 08c7 01       		.byte	0x1
 2628 08c8 B5       		.byte	0xb5
 2629 08c9 0D       		.byte	0xd
 2630 08ca 01       		.byte	0x1
 2631 08cb F0080000 		.4byte	0x8f0
 2632 08cf 1F       		.uleb128 0x1f
 2633 08d0 6900     		.ascii	"i\000"
 2634 08d2 01       		.byte	0x1
 2635 08d3 B6       		.byte	0xb6
 2636 08d4 0C       		.byte	0xc
 2637 08d5 38000000 		.4byte	0x38
 2638 08d9 1F       		.uleb128 0x1f
 2639 08da 6E00     		.ascii	"n\000"
 2640 08dc 01       		.byte	0x1
 2641 08dd B7       		.byte	0xb7
 2642 08de 0A       		.byte	0xa
 2643 08df 2C000000 		.4byte	0x2c
 2644 08e3 20       		.uleb128 0x20
 2645 08e4 1F       		.uleb128 0x1f
 2646 08e5 6300     		.ascii	"c\000"
 2647 08e7 01       		.byte	0x1
 2648 08e8 C3       		.byte	0xc3
 2649 08e9 0A       		.byte	0xa
 2650 08ea 09050000 		.4byte	0x509
 2651 08ee 00       		.byte	0
 2652 08ef 00       		.byte	0
 2653 08f0 21       		.uleb128 0x21
 2654 08f1 0D060000 		.4byte	.LASF122
 2655 08f5 01       		.byte	0x1
 2656 08f6 AE       		.byte	0xae
 2657 08f7 0E       		.byte	0xe
 2658 08f8 EF000000 		.4byte	0xef
 2659 08fc 00000000 		.4byte	.LFB12
 2660 0900 20000000 		.4byte	.LFE12-.LFB12
 2661 0904 01       		.uleb128 0x1
 2662 0905 9C       		.byte	0x9c
 2663 0906 3B090000 		.4byte	0x93b
 2664 090a 22       		.uleb128 0x22
 2665 090b 7000     		.ascii	"p\000"
 2666 090d 01       		.byte	0x1
 2667 090e AE       		.byte	0xae
 2668 090f 1C       		.byte	0x1c
 2669 0910 9A020000 		.4byte	0x29a
 2670 0914 04000000 		.4byte	.LLST1
ARM GAS  /tmp/ccLBGe59.s 			page 48


 2671 0918 00000000 		.4byte	.LVUS1
 2672 091c 23       		.uleb128 0x23
 2673 091d 14000000 		.4byte	.LVL7
 2674 0921 78100000 		.4byte	0x1078
 2675 0925 24       		.uleb128 0x24
 2676 0926 01       		.uleb128 0x1
 2677 0927 50       		.byte	0x50
 2678 0928 05       		.uleb128 0x5
 2679 0929 03       		.byte	0x3
 2680 092a 00000000 		.4byte	.LANCHOR1
 2681 092e 24       		.uleb128 0x24
 2682 092f 01       		.uleb128 0x1
 2683 0930 51       		.byte	0x51
 2684 0931 01       		.uleb128 0x1
 2685 0932 30       		.byte	0x30
 2686 0933 24       		.uleb128 0x24
 2687 0934 01       		.uleb128 0x1
 2688 0935 52       		.byte	0x52
 2689 0936 02       		.uleb128 0x2
 2690 0937 08       		.byte	0x8
 2691 0938 C8       		.byte	0xc8
 2692 0939 00       		.byte	0
 2693 093a 00       		.byte	0
 2694 093b 25       		.uleb128 0x25
 2695 093c 7C010000 		.4byte	.LASF124
 2696 0940 01       		.byte	0x1
 2697 0941 A9       		.byte	0xa9
 2698 0942 0D       		.byte	0xd
 2699 0943 00000000 		.4byte	.LFB11
 2700 0947 3C000000 		.4byte	.LFE11-.LFB11
 2701 094b 01       		.uleb128 0x1
 2702 094c 9C       		.byte	0x9c
 2703 094d 79090000 		.4byte	0x979
 2704 0951 23       		.uleb128 0x23
 2705 0952 28000000 		.4byte	.LVL8
 2706 0956 85100000 		.4byte	0x1085
 2707 095a 24       		.uleb128 0x24
 2708 095b 01       		.uleb128 0x1
 2709 095c 50       		.byte	0x50
 2710 095d 05       		.uleb128 0x5
 2711 095e 03       		.byte	0x3
 2712 095f 00000000 		.4byte	.LANCHOR1
 2713 0963 24       		.uleb128 0x24
 2714 0964 01       		.uleb128 0x1
 2715 0965 52       		.byte	0x52
 2716 0966 01       		.uleb128 0x1
 2717 0967 34       		.byte	0x34
 2718 0968 24       		.uleb128 0x24
 2719 0969 01       		.uleb128 0x1
 2720 096a 53       		.byte	0x53
 2721 096b 05       		.uleb128 0x5
 2722 096c 03       		.byte	0x3
 2723 096d 00000000 		.4byte	notify
 2724 0971 24       		.uleb128 0x24
 2725 0972 02       		.uleb128 0x2
 2726 0973 7D       		.byte	0x7d
 2727 0974 00       		.sleb128 0
ARM GAS  /tmp/ccLBGe59.s 			page 49


 2728 0975 01       		.uleb128 0x1
 2729 0976 30       		.byte	0x30
 2730 0977 00       		.byte	0
 2731 0978 00       		.byte	0
 2732 0979 1E       		.uleb128 0x1e
 2733 097a 1E030000 		.4byte	.LASF121
 2734 097e 01       		.byte	0x1
 2735 097f 5E       		.byte	0x5e
 2736 0980 0D       		.byte	0xd
 2737 0981 01       		.byte	0x1
 2738 0982 9B090000 		.4byte	0x99b
 2739 0986 1F       		.uleb128 0x1f
 2740 0987 6900     		.ascii	"i\000"
 2741 0989 01       		.byte	0x1
 2742 098a 5F       		.byte	0x5f
 2743 098b 0C       		.byte	0xc
 2744 098c 38000000 		.4byte	0x38
 2745 0990 1F       		.uleb128 0x1f
 2746 0991 6E00     		.ascii	"n\000"
 2747 0993 01       		.byte	0x1
 2748 0994 60       		.byte	0x60
 2749 0995 0A       		.byte	0xa
 2750 0996 2C000000 		.4byte	0x2c
 2751 099a 00       		.byte	0
 2752 099b 21       		.uleb128 0x21
 2753 099c 34040000 		.4byte	.LASF123
 2754 09a0 01       		.byte	0x1
 2755 09a1 57       		.byte	0x57
 2756 09a2 0E       		.byte	0xe
 2757 09a3 EF000000 		.4byte	0xef
 2758 09a7 00000000 		.4byte	.LFB9
 2759 09ab 1C000000 		.4byte	.LFE9-.LFB9
 2760 09af 01       		.uleb128 0x1
 2761 09b0 9C       		.byte	0x9c
 2762 09b1 E1090000 		.4byte	0x9e1
 2763 09b5 22       		.uleb128 0x22
 2764 09b6 7000     		.ascii	"p\000"
 2765 09b8 01       		.byte	0x1
 2766 09b9 57       		.byte	0x57
 2767 09ba 1C       		.byte	0x1c
 2768 09bb 9A020000 		.4byte	0x29a
 2769 09bf 29000000 		.4byte	.LLST0
 2770 09c3 25000000 		.4byte	.LVUS0
 2771 09c7 23       		.uleb128 0x23
 2772 09c8 10000000 		.4byte	.LVL3
 2773 09cc 92100000 		.4byte	0x1092
 2774 09d0 24       		.uleb128 0x24
 2775 09d1 01       		.uleb128 0x1
 2776 09d2 50       		.byte	0x50
 2777 09d3 05       		.uleb128 0x5
 2778 09d4 03       		.byte	0x3
 2779 09d5 00000000 		.4byte	.LANCHOR0
 2780 09d9 24       		.uleb128 0x24
 2781 09da 01       		.uleb128 0x1
 2782 09db 51       		.byte	0x51
 2783 09dc 02       		.uleb128 0x2
 2784 09dd 08       		.byte	0x8
ARM GAS  /tmp/ccLBGe59.s 			page 50


 2785 09de C8       		.byte	0xc8
 2786 09df 00       		.byte	0
 2787 09e0 00       		.byte	0
 2788 09e1 25       		.uleb128 0x25
 2789 09e2 8D040000 		.4byte	.LASF125
 2790 09e6 01       		.byte	0x1
 2791 09e7 52       		.byte	0x52
 2792 09e8 0D       		.byte	0xd
 2793 09e9 00000000 		.4byte	.LFB8
 2794 09ed 3C000000 		.4byte	.LFE8-.LFB8
 2795 09f1 01       		.uleb128 0x1
 2796 09f2 9C       		.byte	0x9c
 2797 09f3 1F0A0000 		.4byte	0xa1f
 2798 09f7 23       		.uleb128 0x23
 2799 09f8 28000000 		.4byte	.LVL4
 2800 09fc 9F100000 		.4byte	0x109f
 2801 0a00 24       		.uleb128 0x24
 2802 0a01 01       		.uleb128 0x1
 2803 0a02 50       		.byte	0x50
 2804 0a03 05       		.uleb128 0x5
 2805 0a04 03       		.byte	0x3
 2806 0a05 00000000 		.4byte	.LANCHOR0
 2807 0a09 24       		.uleb128 0x24
 2808 0a0a 01       		.uleb128 0x1
 2809 0a0b 52       		.byte	0x52
 2810 0a0c 01       		.uleb128 0x1
 2811 0a0d 34       		.byte	0x34
 2812 0a0e 24       		.uleb128 0x24
 2813 0a0f 01       		.uleb128 0x1
 2814 0a10 53       		.byte	0x53
 2815 0a11 05       		.uleb128 0x5
 2816 0a12 03       		.byte	0x3
 2817 0a13 00000000 		.4byte	notify
 2818 0a17 24       		.uleb128 0x24
 2819 0a18 02       		.uleb128 0x2
 2820 0a19 7D       		.byte	0x7d
 2821 0a1a 00       		.sleb128 0
 2822 0a1b 01       		.uleb128 0x1
 2823 0a1c 30       		.byte	0x30
 2824 0a1d 00       		.byte	0
 2825 0a1e 00       		.byte	0
 2826 0a1f 25       		.uleb128 0x25
 2827 0a20 28020000 		.4byte	.LASF126
 2828 0a24 01       		.byte	0x1
 2829 0a25 3D       		.byte	0x3d
 2830 0a26 0D       		.byte	0xd
 2831 0a27 00000000 		.4byte	.LFB7
 2832 0a2b 04000000 		.4byte	.LFE7-.LFB7
 2833 0a2f 01       		.uleb128 0x1
 2834 0a30 9C       		.byte	0x9c
 2835 0a31 430A0000 		.4byte	0xa43
 2836 0a35 26       		.uleb128 0x26
 2837 0a36 717000   		.ascii	"qp\000"
 2838 0a39 01       		.byte	0x1
 2839 0a3a 3D       		.byte	0x3d
 2840 0a3b 22       		.byte	0x22
 2841 0a3c DB060000 		.4byte	0x6db
ARM GAS  /tmp/ccLBGe59.s 			page 51


 2842 0a40 01       		.uleb128 0x1
 2843 0a41 50       		.byte	0x50
 2844 0a42 00       		.byte	0
 2845 0a43 27       		.uleb128 0x27
 2846 0a44 79090000 		.4byte	0x979
 2847 0a48 00000000 		.4byte	.LFB10
 2848 0a4c 6C030000 		.4byte	.LFE10-.LFB10
 2849 0a50 01       		.uleb128 0x1
 2850 0a51 9C       		.byte	0x9c
 2851 0a52 F70D0000 		.4byte	0xdf7
 2852 0a56 28       		.uleb128 0x28
 2853 0a57 86090000 		.4byte	0x986
 2854 0a5b 56000000 		.4byte	.LLST2
 2855 0a5f 4A000000 		.4byte	.LVUS2
 2856 0a63 29       		.uleb128 0x29
 2857 0a64 90090000 		.4byte	0x990
 2858 0a68 2A       		.uleb128 0x2a
 2859 0a69 79090000 		.4byte	0x979
 2860 0a6d 98000000 		.4byte	.LBI5
 2861 0a71 00       		.byte	.LVU76
 2862 0a72 00000000 		.4byte	.Ldebug_ranges0+0
 2863 0a76 01       		.byte	0x1
 2864 0a77 5E       		.byte	0x5e
 2865 0a78 0D       		.byte	0xd
 2866 0a79 660D0000 		.4byte	0xd66
 2867 0a7d 2B       		.uleb128 0x2b
 2868 0a7e 00000000 		.4byte	.Ldebug_ranges0+0
 2869 0a82 28       		.uleb128 0x28
 2870 0a83 86090000 		.4byte	0x986
 2871 0a87 C2000000 		.4byte	.LLST3
 2872 0a8b A6000000 		.4byte	.LVUS3
 2873 0a8f 28       		.uleb128 0x28
 2874 0a90 90090000 		.4byte	0x990
 2875 0a94 81010000 		.4byte	.LLST4
 2876 0a98 7B010000 		.4byte	.LVUS4
 2877 0a9c 2C       		.uleb128 0x2c
 2878 0a9d A8000000 		.4byte	.LVL18
 2879 0aa1 AC100000 		.4byte	0x10ac
 2880 0aa5 B00A0000 		.4byte	0xab0
 2881 0aa9 24       		.uleb128 0x24
 2882 0aaa 01       		.uleb128 0x1
 2883 0aab 50       		.byte	0x50
 2884 0aac 02       		.uleb128 0x2
 2885 0aad 74       		.byte	0x74
 2886 0aae 00       		.sleb128 0
 2887 0aaf 00       		.byte	0
 2888 0ab0 2C       		.uleb128 0x2c
 2889 0ab1 C0000000 		.4byte	.LVL19
 2890 0ab5 B9100000 		.4byte	0x10b9
 2891 0ab9 C30A0000 		.4byte	0xac3
 2892 0abd 24       		.uleb128 0x24
 2893 0abe 01       		.uleb128 0x1
 2894 0abf 50       		.byte	0x50
 2895 0ac0 01       		.uleb128 0x1
 2896 0ac1 33       		.byte	0x33
 2897 0ac2 00       		.byte	0
 2898 0ac3 2C       		.uleb128 0x2c
ARM GAS  /tmp/ccLBGe59.s 			page 52


 2899 0ac4 E0000000 		.4byte	.LVL22
 2900 0ac8 92100000 		.4byte	0x1092
 2901 0acc DD0A0000 		.4byte	0xadd
 2902 0ad0 24       		.uleb128 0x24
 2903 0ad1 01       		.uleb128 0x1
 2904 0ad2 50       		.byte	0x50
 2905 0ad3 02       		.uleb128 0x2
 2906 0ad4 74       		.byte	0x74
 2907 0ad5 00       		.sleb128 0
 2908 0ad6 24       		.uleb128 0x24
 2909 0ad7 01       		.uleb128 0x1
 2910 0ad8 51       		.byte	0x51
 2911 0ad9 02       		.uleb128 0x2
 2912 0ada 09       		.byte	0x9
 2913 0adb FF       		.byte	0xff
 2914 0adc 00       		.byte	0
 2915 0add 2D       		.uleb128 0x2d
 2916 0ade E8000000 		.4byte	.LVL23
 2917 0ae2 C5100000 		.4byte	0x10c5
 2918 0ae6 2C       		.uleb128 0x2c
 2919 0ae7 08010000 		.4byte	.LVL25
 2920 0aeb B9100000 		.4byte	0x10b9
 2921 0aef F90A0000 		.4byte	0xaf9
 2922 0af3 24       		.uleb128 0x24
 2923 0af4 01       		.uleb128 0x1
 2924 0af5 50       		.byte	0x50
 2925 0af6 01       		.uleb128 0x1
 2926 0af7 34       		.byte	0x34
 2927 0af8 00       		.byte	0
 2928 0af9 2C       		.uleb128 0x2c
 2929 0afa 20010000 		.4byte	.LVL26
 2930 0afe D1100000 		.4byte	0x10d1
 2931 0b02 150B0000 		.4byte	0xb15
 2932 0b06 24       		.uleb128 0x24
 2933 0b07 01       		.uleb128 0x1
 2934 0b08 50       		.byte	0x50
 2935 0b09 01       		.uleb128 0x1
 2936 0b0a 35       		.byte	0x35
 2937 0b0b 24       		.uleb128 0x24
 2938 0b0c 01       		.uleb128 0x1
 2939 0b0d 51       		.byte	0x51
 2940 0b0e 05       		.uleb128 0x5
 2941 0b0f 03       		.byte	0x3
 2942 0b10 00000000 		.4byte	.LC0
 2943 0b14 00       		.byte	0
 2944 0b15 2C       		.uleb128 0x2c
 2945 0b16 38010000 		.4byte	.LVL28
 2946 0b1a AC100000 		.4byte	0x10ac
 2947 0b1e 2F0B0000 		.4byte	0xb2f
 2948 0b22 24       		.uleb128 0x24
 2949 0b23 01       		.uleb128 0x1
 2950 0b24 50       		.byte	0x50
 2951 0b25 02       		.uleb128 0x2
 2952 0b26 74       		.byte	0x74
 2953 0b27 00       		.sleb128 0
 2954 0b28 24       		.uleb128 0x24
 2955 0b29 01       		.uleb128 0x1
ARM GAS  /tmp/ccLBGe59.s 			page 53


 2956 0b2a 51       		.byte	0x51
 2957 0b2b 02       		.uleb128 0x2
 2958 0b2c 08       		.byte	0x8
 2959 0b2d 41       		.byte	0x41
 2960 0b2e 00       		.byte	0
 2961 0b2f 2C       		.uleb128 0x2c
 2962 0b30 44010000 		.4byte	.LVL29
 2963 0b34 AC100000 		.4byte	0x10ac
 2964 0b38 490B0000 		.4byte	0xb49
 2965 0b3c 24       		.uleb128 0x24
 2966 0b3d 01       		.uleb128 0x1
 2967 0b3e 50       		.byte	0x50
 2968 0b3f 02       		.uleb128 0x2
 2969 0b40 74       		.byte	0x74
 2970 0b41 00       		.sleb128 0
 2971 0b42 24       		.uleb128 0x24
 2972 0b43 01       		.uleb128 0x1
 2973 0b44 51       		.byte	0x51
 2974 0b45 02       		.uleb128 0x2
 2975 0b46 08       		.byte	0x8
 2976 0b47 42       		.byte	0x42
 2977 0b48 00       		.byte	0
 2978 0b49 2C       		.uleb128 0x2c
 2979 0b4a 50010000 		.4byte	.LVL30
 2980 0b4e AC100000 		.4byte	0x10ac
 2981 0b52 630B0000 		.4byte	0xb63
 2982 0b56 24       		.uleb128 0x24
 2983 0b57 01       		.uleb128 0x1
 2984 0b58 50       		.byte	0x50
 2985 0b59 02       		.uleb128 0x2
 2986 0b5a 74       		.byte	0x74
 2987 0b5b 00       		.sleb128 0
 2988 0b5c 24       		.uleb128 0x24
 2989 0b5d 01       		.uleb128 0x1
 2990 0b5e 51       		.byte	0x51
 2991 0b5f 02       		.uleb128 0x2
 2992 0b60 08       		.byte	0x8
 2993 0b61 43       		.byte	0x43
 2994 0b62 00       		.byte	0
 2995 0b63 2C       		.uleb128 0x2c
 2996 0b64 5C010000 		.4byte	.LVL31
 2997 0b68 AC100000 		.4byte	0x10ac
 2998 0b6c 7D0B0000 		.4byte	0xb7d
 2999 0b70 24       		.uleb128 0x24
 3000 0b71 01       		.uleb128 0x1
 3001 0b72 50       		.byte	0x50
 3002 0b73 02       		.uleb128 0x2
 3003 0b74 74       		.byte	0x74
 3004 0b75 00       		.sleb128 0
 3005 0b76 24       		.uleb128 0x24
 3006 0b77 01       		.uleb128 0x1
 3007 0b78 51       		.byte	0x51
 3008 0b79 02       		.uleb128 0x2
 3009 0b7a 08       		.byte	0x8
 3010 0b7b 44       		.byte	0x44
 3011 0b7c 00       		.byte	0
 3012 0b7d 2C       		.uleb128 0x2c
ARM GAS  /tmp/ccLBGe59.s 			page 54


 3013 0b7e 7C010000 		.4byte	.LVL32
 3014 0b82 DD100000 		.4byte	0x10dd
 3015 0b86 A20B0000 		.4byte	0xba2
 3016 0b8a 24       		.uleb128 0x24
 3017 0b8b 01       		.uleb128 0x1
 3018 0b8c 50       		.byte	0x50
 3019 0b8d 02       		.uleb128 0x2
 3020 0b8e 74       		.byte	0x74
 3021 0b8f 00       		.sleb128 0
 3022 0b90 24       		.uleb128 0x24
 3023 0b91 01       		.uleb128 0x1
 3024 0b92 51       		.byte	0x51
 3025 0b93 02       		.uleb128 0x2
 3026 0b94 76       		.byte	0x76
 3027 0b95 00       		.sleb128 0
 3028 0b96 24       		.uleb128 0x24
 3029 0b97 01       		.uleb128 0x1
 3030 0b98 52       		.byte	0x52
 3031 0b99 01       		.uleb128 0x1
 3032 0b9a 38       		.byte	0x38
 3033 0b9b 24       		.uleb128 0x24
 3034 0b9c 01       		.uleb128 0x1
 3035 0b9d 53       		.byte	0x53
 3036 0b9e 02       		.uleb128 0x2
 3037 0b9f 75       		.byte	0x75
 3038 0ba0 00       		.sleb128 0
 3039 0ba1 00       		.byte	0
 3040 0ba2 2C       		.uleb128 0x2c
 3041 0ba3 94010000 		.4byte	.LVL35
 3042 0ba7 B9100000 		.4byte	0x10b9
 3043 0bab B50B0000 		.4byte	0xbb5
 3044 0baf 24       		.uleb128 0x24
 3045 0bb0 01       		.uleb128 0x1
 3046 0bb1 50       		.byte	0x50
 3047 0bb2 01       		.uleb128 0x1
 3048 0bb3 36       		.byte	0x36
 3049 0bb4 00       		.byte	0
 3050 0bb5 2C       		.uleb128 0x2c
 3051 0bb6 B4010000 		.4byte	.LVL36
 3052 0bba B9100000 		.4byte	0x10b9
 3053 0bbe C80B0000 		.4byte	0xbc8
 3054 0bc2 24       		.uleb128 0x24
 3055 0bc3 01       		.uleb128 0x1
 3056 0bc4 50       		.byte	0x50
 3057 0bc5 01       		.uleb128 0x1
 3058 0bc6 37       		.byte	0x37
 3059 0bc7 00       		.byte	0
 3060 0bc8 2C       		.uleb128 0x2c
 3061 0bc9 D0010000 		.4byte	.LVL38
 3062 0bcd AC100000 		.4byte	0x10ac
 3063 0bd1 E20B0000 		.4byte	0xbe2
 3064 0bd5 24       		.uleb128 0x24
 3065 0bd6 01       		.uleb128 0x1
 3066 0bd7 50       		.byte	0x50
 3067 0bd8 02       		.uleb128 0x2
 3068 0bd9 74       		.byte	0x74
 3069 0bda 00       		.sleb128 0
ARM GAS  /tmp/ccLBGe59.s 			page 55


 3070 0bdb 24       		.uleb128 0x24
 3071 0bdc 01       		.uleb128 0x1
 3072 0bdd 51       		.byte	0x51
 3073 0bde 02       		.uleb128 0x2
 3074 0bdf 08       		.byte	0x8
 3075 0be0 41       		.byte	0x41
 3076 0be1 00       		.byte	0
 3077 0be2 2C       		.uleb128 0x2c
 3078 0be3 DC010000 		.4byte	.LVL39
 3079 0be7 AC100000 		.4byte	0x10ac
 3080 0beb FC0B0000 		.4byte	0xbfc
 3081 0bef 24       		.uleb128 0x24
 3082 0bf0 01       		.uleb128 0x1
 3083 0bf1 50       		.byte	0x50
 3084 0bf2 02       		.uleb128 0x2
 3085 0bf3 74       		.byte	0x74
 3086 0bf4 00       		.sleb128 0
 3087 0bf5 24       		.uleb128 0x24
 3088 0bf6 01       		.uleb128 0x1
 3089 0bf7 51       		.byte	0x51
 3090 0bf8 02       		.uleb128 0x2
 3091 0bf9 08       		.byte	0x8
 3092 0bfa 42       		.byte	0x42
 3093 0bfb 00       		.byte	0
 3094 0bfc 2C       		.uleb128 0x2c
 3095 0bfd E8010000 		.4byte	.LVL40
 3096 0c01 AC100000 		.4byte	0x10ac
 3097 0c05 160C0000 		.4byte	0xc16
 3098 0c09 24       		.uleb128 0x24
 3099 0c0a 01       		.uleb128 0x1
 3100 0c0b 50       		.byte	0x50
 3101 0c0c 02       		.uleb128 0x2
 3102 0c0d 74       		.byte	0x74
 3103 0c0e 00       		.sleb128 0
 3104 0c0f 24       		.uleb128 0x24
 3105 0c10 01       		.uleb128 0x1
 3106 0c11 51       		.byte	0x51
 3107 0c12 02       		.uleb128 0x2
 3108 0c13 08       		.byte	0x8
 3109 0c14 43       		.byte	0x43
 3110 0c15 00       		.byte	0
 3111 0c16 2C       		.uleb128 0x2c
 3112 0c17 F4010000 		.4byte	.LVL41
 3113 0c1b AC100000 		.4byte	0x10ac
 3114 0c1f 300C0000 		.4byte	0xc30
 3115 0c23 24       		.uleb128 0x24
 3116 0c24 01       		.uleb128 0x1
 3117 0c25 50       		.byte	0x50
 3118 0c26 02       		.uleb128 0x2
 3119 0c27 74       		.byte	0x74
 3120 0c28 00       		.sleb128 0
 3121 0c29 24       		.uleb128 0x24
 3122 0c2a 01       		.uleb128 0x1
 3123 0c2b 51       		.byte	0x51
 3124 0c2c 02       		.uleb128 0x2
 3125 0c2d 08       		.byte	0x8
 3126 0c2e 44       		.byte	0x44
ARM GAS  /tmp/ccLBGe59.s 			page 56


 3127 0c2f 00       		.byte	0
 3128 0c30 2C       		.uleb128 0x2c
 3129 0c31 0C020000 		.4byte	.LVL42
 3130 0c35 DD100000 		.4byte	0x10dd
 3131 0c39 550C0000 		.4byte	0xc55
 3132 0c3d 24       		.uleb128 0x24
 3133 0c3e 01       		.uleb128 0x1
 3134 0c3f 50       		.byte	0x50
 3135 0c40 02       		.uleb128 0x2
 3136 0c41 74       		.byte	0x74
 3137 0c42 00       		.sleb128 0
 3138 0c43 24       		.uleb128 0x24
 3139 0c44 01       		.uleb128 0x1
 3140 0c45 51       		.byte	0x51
 3141 0c46 02       		.uleb128 0x2
 3142 0c47 76       		.byte	0x76
 3143 0c48 00       		.sleb128 0
 3144 0c49 24       		.uleb128 0x24
 3145 0c4a 01       		.uleb128 0x1
 3146 0c4b 52       		.byte	0x52
 3147 0c4c 01       		.uleb128 0x1
 3148 0c4d 32       		.byte	0x32
 3149 0c4e 24       		.uleb128 0x24
 3150 0c4f 01       		.uleb128 0x1
 3151 0c50 53       		.byte	0x53
 3152 0c51 02       		.uleb128 0x2
 3153 0c52 75       		.byte	0x75
 3154 0c53 00       		.sleb128 0
 3155 0c54 00       		.byte	0
 3156 0c55 2C       		.uleb128 0x2c
 3157 0c56 24020000 		.4byte	.LVL45
 3158 0c5a B9100000 		.4byte	0x10b9
 3159 0c5e 680C0000 		.4byte	0xc68
 3160 0c62 24       		.uleb128 0x24
 3161 0c63 01       		.uleb128 0x1
 3162 0c64 50       		.byte	0x50
 3163 0c65 01       		.uleb128 0x1
 3164 0c66 38       		.byte	0x38
 3165 0c67 00       		.byte	0
 3166 0c68 2C       		.uleb128 0x2c
 3167 0c69 40020000 		.4byte	.LVL46
 3168 0c6d DD100000 		.4byte	0x10dd
 3169 0c71 8D0C0000 		.4byte	0xc8d
 3170 0c75 24       		.uleb128 0x24
 3171 0c76 01       		.uleb128 0x1
 3172 0c77 50       		.byte	0x50
 3173 0c78 02       		.uleb128 0x2
 3174 0c79 74       		.byte	0x74
 3175 0c7a 00       		.sleb128 0
 3176 0c7b 24       		.uleb128 0x24
 3177 0c7c 01       		.uleb128 0x1
 3178 0c7d 51       		.byte	0x51
 3179 0c7e 02       		.uleb128 0x2
 3180 0c7f 76       		.byte	0x76
 3181 0c80 00       		.sleb128 0
 3182 0c81 24       		.uleb128 0x24
 3183 0c82 01       		.uleb128 0x1
ARM GAS  /tmp/ccLBGe59.s 			page 57


 3184 0c83 52       		.byte	0x52
 3185 0c84 01       		.uleb128 0x1
 3186 0c85 32       		.byte	0x32
 3187 0c86 24       		.uleb128 0x24
 3188 0c87 01       		.uleb128 0x1
 3189 0c88 53       		.byte	0x53
 3190 0c89 02       		.uleb128 0x2
 3191 0c8a 75       		.byte	0x75
 3192 0c8b 00       		.sleb128 0
 3193 0c8c 00       		.byte	0
 3194 0c8d 2C       		.uleb128 0x2c
 3195 0c8e 58020000 		.4byte	.LVL49
 3196 0c92 B9100000 		.4byte	0x10b9
 3197 0c96 A00C0000 		.4byte	0xca0
 3198 0c9a 24       		.uleb128 0x24
 3199 0c9b 01       		.uleb128 0x1
 3200 0c9c 50       		.byte	0x50
 3201 0c9d 01       		.uleb128 0x1
 3202 0c9e 39       		.byte	0x39
 3203 0c9f 00       		.byte	0
 3204 0ca0 2C       		.uleb128 0x2c
 3205 0ca1 78020000 		.4byte	.LVL50
 3206 0ca5 B9100000 		.4byte	0x10b9
 3207 0ca9 B30C0000 		.4byte	0xcb3
 3208 0cad 24       		.uleb128 0x24
 3209 0cae 01       		.uleb128 0x1
 3210 0caf 50       		.byte	0x50
 3211 0cb0 01       		.uleb128 0x1
 3212 0cb1 3A       		.byte	0x3a
 3213 0cb2 00       		.byte	0
 3214 0cb3 2C       		.uleb128 0x2c
 3215 0cb4 94020000 		.4byte	.LVL51
 3216 0cb8 AC100000 		.4byte	0x10ac
 3217 0cbc CD0C0000 		.4byte	0xccd
 3218 0cc0 24       		.uleb128 0x24
 3219 0cc1 01       		.uleb128 0x1
 3220 0cc2 50       		.byte	0x50
 3221 0cc3 02       		.uleb128 0x2
 3222 0cc4 74       		.byte	0x74
 3223 0cc5 00       		.sleb128 0
 3224 0cc6 24       		.uleb128 0x24
 3225 0cc7 01       		.uleb128 0x1
 3226 0cc8 51       		.byte	0x51
 3227 0cc9 02       		.uleb128 0x2
 3228 0cca 75       		.byte	0x75
 3229 0ccb 00       		.sleb128 0
 3230 0ccc 00       		.byte	0
 3231 0ccd 2C       		.uleb128 0x2c
 3232 0cce 9C020000 		.4byte	.LVL52
 3233 0cd2 EA100000 		.4byte	0x10ea
 3234 0cd6 E10C0000 		.4byte	0xce1
 3235 0cda 24       		.uleb128 0x24
 3236 0cdb 01       		.uleb128 0x1
 3237 0cdc 50       		.byte	0x50
 3238 0cdd 02       		.uleb128 0x2
 3239 0cde 74       		.byte	0x74
 3240 0cdf 00       		.sleb128 0
ARM GAS  /tmp/ccLBGe59.s 			page 58


 3241 0ce0 00       		.byte	0
 3242 0ce1 2C       		.uleb128 0x2c
 3243 0ce2 B8020000 		.4byte	.LVL53
 3244 0ce6 B9100000 		.4byte	0x10b9
 3245 0cea F40C0000 		.4byte	0xcf4
 3246 0cee 24       		.uleb128 0x24
 3247 0cef 01       		.uleb128 0x1
 3248 0cf0 50       		.byte	0x50
 3249 0cf1 01       		.uleb128 0x1
 3250 0cf2 3B       		.byte	0x3b
 3251 0cf3 00       		.byte	0
 3252 0cf4 2C       		.uleb128 0x2c
 3253 0cf5 E8020000 		.4byte	.LVL54
 3254 0cf9 F7100000 		.4byte	0x10f7
 3255 0cfd 200D0000 		.4byte	0xd20
 3256 0d01 24       		.uleb128 0x24
 3257 0d02 01       		.uleb128 0x1
 3258 0d03 50       		.byte	0x50
 3259 0d04 03       		.uleb128 0x3
 3260 0d05 77       		.byte	0x77
 3261 0d06 00       		.sleb128 0
 3262 0d07 06       		.byte	0x6
 3263 0d08 24       		.uleb128 0x24
 3264 0d09 01       		.uleb128 0x1
 3265 0d0a 51       		.byte	0x51
 3266 0d0b 03       		.uleb128 0x3
 3267 0d0c 0A       		.byte	0xa
 3268 0d0d 1801     		.2byte	0x118
 3269 0d0f 24       		.uleb128 0x24
 3270 0d10 01       		.uleb128 0x1
 3271 0d11 53       		.byte	0x53
 3272 0d12 05       		.uleb128 0x5
 3273 0d13 03       		.byte	0x3
 3274 0d14 00000000 		.4byte	thread1
 3275 0d18 24       		.uleb128 0x24
 3276 0d19 02       		.uleb128 0x2
 3277 0d1a 7D       		.byte	0x7d
 3278 0d1b 00       		.sleb128 0
 3279 0d1c 02       		.uleb128 0x2
 3280 0d1d 75       		.byte	0x75
 3281 0d1e 00       		.sleb128 0
 3282 0d1f 00       		.byte	0
 3283 0d20 2C       		.uleb128 0x2c
 3284 0d21 08030000 		.4byte	.LVL55
 3285 0d25 B9100000 		.4byte	0x10b9
 3286 0d29 330D0000 		.4byte	0xd33
 3287 0d2d 24       		.uleb128 0x24
 3288 0d2e 01       		.uleb128 0x1
 3289 0d2f 50       		.byte	0x50
 3290 0d30 01       		.uleb128 0x1
 3291 0d31 3C       		.byte	0x3c
 3292 0d32 00       		.byte	0
 3293 0d33 2D       		.uleb128 0x2d
 3294 0d34 18030000 		.4byte	.LVL56
 3295 0d38 04110000 		.4byte	0x1104
 3296 0d3c 2C       		.uleb128 0x2c
 3297 0d3d 24030000 		.4byte	.LVL57
ARM GAS  /tmp/ccLBGe59.s 			page 59


 3298 0d41 92100000 		.4byte	0x1092
 3299 0d45 550D0000 		.4byte	0xd55
 3300 0d49 24       		.uleb128 0x24
 3301 0d4a 01       		.uleb128 0x1
 3302 0d4b 50       		.byte	0x50
 3303 0d4c 02       		.uleb128 0x2
 3304 0d4d 74       		.byte	0x74
 3305 0d4e 00       		.sleb128 0
 3306 0d4f 24       		.uleb128 0x24
 3307 0d50 01       		.uleb128 0x1
 3308 0d51 51       		.byte	0x51
 3309 0d52 01       		.uleb128 0x1
 3310 0d53 3A       		.byte	0x3a
 3311 0d54 00       		.byte	0
 3312 0d55 2E       		.uleb128 0x2e
 3313 0d56 44030000 		.4byte	.LVL58
 3314 0d5a B9100000 		.4byte	0x10b9
 3315 0d5e 24       		.uleb128 0x24
 3316 0d5f 01       		.uleb128 0x1
 3317 0d60 50       		.byte	0x50
 3318 0d61 01       		.uleb128 0x1
 3319 0d62 3D       		.byte	0x3d
 3320 0d63 00       		.byte	0
 3321 0d64 00       		.byte	0
 3322 0d65 00       		.byte	0
 3323 0d66 2C       		.uleb128 0x2c
 3324 0d67 24000000 		.4byte	.LVL9
 3325 0d6b B9100000 		.4byte	0x10b9
 3326 0d6f 790D0000 		.4byte	0xd79
 3327 0d73 24       		.uleb128 0x24
 3328 0d74 01       		.uleb128 0x1
 3329 0d75 50       		.byte	0x50
 3330 0d76 01       		.uleb128 0x1
 3331 0d77 31       		.byte	0x31
 3332 0d78 00       		.byte	0
 3333 0d79 2C       		.uleb128 0x2c
 3334 0d7a 40000000 		.4byte	.LVL11
 3335 0d7e AC100000 		.4byte	0x10ac
 3336 0d82 930D0000 		.4byte	0xd93
 3337 0d86 24       		.uleb128 0x24
 3338 0d87 01       		.uleb128 0x1
 3339 0d88 50       		.byte	0x50
 3340 0d89 02       		.uleb128 0x2
 3341 0d8a 74       		.byte	0x74
 3342 0d8b 00       		.sleb128 0
 3343 0d8c 24       		.uleb128 0x24
 3344 0d8d 01       		.uleb128 0x1
 3345 0d8e 51       		.byte	0x51
 3346 0d8f 02       		.uleb128 0x2
 3347 0d90 08       		.byte	0x8
 3348 0d91 41       		.byte	0x41
 3349 0d92 00       		.byte	0
 3350 0d93 2C       		.uleb128 0x2c
 3351 0d94 4C000000 		.4byte	.LVL12
 3352 0d98 AC100000 		.4byte	0x10ac
 3353 0d9c AD0D0000 		.4byte	0xdad
 3354 0da0 24       		.uleb128 0x24
ARM GAS  /tmp/ccLBGe59.s 			page 60


 3355 0da1 01       		.uleb128 0x1
 3356 0da2 50       		.byte	0x50
 3357 0da3 02       		.uleb128 0x2
 3358 0da4 74       		.byte	0x74
 3359 0da5 00       		.sleb128 0
 3360 0da6 24       		.uleb128 0x24
 3361 0da7 01       		.uleb128 0x1
 3362 0da8 51       		.byte	0x51
 3363 0da9 02       		.uleb128 0x2
 3364 0daa 08       		.byte	0x8
 3365 0dab 42       		.byte	0x42
 3366 0dac 00       		.byte	0
 3367 0dad 2C       		.uleb128 0x2c
 3368 0dae 58000000 		.4byte	.LVL13
 3369 0db2 AC100000 		.4byte	0x10ac
 3370 0db6 C70D0000 		.4byte	0xdc7
 3371 0dba 24       		.uleb128 0x24
 3372 0dbb 01       		.uleb128 0x1
 3373 0dbc 50       		.byte	0x50
 3374 0dbd 02       		.uleb128 0x2
 3375 0dbe 74       		.byte	0x74
 3376 0dbf 00       		.sleb128 0
 3377 0dc0 24       		.uleb128 0x24
 3378 0dc1 01       		.uleb128 0x1
 3379 0dc2 51       		.byte	0x51
 3380 0dc3 02       		.uleb128 0x2
 3381 0dc4 08       		.byte	0x8
 3382 0dc5 43       		.byte	0x43
 3383 0dc6 00       		.byte	0
 3384 0dc7 2C       		.uleb128 0x2c
 3385 0dc8 64000000 		.4byte	.LVL14
 3386 0dcc AC100000 		.4byte	0x10ac
 3387 0dd0 E10D0000 		.4byte	0xde1
 3388 0dd4 24       		.uleb128 0x24
 3389 0dd5 01       		.uleb128 0x1
 3390 0dd6 50       		.byte	0x50
 3391 0dd7 02       		.uleb128 0x2
 3392 0dd8 74       		.byte	0x74
 3393 0dd9 00       		.sleb128 0
 3394 0dda 24       		.uleb128 0x24
 3395 0ddb 01       		.uleb128 0x1
 3396 0ddc 51       		.byte	0x51
 3397 0ddd 02       		.uleb128 0x2
 3398 0dde 08       		.byte	0x8
 3399 0ddf 44       		.byte	0x44
 3400 0de0 00       		.byte	0
 3401 0de1 23       		.uleb128 0x23
 3402 0de2 84000000 		.4byte	.LVL15
 3403 0de6 B9100000 		.4byte	0x10b9
 3404 0dea 24       		.uleb128 0x24
 3405 0deb 01       		.uleb128 0x1
 3406 0dec 50       		.byte	0x50
 3407 0ded 01       		.uleb128 0x1
 3408 0dee 32       		.byte	0x32
 3409 0def 24       		.uleb128 0x24
 3410 0df0 01       		.uleb128 0x1
 3411 0df1 51       		.byte	0x51
ARM GAS  /tmp/ccLBGe59.s 			page 61


 3412 0df2 02       		.uleb128 0x2
 3413 0df3 75       		.byte	0x75
 3414 0df4 00       		.sleb128 0
 3415 0df5 00       		.byte	0
 3416 0df6 00       		.byte	0
 3417 0df7 27       		.uleb128 0x27
 3418 0df8 C2080000 		.4byte	0x8c2
 3419 0dfc 00000000 		.4byte	.LFB13
 3420 0e00 10030000 		.4byte	.LFE13-.LFB13
 3421 0e04 01       		.uleb128 0x1
 3422 0e05 9C       		.byte	0x9c
 3423 0e06 78100000 		.4byte	0x1078
 3424 0e0a 28       		.uleb128 0x28
 3425 0e0b CF080000 		.4byte	0x8cf
 3426 0e0f AC010000 		.4byte	.LLST5
 3427 0e13 AA010000 		.4byte	.LVUS5
 3428 0e17 29       		.uleb128 0x29
 3429 0e18 D9080000 		.4byte	0x8d9
 3430 0e1c 2A       		.uleb128 0x2a
 3431 0e1d C2080000 		.4byte	0x8c2
 3432 0e21 7C000000 		.4byte	.LBI14
 3433 0e25 00       		.byte	.LVU244
 3434 0e26 20000000 		.4byte	.Ldebug_ranges0+0x20
 3435 0e2a 01       		.byte	0x1
 3436 0e2b B5       		.byte	0xb5
 3437 0e2c 0D       		.byte	0xd
 3438 0e2d 3B100000 		.4byte	0x103b
 3439 0e31 2B       		.uleb128 0x2b
 3440 0e32 20000000 		.4byte	.Ldebug_ranges0+0x20
 3441 0e36 28       		.uleb128 0x28
 3442 0e37 CF080000 		.4byte	0x8cf
 3443 0e3b CA010000 		.4byte	.LLST6
 3444 0e3f C0010000 		.4byte	.LVUS6
 3445 0e43 28       		.uleb128 0x28
 3446 0e44 D9080000 		.4byte	0x8d9
 3447 0e48 20020000 		.4byte	.LLST7
 3448 0e4c 1A020000 		.4byte	.LVUS7
 3449 0e50 2F       		.uleb128 0x2f
 3450 0e51 E3080000 		.4byte	0x8e3
 3451 0e55 84000000 		.4byte	.LBB16
 3452 0e59 1C000000 		.4byte	.LBE16-.LBB16
 3453 0e5d 8C0E0000 		.4byte	0xe8c
 3454 0e61 28       		.uleb128 0x28
 3455 0e62 E4080000 		.4byte	0x8e4
 3456 0e66 4B020000 		.4byte	.LLST8
 3457 0e6a 49020000 		.4byte	.LVUS8
 3458 0e6e 2C       		.uleb128 0x2c
 3459 0e6f 94000000 		.4byte	.LVL66
 3460 0e73 10110000 		.4byte	0x1110
 3461 0e77 820E0000 		.4byte	0xe82
 3462 0e7b 24       		.uleb128 0x24
 3463 0e7c 01       		.uleb128 0x1
 3464 0e7d 50       		.byte	0x50
 3465 0e7e 02       		.uleb128 0x2
 3466 0e7f 75       		.byte	0x75
 3467 0e80 00       		.sleb128 0
 3468 0e81 00       		.byte	0
ARM GAS  /tmp/ccLBGe59.s 			page 62


 3469 0e82 2D       		.uleb128 0x2d
 3470 0e83 A0000000 		.4byte	.LVL67
 3471 0e87 C5100000 		.4byte	0x10c5
 3472 0e8b 00       		.byte	0
 3473 0e8c 2C       		.uleb128 0x2c
 3474 0e8d C4000000 		.4byte	.LVL69
 3475 0e91 B9100000 		.4byte	0x10b9
 3476 0e95 A50E0000 		.4byte	0xea5
 3477 0e99 24       		.uleb128 0x24
 3478 0e9a 01       		.uleb128 0x1
 3479 0e9b 50       		.byte	0x50
 3480 0e9c 01       		.uleb128 0x1
 3481 0e9d 33       		.byte	0x33
 3482 0e9e 24       		.uleb128 0x24
 3483 0e9f 01       		.uleb128 0x1
 3484 0ea0 51       		.byte	0x51
 3485 0ea1 02       		.uleb128 0x2
 3486 0ea2 76       		.byte	0x76
 3487 0ea3 00       		.sleb128 0
 3488 0ea4 00       		.byte	0
 3489 0ea5 2C       		.uleb128 0x2c
 3490 0ea6 DC000000 		.4byte	.LVL70
 3491 0eaa D1100000 		.4byte	0x10d1
 3492 0eae C10E0000 		.4byte	0xec1
 3493 0eb2 24       		.uleb128 0x24
 3494 0eb3 01       		.uleb128 0x1
 3495 0eb4 50       		.byte	0x50
 3496 0eb5 01       		.uleb128 0x1
 3497 0eb6 34       		.byte	0x34
 3498 0eb7 24       		.uleb128 0x24
 3499 0eb8 01       		.uleb128 0x1
 3500 0eb9 51       		.byte	0x51
 3501 0eba 05       		.uleb128 0x5
 3502 0ebb 03       		.byte	0x3
 3503 0ebc 00000000 		.4byte	.LC0
 3504 0ec0 00       		.byte	0
 3505 0ec1 2C       		.uleb128 0x2c
 3506 0ec2 F0000000 		.4byte	.LVL71
 3507 0ec6 10110000 		.4byte	0x1110
 3508 0eca D50E0000 		.4byte	0xed5
 3509 0ece 24       		.uleb128 0x24
 3510 0ecf 01       		.uleb128 0x1
 3511 0ed0 50       		.byte	0x50
 3512 0ed1 02       		.uleb128 0x2
 3513 0ed2 75       		.byte	0x75
 3514 0ed3 00       		.sleb128 0
 3515 0ed4 00       		.byte	0
 3516 0ed5 2C       		.uleb128 0x2c
 3517 0ed6 08010000 		.4byte	.LVL72
 3518 0eda B9100000 		.4byte	0x10b9
 3519 0ede E80E0000 		.4byte	0xee8
 3520 0ee2 24       		.uleb128 0x24
 3521 0ee3 01       		.uleb128 0x1
 3522 0ee4 50       		.byte	0x50
 3523 0ee5 01       		.uleb128 0x1
 3524 0ee6 35       		.byte	0x35
 3525 0ee7 00       		.byte	0
ARM GAS  /tmp/ccLBGe59.s 			page 63


 3526 0ee8 2C       		.uleb128 0x2c
 3527 0ee9 2C010000 		.4byte	.LVL74
 3528 0eed 1D110000 		.4byte	0x111d
 3529 0ef1 070F0000 		.4byte	0xf07
 3530 0ef5 24       		.uleb128 0x24
 3531 0ef6 01       		.uleb128 0x1
 3532 0ef7 50       		.byte	0x50
 3533 0ef8 02       		.uleb128 0x2
 3534 0ef9 75       		.byte	0x75
 3535 0efa 00       		.sleb128 0
 3536 0efb 24       		.uleb128 0x24
 3537 0efc 01       		.uleb128 0x1
 3538 0efd 51       		.byte	0x51
 3539 0efe 02       		.uleb128 0x2
 3540 0eff 76       		.byte	0x76
 3541 0f00 00       		.sleb128 0
 3542 0f01 24       		.uleb128 0x24
 3543 0f02 01       		.uleb128 0x1
 3544 0f03 52       		.byte	0x52
 3545 0f04 01       		.uleb128 0x1
 3546 0f05 38       		.byte	0x38
 3547 0f06 00       		.byte	0
 3548 0f07 2C       		.uleb128 0x2c
 3549 0f08 44010000 		.4byte	.LVL77
 3550 0f0c B9100000 		.4byte	0x10b9
 3551 0f10 1A0F0000 		.4byte	0xf1a
 3552 0f14 24       		.uleb128 0x24
 3553 0f15 01       		.uleb128 0x1
 3554 0f16 50       		.byte	0x50
 3555 0f17 01       		.uleb128 0x1
 3556 0f18 36       		.byte	0x36
 3557 0f19 00       		.byte	0
 3558 0f1a 2C       		.uleb128 0x2c
 3559 0f1b 64010000 		.4byte	.LVL78
 3560 0f1f B9100000 		.4byte	0x10b9
 3561 0f23 2D0F0000 		.4byte	0xf2d
 3562 0f27 24       		.uleb128 0x24
 3563 0f28 01       		.uleb128 0x1
 3564 0f29 50       		.byte	0x50
 3565 0f2a 01       		.uleb128 0x1
 3566 0f2b 37       		.byte	0x37
 3567 0f2c 00       		.byte	0
 3568 0f2d 2C       		.uleb128 0x2c
 3569 0f2e 94010000 		.4byte	.LVL79
 3570 0f32 F7100000 		.4byte	0x10f7
 3571 0f36 520F0000 		.4byte	0xf52
 3572 0f3a 24       		.uleb128 0x24
 3573 0f3b 01       		.uleb128 0x1
 3574 0f3c 50       		.byte	0x50
 3575 0f3d 03       		.uleb128 0x3
 3576 0f3e 74       		.byte	0x74
 3577 0f3f 00       		.sleb128 0
 3578 0f40 06       		.byte	0x6
 3579 0f41 24       		.uleb128 0x24
 3580 0f42 01       		.uleb128 0x1
 3581 0f43 51       		.byte	0x51
 3582 0f44 03       		.uleb128 0x3
ARM GAS  /tmp/ccLBGe59.s 			page 64


 3583 0f45 0A       		.byte	0xa
 3584 0f46 1801     		.2byte	0x118
 3585 0f48 24       		.uleb128 0x24
 3586 0f49 01       		.uleb128 0x1
 3587 0f4a 53       		.byte	0x53
 3588 0f4b 05       		.uleb128 0x5
 3589 0f4c 03       		.byte	0x3
 3590 0f4d 00000000 		.4byte	thread2
 3591 0f51 00       		.byte	0
 3592 0f52 2C       		.uleb128 0x2c
 3593 0f53 C8010000 		.4byte	.LVL80
 3594 0f57 B9100000 		.4byte	0x10b9
 3595 0f5b 650F0000 		.4byte	0xf65
 3596 0f5f 24       		.uleb128 0x24
 3597 0f60 01       		.uleb128 0x1
 3598 0f61 50       		.byte	0x50
 3599 0f62 01       		.uleb128 0x1
 3600 0f63 38       		.byte	0x38
 3601 0f64 00       		.byte	0
 3602 0f65 2D       		.uleb128 0x2d
 3603 0f66 D8010000 		.4byte	.LVL81
 3604 0f6a 04110000 		.4byte	0x1104
 3605 0f6e 2C       		.uleb128 0x2c
 3606 0f6f E4010000 		.4byte	.LVL82
 3607 0f73 2A110000 		.4byte	0x112a
 3608 0f77 820F0000 		.4byte	0xf82
 3609 0f7b 24       		.uleb128 0x24
 3610 0f7c 01       		.uleb128 0x1
 3611 0f7d 50       		.byte	0x50
 3612 0f7e 02       		.uleb128 0x2
 3613 0f7f 75       		.byte	0x75
 3614 0f80 00       		.sleb128 0
 3615 0f81 00       		.byte	0
 3616 0f82 2C       		.uleb128 0x2c
 3617 0f83 0C020000 		.4byte	.LVL83
 3618 0f87 B9100000 		.4byte	0x10b9
 3619 0f8b 950F0000 		.4byte	0xf95
 3620 0f8f 24       		.uleb128 0x24
 3621 0f90 01       		.uleb128 0x1
 3622 0f91 50       		.byte	0x50
 3623 0f92 01       		.uleb128 0x1
 3624 0f93 39       		.byte	0x39
 3625 0f94 00       		.byte	0
 3626 0f95 2C       		.uleb128 0x2c
 3627 0f96 28020000 		.4byte	.LVL84
 3628 0f9a 1D110000 		.4byte	0x111d
 3629 0f9e B40F0000 		.4byte	0xfb4
 3630 0fa2 24       		.uleb128 0x24
 3631 0fa3 01       		.uleb128 0x1
 3632 0fa4 50       		.byte	0x50
 3633 0fa5 02       		.uleb128 0x2
 3634 0fa6 75       		.byte	0x75
 3635 0fa7 00       		.sleb128 0
 3636 0fa8 24       		.uleb128 0x24
 3637 0fa9 01       		.uleb128 0x1
 3638 0faa 51       		.byte	0x51
 3639 0fab 02       		.uleb128 0x2
ARM GAS  /tmp/ccLBGe59.s 			page 65


 3640 0fac 76       		.byte	0x76
 3641 0fad 00       		.sleb128 0
 3642 0fae 24       		.uleb128 0x24
 3643 0faf 01       		.uleb128 0x1
 3644 0fb0 52       		.byte	0x52
 3645 0fb1 01       		.uleb128 0x1
 3646 0fb2 32       		.byte	0x32
 3647 0fb3 00       		.byte	0
 3648 0fb4 2C       		.uleb128 0x2c
 3649 0fb5 40020000 		.4byte	.LVL87
 3650 0fb9 B9100000 		.4byte	0x10b9
 3651 0fbd C70F0000 		.4byte	0xfc7
 3652 0fc1 24       		.uleb128 0x24
 3653 0fc2 01       		.uleb128 0x1
 3654 0fc3 50       		.byte	0x50
 3655 0fc4 01       		.uleb128 0x1
 3656 0fc5 3A       		.byte	0x3a
 3657 0fc6 00       		.byte	0
 3658 0fc7 2C       		.uleb128 0x2c
 3659 0fc8 58020000 		.4byte	.LVL88
 3660 0fcc 1D110000 		.4byte	0x111d
 3661 0fd0 E60F0000 		.4byte	0xfe6
 3662 0fd4 24       		.uleb128 0x24
 3663 0fd5 01       		.uleb128 0x1
 3664 0fd6 50       		.byte	0x50
 3665 0fd7 02       		.uleb128 0x2
 3666 0fd8 75       		.byte	0x75
 3667 0fd9 00       		.sleb128 0
 3668 0fda 24       		.uleb128 0x24
 3669 0fdb 01       		.uleb128 0x1
 3670 0fdc 51       		.byte	0x51
 3671 0fdd 02       		.uleb128 0x2
 3672 0fde 76       		.byte	0x76
 3673 0fdf 00       		.sleb128 0
 3674 0fe0 24       		.uleb128 0x24
 3675 0fe1 01       		.uleb128 0x1
 3676 0fe2 52       		.byte	0x52
 3677 0fe3 01       		.uleb128 0x1
 3678 0fe4 32       		.byte	0x32
 3679 0fe5 00       		.byte	0
 3680 0fe6 2C       		.uleb128 0x2c
 3681 0fe7 70020000 		.4byte	.LVL91
 3682 0feb B9100000 		.4byte	0x10b9
 3683 0fef F90F0000 		.4byte	0xff9
 3684 0ff3 24       		.uleb128 0x24
 3685 0ff4 01       		.uleb128 0x1
 3686 0ff5 50       		.byte	0x50
 3687 0ff6 01       		.uleb128 0x1
 3688 0ff7 3B       		.byte	0x3b
 3689 0ff8 00       		.byte	0
 3690 0ff9 2C       		.uleb128 0x2c
 3691 0ffa 90020000 		.4byte	.LVL92
 3692 0ffe B9100000 		.4byte	0x10b9
 3693 1002 0C100000 		.4byte	0x100c
 3694 1006 24       		.uleb128 0x24
 3695 1007 01       		.uleb128 0x1
 3696 1008 50       		.byte	0x50
ARM GAS  /tmp/ccLBGe59.s 			page 66


 3697 1009 01       		.uleb128 0x1
 3698 100a 3C       		.byte	0x3c
 3699 100b 00       		.byte	0
 3700 100c 2C       		.uleb128 0x2c
 3701 100d AC020000 		.4byte	.LVL93
 3702 1011 78100000 		.4byte	0x1078
 3703 1015 2A100000 		.4byte	0x102a
 3704 1019 24       		.uleb128 0x24
 3705 101a 01       		.uleb128 0x1
 3706 101b 50       		.byte	0x50
 3707 101c 02       		.uleb128 0x2
 3708 101d 75       		.byte	0x75
 3709 101e 00       		.sleb128 0
 3710 101f 24       		.uleb128 0x24
 3711 1020 01       		.uleb128 0x1
 3712 1021 51       		.byte	0x51
 3713 1022 01       		.uleb128 0x1
 3714 1023 30       		.byte	0x30
 3715 1024 24       		.uleb128 0x24
 3716 1025 01       		.uleb128 0x1
 3717 1026 52       		.byte	0x52
 3718 1027 01       		.uleb128 0x1
 3719 1028 3A       		.byte	0x3a
 3720 1029 00       		.byte	0
 3721 102a 2E       		.uleb128 0x2e
 3722 102b CC020000 		.4byte	.LVL94
 3723 102f B9100000 		.4byte	0x10b9
 3724 1033 24       		.uleb128 0x24
 3725 1034 01       		.uleb128 0x1
 3726 1035 50       		.byte	0x50
 3727 1036 01       		.uleb128 0x1
 3728 1037 3D       		.byte	0x3d
 3729 1038 00       		.byte	0
 3730 1039 00       		.byte	0
 3731 103a 00       		.byte	0
 3732 103b 2C       		.uleb128 0x2c
 3733 103c 28000000 		.4byte	.LVL59
 3734 1040 B9100000 		.4byte	0x10b9
 3735 1044 4E100000 		.4byte	0x104e
 3736 1048 24       		.uleb128 0x24
 3737 1049 01       		.uleb128 0x1
 3738 104a 50       		.byte	0x50
 3739 104b 01       		.uleb128 0x1
 3740 104c 31       		.byte	0x31
 3741 104d 00       		.byte	0
 3742 104e 2C       		.uleb128 0x2c
 3743 104f 54000000 		.4byte	.LVL62
 3744 1053 78100000 		.4byte	0x1078
 3745 1057 68100000 		.4byte	0x1068
 3746 105b 24       		.uleb128 0x24
 3747 105c 01       		.uleb128 0x1
 3748 105d 50       		.byte	0x50
 3749 105e 02       		.uleb128 0x2
 3750 105f 75       		.byte	0x75
 3751 1060 00       		.sleb128 0
 3752 1061 24       		.uleb128 0x24
 3753 1062 01       		.uleb128 0x1
ARM GAS  /tmp/ccLBGe59.s 			page 67


 3754 1063 52       		.byte	0x52
 3755 1064 02       		.uleb128 0x2
 3756 1065 09       		.byte	0x9
 3757 1066 FF       		.byte	0xff
 3758 1067 00       		.byte	0
 3759 1068 23       		.uleb128 0x23
 3760 1069 74000000 		.4byte	.LVL63
 3761 106d B9100000 		.4byte	0x10b9
 3762 1071 24       		.uleb128 0x24
 3763 1072 01       		.uleb128 0x1
 3764 1073 50       		.byte	0x50
 3765 1074 01       		.uleb128 0x1
 3766 1075 32       		.byte	0x32
 3767 1076 00       		.byte	0
 3768 1077 00       		.byte	0
 3769 1078 30       		.uleb128 0x30
 3770 1079 00000000 		.4byte	.LASF127
 3771 107d 00000000 		.4byte	.LASF127
 3772 1081 0C       		.byte	0xc
 3773 1082 6601     		.2byte	0x166
 3774 1084 09       		.byte	0x9
 3775 1085 30       		.uleb128 0x30
 3776 1086 16020000 		.4byte	.LASF128
 3777 108a 16020000 		.4byte	.LASF128
 3778 108e 0C       		.byte	0xc
 3779 108f 6301     		.2byte	0x163
 3780 1091 08       		.byte	0x8
 3781 1092 30       		.uleb128 0x30
 3782 1093 EF060000 		.4byte	.LASF129
 3783 1097 EF060000 		.4byte	.LASF129
 3784 109b 0C       		.byte	0xc
 3785 109c 5F01     		.2byte	0x15f
 3786 109e 09       		.byte	0x9
 3787 109f 30       		.uleb128 0x30
 3788 10a0 FD000000 		.4byte	.LASF130
 3789 10a4 FD000000 		.4byte	.LASF130
 3790 10a8 0C       		.byte	0xc
 3791 10a9 5B01     		.2byte	0x15b
 3792 10ab 08       		.byte	0x8
 3793 10ac 30       		.uleb128 0x30
 3794 10ad 9C020000 		.4byte	.LASF131
 3795 10b1 9C020000 		.4byte	.LASF131
 3796 10b5 0C       		.byte	0xc
 3797 10b6 5E01     		.2byte	0x15e
 3798 10b8 09       		.byte	0x9
 3799 10b9 31       		.uleb128 0x31
 3800 10ba A6060000 		.4byte	.LASF132
 3801 10be A6060000 		.4byte	.LASF132
 3802 10c2 0E       		.byte	0xe
 3803 10c3 5C       		.byte	0x5c
 3804 10c4 0A       		.byte	0xa
 3805 10c5 31       		.uleb128 0x31
 3806 10c6 FC010000 		.4byte	.LASF133
 3807 10ca FC010000 		.4byte	.LASF133
 3808 10ce 0E       		.byte	0xe
 3809 10cf 5A       		.byte	0x5a
 3810 10d0 08       		.byte	0x8
ARM GAS  /tmp/ccLBGe59.s 			page 68


 3811 10d1 31       		.uleb128 0x31
 3812 10d2 65040000 		.4byte	.LASF134
 3813 10d6 65040000 		.4byte	.LASF134
 3814 10da 0E       		.byte	0xe
 3815 10db 5D       		.byte	0x5d
 3816 10dc 0A       		.byte	0xa
 3817 10dd 30       		.uleb128 0x30
 3818 10de 19010000 		.4byte	.LASF135
 3819 10e2 19010000 		.4byte	.LASF135
 3820 10e6 0C       		.byte	0xc
 3821 10e7 6001     		.2byte	0x160
 3822 10e9 0A       		.byte	0xa
 3823 10ea 30       		.uleb128 0x30
 3824 10eb BA020000 		.4byte	.LASF136
 3825 10ef BA020000 		.4byte	.LASF136
 3826 10f3 0C       		.byte	0xc
 3827 10f4 5D01     		.2byte	0x15d
 3828 10f6 08       		.byte	0x8
 3829 10f7 30       		.uleb128 0x30
 3830 10f8 91030000 		.4byte	.LASF137
 3831 10fc 91030000 		.4byte	.LASF137
 3832 1100 06       		.byte	0x6
 3833 1101 6401     		.2byte	0x164
 3834 1103 0B       		.byte	0xb
 3835 1104 31       		.uleb128 0x31
 3836 1105 1A040000 		.4byte	.LASF138
 3837 1109 1A040000 		.4byte	.LASF138
 3838 110d 0E       		.byte	0xe
 3839 110e 60       		.byte	0x60
 3840 110f 08       		.byte	0x8
 3841 1110 30       		.uleb128 0x30
 3842 1111 38020000 		.4byte	.LASF139
 3843 1115 38020000 		.4byte	.LASF139
 3844 1119 0C       		.byte	0xc
 3845 111a 6701     		.2byte	0x167
 3846 111c 09       		.byte	0x9
 3847 111d 30       		.uleb128 0x30
 3848 111e 54010000 		.4byte	.LASF140
 3849 1122 54010000 		.4byte	.LASF140
 3850 1126 0C       		.byte	0xc
 3851 1127 6801     		.2byte	0x168
 3852 1129 0A       		.byte	0xa
 3853 112a 30       		.uleb128 0x30
 3854 112b 3A060000 		.4byte	.LASF141
 3855 112f 3A060000 		.4byte	.LASF141
 3856 1133 0C       		.byte	0xc
 3857 1134 6501     		.2byte	0x165
 3858 1136 08       		.byte	0x8
 3859 1137 00       		.byte	0
 3860              		.section	.debug_abbrev,"",%progbits
 3861              	.Ldebug_abbrev0:
 3862 0000 01       		.uleb128 0x1
 3863 0001 11       		.uleb128 0x11
 3864 0002 01       		.byte	0x1
 3865 0003 25       		.uleb128 0x25
 3866 0004 0E       		.uleb128 0xe
 3867 0005 13       		.uleb128 0x13
ARM GAS  /tmp/ccLBGe59.s 			page 69


 3868 0006 0B       		.uleb128 0xb
 3869 0007 03       		.uleb128 0x3
 3870 0008 0E       		.uleb128 0xe
 3871 0009 1B       		.uleb128 0x1b
 3872 000a 0E       		.uleb128 0xe
 3873 000b 55       		.uleb128 0x55
 3874 000c 17       		.uleb128 0x17
 3875 000d 11       		.uleb128 0x11
 3876 000e 01       		.uleb128 0x1
 3877 000f 10       		.uleb128 0x10
 3878 0010 17       		.uleb128 0x17
 3879 0011 00       		.byte	0
 3880 0012 00       		.byte	0
 3881 0013 02       		.uleb128 0x2
 3882 0014 24       		.uleb128 0x24
 3883 0015 00       		.byte	0
 3884 0016 0B       		.uleb128 0xb
 3885 0017 0B       		.uleb128 0xb
 3886 0018 3E       		.uleb128 0x3e
 3887 0019 0B       		.uleb128 0xb
 3888 001a 03       		.uleb128 0x3
 3889 001b 08       		.uleb128 0x8
 3890 001c 00       		.byte	0
 3891 001d 00       		.byte	0
 3892 001e 03       		.uleb128 0x3
 3893 001f 16       		.uleb128 0x16
 3894 0020 00       		.byte	0
 3895 0021 03       		.uleb128 0x3
 3896 0022 0E       		.uleb128 0xe
 3897 0023 3A       		.uleb128 0x3a
 3898 0024 0B       		.uleb128 0xb
 3899 0025 3B       		.uleb128 0x3b
 3900 0026 0B       		.uleb128 0xb
 3901 0027 39       		.uleb128 0x39
 3902 0028 0B       		.uleb128 0xb
 3903 0029 49       		.uleb128 0x49
 3904 002a 13       		.uleb128 0x13
 3905 002b 00       		.byte	0
 3906 002c 00       		.byte	0
 3907 002d 04       		.uleb128 0x4
 3908 002e 24       		.uleb128 0x24
 3909 002f 00       		.byte	0
 3910 0030 0B       		.uleb128 0xb
 3911 0031 0B       		.uleb128 0xb
 3912 0032 3E       		.uleb128 0x3e
 3913 0033 0B       		.uleb128 0xb
 3914 0034 03       		.uleb128 0x3
 3915 0035 0E       		.uleb128 0xe
 3916 0036 00       		.byte	0
 3917 0037 00       		.byte	0
 3918 0038 05       		.uleb128 0x5
 3919 0039 35       		.uleb128 0x35
 3920 003a 00       		.byte	0
 3921 003b 49       		.uleb128 0x49
 3922 003c 13       		.uleb128 0x13
 3923 003d 00       		.byte	0
 3924 003e 00       		.byte	0
ARM GAS  /tmp/ccLBGe59.s 			page 70


 3925 003f 06       		.uleb128 0x6
 3926 0040 13       		.uleb128 0x13
 3927 0041 01       		.byte	0x1
 3928 0042 03       		.uleb128 0x3
 3929 0043 0E       		.uleb128 0xe
 3930 0044 0B       		.uleb128 0xb
 3931 0045 0B       		.uleb128 0xb
 3932 0046 3A       		.uleb128 0x3a
 3933 0047 0B       		.uleb128 0xb
 3934 0048 3B       		.uleb128 0x3b
 3935 0049 0B       		.uleb128 0xb
 3936 004a 39       		.uleb128 0x39
 3937 004b 0B       		.uleb128 0xb
 3938 004c 01       		.uleb128 0x1
 3939 004d 13       		.uleb128 0x13
 3940 004e 00       		.byte	0
 3941 004f 00       		.byte	0
 3942 0050 07       		.uleb128 0x7
 3943 0051 0D       		.uleb128 0xd
 3944 0052 00       		.byte	0
 3945 0053 03       		.uleb128 0x3
 3946 0054 0E       		.uleb128 0xe
 3947 0055 3A       		.uleb128 0x3a
 3948 0056 0B       		.uleb128 0xb
 3949 0057 3B       		.uleb128 0x3b
 3950 0058 0B       		.uleb128 0xb
 3951 0059 39       		.uleb128 0x39
 3952 005a 0B       		.uleb128 0xb
 3953 005b 49       		.uleb128 0x49
 3954 005c 13       		.uleb128 0x13
 3955 005d 38       		.uleb128 0x38
 3956 005e 0B       		.uleb128 0xb
 3957 005f 00       		.byte	0
 3958 0060 00       		.byte	0
 3959 0061 08       		.uleb128 0x8
 3960 0062 0D       		.uleb128 0xd
 3961 0063 00       		.byte	0
 3962 0064 03       		.uleb128 0x3
 3963 0065 08       		.uleb128 0x8
 3964 0066 3A       		.uleb128 0x3a
 3965 0067 0B       		.uleb128 0xb
 3966 0068 3B       		.uleb128 0x3b
 3967 0069 0B       		.uleb128 0xb
 3968 006a 39       		.uleb128 0x39
 3969 006b 0B       		.uleb128 0xb
 3970 006c 49       		.uleb128 0x49
 3971 006d 13       		.uleb128 0x13
 3972 006e 38       		.uleb128 0x38
 3973 006f 0B       		.uleb128 0xb
 3974 0070 00       		.byte	0
 3975 0071 00       		.byte	0
 3976 0072 09       		.uleb128 0x9
 3977 0073 13       		.uleb128 0x13
 3978 0074 01       		.byte	0x1
 3979 0075 0B       		.uleb128 0xb
 3980 0076 0B       		.uleb128 0xb
 3981 0077 3A       		.uleb128 0x3a
ARM GAS  /tmp/ccLBGe59.s 			page 71


 3982 0078 0B       		.uleb128 0xb
 3983 0079 3B       		.uleb128 0x3b
 3984 007a 0B       		.uleb128 0xb
 3985 007b 39       		.uleb128 0x39
 3986 007c 0B       		.uleb128 0xb
 3987 007d 01       		.uleb128 0x1
 3988 007e 13       		.uleb128 0x13
 3989 007f 00       		.byte	0
 3990 0080 00       		.byte	0
 3991 0081 0A       		.uleb128 0xa
 3992 0082 0F       		.uleb128 0xf
 3993 0083 00       		.byte	0
 3994 0084 0B       		.uleb128 0xb
 3995 0085 0B       		.uleb128 0xb
 3996 0086 49       		.uleb128 0x49
 3997 0087 13       		.uleb128 0x13
 3998 0088 00       		.byte	0
 3999 0089 00       		.byte	0
 4000 008a 0B       		.uleb128 0xb
 4001 008b 0F       		.uleb128 0xf
 4002 008c 00       		.byte	0
 4003 008d 0B       		.uleb128 0xb
 4004 008e 0B       		.uleb128 0xb
 4005 008f 00       		.byte	0
 4006 0090 00       		.byte	0
 4007 0091 0C       		.uleb128 0xc
 4008 0092 26       		.uleb128 0x26
 4009 0093 00       		.byte	0
 4010 0094 49       		.uleb128 0x49
 4011 0095 13       		.uleb128 0x13
 4012 0096 00       		.byte	0
 4013 0097 00       		.byte	0
 4014 0098 0D       		.uleb128 0xd
 4015 0099 15       		.uleb128 0x15
 4016 009a 01       		.byte	0x1
 4017 009b 27       		.uleb128 0x27
 4018 009c 19       		.uleb128 0x19
 4019 009d 01       		.uleb128 0x1
 4020 009e 13       		.uleb128 0x13
 4021 009f 00       		.byte	0
 4022 00a0 00       		.byte	0
 4023 00a1 0E       		.uleb128 0xe
 4024 00a2 05       		.uleb128 0x5
 4025 00a3 00       		.byte	0
 4026 00a4 49       		.uleb128 0x49
 4027 00a5 13       		.uleb128 0x13
 4028 00a6 00       		.byte	0
 4029 00a7 00       		.byte	0
 4030 00a8 0F       		.uleb128 0xf
 4031 00a9 34       		.uleb128 0x34
 4032 00aa 00       		.byte	0
 4033 00ab 03       		.uleb128 0x3
 4034 00ac 0E       		.uleb128 0xe
 4035 00ad 3A       		.uleb128 0x3a
 4036 00ae 0B       		.uleb128 0xb
 4037 00af 3B       		.uleb128 0x3b
 4038 00b0 0B       		.uleb128 0xb
ARM GAS  /tmp/ccLBGe59.s 			page 72


 4039 00b1 39       		.uleb128 0x39
 4040 00b2 0B       		.uleb128 0xb
 4041 00b3 49       		.uleb128 0x49
 4042 00b4 13       		.uleb128 0x13
 4043 00b5 3F       		.uleb128 0x3f
 4044 00b6 19       		.uleb128 0x19
 4045 00b7 3C       		.uleb128 0x3c
 4046 00b8 19       		.uleb128 0x19
 4047 00b9 00       		.byte	0
 4048 00ba 00       		.byte	0
 4049 00bb 10       		.uleb128 0x10
 4050 00bc 17       		.uleb128 0x17
 4051 00bd 01       		.byte	0x1
 4052 00be 0B       		.uleb128 0xb
 4053 00bf 0B       		.uleb128 0xb
 4054 00c0 3A       		.uleb128 0x3a
 4055 00c1 0B       		.uleb128 0xb
 4056 00c2 3B       		.uleb128 0x3b
 4057 00c3 0B       		.uleb128 0xb
 4058 00c4 39       		.uleb128 0x39
 4059 00c5 0B       		.uleb128 0xb
 4060 00c6 01       		.uleb128 0x1
 4061 00c7 13       		.uleb128 0x13
 4062 00c8 00       		.byte	0
 4063 00c9 00       		.byte	0
 4064 00ca 11       		.uleb128 0x11
 4065 00cb 0D       		.uleb128 0xd
 4066 00cc 00       		.byte	0
 4067 00cd 03       		.uleb128 0x3
 4068 00ce 0E       		.uleb128 0xe
 4069 00cf 3A       		.uleb128 0x3a
 4070 00d0 0B       		.uleb128 0xb
 4071 00d1 3B       		.uleb128 0x3b
 4072 00d2 0B       		.uleb128 0xb
 4073 00d3 39       		.uleb128 0x39
 4074 00d4 0B       		.uleb128 0xb
 4075 00d5 49       		.uleb128 0x49
 4076 00d6 13       		.uleb128 0x13
 4077 00d7 00       		.byte	0
 4078 00d8 00       		.byte	0
 4079 00d9 12       		.uleb128 0x12
 4080 00da 01       		.uleb128 0x1
 4081 00db 01       		.byte	0x1
 4082 00dc 49       		.uleb128 0x49
 4083 00dd 13       		.uleb128 0x13
 4084 00de 01       		.uleb128 0x1
 4085 00df 13       		.uleb128 0x13
 4086 00e0 00       		.byte	0
 4087 00e1 00       		.byte	0
 4088 00e2 13       		.uleb128 0x13
 4089 00e3 21       		.uleb128 0x21
 4090 00e4 00       		.byte	0
 4091 00e5 49       		.uleb128 0x49
 4092 00e6 13       		.uleb128 0x13
 4093 00e7 2F       		.uleb128 0x2f
 4094 00e8 0B       		.uleb128 0xb
 4095 00e9 00       		.byte	0
ARM GAS  /tmp/ccLBGe59.s 			page 73


 4096 00ea 00       		.byte	0
 4097 00eb 14       		.uleb128 0x14
 4098 00ec 15       		.uleb128 0x15
 4099 00ed 00       		.byte	0
 4100 00ee 27       		.uleb128 0x27
 4101 00ef 19       		.uleb128 0x19
 4102 00f0 00       		.byte	0
 4103 00f1 00       		.byte	0
 4104 00f2 15       		.uleb128 0x15
 4105 00f3 13       		.uleb128 0x13
 4106 00f4 01       		.byte	0x1
 4107 00f5 0B       		.uleb128 0xb
 4108 00f6 05       		.uleb128 0x5
 4109 00f7 3A       		.uleb128 0x3a
 4110 00f8 0B       		.uleb128 0xb
 4111 00f9 3B       		.uleb128 0x3b
 4112 00fa 0B       		.uleb128 0xb
 4113 00fb 39       		.uleb128 0x39
 4114 00fc 0B       		.uleb128 0xb
 4115 00fd 01       		.uleb128 0x1
 4116 00fe 13       		.uleb128 0x13
 4117 00ff 00       		.byte	0
 4118 0100 00       		.byte	0
 4119 0101 16       		.uleb128 0x16
 4120 0102 0D       		.uleb128 0xd
 4121 0103 00       		.byte	0
 4122 0104 03       		.uleb128 0x3
 4123 0105 08       		.uleb128 0x8
 4124 0106 3A       		.uleb128 0x3a
 4125 0107 0B       		.uleb128 0xb
 4126 0108 3B       		.uleb128 0x3b
 4127 0109 0B       		.uleb128 0xb
 4128 010a 39       		.uleb128 0x39
 4129 010b 0B       		.uleb128 0xb
 4130 010c 49       		.uleb128 0x49
 4131 010d 13       		.uleb128 0x13
 4132 010e 38       		.uleb128 0x38
 4133 010f 05       		.uleb128 0x5
 4134 0110 00       		.byte	0
 4135 0111 00       		.byte	0
 4136 0112 17       		.uleb128 0x17
 4137 0113 17       		.uleb128 0x17
 4138 0114 01       		.byte	0x1
 4139 0115 03       		.uleb128 0x3
 4140 0116 0E       		.uleb128 0xe
 4141 0117 0B       		.uleb128 0xb
 4142 0118 05       		.uleb128 0x5
 4143 0119 3A       		.uleb128 0x3a
 4144 011a 0B       		.uleb128 0xb
 4145 011b 3B       		.uleb128 0x3b
 4146 011c 0B       		.uleb128 0xb
 4147 011d 39       		.uleb128 0x39
 4148 011e 0B       		.uleb128 0xb
 4149 011f 01       		.uleb128 0x1
 4150 0120 13       		.uleb128 0x13
 4151 0121 00       		.byte	0
 4152 0122 00       		.byte	0
ARM GAS  /tmp/ccLBGe59.s 			page 74


 4153 0123 18       		.uleb128 0x18
 4154 0124 0D       		.uleb128 0xd
 4155 0125 00       		.byte	0
 4156 0126 03       		.uleb128 0x3
 4157 0127 08       		.uleb128 0x8
 4158 0128 3A       		.uleb128 0x3a
 4159 0129 0B       		.uleb128 0xb
 4160 012a 3B       		.uleb128 0x3b
 4161 012b 0B       		.uleb128 0xb
 4162 012c 39       		.uleb128 0x39
 4163 012d 0B       		.uleb128 0xb
 4164 012e 49       		.uleb128 0x49
 4165 012f 13       		.uleb128 0x13
 4166 0130 00       		.byte	0
 4167 0131 00       		.byte	0
 4168 0132 19       		.uleb128 0x19
 4169 0133 21       		.uleb128 0x21
 4170 0134 00       		.byte	0
 4171 0135 49       		.uleb128 0x49
 4172 0136 13       		.uleb128 0x13
 4173 0137 2F       		.uleb128 0x2f
 4174 0138 05       		.uleb128 0x5
 4175 0139 00       		.byte	0
 4176 013a 00       		.byte	0
 4177 013b 1A       		.uleb128 0x1a
 4178 013c 21       		.uleb128 0x21
 4179 013d 00       		.byte	0
 4180 013e 00       		.byte	0
 4181 013f 00       		.byte	0
 4182 0140 1B       		.uleb128 0x1b
 4183 0141 34       		.uleb128 0x34
 4184 0142 00       		.byte	0
 4185 0143 03       		.uleb128 0x3
 4186 0144 08       		.uleb128 0x8
 4187 0145 3A       		.uleb128 0x3a
 4188 0146 0B       		.uleb128 0xb
 4189 0147 3B       		.uleb128 0x3b
 4190 0148 0B       		.uleb128 0xb
 4191 0149 39       		.uleb128 0x39
 4192 014a 0B       		.uleb128 0xb
 4193 014b 49       		.uleb128 0x49
 4194 014c 13       		.uleb128 0x13
 4195 014d 3F       		.uleb128 0x3f
 4196 014e 19       		.uleb128 0x19
 4197 014f 3C       		.uleb128 0x3c
 4198 0150 19       		.uleb128 0x19
 4199 0151 00       		.byte	0
 4200 0152 00       		.byte	0
 4201 0153 1C       		.uleb128 0x1c
 4202 0154 34       		.uleb128 0x34
 4203 0155 00       		.byte	0
 4204 0156 03       		.uleb128 0x3
 4205 0157 08       		.uleb128 0x8
 4206 0158 3A       		.uleb128 0x3a
 4207 0159 0B       		.uleb128 0xb
 4208 015a 3B       		.uleb128 0x3b
 4209 015b 0B       		.uleb128 0xb
ARM GAS  /tmp/ccLBGe59.s 			page 75


 4210 015c 39       		.uleb128 0x39
 4211 015d 0B       		.uleb128 0xb
 4212 015e 49       		.uleb128 0x49
 4213 015f 13       		.uleb128 0x13
 4214 0160 02       		.uleb128 0x2
 4215 0161 18       		.uleb128 0x18
 4216 0162 00       		.byte	0
 4217 0163 00       		.byte	0
 4218 0164 1D       		.uleb128 0x1d
 4219 0165 34       		.uleb128 0x34
 4220 0166 00       		.byte	0
 4221 0167 03       		.uleb128 0x3
 4222 0168 0E       		.uleb128 0xe
 4223 0169 3A       		.uleb128 0x3a
 4224 016a 0B       		.uleb128 0xb
 4225 016b 3B       		.uleb128 0x3b
 4226 016c 0B       		.uleb128 0xb
 4227 016d 39       		.uleb128 0x39
 4228 016e 0B       		.uleb128 0xb
 4229 016f 49       		.uleb128 0x49
 4230 0170 13       		.uleb128 0x13
 4231 0171 3F       		.uleb128 0x3f
 4232 0172 19       		.uleb128 0x19
 4233 0173 02       		.uleb128 0x2
 4234 0174 18       		.uleb128 0x18
 4235 0175 00       		.byte	0
 4236 0176 00       		.byte	0
 4237 0177 1E       		.uleb128 0x1e
 4238 0178 2E       		.uleb128 0x2e
 4239 0179 01       		.byte	0x1
 4240 017a 03       		.uleb128 0x3
 4241 017b 0E       		.uleb128 0xe
 4242 017c 3A       		.uleb128 0x3a
 4243 017d 0B       		.uleb128 0xb
 4244 017e 3B       		.uleb128 0x3b
 4245 017f 0B       		.uleb128 0xb
 4246 0180 39       		.uleb128 0x39
 4247 0181 0B       		.uleb128 0xb
 4248 0182 27       		.uleb128 0x27
 4249 0183 19       		.uleb128 0x19
 4250 0184 20       		.uleb128 0x20
 4251 0185 0B       		.uleb128 0xb
 4252 0186 01       		.uleb128 0x1
 4253 0187 13       		.uleb128 0x13
 4254 0188 00       		.byte	0
 4255 0189 00       		.byte	0
 4256 018a 1F       		.uleb128 0x1f
 4257 018b 34       		.uleb128 0x34
 4258 018c 00       		.byte	0
 4259 018d 03       		.uleb128 0x3
 4260 018e 08       		.uleb128 0x8
 4261 018f 3A       		.uleb128 0x3a
 4262 0190 0B       		.uleb128 0xb
 4263 0191 3B       		.uleb128 0x3b
 4264 0192 0B       		.uleb128 0xb
 4265 0193 39       		.uleb128 0x39
 4266 0194 0B       		.uleb128 0xb
ARM GAS  /tmp/ccLBGe59.s 			page 76


 4267 0195 49       		.uleb128 0x49
 4268 0196 13       		.uleb128 0x13
 4269 0197 00       		.byte	0
 4270 0198 00       		.byte	0
 4271 0199 20       		.uleb128 0x20
 4272 019a 0B       		.uleb128 0xb
 4273 019b 01       		.byte	0x1
 4274 019c 00       		.byte	0
 4275 019d 00       		.byte	0
 4276 019e 21       		.uleb128 0x21
 4277 019f 2E       		.uleb128 0x2e
 4278 01a0 01       		.byte	0x1
 4279 01a1 03       		.uleb128 0x3
 4280 01a2 0E       		.uleb128 0xe
 4281 01a3 3A       		.uleb128 0x3a
 4282 01a4 0B       		.uleb128 0xb
 4283 01a5 3B       		.uleb128 0x3b
 4284 01a6 0B       		.uleb128 0xb
 4285 01a7 39       		.uleb128 0x39
 4286 01a8 0B       		.uleb128 0xb
 4287 01a9 27       		.uleb128 0x27
 4288 01aa 19       		.uleb128 0x19
 4289 01ab 49       		.uleb128 0x49
 4290 01ac 13       		.uleb128 0x13
 4291 01ad 11       		.uleb128 0x11
 4292 01ae 01       		.uleb128 0x1
 4293 01af 12       		.uleb128 0x12
 4294 01b0 06       		.uleb128 0x6
 4295 01b1 40       		.uleb128 0x40
 4296 01b2 18       		.uleb128 0x18
 4297 01b3 9742     		.uleb128 0x2117
 4298 01b5 19       		.uleb128 0x19
 4299 01b6 01       		.uleb128 0x1
 4300 01b7 13       		.uleb128 0x13
 4301 01b8 00       		.byte	0
 4302 01b9 00       		.byte	0
 4303 01ba 22       		.uleb128 0x22
 4304 01bb 05       		.uleb128 0x5
 4305 01bc 00       		.byte	0
 4306 01bd 03       		.uleb128 0x3
 4307 01be 08       		.uleb128 0x8
 4308 01bf 3A       		.uleb128 0x3a
 4309 01c0 0B       		.uleb128 0xb
 4310 01c1 3B       		.uleb128 0x3b
 4311 01c2 0B       		.uleb128 0xb
 4312 01c3 39       		.uleb128 0x39
 4313 01c4 0B       		.uleb128 0xb
 4314 01c5 49       		.uleb128 0x49
 4315 01c6 13       		.uleb128 0x13
 4316 01c7 02       		.uleb128 0x2
 4317 01c8 17       		.uleb128 0x17
 4318 01c9 B742     		.uleb128 0x2137
 4319 01cb 17       		.uleb128 0x17
 4320 01cc 00       		.byte	0
 4321 01cd 00       		.byte	0
 4322 01ce 23       		.uleb128 0x23
 4323 01cf 898201   		.uleb128 0x4109
ARM GAS  /tmp/ccLBGe59.s 			page 77


 4324 01d2 01       		.byte	0x1
 4325 01d3 11       		.uleb128 0x11
 4326 01d4 01       		.uleb128 0x1
 4327 01d5 31       		.uleb128 0x31
 4328 01d6 13       		.uleb128 0x13
 4329 01d7 00       		.byte	0
 4330 01d8 00       		.byte	0
 4331 01d9 24       		.uleb128 0x24
 4332 01da 8A8201   		.uleb128 0x410a
 4333 01dd 00       		.byte	0
 4334 01de 02       		.uleb128 0x2
 4335 01df 18       		.uleb128 0x18
 4336 01e0 9142     		.uleb128 0x2111
 4337 01e2 18       		.uleb128 0x18
 4338 01e3 00       		.byte	0
 4339 01e4 00       		.byte	0
 4340 01e5 25       		.uleb128 0x25
 4341 01e6 2E       		.uleb128 0x2e
 4342 01e7 01       		.byte	0x1
 4343 01e8 03       		.uleb128 0x3
 4344 01e9 0E       		.uleb128 0xe
 4345 01ea 3A       		.uleb128 0x3a
 4346 01eb 0B       		.uleb128 0xb
 4347 01ec 3B       		.uleb128 0x3b
 4348 01ed 0B       		.uleb128 0xb
 4349 01ee 39       		.uleb128 0x39
 4350 01ef 0B       		.uleb128 0xb
 4351 01f0 27       		.uleb128 0x27
 4352 01f1 19       		.uleb128 0x19
 4353 01f2 11       		.uleb128 0x11
 4354 01f3 01       		.uleb128 0x1
 4355 01f4 12       		.uleb128 0x12
 4356 01f5 06       		.uleb128 0x6
 4357 01f6 40       		.uleb128 0x40
 4358 01f7 18       		.uleb128 0x18
 4359 01f8 9742     		.uleb128 0x2117
 4360 01fa 19       		.uleb128 0x19
 4361 01fb 01       		.uleb128 0x1
 4362 01fc 13       		.uleb128 0x13
 4363 01fd 00       		.byte	0
 4364 01fe 00       		.byte	0
 4365 01ff 26       		.uleb128 0x26
 4366 0200 05       		.uleb128 0x5
 4367 0201 00       		.byte	0
 4368 0202 03       		.uleb128 0x3
 4369 0203 08       		.uleb128 0x8
 4370 0204 3A       		.uleb128 0x3a
 4371 0205 0B       		.uleb128 0xb
 4372 0206 3B       		.uleb128 0x3b
 4373 0207 0B       		.uleb128 0xb
 4374 0208 39       		.uleb128 0x39
 4375 0209 0B       		.uleb128 0xb
 4376 020a 49       		.uleb128 0x49
 4377 020b 13       		.uleb128 0x13
 4378 020c 02       		.uleb128 0x2
 4379 020d 18       		.uleb128 0x18
 4380 020e 00       		.byte	0
ARM GAS  /tmp/ccLBGe59.s 			page 78


 4381 020f 00       		.byte	0
 4382 0210 27       		.uleb128 0x27
 4383 0211 2E       		.uleb128 0x2e
 4384 0212 01       		.byte	0x1
 4385 0213 31       		.uleb128 0x31
 4386 0214 13       		.uleb128 0x13
 4387 0215 11       		.uleb128 0x11
 4388 0216 01       		.uleb128 0x1
 4389 0217 12       		.uleb128 0x12
 4390 0218 06       		.uleb128 0x6
 4391 0219 40       		.uleb128 0x40
 4392 021a 18       		.uleb128 0x18
 4393 021b 9742     		.uleb128 0x2117
 4394 021d 19       		.uleb128 0x19
 4395 021e 01       		.uleb128 0x1
 4396 021f 13       		.uleb128 0x13
 4397 0220 00       		.byte	0
 4398 0221 00       		.byte	0
 4399 0222 28       		.uleb128 0x28
 4400 0223 34       		.uleb128 0x34
 4401 0224 00       		.byte	0
 4402 0225 31       		.uleb128 0x31
 4403 0226 13       		.uleb128 0x13
 4404 0227 02       		.uleb128 0x2
 4405 0228 17       		.uleb128 0x17
 4406 0229 B742     		.uleb128 0x2137
 4407 022b 17       		.uleb128 0x17
 4408 022c 00       		.byte	0
 4409 022d 00       		.byte	0
 4410 022e 29       		.uleb128 0x29
 4411 022f 34       		.uleb128 0x34
 4412 0230 00       		.byte	0
 4413 0231 31       		.uleb128 0x31
 4414 0232 13       		.uleb128 0x13
 4415 0233 00       		.byte	0
 4416 0234 00       		.byte	0
 4417 0235 2A       		.uleb128 0x2a
 4418 0236 1D       		.uleb128 0x1d
 4419 0237 01       		.byte	0x1
 4420 0238 31       		.uleb128 0x31
 4421 0239 13       		.uleb128 0x13
 4422 023a 52       		.uleb128 0x52
 4423 023b 01       		.uleb128 0x1
 4424 023c B842     		.uleb128 0x2138
 4425 023e 0B       		.uleb128 0xb
 4426 023f 55       		.uleb128 0x55
 4427 0240 17       		.uleb128 0x17
 4428 0241 58       		.uleb128 0x58
 4429 0242 0B       		.uleb128 0xb
 4430 0243 59       		.uleb128 0x59
 4431 0244 0B       		.uleb128 0xb
 4432 0245 57       		.uleb128 0x57
 4433 0246 0B       		.uleb128 0xb
 4434 0247 01       		.uleb128 0x1
 4435 0248 13       		.uleb128 0x13
 4436 0249 00       		.byte	0
 4437 024a 00       		.byte	0
ARM GAS  /tmp/ccLBGe59.s 			page 79


 4438 024b 2B       		.uleb128 0x2b
 4439 024c 0B       		.uleb128 0xb
 4440 024d 01       		.byte	0x1
 4441 024e 55       		.uleb128 0x55
 4442 024f 17       		.uleb128 0x17
 4443 0250 00       		.byte	0
 4444 0251 00       		.byte	0
 4445 0252 2C       		.uleb128 0x2c
 4446 0253 898201   		.uleb128 0x4109
 4447 0256 01       		.byte	0x1
 4448 0257 11       		.uleb128 0x11
 4449 0258 01       		.uleb128 0x1
 4450 0259 31       		.uleb128 0x31
 4451 025a 13       		.uleb128 0x13
 4452 025b 01       		.uleb128 0x1
 4453 025c 13       		.uleb128 0x13
 4454 025d 00       		.byte	0
 4455 025e 00       		.byte	0
 4456 025f 2D       		.uleb128 0x2d
 4457 0260 898201   		.uleb128 0x4109
 4458 0263 00       		.byte	0
 4459 0264 11       		.uleb128 0x11
 4460 0265 01       		.uleb128 0x1
 4461 0266 31       		.uleb128 0x31
 4462 0267 13       		.uleb128 0x13
 4463 0268 00       		.byte	0
 4464 0269 00       		.byte	0
 4465 026a 2E       		.uleb128 0x2e
 4466 026b 898201   		.uleb128 0x4109
 4467 026e 01       		.byte	0x1
 4468 026f 11       		.uleb128 0x11
 4469 0270 01       		.uleb128 0x1
 4470 0271 9542     		.uleb128 0x2115
 4471 0273 19       		.uleb128 0x19
 4472 0274 31       		.uleb128 0x31
 4473 0275 13       		.uleb128 0x13
 4474 0276 00       		.byte	0
 4475 0277 00       		.byte	0
 4476 0278 2F       		.uleb128 0x2f
 4477 0279 0B       		.uleb128 0xb
 4478 027a 01       		.byte	0x1
 4479 027b 31       		.uleb128 0x31
 4480 027c 13       		.uleb128 0x13
 4481 027d 11       		.uleb128 0x11
 4482 027e 01       		.uleb128 0x1
 4483 027f 12       		.uleb128 0x12
 4484 0280 06       		.uleb128 0x6
 4485 0281 01       		.uleb128 0x1
 4486 0282 13       		.uleb128 0x13
 4487 0283 00       		.byte	0
 4488 0284 00       		.byte	0
 4489 0285 30       		.uleb128 0x30
 4490 0286 2E       		.uleb128 0x2e
 4491 0287 00       		.byte	0
 4492 0288 3F       		.uleb128 0x3f
 4493 0289 19       		.uleb128 0x19
 4494 028a 3C       		.uleb128 0x3c
ARM GAS  /tmp/ccLBGe59.s 			page 80


 4495 028b 19       		.uleb128 0x19
 4496 028c 6E       		.uleb128 0x6e
 4497 028d 0E       		.uleb128 0xe
 4498 028e 03       		.uleb128 0x3
 4499 028f 0E       		.uleb128 0xe
 4500 0290 3A       		.uleb128 0x3a
 4501 0291 0B       		.uleb128 0xb
 4502 0292 3B       		.uleb128 0x3b
 4503 0293 05       		.uleb128 0x5
 4504 0294 39       		.uleb128 0x39
 4505 0295 0B       		.uleb128 0xb
 4506 0296 00       		.byte	0
 4507 0297 00       		.byte	0
 4508 0298 31       		.uleb128 0x31
 4509 0299 2E       		.uleb128 0x2e
 4510 029a 00       		.byte	0
 4511 029b 3F       		.uleb128 0x3f
 4512 029c 19       		.uleb128 0x19
 4513 029d 3C       		.uleb128 0x3c
 4514 029e 19       		.uleb128 0x19
 4515 029f 6E       		.uleb128 0x6e
 4516 02a0 0E       		.uleb128 0xe
 4517 02a1 03       		.uleb128 0x3
 4518 02a2 0E       		.uleb128 0xe
 4519 02a3 3A       		.uleb128 0x3a
 4520 02a4 0B       		.uleb128 0xb
 4521 02a5 3B       		.uleb128 0x3b
 4522 02a6 0B       		.uleb128 0xb
 4523 02a7 39       		.uleb128 0x39
 4524 02a8 0B       		.uleb128 0xb
 4525 02a9 00       		.byte	0
 4526 02aa 00       		.byte	0
 4527 02ab 00       		.byte	0
 4528              		.section	.debug_loc,"",%progbits
 4529              	.Ldebug_loc0:
 4530              	.LVUS1:
 4531 0000 00       		.uleb128 0
 4532 0001 00       		.uleb128 .LVU23
 4533 0002 00       		.uleb128 .LVU23
 4534 0003 00       		.uleb128 0
 4535              	.LLST1:
 4536 0004 00000000 		.4byte	.LVL5
 4537 0008 10000000 		.4byte	.LVL6
 4538 000c 0100     		.2byte	0x1
 4539 000e 50       		.byte	0x50
 4540 000f 10000000 		.4byte	.LVL6
 4541 0013 20000000 		.4byte	.LFE12
 4542 0017 0400     		.2byte	0x4
 4543 0019 F3       		.byte	0xf3
 4544 001a 01       		.uleb128 0x1
 4545 001b 50       		.byte	0x50
 4546 001c 9F       		.byte	0x9f
 4547 001d 00000000 		.4byte	0
 4548 0021 00000000 		.4byte	0
 4549              	.LVUS0:
 4550 0025 00       		.uleb128 0
 4551 0026 00       		.uleb128 .LVU8
ARM GAS  /tmp/ccLBGe59.s 			page 81


 4552 0027 00       		.uleb128 .LVU8
 4553 0028 00       		.uleb128 0
 4554              	.LLST0:
 4555 0029 00000000 		.4byte	.LVL1
 4556 002d 0C000000 		.4byte	.LVL2
 4557 0031 0100     		.2byte	0x1
 4558 0033 50       		.byte	0x50
 4559 0034 0C000000 		.4byte	.LVL2
 4560 0038 1C000000 		.4byte	.LFE9
 4561 003c 0400     		.2byte	0x4
 4562 003e F3       		.byte	0xf3
 4563 003f 01       		.uleb128 0x1
 4564 0040 50       		.byte	0x50
 4565 0041 9F       		.byte	0x9f
 4566 0042 00000000 		.4byte	0
 4567 0046 00000000 		.4byte	0
 4568              	.LVUS2:
 4569 004a 03       		.uleb128 .LVU50
 4570 004b 01       		.uleb128 .LVU53
 4571 004c 01       		.uleb128 .LVU53
 4572 004d 01       		.uleb128 .LVU56
 4573 004e 01       		.uleb128 .LVU56
 4574 004f 01       		.uleb128 .LVU59
 4575 0050 01       		.uleb128 .LVU59
 4576 0051 01       		.uleb128 .LVU62
 4577 0052 01       		.uleb128 .LVU62
 4578 0053 00       		.uleb128 .LVU71
 4579 0054 00       		.uleb128 .LVU76
 4580 0055 00       		.uleb128 0
 4581              	.LLST2:
 4582 0056 34000000 		.4byte	.LVL10
 4583 005a 40000000 		.4byte	.LVL11
 4584 005e 0200     		.2byte	0x2
 4585 0060 30       		.byte	0x30
 4586 0061 9F       		.byte	0x9f
 4587 0062 40000000 		.4byte	.LVL11
 4588 0066 4C000000 		.4byte	.LVL12
 4589 006a 0200     		.2byte	0x2
 4590 006c 31       		.byte	0x31
 4591 006d 9F       		.byte	0x9f
 4592 006e 4C000000 		.4byte	.LVL12
 4593 0072 58000000 		.4byte	.LVL13
 4594 0076 0200     		.2byte	0x2
 4595 0078 32       		.byte	0x32
 4596 0079 9F       		.byte	0x9f
 4597 007a 58000000 		.4byte	.LVL13
 4598 007e 64000000 		.4byte	.LVL14
 4599 0082 0200     		.2byte	0x2
 4600 0084 33       		.byte	0x33
 4601 0085 9F       		.byte	0x9f
 4602 0086 64000000 		.4byte	.LVL14
 4603 008a 8C000000 		.4byte	.LVL16
 4604 008e 0200     		.2byte	0x2
 4605 0090 34       		.byte	0x34
 4606 0091 9F       		.byte	0x9f
 4607 0092 98000000 		.4byte	.LVL17
 4608 0096 6C030000 		.4byte	.LFE10
ARM GAS  /tmp/ccLBGe59.s 			page 82


 4609 009a 0200     		.2byte	0x2
 4610 009c 34       		.byte	0x34
 4611 009d 9F       		.byte	0x9f
 4612 009e 00000000 		.4byte	0
 4613 00a2 00000000 		.4byte	0
 4614              	.LVUS3:
 4615 00a6 03       		.uleb128 .LVU90
 4616 00a7 00       		.uleb128 .LVU93
 4617 00a8 00       		.uleb128 .LVU93
 4618 00a9 01       		.uleb128 .LVU97
 4619 00aa 01       		.uleb128 .LVU97
 4620 00ab 00       		.uleb128 .LVU99
 4621 00ac 00       		.uleb128 .LVU99
 4622 00ad 03       		.uleb128 .LVU114
 4623 00ae 03       		.uleb128 .LVU114
 4624 00af 01       		.uleb128 .LVU117
 4625 00b0 01       		.uleb128 .LVU117
 4626 00b1 01       		.uleb128 .LVU120
 4627 00b2 01       		.uleb128 .LVU120
 4628 00b3 01       		.uleb128 .LVU123
 4629 00b4 01       		.uleb128 .LVU123
 4630 00b5 01       		.uleb128 .LVU126
 4631 00b6 01       		.uleb128 .LVU126
 4632 00b7 03       		.uleb128 .LVU148
 4633 00b8 03       		.uleb128 .LVU148
 4634 00b9 01       		.uleb128 .LVU151
 4635 00ba 01       		.uleb128 .LVU151
 4636 00bb 01       		.uleb128 .LVU154
 4637 00bc 01       		.uleb128 .LVU154
 4638 00bd 01       		.uleb128 .LVU157
 4639 00be 01       		.uleb128 .LVU157
 4640 00bf 01       		.uleb128 .LVU160
 4641 00c0 01       		.uleb128 .LVU160
 4642 00c1 00       		.uleb128 .LVU216
 4643              	.LLST3:
 4644 00c2 CC000000 		.4byte	.LVL20
 4645 00c6 D4000000 		.4byte	.LVL21
 4646 00ca 0200     		.2byte	0x2
 4647 00cc 30       		.byte	0x30
 4648 00cd 9F       		.byte	0x9f
 4649 00ce D4000000 		.4byte	.LVL21
 4650 00d2 E8000000 		.4byte	.LVL23
 4651 00d6 0500     		.2byte	0x5
 4652 00d8 34       		.byte	0x34
 4653 00d9 75       		.byte	0x75
 4654 00da 00       		.sleb128 0
 4655 00db 1C       		.byte	0x1c
 4656 00dc 9F       		.byte	0x9f
 4657 00dd E8000000 		.4byte	.LVL23
 4658 00e1 EC000000 		.4byte	.LVL24
 4659 00e5 0500     		.2byte	0x5
 4660 00e7 35       		.byte	0x35
 4661 00e8 75       		.byte	0x75
 4662 00e9 00       		.sleb128 0
 4663 00ea 1C       		.byte	0x1c
 4664 00eb 9F       		.byte	0x9f
 4665 00ec EC000000 		.4byte	.LVL24
ARM GAS  /tmp/ccLBGe59.s 			page 83


 4666 00f0 2C010000 		.4byte	.LVL27
 4667 00f4 0500     		.2byte	0x5
 4668 00f6 34       		.byte	0x34
 4669 00f7 75       		.byte	0x75
 4670 00f8 00       		.sleb128 0
 4671 00f9 1C       		.byte	0x1c
 4672 00fa 9F       		.byte	0x9f
 4673 00fb 2C010000 		.4byte	.LVL27
 4674 00ff 38010000 		.4byte	.LVL28
 4675 0103 0200     		.2byte	0x2
 4676 0105 30       		.byte	0x30
 4677 0106 9F       		.byte	0x9f
 4678 0107 38010000 		.4byte	.LVL28
 4679 010b 44010000 		.4byte	.LVL29
 4680 010f 0200     		.2byte	0x2
 4681 0111 31       		.byte	0x31
 4682 0112 9F       		.byte	0x9f
 4683 0113 44010000 		.4byte	.LVL29
 4684 0117 50010000 		.4byte	.LVL30
 4685 011b 0200     		.2byte	0x2
 4686 011d 32       		.byte	0x32
 4687 011e 9F       		.byte	0x9f
 4688 011f 50010000 		.4byte	.LVL30
 4689 0123 5C010000 		.4byte	.LVL31
 4690 0127 0200     		.2byte	0x2
 4691 0129 33       		.byte	0x33
 4692 012a 9F       		.byte	0x9f
 4693 012b 5C010000 		.4byte	.LVL31
 4694 012f C4010000 		.4byte	.LVL37
 4695 0133 0200     		.2byte	0x2
 4696 0135 34       		.byte	0x34
 4697 0136 9F       		.byte	0x9f
 4698 0137 C4010000 		.4byte	.LVL37
 4699 013b D0010000 		.4byte	.LVL38
 4700 013f 0200     		.2byte	0x2
 4701 0141 30       		.byte	0x30
 4702 0142 9F       		.byte	0x9f
 4703 0143 D0010000 		.4byte	.LVL38
 4704 0147 DC010000 		.4byte	.LVL39
 4705 014b 0200     		.2byte	0x2
 4706 014d 31       		.byte	0x31
 4707 014e 9F       		.byte	0x9f
 4708 014f DC010000 		.4byte	.LVL39
 4709 0153 E8010000 		.4byte	.LVL40
 4710 0157 0200     		.2byte	0x2
 4711 0159 32       		.byte	0x32
 4712 015a 9F       		.byte	0x9f
 4713 015b E8010000 		.4byte	.LVL40
 4714 015f F4010000 		.4byte	.LVL41
 4715 0163 0200     		.2byte	0x2
 4716 0165 33       		.byte	0x33
 4717 0166 9F       		.byte	0x9f
 4718 0167 F4010000 		.4byte	.LVL41
 4719 016b 44030000 		.4byte	.LVL58
 4720 016f 0200     		.2byte	0x2
 4721 0171 34       		.byte	0x34
 4722 0172 9F       		.byte	0x9f
ARM GAS  /tmp/ccLBGe59.s 			page 84


 4723 0173 00000000 		.4byte	0
 4724 0177 00000000 		.4byte	0
 4725              	.LVUS4:
 4726 017b 00       		.uleb128 .LVU133
 4727 017c 00       		.uleb128 .LVU134
 4728 017d 00       		.uleb128 .LVU166
 4729 017e 00       		.uleb128 .LVU167
 4730 017f 00       		.uleb128 .LVU171
 4731 0180 00       		.uleb128 .LVU172
 4732              	.LLST4:
 4733 0181 80010000 		.4byte	.LVL33
 4734 0185 8C010000 		.4byte	.LVL34
 4735 0189 0100     		.2byte	0x1
 4736 018b 50       		.byte	0x50
 4737 018c 10020000 		.4byte	.LVL43
 4738 0190 1C020000 		.4byte	.LVL44
 4739 0194 0100     		.2byte	0x1
 4740 0196 50       		.byte	0x50
 4741 0197 44020000 		.4byte	.LVL47
 4742 019b 50020000 		.4byte	.LVL48
 4743 019f 0100     		.2byte	0x1
 4744 01a1 50       		.byte	0x50
 4745 01a2 00000000 		.4byte	0
 4746 01a6 00000000 		.4byte	0
 4747              	.LVUS5:
 4748 01aa 03       		.uleb128 .LVU233
 4749 01ab 00       		.uleb128 .LVU236
 4750              	.LLST5:
 4751 01ac 34000000 		.4byte	.LVL60
 4752 01b0 3C000000 		.4byte	.LVL61
 4753 01b4 0200     		.2byte	0x2
 4754 01b6 30       		.byte	0x30
 4755 01b7 9F       		.byte	0x9f
 4756 01b8 00000000 		.4byte	0
 4757 01bc 00000000 		.4byte	0
 4758              	.LVUS6:
 4759 01c0 03       		.uleb128 .LVU250
 4760 01c1 00       		.uleb128 .LVU253
 4761 01c2 00       		.uleb128 .LVU253
 4762 01c3 02       		.uleb128 .LVU266
 4763 01c4 02       		.uleb128 .LVU266
 4764 01c5 00       		.uleb128 .LVU268
 4765 01c6 00       		.uleb128 .LVU268
 4766 01c7 00       		.uleb128 .LVU289
 4767 01c8 00       		.uleb128 .LVU358
 4768 01c9 00       		.uleb128 0
 4769              	.LLST6:
 4770 01ca 80000000 		.4byte	.LVL64
 4771 01ce 88000000 		.4byte	.LVL65
 4772 01d2 0200     		.2byte	0x2
 4773 01d4 30       		.byte	0x30
 4774 01d5 9F       		.byte	0x9f
 4775 01d6 88000000 		.4byte	.LVL65
 4776 01da A0000000 		.4byte	.LVL67
 4777 01de 0500     		.2byte	0x5
 4778 01e0 34       		.byte	0x34
 4779 01e1 74       		.byte	0x74
ARM GAS  /tmp/ccLBGe59.s 			page 85


 4780 01e2 00       		.sleb128 0
 4781 01e3 1C       		.byte	0x1c
 4782 01e4 9F       		.byte	0x9f
 4783 01e5 A0000000 		.4byte	.LVL67
 4784 01e9 A4000000 		.4byte	.LVL68
 4785 01ed 0500     		.2byte	0x5
 4786 01ef 35       		.byte	0x35
 4787 01f0 74       		.byte	0x74
 4788 01f1 00       		.sleb128 0
 4789 01f2 1C       		.byte	0x1c
 4790 01f3 9F       		.byte	0x9f
 4791 01f4 A4000000 		.4byte	.LVL68
 4792 01f8 18010000 		.4byte	.LVL73
 4793 01fc 0500     		.2byte	0x5
 4794 01fe 34       		.byte	0x34
 4795 01ff 74       		.byte	0x74
 4796 0200 00       		.sleb128 0
 4797 0201 1C       		.byte	0x1c
 4798 0202 9F       		.byte	0x9f
 4799 0203 E8020000 		.4byte	.LVL95
 4800 0207 10030000 		.4byte	.LFE13
 4801 020b 0500     		.2byte	0x5
 4802 020d 34       		.byte	0x34
 4803 020e 74       		.byte	0x74
 4804 020f 00       		.sleb128 0
 4805 0210 1C       		.byte	0x1c
 4806 0211 9F       		.byte	0x9f
 4807 0212 00000000 		.4byte	0
 4808 0216 00000000 		.4byte	0
 4809              	.LVUS7:
 4810 021a 00       		.uleb128 .LVU290
 4811 021b 00       		.uleb128 .LVU291
 4812 021c 00       		.uleb128 .LVU333
 4813 021d 00       		.uleb128 .LVU334
 4814 021e 00       		.uleb128 .LVU338
 4815 021f 00       		.uleb128 .LVU339
 4816              	.LLST7:
 4817 0220 30010000 		.4byte	.LVL75
 4818 0224 3C010000 		.4byte	.LVL76
 4819 0228 0100     		.2byte	0x1
 4820 022a 50       		.byte	0x50
 4821 022b 2C020000 		.4byte	.LVL85
 4822 022f 38020000 		.4byte	.LVL86
 4823 0233 0100     		.2byte	0x1
 4824 0235 50       		.byte	0x50
 4825 0236 5C020000 		.4byte	.LVL89
 4826 023a 68020000 		.4byte	.LVL90
 4827 023e 0100     		.2byte	0x1
 4828 0240 50       		.byte	0x50
 4829 0241 00000000 		.4byte	0
 4830 0245 00000000 		.4byte	0
 4831              	.LVUS8:
 4832 0249 00       		.uleb128 .LVU259
 4833 024a 00       		.uleb128 .LVU264
 4834              	.LLST8:
 4835 024b 94000000 		.4byte	.LVL66
 4836 024f 9F000000 		.4byte	.LVL67-1
ARM GAS  /tmp/ccLBGe59.s 			page 86


 4837 0253 0100     		.2byte	0x1
 4838 0255 50       		.byte	0x50
 4839 0256 00000000 		.4byte	0
 4840 025a 00000000 		.4byte	0
 4841              		.section	.debug_aranges,"",%progbits
 4842 0000 4C000000 		.4byte	0x4c
 4843 0004 0200     		.2byte	0x2
 4844 0006 00000000 		.4byte	.Ldebug_info0
 4845 000a 04       		.byte	0x4
 4846 000b 00       		.byte	0
 4847 000c 0000     		.2byte	0
 4848 000e 0000     		.2byte	0
 4849 0010 00000000 		.4byte	.LFB7
 4850 0014 04000000 		.4byte	.LFE7-.LFB7
 4851 0018 00000000 		.4byte	.LFB9
 4852 001c 1C000000 		.4byte	.LFE9-.LFB9
 4853 0020 00000000 		.4byte	.LFB8
 4854 0024 3C000000 		.4byte	.LFE8-.LFB8
 4855 0028 00000000 		.4byte	.LFB12
 4856 002c 20000000 		.4byte	.LFE12-.LFB12
 4857 0030 00000000 		.4byte	.LFB11
 4858 0034 3C000000 		.4byte	.LFE11-.LFB11
 4859 0038 00000000 		.4byte	.LFB10
 4860 003c 6C030000 		.4byte	.LFE10-.LFB10
 4861 0040 00000000 		.4byte	.LFB13
 4862 0044 10030000 		.4byte	.LFE13-.LFB13
 4863 0048 00000000 		.4byte	0
 4864 004c 00000000 		.4byte	0
 4865              		.section	.debug_ranges,"",%progbits
 4866              	.Ldebug_ranges0:
 4867 0000 8C000000 		.4byte	.LBB5
 4868 0004 90000000 		.4byte	.LBE5
 4869 0008 98000000 		.4byte	.LBB9
 4870 000c 38030000 		.4byte	.LBE9
 4871 0010 40030000 		.4byte	.LBB10
 4872 0014 44030000 		.4byte	.LBE10
 4873 0018 00000000 		.4byte	0
 4874 001c 00000000 		.4byte	0
 4875 0020 7C000000 		.4byte	.LBB14
 4876 0024 C0020000 		.4byte	.LBE14
 4877 0028 C8020000 		.4byte	.LBB19
 4878 002c D0020000 		.4byte	.LBE19
 4879 0030 E8020000 		.4byte	.LBB20
 4880 0034 10030000 		.4byte	.LBE20
 4881 0038 00000000 		.4byte	0
 4882 003c 00000000 		.4byte	0
 4883 0040 00000000 		.4byte	.LFB7
 4884 0044 04000000 		.4byte	.LFE7
 4885 0048 00000000 		.4byte	.LFB9
 4886 004c 1C000000 		.4byte	.LFE9
 4887 0050 00000000 		.4byte	.LFB8
 4888 0054 3C000000 		.4byte	.LFE8
 4889 0058 00000000 		.4byte	.LFB12
 4890 005c 20000000 		.4byte	.LFE12
 4891 0060 00000000 		.4byte	.LFB11
 4892 0064 3C000000 		.4byte	.LFE11
 4893 0068 00000000 		.4byte	.LFB10
ARM GAS  /tmp/ccLBGe59.s 			page 87


 4894 006c 6C030000 		.4byte	.LFE10
 4895 0070 00000000 		.4byte	.LFB13
 4896 0074 10030000 		.4byte	.LFE13
 4897 0078 00000000 		.4byte	0
 4898 007c 00000000 		.4byte	0
 4899              		.section	.debug_line,"",%progbits
 4900              	.Ldebug_line0:
 4901 0000 A0050000 		.section	.debug_str,"MS",%progbits,1
 4901      03001B01 
 4901      00000201 
 4901      FB0E0D00 
 4901      01010101 
 4902              	.LASF127:
 4903 0000 63684F51 		.ascii	"chOQPutTimeout\000"
 4903      50757454 
 4903      696D656F 
 4903      757400
 4904              	.LASF85:
 4905 000f 63665F6F 		.ascii	"cf_off_older\000"
 4905      66665F6F 
 4905      6C646572 
 4905      00
 4906              	.LASF38:
 4907 001c 705F6D73 		.ascii	"p_msg\000"
 4907      6700
 4908              	.LASF142:
 4909 0022 474E5520 		.ascii	"GNU C17 9.2.1 20191025 (release) [ARM/arm-9-branch "
 4909      43313720 
 4909      392E322E 
 4909      31203230 
 4909      31393130 
 4910 0055 72657669 		.ascii	"revision 277599] -mcpu=arm1176jz-s -mno-thumb-inter"
 4910      73696F6E 
 4910      20323737 
 4910      3539395D 
 4910      202D6D63 
 4911 0088 776F726B 		.ascii	"work -mfloat-abi=soft -marm -march=armv6kz -ggdb -O"
 4911      202D6D66 
 4911      6C6F6174 
 4911      2D616269 
 4911      3D736F66 
 4912 00bb 32202D66 		.ascii	"2 -fomit-frame-pointer -ffunction-sections -fdata-s"
 4912      6F6D6974 
 4912      2D667261 
 4912      6D652D70 
 4912      6F696E74 
 4913 00ee 65637469 		.ascii	"ections\000"
 4913      6F6E7300 
 4914              	.LASF70:
 4915 00f6 7264796D 		.ascii	"rdymsg\000"
 4915      736700
 4916              	.LASF130:
 4917 00fd 63684951 		.ascii	"chIQInit\000"
 4917      496E6974 
 4917      00
 4918              	.LASF106:
 4919 0106 4F757470 		.ascii	"OutputQueue\000"
ARM GAS  /tmp/ccLBGe59.s 			page 88


 4919      75745175 
 4919      65756500 
 4920              	.LASF64:
 4921 0112 76746C69 		.ascii	"vtlist\000"
 4921      737400
 4922              	.LASF135:
 4923 0119 63684951 		.ascii	"chIQReadTimeout\000"
 4923      52656164 
 4923      54696D65 
 4923      6F757400 
 4924              	.LASF119:
 4925 0129 70617474 		.ascii	"patternqueues\000"
 4925      65726E71 
 4925      75657565 
 4925      7300
 4926              	.LASF99:
 4927 0137 715F746F 		.ascii	"q_top\000"
 4927      7000
 4928              	.LASF13:
 4929 013d 6C6F6E67 		.ascii	"long long unsigned int\000"
 4929      206C6F6E 
 4929      6720756E 
 4929      7369676E 
 4929      65642069 
 4930              	.LASF140:
 4931 0154 63684F51 		.ascii	"chOQWriteTimeout\000"
 4931      57726974 
 4931      6554696D 
 4931      656F7574 
 4931      00
 4932              	.LASF81:
 4933 0165 63685F74 		.ascii	"ch_threadsize\000"
 4933      68726561 
 4933      6473697A 
 4933      6500
 4934              	.LASF71:
 4935 0173 65786974 		.ascii	"exitcode\000"
 4935      636F6465 
 4935      00
 4936              	.LASF124:
 4937 017c 71756575 		.ascii	"queues2_setup\000"
 4937      6573325F 
 4937      73657475 
 4937      7000
 4938              	.LASF115:
 4939 018a 74657374 		.ascii	"test\000"
 4939      00
 4940              	.LASF26:
 4941 018f 705F7072 		.ascii	"p_prio\000"
 4941      696F00
 4942              	.LASF88:
 4943 0196 63665F6F 		.ascii	"cf_off_state\000"
 4943      66665F73 
 4943      74617465 
 4943      00
 4944              	.LASF111:
 4945 01a3 74656172 		.ascii	"teardown\000"
ARM GAS  /tmp/ccLBGe59.s 			page 89


 4945      646F776E 
 4945      00
 4946              	.LASF96:
 4947 01ac 715F7761 		.ascii	"q_waiting\000"
 4947      6974696E 
 4947      6700
 4948              	.LASF6:
 4949 01b6 6C6F6E67 		.ascii	"long long int\000"
 4949      206C6F6E 
 4949      6720696E 
 4949      7400
 4950              	.LASF1:
 4951 01c4 7369676E 		.ascii	"signed char\000"
 4951      65642063 
 4951      68617200 
 4952              	.LASF87:
 4953 01d0 63665F6F 		.ascii	"cf_off_stklimit\000"
 4953      66665F73 
 4953      746B6C69 
 4953      6D697400 
 4954              	.LASF89:
 4955 01e0 63665F6F 		.ascii	"cf_off_flags\000"
 4955      66665F66 
 4955      6C616773 
 4955      00
 4956              	.LASF14:
 4957 01ed 626F6F6C 		.ascii	"bool_t\000"
 4957      5F7400
 4958              	.LASF67:
 4959 01f4 6D5F7175 		.ascii	"m_queue\000"
 4959      65756500 
 4960              	.LASF133:
 4961 01fc 74657374 		.ascii	"test_emit_token\000"
 4961      5F656D69 
 4961      745F746F 
 4961      6B656E00 
 4962              	.LASF18:
 4963 020c 74736C69 		.ascii	"tslices_t\000"
 4963      6365735F 
 4963      7400
 4964              	.LASF128:
 4965 0216 63684F51 		.ascii	"chOQInit\000"
 4965      496E6974 
 4965      00
 4966              	.LASF5:
 4967 021f 6C6F6E67 		.ascii	"long int\000"
 4967      20696E74 
 4967      00
 4968              	.LASF126:
 4969 0228 6E6F7469 		.ascii	"notify\000"
 4969      667900
 4970              	.LASF16:
 4971 022f 74737461 		.ascii	"tstate_t\000"
 4971      74655F74 
 4971      00
 4972              	.LASF139:
 4973 0238 63684F51 		.ascii	"chOQGetI\000"
ARM GAS  /tmp/ccLBGe59.s 			page 90


 4973      47657449 
 4973      00
 4974              	.LASF98:
 4975 0241 715F6275 		.ascii	"q_buffer\000"
 4975      66666572 
 4975      00
 4976              	.LASF9:
 4977 024a 75696E74 		.ascii	"uint16_t\000"
 4977      31365F74 
 4977      00
 4978              	.LASF93:
 4979 0253 63686465 		.ascii	"chdebug_t\000"
 4979      6275675F 
 4979      7400
 4980              	.LASF113:
 4981 025d 62756666 		.ascii	"buffer\000"
 4981      657200
 4982              	.LASF28:
 4983 0264 705F6E65 		.ascii	"p_newer\000"
 4983      77657200 
 4984              	.LASF107:
 4985 026c 5F69646C 		.ascii	"_idle_thread_wa\000"
 4985      655F7468 
 4985      72656164 
 4985      5F776100 
 4986              	.LASF60:
 4987 027c 725F6E65 		.ascii	"r_newer\000"
 4987      77657200 
 4988              	.LASF45:
 4989 0284 72656761 		.ascii	"regarm_t\000"
 4989      726D5F74 
 4989      00
 4990              	.LASF51:
 4991 028d 76745F70 		.ascii	"vt_prev\000"
 4991      72657600 
 4992              	.LASF3:
 4993 0295 73697A65 		.ascii	"size_t\000"
 4993      5F7400
 4994              	.LASF131:
 4995 029c 63684951 		.ascii	"chIQPutI\000"
 4995      50757449 
 4995      00
 4996              	.LASF0:
 4997 02a5 756E7369 		.ascii	"unsigned int\000"
 4997      676E6564 
 4997      20696E74 
 4997      00
 4998              	.LASF50:
 4999 02b2 76745F6E 		.ascii	"vt_next\000"
 4999      65787400 
 5000              	.LASF136:
 5001 02ba 63684951 		.ascii	"chIQResetI\000"
 5001      52657365 
 5001      744900
 5002              	.LASF12:
 5003 02c5 6C6F6E67 		.ascii	"long unsigned int\000"
 5003      20756E73 
ARM GAS  /tmp/ccLBGe59.s 			page 91


 5003      69676E65 
 5003      6420696E 
 5003      7400
 5004              	.LASF94:
 5005 02d7 63685F64 		.ascii	"ch_debug\000"
 5005      65627567 
 5005      00
 5006              	.LASF116:
 5007 02e0 74657374 		.ascii	"test_timer_done\000"
 5007      5F74696D 
 5007      65725F64 
 5007      6F6E6500 
 5008              	.LASF109:
 5009 02f0 6E616D65 		.ascii	"name\000"
 5009      00
 5010              	.LASF75:
 5011 02f5 63685F69 		.ascii	"ch_identifier\000"
 5011      64656E74 
 5011      69666965 
 5011      7200
 5012              	.LASF47:
 5013 0303 636F6E74 		.ascii	"context\000"
 5013      65787400 
 5014              	.LASF10:
 5015 030b 73686F72 		.ascii	"short unsigned int\000"
 5015      7420756E 
 5015      7369676E 
 5015      65642069 
 5015      6E7400
 5016              	.LASF121:
 5017 031e 71756575 		.ascii	"queues1_execute\000"
 5017      6573315F 
 5017      65786563 
 5017      75746500 
 5018              	.LASF117:
 5019 032e 74657374 		.ascii	"testqueues1\000"
 5019      71756575 
 5019      65733100 
 5020              	.LASF20:
 5021 033a 6D73675F 		.ascii	"msg_t\000"
 5021      7400
 5022              	.LASF114:
 5023 0340 74687265 		.ascii	"threads\000"
 5023      61647300 
 5024              	.LASF15:
 5025 0348 746D6F64 		.ascii	"tmode_t\000"
 5025      655F7400 
 5026              	.LASF43:
 5027 0350 54687265 		.ascii	"ThreadsList\000"
 5027      6164734C 
 5027      69737400 
 5028              	.LASF21:
 5029 035c 6576656E 		.ascii	"eventmask_t\000"
 5029      746D6173 
 5029      6B5F7400 
 5030              	.LASF105:
 5031 0368 496E7075 		.ascii	"InputQueue\000"
ARM GAS  /tmp/ccLBGe59.s 			page 92


 5031      74517565 
 5031      756500
 5032              	.LASF66:
 5033 0373 4D757465 		.ascii	"Mutex\000"
 5033      7800
 5034              	.LASF95:
 5035 0379 47656E65 		.ascii	"GenericQueue\000"
 5035      72696351 
 5035      75657565 
 5035      00
 5036              	.LASF44:
 5037 0386 73746B61 		.ascii	"stkalign_t\000"
 5037      6C69676E 
 5037      5F7400
 5038              	.LASF137:
 5039 0391 63685468 		.ascii	"chThdCreateStatic\000"
 5039      64437265 
 5039      61746553 
 5039      74617469 
 5039      6300
 5040              	.LASF76:
 5041 03a3 63685F7A 		.ascii	"ch_zero\000"
 5041      65726F00 
 5042              	.LASF90:
 5043 03ab 63665F6F 		.ascii	"cf_off_refs\000"
 5043      66665F72 
 5043      65667300 
 5044              	.LASF52:
 5045 03b7 76745F74 		.ascii	"vt_time\000"
 5045      696D6500 
 5046              	.LASF120:
 5047 03bf 71756575 		.ascii	"queues2_execute\000"
 5047      6573325F 
 5047      65786563 
 5047      75746500 
 5048              	.LASF143:
 5049 03cf 2E2E2F74 		.ascii	"../test/testqueues.c\000"
 5049      6573742F 
 5049      74657374 
 5049      71756575 
 5049      65732E63 
 5050              	.LASF97:
 5051 03e4 715F636F 		.ascii	"q_counter\000"
 5051      756E7465 
 5051      7200
 5052              	.LASF53:
 5053 03ee 76745F66 		.ascii	"vt_func\000"
 5053      756E6300 
 5054              	.LASF80:
 5055 03f6 63685F74 		.ascii	"ch_timesize\000"
 5055      696D6573 
 5055      697A6500 
 5056              	.LASF86:
 5057 0402 63665F6F 		.ascii	"cf_off_name\000"
 5057      66665F6E 
 5057      616D6500 
 5058              	.LASF118:
ARM GAS  /tmp/ccLBGe59.s 			page 93


 5059 040e 74657374 		.ascii	"testqueues2\000"
 5059      71756575 
 5059      65733200 
 5060              	.LASF138:
 5061 041a 74657374 		.ascii	"test_wait_threads\000"
 5061      5F776169 
 5061      745F7468 
 5061      72656164 
 5061      7300
 5062              	.LASF29:
 5063 042c 705F6F6C 		.ascii	"p_older\000"
 5063      64657200 
 5064              	.LASF123:
 5065 0434 74687265 		.ascii	"thread1\000"
 5065      61643100 
 5066              	.LASF100:
 5067 043c 715F7772 		.ascii	"q_wrptr\000"
 5067      70747200 
 5068              	.LASF59:
 5069 0444 725F6374 		.ascii	"r_ctx\000"
 5069      7800
 5070              	.LASF42:
 5071 044a 54687265 		.ascii	"ThreadsQueue\000"
 5071      61647351 
 5071      75657565 
 5071      00
 5072              	.LASF77:
 5073 0457 63685F73 		.ascii	"ch_size\000"
 5073      697A6500 
 5074              	.LASF110:
 5075 045f 73657475 		.ascii	"setup\000"
 5075      7000
 5076              	.LASF134:
 5077 0465 5F746573 		.ascii	"_test_assert_sequence\000"
 5077      745F6173 
 5077      73657274 
 5077      5F736571 
 5077      75656E63 
 5078              	.LASF62:
 5079 047b 725F6375 		.ascii	"r_current\000"
 5079      7272656E 
 5079      7400
 5080              	.LASF61:
 5081 0485 725F6F6C 		.ascii	"r_older\000"
 5081      64657200 
 5082              	.LASF125:
 5083 048d 71756575 		.ascii	"queues1_setup\000"
 5083      6573315F 
 5083      73657475 
 5083      7000
 5084              	.LASF17:
 5085 049b 74726566 		.ascii	"trefs_t\000"
 5085      735F7400 
 5086              	.LASF79:
 5087 04a3 63685F70 		.ascii	"ch_ptrsize\000"
 5087      74727369 
 5087      7A6500
ARM GAS  /tmp/ccLBGe59.s 			page 94


 5088              	.LASF104:
 5089 04ae 716E6F74 		.ascii	"qnotify_t\000"
 5089      6966795F 
 5089      7400
 5090              	.LASF25:
 5091 04b8 705F7072 		.ascii	"p_prev\000"
 5091      657600
 5092              	.LASF112:
 5093 04bf 65786563 		.ascii	"execute\000"
 5093      75746500 
 5094              	.LASF19:
 5095 04c7 74707269 		.ascii	"tprio_t\000"
 5095      6F5F7400 
 5096              	.LASF101:
 5097 04cf 715F7264 		.ascii	"q_rdptr\000"
 5097      70747200 
 5098              	.LASF4:
 5099 04d7 696E7433 		.ascii	"int32_t\000"
 5099      325F7400 
 5100              	.LASF8:
 5101 04df 756E7369 		.ascii	"unsigned char\000"
 5101      676E6564 
 5101      20636861 
 5101      7200
 5102              	.LASF40:
 5103 04ed 705F6D74 		.ascii	"p_mtxlist\000"
 5103      786C6973 
 5103      7400
 5104              	.LASF2:
 5105 04f7 73686F72 		.ascii	"short int\000"
 5105      7420696E 
 5105      7400
 5106              	.LASF31:
 5107 0501 705F7374 		.ascii	"p_state\000"
 5107      61746500 
 5108              	.LASF34:
 5109 0509 705F7072 		.ascii	"p_preempt\000"
 5109      65656D70 
 5109      7400
 5110              	.LASF92:
 5111 0513 63665F6F 		.ascii	"cf_off_time\000"
 5111      66665F74 
 5111      696D6500 
 5112              	.LASF58:
 5113 051f 725F7072 		.ascii	"r_prio\000"
 5113      696F00
 5114              	.LASF73:
 5115 0526 65776D61 		.ascii	"ewmask\000"
 5115      736B00
 5116              	.LASF24:
 5117 052d 705F6E65 		.ascii	"p_next\000"
 5117      787400
 5118              	.LASF91:
 5119 0534 63665F6F 		.ascii	"cf_off_preempt\000"
 5119      66665F70 
 5119      7265656D 
 5119      707400
ARM GAS  /tmp/ccLBGe59.s 			page 95


 5120              	.LASF32:
 5121 0543 705F666C 		.ascii	"p_flags\000"
 5121      61677300 
 5122              	.LASF23:
 5123 054b 54687265 		.ascii	"Thread\000"
 5123      616400
 5124              	.LASF84:
 5125 0552 63665F6F 		.ascii	"cf_off_newer\000"
 5125      66665F6E 
 5125      65776572 
 5125      00
 5126              	.LASF108:
 5127 055f 74657374 		.ascii	"testcase\000"
 5127      63617365 
 5127      00
 5128              	.LASF39:
 5129 0568 705F6570 		.ascii	"p_epending\000"
 5129      656E6469 
 5129      6E6700
 5130              	.LASF11:
 5131 0573 75696E74 		.ascii	"uint32_t\000"
 5131      33325F74 
 5131      00
 5132              	.LASF82:
 5133 057c 63665F6F 		.ascii	"cf_off_prio\000"
 5133      66665F70 
 5133      72696F00 
 5134              	.LASF57:
 5135 0588 725F7175 		.ascii	"r_queue\000"
 5135      65756500 
 5136              	.LASF49:
 5137 0590 56697274 		.ascii	"VirtualTimer\000"
 5137      75616C54 
 5137      696D6572 
 5137      00
 5138              	.LASF144:
 5139 059d 2F686F6D 		.ascii	"/home/taskman/arduino/embedded-wind-turbine/Data_Co"
 5139      652F7461 
 5139      736B6D61 
 5139      6E2F6172 
 5139      6475696E 
 5140 05d0 6C6C6563 		.ascii	"llector/raspberry/compiler/ChibiOS-RPi/led\000"
 5140      746F722F 
 5140      72617370 
 5140      62657272 
 5140      792F636F 
 5141              	.LASF74:
 5142 05fb 63686172 		.ascii	"char\000"
 5142      00
 5143              	.LASF145:
 5144 0600 74657374 		.ascii	"test_buffers\000"
 5144      5F627566 
 5144      66657273 
 5144      00
 5145              	.LASF122:
 5146 060d 74687265 		.ascii	"thread2\000"
 5146      61643200 
ARM GAS  /tmp/ccLBGe59.s 			page 96


 5147              	.LASF69:
 5148 0615 6D5F6E65 		.ascii	"m_next\000"
 5148      787400
 5149              	.LASF22:
 5150 061c 73797374 		.ascii	"systime_t\000"
 5150      696D655F 
 5150      7400
 5151              	.LASF41:
 5152 0626 705F7265 		.ascii	"p_realprio\000"
 5152      616C7072 
 5152      696F00
 5153              	.LASF48:
 5154 0631 76746675 		.ascii	"vtfunc_t\000"
 5154      6E635F74 
 5154      00
 5155              	.LASF141:
 5156 063a 63684F51 		.ascii	"chOQResetI\000"
 5156      52657365 
 5156      744900
 5157              	.LASF35:
 5158 0645 705F7469 		.ascii	"p_time\000"
 5158      6D6500
 5159              	.LASF46:
 5160 064c 696E7463 		.ascii	"intctx\000"
 5160      747800
 5161              	.LASF37:
 5162 0653 705F6D73 		.ascii	"p_msgqueue\000"
 5162      67717565 
 5162      756500
 5163              	.LASF54:
 5164 065e 76745F70 		.ascii	"vt_par\000"
 5164      617200
 5165              	.LASF83:
 5166 0665 63665F6F 		.ascii	"cf_off_ctx\000"
 5166      66665F63 
 5166      747800
 5167              	.LASF33:
 5168 0670 705F7265 		.ascii	"p_refs\000"
 5168      667300
 5169              	.LASF63:
 5170 0677 52656164 		.ascii	"ReadyList\000"
 5170      794C6973 
 5170      7400
 5171              	.LASF102:
 5172 0681 715F6E6F 		.ascii	"q_notify\000"
 5172      74696679 
 5172      00
 5173              	.LASF65:
 5174 068a 726C6973 		.ascii	"rlist\000"
 5174      7400
 5175              	.LASF7:
 5176 0690 75696E74 		.ascii	"uint8_t\000"
 5176      385F7400 
 5177              	.LASF72:
 5178 0698 77746F62 		.ascii	"wtobjp\000"
 5178      6A7000
 5179              	.LASF30:
ARM GAS  /tmp/ccLBGe59.s 			page 97


 5180 069f 705F6E61 		.ascii	"p_name\000"
 5180      6D6500
 5181              	.LASF132:
 5182 06a6 5F746573 		.ascii	"_test_assert\000"
 5182      745F6173 
 5182      73657274 
 5182      00
 5183              	.LASF55:
 5184 06b3 76745F73 		.ascii	"vt_systime\000"
 5184      79737469 
 5184      6D6500
 5185              	.LASF78:
 5186 06be 63685F76 		.ascii	"ch_version\000"
 5186      65727369 
 5186      6F6E00
 5187              	.LASF56:
 5188 06c9 56544C69 		.ascii	"VTList\000"
 5188      737400
 5189              	.LASF103:
 5190 06d0 715F6C69 		.ascii	"q_link\000"
 5190      6E6B00
 5191              	.LASF68:
 5192 06d7 6D5F6F77 		.ascii	"m_owner\000"
 5192      6E657200 
 5193              	.LASF27:
 5194 06df 705F6374 		.ascii	"p_ctx\000"
 5194      7800
 5195              	.LASF36:
 5196 06e5 705F7761 		.ascii	"p_waiting\000"
 5196      6974696E 
 5196      6700
 5197              	.LASF129:
 5198 06ef 63684951 		.ascii	"chIQGetTimeout\000"
 5198      47657454 
 5198      696D656F 
 5198      757400
 5199              		.ident	"GCC: (15:9-2019-q4-0ubuntu1) 9.2.1 20191025 (release) [ARM/arm-9-branch revision 277599]"
ARM GAS  /tmp/ccLBGe59.s 			page 98


DEFINED SYMBOLS
                            *ABS*:0000000000000000 testqueues.c
     /tmp/ccLBGe59.s:16     .text.notify:0000000000000000 $a
     /tmp/ccLBGe59.s:22     .text.notify:0000000000000000 notify
     /tmp/ccLBGe59.s:38     .text.thread1:0000000000000000 $a
     /tmp/ccLBGe59.s:43     .text.thread1:0000000000000000 thread1
     /tmp/ccLBGe59.s:71     .text.thread1:0000000000000018 $d
     /tmp/ccLBGe59.s:76     .text.queues1_setup:0000000000000000 $a
     /tmp/ccLBGe59.s:81     .text.queues1_setup:0000000000000000 queues1_setup
     /tmp/ccLBGe59.s:114    .text.queues1_setup:0000000000000030 $d
     /tmp/ccLBGe59.s:121    .text.thread2:0000000000000000 $a
     /tmp/ccLBGe59.s:126    .text.thread2:0000000000000000 thread2
     /tmp/ccLBGe59.s:155    .text.thread2:000000000000001c $d
     /tmp/ccLBGe59.s:160    .text.queues2_setup:0000000000000000 $a
     /tmp/ccLBGe59.s:165    .text.queues2_setup:0000000000000000 queues2_setup
     /tmp/ccLBGe59.s:198    .text.queues2_setup:0000000000000030 $d
     /tmp/ccLBGe59.s:205    .rodata.queues1_execute.str1.4:0000000000000000 $d
     /tmp/ccLBGe59.s:209    .text.queues1_execute:0000000000000000 $a
     /tmp/ccLBGe59.s:214    .text.queues1_execute:0000000000000000 queues1_execute
     /tmp/ccLBGe59.s:817    .text.queues1_execute:0000000000000354 $d
     /tmp/ccLBGe59.s:827    .text.queues2_execute:0000000000000000 $a
     /tmp/ccLBGe59.s:832    .text.queues2_execute:0000000000000000 queues2_execute
     /tmp/ccLBGe59.s:1352   .text.queues2_execute:00000000000002f8 $d
     /tmp/ccLBGe59.s:1407   .rodata.patternqueues:0000000000000000 patternqueues
     /tmp/ccLBGe59.s:1424   .rodata.testqueues2:0000000000000000 testqueues2
     /tmp/ccLBGe59.s:1366   .rodata.str1.4:0000000000000000 $d
     /tmp/ccLBGe59.s:1415   .rodata.testqueues1:0000000000000000 testqueues1
     /tmp/ccLBGe59.s:1374   .data.iq:0000000000000000 $d
     /tmp/ccLBGe59.s:1378   .data.iq:0000000000000000 iq
     /tmp/ccLBGe59.s:1389   .data.oq:0000000000000000 $d
     /tmp/ccLBGe59.s:1393   .data.oq:0000000000000000 oq
     /tmp/ccLBGe59.s:1404   .rodata.patternqueues:0000000000000000 $d
     /tmp/ccLBGe59.s:1412   .rodata.testqueues1:0000000000000000 $d
     /tmp/ccLBGe59.s:1421   .rodata.testqueues2:0000000000000000 $d

UNDEFINED SYMBOLS
chIQGetTimeout
chIQInit
wa
chOQPutTimeout
chOQInit
_test_assert
chIQPutI
test_emit_token
_test_assert_sequence
chIQReadTimeout
chIQResetI
chThdCreateStatic
test_wait_threads
rlist
threads
chOQGetI
chOQWriteTimeout
chOQResetI
test
