ARM GAS  /tmp/cciwcx5G.s 			page 1


   1              		.cpu arm1176jz-s
   2              		.eabi_attribute 20, 1
   3              		.eabi_attribute 21, 1
   4              		.eabi_attribute 23, 3
   5              		.eabi_attribute 24, 1
   6              		.eabi_attribute 25, 1
   7              		.eabi_attribute 26, 1
   8              		.eabi_attribute 30, 2
   9              		.eabi_attribute 34, 1
  10              		.eabi_attribute 18, 4
  11              		.file	"test.c"
  12              		.text
  13              	.Ltext0:
  14              		.cfi_sections	.debug_frame
  15              		.section	.text.tmr,"ax",%progbits
  16              		.align	2
  17              		.arch armv6kz
  18              		.syntax unified
  19              		.arm
  20              		.fpu softvfp
  21              		.type	tmr, %function
  22              	tmr:
  23              	.LVL0:
  24              	.LFB21:
  25              		.file 1 "../test/test.c"
  26              		.loc 1 265 26 view -0
  27              		.cfi_startproc
  28              		@ args = 0, pretend = 0, frame = 0
  29              		@ frame_needed = 0, uses_anonymous_args = 0
  30              		@ link register save eliminated.
  31              		.loc 1 266 3 view .LVU1
  32              		.loc 1 268 3 view .LVU2
  33              		.loc 1 268 19 is_stmt 0 view .LVU3
  34 0000 0120A0E3 		mov	r2, #1
  35 0004 04309FE5 		ldr	r3, .L3
  36 0008 002083E5 		str	r2, [r3]
  37              		.loc 1 269 1 view .LVU4
  38 000c 1EFF2FE1 		bx	lr
  39              	.L4:
  40              		.align	2
  41              	.L3:
  42 0010 00000000 		.word	test_timer_done
  43              		.cfi_endproc
  44              	.LFE21:
  45              		.size	tmr, .-tmr
  46              		.section	.rodata.print_line.str1.4,"aMS",%progbits,1
  47              		.align	2
  48              	.LC0:
  49 0000 0D0A00   		.ascii	"\015\012\000"
  50              		.section	.text.print_line,"ax",%progbits
  51              		.align	2
  52              		.syntax unified
  53              		.arm
  54              		.fpu softvfp
  55              		.type	print_line, %function
  56              	print_line:
  57              	.LFB24:
ARM GAS  /tmp/cciwcx5G.s 			page 2


  58              		.loc 1 304 30 is_stmt 1 view -0
  59              		.cfi_startproc
  60              		@ args = 0, pretend = 0, frame = 0
  61              		@ frame_needed = 0, uses_anonymous_args = 0
  62              		.loc 1 305 3 view .LVU6
  63              		.loc 1 307 3 view .LVU7
  64              	.LVL1:
  65              		.loc 1 307 15 view .LVU8
  66              		.loc 1 304 30 is_stmt 0 view .LVU9
  67 0000 70402DE9 		push	{r4, r5, r6, lr}
  68              		.cfi_def_cfa_offset 16
  69              		.cfi_offset 4, -16
  70              		.cfi_offset 5, -12
  71              		.cfi_offset 6, -8
  72              		.cfi_offset 14, -4
  73              		.loc 1 304 30 view .LVU10
  74 0004 4C40A0E3 		mov	r4, #76
  75 0008 34509FE5 		ldr	r5, .L9
  76              	.LVL2:
  77              	.L6:
  78              		.loc 1 308 5 is_stmt 1 discriminator 3 view .LVU11
  79 000c 000095E5 		ldr	r0, [r5]
  80 0010 2D10A0E3 		mov	r1, #45
  81 0014 003090E5 		ldr	r3, [r0]
  82 0018 083093E5 		ldr	r3, [r3, #8]
  83 001c 33FF2FE1 		blx	r3
  84              	.LVL3:
  85              		.loc 1 307 23 discriminator 3 view .LVU12
  86              		.loc 1 307 15 discriminator 3 view .LVU13
  87              		.loc 1 307 3 is_stmt 0 discriminator 3 view .LVU14
  88 0020 014054E2 		subs	r4, r4, #1
  89              	.LVL4:
  90              		.loc 1 307 3 discriminator 3 view .LVU15
  91 0024 F8FFFF1A 		bne	.L6
  92              		.loc 1 309 3 is_stmt 1 view .LVU16
  93 0028 000095E5 		ldr	r0, [r5]
  94 002c 0220A0E3 		mov	r2, #2
  95              		.loc 1 310 1 is_stmt 0 view .LVU17
  96 0030 7040BDE8 		pop	{r4, r5, r6, lr}
  97              		.cfi_restore 14
  98              		.cfi_restore 6
  99              		.cfi_restore 5
 100              		.cfi_restore 4
 101              		.cfi_def_cfa_offset 0
 102              	.LVL5:
 103              		.loc 1 309 3 view .LVU18
 104 0034 003090E5 		ldr	r3, [r0]
 105 0038 08109FE5 		ldr	r1, .L9+4
 106 003c 003093E5 		ldr	r3, [r3]
 107 0040 13FF2FE1 		bx	r3
 108              	.LVL6:
 109              	.L10:
 110              		.align	2
 111              	.L9:
 112 0044 00000000 		.word	.LANCHOR0
 113 0048 00000000 		.word	.LC0
 114              		.cfi_endproc
ARM GAS  /tmp/cciwcx5G.s 			page 3


 115              	.LFE24:
 116              		.size	print_line, .-print_line
 117              		.section	.text.test_printn,"ax",%progbits
 118              		.align	2
 119              		.global	test_printn
 120              		.syntax unified
 121              		.arm
 122              		.fpu softvfp
 123              		.type	test_printn, %function
 124              	test_printn:
 125              	.LVL7:
 126              	.LFB7:
 127              		.loc 1 95 30 is_stmt 1 view -0
 128              		.cfi_startproc
 129              		@ args = 0, pretend = 0, frame = 16
 130              		@ frame_needed = 0, uses_anonymous_args = 0
 131              		.loc 1 96 3 view .LVU20
 132              		.loc 1 98 3 view .LVU21
 133              		.loc 1 98 6 is_stmt 0 view .LVU22
 134 0000 000050E3 		cmp	r0, #0
 135              		.loc 1 98 6 view .LVU23
 136 0004 0500001A 		bne	.L15
 137              		.loc 1 99 5 is_stmt 1 view .LVU24
 138 0008 88309FE5 		ldr	r3, .L20
 139 000c 3010A0E3 		mov	r1, #48
 140 0010 000093E5 		ldr	r0, [r3]
 141              	.LVL8:
 142              		.loc 1 99 5 is_stmt 0 view .LVU25
 143 0014 003090E5 		ldr	r3, [r0]
 144 0018 083093E5 		ldr	r3, [r3, #8]
 145 001c 13FF2FE1 		bx	r3
 146              	.LVL9:
 147              	.L15:
 148              		.loc 1 95 30 view .LVU26
 149 0020 70402DE9 		push	{r4, r5, r6, lr}
 150              		.cfi_def_cfa_offset 16
 151              		.cfi_offset 4, -16
 152              		.cfi_offset 5, -12
 153              		.cfi_offset 6, -8
 154              		.cfi_offset 14, -4
 155 0024 10D04DE2 		sub	sp, sp, #16
 156              		.cfi_def_cfa_offset 32
 157              	.LBB50:
 158              	.LBB51:
 159              		.loc 1 101 7 view .LVU27
 160 0028 0D50A0E1 		mov	r5, sp
 161 002c 0520A0E1 		mov	r2, r5
 162              		.loc 1 103 17 view .LVU28
 163 0030 64E09FE5 		ldr	lr, .L20+4
 164              	.LVL10:
 165              	.L12:
 166              		.loc 1 103 7 is_stmt 1 view .LVU29
 167 0034 00C0A0E1 		mov	ip, r0
 168              		.loc 1 103 17 is_stmt 0 view .LVU30
 169 0038 9E1083E0 		umull	r1, r3, lr, r0
 170 003c A331A0E1 		lsr	r3, r3, #3
 171 0040 031183E0 		add	r1, r3, r3, lsl #2
ARM GAS  /tmp/cciwcx5G.s 			page 4


 172 0044 810040E0 		sub	r0, r0, r1, lsl #1
 173              	.LVL11:
 174              		.loc 1 103 23 view .LVU31
 175 0048 301080E2 		add	r1, r0, #48
 176 004c 7110EFE6 		uxtb	r1, r1
 177              		.loc 1 102 11 view .LVU32
 178 0050 09005CE3 		cmp	ip, #9
 179 0054 0240A0E1 		mov	r4, r2
 180              	.LVL12:
 181              		.loc 1 102 11 is_stmt 1 view .LVU33
 182              		.loc 1 103 32 is_stmt 0 view .LVU34
 183 0058 0300A0E1 		mov	r0, r3
 184              		.loc 1 103 12 view .LVU35
 185 005c 0110C2E4 		strb	r1, [r2], #1
 186              	.LVL13:
 187              		.loc 1 102 11 view .LVU36
 188 0060 F3FFFF8A 		bhi	.L12
 189              		.loc 1 104 11 is_stmt 1 view .LVU37
 190 0064 050052E1 		cmp	r2, r5
 191 0068 0800009A 		bls	.L11
 192              		.loc 1 104 11 is_stmt 0 view .LVU38
 193 006c 24609FE5 		ldr	r6, .L20
 194 0070 000000EA 		b	.L14
 195              	.LVL14:
 196              	.L19:
 197              		.loc 1 104 11 view .LVU39
 198 0074 011074E5 		ldrb	r1, [r4, #-1]!	@ zero_extendqisi2
 199              	.LVL15:
 200              	.L14:
 201              		.loc 1 105 7 is_stmt 1 view .LVU40
 202 0078 000096E5 		ldr	r0, [r6]
 203              	.LVL16:
 204              		.loc 1 105 7 is_stmt 0 view .LVU41
 205 007c 003090E5 		ldr	r3, [r0]
 206 0080 083093E5 		ldr	r3, [r3, #8]
 207 0084 33FF2FE1 		blx	r3
 208              	.LVL17:
 209              		.loc 1 104 11 is_stmt 1 view .LVU42
 210 0088 040055E1 		cmp	r5, r4
 211 008c F8FFFF1A 		bne	.L19
 212              	.LVL18:
 213              	.L11:
 214              		.loc 1 104 11 is_stmt 0 view .LVU43
 215              	.LBE51:
 216              	.LBE50:
 217              		.loc 1 107 1 view .LVU44
 218 0090 10D08DE2 		add	sp, sp, #16
 219              		.cfi_def_cfa_offset 16
 220              		@ sp needed
 221 0094 7080BDE8 		pop	{r4, r5, r6, pc}
 222              	.L21:
 223              		.align	2
 224              	.L20:
 225 0098 00000000 		.word	.LANCHOR0
 226 009c CDCCCCCC 		.word	-858993459
 227              		.cfi_endproc
 228              	.LFE7:
ARM GAS  /tmp/cciwcx5G.s 			page 5


 229              		.size	test_printn, .-test_printn
 230              		.section	.text.test_print,"ax",%progbits
 231              		.align	2
 232              		.global	test_print
 233              		.syntax unified
 234              		.arm
 235              		.fpu softvfp
 236              		.type	test_print, %function
 237              	test_print:
 238              	.LVL19:
 239              	.LFB8:
 240              		.loc 1 114 35 is_stmt 1 view -0
 241              		.cfi_startproc
 242              		@ args = 0, pretend = 0, frame = 0
 243              		@ frame_needed = 0, uses_anonymous_args = 0
 244              		.loc 1 116 3 view .LVU46
 245              		.loc 1 116 9 view .LVU47
 246              		.loc 1 116 10 is_stmt 0 view .LVU48
 247 0000 0010D0E5 		ldrb	r1, [r0]	@ zero_extendqisi2
 248              		.loc 1 116 9 view .LVU49
 249 0004 000051E3 		cmp	r1, #0
 250 0008 1EFF2F01 		bxeq	lr
 251              		.loc 1 114 35 view .LVU50
 252 000c 70402DE9 		push	{r4, r5, r6, lr}
 253              		.cfi_def_cfa_offset 16
 254              		.cfi_offset 4, -16
 255              		.cfi_offset 5, -12
 256              		.cfi_offset 6, -8
 257              		.cfi_offset 14, -4
 258 0010 0040A0E1 		mov	r4, r0
 259 0014 1C509FE5 		ldr	r5, .L33
 260              	.LVL20:
 261              	.L24:
 262              		.loc 1 117 5 is_stmt 1 view .LVU51
 263 0018 000095E5 		ldr	r0, [r5]
 264              	.LVL21:
 265              		.loc 1 117 5 is_stmt 0 view .LVU52
 266 001c 003090E5 		ldr	r3, [r0]
 267 0020 083093E5 		ldr	r3, [r3, #8]
 268 0024 33FF2FE1 		blx	r3
 269              	.LVL22:
 270              		.loc 1 116 9 is_stmt 1 view .LVU53
 271              		.loc 1 116 10 is_stmt 0 view .LVU54
 272 0028 0110F4E5 		ldrb	r1, [r4, #1]!	@ zero_extendqisi2
 273              	.LVL23:
 274              		.loc 1 116 9 view .LVU55
 275 002c 000051E3 		cmp	r1, #0
 276 0030 F8FFFF1A 		bne	.L24
 277 0034 7080BDE8 		pop	{r4, r5, r6, pc}
 278              	.L34:
 279              		.align	2
 280              	.L33:
 281 0038 00000000 		.word	.LANCHOR0
 282              		.cfi_endproc
 283              	.LFE8:
 284              		.size	test_print, .-test_print
 285              		.section	.text.test_println,"ax",%progbits
ARM GAS  /tmp/cciwcx5G.s 			page 6


 286              		.align	2
 287              		.global	test_println
 288              		.syntax unified
 289              		.arm
 290              		.fpu softvfp
 291              		.type	test_println, %function
 292              	test_println:
 293              	.LVL24:
 294              	.LFB9:
 295              		.loc 1 125 37 is_stmt 1 view -0
 296              		.cfi_startproc
 297              		@ args = 0, pretend = 0, frame = 0
 298              		@ frame_needed = 0, uses_anonymous_args = 0
 299              		.loc 1 127 3 view .LVU57
 300              	.LBB52:
 301              	.LBI52:
 302              		.loc 1 114 6 view .LVU58
 303              	.LBB53:
 304              		.loc 1 116 3 view .LVU59
 305              		.loc 1 116 9 view .LVU60
 306              	.LBE53:
 307              	.LBE52:
 308              		.loc 1 125 37 is_stmt 0 view .LVU61
 309 0000 70402DE9 		push	{r4, r5, r6, lr}
 310              		.cfi_def_cfa_offset 16
 311              		.cfi_offset 4, -16
 312              		.cfi_offset 5, -12
 313              		.cfi_offset 6, -8
 314              		.cfi_offset 14, -4
 315              	.LBB55:
 316              	.LBB54:
 317              		.loc 1 116 10 view .LVU62
 318 0004 0010D0E5 		ldrb	r1, [r0]	@ zero_extendqisi2
 319              		.loc 1 116 9 view .LVU63
 320 0008 000051E3 		cmp	r1, #0
 321 000c 40509F05 		ldreq	r5, .L43
 322 0010 0800000A 		beq	.L36
 323 0014 0040A0E1 		mov	r4, r0
 324 0018 34509FE5 		ldr	r5, .L43
 325              	.LVL25:
 326              	.L37:
 327              		.loc 1 117 5 is_stmt 1 view .LVU64
 328 001c 000095E5 		ldr	r0, [r5]
 329              	.LVL26:
 330              		.loc 1 117 5 is_stmt 0 view .LVU65
 331 0020 003090E5 		ldr	r3, [r0]
 332 0024 083093E5 		ldr	r3, [r3, #8]
 333 0028 33FF2FE1 		blx	r3
 334              	.LVL27:
 335              		.loc 1 116 9 is_stmt 1 view .LVU66
 336              		.loc 1 116 10 is_stmt 0 view .LVU67
 337 002c 0110F4E5 		ldrb	r1, [r4, #1]!	@ zero_extendqisi2
 338              	.LVL28:
 339              		.loc 1 116 9 view .LVU68
 340 0030 000051E3 		cmp	r1, #0
 341 0034 F8FFFF1A 		bne	.L37
 342              	.LVL29:
ARM GAS  /tmp/cciwcx5G.s 			page 7


 343              	.L36:
 344              		.loc 1 116 9 view .LVU69
 345              	.LBE54:
 346              	.LBE55:
 347              		.loc 1 128 3 is_stmt 1 view .LVU70
 348 0038 000095E5 		ldr	r0, [r5]
 349 003c 0220A0E3 		mov	r2, #2
 350              		.loc 1 129 1 is_stmt 0 view .LVU71
 351 0040 7040BDE8 		pop	{r4, r5, r6, lr}
 352              		.cfi_restore 14
 353              		.cfi_restore 6
 354              		.cfi_restore 5
 355              		.cfi_restore 4
 356              		.cfi_def_cfa_offset 0
 357              		.loc 1 128 3 view .LVU72
 358 0044 003090E5 		ldr	r3, [r0]
 359 0048 08109FE5 		ldr	r1, .L43+4
 360 004c 003093E5 		ldr	r3, [r3]
 361 0050 13FF2FE1 		bx	r3
 362              	.LVL30:
 363              	.L44:
 364              		.align	2
 365              	.L43:
 366 0054 00000000 		.word	.LANCHOR0
 367 0058 00000000 		.word	.LC0
 368              		.cfi_endproc
 369              	.LFE9:
 370              		.size	test_println, .-test_println
 371              		.section	.text.test_emit_token,"ax",%progbits
 372              		.align	2
 373              		.global	test_emit_token
 374              		.syntax unified
 375              		.arm
 376              		.fpu softvfp
 377              		.type	test_emit_token, %function
 378              	test_emit_token:
 379              	.LVL31:
 380              	.LFB12:
 381              		.loc 1 151 34 is_stmt 1 view -0
 382              		.cfi_startproc
 383              		@ args = 0, pretend = 0, frame = 0
 384              		@ frame_needed = 0, uses_anonymous_args = 0
 385              		@ link register save eliminated.
 386              		.loc 1 153 3 view .LVU74
 387              		.syntax divided
 388              	@ 153 "../test/test.c" 1
 389 0000 9FF021E3 		msr     CPSR_c, #0x9F
 390              	@ 0 "" 2
 391              		.loc 1 153 3 view .LVU75
 392              		.loc 1 153 14 view .LVU76
 393              		.loc 1 154 3 view .LVU77
 394              		.loc 1 154 8 is_stmt 0 view .LVU78
 395              		.arm
 396              		.syntax unified
 397 0004 14309FE5 		ldr	r3, .L46
 398 0008 002093E5 		ldr	r2, [r3]
 399 000c 011082E2 		add	r1, r2, #1
ARM GAS  /tmp/cciwcx5G.s 			page 8


 400              		.loc 1 154 11 view .LVU79
 401 0010 0000C2E5 		strb	r0, [r2]
 402              		.loc 1 155 3 is_stmt 1 view .LVU80
 403              		.loc 1 155 3 view .LVU81
 404              		.loc 1 154 8 is_stmt 0 view .LVU82
 405 0014 001083E5 		str	r1, [r3]
 406              		.loc 1 155 3 view .LVU83
 407              		.syntax divided
 408              	@ 155 "../test/test.c" 1
 409 0018 1FF021E3 		msr     CPSR_c, #0x1F
 410              	@ 0 "" 2
 411              		.loc 1 155 16 is_stmt 1 view .LVU84
 412              		.loc 1 156 1 is_stmt 0 view .LVU85
 413              		.arm
 414              		.syntax unified
 415 001c 1EFF2FE1 		bx	lr
 416              	.L47:
 417              		.align	2
 418              	.L46:
 419 0020 00000000 		.word	.LANCHOR1
 420              		.cfi_endproc
 421              	.LFE12:
 422              		.size	test_emit_token, .-test_emit_token
 423              		.section	.text._test_fail,"ax",%progbits
 424              		.align	2
 425              		.global	_test_fail
 426              		.syntax unified
 427              		.arm
 428              		.fpu softvfp
 429              		.type	_test_fail, %function
 430              	_test_fail:
 431              	.LVL32:
 432              	.LFB13:
 433              		.loc 1 161 35 is_stmt 1 view -0
 434              		.cfi_startproc
 435              		@ args = 0, pretend = 0, frame = 0
 436              		@ frame_needed = 0, uses_anonymous_args = 0
 437              		@ link register save eliminated.
 438              		.loc 1 163 3 view .LVU87
 439              		.loc 1 163 14 is_stmt 0 view .LVU88
 440 0000 0130A0E3 		mov	r3, #1
 441              		.loc 1 165 13 view .LVU89
 442 0004 18C09FE5 		ldr	ip, .L49
 443              		.loc 1 163 14 view .LVU90
 444 0008 18109FE5 		ldr	r1, .L49+4
 445              		.loc 1 164 15 view .LVU91
 446 000c 18209FE5 		ldr	r2, .L49+8
 447              		.loc 1 165 13 view .LVU92
 448 0010 00008CE5 		str	r0, [ip]
 449              		.loc 1 163 14 view .LVU93
 450 0014 003081E5 		str	r3, [r1]
 451              		.loc 1 164 3 is_stmt 1 view .LVU94
 452              		.loc 1 167 1 is_stmt 0 view .LVU95
 453 0018 0300A0E1 		mov	r0, r3
 454              	.LVL33:
 455              		.loc 1 164 15 view .LVU96
 456 001c 003082E5 		str	r3, [r2]
ARM GAS  /tmp/cciwcx5G.s 			page 9


 457              		.loc 1 165 3 is_stmt 1 view .LVU97
 458              		.loc 1 166 3 view .LVU98
 459              		.loc 1 167 1 is_stmt 0 view .LVU99
 460 0020 1EFF2FE1 		bx	lr
 461              	.L50:
 462              		.align	2
 463              	.L49:
 464 0024 00000000 		.word	.LANCHOR4
 465 0028 00000000 		.word	.LANCHOR2
 466 002c 00000000 		.word	.LANCHOR3
 467              		.cfi_endproc
 468              	.LFE13:
 469              		.size	_test_fail, .-_test_fail
 470              		.section	.text._test_assert,"ax",%progbits
 471              		.align	2
 472              		.global	_test_assert
 473              		.syntax unified
 474              		.arm
 475              		.fpu softvfp
 476              		.type	_test_assert, %function
 477              	_test_assert:
 478              	.LVL34:
 479              	.LFB14:
 480              		.loc 1 169 55 is_stmt 1 view -0
 481              		.cfi_startproc
 482              		@ args = 0, pretend = 0, frame = 0
 483              		@ frame_needed = 0, uses_anonymous_args = 0
 484              		@ link register save eliminated.
 485              		.loc 1 171 3 view .LVU101
 486              		.loc 1 171 6 is_stmt 0 view .LVU102
 487 0000 000051E3 		cmp	r1, #0
 488              		.loc 1 169 55 view .LVU103
 489 0004 0030A0E1 		mov	r3, r0
 490              		.loc 1 172 5 is_stmt 1 view .LVU104
 491              	.LVL35:
 492              	.LBB56:
 493              	.LBI56:
 494              		.loc 1 161 8 view .LVU105
 495              	.LBB57:
 496              		.loc 1 163 3 view .LVU106
 497              		.loc 1 163 14 is_stmt 0 view .LVU107
 498 0008 0100A003 		moveq	r0, #1
 499              	.LVL36:
 500              		.loc 1 163 14 view .LVU108
 501 000c 18C09F05 		ldreq	ip, .L54
 502              		.loc 1 164 15 view .LVU109
 503 0010 18109F05 		ldreq	r1, .L54+4
 504              	.LVL37:
 505              		.loc 1 165 13 view .LVU110
 506 0014 18209F05 		ldreq	r2, .L54+8
 507              	.LBE57:
 508              	.LBE56:
 509              		.loc 1 173 10 view .LVU111
 510 0018 0000A013 		movne	r0, #0
 511              	.LBB59:
 512              	.LBB58:
 513              		.loc 1 163 14 view .LVU112
ARM GAS  /tmp/cciwcx5G.s 			page 10


 514 001c 00008C05 		streq	r0, [ip]
 515              		.loc 1 164 3 is_stmt 1 view .LVU113
 516              		.loc 1 164 15 is_stmt 0 view .LVU114
 517 0020 00008105 		streq	r0, [r1]
 518              		.loc 1 165 3 is_stmt 1 view .LVU115
 519              		.loc 1 165 13 is_stmt 0 view .LVU116
 520 0024 00308205 		streq	r3, [r2]
 521              		.loc 1 166 3 is_stmt 1 view .LVU117
 522              	.LVL38:
 523              		.loc 1 166 3 is_stmt 0 view .LVU118
 524              	.LBE58:
 525              	.LBE59:
 526              		.loc 1 174 1 view .LVU119
 527 0028 1EFF2FE1 		bx	lr
 528              	.L55:
 529              		.align	2
 530              	.L54:
 531 002c 00000000 		.word	.LANCHOR2
 532 0030 00000000 		.word	.LANCHOR3
 533 0034 00000000 		.word	.LANCHOR4
 534              		.cfi_endproc
 535              	.LFE14:
 536              		.size	_test_assert, .-_test_assert
 537              		.section	.text._test_assert_sequence,"ax",%progbits
 538              		.align	2
 539              		.global	_test_assert_sequence
 540              		.syntax unified
 541              		.arm
 542              		.fpu softvfp
 543              		.type	_test_assert_sequence, %function
 544              	_test_assert_sequence:
 545              	.LVL39:
 546              	.LFB15:
 547              		.loc 1 176 62 is_stmt 1 view -0
 548              		.cfi_startproc
 549              		@ args = 0, pretend = 0, frame = 0
 550              		@ frame_needed = 0, uses_anonymous_args = 0
 551              		.loc 1 177 3 view .LVU121
 552              		.loc 1 178 3 view .LVU122
 553              		.loc 1 176 62 is_stmt 0 view .LVU123
 554 0000 70402DE9 		push	{r4, r5, r6, lr}
 555              		.cfi_def_cfa_offset 16
 556              		.cfi_offset 4, -16
 557              		.cfi_offset 5, -12
 558              		.cfi_offset 6, -8
 559              		.cfi_offset 14, -4
 560              		.loc 1 178 13 view .LVU124
 561 0004 5C409FE5 		ldr	r4, .L63
 562              		.loc 1 177 9 view .LVU125
 563 0008 5C509FE5 		ldr	r5, .L63+4
 564              		.loc 1 176 62 view .LVU126
 565 000c 0060A0E1 		mov	r6, r0
 566              		.loc 1 177 9 view .LVU127
 567 0010 0530A0E1 		mov	r3, r5
 568              		.loc 1 178 13 view .LVU128
 569 0014 00E094E5 		ldr	lr, [r4]
 570              		.loc 1 178 9 view .LVU129
ARM GAS  /tmp/cciwcx5G.s 			page 11


 571 0018 030000EA 		b	.L57
 572              	.LVL40:
 573              	.L59:
 574              		.loc 1 179 8 view .LVU130
 575 001c 01C0D3E4 		ldrb	ip, [r3], #1	@ zero_extendqisi2
 576              	.LVL41:
 577              		.loc 1 179 8 view .LVU131
 578 0020 0120D1E4 		ldrb	r2, [r1], #1	@ zero_extendqisi2
 579              	.LVL42:
 580              		.loc 1 179 8 view .LVU132
 581 0024 02005CE1 		cmp	ip, r2
 582 0028 0600001A 		bne	.L60
 583              	.LVL43:
 584              	.L57:
 585              		.loc 1 179 5 is_stmt 1 view .LVU133
 586              		.loc 1 178 9 view .LVU134
 587 002c 03005EE1 		cmp	lr, r3
 588 0030 F9FFFF8A 		bhi	.L59
 589              		.loc 1 182 3 view .LVU135
 590              		.loc 1 182 6 is_stmt 0 view .LVU136
 591 0034 0000D1E5 		ldrb	r0, [r1]	@ zero_extendqisi2
 592              	.LVL44:
 593              		.loc 1 182 6 view .LVU137
 594 0038 000050E3 		cmp	r0, #0
 595 003c 0100001A 		bne	.L60
 596              		.loc 1 184 3 is_stmt 1 view .LVU138
 597              	.LBB60:
 598              	.LBI60:
 599              		.loc 1 134 13 view .LVU139
 600              	.LBB61:
 601              		.loc 1 136 3 view .LVU140
 602              		.loc 1 136 8 is_stmt 0 view .LVU141
 603 0040 005084E5 		str	r5, [r4]
 604              	.LBE61:
 605              	.LBE60:
 606              		.loc 1 185 3 is_stmt 1 view .LVU142
 607              		.loc 1 186 1 is_stmt 0 view .LVU143
 608 0044 7080BDE8 		pop	{r4, r5, r6, pc}
 609              	.LVL45:
 610              	.L60:
 611              		.loc 1 180 6 is_stmt 1 view .LVU144
 612              	.LBB62:
 613              	.LBI62:
 614              		.loc 1 161 8 view .LVU145
 615              	.LBB63:
 616              		.loc 1 163 3 view .LVU146
 617              		.loc 1 163 14 is_stmt 0 view .LVU147
 618 0048 0100A0E3 		mov	r0, #1
 619 004c 1C109FE5 		ldr	r1, .L63+8
 620              		.loc 1 164 15 view .LVU148
 621 0050 1C209FE5 		ldr	r2, .L63+12
 622              		.loc 1 165 13 view .LVU149
 623 0054 1C309FE5 		ldr	r3, .L63+16
 624              		.loc 1 163 14 view .LVU150
 625 0058 000081E5 		str	r0, [r1]
 626              		.loc 1 164 3 is_stmt 1 view .LVU151
 627              		.loc 1 164 15 is_stmt 0 view .LVU152
ARM GAS  /tmp/cciwcx5G.s 			page 12


 628 005c 000082E5 		str	r0, [r2]
 629              		.loc 1 165 3 is_stmt 1 view .LVU153
 630              		.loc 1 165 13 is_stmt 0 view .LVU154
 631 0060 006083E5 		str	r6, [r3]
 632              		.loc 1 166 3 is_stmt 1 view .LVU155
 633              	.LVL46:
 634              		.loc 1 166 3 is_stmt 0 view .LVU156
 635              	.LBE63:
 636              	.LBE62:
 637              		.loc 1 180 13 view .LVU157
 638 0064 7080BDE8 		pop	{r4, r5, r6, pc}
 639              	.L64:
 640              		.align	2
 641              	.L63:
 642 0068 00000000 		.word	.LANCHOR1
 643 006c 00000000 		.word	.LANCHOR5
 644 0070 00000000 		.word	.LANCHOR2
 645 0074 00000000 		.word	.LANCHOR3
 646 0078 00000000 		.word	.LANCHOR4
 647              		.cfi_endproc
 648              	.LFE15:
 649              		.size	_test_assert_sequence, .-_test_assert_sequence
 650              		.section	.text._test_assert_time_window,"ax",%progbits
 651              		.align	2
 652              		.global	_test_assert_time_window
 653              		.syntax unified
 654              		.arm
 655              		.fpu softvfp
 656              		.type	_test_assert_time_window, %function
 657              	_test_assert_time_window:
 658              	.LVL47:
 659              	.LFB16:
 660              		.loc 1 188 81 is_stmt 1 view -0
 661              		.cfi_startproc
 662              		@ args = 0, pretend = 0, frame = 0
 663              		@ frame_needed = 0, uses_anonymous_args = 0
 664              		.loc 1 190 3 view .LVU159
 665              		.loc 1 188 81 is_stmt 0 view .LVU160
 666 0000 01C0A0E1 		mov	ip, r1
 667 0004 10402DE9 		push	{r4, lr}
 668              		.cfi_def_cfa_offset 8
 669              		.cfi_offset 4, -8
 670              		.cfi_offset 14, -4
 671              		.loc 1 190 10 view .LVU161
 672 0008 0210A0E1 		mov	r1, r2
 673              	.LVL48:
 674              		.loc 1 188 81 view .LVU162
 675 000c 0040A0E1 		mov	r4, r0
 676              		.loc 1 190 10 view .LVU163
 677 0010 0C00A0E1 		mov	r0, ip
 678              	.LVL49:
 679              		.loc 1 190 10 view .LVU164
 680 0014 FEFFFFEB 		bl	chTimeIsWithin
 681              	.LVL50:
 682              	.LBB64:
 683              	.LBI64:
 684              		.loc 1 169 8 is_stmt 1 view .LVU165
ARM GAS  /tmp/cciwcx5G.s 			page 13


 685              	.LBB65:
 686              		.loc 1 171 3 view .LVU166
 687              		.loc 1 171 6 is_stmt 0 view .LVU167
 688 0018 000050E3 		cmp	r0, #0
 689              		.loc 1 172 5 is_stmt 1 view .LVU168
 690              	.LVL51:
 691              	.LBB66:
 692              	.LBI66:
 693              		.loc 1 161 8 view .LVU169
 694              	.LBB67:
 695              		.loc 1 163 3 view .LVU170
 696              		.loc 1 163 14 is_stmt 0 view .LVU171
 697 001c 0100A003 		moveq	r0, #1
 698              	.LVL52:
 699              		.loc 1 163 14 view .LVU172
 700 0020 18109F05 		ldreq	r1, .L69
 701              		.loc 1 164 15 view .LVU173
 702 0024 18209F05 		ldreq	r2, .L69+4
 703              		.loc 1 165 13 view .LVU174
 704 0028 18309F05 		ldreq	r3, .L69+8
 705              	.LBE67:
 706              	.LBE66:
 707              		.loc 1 173 10 view .LVU175
 708 002c 0000A013 		movne	r0, #0
 709              	.LBB69:
 710              	.LBB68:
 711              		.loc 1 163 14 view .LVU176
 712 0030 00008105 		streq	r0, [r1]
 713              		.loc 1 164 3 is_stmt 1 view .LVU177
 714              		.loc 1 164 15 is_stmt 0 view .LVU178
 715 0034 00008205 		streq	r0, [r2]
 716              		.loc 1 165 3 is_stmt 1 view .LVU179
 717              		.loc 1 165 13 is_stmt 0 view .LVU180
 718 0038 00408305 		streq	r4, [r3]
 719              		.loc 1 166 3 is_stmt 1 view .LVU181
 720              	.LVL53:
 721              		.loc 1 166 3 is_stmt 0 view .LVU182
 722              	.LBE68:
 723              	.LBE69:
 724              	.LBE65:
 725              	.LBE64:
 726              		.loc 1 191 1 view .LVU183
 727 003c 1080BDE8 		pop	{r4, pc}
 728              	.L70:
 729              		.align	2
 730              	.L69:
 731 0040 00000000 		.word	.LANCHOR2
 732 0044 00000000 		.word	.LANCHOR3
 733 0048 00000000 		.word	.LANCHOR4
 734              		.cfi_endproc
 735              	.LFE16:
 736              		.size	_test_assert_time_window, .-_test_assert_time_window
 737              		.section	.text.test_terminate_threads,"ax",%progbits
 738              		.align	2
 739              		.global	test_terminate_threads
 740              		.syntax unified
 741              		.arm
ARM GAS  /tmp/cciwcx5G.s 			page 14


 742              		.fpu softvfp
 743              		.type	test_terminate_threads, %function
 744              	test_terminate_threads:
 745              	.LFB17:
 746              		.loc 1 200 35 is_stmt 1 view -0
 747              		.cfi_startproc
 748              		@ args = 0, pretend = 0, frame = 0
 749              		@ frame_needed = 0, uses_anonymous_args = 0
 750              		.loc 1 201 3 view .LVU185
 751              		.loc 1 203 3 view .LVU186
 752              	.LVL54:
 753              		.loc 1 203 15 view .LVU187
 754              		.loc 1 200 35 is_stmt 0 view .LVU188
 755 0000 70402DE9 		push	{r4, r5, r6, lr}
 756              		.cfi_def_cfa_offset 16
 757              		.cfi_offset 4, -16
 758              		.cfi_offset 5, -12
 759              		.cfi_offset 6, -8
 760              		.cfi_offset 14, -4
 761 0004 1C409FE5 		ldr	r4, .L80
 762 0008 145084E2 		add	r5, r4, #20
 763              	.LVL55:
 764              	.L73:
 765              		.loc 1 204 5 is_stmt 1 view .LVU189
 766              		.loc 1 205 7 view .LVU190
 767              		.loc 1 204 16 is_stmt 0 view .LVU191
 768 000c 040094E4 		ldr	r0, [r4], #4
 769              		.loc 1 204 8 view .LVU192
 770 0010 000050E3 		cmp	r0, #0
 771 0014 0000000A 		beq	.L72
 772              		.loc 1 205 7 view .LVU193
 773 0018 FEFFFFEB 		bl	chThdTerminate
 774              	.LVL56:
 775              	.L72:
 776              		.loc 1 203 32 is_stmt 1 discriminator 2 view .LVU194
 777              		.loc 1 203 15 discriminator 2 view .LVU195
 778              		.loc 1 203 3 is_stmt 0 discriminator 2 view .LVU196
 779 001c 050054E1 		cmp	r4, r5
 780 0020 F9FFFF1A 		bne	.L73
 781 0024 7080BDE8 		pop	{r4, r5, r6, pc}
 782              	.L81:
 783              		.align	2
 784              	.L80:
 785 0028 00000000 		.word	threads
 786              		.cfi_endproc
 787              	.LFE17:
 788              		.size	test_terminate_threads, .-test_terminate_threads
 789              		.section	.text.test_wait_threads,"ax",%progbits
 790              		.align	2
 791              		.global	test_wait_threads
 792              		.syntax unified
 793              		.arm
 794              		.fpu softvfp
 795              		.type	test_wait_threads, %function
 796              	test_wait_threads:
 797              	.LFB18:
 798              		.loc 1 211 30 is_stmt 1 view -0
ARM GAS  /tmp/cciwcx5G.s 			page 15


 799              		.cfi_startproc
 800              		@ args = 0, pretend = 0, frame = 0
 801              		@ frame_needed = 0, uses_anonymous_args = 0
 802              		.loc 1 212 3 view .LVU198
 803              		.loc 1 214 3 view .LVU199
 804              	.LVL57:
 805              		.loc 1 214 15 view .LVU200
 806              		.loc 1 211 30 is_stmt 0 view .LVU201
 807 0000 70402DE9 		push	{r4, r5, r6, lr}
 808              		.cfi_def_cfa_offset 16
 809              		.cfi_offset 4, -16
 810              		.cfi_offset 5, -12
 811              		.cfi_offset 6, -8
 812              		.cfi_offset 14, -4
 813              		.loc 1 217 18 view .LVU202
 814 0004 0060A0E3 		mov	r6, #0
 815 0008 20409FE5 		ldr	r4, .L91
 816 000c 145084E2 		add	r5, r4, #20
 817              	.LVL58:
 818              	.L84:
 819              		.loc 1 215 5 is_stmt 1 view .LVU203
 820              		.loc 1 216 7 view .LVU204
 821              		.loc 1 215 16 is_stmt 0 view .LVU205
 822 0010 040094E4 		ldr	r0, [r4], #4
 823              		.loc 1 215 8 view .LVU206
 824 0014 000050E3 		cmp	r0, #0
 825 0018 0100000A 		beq	.L83
 826              		.loc 1 216 7 view .LVU207
 827 001c FEFFFFEB 		bl	chThdWait
 828              	.LVL59:
 829              		.loc 1 217 7 is_stmt 1 view .LVU208
 830              		.loc 1 217 18 is_stmt 0 view .LVU209
 831 0020 046004E5 		str	r6, [r4, #-4]
 832              	.L83:
 833              		.loc 1 214 32 is_stmt 1 discriminator 2 view .LVU210
 834              		.loc 1 214 15 discriminator 2 view .LVU211
 835              		.loc 1 214 3 is_stmt 0 discriminator 2 view .LVU212
 836 0024 050054E1 		cmp	r4, r5
 837 0028 F8FFFF1A 		bne	.L84
 838 002c 7080BDE8 		pop	{r4, r5, r6, pc}
 839              	.L92:
 840              		.align	2
 841              	.L91:
 842 0030 00000000 		.word	threads
 843              		.cfi_endproc
 844              	.LFE18:
 845              		.size	test_wait_threads, .-test_wait_threads
 846              		.section	.text.test_cpu_pulse,"ax",%progbits
 847              		.align	2
 848              		.global	test_cpu_pulse
 849              		.syntax unified
 850              		.arm
 851              		.fpu softvfp
 852              		.type	test_cpu_pulse, %function
 853              	test_cpu_pulse:
 854              	.LVL60:
 855              	.LFB19:
ARM GAS  /tmp/cciwcx5G.s 			page 16


 856              		.loc 1 228 40 is_stmt 1 view -0
 857              		.cfi_startproc
 858              		@ args = 0, pretend = 0, frame = 0
 859              		@ frame_needed = 0, uses_anonymous_args = 0
 860              		@ link register save eliminated.
 861              		.loc 1 229 3 view .LVU214
 862              		.loc 1 231 3 view .LVU215
 863              		.loc 1 232 17 is_stmt 0 view .LVU216
 864 0000 801260E0 		rsb	r1, r0, r0, lsl #5
 865              		.loc 1 231 11 view .LVU217
 866 0004 6C209FE5 		ldr	r2, .L100
 867              		.loc 1 232 17 view .LVU218
 868 0008 011180E0 		add	r1, r0, r1, lsl #2
 869 000c 68309FE5 		ldr	r3, .L100+4
 870 0010 8111A0E1 		lsl	r1, r1, #3
 871              		.loc 1 231 11 view .LVU219
 872 0014 18C092E5 		ldr	ip, [r2, #24]
 873              		.loc 1 232 17 view .LVU220
 874 0018 FA1F41E2 		sub	r1, r1, #1000
 875 001c 932183E0 		umull	r2, r3, r3, r1
 876              		.loc 1 231 9 view .LVU221
 877 0020 20009CE5 		ldr	r0, [ip, #32]
 878              	.LVL61:
 879              		.loc 1 232 3 is_stmt 1 view .LVU222
 880              		.loc 1 232 7 is_stmt 0 view .LVU223
 881 0024 011080E2 		add	r1, r0, #1
 882 0028 231381E0 		add	r1, r1, r3, lsr #6
 883              	.LVL62:
 884              		.loc 1 232 7 view .LVU224
 885 002c 060000EA 		b	.L96
 886              	.LVL63:
 887              	.L99:
 888              		.loc 1 239 39 discriminator 1 view .LVU225
 889 0030 020050E1 		cmp	r0, r2
 890 0034 0130A093 		movls	r3, #1
 891 0038 0030A083 		movhi	r3, #0
 892 003c 020051E1 		cmp	r1, r2
 893 0040 0030A093 		movls	r3, #0
 894              		.loc 1 240 24 discriminator 1 view .LVU226
 895 0044 000053E3 		cmp	r3, #0
 896 0048 1EFF2F01 		bxeq	lr
 897              	.LVL64:
 898              	.L96:
 899              		.loc 1 233 3 is_stmt 1 view .LVU227
 900              		.loc 1 234 5 view .LVU228
 901              		.loc 1 239 10 is_stmt 0 view .LVU229
 902 004c 010050E1 		cmp	r0, r1
 903              		.loc 1 234 9 view .LVU230
 904 0050 20209CE5 		ldr	r2, [ip, #32]
 905              	.LVL65:
 906              		.loc 1 239 9 is_stmt 1 view .LVU231
 907              		.loc 1 239 10 is_stmt 0 view .LVU232
 908 0054 F5FFFF3A 		bcc	.L99
 909              		.loc 1 240 47 discriminator 2 view .LVU233
 910 0058 020051E1 		cmp	r1, r2
 911 005c 0030A093 		movls	r3, #0
 912 0060 0130A083 		movhi	r3, #1
ARM GAS  /tmp/cciwcx5G.s 			page 17


 913              		.loc 1 240 39 discriminator 2 view .LVU234
 914 0064 020050E1 		cmp	r0, r2
 915 0068 01308393 		orrls	r3, r3, #1
 916              		.loc 1 240 24 discriminator 2 view .LVU235
 917 006c 000053E3 		cmp	r3, #0
 918 0070 F5FFFF1A 		bne	.L96
 919 0074 1EFF2FE1 		bx	lr
 920              	.L101:
 921              		.align	2
 922              	.L100:
 923 0078 00000000 		.word	rlist
 924 007c D34D6210 		.word	274877907
 925              		.cfi_endproc
 926              	.LFE19:
 927              		.size	test_cpu_pulse, .-test_cpu_pulse
 928              		.section	.text.test_wait_tick,"ax",%progbits
 929              		.align	2
 930              		.global	test_wait_tick
 931              		.syntax unified
 932              		.arm
 933              		.fpu softvfp
 934              		.type	test_wait_tick, %function
 935              	test_wait_tick:
 936              	.LFB20:
 937              		.loc 1 249 32 is_stmt 1 view -0
 938              		.cfi_startproc
 939              		@ args = 0, pretend = 0, frame = 0
 940              		@ frame_needed = 0, uses_anonymous_args = 0
 941              		.loc 1 251 3 view .LVU237
 942 0000 0100A0E3 		mov	r0, #1
 943              		.loc 1 249 32 is_stmt 0 view .LVU238
 944 0004 10402DE9 		push	{r4, lr}
 945              		.cfi_def_cfa_offset 8
 946              		.cfi_offset 4, -8
 947              		.cfi_offset 14, -4
 948              		.loc 1 251 3 view .LVU239
 949 0008 FEFFFFEB 		bl	chThdSleep
 950              	.LVL66:
 951              		.loc 1 252 3 is_stmt 1 view .LVU240
 952              		.loc 1 252 10 is_stmt 0 view .LVU241
 953 000c 04309FE5 		ldr	r3, .L104
 954 0010 0C0093E5 		ldr	r0, [r3, #12]
 955              		.loc 1 253 1 view .LVU242
 956 0014 1080BDE8 		pop	{r4, pc}
 957              	.L105:
 958              		.align	2
 959              	.L104:
 960 0018 00000000 		.word	vtlist
 961              		.cfi_endproc
 962              	.LFE20:
 963              		.size	test_wait_tick, .-test_wait_tick
 964              		.section	.text.test_start_timer,"ax",%progbits
 965              		.align	2
 966              		.global	test_start_timer
 967              		.syntax unified
 968              		.arm
 969              		.fpu softvfp
ARM GAS  /tmp/cciwcx5G.s 			page 18


 970              		.type	test_start_timer, %function
 971              	test_start_timer:
 972              	.LVL67:
 973              	.LFB22:
 974              		.loc 1 276 36 is_stmt 1 view -0
 975              		.cfi_startproc
 976              		@ args = 0, pretend = 0, frame = 0
 977              		@ frame_needed = 0, uses_anonymous_args = 0
 978              		.loc 1 278 3 view .LVU244
 979              		.loc 1 279 19 is_stmt 0 view .LVU245
 980 0000 0030A0E3 		mov	r3, #0
 981 0004 3C209FE5 		ldr	r2, .L108
 982              	.LVL68:
 983              		.loc 1 279 3 is_stmt 1 view .LVU246
 984              		.loc 1 276 36 is_stmt 0 view .LVU247
 985 0008 10402DE9 		push	{r4, lr}
 986              		.cfi_def_cfa_offset 8
 987              		.cfi_offset 4, -8
 988              		.cfi_offset 14, -4
 989              		.loc 1 279 19 view .LVU248
 990 000c 003082E5 		str	r3, [r2]
 991              		.loc 1 280 3 is_stmt 1 view .LVU249
 992              		.syntax divided
 993              	@ 280 "../test/test.c" 1
 994 0010 9FF021E3 		msr     CPSR_c, #0x9F
 995              	@ 0 "" 2
 996              		.loc 1 280 3 view .LVU250
 997              		.loc 1 280 3 view .LVU251
 998              		.loc 1 280 3 view .LVU252
 999              		.loc 1 278 24 is_stmt 0 view .LVU253
 1000              		.arm
 1001              		.syntax unified
 1002 0014 801260E0 		rsb	r1, r0, r0, lsl #5
 1003 0018 011180E0 		add	r1, r0, r1, lsl #2
 1004 001c 8111A0E1 		lsl	r1, r1, #3
 1005 0020 24009FE5 		ldr	r0, .L108+4
 1006              	.LVL69:
 1007              		.loc 1 278 24 view .LVU254
 1008 0024 FA1F41E2 		sub	r1, r1, #1000
 1009 0028 902181E0 		umull	r2, r1, r0, r1
 1010 002c 2113A0E1 		lsr	r1, r1, #6
 1011              		.loc 1 280 3 view .LVU255
 1012 0030 18209FE5 		ldr	r2, .L108+8
 1013 0034 18009FE5 		ldr	r0, .L108+12
 1014 0038 011081E2 		add	r1, r1, #1
 1015 003c FEFFFFEB 		bl	chVTSetI
 1016              	.LVL70:
 1017              		.loc 1 280 3 is_stmt 1 view .LVU256
 1018              		.loc 1 280 3 view .LVU257
 1019              		.syntax divided
 1020              	@ 280 "../test/test.c" 1
 1021 0040 1FF021E3 		msr     CPSR_c, #0x1F
 1022              	@ 0 "" 2
 1023              		.loc 1 280 3 view .LVU258
 1024              		.loc 1 280 36 view .LVU259
 1025              		.loc 1 281 1 is_stmt 0 view .LVU260
 1026              		.arm
ARM GAS  /tmp/cciwcx5G.s 			page 19


 1027              		.syntax unified
 1028 0044 1080BDE8 		pop	{r4, pc}
 1029              	.L109:
 1030              		.align	2
 1031              	.L108:
 1032 0048 00000000 		.word	test_timer_done
 1033 004c D34D6210 		.word	274877907
 1034 0050 00000000 		.word	tmr
 1035 0054 00000000 		.word	.LANCHOR6
 1036              		.cfi_endproc
 1037              	.LFE22:
 1038              		.size	test_start_timer, .-test_start_timer
 1039              		.section	.rodata.TestThread.str1.4,"aMS",%progbits,1
 1040              		.align	2
 1041              	.LC1:
 1042 0000 2A2A2A20 		.ascii	"*** Kernel:       \000"
 1042      4B65726E 
 1042      656C3A20 
 1042      20202020 
 1042      202000
 1043 0013 00       		.align	2
 1044              	.LC2:
 1045 0014 2A2A2A20 		.ascii	"*** Compiled:     \000"
 1045      436F6D70 
 1045      696C6564 
 1045      3A202020 
 1045      202000
 1046 0027 00       		.align	2
 1047              	.LC3:
 1048 0028 2A2A2A20 		.ascii	"*** Compiler:     \000"
 1048      436F6D70 
 1048      696C6572 
 1048      3A202020 
 1048      202000
 1049 003b 00       		.align	2
 1050              	.LC4:
 1051 003c 2A2A2A20 		.ascii	"*** Architecture: \000"
 1051      41726368 
 1051      69746563 
 1051      74757265 
 1051      3A2000
 1052 004f 00       		.align	2
 1053              	.LC5:
 1054 0050 2A2A2A20 		.ascii	"*** Core Variant: \000"
 1054      436F7265 
 1054      20566172 
 1054      69616E74 
 1054      3A2000
 1055 0063 00       		.align	2
 1056              	.LC6:
 1057 0064 2A2A2A20 		.ascii	"*** Port Info:    \000"
 1057      506F7274 
 1057      20496E66 
 1057      6F3A2020 
 1057      202000
 1058 0077 00       		.align	2
 1059              	.LC7:
ARM GAS  /tmp/cciwcx5G.s 			page 20


 1060 0078 2A2A2A20 		.ascii	"*** Platform:     \000"
 1060      506C6174 
 1060      666F726D 
 1060      3A202020 
 1060      202000
 1061 008b 00       		.align	2
 1062              	.LC8:
 1063 008c 2D2D2D20 		.ascii	"--- Test Case \000"
 1063      54657374 
 1063      20436173 
 1063      652000
 1064 009b 00       		.align	2
 1065              	.LC9:
 1066 009c 202800   		.ascii	" (\000"
 1067 009f 00       		.align	2
 1068              	.LC10:
 1069 00a0 2D2D2D20 		.ascii	"--- Result: FAILURE (#\000"
 1069      52657375 
 1069      6C743A20 
 1069      4641494C 
 1069      55524520 
 1070 00b7 00       		.align	2
 1071              	.LC11:
 1072 00b8 205B00   		.ascii	" [\000"
 1073 00bb 00       		.align	2
 1074              	.LC12:
 1075 00bc 46696E61 		.ascii	"Final result: \000"
 1075      6C207265 
 1075      73756C74 
 1075      3A2000
 1076 00cb 00       		.align	2
 1077              	.LC13:
 1078 00cc 00       		.ascii	"\000"
 1079 00cd 000000   		.align	2
 1080              	.LC14:
 1081 00d0 2A2A2A20 		.ascii	"*** ChibiOS/RT test suite\000"
 1081      43686962 
 1081      694F532F 
 1081      52542074 
 1081      65737420 
 1082 00ea 0000     		.align	2
 1083              	.LC15:
 1084 00ec 2A2A2A00 		.ascii	"***\000"
 1085              		.align	2
 1086              	.LC16:
 1087 00f0 322E352E 		.ascii	"2.5.1unstable\000"
 1087      31756E73 
 1087      7461626C 
 1087      6500
 1088 00fe 0000     		.align	2
 1089              	.LC17:
 1090 0100 44656320 		.ascii	"Dec  6 2021 - 01:25:07\000"
 1090      20362032 
 1090      30323120 
 1090      2D203031 
 1090      3A32353A 
 1091 0117 00       		.align	2
ARM GAS  /tmp/cciwcx5G.s 			page 21


 1092              	.LC18:
 1093 0118 47434320 		.ascii	"GCC 9.2.1 20191025 (release) [ARM/arm-9-branch revi"
 1093      392E322E 
 1093      31203230 
 1093      31393130 
 1093      32352028 
 1094 014b 73696F6E 		.ascii	"sion 277599]\000"
 1094      20323737 
 1094      3539395D 
 1094      00
 1095              		.align	2
 1096              	.LC19:
 1097 0158 41524D31 		.ascii	"ARM11\000"
 1097      3100
 1098 015e 0000     		.align	2
 1099              	.LC20:
 1100 0160 41524D31 		.ascii	"ARM1176JZF-S\000"
 1100      3137364A 
 1100      5A462D53 
 1100      00
 1101 016d 000000   		.align	2
 1102              	.LC21:
 1103 0170 50757265 		.ascii	"Pure ARM mode\000"
 1103      2041524D 
 1103      206D6F64 
 1103      6500
 1104 017e 0000     		.align	2
 1105              	.LC22:
 1106 0180 42434D32 		.ascii	"BCM2835\000"
 1106      38333500 
 1107              		.align	2
 1108              	.LC23:
 1109 0188 2900     		.ascii	")\000"
 1110 018a 0000     		.align	2
 1111              	.LC24:
 1112 018c 5D2900   		.ascii	"])\000"
 1113 018f 00       		.align	2
 1114              	.LC25:
 1115 0190 2D2D2D20 		.ascii	"--- Result: SUCCESS\000"
 1115      52657375 
 1115      6C743A20 
 1115      53554343 
 1115      45535300 
 1116              		.align	2
 1117              	.LC26:
 1118 01a4 4641494C 		.ascii	"FAILURE\000"
 1118      55524500 
 1119              		.align	2
 1120              	.LC27:
 1121 01ac 53554343 		.ascii	"SUCCESS\000"
 1121      45535300 
 1122              		.section	.text.TestThread,"ax",%progbits
 1123              		.align	2
 1124              		.global	TestThread
 1125              		.syntax unified
 1126              		.arm
 1127              		.fpu softvfp
ARM GAS  /tmp/cciwcx5G.s 			page 22


 1128              		.type	TestThread, %function
 1129              	TestThread:
 1130              	.LVL71:
 1131              	.LFB25:
 1132              		.loc 1 318 27 is_stmt 1 view -0
 1133              		.cfi_startproc
 1134              		@ args = 0, pretend = 0, frame = 8
 1135              		@ frame_needed = 0, uses_anonymous_args = 0
 1136              		.loc 1 319 3 view .LVU262
 1137              		.loc 1 321 3 view .LVU263
 1138              		.loc 1 318 27 is_stmt 0 view .LVU264
 1139 0000 0030A0E1 		mov	r3, r0
 1140 0004 F04F2DE9 		push	{r4, r5, r6, r7, r8, r9, r10, fp, lr}
 1141              		.cfi_def_cfa_offset 36
 1142              		.cfi_offset 4, -36
 1143              		.cfi_offset 5, -32
 1144              		.cfi_offset 6, -28
 1145              		.cfi_offset 7, -24
 1146              		.cfi_offset 8, -20
 1147              		.cfi_offset 9, -16
 1148              		.cfi_offset 10, -12
 1149              		.cfi_offset 11, -8
 1150              		.cfi_offset 14, -4
 1151              		.loc 1 321 7 view .LVU265
 1152 0008 D0439FE5 		ldr	r4, .L162
 1153              		.loc 1 318 27 view .LVU266
 1154 000c 0CD04DE2 		sub	sp, sp, #12
 1155              		.cfi_def_cfa_offset 48
 1156              		.loc 1 322 3 view .LVU267
 1157 0010 CC039FE5 		ldr	r0, .L162+4
 1158              	.LVL72:
 1159              		.loc 1 321 7 view .LVU268
 1160 0014 003084E5 		str	r3, [r4]
 1161              		.loc 1 322 3 is_stmt 1 view .LVU269
 1162 0018 FEFFFFEB 		bl	test_println
 1163              	.LVL73:
 1164              		.loc 1 323 3 view .LVU270
 1165 001c C4039FE5 		ldr	r0, .L162+8
 1166 0020 FEFFFFEB 		bl	test_println
 1167              	.LVL74:
 1168              		.loc 1 324 3 view .LVU271
 1169 0024 C0039FE5 		ldr	r0, .L162+12
 1170 0028 FEFFFFEB 		bl	test_println
 1171              	.LVL75:
 1172              		.loc 1 325 3 view .LVU272
 1173              	.LBB104:
 1174              	.LBI104:
 1175              		.loc 1 114 6 view .LVU273
 1176              	.LBB105:
 1177              		.loc 1 116 3 view .LVU274
 1178              		.loc 1 116 9 view .LVU275
 1179              		.loc 1 116 10 is_stmt 0 view .LVU276
 1180 002c 2A10A0E3 		mov	r1, #42
 1181              	.LBE105:
 1182              	.LBE104:
 1183              		.loc 1 324 3 view .LVU277
 1184 0030 B8539FE5 		ldr	r5, .L162+16
ARM GAS  /tmp/cciwcx5G.s 			page 23


 1185              	.LVL76:
 1186              	.L111:
 1187              	.LBB107:
 1188              	.LBB106:
 1189              		.loc 1 117 5 is_stmt 1 view .LVU278
 1190 0034 000094E5 		ldr	r0, [r4]
 1191              	.LVL77:
 1192              		.loc 1 117 5 is_stmt 0 view .LVU279
 1193 0038 003090E5 		ldr	r3, [r0]
 1194 003c 083093E5 		ldr	r3, [r3, #8]
 1195 0040 33FF2FE1 		blx	r3
 1196              	.LVL78:
 1197              		.loc 1 116 9 is_stmt 1 view .LVU280
 1198              		.loc 1 116 10 is_stmt 0 view .LVU281
 1199 0044 0110F5E5 		ldrb	r1, [r5, #1]!	@ zero_extendqisi2
 1200              	.LVL79:
 1201              		.loc 1 116 9 view .LVU282
 1202 0048 000051E3 		cmp	r1, #0
 1203 004c F8FFFF1A 		bne	.L111
 1204              	.LVL80:
 1205              		.loc 1 116 9 view .LVU283
 1206              	.LBE106:
 1207              	.LBE107:
 1208              		.loc 1 326 3 is_stmt 1 view .LVU284
 1209 0050 9C039FE5 		ldr	r0, .L162+20
 1210 0054 FEFFFFEB 		bl	test_println
 1211              	.LVL81:
 1212              		.loc 1 327 3 view .LVU285
 1213              	.LBB108:
 1214              	.LBI108:
 1215              		.loc 1 114 6 view .LVU286
 1216              	.LBB109:
 1217              		.loc 1 116 9 view .LVU287
 1218              		.loc 1 116 10 is_stmt 0 view .LVU288
 1219 0058 2A10A0E3 		mov	r1, #42
 1220              	.LBE109:
 1221              	.LBE108:
 1222              		.loc 1 326 3 view .LVU289
 1223 005c 94539FE5 		ldr	r5, .L162+24
 1224              	.LVL82:
 1225              	.L112:
 1226              	.LBB111:
 1227              	.LBB110:
 1228              		.loc 1 117 5 is_stmt 1 view .LVU290
 1229 0060 000094E5 		ldr	r0, [r4]
 1230              	.LVL83:
 1231              		.loc 1 117 5 is_stmt 0 view .LVU291
 1232 0064 003090E5 		ldr	r3, [r0]
 1233 0068 083093E5 		ldr	r3, [r3, #8]
 1234 006c 33FF2FE1 		blx	r3
 1235              	.LVL84:
 1236              		.loc 1 116 9 is_stmt 1 view .LVU292
 1237              		.loc 1 116 10 is_stmt 0 view .LVU293
 1238 0070 0110F5E5 		ldrb	r1, [r5, #1]!	@ zero_extendqisi2
 1239              	.LVL85:
 1240              		.loc 1 116 9 view .LVU294
 1241 0074 000051E3 		cmp	r1, #0
ARM GAS  /tmp/cciwcx5G.s 			page 24


 1242 0078 F8FFFF1A 		bne	.L112
 1243              	.LVL86:
 1244              		.loc 1 116 9 view .LVU295
 1245              	.LBE110:
 1246              	.LBE111:
 1247              		.loc 1 328 3 is_stmt 1 view .LVU296
 1248 007c 78039FE5 		ldr	r0, .L162+28
 1249 0080 FEFFFFEB 		bl	test_println
 1250              	.LVL87:
 1251              		.loc 1 330 3 view .LVU297
 1252              	.LBB112:
 1253              	.LBI112:
 1254              		.loc 1 114 6 view .LVU298
 1255              	.LBB113:
 1256              		.loc 1 116 9 view .LVU299
 1257              		.loc 1 116 10 is_stmt 0 view .LVU300
 1258 0084 2A10A0E3 		mov	r1, #42
 1259              	.LBE113:
 1260              	.LBE112:
 1261              		.loc 1 328 3 view .LVU301
 1262 0088 70539FE5 		ldr	r5, .L162+32
 1263              	.LVL88:
 1264              	.L113:
 1265              	.LBB115:
 1266              	.LBB114:
 1267              		.loc 1 117 5 is_stmt 1 view .LVU302
 1268 008c 000094E5 		ldr	r0, [r4]
 1269              	.LVL89:
 1270              		.loc 1 117 5 is_stmt 0 view .LVU303
 1271 0090 003090E5 		ldr	r3, [r0]
 1272 0094 083093E5 		ldr	r3, [r3, #8]
 1273 0098 33FF2FE1 		blx	r3
 1274              	.LVL90:
 1275              		.loc 1 116 9 is_stmt 1 view .LVU304
 1276              		.loc 1 116 10 is_stmt 0 view .LVU305
 1277 009c 0110F5E5 		ldrb	r1, [r5, #1]!	@ zero_extendqisi2
 1278              	.LVL91:
 1279              		.loc 1 116 9 view .LVU306
 1280 00a0 000051E3 		cmp	r1, #0
 1281 00a4 F8FFFF1A 		bne	.L113
 1282              	.LVL92:
 1283              		.loc 1 116 9 view .LVU307
 1284              	.LBE114:
 1285              	.LBE115:
 1286              		.loc 1 331 3 is_stmt 1 view .LVU308
 1287 00a8 54039FE5 		ldr	r0, .L162+36
 1288 00ac FEFFFFEB 		bl	test_println
 1289              	.LVL93:
 1290              		.loc 1 333 3 view .LVU309
 1291              	.LBB116:
 1292              	.LBI116:
 1293              		.loc 1 114 6 view .LVU310
 1294              	.LBB117:
 1295              		.loc 1 116 9 view .LVU311
 1296              		.loc 1 116 10 is_stmt 0 view .LVU312
 1297 00b0 2A10A0E3 		mov	r1, #42
 1298              	.LBE117:
ARM GAS  /tmp/cciwcx5G.s 			page 25


 1299              	.LBE116:
 1300              		.loc 1 331 3 view .LVU313
 1301 00b4 4C539FE5 		ldr	r5, .L162+40
 1302              	.LVL94:
 1303              	.L114:
 1304              	.LBB119:
 1305              	.LBB118:
 1306              		.loc 1 117 5 is_stmt 1 view .LVU314
 1307 00b8 000094E5 		ldr	r0, [r4]
 1308              	.LVL95:
 1309              		.loc 1 117 5 is_stmt 0 view .LVU315
 1310 00bc 003090E5 		ldr	r3, [r0]
 1311 00c0 083093E5 		ldr	r3, [r3, #8]
 1312 00c4 33FF2FE1 		blx	r3
 1313              	.LVL96:
 1314              		.loc 1 116 9 is_stmt 1 view .LVU316
 1315              		.loc 1 116 10 is_stmt 0 view .LVU317
 1316 00c8 0110F5E5 		ldrb	r1, [r5, #1]!	@ zero_extendqisi2
 1317              	.LVL97:
 1318              		.loc 1 116 9 view .LVU318
 1319 00cc 000051E3 		cmp	r1, #0
 1320 00d0 F8FFFF1A 		bne	.L114
 1321              	.LVL98:
 1322              		.loc 1 116 9 view .LVU319
 1323              	.LBE118:
 1324              	.LBE119:
 1325              		.loc 1 334 3 is_stmt 1 view .LVU320
 1326 00d4 30039FE5 		ldr	r0, .L162+44
 1327 00d8 FEFFFFEB 		bl	test_println
 1328              	.LVL99:
 1329              		.loc 1 336 3 view .LVU321
 1330              	.LBB120:
 1331              	.LBI120:
 1332              		.loc 1 114 6 view .LVU322
 1333              	.LBB121:
 1334              		.loc 1 116 9 view .LVU323
 1335              		.loc 1 116 10 is_stmt 0 view .LVU324
 1336 00dc 2A10A0E3 		mov	r1, #42
 1337              	.LBE121:
 1338              	.LBE120:
 1339              		.loc 1 334 3 view .LVU325
 1340 00e0 28539FE5 		ldr	r5, .L162+48
 1341              	.LVL100:
 1342              	.L115:
 1343              	.LBB123:
 1344              	.LBB122:
 1345              		.loc 1 117 5 is_stmt 1 view .LVU326
 1346 00e4 000094E5 		ldr	r0, [r4]
 1347              	.LVL101:
 1348              		.loc 1 117 5 is_stmt 0 view .LVU327
 1349 00e8 003090E5 		ldr	r3, [r0]
 1350 00ec 083093E5 		ldr	r3, [r3, #8]
 1351 00f0 33FF2FE1 		blx	r3
 1352              	.LVL102:
 1353              		.loc 1 116 9 is_stmt 1 view .LVU328
 1354              		.loc 1 116 10 is_stmt 0 view .LVU329
 1355 00f4 0110F5E5 		ldrb	r1, [r5, #1]!	@ zero_extendqisi2
ARM GAS  /tmp/cciwcx5G.s 			page 26


 1356              	.LVL103:
 1357              		.loc 1 116 9 view .LVU330
 1358 00f8 000051E3 		cmp	r1, #0
 1359 00fc F8FFFF1A 		bne	.L115
 1360              	.LVL104:
 1361              		.loc 1 116 9 view .LVU331
 1362              	.LBE122:
 1363              	.LBE123:
 1364              		.loc 1 337 3 is_stmt 1 view .LVU332
 1365 0100 0C039FE5 		ldr	r0, .L162+52
 1366 0104 FEFFFFEB 		bl	test_println
 1367              	.LVL105:
 1368              		.loc 1 340 3 view .LVU333
 1369              	.LBB124:
 1370              	.LBI124:
 1371              		.loc 1 114 6 view .LVU334
 1372              	.LBB125:
 1373              		.loc 1 116 9 view .LVU335
 1374              		.loc 1 116 10 is_stmt 0 view .LVU336
 1375 0108 2A10A0E3 		mov	r1, #42
 1376              	.LBE125:
 1377              	.LBE124:
 1378              		.loc 1 337 3 view .LVU337
 1379 010c 04539FE5 		ldr	r5, .L162+56
 1380              	.LVL106:
 1381              	.L116:
 1382              	.LBB127:
 1383              	.LBB126:
 1384              		.loc 1 117 5 is_stmt 1 view .LVU338
 1385 0110 000094E5 		ldr	r0, [r4]
 1386              	.LVL107:
 1387              		.loc 1 117 5 is_stmt 0 view .LVU339
 1388 0114 003090E5 		ldr	r3, [r0]
 1389 0118 083093E5 		ldr	r3, [r3, #8]
 1390 011c 33FF2FE1 		blx	r3
 1391              	.LVL108:
 1392              		.loc 1 116 9 is_stmt 1 view .LVU340
 1393              		.loc 1 116 10 is_stmt 0 view .LVU341
 1394 0120 0110F5E5 		ldrb	r1, [r5, #1]!	@ zero_extendqisi2
 1395              	.LVL109:
 1396              		.loc 1 116 9 view .LVU342
 1397 0124 000051E3 		cmp	r1, #0
 1398 0128 F8FFFF1A 		bne	.L116
 1399              	.LVL110:
 1400              		.loc 1 116 9 view .LVU343
 1401              	.LBE126:
 1402              	.LBE127:
 1403              		.loc 1 341 3 is_stmt 1 view .LVU344
 1404 012c E8029FE5 		ldr	r0, .L162+60
 1405 0130 FEFFFFEB 		bl	test_println
 1406              	.LVL111:
 1407              		.loc 1 344 3 view .LVU345
 1408              	.LBB128:
 1409              	.LBI128:
 1410              		.loc 1 114 6 view .LVU346
 1411              	.LBB129:
 1412              		.loc 1 116 9 view .LVU347
ARM GAS  /tmp/cciwcx5G.s 			page 27


 1413              		.loc 1 116 10 is_stmt 0 view .LVU348
 1414 0134 2A10A0E3 		mov	r1, #42
 1415              	.LBE129:
 1416              	.LBE128:
 1417              		.loc 1 341 3 view .LVU349
 1418 0138 E0529FE5 		ldr	r5, .L162+64
 1419              	.LVL112:
 1420              	.L117:
 1421              	.LBB131:
 1422              	.LBB130:
 1423              		.loc 1 117 5 is_stmt 1 view .LVU350
 1424 013c 000094E5 		ldr	r0, [r4]
 1425              	.LVL113:
 1426              		.loc 1 117 5 is_stmt 0 view .LVU351
 1427 0140 003090E5 		ldr	r3, [r0]
 1428 0144 083093E5 		ldr	r3, [r3, #8]
 1429 0148 33FF2FE1 		blx	r3
 1430              	.LVL114:
 1431              		.loc 1 116 9 is_stmt 1 view .LVU352
 1432              		.loc 1 116 10 is_stmt 0 view .LVU353
 1433 014c 0110F5E5 		ldrb	r1, [r5, #1]!	@ zero_extendqisi2
 1434              	.LVL115:
 1435              		.loc 1 116 9 view .LVU354
 1436 0150 000051E3 		cmp	r1, #0
 1437 0154 F8FFFF1A 		bne	.L117
 1438              	.LBE130:
 1439              	.LBE131:
 1440              		.loc 1 353 15 view .LVU355
 1441 0158 01A0A0E3 		mov	r10, #1
 1442              		.loc 1 345 3 view .LVU356
 1443 015c C0029FE5 		ldr	r0, .L162+68
 1444 0160 00108DE5 		str	r1, [sp]
 1445              	.LVL116:
 1446              		.loc 1 345 3 is_stmt 1 view .LVU357
 1447 0164 FEFFFFEB 		bl	test_println
 1448              	.LVL117:
 1449              		.loc 1 351 3 view .LVU358
 1450 0168 74029FE5 		ldr	r0, .L162+4
 1451 016c FEFFFFEB 		bl	test_println
 1452              	.LVL118:
 1453              		.loc 1 353 3 view .LVU359
 1454 0170 B0329FE5 		ldr	r3, .L162+72
 1455              		.loc 1 353 15 is_stmt 0 view .LVU360
 1456 0174 00109DE5 		ldr	r1, [sp]
 1457 0178 04308DE5 		str	r3, [sp, #4]
 1458 017c A8329FE5 		ldr	r3, .L162+76
 1459              		.loc 1 355 18 view .LVU361
 1460 0180 A8729FE5 		ldr	r7, .L162+80
 1461              		.loc 1 353 15 view .LVU362
 1462 0184 001083E5 		str	r1, [r3]
 1463              		.loc 1 354 3 is_stmt 1 view .LVU363
 1464              	.LVL119:
 1465              		.loc 1 355 3 view .LVU364
 1466              		.loc 1 355 9 view .LVU365
 1467              		.loc 1 353 15 is_stmt 0 view .LVU366
 1468 0188 A4329FE5 		ldr	r3, .L162+84
 1469 018c A4629FE5 		ldr	r6, .L162+88
ARM GAS  /tmp/cciwcx5G.s 			page 28


 1470 0190 A4B29FE5 		ldr	fp, .L162+92
 1471 0194 A4529FE5 		ldr	r5, .L162+96
 1472 0198 00308DE5 		str	r3, [sp]
 1473              	.LVL120:
 1474              	.L118:
 1475              		.loc 1 357 11 is_stmt 1 view .LVU367
 1476 019c 003097E5 		ldr	r3, [r7]
 1477 01a0 000053E3 		cmp	r3, #0
 1478              		.loc 1 356 7 is_stmt 0 view .LVU368
 1479 01a4 0080A013 		movne	r8, #0
 1480              		.loc 1 357 11 view .LVU369
 1481 01a8 4900000A 		beq	.L135
 1482              	.LVL121:
 1483              	.L132:
 1484              		.loc 1 358 7 is_stmt 1 view .LVU370
 1485 01ac FEFFFFEB 		bl	print_line
 1486              	.LVL122:
 1487              		.loc 1 359 7 view .LVU371
 1488              	.LBB132:
 1489              	.LBI132:
 1490              		.loc 1 114 6 view .LVU372
 1491              	.LBB133:
 1492              		.loc 1 116 3 view .LVU373
 1493              		.loc 1 116 9 view .LVU374
 1494              		.loc 1 116 10 is_stmt 0 view .LVU375
 1495 01b0 2D10A0E3 		mov	r1, #45
 1496              	.LBE133:
 1497              	.LBE132:
 1498              		.loc 1 358 7 view .LVU376
 1499 01b4 88929FE5 		ldr	r9, .L162+100
 1500              	.LVL123:
 1501              	.L119:
 1502              	.LBB135:
 1503              	.LBB134:
 1504              		.loc 1 117 5 is_stmt 1 view .LVU377
 1505 01b8 000094E5 		ldr	r0, [r4]
 1506              	.LVL124:
 1507              		.loc 1 117 5 is_stmt 0 view .LVU378
 1508 01bc 003090E5 		ldr	r3, [r0]
 1509 01c0 083093E5 		ldr	r3, [r3, #8]
 1510 01c4 33FF2FE1 		blx	r3
 1511              	.LVL125:
 1512              		.loc 1 116 9 is_stmt 1 view .LVU379
 1513              		.loc 1 116 10 is_stmt 0 view .LVU380
 1514 01c8 0110F9E5 		ldrb	r1, [r9, #1]!	@ zero_extendqisi2
 1515              	.LVL126:
 1516              		.loc 1 116 9 view .LVU381
 1517 01cc 000051E3 		cmp	r1, #0
 1518 01d0 F8FFFF1A 		bne	.L119
 1519              	.LVL127:
 1520              		.loc 1 116 9 view .LVU382
 1521              	.LBE134:
 1522              	.LBE135:
 1523              		.loc 1 360 7 is_stmt 1 view .LVU383
 1524 01d4 0A00A0E1 		mov	r0, r10
 1525 01d8 FEFFFFEB 		bl	test_printn
 1526              	.LVL128:
ARM GAS  /tmp/cciwcx5G.s 			page 29


 1527              		.loc 1 361 7 view .LVU384
 1528              	.LBB136:
 1529              	.LBI136:
 1530              		.loc 1 114 6 view .LVU385
 1531              	.LBB137:
 1532              		.loc 1 116 9 view .LVU386
 1533              		.loc 1 117 5 view .LVU387
 1534 01dc 000094E5 		ldr	r0, [r4]
 1535              	.LVL129:
 1536              		.loc 1 117 5 is_stmt 0 view .LVU388
 1537 01e0 2E10A0E3 		mov	r1, #46
 1538 01e4 003090E5 		ldr	r3, [r0]
 1539              	.LBE137:
 1540              	.LBE136:
 1541              		.loc 1 362 21 view .LVU389
 1542 01e8 018088E2 		add	r8, r8, #1
 1543              	.LVL130:
 1544              	.LBB139:
 1545              	.LBB138:
 1546              		.loc 1 117 5 view .LVU390
 1547 01ec 083093E5 		ldr	r3, [r3, #8]
 1548 01f0 33FF2FE1 		blx	r3
 1549              	.LVL131:
 1550              		.loc 1 116 9 is_stmt 1 view .LVU391
 1551              		.loc 1 116 9 is_stmt 0 view .LVU392
 1552              	.LBE138:
 1553              	.LBE139:
 1554              		.loc 1 362 7 is_stmt 1 view .LVU393
 1555 01f4 0800A0E1 		mov	r0, r8
 1556 01f8 FEFFFFEB 		bl	test_printn
 1557              	.LVL132:
 1558              		.loc 1 363 7 view .LVU394
 1559              	.LBB140:
 1560              	.LBI140:
 1561              		.loc 1 114 6 view .LVU395
 1562              	.LBB141:
 1563              		.loc 1 116 9 view .LVU396
 1564              		.loc 1 116 10 is_stmt 0 view .LVU397
 1565 01fc 2010A0E3 		mov	r1, #32
 1566              	.LBE141:
 1567              	.LBE140:
 1568              		.loc 1 362 7 view .LVU398
 1569 0200 40929FE5 		ldr	r9, .L162+104
 1570              	.LVL133:
 1571              	.L120:
 1572              	.LBB143:
 1573              	.LBB142:
 1574              		.loc 1 117 5 is_stmt 1 view .LVU399
 1575 0204 000094E5 		ldr	r0, [r4]
 1576              	.LVL134:
 1577              		.loc 1 117 5 is_stmt 0 view .LVU400
 1578 0208 003090E5 		ldr	r3, [r0]
 1579 020c 083093E5 		ldr	r3, [r3, #8]
 1580 0210 33FF2FE1 		blx	r3
 1581              	.LVL135:
 1582              		.loc 1 116 9 is_stmt 1 view .LVU401
 1583              		.loc 1 116 10 is_stmt 0 view .LVU402
ARM GAS  /tmp/cciwcx5G.s 			page 30


 1584 0214 0110F9E5 		ldrb	r1, [r9, #1]!	@ zero_extendqisi2
 1585              	.LVL136:
 1586              		.loc 1 116 9 view .LVU403
 1587 0218 000051E3 		cmp	r1, #0
 1588 021c F8FFFF1A 		bne	.L120
 1589              	.LVL137:
 1590              		.loc 1 116 9 view .LVU404
 1591              	.LBE142:
 1592              	.LBE143:
 1593              		.loc 1 364 7 is_stmt 1 view .LVU405
 1594 0220 003097E5 		ldr	r3, [r7]
 1595 0224 009093E5 		ldr	r9, [r3]
 1596              	.LVL138:
 1597              	.LBB144:
 1598              	.LBI144:
 1599              		.loc 1 114 6 view .LVU406
 1600              	.LBB145:
 1601              		.loc 1 116 9 view .LVU407
 1602              		.loc 1 116 10 is_stmt 0 view .LVU408
 1603 0228 0010D9E5 		ldrb	r1, [r9]	@ zero_extendqisi2
 1604              		.loc 1 116 9 view .LVU409
 1605 022c 000051E3 		cmp	r1, #0
 1606 0230 0600000A 		beq	.L124
 1607              	.L121:
 1608              		.loc 1 117 5 is_stmt 1 view .LVU410
 1609 0234 000094E5 		ldr	r0, [r4]
 1610              	.LVL139:
 1611              		.loc 1 117 5 is_stmt 0 view .LVU411
 1612 0238 003090E5 		ldr	r3, [r0]
 1613 023c 083093E5 		ldr	r3, [r3, #8]
 1614 0240 33FF2FE1 		blx	r3
 1615              	.LVL140:
 1616              		.loc 1 116 9 is_stmt 1 view .LVU412
 1617              		.loc 1 116 10 is_stmt 0 view .LVU413
 1618 0244 0110F9E5 		ldrb	r1, [r9, #1]!	@ zero_extendqisi2
 1619              	.LVL141:
 1620              		.loc 1 116 9 view .LVU414
 1621 0248 000051E3 		cmp	r1, #0
 1622 024c F8FFFF1A 		bne	.L121
 1623              	.L124:
 1624              	.LVL142:
 1625              		.loc 1 116 9 view .LVU415
 1626              	.LBE145:
 1627              	.LBE144:
 1628              		.loc 1 365 7 is_stmt 1 view .LVU416
 1629 0250 F4019FE5 		ldr	r0, .L162+108
 1630 0254 FEFFFFEB 		bl	test_println
 1631              	.LVL143:
 1632              		.loc 1 367 7 view .LVU417
 1633 0258 C800A0E3 		mov	r0, #200
 1634 025c FEFFFFEB 		bl	chThdSleep
 1635              	.LVL144:
 1636              		.loc 1 369 7 view .LVU418
 1637              	.LBB146:
 1638              	.LBB147:
 1639              		.loc 1 291 14 is_stmt 0 view .LVU419
 1640 0260 0030A0E3 		mov	r3, #0
ARM GAS  /tmp/cciwcx5G.s 			page 31


 1641              	.LBE147:
 1642              	.LBE146:
 1643              		.loc 1 369 7 view .LVU420
 1644 0264 009097E5 		ldr	r9, [r7]
 1645              	.LVL145:
 1646              	.LBB153:
 1647              	.LBI146:
 1648              		.loc 1 286 13 is_stmt 1 view .LVU421
 1649              	.LBB152:
 1650              		.loc 1 287 3 view .LVU422
 1651              		.loc 1 290 3 view .LVU423
 1652              	.LBB148:
 1653              	.LBI148:
 1654              		.loc 1 134 13 view .LVU424
 1655              	.LBB149:
 1656              		.loc 1 136 3 view .LVU425
 1657              		.loc 1 136 8 is_stmt 0 view .LVU426
 1658 0268 E0219FE5 		ldr	r2, .L162+112
 1659              	.LBE149:
 1660              	.LBE148:
 1661              		.loc 1 291 14 view .LVU427
 1662 026c 00308BE5 		str	r3, [fp]
 1663              	.LBB151:
 1664              	.LBB150:
 1665              		.loc 1 136 8 view .LVU428
 1666 0270 002086E5 		str	r2, [r6]
 1667              	.LBE150:
 1668              	.LBE151:
 1669              		.loc 1 291 3 is_stmt 1 view .LVU429
 1670              		.loc 1 292 3 view .LVU430
 1671              	.LVL146:
 1672              		.loc 1 292 15 view .LVU431
 1673              		.loc 1 293 5 view .LVU432
 1674              		.loc 1 295 10 is_stmt 0 view .LVU433
 1675 0274 042099E5 		ldr	r2, [r9, #4]
 1676              		.loc 1 293 16 view .LVU434
 1677 0278 003085E5 		str	r3, [r5]
 1678              		.loc 1 292 32 is_stmt 1 view .LVU435
 1679              	.LVL147:
 1680              		.loc 1 292 15 view .LVU436
 1681              		.loc 1 293 5 view .LVU437
 1682              		.loc 1 295 6 is_stmt 0 view .LVU438
 1683 027c 030052E1 		cmp	r2, r3
 1684              		.loc 1 293 16 view .LVU439
 1685 0280 043085E5 		str	r3, [r5, #4]
 1686              		.loc 1 292 32 is_stmt 1 view .LVU440
 1687              	.LVL148:
 1688              		.loc 1 292 15 view .LVU441
 1689              		.loc 1 293 5 view .LVU442
 1690              		.loc 1 293 16 is_stmt 0 view .LVU443
 1691 0284 083085E5 		str	r3, [r5, #8]
 1692              		.loc 1 292 32 is_stmt 1 view .LVU444
 1693              	.LVL149:
 1694              		.loc 1 292 15 view .LVU445
 1695              		.loc 1 293 5 view .LVU446
 1696              		.loc 1 293 16 is_stmt 0 view .LVU447
 1697 0288 0C3085E5 		str	r3, [r5, #12]
ARM GAS  /tmp/cciwcx5G.s 			page 32


 1698              		.loc 1 292 32 is_stmt 1 view .LVU448
 1699              	.LVL150:
 1700              		.loc 1 292 15 view .LVU449
 1701              		.loc 1 293 5 view .LVU450
 1702              		.loc 1 293 16 is_stmt 0 view .LVU451
 1703 028c 103085E5 		str	r3, [r5, #16]
 1704              		.loc 1 292 32 is_stmt 1 view .LVU452
 1705              	.LVL151:
 1706              		.loc 1 292 15 view .LVU453
 1707              		.loc 1 295 3 view .LVU454
 1708              		.loc 1 295 6 is_stmt 0 view .LVU455
 1709 0290 0000000A 		beq	.L123
 1710              		.loc 1 296 5 is_stmt 1 view .LVU456
 1711 0294 32FF2FE1 		blx	r2
 1712              	.LVL152:
 1713              	.L123:
 1714              		.loc 1 297 3 view .LVU457
 1715 0298 0C3099E5 		ldr	r3, [r9, #12]
 1716 029c 33FF2FE1 		blx	r3
 1717              	.LVL153:
 1718              		.loc 1 298 3 view .LVU458
 1719              		.loc 1 298 10 is_stmt 0 view .LVU459
 1720 02a0 083099E5 		ldr	r3, [r9, #8]
 1721              		.loc 1 298 6 view .LVU460
 1722 02a4 000053E3 		cmp	r3, #0
 1723 02a8 0000000A 		beq	.L125
 1724              		.loc 1 299 5 is_stmt 1 view .LVU461
 1725 02ac 33FF2FE1 		blx	r3
 1726              	.LVL154:
 1727              	.L125:
 1728              		.loc 1 301 3 view .LVU462
 1729 02b0 FEFFFFEB 		bl	test_wait_threads
 1730              	.LVL155:
 1731              		.loc 1 301 3 is_stmt 0 view .LVU463
 1732              	.LBE152:
 1733              	.LBE153:
 1734              		.loc 1 370 7 is_stmt 1 view .LVU464
 1735              		.loc 1 370 10 is_stmt 0 view .LVU465
 1736 02b4 00309BE5 		ldr	r3, [fp]
 1737 02b8 000053E3 		cmp	r3, #0
 1738 02bc 0C00001A 		bne	.L161
 1739              		.loc 1 378 9 is_stmt 1 view .LVU466
 1740 02c0 8C019FE5 		ldr	r0, .L162+116
 1741 02c4 FEFFFFEB 		bl	test_println
 1742              	.LVL156:
 1743              	.L130:
 1744              		.loc 1 357 11 view .LVU467
 1745 02c8 0430B7E5 		ldr	r3, [r7, #4]!
 1746 02cc 000053E3 		cmp	r3, #0
 1747 02d0 B5FFFF1A 		bne	.L132
 1748              	.LVL157:
 1749              	.L135:
 1750              		.loc 1 381 5 view .LVU468
 1751              		.loc 1 355 9 view .LVU469
 1752 02d4 00709DE5 		ldr	r7, [sp]
 1753 02d8 01A08AE2 		add	r10, r10, #1
 1754              	.LVL158:
ARM GAS  /tmp/cciwcx5G.s 			page 33


 1755              		.loc 1 355 9 is_stmt 0 view .LVU470
 1756 02dc 000057E3 		cmp	r7, #0
 1757 02e0 2800000A 		beq	.L133
 1758 02e4 04309DE5 		ldr	r3, [sp, #4]
 1759 02e8 042093E4 		ldr	r2, [r3], #4
 1760 02ec F020CDE1 		strd	r2, [sp]
 1761 02f0 A9FFFFEA 		b	.L118
 1762              	.LVL159:
 1763              	.L161:
 1764              	.LBB154:
 1765              	.LBB155:
 1766              		.loc 1 116 10 view .LVU471
 1767 02f4 2D10A0E3 		mov	r1, #45
 1768              	.LBE155:
 1769              	.LBE154:
 1770 02f8 58919FE5 		ldr	r9, .L162+120
 1771              	.L127:
 1772              	.LVL160:
 1773              	.LBB157:
 1774              	.LBB156:
 1775              		.loc 1 117 5 is_stmt 1 view .LVU472
 1776 02fc 000094E5 		ldr	r0, [r4]
 1777              	.LVL161:
 1778              		.loc 1 117 5 is_stmt 0 view .LVU473
 1779 0300 003090E5 		ldr	r3, [r0]
 1780 0304 083093E5 		ldr	r3, [r3, #8]
 1781 0308 33FF2FE1 		blx	r3
 1782              	.LVL162:
 1783              		.loc 1 116 9 is_stmt 1 view .LVU474
 1784              		.loc 1 116 10 is_stmt 0 view .LVU475
 1785 030c 0110F9E5 		ldrb	r1, [r9, #1]!	@ zero_extendqisi2
 1786              	.LVL163:
 1787              		.loc 1 116 9 view .LVU476
 1788 0310 000051E3 		cmp	r1, #0
 1789 0314 F8FFFF1A 		bne	.L127
 1790              	.LVL164:
 1791              		.loc 1 116 9 view .LVU477
 1792              	.LBE156:
 1793              	.LBE157:
 1794              		.loc 1 372 9 is_stmt 1 view .LVU478
 1795 0318 3C319FE5 		ldr	r3, .L162+124
 1796 031c 3C919FE5 		ldr	r9, .L162+128
 1797 0320 000093E5 		ldr	r0, [r3]
 1798 0324 FEFFFFEB 		bl	test_printn
 1799              	.LVL165:
 1800              		.loc 1 373 9 view .LVU479
 1801              	.LBB158:
 1802              	.LBI158:
 1803              		.loc 1 114 6 view .LVU480
 1804              	.LBB159:
 1805              		.loc 1 116 9 view .LVU481
 1806              		.loc 1 116 10 is_stmt 0 view .LVU482
 1807 0328 2010A0E3 		mov	r1, #32
 1808              	.LVL166:
 1809              	.L128:
 1810              		.loc 1 117 5 is_stmt 1 view .LVU483
 1811 032c 000094E5 		ldr	r0, [r4]
ARM GAS  /tmp/cciwcx5G.s 			page 34


 1812              	.LVL167:
 1813              		.loc 1 117 5 is_stmt 0 view .LVU484
 1814 0330 003090E5 		ldr	r3, [r0]
 1815 0334 083093E5 		ldr	r3, [r3, #8]
 1816 0338 33FF2FE1 		blx	r3
 1817              	.LVL168:
 1818              		.loc 1 116 9 is_stmt 1 view .LVU485
 1819              		.loc 1 116 10 is_stmt 0 view .LVU486
 1820 033c 0110F9E5 		ldrb	r1, [r9, #1]!	@ zero_extendqisi2
 1821              	.LVL169:
 1822              		.loc 1 116 9 view .LVU487
 1823 0340 000051E3 		cmp	r1, #0
 1824 0344 F8FFFF1A 		bne	.L128
 1825              	.LVL170:
 1826              		.loc 1 116 9 view .LVU488
 1827              	.LBE159:
 1828              	.LBE158:
 1829              	.LBB160:
 1830              	.LBB161:
 1831              		.loc 1 142 9 is_stmt 1 view .LVU489
 1832 0348 003096E5 		ldr	r3, [r6]
 1833 034c FC209FE5 		ldr	r2, .L162+112
 1834 0350 020053E1 		cmp	r3, r2
 1835              		.loc 1 140 9 is_stmt 0 view .LVU490
 1836 0354 F4909F85 		ldrhi	r9, .L162+112
 1837              		.loc 1 142 9 view .LVU491
 1838 0358 0700009A 		bls	.L131
 1839              	.LVL171:
 1840              	.L129:
 1841              		.loc 1 143 5 is_stmt 1 view .LVU492
 1842 035c 000094E5 		ldr	r0, [r4]
 1843              	.LVL172:
 1844              		.loc 1 143 5 is_stmt 0 view .LVU493
 1845 0360 0110D9E4 		ldrb	r1, [r9], #1	@ zero_extendqisi2
 1846              	.LVL173:
 1847              		.loc 1 143 5 view .LVU494
 1848 0364 003090E5 		ldr	r3, [r0]
 1849 0368 083093E5 		ldr	r3, [r3, #8]
 1850 036c 33FF2FE1 		blx	r3
 1851              	.LVL174:
 1852              		.loc 1 142 9 is_stmt 1 view .LVU495
 1853 0370 003096E5 		ldr	r3, [r6]
 1854 0374 030059E1 		cmp	r9, r3
 1855 0378 F7FFFF3A 		bcc	.L129
 1856              	.LVL175:
 1857              	.L131:
 1858              		.loc 1 142 9 is_stmt 0 view .LVU496
 1859              	.LBE161:
 1860              	.LBE160:
 1861              		.loc 1 375 9 is_stmt 1 view .LVU497
 1862 037c E0009FE5 		ldr	r0, .L162+132
 1863 0380 FEFFFFEB 		bl	test_println
 1864              	.LVL176:
 1865 0384 CFFFFFEA 		b	.L130
 1866              	.LVL177:
 1867              	.L133:
 1868              		.loc 1 383 3 view .LVU498
ARM GAS  /tmp/cciwcx5G.s 			page 35


 1869 0388 FEFFFFEB 		bl	print_line
 1870              	.LVL178:
 1871              		.loc 1 384 3 view .LVU499
 1872 038c 50009FE5 		ldr	r0, .L162+4
 1873 0390 FEFFFFEB 		bl	test_println
 1874              	.LVL179:
 1875              		.loc 1 385 3 view .LVU500
 1876              	.LBB162:
 1877              	.LBI162:
 1878              		.loc 1 114 6 view .LVU501
 1879              	.LBB163:
 1880              		.loc 1 116 3 view .LVU502
 1881              		.loc 1 116 9 view .LVU503
 1882              		.loc 1 116 10 is_stmt 0 view .LVU504
 1883 0394 4610A0E3 		mov	r1, #70
 1884              	.LBE163:
 1885              	.LBE162:
 1886              		.loc 1 384 3 view .LVU505
 1887 0398 C8509FE5 		ldr	r5, .L162+136
 1888              	.LVL180:
 1889              	.L136:
 1890              	.LBB165:
 1891              	.LBB164:
 1892              		.loc 1 117 5 is_stmt 1 view .LVU506
 1893 039c 000094E5 		ldr	r0, [r4]
 1894              	.LVL181:
 1895              		.loc 1 117 5 is_stmt 0 view .LVU507
 1896 03a0 003090E5 		ldr	r3, [r0]
 1897 03a4 083093E5 		ldr	r3, [r3, #8]
 1898 03a8 33FF2FE1 		blx	r3
 1899              	.LVL182:
 1900              		.loc 1 116 9 is_stmt 1 view .LVU508
 1901              		.loc 1 116 10 is_stmt 0 view .LVU509
 1902 03ac 0110F5E5 		ldrb	r1, [r5, #1]!	@ zero_extendqisi2
 1903              	.LVL183:
 1904              		.loc 1 116 9 view .LVU510
 1905 03b0 000051E3 		cmp	r1, #0
 1906 03b4 F8FFFF1A 		bne	.L136
 1907              	.LVL184:
 1908              		.loc 1 116 9 view .LVU511
 1909              	.LBE164:
 1910              	.LBE165:
 1911              		.loc 1 386 3 is_stmt 1 view .LVU512
 1912              		.loc 1 386 6 is_stmt 0 view .LVU513
 1913 03b8 6C309FE5 		ldr	r3, .L162+76
 1914 03bc 003093E5 		ldr	r3, [r3]
 1915 03c0 000053E3 		cmp	r3, #0
 1916              		.loc 1 387 5 is_stmt 1 view .LVU514
 1917 03c4 A0009F15 		ldrne	r0, .L162+140
 1918              		.loc 1 389 5 view .LVU515
 1919 03c8 A0009F05 		ldreq	r0, .L162+144
 1920 03cc FEFFFFEB 		bl	test_println
 1921              	.LVL185:
 1922              		.loc 1 391 3 view .LVU516
 1923              		.loc 1 392 1 is_stmt 0 view .LVU517
 1924 03d0 54309FE5 		ldr	r3, .L162+76
 1925 03d4 000093E5 		ldr	r0, [r3]
ARM GAS  /tmp/cciwcx5G.s 			page 36


 1926 03d8 0CD08DE2 		add	sp, sp, #12
 1927              		.cfi_def_cfa_offset 36
 1928              		@ sp needed
 1929 03dc F08FBDE8 		pop	{r4, r5, r6, r7, r8, r9, r10, fp, pc}
 1930              	.LVL186:
 1931              	.L163:
 1932              		.loc 1 392 1 view .LVU518
 1933              		.align	2
 1934              	.L162:
 1935 03e0 00000000 		.word	.LANCHOR0
 1936 03e4 CC000000 		.word	.LC13
 1937 03e8 D0000000 		.word	.LC14
 1938 03ec EC000000 		.word	.LC15
 1939 03f0 00000000 		.word	.LC1
 1940 03f4 F0000000 		.word	.LC16
 1941 03f8 14000000 		.word	.LC2
 1942 03fc 00010000 		.word	.LC17
 1943 0400 28000000 		.word	.LC3
 1944 0404 18010000 		.word	.LC18
 1945 0408 3C000000 		.word	.LC4
 1946 040c 58010000 		.word	.LC19
 1947 0410 50000000 		.word	.LC5
 1948 0414 60010000 		.word	.LC20
 1949 0418 64000000 		.word	.LC6
 1950 041c 70010000 		.word	.LC21
 1951 0420 78000000 		.word	.LC7
 1952 0424 80010000 		.word	.LC22
 1953 0428 08000000 		.word	.LANCHOR7+8
 1954 042c 00000000 		.word	.LANCHOR3
 1955 0430 00000000 		.word	patternthd
 1956 0434 00000000 		.word	patternsem
 1957 0438 00000000 		.word	.LANCHOR1
 1958 043c 00000000 		.word	.LANCHOR2
 1959 0440 00000000 		.word	threads
 1960 0444 8C000000 		.word	.LC8
 1961 0448 9C000000 		.word	.LC9
 1962 044c 88010000 		.word	.LC23
 1963 0450 00000000 		.word	.LANCHOR5
 1964 0454 90010000 		.word	.LC25
 1965 0458 A0000000 		.word	.LC10
 1966 045c 00000000 		.word	.LANCHOR4
 1967 0460 B8000000 		.word	.LC11
 1968 0464 8C010000 		.word	.LC24
 1969 0468 BC000000 		.word	.LC12
 1970 046c A4010000 		.word	.LC26
 1971 0470 AC010000 		.word	.LC27
 1972              		.cfi_endproc
 1973              	.LFE25:
 1974              		.size	TestThread, .-TestThread
 1975              		.comm	test_timer_done,4,4
 1976              		.global	wa
 1977              		.comm	threads,20,4
 1978              		.comm	test,1400,4
 1979              		.section	.bss.chp,"aw",%nobits
 1980              		.align	2
 1981              		.set	.LANCHOR0,. + 0
 1982              		.type	chp, %object
ARM GAS  /tmp/cciwcx5G.s 			page 37


 1983              		.size	chp, 4
 1984              	chp:
 1985 0000 00000000 		.space	4
 1986              		.section	.bss.failpoint,"aw",%nobits
 1987              		.align	2
 1988              		.set	.LANCHOR4,. + 0
 1989              		.type	failpoint, %object
 1990              		.size	failpoint, 4
 1991              	failpoint:
 1992 0000 00000000 		.space	4
 1993              		.section	.bss.global_fail,"aw",%nobits
 1994              		.align	2
 1995              		.set	.LANCHOR3,. + 0
 1996              		.type	global_fail, %object
 1997              		.size	global_fail, 4
 1998              	global_fail:
 1999 0000 00000000 		.space	4
 2000              		.section	.bss.local_fail,"aw",%nobits
 2001              		.align	2
 2002              		.set	.LANCHOR2,. + 0
 2003              		.type	local_fail, %object
 2004              		.size	local_fail, 4
 2005              	local_fail:
 2006 0000 00000000 		.space	4
 2007              		.section	.bss.tokens_buffer,"aw",%nobits
 2008              		.align	2
 2009              		.set	.LANCHOR5,. + 0
 2010              		.type	tokens_buffer, %object
 2011              		.size	tokens_buffer, 16
 2012              	tokens_buffer:
 2013 0000 00000000 		.space	16
 2013      00000000 
 2013      00000000 
 2013      00000000 
 2014              		.section	.bss.tokp,"aw",%nobits
 2015              		.align	2
 2016              		.set	.LANCHOR1,. + 0
 2017              		.type	tokp, %object
 2018              		.size	tokp, 4
 2019              	tokp:
 2020 0000 00000000 		.space	4
 2021              		.section	.bss.vt,"aw",%nobits
 2022              		.align	2
 2023              		.set	.LANCHOR6,. + 0
 2024              		.type	vt, %object
 2025              		.size	vt, 20
 2026              	vt:
 2027 0000 00000000 		.space	20
 2027      00000000 
 2027      00000000 
 2027      00000000 
 2027      00000000 
 2028              		.section	.rodata.patterns,"a"
 2029              		.align	2
 2030              		.set	.LANCHOR7,. + 0
 2031              		.type	patterns, %object
 2032              		.size	patterns, 48
ARM GAS  /tmp/cciwcx5G.s 			page 38


 2033              	patterns:
 2034 0000 00000000 		.word	patternthd
 2035 0004 00000000 		.word	patternsem
 2036 0008 00000000 		.word	patternmtx
 2037 000c 00000000 		.word	patternmsg
 2038 0010 00000000 		.word	patternmbox
 2039 0014 00000000 		.word	patternevt
 2040 0018 00000000 		.word	patternheap
 2041 001c 00000000 		.word	patternpools
 2042 0020 00000000 		.word	patterndyn
 2043 0024 00000000 		.word	patternqueues
 2044 0028 00000000 		.word	patternbmk
 2045 002c 00000000 		.word	0
 2046              		.section	.rodata.wa,"a"
 2047              		.align	2
 2048              		.type	wa, %object
 2049              		.size	wa, 20
 2050              	wa:
 2051 0000 00000000 		.word	test
 2052 0004 18010000 		.word	test+280
 2053 0008 30020000 		.word	test+560
 2054 000c 48030000 		.word	test+840
 2055 0010 60040000 		.word	test+1120
 2056              		.text
 2057              	.Letext0:
 2058              		.file 2 "/usr/lib/gcc/arm-none-eabi/9.2.1/include/stddef.h"
 2059              		.file 3 "/usr/lib/gcc/arm-none-eabi/9.2.1/include/stdint.h"
 2060              		.file 4 "../os/ports/GCC/ARM/chtypes.h"
 2061              		.file 5 "../os/kernel/include/chlists.h"
 2062              		.file 6 "../os/kernel/include/chthreads.h"
 2063              		.file 7 "../os/ports/GCC/ARM/chcore.h"
 2064              		.file 8 "../os/kernel/include/chvt.h"
 2065              		.file 9 "../os/kernel/include/chschd.h"
 2066              		.file 10 "../os/kernel/include/chmtx.h"
 2067              		.file 11 "../os/kernel/include/chevents.h"
 2068              		.file 12 "../os/kernel/include/chregistry.h"
 2069              		.file 13 "../os/kernel/include/chqueues.h"
 2070              		.file 14 "../os/kernel/include/chstreams.h"
 2071              		.file 15 "../os/kernel/include/ch.h"
 2072              		.file 16 "../os/hal/platforms/BCM2835/bcm2835.h"
 2073              		.file 17 "../os/hal/platforms/BCM2835/pal_lld.h"
 2074              		.file 18 "../os/hal/include/i2c.h"
 2075              		.file 19 "../os/hal/platforms/BCM2835/i2c_lld.h"
 2076              		.file 20 "../os/hal/include/serial.h"
 2077              		.file 21 "../os/hal/include/spi.h"
 2078              		.file 22 "../os/hal/platforms/BCM2835/spi_lld.h"
 2079              		.file 23 "../test/test.h"
 2080              		.file 24 "../os/hal/platforms/BCM2835/serial_lld.h"
 2081              		.file 25 "../test/testthd.h"
 2082              		.file 26 "../test/testsem.h"
 2083              		.file 27 "../test/testmtx.h"
 2084              		.file 28 "../test/testmsg.h"
 2085              		.file 29 "../test/testmbox.h"
 2086              		.file 30 "../test/testevt.h"
 2087              		.file 31 "../test/testheap.h"
 2088              		.file 32 "../test/testpools.h"
 2089              		.file 33 "../test/testdyn.h"
ARM GAS  /tmp/cciwcx5G.s 			page 39


 2090              		.file 34 "../test/testqueues.h"
 2091              		.file 35 "../test/testbmk.h"