ARM GAS  /tmp/cc4WGHcr.s 			page 1


   1              		.cpu arm1176jz-s
   2              		.eabi_attribute 20, 1
   3              		.eabi_attribute 21, 1
   4              		.eabi_attribute 23, 3
   5              		.eabi_attribute 24, 1
   6              		.eabi_attribute 25, 1
   7              		.eabi_attribute 26, 1
   8              		.eabi_attribute 30, 2
   9              		.eabi_attribute 34, 1
  10              		.eabi_attribute 18, 4
  11              		.file	"testbmk.c"
  12              		.text
  13              	.Ltext0:
  14              		.cfi_sections	.debug_frame
  15              		.section	.text.thread2,"ax",%progbits
  16              		.align	2
  17              		.arch armv6kz
  18              		.syntax unified
  19              		.arm
  20              		.fpu softvfp
  21              		.type	thread2, %function
  22              	thread2:
  23              	.LVL0:
  24              	.LFB11:
  25              		.file 1 "../test/testbmk.c"
  26              		.loc 1 158 31 view -0
  27              		.cfi_startproc
  28              		@ args = 0, pretend = 0, frame = 0
  29              		@ frame_needed = 0, uses_anonymous_args = 0
  30              		@ link register save eliminated.
  31              		.loc 1 160 3 view .LVU1
  32              		.loc 1 161 1 is_stmt 0 view .LVU2
  33 0000 1EFF2FE1 		bx	lr
  34              		.cfi_endproc
  35              	.LFE11:
  36              		.size	thread2, .-thread2
  37              		.section	.text.tmo,"ax",%progbits
  38              		.align	2
  39              		.syntax unified
  40              		.arm
  41              		.fpu softvfp
  42              		.type	tmo, %function
  43              	tmo:
  44              	.LVL1:
  45              	.LFB23:
  46              		.loc 1 504 30 is_stmt 1 view -0
  47              		.cfi_startproc
  48              		@ args = 0, pretend = 0, frame = 0
  49              		@ frame_needed = 0, uses_anonymous_args = 0
  50              		@ link register save eliminated.
  51              		.loc 1 504 31 view .LVU4
  52              		.loc 1 504 1 is_stmt 0 view .LVU5
  53 0000 1EFF2FE1 		bx	lr
  54              		.cfi_endproc
  55              	.LFE23:
  56              		.size	tmo, .-tmo
  57              		.section	.rodata.bmk13_execute.str1.4,"aMS",%progbits,1
ARM GAS  /tmp/cc4WGHcr.s 			page 2


  58              		.align	2
  59              	.LC0:
  60 0000 2D2D2D20 		.ascii	"--- System: \000"
  60      53797374 
  60      656D3A20 
  60      00
  61 000d 000000   		.align	2
  62              	.LC1:
  63 0010 20627974 		.ascii	" bytes\000"
  63      657300
  64 0017 00       		.align	2
  65              	.LC2:
  66 0018 2D2D2D20 		.ascii	"--- Thread: \000"
  66      54687265 
  66      61643A20 
  66      00
  67 0025 000000   		.align	2
  68              	.LC3:
  69 0028 2D2D2D20 		.ascii	"--- Timer : \000"
  69      54696D65 
  69      72203A20 
  69      00
  70 0035 000000   		.align	2
  71              	.LC4:
  72 0038 2D2D2D20 		.ascii	"--- Semaph: \000"
  72      53656D61 
  72      70683A20 
  72      00
  73 0045 000000   		.align	2
  74              	.LC5:
  75 0048 2D2D2D20 		.ascii	"--- EventS: \000"
  75      4576656E 
  75      74533A20 
  75      00
  76 0055 000000   		.align	2
  77              	.LC6:
  78 0058 2D2D2D20 		.ascii	"--- EventL: \000"
  78      4576656E 
  78      744C3A20 
  78      00
  79 0065 000000   		.align	2
  80              	.LC7:
  81 0068 2D2D2D20 		.ascii	"--- Mutex : \000"
  81      4D757465 
  81      78203A20 
  81      00
  82 0075 000000   		.align	2
  83              	.LC8:
  84 0078 2D2D2D20 		.ascii	"--- CondV.: \000"
  84      436F6E64 
  84      562E3A20 
  84      00
  85 0085 000000   		.align	2
  86              	.LC9:
  87 0088 2D2D2D20 		.ascii	"--- Queue : \000"
  87      51756575 
  87      65203A20 
ARM GAS  /tmp/cc4WGHcr.s 			page 3


  87      00
  88 0095 000000   		.align	2
  89              	.LC10:
  90 0098 2D2D2D20 		.ascii	"--- MailB.: \000"
  90      4D61696C 
  90      422E3A20 
  90      00
  91              		.section	.text.bmk13_execute,"ax",%progbits
  92              		.align	2
  93              		.syntax unified
  94              		.arm
  95              		.fpu softvfp
  96              		.type	bmk13_execute, %function
  97              	bmk13_execute:
  98              	.LFB29:
  99              		.loc 1 637 33 is_stmt 1 view -0
 100              		.cfi_startproc
 101              		@ args = 0, pretend = 0, frame = 0
 102              		@ frame_needed = 0, uses_anonymous_args = 0
 103              		.loc 1 639 3 view .LVU7
 104              		.loc 1 637 33 is_stmt 0 view .LVU8
 105 0000 10402DE9 		push	{r4, lr}
 106              		.cfi_def_cfa_offset 8
 107              		.cfi_offset 4, -8
 108              		.cfi_offset 14, -4
 109              		.loc 1 639 3 view .LVU9
 110 0004 F0009FE5 		ldr	r0, .L6
 111              		.loc 1 645 3 view .LVU10
 112 0008 F0409FE5 		ldr	r4, .L6+4
 113              		.loc 1 639 3 view .LVU11
 114 000c FEFFFFEB 		bl	test_print
 115              	.LVL2:
 116              		.loc 1 640 3 is_stmt 1 view .LVU12
 117 0010 160EA0E3 		mov	r0, #352
 118 0014 FEFFFFEB 		bl	test_printn
 119              	.LVL3:
 120              		.loc 1 645 3 view .LVU13
 121 0018 0400A0E1 		mov	r0, r4
 122 001c FEFFFFEB 		bl	test_println
 123              	.LVL4:
 124              		.loc 1 646 3 view .LVU14
 125 0020 DC009FE5 		ldr	r0, .L6+8
 126 0024 FEFFFFEB 		bl	test_print
 127              	.LVL5:
 128              		.loc 1 647 3 view .LVU15
 129 0028 4400A0E3 		mov	r0, #68
 130 002c FEFFFFEB 		bl	test_printn
 131              	.LVL6:
 132              		.loc 1 648 3 view .LVU16
 133 0030 0400A0E1 		mov	r0, r4
 134 0034 FEFFFFEB 		bl	test_println
 135              	.LVL7:
 136              		.loc 1 649 3 view .LVU17
 137 0038 C8009FE5 		ldr	r0, .L6+12
 138 003c FEFFFFEB 		bl	test_print
 139              	.LVL8:
 140              		.loc 1 650 3 view .LVU18
ARM GAS  /tmp/cc4WGHcr.s 			page 4


 141 0040 1400A0E3 		mov	r0, #20
 142 0044 FEFFFFEB 		bl	test_printn
 143              	.LVL9:
 144              		.loc 1 651 3 view .LVU19
 145 0048 0400A0E1 		mov	r0, r4
 146 004c FEFFFFEB 		bl	test_println
 147              	.LVL10:
 148              		.loc 1 652 3 view .LVU20
 149 0050 B4009FE5 		ldr	r0, .L6+16
 150 0054 FEFFFFEB 		bl	test_print
 151              	.LVL11:
 152              		.loc 1 653 3 view .LVU21
 153 0058 0C00A0E3 		mov	r0, #12
 154 005c FEFFFFEB 		bl	test_printn
 155              	.LVL12:
 156              		.loc 1 654 3 view .LVU22
 157 0060 0400A0E1 		mov	r0, r4
 158 0064 FEFFFFEB 		bl	test_println
 159              	.LVL13:
 160              		.loc 1 656 3 view .LVU23
 161 0068 A0009FE5 		ldr	r0, .L6+20
 162 006c FEFFFFEB 		bl	test_print
 163              	.LVL14:
 164              		.loc 1 657 3 view .LVU24
 165 0070 0400A0E3 		mov	r0, #4
 166 0074 FEFFFFEB 		bl	test_printn
 167              	.LVL15:
 168              		.loc 1 658 3 view .LVU25
 169 0078 0400A0E1 		mov	r0, r4
 170 007c FEFFFFEB 		bl	test_println
 171              	.LVL16:
 172              		.loc 1 659 3 view .LVU26
 173 0080 8C009FE5 		ldr	r0, .L6+24
 174 0084 FEFFFFEB 		bl	test_print
 175              	.LVL17:
 176              		.loc 1 660 3 view .LVU27
 177 0088 1000A0E3 		mov	r0, #16
 178 008c FEFFFFEB 		bl	test_printn
 179              	.LVL18:
 180              		.loc 1 661 3 view .LVU28
 181 0090 0400A0E1 		mov	r0, r4
 182 0094 FEFFFFEB 		bl	test_println
 183              	.LVL19:
 184              		.loc 1 664 3 view .LVU29
 185 0098 78009FE5 		ldr	r0, .L6+28
 186 009c FEFFFFEB 		bl	test_print
 187              	.LVL20:
 188              		.loc 1 665 3 view .LVU30
 189 00a0 1000A0E3 		mov	r0, #16
 190 00a4 FEFFFFEB 		bl	test_printn
 191              	.LVL21:
 192              		.loc 1 666 3 view .LVU31
 193 00a8 0400A0E1 		mov	r0, r4
 194 00ac FEFFFFEB 		bl	test_println
 195              	.LVL22:
 196              		.loc 1 669 3 view .LVU32
 197 00b0 64009FE5 		ldr	r0, .L6+32
ARM GAS  /tmp/cc4WGHcr.s 			page 5


 198 00b4 FEFFFFEB 		bl	test_print
 199              	.LVL23:
 200              		.loc 1 670 3 view .LVU33
 201 00b8 0800A0E3 		mov	r0, #8
 202 00bc FEFFFFEB 		bl	test_printn
 203              	.LVL24:
 204              		.loc 1 671 3 view .LVU34
 205 00c0 0400A0E1 		mov	r0, r4
 206 00c4 FEFFFFEB 		bl	test_println
 207              	.LVL25:
 208              		.loc 1 674 3 view .LVU35
 209 00c8 50009FE5 		ldr	r0, .L6+36
 210 00cc FEFFFFEB 		bl	test_print
 211              	.LVL26:
 212              		.loc 1 675 3 view .LVU36
 213 00d0 2400A0E3 		mov	r0, #36
 214 00d4 FEFFFFEB 		bl	test_printn
 215              	.LVL27:
 216              		.loc 1 676 3 view .LVU37
 217 00d8 0400A0E1 		mov	r0, r4
 218 00dc FEFFFFEB 		bl	test_println
 219              	.LVL28:
 220              		.loc 1 679 3 view .LVU38
 221 00e0 3C009FE5 		ldr	r0, .L6+40
 222 00e4 FEFFFFEB 		bl	test_print
 223              	.LVL29:
 224              		.loc 1 680 3 view .LVU39
 225 00e8 2800A0E3 		mov	r0, #40
 226 00ec FEFFFFEB 		bl	test_printn
 227              	.LVL30:
 228              		.loc 1 681 3 view .LVU40
 229 00f0 0400A0E1 		mov	r0, r4
 230              		.loc 1 683 1 is_stmt 0 view .LVU41
 231 00f4 1040BDE8 		pop	{r4, lr}
 232              		.cfi_restore 14
 233              		.cfi_restore 4
 234              		.cfi_def_cfa_offset 0
 235              		.loc 1 681 3 view .LVU42
 236 00f8 FEFFFFEA 		b	test_println
 237              	.LVL31:
 238              	.L7:
 239              		.align	2
 240              	.L6:
 241 00fc 00000000 		.word	.LC0
 242 0100 10000000 		.word	.LC1
 243 0104 18000000 		.word	.LC2
 244 0108 28000000 		.word	.LC3
 245 010c 38000000 		.word	.LC4
 246 0110 48000000 		.word	.LC5
 247 0114 58000000 		.word	.LC6
 248 0118 68000000 		.word	.LC7
 249 011c 78000000 		.word	.LC8
 250 0120 88000000 		.word	.LC9
 251 0124 98000000 		.word	.LC10
 252              		.cfi_endproc
 253              	.LFE29:
 254              		.size	bmk13_execute, .-bmk13_execute
ARM GAS  /tmp/cc4WGHcr.s 			page 6


 255              		.section	.text.thread1,"ax",%progbits
 256              		.align	2
 257              		.syntax unified
 258              		.arm
 259              		.fpu softvfp
 260              		.type	thread1, %function
 261              	thread1:
 262              	.LFB7:
 263              		.loc 1 68 31 is_stmt 1 view -0
 264              		.cfi_startproc
 265              		@ args = 0, pretend = 0, frame = 0
 266              		@ frame_needed = 0, uses_anonymous_args = 0
 267              	.LVL32:
 268              		.loc 1 68 31 is_stmt 0 view .LVU44
 269 0000 10402DE9 		push	{r4, lr}
 270              		.cfi_def_cfa_offset 8
 271              		.cfi_offset 4, -8
 272              		.cfi_offset 14, -4
 273              	.LVL33:
 274              	.L9:
 275              		.loc 1 69 3 is_stmt 1 discriminator 1 view .LVU45
 276              		.loc 1 70 3 discriminator 1 view .LVU46
 277              		.loc 1 72 3 discriminator 1 view .LVU47
 278              		.loc 1 73 3 discriminator 1 view .LVU48
 279              		.loc 1 74 5 discriminator 1 view .LVU49
 280              		.loc 1 74 10 is_stmt 0 discriminator 1 view .LVU50
 281 0004 FEFFFFEB 		bl	chMsgWait
 282              	.LVL34:
 283              		.loc 1 75 5 is_stmt 1 discriminator 1 view .LVU51
 284              		.loc 1 75 9 is_stmt 0 discriminator 1 view .LVU52
 285 0008 344090E5 		ldr	r4, [r0, #52]
 286              	.LVL35:
 287              		.loc 1 76 5 is_stmt 1 discriminator 1 view .LVU53
 288 000c 0410A0E1 		mov	r1, r4
 289 0010 FEFFFFEB 		bl	chMsgRelease
 290              	.LVL36:
 291              		.loc 1 77 11 discriminator 1 view .LVU54
 292              		.loc 1 77 3 is_stmt 0 discriminator 1 view .LVU55
 293 0014 000054E3 		cmp	r4, #0
 294 0018 F9FFFF1A 		bne	.L9
 295              		.loc 1 78 3 is_stmt 1 view .LVU56
 296              		.loc 1 79 1 is_stmt 0 view .LVU57
 297 001c 0400A0E1 		mov	r0, r4
 298 0020 1080BDE8 		pop	{r4, pc}
 299              		.cfi_endproc
 300              	.LFE7:
 301              		.size	thread1, .-thread1
 302              		.section	.rodata.bmk6_execute.str1.4,"aMS",%progbits,1
 303              		.align	2
 304              	.LC11:
 305 0000 2D2D2D20 		.ascii	"--- Score : \000"
 305      53636F72 
 305      65203A20 
 305      00
 306 000d 000000   		.align	2
 307              	.LC12:
 308 0010 20746872 		.ascii	" threads/S\000"
ARM GAS  /tmp/cc4WGHcr.s 			page 7


 308      65616473 
 308      2F5300
 309              		.section	.text.bmk6_execute,"ax",%progbits
 310              		.align	2
 311              		.syntax unified
 312              		.arm
 313              		.fpu softvfp
 314              		.type	bmk6_execute, %function
 315              	bmk6_execute:
 316              	.LFB16:
 317              		.loc 1 308 32 is_stmt 1 view -0
 318              		.cfi_startproc
 319              		@ args = 0, pretend = 0, frame = 0
 320              		@ frame_needed = 0, uses_anonymous_args = 0
 321              		.loc 1 310 3 view .LVU59
 322              	.LVL37:
 323              		.loc 1 311 3 view .LVU60
 324              		.loc 1 308 32 is_stmt 0 view .LVU61
 325 0000 F0432DE9 		push	{r4, r5, r6, r7, r8, r9, lr}
 326              		.cfi_def_cfa_offset 28
 327              		.cfi_offset 4, -28
 328              		.cfi_offset 5, -24
 329              		.cfi_offset 6, -20
 330              		.cfi_offset 7, -16
 331              		.cfi_offset 8, -12
 332              		.cfi_offset 9, -8
 333              		.cfi_offset 14, -4
 334              		.loc 1 310 12 view .LVU62
 335 0004 0040A0E3 		mov	r4, #0
 336              		.loc 1 312 18 view .LVU63
 337 0008 74309FE5 		ldr	r3, .L17
 338              		.loc 1 311 9 view .LVU64
 339 000c 74209FE5 		ldr	r2, .L17+4
 340              		.loc 1 312 18 view .LVU65
 341 0010 183093E5 		ldr	r3, [r3, #24]
 342              		.loc 1 308 32 view .LVU66
 343 0014 0CD04DE2 		sub	sp, sp, #12
 344              		.cfi_def_cfa_offset 40
 345              		.loc 1 312 11 view .LVU67
 346 0018 085093E5 		ldr	r5, [r3, #8]
 347              		.loc 1 311 9 view .LVU68
 348 001c 009092E5 		ldr	r9, [r2]
 349              	.LVL38:
 350              		.loc 1 312 3 is_stmt 1 view .LVU69
 351              		.loc 1 313 3 is_stmt 0 view .LVU70
 352 0020 FEFFFFEB 		bl	test_wait_tick
 353              	.LVL39:
 354              		.loc 1 314 3 view .LVU71
 355 0024 FA0FA0E3 		mov	r0, #1000
 356              		.loc 1 316 5 view .LVU72
 357 0028 0480A0E1 		mov	r8, r4
 358              		.loc 1 314 3 view .LVU73
 359 002c FEFFFFEB 		bl	test_start_timer
 360              	.LVL40:
 361 0030 54709FE5 		ldr	r7, .L17+8
 362              		.loc 1 316 5 view .LVU74
 363 0034 54609FE5 		ldr	r6, .L17+12
ARM GAS  /tmp/cc4WGHcr.s 			page 8


 364              		.loc 1 312 11 view .LVU75
 365 0038 015085E2 		add	r5, r5, #1
 366              	.LVL41:
 367              		.loc 1 313 3 is_stmt 1 view .LVU76
 368              		.loc 1 314 3 view .LVU77
 369              	.L13:
 370              		.loc 1 315 3 discriminator 1 view .LVU78
 371              		.loc 1 316 5 discriminator 1 view .LVU79
 372 003c 0520A0E1 		mov	r2, r5
 373 0040 0630A0E1 		mov	r3, r6
 374 0044 461FA0E3 		mov	r1, #280
 375 0048 0900A0E1 		mov	r0, r9
 376 004c 00808DE5 		str	r8, [sp]
 377 0050 FEFFFFEB 		bl	chThdCreateStatic
 378              	.LVL42:
 379              		.loc 1 317 5 discriminator 1 view .LVU80
 380              		.loc 1 321 3 is_stmt 0 discriminator 1 view .LVU81
 381 0054 002097E5 		ldr	r2, [r7]
 382              		.loc 1 317 6 discriminator 1 view .LVU82
 383 0058 014084E2 		add	r4, r4, #1
 384              	.LVL43:
 385              		.loc 1 321 11 is_stmt 1 discriminator 1 view .LVU83
 386              		.loc 1 321 3 is_stmt 0 discriminator 1 view .LVU84
 387 005c 000052E3 		cmp	r2, #0
 388 0060 F5FFFF0A 		beq	.L13
 389              		.loc 1 322 3 is_stmt 1 view .LVU85
 390 0064 28009FE5 		ldr	r0, .L17+16
 391 0068 FEFFFFEB 		bl	test_print
 392              	.LVL44:
 393              		.loc 1 323 3 view .LVU86
 394 006c 0400A0E1 		mov	r0, r4
 395 0070 FEFFFFEB 		bl	test_printn
 396              	.LVL45:
 397              		.loc 1 324 3 view .LVU87
 398 0074 1C009FE5 		ldr	r0, .L17+20
 399              		.loc 1 325 1 is_stmt 0 view .LVU88
 400 0078 0CD08DE2 		add	sp, sp, #12
 401              		.cfi_def_cfa_offset 28
 402              		@ sp needed
 403 007c F043BDE8 		pop	{r4, r5, r6, r7, r8, r9, lr}
 404              		.cfi_restore 14
 405              		.cfi_restore 9
 406              		.cfi_restore 8
 407              		.cfi_restore 7
 408              		.cfi_restore 6
 409              		.cfi_restore 5
 410              		.cfi_restore 4
 411              		.cfi_def_cfa_offset 0
 412              	.LVL46:
 413              		.loc 1 324 3 view .LVU89
 414 0080 FEFFFFEA 		b	test_println
 415              	.LVL47:
 416              	.L18:
 417              		.align	2
 418              	.L17:
 419 0084 00000000 		.word	rlist
 420 0088 00000000 		.word	wa
ARM GAS  /tmp/cc4WGHcr.s 			page 9


 421 008c 00000000 		.word	test_timer_done
 422 0090 00000000 		.word	thread2
 423 0094 00000000 		.word	.LC11
 424 0098 10000000 		.word	.LC12
 425              		.cfi_endproc
 426              	.LFE16:
 427              		.size	bmk6_execute, .-bmk6_execute
 428              		.section	.text.msg_loop_test,"ax",%progbits
 429              		.align	2
 430              		.syntax unified
 431              		.arm
 432              		.fpu softvfp
 433              		.type	msg_loop_test, %function
 434              	msg_loop_test:
 435              	.LVL48:
 436              	.LFB8:
 437              		.loc 1 84 47 is_stmt 1 view -0
 438              		.cfi_startproc
 439              		@ args = 0, pretend = 0, frame = 0
 440              		@ frame_needed = 0, uses_anonymous_args = 0
 441              		.loc 1 86 3 view .LVU91
 442              		.loc 1 87 3 view .LVU92
 443              		.loc 1 84 47 is_stmt 0 view .LVU93
 444 0000 70402DE9 		push	{r4, r5, r6, lr}
 445              		.cfi_def_cfa_offset 16
 446              		.cfi_offset 4, -16
 447              		.cfi_offset 5, -12
 448              		.cfi_offset 6, -8
 449              		.cfi_offset 14, -4
 450              		.loc 1 84 47 view .LVU94
 451 0004 0050A0E1 		mov	r5, r0
 452              		.loc 1 87 3 view .LVU95
 453 0008 FEFFFFEB 		bl	test_wait_tick
 454              	.LVL49:
 455              		.loc 1 88 3 is_stmt 1 view .LVU96
 456 000c FA0FA0E3 		mov	r0, #1000
 457 0010 FEFFFFEB 		bl	test_start_timer
 458              	.LVL50:
 459              		.loc 1 86 12 is_stmt 0 view .LVU97
 460 0014 0040A0E3 		mov	r4, #0
 461 0018 2C609FE5 		ldr	r6, .L24
 462              	.LVL51:
 463              	.L20:
 464              		.loc 1 89 3 is_stmt 1 discriminator 1 view .LVU98
 465              		.loc 1 90 5 discriminator 1 view .LVU99
 466              		.loc 1 90 11 is_stmt 0 discriminator 1 view .LVU100
 467 001c 0110A0E3 		mov	r1, #1
 468 0020 0500A0E1 		mov	r0, r5
 469 0024 FEFFFFEB 		bl	chMsgSend
 470              	.LVL52:
 471              		.loc 1 91 5 is_stmt 1 discriminator 1 view .LVU101
 472              		.loc 1 95 3 is_stmt 0 discriminator 1 view .LVU102
 473 0028 003096E5 		ldr	r3, [r6]
 474              		.loc 1 91 6 discriminator 1 view .LVU103
 475 002c 014084E2 		add	r4, r4, #1
 476              	.LVL53:
 477              		.loc 1 95 11 is_stmt 1 discriminator 1 view .LVU104
ARM GAS  /tmp/cc4WGHcr.s 			page 10


 478              		.loc 1 95 3 is_stmt 0 discriminator 1 view .LVU105
 479 0030 000053E3 		cmp	r3, #0
 480 0034 F8FFFF0A 		beq	.L20
 481              		.loc 1 96 3 is_stmt 1 view .LVU106
 482              		.loc 1 96 9 is_stmt 0 view .LVU107
 483 0038 0500A0E1 		mov	r0, r5
 484 003c 0010A0E3 		mov	r1, #0
 485 0040 FEFFFFEB 		bl	chMsgSend
 486              	.LVL54:
 487              		.loc 1 97 3 is_stmt 1 view .LVU108
 488              		.loc 1 98 1 is_stmt 0 view .LVU109
 489 0044 0400A0E1 		mov	r0, r4
 490 0048 7080BDE8 		pop	{r4, r5, r6, pc}
 491              	.L25:
 492              		.align	2
 493              	.L24:
 494 004c 00000000 		.word	test_timer_done
 495              		.cfi_endproc
 496              	.LFE8:
 497              		.size	msg_loop_test, .-msg_loop_test
 498              		.section	.rodata.bmk1_execute.str1.4,"aMS",%progbits,1
 499              		.align	2
 500              	.LC13:
 501 0000 206D7367 		.ascii	" msgs/S, \000"
 501      732F532C 
 501      2000
 502 000a 0000     		.align	2
 503              	.LC14:
 504 000c 20637478 		.ascii	" ctxswc/S\000"
 504      7377632F 
 504      5300
 505              		.section	.text.bmk1_execute,"ax",%progbits
 506              		.align	2
 507              		.syntax unified
 508              		.arm
 509              		.fpu softvfp
 510              		.type	bmk1_execute, %function
 511              	bmk1_execute:
 512              	.LFB9:
 513              		.loc 1 109 32 is_stmt 1 view -0
 514              		.cfi_startproc
 515              		@ args = 0, pretend = 0, frame = 0
 516              		@ frame_needed = 0, uses_anonymous_args = 0
 517              		.loc 1 110 3 view .LVU111
 518              		.loc 1 112 3 view .LVU112
 519              		.loc 1 112 16 is_stmt 0 view .LVU113
 520 0000 0010A0E3 		mov	r1, #0
 521              		.loc 1 109 32 view .LVU114
 522 0004 10402DE9 		push	{r4, lr}
 523              		.cfi_def_cfa_offset 8
 524              		.cfi_offset 4, -8
 525              		.cfi_offset 14, -4
 526              		.loc 1 112 50 view .LVU115
 527 0008 68309FE5 		ldr	r3, .L28
 528              		.loc 1 112 16 view .LVU116
 529 000c 68209FE5 		ldr	r2, .L28+4
 530              		.loc 1 112 50 view .LVU117
ARM GAS  /tmp/cc4WGHcr.s 			page 11


 531 0010 183093E5 		ldr	r3, [r3, #24]
 532              		.loc 1 112 16 view .LVU118
 533 0014 000092E5 		ldr	r0, [r2]
 534 0018 082093E5 		ldr	r2, [r3, #8]
 535              		.loc 1 109 32 view .LVU119
 536 001c 08D04DE2 		sub	sp, sp, #8
 537              		.cfi_def_cfa_offset 16
 538              		.loc 1 112 16 view .LVU120
 539 0020 012042E2 		sub	r2, r2, #1
 540 0024 00108DE5 		str	r1, [sp]
 541 0028 50309FE5 		ldr	r3, .L28+8
 542 002c 461FA0E3 		mov	r1, #280
 543 0030 FEFFFFEB 		bl	chThdCreateStatic
 544              	.LVL55:
 545              		.loc 1 112 14 view .LVU121
 546 0034 48309FE5 		ldr	r3, .L28+12
 547 0038 000083E5 		str	r0, [r3]
 548              		.loc 1 113 3 is_stmt 1 view .LVU122
 549              		.loc 1 113 7 is_stmt 0 view .LVU123
 550 003c FEFFFFEB 		bl	msg_loop_test
 551              	.LVL56:
 552 0040 0040A0E1 		mov	r4, r0
 553              	.LVL57:
 554              		.loc 1 114 3 is_stmt 1 view .LVU124
 555 0044 FEFFFFEB 		bl	test_wait_threads
 556              	.LVL58:
 557              		.loc 1 115 3 view .LVU125
 558 0048 38009FE5 		ldr	r0, .L28+16
 559 004c FEFFFFEB 		bl	test_print
 560              	.LVL59:
 561              		.loc 1 116 3 view .LVU126
 562 0050 0400A0E1 		mov	r0, r4
 563 0054 FEFFFFEB 		bl	test_printn
 564              	.LVL60:
 565              		.loc 1 117 3 view .LVU127
 566 0058 2C009FE5 		ldr	r0, .L28+20
 567 005c FEFFFFEB 		bl	test_print
 568              	.LVL61:
 569              		.loc 1 118 3 view .LVU128
 570 0060 8400A0E1 		lsl	r0, r4, #1
 571 0064 FEFFFFEB 		bl	test_printn
 572              	.LVL62:
 573              		.loc 1 119 3 view .LVU129
 574 0068 20009FE5 		ldr	r0, .L28+24
 575              		.loc 1 120 1 is_stmt 0 view .LVU130
 576 006c 08D08DE2 		add	sp, sp, #8
 577              		.cfi_def_cfa_offset 8
 578              		@ sp needed
 579 0070 1040BDE8 		pop	{r4, lr}
 580              		.cfi_restore 14
 581              		.cfi_restore 4
 582              		.cfi_def_cfa_offset 0
 583              	.LVL63:
 584              		.loc 1 119 3 view .LVU131
 585 0074 FEFFFFEA 		b	test_println
 586              	.LVL64:
 587              	.L29:
ARM GAS  /tmp/cc4WGHcr.s 			page 12


 588              		.align	2
 589              	.L28:
 590 0078 00000000 		.word	rlist
 591 007c 00000000 		.word	wa
 592 0080 00000000 		.word	thread1
 593 0084 00000000 		.word	threads
 594 0088 00000000 		.word	.LC11
 595 008c 00000000 		.word	.LC13
 596 0090 0C000000 		.word	.LC14
 597              		.cfi_endproc
 598              	.LFE9:
 599              		.size	bmk1_execute, .-bmk1_execute
 600              		.section	.text.bmk2_execute,"ax",%progbits
 601              		.align	2
 602              		.syntax unified
 603              		.arm
 604              		.fpu softvfp
 605              		.type	bmk2_execute, %function
 606              	bmk2_execute:
 607              	.LFB10:
 608              		.loc 1 138 32 is_stmt 1 view -0
 609              		.cfi_startproc
 610              		@ args = 0, pretend = 0, frame = 0
 611              		@ frame_needed = 0, uses_anonymous_args = 0
 612              		.loc 1 139 3 view .LVU133
 613              		.loc 1 141 3 view .LVU134
 614              		.loc 1 141 16 is_stmt 0 view .LVU135
 615 0000 0010A0E3 		mov	r1, #0
 616              		.loc 1 138 32 view .LVU136
 617 0004 10402DE9 		push	{r4, lr}
 618              		.cfi_def_cfa_offset 8
 619              		.cfi_offset 4, -8
 620              		.cfi_offset 14, -4
 621              		.loc 1 141 50 view .LVU137
 622 0008 68309FE5 		ldr	r3, .L32
 623              		.loc 1 141 16 view .LVU138
 624 000c 68209FE5 		ldr	r2, .L32+4
 625              		.loc 1 141 50 view .LVU139
 626 0010 183093E5 		ldr	r3, [r3, #24]
 627              		.loc 1 141 16 view .LVU140
 628 0014 000092E5 		ldr	r0, [r2]
 629 0018 082093E5 		ldr	r2, [r3, #8]
 630              		.loc 1 138 32 view .LVU141
 631 001c 08D04DE2 		sub	sp, sp, #8
 632              		.cfi_def_cfa_offset 16
 633              		.loc 1 141 16 view .LVU142
 634 0020 012082E2 		add	r2, r2, #1
 635 0024 00108DE5 		str	r1, [sp]
 636 0028 50309FE5 		ldr	r3, .L32+8
 637 002c 461FA0E3 		mov	r1, #280
 638 0030 FEFFFFEB 		bl	chThdCreateStatic
 639              	.LVL65:
 640              		.loc 1 141 14 view .LVU143
 641 0034 48309FE5 		ldr	r3, .L32+12
 642 0038 000083E5 		str	r0, [r3]
 643              		.loc 1 142 3 is_stmt 1 view .LVU144
 644              		.loc 1 142 7 is_stmt 0 view .LVU145
ARM GAS  /tmp/cc4WGHcr.s 			page 13


 645 003c FEFFFFEB 		bl	msg_loop_test
 646              	.LVL66:
 647 0040 0040A0E1 		mov	r4, r0
 648              	.LVL67:
 649              		.loc 1 143 3 is_stmt 1 view .LVU146
 650 0044 FEFFFFEB 		bl	test_wait_threads
 651              	.LVL68:
 652              		.loc 1 144 3 view .LVU147
 653 0048 38009FE5 		ldr	r0, .L32+16
 654 004c FEFFFFEB 		bl	test_print
 655              	.LVL69:
 656              		.loc 1 145 3 view .LVU148
 657 0050 0400A0E1 		mov	r0, r4
 658 0054 FEFFFFEB 		bl	test_printn
 659              	.LVL70:
 660              		.loc 1 146 3 view .LVU149
 661 0058 2C009FE5 		ldr	r0, .L32+20
 662 005c FEFFFFEB 		bl	test_print
 663              	.LVL71:
 664              		.loc 1 147 3 view .LVU150
 665 0060 8400A0E1 		lsl	r0, r4, #1
 666 0064 FEFFFFEB 		bl	test_printn
 667              	.LVL72:
 668              		.loc 1 148 3 view .LVU151
 669 0068 20009FE5 		ldr	r0, .L32+24
 670              		.loc 1 149 1 is_stmt 0 view .LVU152
 671 006c 08D08DE2 		add	sp, sp, #8
 672              		.cfi_def_cfa_offset 8
 673              		@ sp needed
 674 0070 1040BDE8 		pop	{r4, lr}
 675              		.cfi_restore 14
 676              		.cfi_restore 4
 677              		.cfi_def_cfa_offset 0
 678              	.LVL73:
 679              		.loc 1 148 3 view .LVU153
 680 0074 FEFFFFEA 		b	test_println
 681              	.LVL74:
 682              	.L33:
 683              		.align	2
 684              	.L32:
 685 0078 00000000 		.word	rlist
 686 007c 00000000 		.word	wa
 687 0080 00000000 		.word	thread1
 688 0084 00000000 		.word	threads
 689 0088 00000000 		.word	.LC11
 690 008c 00000000 		.word	.LC13
 691 0090 0C000000 		.word	.LC14
 692              		.cfi_endproc
 693              	.LFE10:
 694              		.size	bmk2_execute, .-bmk2_execute
 695              		.section	.text.bmk3_execute,"ax",%progbits
 696              		.align	2
 697              		.syntax unified
 698              		.arm
 699              		.fpu softvfp
 700              		.type	bmk3_execute, %function
 701              	bmk3_execute:
ARM GAS  /tmp/cc4WGHcr.s 			page 14


 702              	.LFB12:
 703              		.loc 1 173 32 is_stmt 1 view -0
 704              		.cfi_startproc
 705              		@ args = 0, pretend = 0, frame = 0
 706              		@ frame_needed = 0, uses_anonymous_args = 0
 707              		.loc 1 174 3 view .LVU155
 708              		.loc 1 176 3 view .LVU156
 709              		.loc 1 173 32 is_stmt 0 view .LVU157
 710 0000 F0412DE9 		push	{r4, r5, r6, r7, r8, lr}
 711              		.cfi_def_cfa_offset 24
 712              		.cfi_offset 4, -24
 713              		.cfi_offset 5, -20
 714              		.cfi_offset 6, -16
 715              		.cfi_offset 7, -12
 716              		.cfi_offset 8, -8
 717              		.cfi_offset 14, -4
 718              		.loc 1 176 16 view .LVU158
 719 0004 0050A0E3 		mov	r5, #0
 720              		.loc 1 176 50 view .LVU159
 721 0008 14719FE5 		ldr	r7, .L36
 722              		.loc 1 176 16 view .LVU160
 723 000c 14619FE5 		ldr	r6, .L36+4
 724              		.loc 1 176 50 view .LVU161
 725 0010 183097E5 		ldr	r3, [r7, #24]
 726              		.loc 1 173 32 view .LVU162
 727 0014 08D04DE2 		sub	sp, sp, #8
 728              		.cfi_def_cfa_offset 32
 729              		.loc 1 176 16 view .LVU163
 730 0018 082093E5 		ldr	r2, [r3, #8]
 731 001c 461FA0E3 		mov	r1, #280
 732 0020 000096E5 		ldr	r0, [r6]
 733 0024 00319FE5 		ldr	r3, .L36+8
 734 0028 012082E2 		add	r2, r2, #1
 735 002c 00508DE5 		str	r5, [sp]
 736 0030 FEFFFFEB 		bl	chThdCreateStatic
 737              	.LVL75:
 738 0034 00C0A0E1 		mov	ip, r0
 739              		.loc 1 177 50 view .LVU164
 740 0038 183097E5 		ldr	r3, [r7, #24]
 741              		.loc 1 176 14 view .LVU165
 742 003c EC409FE5 		ldr	r4, .L36+12
 743              		.loc 1 177 16 view .LVU166
 744 0040 EC809FE5 		ldr	r8, .L36+16
 745 0044 082093E5 		ldr	r2, [r3, #8]
 746 0048 461FA0E3 		mov	r1, #280
 747 004c 0830A0E1 		mov	r3, r8
 748 0050 00508DE5 		str	r5, [sp]
 749 0054 040096E5 		ldr	r0, [r6, #4]
 750              		.loc 1 176 14 view .LVU167
 751 0058 00C084E5 		str	ip, [r4]
 752              		.loc 1 177 3 is_stmt 1 view .LVU168
 753              		.loc 1 177 16 is_stmt 0 view .LVU169
 754 005c 022042E2 		sub	r2, r2, #2
 755 0060 FEFFFFEB 		bl	chThdCreateStatic
 756              	.LVL76:
 757 0064 00C0A0E1 		mov	ip, r0
 758              		.loc 1 178 50 view .LVU170
ARM GAS  /tmp/cc4WGHcr.s 			page 15


 759 0068 182097E5 		ldr	r2, [r7, #24]
 760              		.loc 1 178 16 view .LVU171
 761 006c 0830A0E1 		mov	r3, r8
 762 0070 082092E5 		ldr	r2, [r2, #8]
 763 0074 461FA0E3 		mov	r1, #280
 764 0078 00508DE5 		str	r5, [sp]
 765 007c 080096E5 		ldr	r0, [r6, #8]
 766              		.loc 1 177 14 view .LVU172
 767 0080 04C084E5 		str	ip, [r4, #4]
 768              		.loc 1 178 3 is_stmt 1 view .LVU173
 769              		.loc 1 178 16 is_stmt 0 view .LVU174
 770 0084 032042E2 		sub	r2, r2, #3
 771 0088 FEFFFFEB 		bl	chThdCreateStatic
 772              	.LVL77:
 773 008c 00C0A0E1 		mov	ip, r0
 774              		.loc 1 179 50 view .LVU175
 775 0090 182097E5 		ldr	r2, [r7, #24]
 776              		.loc 1 179 16 view .LVU176
 777 0094 0830A0E1 		mov	r3, r8
 778 0098 082092E5 		ldr	r2, [r2, #8]
 779 009c 461FA0E3 		mov	r1, #280
 780 00a0 00508DE5 		str	r5, [sp]
 781 00a4 0C0096E5 		ldr	r0, [r6, #12]
 782              		.loc 1 178 14 view .LVU177
 783 00a8 08C084E5 		str	ip, [r4, #8]
 784              		.loc 1 179 3 is_stmt 1 view .LVU178
 785              		.loc 1 179 16 is_stmt 0 view .LVU179
 786 00ac 042042E2 		sub	r2, r2, #4
 787 00b0 FEFFFFEB 		bl	chThdCreateStatic
 788              	.LVL78:
 789 00b4 00C0A0E1 		mov	ip, r0
 790              		.loc 1 180 50 view .LVU180
 791 00b8 182097E5 		ldr	r2, [r7, #24]
 792              		.loc 1 180 16 view .LVU181
 793 00bc 461FA0E3 		mov	r1, #280
 794 00c0 082092E5 		ldr	r2, [r2, #8]
 795 00c4 0830A0E1 		mov	r3, r8
 796 00c8 052042E2 		sub	r2, r2, #5
 797 00cc 00508DE5 		str	r5, [sp]
 798 00d0 100096E5 		ldr	r0, [r6, #16]
 799              		.loc 1 179 14 view .LVU182
 800 00d4 0CC084E5 		str	ip, [r4, #12]
 801              		.loc 1 180 3 is_stmt 1 view .LVU183
 802              		.loc 1 180 16 is_stmt 0 view .LVU184
 803 00d8 FEFFFFEB 		bl	chThdCreateStatic
 804              	.LVL79:
 805 00dc 0030A0E1 		mov	r3, r0
 806              		.loc 1 181 7 view .LVU185
 807 00e0 000094E5 		ldr	r0, [r4]
 808              		.loc 1 180 14 view .LVU186
 809 00e4 103084E5 		str	r3, [r4, #16]
 810              		.loc 1 181 3 is_stmt 1 view .LVU187
 811              		.loc 1 181 7 is_stmt 0 view .LVU188
 812 00e8 FEFFFFEB 		bl	msg_loop_test
 813              	.LVL80:
 814 00ec 0040A0E1 		mov	r4, r0
 815              	.LVL81:
ARM GAS  /tmp/cc4WGHcr.s 			page 16


 816              		.loc 1 182 3 is_stmt 1 view .LVU189
 817 00f0 FEFFFFEB 		bl	test_wait_threads
 818              	.LVL82:
 819              		.loc 1 183 3 view .LVU190
 820 00f4 3C009FE5 		ldr	r0, .L36+20
 821 00f8 FEFFFFEB 		bl	test_print
 822              	.LVL83:
 823              		.loc 1 184 3 view .LVU191
 824 00fc 0400A0E1 		mov	r0, r4
 825 0100 FEFFFFEB 		bl	test_printn
 826              	.LVL84:
 827              		.loc 1 185 3 view .LVU192
 828 0104 30009FE5 		ldr	r0, .L36+24
 829 0108 FEFFFFEB 		bl	test_print
 830              	.LVL85:
 831              		.loc 1 186 3 view .LVU193
 832 010c 8400A0E1 		lsl	r0, r4, #1
 833 0110 FEFFFFEB 		bl	test_printn
 834              	.LVL86:
 835              		.loc 1 187 3 view .LVU194
 836 0114 24009FE5 		ldr	r0, .L36+28
 837              		.loc 1 188 1 is_stmt 0 view .LVU195
 838 0118 08D08DE2 		add	sp, sp, #8
 839              		.cfi_def_cfa_offset 24
 840              		@ sp needed
 841 011c F041BDE8 		pop	{r4, r5, r6, r7, r8, lr}
 842              		.cfi_restore 14
 843              		.cfi_restore 8
 844              		.cfi_restore 7
 845              		.cfi_restore 6
 846              		.cfi_restore 5
 847              		.cfi_restore 4
 848              		.cfi_def_cfa_offset 0
 849              	.LVL87:
 850              		.loc 1 187 3 view .LVU196
 851 0120 FEFFFFEA 		b	test_println
 852              	.LVL88:
 853              	.L37:
 854              		.align	2
 855              	.L36:
 856 0124 00000000 		.word	rlist
 857 0128 00000000 		.word	wa
 858 012c 00000000 		.word	thread1
 859 0130 00000000 		.word	threads
 860 0134 00000000 		.word	thread2
 861 0138 00000000 		.word	.LC11
 862 013c 00000000 		.word	.LC13
 863 0140 0C000000 		.word	.LC14
 864              		.cfi_endproc
 865              	.LFE12:
 866              		.size	bmk3_execute, .-bmk3_execute
 867              		.section	.text.thread4,"ax",%progbits
 868              		.align	2
 869              		.global	thread4
 870              		.syntax unified
 871              		.arm
 872              		.fpu softvfp
ARM GAS  /tmp/cc4WGHcr.s 			page 17


 873              		.type	thread4, %function
 874              	thread4:
 875              	.LVL89:
 876              	.LFB13:
 877              		.loc 1 207 24 is_stmt 1 view -0
 878              		.cfi_startproc
 879              		@ args = 0, pretend = 0, frame = 0
 880              		@ frame_needed = 0, uses_anonymous_args = 0
 881              		.loc 1 208 3 view .LVU198
 882              		.loc 1 209 3 view .LVU199
 883              		.loc 1 209 11 is_stmt 0 view .LVU200
 884 0000 28309FE5 		ldr	r3, .L43
 885              		.loc 1 207 24 view .LVU201
 886 0004 10402DE9 		push	{r4, lr}
 887              		.cfi_def_cfa_offset 8
 888              		.cfi_offset 4, -8
 889              		.cfi_offset 14, -4
 890              		.loc 1 209 11 view .LVU202
 891 0008 184093E5 		ldr	r4, [r3, #24]
 892              	.LVL90:
 893              		.loc 1 211 3 is_stmt 1 view .LVU203
 894              		.loc 1 212 3 view .LVU204
 895              		.syntax divided
 896              	@ 212 "../test/testbmk.c" 1
 897 000c 9FF021E3 		msr     CPSR_c, #0x9F
 898              	@ 0 "" 2
 899              	.LVL91:
 900              		.arm
 901              		.syntax unified
 902              	.L39:
 903              		.loc 1 212 3 discriminator 1 view .LVU205
 904              		.loc 1 212 14 discriminator 1 view .LVU206
 905              		.loc 1 213 3 discriminator 1 view .LVU207
 906              		.loc 1 214 5 discriminator 1 view .LVU208
 907 0010 0200A0E3 		mov	r0, #2
 908 0014 FEFFFFEB 		bl	chSchGoSleepS
 909              	.LVL92:
 910              		.loc 1 215 5 discriminator 1 view .LVU209
 911              		.loc 1 216 11 discriminator 1 view .LVU210
 912              		.loc 1 216 3 is_stmt 0 discriminator 1 view .LVU211
 913 0018 243094E5 		ldr	r3, [r4, #36]
 914 001c 000053E3 		cmp	r3, #0
 915 0020 FAFFFF0A 		beq	.L39
 916              		.loc 1 217 3 is_stmt 1 view .LVU212
 917              		.loc 1 217 3 view .LVU213
 918              		.syntax divided
 919              	@ 217 "../test/testbmk.c" 1
 920 0024 1FF021E3 		msr     CPSR_c, #0x1F
 921              	@ 0 "" 2
 922              		.loc 1 217 16 view .LVU214
 923              		.loc 1 218 3 view .LVU215
 924              		.loc 1 219 1 is_stmt 0 view .LVU216
 925              		.arm
 926              		.syntax unified
 927 0028 0000A0E3 		mov	r0, #0
 928 002c 1080BDE8 		pop	{r4, pc}
 929              	.L44:
ARM GAS  /tmp/cc4WGHcr.s 			page 18


 930              		.align	2
 931              	.L43:
 932 0030 00000000 		.word	rlist
 933              		.cfi_endproc
 934              	.LFE13:
 935              		.size	thread4, .-thread4
 936              		.section	.text.bmk4_execute,"ax",%progbits
 937              		.align	2
 938              		.syntax unified
 939              		.arm
 940              		.fpu softvfp
 941              		.type	bmk4_execute, %function
 942              	bmk4_execute:
 943              	.LFB14:
 944              		.loc 1 221 32 is_stmt 1 view -0
 945              		.cfi_startproc
 946              		@ args = 0, pretend = 0, frame = 0
 947              		@ frame_needed = 0, uses_anonymous_args = 0
 948              		.loc 1 222 3 view .LVU218
 949              		.loc 1 223 3 view .LVU219
 950              		.loc 1 225 3 view .LVU220
 951              		.loc 1 221 32 is_stmt 0 view .LVU221
 952 0000 70402DE9 		push	{r4, r5, r6, lr}
 953              		.cfi_def_cfa_offset 16
 954              		.cfi_offset 4, -16
 955              		.cfi_offset 5, -12
 956              		.cfi_offset 6, -8
 957              		.cfi_offset 14, -4
 958              		.loc 1 225 21 view .LVU222
 959 0004 0050A0E3 		mov	r5, #0
 960              		.loc 1 225 55 view .LVU223
 961 0008 C0309FE5 		ldr	r3, .L50
 962              		.loc 1 225 21 view .LVU224
 963 000c C0209FE5 		ldr	r2, .L50+4
 964              		.loc 1 225 55 view .LVU225
 965 0010 183093E5 		ldr	r3, [r3, #24]
 966              		.loc 1 225 21 view .LVU226
 967 0014 000092E5 		ldr	r0, [r2]
 968 0018 082093E5 		ldr	r2, [r3, #8]
 969              		.loc 1 221 32 view .LVU227
 970 001c 08D04DE2 		sub	sp, sp, #8
 971              		.cfi_def_cfa_offset 24
 972              		.loc 1 225 21 view .LVU228
 973 0020 461FA0E3 		mov	r1, #280
 974 0024 012082E2 		add	r2, r2, #1
 975 0028 A8309FE5 		ldr	r3, .L50+8
 976 002c 00508DE5 		str	r5, [sp]
 977 0030 FEFFFFEB 		bl	chThdCreateStatic
 978              	.LVL93:
 979              		.loc 1 225 19 view .LVU229
 980 0034 A0309FE5 		ldr	r3, .L50+12
 981              		.loc 1 225 21 view .LVU230
 982 0038 0040A0E1 		mov	r4, r0
 983              		.loc 1 225 19 view .LVU231
 984 003c 000083E5 		str	r0, [r3]
 985              	.LVL94:
 986              		.loc 1 226 3 is_stmt 1 view .LVU232
ARM GAS  /tmp/cc4WGHcr.s 			page 19


 987              		.loc 1 227 3 view .LVU233
 988 0040 FEFFFFEB 		bl	test_wait_tick
 989              	.LVL95:
 990              		.loc 1 228 3 view .LVU234
 991 0044 FA0FA0E3 		mov	r0, #1000
 992 0048 FEFFFFEB 		bl	test_start_timer
 993              	.LVL96:
 994 004c 8C609FE5 		ldr	r6, .L50+16
 995              	.LVL97:
 996              	.L46:
 997              		.loc 1 229 3 discriminator 1 view .LVU235
 998              		.loc 1 230 5 discriminator 1 view .LVU236
 999              		.syntax divided
 1000              	@ 230 "../test/testbmk.c" 1
 1001 0050 9FF021E3 		msr     CPSR_c, #0x9F
 1002              	@ 0 "" 2
 1003              		.loc 1 230 5 discriminator 1 view .LVU237
 1004              		.loc 1 230 16 discriminator 1 view .LVU238
 1005              		.loc 1 231 5 discriminator 1 view .LVU239
 1006              		.arm
 1007              		.syntax unified
 1008 0054 0010A0E3 		mov	r1, #0
 1009 0058 0400A0E1 		mov	r0, r4
 1010 005c FEFFFFEB 		bl	chSchWakeupS
 1011              	.LVL98:
 1012              		.loc 1 232 5 discriminator 1 view .LVU240
 1013 0060 0400A0E1 		mov	r0, r4
 1014 0064 0010A0E3 		mov	r1, #0
 1015 0068 FEFFFFEB 		bl	chSchWakeupS
 1016              	.LVL99:
 1017              		.loc 1 233 5 discriminator 1 view .LVU241
 1018 006c 0400A0E1 		mov	r0, r4
 1019 0070 0010A0E3 		mov	r1, #0
 1020 0074 FEFFFFEB 		bl	chSchWakeupS
 1021              	.LVL100:
 1022              		.loc 1 234 5 discriminator 1 view .LVU242
 1023 0078 0400A0E1 		mov	r0, r4
 1024 007c 0010A0E3 		mov	r1, #0
 1025 0080 FEFFFFEB 		bl	chSchWakeupS
 1026              	.LVL101:
 1027              		.loc 1 235 5 discriminator 1 view .LVU243
 1028              		.loc 1 235 5 discriminator 1 view .LVU244
 1029              		.syntax divided
 1030              	@ 235 "../test/testbmk.c" 1
 1031 0084 1FF021E3 		msr     CPSR_c, #0x1F
 1032              	@ 0 "" 2
 1033              		.loc 1 235 18 discriminator 1 view .LVU245
 1034              		.loc 1 236 5 discriminator 1 view .LVU246
 1035              		.loc 1 240 3 is_stmt 0 discriminator 1 view .LVU247
 1036              		.arm
 1037              		.syntax unified
 1038 0088 003096E5 		ldr	r3, [r6]
 1039              		.loc 1 236 7 discriminator 1 view .LVU248
 1040 008c 045085E2 		add	r5, r5, #4
 1041              	.LVL102:
 1042              		.loc 1 240 11 is_stmt 1 discriminator 1 view .LVU249
 1043              		.loc 1 240 3 is_stmt 0 discriminator 1 view .LVU250
ARM GAS  /tmp/cc4WGHcr.s 			page 20


 1044 0090 000053E3 		cmp	r3, #0
 1045 0094 EDFFFF0A 		beq	.L46
 1046              		.loc 1 241 3 is_stmt 1 view .LVU251
 1047              		.syntax divided
 1048              	@ 241 "../test/testbmk.c" 1
 1049 0098 9FF021E3 		msr     CPSR_c, #0x9F
 1050              	@ 0 "" 2
 1051              		.loc 1 241 3 view .LVU252
 1052              		.loc 1 241 14 view .LVU253
 1053              		.loc 1 242 3 view .LVU254
 1054              		.arm
 1055              		.syntax unified
 1056 009c 0010E0E3 		mvn	r1, #0
 1057 00a0 0400A0E1 		mov	r0, r4
 1058 00a4 FEFFFFEB 		bl	chSchWakeupS
 1059              	.LVL103:
 1060              		.loc 1 243 3 view .LVU255
 1061              		.loc 1 243 3 view .LVU256
 1062              		.syntax divided
 1063              	@ 243 "../test/testbmk.c" 1
 1064 00a8 1FF021E3 		msr     CPSR_c, #0x1F
 1065              	@ 0 "" 2
 1066              		.loc 1 243 16 view .LVU257
 1067              		.loc 1 245 3 view .LVU258
 1068              		.arm
 1069              		.syntax unified
 1070 00ac FEFFFFEB 		bl	test_wait_threads
 1071              	.LVL104:
 1072              		.loc 1 246 3 view .LVU259
 1073 00b0 2C009FE5 		ldr	r0, .L50+20
 1074 00b4 FEFFFFEB 		bl	test_print
 1075              	.LVL105:
 1076              		.loc 1 247 3 view .LVU260
 1077 00b8 8500A0E1 		lsl	r0, r5, #1
 1078 00bc FEFFFFEB 		bl	test_printn
 1079              	.LVL106:
 1080              		.loc 1 248 3 view .LVU261
 1081 00c0 20009FE5 		ldr	r0, .L50+24
 1082              		.loc 1 249 1 is_stmt 0 view .LVU262
 1083 00c4 08D08DE2 		add	sp, sp, #8
 1084              		.cfi_def_cfa_offset 16
 1085              		@ sp needed
 1086 00c8 7040BDE8 		pop	{r4, r5, r6, lr}
 1087              		.cfi_restore 14
 1088              		.cfi_restore 6
 1089              		.cfi_restore 5
 1090              		.cfi_restore 4
 1091              		.cfi_def_cfa_offset 0
 1092              	.LVL107:
 1093              		.loc 1 248 3 view .LVU263
 1094 00cc FEFFFFEA 		b	test_println
 1095              	.LVL108:
 1096              	.L51:
 1097              		.align	2
 1098              	.L50:
 1099 00d0 00000000 		.word	rlist
 1100 00d4 00000000 		.word	wa
ARM GAS  /tmp/cc4WGHcr.s 			page 21


 1101 00d8 00000000 		.word	thread4
 1102 00dc 00000000 		.word	threads
 1103 00e0 00000000 		.word	test_timer_done
 1104 00e4 00000000 		.word	.LC11
 1105 00e8 0C000000 		.word	.LC14
 1106              		.cfi_endproc
 1107              	.LFE14:
 1108              		.size	bmk4_execute, .-bmk4_execute
 1109              		.section	.text.bmk5_execute,"ax",%progbits
 1110              		.align	2
 1111              		.syntax unified
 1112              		.arm
 1113              		.fpu softvfp
 1114              		.type	bmk5_execute, %function
 1115              	bmk5_execute:
 1116              	.LFB15:
 1117              		.loc 1 269 32 is_stmt 1 view -0
 1118              		.cfi_startproc
 1119              		@ args = 0, pretend = 0, frame = 0
 1120              		@ frame_needed = 0, uses_anonymous_args = 0
 1121              		.loc 1 271 3 view .LVU265
 1122              	.LVL109:
 1123              		.loc 1 272 3 view .LVU266
 1124              		.loc 1 269 32 is_stmt 0 view .LVU267
 1125 0000 F0432DE9 		push	{r4, r5, r6, r7, r8, r9, lr}
 1126              		.cfi_def_cfa_offset 28
 1127              		.cfi_offset 4, -28
 1128              		.cfi_offset 5, -24
 1129              		.cfi_offset 6, -20
 1130              		.cfi_offset 7, -16
 1131              		.cfi_offset 8, -12
 1132              		.cfi_offset 9, -8
 1133              		.cfi_offset 14, -4
 1134              		.loc 1 271 12 view .LVU268
 1135 0004 0040A0E3 		mov	r4, #0
 1136              		.loc 1 273 18 view .LVU269
 1137 0008 78309FE5 		ldr	r3, .L57
 1138              		.loc 1 272 9 view .LVU270
 1139 000c 78209FE5 		ldr	r2, .L57+4
 1140              		.loc 1 273 18 view .LVU271
 1141 0010 183093E5 		ldr	r3, [r3, #24]
 1142              		.loc 1 269 32 view .LVU272
 1143 0014 0CD04DE2 		sub	sp, sp, #12
 1144              		.cfi_def_cfa_offset 40
 1145              		.loc 1 273 11 view .LVU273
 1146 0018 085093E5 		ldr	r5, [r3, #8]
 1147              		.loc 1 272 9 view .LVU274
 1148 001c 009092E5 		ldr	r9, [r2]
 1149              	.LVL110:
 1150              		.loc 1 273 3 is_stmt 1 view .LVU275
 1151              		.loc 1 274 3 is_stmt 0 view .LVU276
 1152 0020 FEFFFFEB 		bl	test_wait_tick
 1153              	.LVL111:
 1154              		.loc 1 275 3 view .LVU277
 1155 0024 FA0FA0E3 		mov	r0, #1000
 1156              		.loc 1 277 5 view .LVU278
 1157 0028 0480A0E1 		mov	r8, r4
ARM GAS  /tmp/cc4WGHcr.s 			page 22


 1158              		.loc 1 275 3 view .LVU279
 1159 002c FEFFFFEB 		bl	test_start_timer
 1160              	.LVL112:
 1161 0030 58709FE5 		ldr	r7, .L57+8
 1162              		.loc 1 277 5 view .LVU280
 1163 0034 58609FE5 		ldr	r6, .L57+12
 1164              		.loc 1 273 11 view .LVU281
 1165 0038 015045E2 		sub	r5, r5, #1
 1166              	.LVL113:
 1167              		.loc 1 274 3 is_stmt 1 view .LVU282
 1168              		.loc 1 275 3 view .LVU283
 1169              	.L53:
 1170              		.loc 1 276 3 discriminator 1 view .LVU284
 1171              		.loc 1 277 5 discriminator 1 view .LVU285
 1172 003c 0520A0E1 		mov	r2, r5
 1173 0040 0630A0E1 		mov	r3, r6
 1174 0044 461FA0E3 		mov	r1, #280
 1175 0048 0900A0E1 		mov	r0, r9
 1176 004c 00808DE5 		str	r8, [sp]
 1177 0050 FEFFFFEB 		bl	chThdCreateStatic
 1178              	.LVL114:
 1179 0054 FEFFFFEB 		bl	chThdWait
 1180              	.LVL115:
 1181              		.loc 1 278 5 discriminator 1 view .LVU286
 1182              		.loc 1 282 3 is_stmt 0 discriminator 1 view .LVU287
 1183 0058 002097E5 		ldr	r2, [r7]
 1184              		.loc 1 278 6 discriminator 1 view .LVU288
 1185 005c 014084E2 		add	r4, r4, #1
 1186              	.LVL116:
 1187              		.loc 1 282 11 is_stmt 1 discriminator 1 view .LVU289
 1188              		.loc 1 282 3 is_stmt 0 discriminator 1 view .LVU290
 1189 0060 000052E3 		cmp	r2, #0
 1190 0064 F4FFFF0A 		beq	.L53
 1191              		.loc 1 283 3 is_stmt 1 view .LVU291
 1192 0068 28009FE5 		ldr	r0, .L57+16
 1193 006c FEFFFFEB 		bl	test_print
 1194              	.LVL117:
 1195              		.loc 1 284 3 view .LVU292
 1196 0070 0400A0E1 		mov	r0, r4
 1197 0074 FEFFFFEB 		bl	test_printn
 1198              	.LVL118:
 1199              		.loc 1 285 3 view .LVU293
 1200 0078 1C009FE5 		ldr	r0, .L57+20
 1201              		.loc 1 286 1 is_stmt 0 view .LVU294
 1202 007c 0CD08DE2 		add	sp, sp, #12
 1203              		.cfi_def_cfa_offset 28
 1204              		@ sp needed
 1205 0080 F043BDE8 		pop	{r4, r5, r6, r7, r8, r9, lr}
 1206              		.cfi_restore 14
 1207              		.cfi_restore 9
 1208              		.cfi_restore 8
 1209              		.cfi_restore 7
 1210              		.cfi_restore 6
 1211              		.cfi_restore 5
 1212              		.cfi_restore 4
 1213              		.cfi_def_cfa_offset 0
 1214              	.LVL119:
ARM GAS  /tmp/cc4WGHcr.s 			page 23


 1215              		.loc 1 285 3 view .LVU295
 1216 0084 FEFFFFEA 		b	test_println
 1217              	.LVL120:
 1218              	.L58:
 1219              		.align	2
 1220              	.L57:
 1221 0088 00000000 		.word	rlist
 1222 008c 00000000 		.word	wa
 1223 0090 00000000 		.word	test_timer_done
 1224 0094 00000000 		.word	thread2
 1225 0098 00000000 		.word	.LC11
 1226 009c 10000000 		.word	.LC12
 1227              		.cfi_endproc
 1228              	.LFE15:
 1229              		.size	bmk5_execute, .-bmk5_execute
 1230              		.section	.rodata.bmk7_execute.str1.4,"aMS",%progbits,1
 1231              		.align	2
 1232              	.LC15:
 1233 0000 20726573 		.ascii	" reschedules/S, \000"
 1233      63686564 
 1233      756C6573 
 1233      2F532C20 
 1233      00
 1234              		.section	.text.bmk7_execute,"ax",%progbits
 1235              		.align	2
 1236              		.syntax unified
 1237              		.arm
 1238              		.fpu softvfp
 1239              		.type	bmk7_execute, %function
 1240              	bmk7_execute:
 1241              	.LFB19:
 1242              		.loc 1 358 32 is_stmt 1 view -0
 1243              		.cfi_startproc
 1244              		@ args = 0, pretend = 0, frame = 0
 1245              		@ frame_needed = 0, uses_anonymous_args = 0
 1246              		.loc 1 359 3 view .LVU297
 1247              		.loc 1 361 3 view .LVU298
 1248              		.loc 1 358 32 is_stmt 0 view .LVU299
 1249 0000 F0402DE9 		push	{r4, r5, r6, r7, lr}
 1250              		.cfi_def_cfa_offset 20
 1251              		.cfi_offset 4, -20
 1252              		.cfi_offset 5, -16
 1253              		.cfi_offset 6, -12
 1254              		.cfi_offset 7, -8
 1255              		.cfi_offset 14, -4
 1256              		.loc 1 361 16 view .LVU300
 1257 0004 0040A0E3 		mov	r4, #0
 1258              		.loc 1 361 50 view .LVU301
 1259 0008 44719FE5 		ldr	r7, .L64
 1260              		.loc 1 361 16 view .LVU302
 1261 000c 44619FE5 		ldr	r6, .L64+4
 1262              		.loc 1 361 50 view .LVU303
 1263 0010 183097E5 		ldr	r3, [r7, #24]
 1264              		.loc 1 358 32 view .LVU304
 1265 0014 0CD04DE2 		sub	sp, sp, #12
 1266              		.cfi_def_cfa_offset 32
 1267              		.loc 1 361 16 view .LVU305
ARM GAS  /tmp/cc4WGHcr.s 			page 24


 1268 0018 082093E5 		ldr	r2, [r3, #8]
 1269 001c 461FA0E3 		mov	r1, #280
 1270 0020 000096E5 		ldr	r0, [r6]
 1271 0024 30319FE5 		ldr	r3, .L64+8
 1272 0028 052082E2 		add	r2, r2, #5
 1273 002c 00408DE5 		str	r4, [sp]
 1274 0030 FEFFFFEB 		bl	chThdCreateStatic
 1275              	.LVL121:
 1276 0034 00C0A0E1 		mov	ip, r0
 1277              		.loc 1 362 50 view .LVU306
 1278 0038 183097E5 		ldr	r3, [r7, #24]
 1279              		.loc 1 361 14 view .LVU307
 1280 003c 1C519FE5 		ldr	r5, .L64+12
 1281              		.loc 1 362 16 view .LVU308
 1282 0040 082093E5 		ldr	r2, [r3, #8]
 1283 0044 461FA0E3 		mov	r1, #280
 1284 0048 040096E5 		ldr	r0, [r6, #4]
 1285 004c 08319FE5 		ldr	r3, .L64+8
 1286 0050 042082E2 		add	r2, r2, #4
 1287 0054 00408DE5 		str	r4, [sp]
 1288              		.loc 1 361 14 view .LVU309
 1289 0058 00C085E5 		str	ip, [r5]
 1290              		.loc 1 362 3 is_stmt 1 view .LVU310
 1291              		.loc 1 362 16 is_stmt 0 view .LVU311
 1292 005c FEFFFFEB 		bl	chThdCreateStatic
 1293              	.LVL122:
 1294 0060 00C0A0E1 		mov	ip, r0
 1295              		.loc 1 363 50 view .LVU312
 1296 0064 183097E5 		ldr	r3, [r7, #24]
 1297              		.loc 1 363 16 view .LVU313
 1298 0068 461FA0E3 		mov	r1, #280
 1299 006c 082093E5 		ldr	r2, [r3, #8]
 1300 0070 080096E5 		ldr	r0, [r6, #8]
 1301 0074 E0309FE5 		ldr	r3, .L64+8
 1302 0078 032082E2 		add	r2, r2, #3
 1303 007c 00408DE5 		str	r4, [sp]
 1304              		.loc 1 362 14 view .LVU314
 1305 0080 04C085E5 		str	ip, [r5, #4]
 1306              		.loc 1 363 3 is_stmt 1 view .LVU315
 1307              		.loc 1 363 16 is_stmt 0 view .LVU316
 1308 0084 FEFFFFEB 		bl	chThdCreateStatic
 1309              	.LVL123:
 1310 0088 00C0A0E1 		mov	ip, r0
 1311              		.loc 1 364 50 view .LVU317
 1312 008c 183097E5 		ldr	r3, [r7, #24]
 1313              		.loc 1 364 16 view .LVU318
 1314 0090 461FA0E3 		mov	r1, #280
 1315 0094 082093E5 		ldr	r2, [r3, #8]
 1316 0098 0C0096E5 		ldr	r0, [r6, #12]
 1317 009c B8309FE5 		ldr	r3, .L64+8
 1318 00a0 022082E2 		add	r2, r2, #2
 1319 00a4 00408DE5 		str	r4, [sp]
 1320              		.loc 1 363 14 view .LVU319
 1321 00a8 08C085E5 		str	ip, [r5, #8]
 1322              		.loc 1 364 3 is_stmt 1 view .LVU320
 1323              		.loc 1 364 16 is_stmt 0 view .LVU321
 1324 00ac FEFFFFEB 		bl	chThdCreateStatic
ARM GAS  /tmp/cc4WGHcr.s 			page 25


 1325              	.LVL124:
 1326 00b0 00C0A0E1 		mov	ip, r0
 1327              		.loc 1 365 50 view .LVU322
 1328 00b4 183097E5 		ldr	r3, [r7, #24]
 1329              		.loc 1 365 16 view .LVU323
 1330 00b8 461FA0E3 		mov	r1, #280
 1331 00bc 082093E5 		ldr	r2, [r3, #8]
 1332 00c0 100096E5 		ldr	r0, [r6, #16]
 1333 00c4 90309FE5 		ldr	r3, .L64+8
 1334 00c8 012082E2 		add	r2, r2, #1
 1335 00cc 00408DE5 		str	r4, [sp]
 1336              		.loc 1 364 14 view .LVU324
 1337 00d0 0CC085E5 		str	ip, [r5, #12]
 1338              		.loc 1 365 3 is_stmt 1 view .LVU325
 1339              		.loc 1 365 16 is_stmt 0 view .LVU326
 1340 00d4 FEFFFFEB 		bl	chThdCreateStatic
 1341              	.LVL125:
 1342              		.loc 1 365 14 view .LVU327
 1343 00d8 100085E5 		str	r0, [r5, #16]
 1344              		.loc 1 367 3 is_stmt 1 view .LVU328
 1345              	.LVL126:
 1346              		.loc 1 368 3 view .LVU329
 1347 00dc FEFFFFEB 		bl	test_wait_tick
 1348              	.LVL127:
 1349              		.loc 1 369 3 view .LVU330
 1350 00e0 FA0FA0E3 		mov	r0, #1000
 1351 00e4 FEFFFFEB 		bl	test_start_timer
 1352              	.LVL128:
 1353 00e8 74609FE5 		ldr	r6, .L64+16
 1354              		.loc 1 371 5 is_stmt 0 view .LVU331
 1355 00ec 74509FE5 		ldr	r5, .L64+20
 1356              	.LVL129:
 1357              	.L60:
 1358              		.loc 1 370 3 is_stmt 1 discriminator 1 view .LVU332
 1359              		.loc 1 371 5 discriminator 1 view .LVU333
 1360 00f0 0010A0E3 		mov	r1, #0
 1361 00f4 0500A0E1 		mov	r0, r5
 1362 00f8 FEFFFFEB 		bl	chSemReset
 1363              	.LVL130:
 1364              		.loc 1 372 5 discriminator 1 view .LVU334
 1365              		.loc 1 376 3 is_stmt 0 discriminator 1 view .LVU335
 1366 00fc 003096E5 		ldr	r3, [r6]
 1367              		.loc 1 372 6 discriminator 1 view .LVU336
 1368 0100 014084E2 		add	r4, r4, #1
 1369              	.LVL131:
 1370              		.loc 1 376 11 is_stmt 1 discriminator 1 view .LVU337
 1371              		.loc 1 376 3 is_stmt 0 discriminator 1 view .LVU338
 1372 0104 000053E3 		cmp	r3, #0
 1373 0108 F8FFFF0A 		beq	.L60
 1374              		.loc 1 377 3 is_stmt 1 view .LVU339
 1375 010c FEFFFFEB 		bl	test_terminate_threads
 1376              	.LVL132:
 1377              		.loc 1 378 3 view .LVU340
 1378 0110 0010A0E3 		mov	r1, #0
 1379 0114 4C009FE5 		ldr	r0, .L64+20
 1380 0118 FEFFFFEB 		bl	chSemReset
 1381              	.LVL133:
ARM GAS  /tmp/cc4WGHcr.s 			page 26


 1382              		.loc 1 379 3 view .LVU341
 1383 011c FEFFFFEB 		bl	test_wait_threads
 1384              	.LVL134:
 1385              		.loc 1 381 3 view .LVU342
 1386 0120 44009FE5 		ldr	r0, .L64+24
 1387 0124 FEFFFFEB 		bl	test_print
 1388              	.LVL135:
 1389              		.loc 1 382 3 view .LVU343
 1390 0128 0400A0E1 		mov	r0, r4
 1391 012c FEFFFFEB 		bl	test_printn
 1392              	.LVL136:
 1393              		.loc 1 383 3 view .LVU344
 1394              		.loc 1 384 3 is_stmt 0 view .LVU345
 1395 0130 844084E0 		add	r4, r4, r4, lsl #1
 1396              	.LVL137:
 1397              		.loc 1 383 3 view .LVU346
 1398 0134 34009FE5 		ldr	r0, .L64+28
 1399 0138 FEFFFFEB 		bl	test_print
 1400              	.LVL138:
 1401              		.loc 1 384 3 is_stmt 1 view .LVU347
 1402 013c 8400A0E1 		lsl	r0, r4, #1
 1403 0140 FEFFFFEB 		bl	test_printn
 1404              	.LVL139:
 1405              		.loc 1 385 3 view .LVU348
 1406 0144 28009FE5 		ldr	r0, .L64+32
 1407              		.loc 1 386 1 is_stmt 0 view .LVU349
 1408 0148 0CD08DE2 		add	sp, sp, #12
 1409              		.cfi_def_cfa_offset 20
 1410              		@ sp needed
 1411 014c F040BDE8 		pop	{r4, r5, r6, r7, lr}
 1412              		.cfi_restore 14
 1413              		.cfi_restore 7
 1414              		.cfi_restore 6
 1415              		.cfi_restore 5
 1416              		.cfi_restore 4
 1417              		.cfi_def_cfa_offset 0
 1418              		.loc 1 385 3 view .LVU350
 1419 0150 FEFFFFEA 		b	test_println
 1420              	.LVL140:
 1421              	.L65:
 1422              		.align	2
 1423              	.L64:
 1424 0154 00000000 		.word	rlist
 1425 0158 00000000 		.word	wa
 1426 015c 00000000 		.word	thread3
 1427 0160 00000000 		.word	threads
 1428 0164 00000000 		.word	test_timer_done
 1429 0168 00000000 		.word	.LANCHOR0
 1430 016c 00000000 		.word	.LC11
 1431 0170 00000000 		.word	.LC15
 1432 0174 0C000000 		.word	.LC14
 1433              		.cfi_endproc
 1434              	.LFE19:
 1435              		.size	bmk7_execute, .-bmk7_execute
 1436              		.section	.text.thread3,"ax",%progbits
 1437              		.align	2
 1438              		.syntax unified
ARM GAS  /tmp/cc4WGHcr.s 			page 27


 1439              		.arm
 1440              		.fpu softvfp
 1441              		.type	thread3, %function
 1442              	thread3:
 1443              	.LVL141:
 1444              	.LFB17:
 1445              		.loc 1 345 31 is_stmt 1 view -0
 1446              		.cfi_startproc
 1447              		@ args = 0, pretend = 0, frame = 0
 1448              		@ frame_needed = 0, uses_anonymous_args = 0
 1449              		.loc 1 347 3 view .LVU352
 1450              		.loc 1 348 3 view .LVU353
 1451              		.loc 1 348 9 view .LVU354
 1452              		.loc 1 345 31 is_stmt 0 view .LVU355
 1453 0000 70402DE9 		push	{r4, r5, r6, lr}
 1454              		.cfi_def_cfa_offset 16
 1455              		.cfi_offset 4, -16
 1456              		.cfi_offset 5, -12
 1457              		.cfi_offset 6, -8
 1458              		.cfi_offset 14, -4
 1459              		.loc 1 348 11 view .LVU356
 1460 0004 30409FE5 		ldr	r4, .L72
 1461 0008 183094E5 		ldr	r3, [r4, #24]
 1462              		.loc 1 348 9 view .LVU357
 1463 000c 1D30D3E5 		ldrb	r3, [r3, #29]	@ zero_extendqisi2
 1464 0010 040013E3 		tst	r3, #4
 1465 0014 0600001A 		bne	.L67
 1466              		.loc 1 349 5 view .LVU358
 1467 0018 20509FE5 		ldr	r5, .L72+4
 1468              	.LVL142:
 1469              	.L68:
 1470              		.loc 1 349 5 is_stmt 1 view .LVU359
 1471 001c 0500A0E1 		mov	r0, r5
 1472 0020 FEFFFFEB 		bl	chSemWait
 1473              	.LVL143:
 1474              		.loc 1 348 9 view .LVU360
 1475              		.loc 1 348 11 is_stmt 0 view .LVU361
 1476 0024 183094E5 		ldr	r3, [r4, #24]
 1477              		.loc 1 348 9 view .LVU362
 1478 0028 1D30D3E5 		ldrb	r3, [r3, #29]	@ zero_extendqisi2
 1479 002c 040013E3 		tst	r3, #4
 1480 0030 F9FFFF0A 		beq	.L68
 1481              	.L67:
 1482              		.loc 1 350 3 is_stmt 1 view .LVU363
 1483              		.loc 1 351 1 is_stmt 0 view .LVU364
 1484 0034 0000A0E3 		mov	r0, #0
 1485 0038 7080BDE8 		pop	{r4, r5, r6, pc}
 1486              	.L73:
 1487              		.align	2
 1488              	.L72:
 1489 003c 00000000 		.word	rlist
 1490 0040 00000000 		.word	.LANCHOR0
 1491              		.cfi_endproc
 1492              	.LFE17:
 1493              		.size	thread3, .-thread3
 1494              		.section	.text.bmk7_setup,"ax",%progbits
 1495              		.align	2
ARM GAS  /tmp/cc4WGHcr.s 			page 28


 1496              		.syntax unified
 1497              		.arm
 1498              		.fpu softvfp
 1499              		.type	bmk7_setup, %function
 1500              	bmk7_setup:
 1501              	.LFB18:
 1502              		.loc 1 353 30 is_stmt 1 view -0
 1503              		.cfi_startproc
 1504              		@ args = 0, pretend = 0, frame = 0
 1505              		@ frame_needed = 0, uses_anonymous_args = 0
 1506              		@ link register save eliminated.
 1507              		.loc 1 355 3 view .LVU366
 1508 0000 0010A0E3 		mov	r1, #0
 1509 0004 00009FE5 		ldr	r0, .L75
 1510 0008 FEFFFFEA 		b	chSemInit
 1511              	.LVL144:
 1512              	.L76:
 1513              		.align	2
 1514              	.L75:
 1515 000c 00000000 		.word	.LANCHOR0
 1516              		.cfi_endproc
 1517              	.LFE18:
 1518              		.size	bmk7_setup, .-bmk7_setup
 1519              		.section	.text.bmk11_setup,"ax",%progbits
 1520              		.align	2
 1521              		.syntax unified
 1522              		.arm
 1523              		.fpu softvfp
 1524              		.type	bmk11_setup, %function
 1525              	bmk11_setup:
 1526              	.LFB25:
 1527              		.loc 1 546 31 view -0
 1528              		.cfi_startproc
 1529              		@ args = 0, pretend = 0, frame = 0
 1530              		@ frame_needed = 0, uses_anonymous_args = 0
 1531              		@ link register save eliminated.
 1532              		.loc 1 548 3 view .LVU368
 1533 0000 0110A0E3 		mov	r1, #1
 1534 0004 00009FE5 		ldr	r0, .L78
 1535 0008 FEFFFFEA 		b	chSemInit
 1536              	.LVL145:
 1537              	.L79:
 1538              		.align	2
 1539              	.L78:
 1540 000c 00000000 		.word	.LANCHOR0
 1541              		.cfi_endproc
 1542              	.LFE25:
 1543              		.size	bmk11_setup, .-bmk11_setup
 1544              		.section	.text.bmk8_execute,"ax",%progbits
 1545              		.align	2
 1546              		.syntax unified
 1547              		.arm
 1548              		.fpu softvfp
 1549              		.type	bmk8_execute, %function
 1550              	bmk8_execute:
 1551              	.LFB21:
 1552              		.loc 1 420 32 view -0
ARM GAS  /tmp/cc4WGHcr.s 			page 29


 1553              		.cfi_startproc
 1554              		@ args = 0, pretend = 0, frame = 8
 1555              		@ frame_needed = 0, uses_anonymous_args = 0
 1556              		.loc 1 421 3 view .LVU370
 1557              		.loc 1 423 3 view .LVU371
 1558              		.loc 1 423 5 is_stmt 0 view .LVU372
 1559 0000 0030A0E3 		mov	r3, #0
 1560              		.loc 1 420 32 view .LVU373
 1561 0004 F0412DE9 		push	{r4, r5, r6, r7, r8, lr}
 1562              		.cfi_def_cfa_offset 24
 1563              		.cfi_offset 4, -24
 1564              		.cfi_offset 5, -20
 1565              		.cfi_offset 6, -16
 1566              		.cfi_offset 7, -12
 1567              		.cfi_offset 8, -8
 1568              		.cfi_offset 14, -4
 1569              		.loc 1 426 50 view .LVU374
 1570 0008 10819FE5 		ldr	r8, .L82
 1571              		.loc 1 420 32 view .LVU375
 1572 000c 10D04DE2 		sub	sp, sp, #16
 1573              		.cfi_def_cfa_offset 40
 1574              		.loc 1 423 5 view .LVU376
 1575 0010 0C308DE5 		str	r3, [sp, #12]
 1576              		.loc 1 424 3 is_stmt 1 view .LVU377
 1577 0014 FEFFFFEB 		bl	test_wait_tick
 1578              	.LVL146:
 1579              		.loc 1 426 3 view .LVU378
 1580              		.loc 1 426 50 is_stmt 0 view .LVU379
 1581 0018 183098E5 		ldr	r3, [r8, #24]
 1582              		.loc 1 426 16 view .LVU380
 1583 001c 00719FE5 		ldr	r7, .L82+4
 1584 0020 00619FE5 		ldr	r6, .L82+8
 1585 0024 082093E5 		ldr	r2, [r3, #8]
 1586 0028 0C508DE2 		add	r5, sp, #12
 1587 002c 0730A0E1 		mov	r3, r7
 1588 0030 461FA0E3 		mov	r1, #280
 1589 0034 000096E5 		ldr	r0, [r6]
 1590 0038 012042E2 		sub	r2, r2, #1
 1591 003c 00508DE5 		str	r5, [sp]
 1592 0040 FEFFFFEB 		bl	chThdCreateStatic
 1593              	.LVL147:
 1594 0044 00C0A0E1 		mov	ip, r0
 1595              		.loc 1 427 50 view .LVU381
 1596 0048 183098E5 		ldr	r3, [r8, #24]
 1597              		.loc 1 426 14 view .LVU382
 1598 004c D8409FE5 		ldr	r4, .L82+12
 1599              		.loc 1 427 16 view .LVU383
 1600 0050 082093E5 		ldr	r2, [r3, #8]
 1601 0054 461FA0E3 		mov	r1, #280
 1602 0058 0730A0E1 		mov	r3, r7
 1603 005c 040096E5 		ldr	r0, [r6, #4]
 1604 0060 012042E2 		sub	r2, r2, #1
 1605 0064 00508DE5 		str	r5, [sp]
 1606              		.loc 1 426 14 view .LVU384
 1607 0068 00C084E5 		str	ip, [r4]
 1608              		.loc 1 427 3 is_stmt 1 view .LVU385
 1609              		.loc 1 427 16 is_stmt 0 view .LVU386
ARM GAS  /tmp/cc4WGHcr.s 			page 30


 1610 006c FEFFFFEB 		bl	chThdCreateStatic
 1611              	.LVL148:
 1612 0070 00C0A0E1 		mov	ip, r0
 1613              		.loc 1 428 50 view .LVU387
 1614 0074 182098E5 		ldr	r2, [r8, #24]
 1615              		.loc 1 428 16 view .LVU388
 1616 0078 0730A0E1 		mov	r3, r7
 1617 007c 082092E5 		ldr	r2, [r2, #8]
 1618 0080 461FA0E3 		mov	r1, #280
 1619 0084 080096E5 		ldr	r0, [r6, #8]
 1620 0088 012042E2 		sub	r2, r2, #1
 1621 008c 00508DE5 		str	r5, [sp]
 1622              		.loc 1 427 14 view .LVU389
 1623 0090 04C084E5 		str	ip, [r4, #4]
 1624              		.loc 1 428 3 is_stmt 1 view .LVU390
 1625              		.loc 1 428 16 is_stmt 0 view .LVU391
 1626 0094 FEFFFFEB 		bl	chThdCreateStatic
 1627              	.LVL149:
 1628 0098 00C0A0E1 		mov	ip, r0
 1629              		.loc 1 429 50 view .LVU392
 1630 009c 182098E5 		ldr	r2, [r8, #24]
 1631              		.loc 1 429 16 view .LVU393
 1632 00a0 0730A0E1 		mov	r3, r7
 1633 00a4 082092E5 		ldr	r2, [r2, #8]
 1634 00a8 461FA0E3 		mov	r1, #280
 1635 00ac 0C0096E5 		ldr	r0, [r6, #12]
 1636 00b0 012042E2 		sub	r2, r2, #1
 1637 00b4 00508DE5 		str	r5, [sp]
 1638              		.loc 1 428 14 view .LVU394
 1639 00b8 08C084E5 		str	ip, [r4, #8]
 1640              		.loc 1 429 3 is_stmt 1 view .LVU395
 1641              		.loc 1 429 16 is_stmt 0 view .LVU396
 1642 00bc FEFFFFEB 		bl	chThdCreateStatic
 1643              	.LVL150:
 1644 00c0 00C0A0E1 		mov	ip, r0
 1645              		.loc 1 430 50 view .LVU397
 1646 00c4 182098E5 		ldr	r2, [r8, #24]
 1647              		.loc 1 430 16 view .LVU398
 1648 00c8 461FA0E3 		mov	r1, #280
 1649 00cc 082092E5 		ldr	r2, [r2, #8]
 1650 00d0 0730A0E1 		mov	r3, r7
 1651 00d4 012042E2 		sub	r2, r2, #1
 1652 00d8 100096E5 		ldr	r0, [r6, #16]
 1653 00dc 00508DE5 		str	r5, [sp]
 1654              		.loc 1 429 14 view .LVU399
 1655 00e0 0CC084E5 		str	ip, [r4, #12]
 1656              		.loc 1 430 3 is_stmt 1 view .LVU400
 1657              		.loc 1 430 16 is_stmt 0 view .LVU401
 1658 00e4 FEFFFFEB 		bl	chThdCreateStatic
 1659              	.LVL151:
 1660 00e8 0030A0E1 		mov	r3, r0
 1661              		.loc 1 432 3 view .LVU402
 1662 00ec FA0FA0E3 		mov	r0, #1000
 1663              		.loc 1 430 14 view .LVU403
 1664 00f0 103084E5 		str	r3, [r4, #16]
 1665              		.loc 1 432 3 is_stmt 1 view .LVU404
 1666 00f4 FEFFFFEB 		bl	chThdSleep
ARM GAS  /tmp/cc4WGHcr.s 			page 31


 1667              	.LVL152:
 1668              		.loc 1 433 3 view .LVU405
 1669 00f8 FEFFFFEB 		bl	test_terminate_threads
 1670              	.LVL153:
 1671              		.loc 1 434 3 view .LVU406
 1672 00fc FEFFFFEB 		bl	test_wait_threads
 1673              	.LVL154:
 1674              		.loc 1 436 3 view .LVU407
 1675 0100 28009FE5 		ldr	r0, .L82+16
 1676 0104 FEFFFFEB 		bl	test_print
 1677              	.LVL155:
 1678              		.loc 1 437 3 view .LVU408
 1679 0108 0C009DE5 		ldr	r0, [sp, #12]
 1680 010c FEFFFFEB 		bl	test_printn
 1681              	.LVL156:
 1682              		.loc 1 438 3 view .LVU409
 1683 0110 1C009FE5 		ldr	r0, .L82+20
 1684 0114 FEFFFFEB 		bl	test_println
 1685              	.LVL157:
 1686              		.loc 1 439 1 is_stmt 0 view .LVU410
 1687 0118 10D08DE2 		add	sp, sp, #16
 1688              		.cfi_def_cfa_offset 24
 1689              		@ sp needed
 1690 011c F081BDE8 		pop	{r4, r5, r6, r7, r8, pc}
 1691              	.L83:
 1692              		.align	2
 1693              	.L82:
 1694 0120 00000000 		.word	rlist
 1695 0124 00000000 		.word	thread8
 1696 0128 00000000 		.word	wa
 1697 012c 00000000 		.word	threads
 1698 0130 00000000 		.word	.LC11
 1699 0134 0C000000 		.word	.LC14
 1700              		.cfi_endproc
 1701              	.LFE21:
 1702              		.size	bmk8_execute, .-bmk8_execute
 1703              		.section	.text.thread8,"ax",%progbits
 1704              		.align	2
 1705              		.syntax unified
 1706              		.arm
 1707              		.fpu softvfp
 1708              		.type	thread8, %function
 1709              	thread8:
 1710              	.LVL158:
 1711              	.LFB20:
 1712              		.loc 1 405 31 is_stmt 1 view -0
 1713              		.cfi_startproc
 1714              		@ args = 0, pretend = 0, frame = 0
 1715              		@ frame_needed = 0, uses_anonymous_args = 0
 1716              		.loc 1 405 31 is_stmt 0 view .LVU412
 1717 0000 70402DE9 		push	{r4, r5, r6, lr}
 1718              		.cfi_def_cfa_offset 16
 1719              		.cfi_offset 4, -16
 1720              		.cfi_offset 5, -12
 1721              		.cfi_offset 6, -8
 1722              		.cfi_offset 14, -4
 1723              		.loc 1 405 31 view .LVU413
ARM GAS  /tmp/cc4WGHcr.s 			page 32


 1724 0004 0040A0E1 		mov	r4, r0
 1725 0008 30509FE5 		ldr	r5, .L89
 1726              	.LVL159:
 1727              	.L85:
 1728              		.loc 1 407 3 is_stmt 1 discriminator 1 view .LVU414
 1729              		.loc 1 408 5 discriminator 1 view .LVU415
 1730 000c FEFFFFEB 		bl	chThdYield
 1731              	.LVL160:
 1732              		.loc 1 409 5 discriminator 1 view .LVU416
 1733 0010 FEFFFFEB 		bl	chThdYield
 1734              	.LVL161:
 1735              		.loc 1 410 5 discriminator 1 view .LVU417
 1736 0014 FEFFFFEB 		bl	chThdYield
 1737              	.LVL162:
 1738              		.loc 1 411 5 discriminator 1 view .LVU418
 1739 0018 FEFFFFEB 		bl	chThdYield
 1740              	.LVL163:
 1741              		.loc 1 412 5 discriminator 1 view .LVU419
 1742              		.loc 1 412 22 is_stmt 0 discriminator 1 view .LVU420
 1743 001c 003094E5 		ldr	r3, [r4]
 1744              		.loc 1 416 12 discriminator 1 view .LVU421
 1745 0020 182095E5 		ldr	r2, [r5, #24]
 1746              		.loc 1 412 22 discriminator 1 view .LVU422
 1747 0024 043083E2 		add	r3, r3, #4
 1748 0028 003084E5 		str	r3, [r4]
 1749              		.loc 1 416 10 is_stmt 1 discriminator 1 view .LVU423
 1750              		.loc 1 416 3 is_stmt 0 discriminator 1 view .LVU424
 1751 002c 1D30D2E5 		ldrb	r3, [r2, #29]	@ zero_extendqisi2
 1752 0030 040013E3 		tst	r3, #4
 1753 0034 F4FFFF0A 		beq	.L85
 1754              		.loc 1 417 3 is_stmt 1 view .LVU425
 1755              		.loc 1 418 1 is_stmt 0 view .LVU426
 1756 0038 0000A0E3 		mov	r0, #0
 1757 003c 7080BDE8 		pop	{r4, r5, r6, pc}
 1758              	.L90:
 1759              		.align	2
 1760              	.L89:
 1761 0040 00000000 		.word	rlist
 1762              		.cfi_endproc
 1763              	.LFE20:
 1764              		.size	thread8, .-thread8
 1765              		.section	.rodata.bmk9_execute.str1.4,"aMS",%progbits,1
 1766              		.align	2
 1767              	.LC16:
 1768 0000 20627974 		.ascii	" bytes/S\000"
 1768      65732F53 
 1768      00
 1769              		.section	.text.bmk9_execute,"ax",%progbits
 1770              		.align	2
 1771              		.syntax unified
 1772              		.arm
 1773              		.fpu softvfp
 1774              		.type	bmk9_execute, %function
 1775              	bmk9_execute:
 1776              	.LFB22:
 1777              		.loc 1 458 32 is_stmt 1 view -0
 1778              		.cfi_startproc
ARM GAS  /tmp/cc4WGHcr.s 			page 33


 1779              		@ args = 0, pretend = 0, frame = 0
 1780              		@ frame_needed = 0, uses_anonymous_args = 0
 1781              		.loc 1 459 3 view .LVU428
 1782              		.loc 1 460 3 view .LVU429
 1783              		.loc 1 461 3 view .LVU430
 1784              		.loc 1 463 3 view .LVU431
 1785              		.loc 1 458 32 is_stmt 0 view .LVU432
 1786 0000 70402DE9 		push	{r4, r5, r6, lr}
 1787              		.cfi_def_cfa_offset 16
 1788              		.cfi_offset 4, -16
 1789              		.cfi_offset 5, -12
 1790              		.cfi_offset 6, -8
 1791              		.cfi_offset 14, -4
 1792              		.loc 1 463 3 view .LVU433
 1793 0004 0050A0E3 		mov	r5, #0
 1794              		.loc 1 458 32 view .LVU434
 1795 0008 08D04DE2 		sub	sp, sp, #8
 1796              		.cfi_def_cfa_offset 24
 1797              		.loc 1 463 3 view .LVU435
 1798 000c 1020A0E3 		mov	r2, #16
 1799 0010 0530A0E1 		mov	r3, r5
 1800 0014 B4109FE5 		ldr	r1, .L96
 1801 0018 B4009FE5 		ldr	r0, .L96+4
 1802 001c 00508DE5 		str	r5, [sp]
 1803 0020 FEFFFFEB 		bl	chIQInit
 1804              	.LVL164:
 1805              		.loc 1 464 3 is_stmt 1 view .LVU436
 1806              		.loc 1 465 3 view .LVU437
 1807 0024 FEFFFFEB 		bl	test_wait_tick
 1808              	.LVL165:
 1809              		.loc 1 466 3 view .LVU438
 1810 0028 FA0FA0E3 		mov	r0, #1000
 1811 002c FEFFFFEB 		bl	test_start_timer
 1812              	.LVL166:
 1813 0030 A0609FE5 		ldr	r6, .L96+8
 1814              		.loc 1 469 5 is_stmt 0 view .LVU439
 1815 0034 98409FE5 		ldr	r4, .L96+4
 1816              	.LVL167:
 1817              	.L92:
 1818              		.loc 1 467 3 is_stmt 1 discriminator 1 view .LVU440
 1819              		.loc 1 468 5 discriminator 1 view .LVU441
 1820              		.syntax divided
 1821              	@ 468 "../test/testbmk.c" 1
 1822 0038 9FF021E3 		msr     CPSR_c, #0x9F
 1823              	@ 0 "" 2
 1824              		.loc 1 468 5 discriminator 1 view .LVU442
 1825              		.loc 1 468 16 discriminator 1 view .LVU443
 1826              		.loc 1 469 5 discriminator 1 view .LVU444
 1827              		.arm
 1828              		.syntax unified
 1829 003c 0010A0E3 		mov	r1, #0
 1830 0040 0400A0E1 		mov	r0, r4
 1831 0044 FEFFFFEB 		bl	chIQPutI
 1832              	.LVL168:
 1833              		.loc 1 470 5 discriminator 1 view .LVU445
 1834 0048 0400A0E1 		mov	r0, r4
 1835 004c 0110A0E3 		mov	r1, #1
ARM GAS  /tmp/cc4WGHcr.s 			page 34


 1836 0050 FEFFFFEB 		bl	chIQPutI
 1837              	.LVL169:
 1838              		.loc 1 471 5 discriminator 1 view .LVU446
 1839 0054 0400A0E1 		mov	r0, r4
 1840 0058 0210A0E3 		mov	r1, #2
 1841 005c FEFFFFEB 		bl	chIQPutI
 1842              	.LVL170:
 1843              		.loc 1 472 5 discriminator 1 view .LVU447
 1844 0060 0400A0E1 		mov	r0, r4
 1845 0064 0310A0E3 		mov	r1, #3
 1846 0068 FEFFFFEB 		bl	chIQPutI
 1847              	.LVL171:
 1848              		.loc 1 473 5 discriminator 1 view .LVU448
 1849              		.loc 1 473 5 discriminator 1 view .LVU449
 1850              		.syntax divided
 1851              	@ 473 "../test/testbmk.c" 1
 1852 006c 1FF021E3 		msr     CPSR_c, #0x1F
 1853              	@ 0 "" 2
 1854              		.loc 1 473 18 discriminator 1 view .LVU450
 1855              		.loc 1 474 5 discriminator 1 view .LVU451
 1856              		.loc 1 474 11 is_stmt 0 discriminator 1 view .LVU452
 1857              		.arm
 1858              		.syntax unified
 1859 0070 0010E0E3 		mvn	r1, #0
 1860 0074 0400A0E1 		mov	r0, r4
 1861 0078 FEFFFFEB 		bl	chIQGetTimeout
 1862              	.LVL172:
 1863              		.loc 1 475 5 is_stmt 1 discriminator 1 view .LVU453
 1864              		.loc 1 475 11 is_stmt 0 discriminator 1 view .LVU454
 1865 007c 0010E0E3 		mvn	r1, #0
 1866 0080 0400A0E1 		mov	r0, r4
 1867 0084 FEFFFFEB 		bl	chIQGetTimeout
 1868              	.LVL173:
 1869              		.loc 1 476 5 is_stmt 1 discriminator 1 view .LVU455
 1870              		.loc 1 476 11 is_stmt 0 discriminator 1 view .LVU456
 1871 0088 0010E0E3 		mvn	r1, #0
 1872 008c 0400A0E1 		mov	r0, r4
 1873 0090 FEFFFFEB 		bl	chIQGetTimeout
 1874              	.LVL174:
 1875              		.loc 1 477 5 is_stmt 1 discriminator 1 view .LVU457
 1876              		.loc 1 477 11 is_stmt 0 discriminator 1 view .LVU458
 1877 0094 0400A0E1 		mov	r0, r4
 1878 0098 0010E0E3 		mvn	r1, #0
 1879 009c FEFFFFEB 		bl	chIQGetTimeout
 1880              	.LVL175:
 1881              		.loc 1 478 5 is_stmt 1 discriminator 1 view .LVU459
 1882              		.loc 1 482 3 is_stmt 0 discriminator 1 view .LVU460
 1883 00a0 003096E5 		ldr	r3, [r6]
 1884              		.loc 1 478 6 discriminator 1 view .LVU461
 1885 00a4 015085E2 		add	r5, r5, #1
 1886              	.LVL176:
 1887              		.loc 1 482 11 is_stmt 1 discriminator 1 view .LVU462
 1888              		.loc 1 482 3 is_stmt 0 discriminator 1 view .LVU463
 1889 00a8 000053E3 		cmp	r3, #0
 1890 00ac E1FFFF0A 		beq	.L92
 1891              		.loc 1 483 3 is_stmt 1 view .LVU464
 1892 00b0 24009FE5 		ldr	r0, .L96+12
ARM GAS  /tmp/cc4WGHcr.s 			page 35


 1893 00b4 FEFFFFEB 		bl	test_print
 1894              	.LVL177:
 1895              		.loc 1 484 3 view .LVU465
 1896 00b8 0501A0E1 		lsl	r0, r5, #2
 1897 00bc FEFFFFEB 		bl	test_printn
 1898              	.LVL178:
 1899              		.loc 1 485 3 view .LVU466
 1900 00c0 18009FE5 		ldr	r0, .L96+16
 1901              		.loc 1 486 1 is_stmt 0 view .LVU467
 1902 00c4 08D08DE2 		add	sp, sp, #8
 1903              		.cfi_def_cfa_offset 16
 1904              		@ sp needed
 1905 00c8 7040BDE8 		pop	{r4, r5, r6, lr}
 1906              		.cfi_restore 14
 1907              		.cfi_restore 6
 1908              		.cfi_restore 5
 1909              		.cfi_restore 4
 1910              		.cfi_def_cfa_offset 0
 1911              	.LVL179:
 1912              		.loc 1 485 3 view .LVU468
 1913 00cc FEFFFFEA 		b	test_println
 1914              	.LVL180:
 1915              	.L97:
 1916              		.align	2
 1917              	.L96:
 1918 00d0 00000000 		.word	.LANCHOR1
 1919 00d4 00000000 		.word	.LANCHOR2
 1920 00d8 00000000 		.word	test_timer_done
 1921 00dc 00000000 		.word	.LC11
 1922 00e0 00000000 		.word	.LC16
 1923              		.cfi_endproc
 1924              	.LFE22:
 1925              		.size	bmk9_execute, .-bmk9_execute
 1926              		.section	.rodata.bmk10_execute.str1.4,"aMS",%progbits,1
 1927              		.align	2
 1928              	.LC17:
 1929 0000 2074696D 		.ascii	" timers/S\000"
 1929      6572732F 
 1929      5300
 1930              		.section	.text.bmk10_execute,"ax",%progbits
 1931              		.align	2
 1932              		.syntax unified
 1933              		.arm
 1934              		.fpu softvfp
 1935              		.type	bmk10_execute, %function
 1936              	bmk10_execute:
 1937              	.LFB24:
 1938              		.loc 1 506 33 is_stmt 1 view -0
 1939              		.cfi_startproc
 1940              		@ args = 0, pretend = 0, frame = 0
 1941              		@ frame_needed = 0, uses_anonymous_args = 0
 1942              		.loc 1 507 3 view .LVU470
 1943              		.loc 1 508 3 view .LVU471
 1944              	.LVL181:
 1945              		.loc 1 510 3 view .LVU472
 1946              		.loc 1 506 33 is_stmt 0 view .LVU473
 1947 0000 F0412DE9 		push	{r4, r5, r6, r7, r8, lr}
ARM GAS  /tmp/cc4WGHcr.s 			page 36


 1948              		.cfi_def_cfa_offset 24
 1949              		.cfi_offset 4, -24
 1950              		.cfi_offset 5, -20
 1951              		.cfi_offset 6, -16
 1952              		.cfi_offset 7, -12
 1953              		.cfi_offset 8, -8
 1954              		.cfi_offset 14, -4
 1955              		.loc 1 510 3 view .LVU474
 1956 0004 FEFFFFEB 		bl	test_wait_tick
 1957              	.LVL182:
 1958              		.loc 1 511 3 is_stmt 1 view .LVU475
 1959 0008 FA0FA0E3 		mov	r0, #1000
 1960 000c FEFFFFEB 		bl	test_start_timer
 1961              	.LVL183:
 1962              		.loc 1 508 12 is_stmt 0 view .LVU476
 1963 0010 0040A0E3 		mov	r4, #0
 1964 0014 74809FE5 		ldr	r8, .L103
 1965              		.loc 1 514 5 view .LVU477
 1966 0018 74709FE5 		ldr	r7, .L103+4
 1967 001c 74609FE5 		ldr	r6, .L103+8
 1968              		.loc 1 515 5 view .LVU478
 1969 0020 74509FE5 		ldr	r5, .L103+12
 1970              	.LVL184:
 1971              	.L99:
 1972              		.loc 1 512 3 is_stmt 1 discriminator 1 view .LVU479
 1973              		.loc 1 513 5 discriminator 1 view .LVU480
 1974              		.syntax divided
 1975              	@ 513 "../test/testbmk.c" 1
 1976 0024 9FF021E3 		msr     CPSR_c, #0x9F
 1977              	@ 0 "" 2
 1978              		.loc 1 513 5 discriminator 1 view .LVU481
 1979              		.loc 1 513 16 discriminator 1 view .LVU482
 1980              		.loc 1 514 5 discriminator 1 view .LVU483
 1981              		.arm
 1982              		.syntax unified
 1983 0028 0030A0E3 		mov	r3, #0
 1984 002c 0720A0E1 		mov	r2, r7
 1985 0030 0600A0E1 		mov	r0, r6
 1986 0034 0110A0E3 		mov	r1, #1
 1987 0038 FEFFFFEB 		bl	chVTSetI
 1988              	.LVL185:
 1989              		.loc 1 515 5 discriminator 1 view .LVU484
 1990 003c 0720A0E1 		mov	r2, r7
 1991 0040 0030A0E3 		mov	r3, #0
 1992 0044 54109FE5 		ldr	r1, .L103+16
 1993 0048 0500A0E1 		mov	r0, r5
 1994 004c FEFFFFEB 		bl	chVTSetI
 1995              	.LVL186:
 1996              		.loc 1 516 5 discriminator 1 view .LVU485
 1997 0050 0600A0E1 		mov	r0, r6
 1998 0054 FEFFFFEB 		bl	chVTResetI
 1999              	.LVL187:
 2000              		.loc 1 517 5 discriminator 1 view .LVU486
 2001 0058 0500A0E1 		mov	r0, r5
 2002 005c FEFFFFEB 		bl	chVTResetI
 2003              	.LVL188:
 2004              		.loc 1 518 5 discriminator 1 view .LVU487
ARM GAS  /tmp/cc4WGHcr.s 			page 37


 2005              		.loc 1 518 5 discriminator 1 view .LVU488
 2006              		.syntax divided
 2007              	@ 518 "../test/testbmk.c" 1
 2008 0060 1FF021E3 		msr     CPSR_c, #0x1F
 2009              	@ 0 "" 2
 2010              		.loc 1 518 18 discriminator 1 view .LVU489
 2011              		.loc 1 519 5 discriminator 1 view .LVU490
 2012              		.loc 1 523 3 is_stmt 0 discriminator 1 view .LVU491
 2013              		.arm
 2014              		.syntax unified
 2015 0064 003098E5 		ldr	r3, [r8]
 2016              		.loc 1 519 6 discriminator 1 view .LVU492
 2017 0068 014084E2 		add	r4, r4, #1
 2018              	.LVL189:
 2019              		.loc 1 523 11 is_stmt 1 discriminator 1 view .LVU493
 2020              		.loc 1 523 3 is_stmt 0 discriminator 1 view .LVU494
 2021 006c 000053E3 		cmp	r3, #0
 2022 0070 EBFFFF0A 		beq	.L99
 2023              		.loc 1 524 3 is_stmt 1 view .LVU495
 2024 0074 28009FE5 		ldr	r0, .L103+20
 2025 0078 FEFFFFEB 		bl	test_print
 2026              	.LVL190:
 2027              		.loc 1 525 3 view .LVU496
 2028 007c 8400A0E1 		lsl	r0, r4, #1
 2029 0080 FEFFFFEB 		bl	test_printn
 2030              	.LVL191:
 2031              		.loc 1 526 3 view .LVU497
 2032              		.loc 1 527 1 is_stmt 0 view .LVU498
 2033 0084 F041BDE8 		pop	{r4, r5, r6, r7, r8, lr}
 2034              		.cfi_restore 14
 2035              		.cfi_restore 8
 2036              		.cfi_restore 7
 2037              		.cfi_restore 6
 2038              		.cfi_restore 5
 2039              		.cfi_restore 4
 2040              		.cfi_def_cfa_offset 0
 2041              	.LVL192:
 2042              		.loc 1 526 3 view .LVU499
 2043 0088 18009FE5 		ldr	r0, .L103+24
 2044 008c FEFFFFEA 		b	test_println
 2045              	.LVL193:
 2046              	.L104:
 2047              		.align	2
 2048              	.L103:
 2049 0090 00000000 		.word	test_timer_done
 2050 0094 00000000 		.word	tmo
 2051 0098 00000000 		.word	.LANCHOR3
 2052 009c 00000000 		.word	.LANCHOR4
 2053 00a0 10270000 		.word	10000
 2054 00a4 00000000 		.word	.LC11
 2055 00a8 00000000 		.word	.LC17
 2056              		.cfi_endproc
 2057              	.LFE24:
 2058              		.size	bmk10_execute, .-bmk10_execute
 2059              		.section	.rodata.bmk11_execute.str1.4,"aMS",%progbits,1
 2060              		.align	2
 2061              	.LC18:
ARM GAS  /tmp/cc4WGHcr.s 			page 38


 2062 0000 20776169 		.ascii	" wait+signal/S\000"
 2062      742B7369 
 2062      676E616C 
 2062      2F5300
 2063              		.section	.text.bmk11_execute,"ax",%progbits
 2064              		.align	2
 2065              		.syntax unified
 2066              		.arm
 2067              		.fpu softvfp
 2068              		.type	bmk11_execute, %function
 2069              	bmk11_execute:
 2070              	.LFB26:
 2071              		.loc 1 551 33 is_stmt 1 view -0
 2072              		.cfi_startproc
 2073              		@ args = 0, pretend = 0, frame = 0
 2074              		@ frame_needed = 0, uses_anonymous_args = 0
 2075              		.loc 1 552 3 view .LVU501
 2076              	.LVL194:
 2077              		.loc 1 554 3 view .LVU502
 2078              		.loc 1 551 33 is_stmt 0 view .LVU503
 2079 0000 70402DE9 		push	{r4, r5, r6, lr}
 2080              		.cfi_def_cfa_offset 16
 2081              		.cfi_offset 4, -16
 2082              		.cfi_offset 5, -12
 2083              		.cfi_offset 6, -8
 2084              		.cfi_offset 14, -4
 2085              		.loc 1 554 3 view .LVU504
 2086 0004 FEFFFFEB 		bl	test_wait_tick
 2087              	.LVL195:
 2088              		.loc 1 555 3 is_stmt 1 view .LVU505
 2089 0008 FA0FA0E3 		mov	r0, #1000
 2090 000c FEFFFFEB 		bl	test_start_timer
 2091              	.LVL196:
 2092              		.loc 1 552 12 is_stmt 0 view .LVU506
 2093 0010 0050A0E3 		mov	r5, #0
 2094 0014 6C609FE5 		ldr	r6, .L110
 2095              		.loc 1 557 5 view .LVU507
 2096 0018 6C409FE5 		ldr	r4, .L110+4
 2097              	.LVL197:
 2098              	.L106:
 2099              		.loc 1 556 3 is_stmt 1 discriminator 1 view .LVU508
 2100              		.loc 1 557 5 discriminator 1 view .LVU509
 2101 001c 0400A0E1 		mov	r0, r4
 2102 0020 FEFFFFEB 		bl	chSemWait
 2103              	.LVL198:
 2104              		.loc 1 558 5 discriminator 1 view .LVU510
 2105 0024 0400A0E1 		mov	r0, r4
 2106 0028 FEFFFFEB 		bl	chSemSignal
 2107              	.LVL199:
 2108              		.loc 1 559 5 discriminator 1 view .LVU511
 2109 002c 0400A0E1 		mov	r0, r4
 2110 0030 FEFFFFEB 		bl	chSemWait
 2111              	.LVL200:
 2112              		.loc 1 560 5 discriminator 1 view .LVU512
 2113 0034 0400A0E1 		mov	r0, r4
 2114 0038 FEFFFFEB 		bl	chSemSignal
 2115              	.LVL201:
ARM GAS  /tmp/cc4WGHcr.s 			page 39


 2116              		.loc 1 561 5 discriminator 1 view .LVU513
 2117 003c 0400A0E1 		mov	r0, r4
 2118 0040 FEFFFFEB 		bl	chSemWait
 2119              	.LVL202:
 2120              		.loc 1 562 5 discriminator 1 view .LVU514
 2121 0044 0400A0E1 		mov	r0, r4
 2122 0048 FEFFFFEB 		bl	chSemSignal
 2123              	.LVL203:
 2124              		.loc 1 563 5 discriminator 1 view .LVU515
 2125 004c 0400A0E1 		mov	r0, r4
 2126 0050 FEFFFFEB 		bl	chSemWait
 2127              	.LVL204:
 2128              		.loc 1 564 5 discriminator 1 view .LVU516
 2129 0054 0400A0E1 		mov	r0, r4
 2130 0058 FEFFFFEB 		bl	chSemSignal
 2131              	.LVL205:
 2132              		.loc 1 565 5 discriminator 1 view .LVU517
 2133              		.loc 1 569 3 is_stmt 0 discriminator 1 view .LVU518
 2134 005c 003096E5 		ldr	r3, [r6]
 2135              		.loc 1 565 6 discriminator 1 view .LVU519
 2136 0060 015085E2 		add	r5, r5, #1
 2137              	.LVL206:
 2138              		.loc 1 569 11 is_stmt 1 discriminator 1 view .LVU520
 2139              		.loc 1 569 3 is_stmt 0 discriminator 1 view .LVU521
 2140 0064 000053E3 		cmp	r3, #0
 2141 0068 EBFFFF0A 		beq	.L106
 2142              		.loc 1 570 3 is_stmt 1 view .LVU522
 2143 006c 1C009FE5 		ldr	r0, .L110+8
 2144 0070 FEFFFFEB 		bl	test_print
 2145              	.LVL207:
 2146              		.loc 1 571 3 view .LVU523
 2147 0074 0501A0E1 		lsl	r0, r5, #2
 2148 0078 FEFFFFEB 		bl	test_printn
 2149              	.LVL208:
 2150              		.loc 1 572 3 view .LVU524
 2151              		.loc 1 573 1 is_stmt 0 view .LVU525
 2152 007c 7040BDE8 		pop	{r4, r5, r6, lr}
 2153              		.cfi_restore 14
 2154              		.cfi_restore 6
 2155              		.cfi_restore 5
 2156              		.cfi_restore 4
 2157              		.cfi_def_cfa_offset 0
 2158              	.LVL209:
 2159              		.loc 1 572 3 view .LVU526
 2160 0080 0C009FE5 		ldr	r0, .L110+12
 2161 0084 FEFFFFEA 		b	test_println
 2162              	.LVL210:
 2163              	.L111:
 2164              		.align	2
 2165              	.L110:
 2166 0088 00000000 		.word	test_timer_done
 2167 008c 00000000 		.word	.LANCHOR0
 2168 0090 00000000 		.word	.LC11
 2169 0094 00000000 		.word	.LC18
 2170              		.cfi_endproc
 2171              	.LFE26:
 2172              		.size	bmk11_execute, .-bmk11_execute
ARM GAS  /tmp/cc4WGHcr.s 			page 40


 2173              		.section	.rodata.bmk12_execute.str1.4,"aMS",%progbits,1
 2174              		.align	2
 2175              	.LC19:
 2176 0000 206C6F63 		.ascii	" lock+unlock/S\000"
 2176      6B2B756E 
 2176      6C6F636B 
 2176      2F5300
 2177              		.section	.text.bmk12_execute,"ax",%progbits
 2178              		.align	2
 2179              		.syntax unified
 2180              		.arm
 2181              		.fpu softvfp
 2182              		.type	bmk12_execute, %function
 2183              	bmk12_execute:
 2184              	.LFB28:
 2185              		.loc 1 598 33 is_stmt 1 view -0
 2186              		.cfi_startproc
 2187              		@ args = 0, pretend = 0, frame = 0
 2188              		@ frame_needed = 0, uses_anonymous_args = 0
 2189              		.loc 1 599 3 view .LVU528
 2190              	.LVL211:
 2191              		.loc 1 601 3 view .LVU529
 2192              		.loc 1 598 33 is_stmt 0 view .LVU530
 2193 0000 70402DE9 		push	{r4, r5, r6, lr}
 2194              		.cfi_def_cfa_offset 16
 2195              		.cfi_offset 4, -16
 2196              		.cfi_offset 5, -12
 2197              		.cfi_offset 6, -8
 2198              		.cfi_offset 14, -4
 2199              		.loc 1 601 3 view .LVU531
 2200 0004 FEFFFFEB 		bl	test_wait_tick
 2201              	.LVL212:
 2202              		.loc 1 602 3 is_stmt 1 view .LVU532
 2203 0008 FA0FA0E3 		mov	r0, #1000
 2204 000c FEFFFFEB 		bl	test_start_timer
 2205              	.LVL213:
 2206              		.loc 1 599 12 is_stmt 0 view .LVU533
 2207 0010 0050A0E3 		mov	r5, #0
 2208 0014 5C609FE5 		ldr	r6, .L117
 2209              		.loc 1 604 5 view .LVU534
 2210 0018 5C409FE5 		ldr	r4, .L117+4
 2211              	.LVL214:
 2212              	.L113:
 2213              		.loc 1 603 3 is_stmt 1 discriminator 1 view .LVU535
 2214              		.loc 1 604 5 discriminator 1 view .LVU536
 2215 001c 0400A0E1 		mov	r0, r4
 2216 0020 FEFFFFEB 		bl	chMtxLock
 2217              	.LVL215:
 2218              		.loc 1 605 5 discriminator 1 view .LVU537
 2219 0024 FEFFFFEB 		bl	chMtxUnlock
 2220              	.LVL216:
 2221              		.loc 1 606 5 discriminator 1 view .LVU538
 2222 0028 0400A0E1 		mov	r0, r4
 2223 002c FEFFFFEB 		bl	chMtxLock
 2224              	.LVL217:
 2225              		.loc 1 607 5 discriminator 1 view .LVU539
 2226 0030 FEFFFFEB 		bl	chMtxUnlock
ARM GAS  /tmp/cc4WGHcr.s 			page 41


 2227              	.LVL218:
 2228              		.loc 1 608 5 discriminator 1 view .LVU540
 2229 0034 0400A0E1 		mov	r0, r4
 2230 0038 FEFFFFEB 		bl	chMtxLock
 2231              	.LVL219:
 2232              		.loc 1 609 5 discriminator 1 view .LVU541
 2233 003c FEFFFFEB 		bl	chMtxUnlock
 2234              	.LVL220:
 2235              		.loc 1 610 5 discriminator 1 view .LVU542
 2236 0040 0400A0E1 		mov	r0, r4
 2237 0044 FEFFFFEB 		bl	chMtxLock
 2238              	.LVL221:
 2239              		.loc 1 611 5 discriminator 1 view .LVU543
 2240 0048 FEFFFFEB 		bl	chMtxUnlock
 2241              	.LVL222:
 2242              		.loc 1 612 5 discriminator 1 view .LVU544
 2243              		.loc 1 616 3 is_stmt 0 discriminator 1 view .LVU545
 2244 004c 003096E5 		ldr	r3, [r6]
 2245              		.loc 1 612 6 discriminator 1 view .LVU546
 2246 0050 015085E2 		add	r5, r5, #1
 2247              	.LVL223:
 2248              		.loc 1 616 11 is_stmt 1 discriminator 1 view .LVU547
 2249              		.loc 1 616 3 is_stmt 0 discriminator 1 view .LVU548
 2250 0054 000053E3 		cmp	r3, #0
 2251 0058 EFFFFF0A 		beq	.L113
 2252              		.loc 1 617 3 is_stmt 1 view .LVU549
 2253 005c 1C009FE5 		ldr	r0, .L117+8
 2254 0060 FEFFFFEB 		bl	test_print
 2255              	.LVL224:
 2256              		.loc 1 618 3 view .LVU550
 2257 0064 0501A0E1 		lsl	r0, r5, #2
 2258 0068 FEFFFFEB 		bl	test_printn
 2259              	.LVL225:
 2260              		.loc 1 619 3 view .LVU551
 2261              		.loc 1 620 1 is_stmt 0 view .LVU552
 2262 006c 7040BDE8 		pop	{r4, r5, r6, lr}
 2263              		.cfi_restore 14
 2264              		.cfi_restore 6
 2265              		.cfi_restore 5
 2266              		.cfi_restore 4
 2267              		.cfi_def_cfa_offset 0
 2268              	.LVL226:
 2269              		.loc 1 619 3 view .LVU553
 2270 0070 0C009FE5 		ldr	r0, .L117+12
 2271 0074 FEFFFFEA 		b	test_println
 2272              	.LVL227:
 2273              	.L118:
 2274              		.align	2
 2275              	.L117:
 2276 0078 00000000 		.word	test_timer_done
 2277 007c 00000000 		.word	.LANCHOR5
 2278 0080 00000000 		.word	.LC11
 2279 0084 00000000 		.word	.LC19
 2280              		.cfi_endproc
 2281              	.LFE28:
 2282              		.size	bmk12_execute, .-bmk12_execute
 2283              		.section	.text.bmk12_setup,"ax",%progbits
ARM GAS  /tmp/cc4WGHcr.s 			page 42


 2284              		.align	2
 2285              		.syntax unified
 2286              		.arm
 2287              		.fpu softvfp
 2288              		.type	bmk12_setup, %function
 2289              	bmk12_setup:
 2290              	.LFB27:
 2291              		.loc 1 593 31 is_stmt 1 view -0
 2292              		.cfi_startproc
 2293              		@ args = 0, pretend = 0, frame = 0
 2294              		@ frame_needed = 0, uses_anonymous_args = 0
 2295              		@ link register save eliminated.
 2296              		.loc 1 595 3 view .LVU555
 2297 0000 00009FE5 		ldr	r0, .L120
 2298 0004 FEFFFFEA 		b	chMtxInit
 2299              	.LVL228:
 2300              	.L121:
 2301              		.align	2
 2302              	.L120:
 2303 0008 00000000 		.word	.LANCHOR5
 2304              		.cfi_endproc
 2305              	.LFE27:
 2306              		.size	bmk12_setup, .-bmk12_setup
 2307              		.global	patternbmk
 2308              		.global	testbmk13
 2309              		.section	.rodata.str1.4,"aMS",%progbits,1
 2310              		.align	2
 2311              	.LC20:
 2312 0000 42656E63 		.ascii	"Benchmark, RAM footprint\000"
 2312      686D6172 
 2312      6B2C2052 
 2312      414D2066 
 2312      6F6F7470 
 2313              		.global	testbmk12
 2314 0019 000000   		.align	2
 2315              	.LC21:
 2316 001c 42656E63 		.ascii	"Benchmark, mutexes lock/unlock\000"
 2316      686D6172 
 2316      6B2C206D 
 2316      75746578 
 2316      6573206C 
 2317              		.global	testbmk11
 2318 003b 00       		.align	2
 2319              	.LC22:
 2320 003c 42656E63 		.ascii	"Benchmark, semaphores wait/signal\000"
 2320      686D6172 
 2320      6B2C2073 
 2320      656D6170 
 2320      686F7265 
 2321              		.global	testbmk10
 2322 005e 0000     		.align	2
 2323              	.LC23:
 2324 0060 42656E63 		.ascii	"Benchmark, virtual timers set/reset\000"
 2324      686D6172 
 2324      6B2C2076 
 2324      69727475 
 2324      616C2074 
ARM GAS  /tmp/cc4WGHcr.s 			page 43


 2325              		.global	testbmk9
 2326              		.align	2
 2327              	.LC24:
 2328 0084 42656E63 		.ascii	"Benchmark, I/O Queues throughput\000"
 2328      686D6172 
 2328      6B2C2049 
 2328      2F4F2051 
 2328      75657565 
 2329              		.global	testbmk8
 2330 00a5 000000   		.align	2
 2331              	.LC25:
 2332 00a8 42656E63 		.ascii	"Benchmark, round robin context switching\000"
 2332      686D6172 
 2332      6B2C2072 
 2332      6F756E64 
 2332      20726F62 
 2333              		.global	testbmk7
 2334 00d1 000000   		.align	2
 2335              	.LC26:
 2336 00d4 42656E63 		.ascii	"Benchmark, mass reschedule, 5 threads\000"
 2336      686D6172 
 2336      6B2C206D 
 2336      61737320 
 2336      72657363 
 2337              		.global	testbmk6
 2338 00fa 0000     		.align	2
 2339              	.LC27:
 2340 00fc 42656E63 		.ascii	"Benchmark, threads, create only\000"
 2340      686D6172 
 2340      6B2C2074 
 2340      68726561 
 2340      64732C20 
 2341              		.global	testbmk5
 2342              		.align	2
 2343              	.LC28:
 2344 011c 42656E63 		.ascii	"Benchmark, threads, full cycle\000"
 2344      686D6172 
 2344      6B2C2074 
 2344      68726561 
 2344      64732C20 
 2345              		.global	testbmk4
 2346 013b 00       		.align	2
 2347              	.LC29:
 2348 013c 42656E63 		.ascii	"Benchmark, context switch\000"
 2348      686D6172 
 2348      6B2C2063 
 2348      6F6E7465 
 2348      78742073 
 2349              		.global	testbmk3
 2350 0156 0000     		.align	2
 2351              	.LC30:
 2352 0158 42656E63 		.ascii	"Benchmark, messages #3\000"
 2352      686D6172 
 2352      6B2C206D 
 2352      65737361 
 2352      67657320 
 2353              		.global	testbmk2
ARM GAS  /tmp/cc4WGHcr.s 			page 44


 2354 016f 00       		.align	2
 2355              	.LC31:
 2356 0170 42656E63 		.ascii	"Benchmark, messages #2\000"
 2356      686D6172 
 2356      6B2C206D 
 2356      65737361 
 2356      67657320 
 2357              		.global	testbmk1
 2358 0187 00       		.align	2
 2359              	.LC32:
 2360 0188 42656E63 		.ascii	"Benchmark, messages #1\000"
 2360      686D6172 
 2360      6B2C206D 
 2360      65737361 
 2360      67657320 
 2361              		.section	.bss.ib.4885,"aw",%nobits
 2362              		.align	2
 2363              		.set	.LANCHOR1,. + 0
 2364              		.type	ib.4885, %object
 2365              		.size	ib.4885, 16
 2366              	ib.4885:
 2367 0000 00000000 		.space	16
 2367      00000000 
 2367      00000000 
 2367      00000000 
 2368              		.section	.bss.iq.4886,"aw",%nobits
 2369              		.align	2
 2370              		.set	.LANCHOR2,. + 0
 2371              		.type	iq.4886, %object
 2372              		.size	iq.4886, 36
 2373              	iq.4886:
 2374 0000 00000000 		.space	36
 2374      00000000 
 2374      00000000 
 2374      00000000 
 2374      00000000 
 2375              		.section	.bss.mtx1,"aw",%nobits
 2376              		.align	2
 2377              		.set	.LANCHOR5,. + 0
 2378              		.type	mtx1, %object
 2379              		.size	mtx1, 16
 2380              	mtx1:
 2381 0000 00000000 		.space	16
 2381      00000000 
 2381      00000000 
 2381      00000000 
 2382              		.section	.bss.sem1,"aw",%nobits
 2383              		.align	2
 2384              		.set	.LANCHOR0,. + 0
 2385              		.type	sem1, %object
 2386              		.size	sem1, 12
 2387              	sem1:
 2388 0000 00000000 		.space	12
 2388      00000000 
 2388      00000000 
 2389              		.section	.bss.vt1.4896,"aw",%nobits
 2390              		.align	2
ARM GAS  /tmp/cc4WGHcr.s 			page 45


 2391              		.set	.LANCHOR3,. + 0
 2392              		.type	vt1.4896, %object
 2393              		.size	vt1.4896, 20
 2394              	vt1.4896:
 2395 0000 00000000 		.space	20
 2395      00000000 
 2395      00000000 
 2395      00000000 
 2395      00000000 
 2396              		.section	.bss.vt2.4897,"aw",%nobits
 2397              		.align	2
 2398              		.set	.LANCHOR4,. + 0
 2399              		.type	vt2.4897, %object
 2400              		.size	vt2.4897, 20
 2401              	vt2.4897:
 2402 0000 00000000 		.space	20
 2402      00000000 
 2402      00000000 
 2402      00000000 
 2402      00000000 
 2403              		.section	.rodata.patternbmk,"a"
 2404              		.align	2
 2405              		.type	patternbmk, %object
 2406              		.size	patternbmk, 56
 2407              	patternbmk:
 2408 0000 00000000 		.word	testbmk1
 2409 0004 00000000 		.word	testbmk2
 2410 0008 00000000 		.word	testbmk3
 2411 000c 00000000 		.word	testbmk4
 2412 0010 00000000 		.word	testbmk5
 2413 0014 00000000 		.word	testbmk6
 2414 0018 00000000 		.word	testbmk7
 2415 001c 00000000 		.word	testbmk8
 2416 0020 00000000 		.word	testbmk9
 2417 0024 00000000 		.word	testbmk10
 2418 0028 00000000 		.word	testbmk11
 2419 002c 00000000 		.word	testbmk12
 2420 0030 00000000 		.word	testbmk13
 2421 0034 00000000 		.word	0
 2422              		.section	.rodata.testbmk1,"a"
 2423              		.align	2
 2424              		.type	testbmk1, %object
 2425              		.size	testbmk1, 16
 2426              	testbmk1:
 2427 0000 88010000 		.word	.LC32
 2428 0004 00000000 		.word	0
 2429 0008 00000000 		.word	0
 2430 000c 00000000 		.word	bmk1_execute
 2431              		.section	.rodata.testbmk10,"a"
 2432              		.align	2
 2433              		.type	testbmk10, %object
 2434              		.size	testbmk10, 16
 2435              	testbmk10:
 2436 0000 60000000 		.word	.LC23
 2437 0004 00000000 		.word	0
 2438 0008 00000000 		.word	0
 2439 000c 00000000 		.word	bmk10_execute
ARM GAS  /tmp/cc4WGHcr.s 			page 46


 2440              		.section	.rodata.testbmk11,"a"
 2441              		.align	2
 2442              		.type	testbmk11, %object
 2443              		.size	testbmk11, 16
 2444              	testbmk11:
 2445 0000 3C000000 		.word	.LC22
 2446 0004 00000000 		.word	bmk11_setup
 2447 0008 00000000 		.word	0
 2448 000c 00000000 		.word	bmk11_execute
 2449              		.section	.rodata.testbmk12,"a"
 2450              		.align	2
 2451              		.type	testbmk12, %object
 2452              		.size	testbmk12, 16
 2453              	testbmk12:
 2454 0000 1C000000 		.word	.LC21
 2455 0004 00000000 		.word	bmk12_setup
 2456 0008 00000000 		.word	0
 2457 000c 00000000 		.word	bmk12_execute
 2458              		.section	.rodata.testbmk13,"a"
 2459              		.align	2
 2460              		.type	testbmk13, %object
 2461              		.size	testbmk13, 16
 2462              	testbmk13:
 2463 0000 00000000 		.word	.LC20
 2464 0004 00000000 		.word	0
 2465 0008 00000000 		.word	0
 2466 000c 00000000 		.word	bmk13_execute
 2467              		.section	.rodata.testbmk2,"a"
 2468              		.align	2
 2469              		.type	testbmk2, %object
 2470              		.size	testbmk2, 16
 2471              	testbmk2:
 2472 0000 70010000 		.word	.LC31
 2473 0004 00000000 		.word	0
 2474 0008 00000000 		.word	0
 2475 000c 00000000 		.word	bmk2_execute
 2476              		.section	.rodata.testbmk3,"a"
 2477              		.align	2
 2478              		.type	testbmk3, %object
 2479              		.size	testbmk3, 16
 2480              	testbmk3:
 2481 0000 58010000 		.word	.LC30
 2482 0004 00000000 		.word	0
 2483 0008 00000000 		.word	0
 2484 000c 00000000 		.word	bmk3_execute
 2485              		.section	.rodata.testbmk4,"a"
 2486              		.align	2
 2487              		.type	testbmk4, %object
 2488              		.size	testbmk4, 16
 2489              	testbmk4:
 2490 0000 3C010000 		.word	.LC29
 2491 0004 00000000 		.word	0
 2492 0008 00000000 		.word	0
 2493 000c 00000000 		.word	bmk4_execute
 2494              		.section	.rodata.testbmk5,"a"
 2495              		.align	2
 2496              		.type	testbmk5, %object
ARM GAS  /tmp/cc4WGHcr.s 			page 47


 2497              		.size	testbmk5, 16
 2498              	testbmk5:
 2499 0000 1C010000 		.word	.LC28
 2500 0004 00000000 		.word	0
 2501 0008 00000000 		.word	0
 2502 000c 00000000 		.word	bmk5_execute
 2503              		.section	.rodata.testbmk6,"a"
 2504              		.align	2
 2505              		.type	testbmk6, %object
 2506              		.size	testbmk6, 16
 2507              	testbmk6:
 2508 0000 FC000000 		.word	.LC27
 2509 0004 00000000 		.word	0
 2510 0008 00000000 		.word	0
 2511 000c 00000000 		.word	bmk6_execute
 2512              		.section	.rodata.testbmk7,"a"
 2513              		.align	2
 2514              		.type	testbmk7, %object
 2515              		.size	testbmk7, 16
 2516              	testbmk7:
 2517 0000 D4000000 		.word	.LC26
 2518 0004 00000000 		.word	bmk7_setup
 2519 0008 00000000 		.word	0
 2520 000c 00000000 		.word	bmk7_execute
 2521              		.section	.rodata.testbmk8,"a"
 2522              		.align	2
 2523              		.type	testbmk8, %object
 2524              		.size	testbmk8, 16
 2525              	testbmk8:
 2526 0000 A8000000 		.word	.LC25
 2527 0004 00000000 		.word	0
 2528 0008 00000000 		.word	0
 2529 000c 00000000 		.word	bmk8_execute
 2530              		.section	.rodata.testbmk9,"a"
 2531              		.align	2
 2532              		.type	testbmk9, %object
 2533              		.size	testbmk9, 16
 2534              	testbmk9:
 2535 0000 84000000 		.word	.LC24
 2536 0004 00000000 		.word	0
 2537 0008 00000000 		.word	0
 2538 000c 00000000 		.word	bmk9_execute
 2539              		.text
 2540              	.Letext0:
 2541              		.file 2 "/usr/lib/gcc/arm-none-eabi/9.2.1/include/stddef.h"
 2542              		.file 3 "/usr/lib/gcc/arm-none-eabi/9.2.1/include/stdint.h"
 2543              		.file 4 "../os/ports/GCC/ARM/chtypes.h"
 2544              		.file 5 "../os/kernel/include/chlists.h"
 2545              		.file 6 "../os/kernel/include/chthreads.h"
 2546              		.file 7 "../os/ports/GCC/ARM/chcore.h"
 2547              		.file 8 "../os/kernel/include/chvt.h"
 2548              		.file 9 "../os/kernel/include/chschd.h"
 2549              		.file 10 "../os/kernel/include/chsem.h"
 2550              		.file 11 "../os/kernel/include/chmtx.h"
 2551              		.file 12 "../os/kernel/include/chregistry.h"
 2552              		.file 13 "../os/kernel/include/chqueues.h"
 2553              		.file 14 "../os/kernel/include/ch.h"
ARM GAS  /tmp/cc4WGHcr.s 			page 48


 2554              		.file 15 "../test/test.h"
 2555              		.file 16 "../os/kernel/include/chmsg.h"