ARM GAS  /tmp/ccGdBEjb.s 			page 1


   1              		.cpu arm1176jz-s
   2              		.eabi_attribute 20, 1
   3              		.eabi_attribute 21, 1
   4              		.eabi_attribute 23, 3
   5              		.eabi_attribute 24, 1
   6              		.eabi_attribute 25, 1
   7              		.eabi_attribute 26, 1
   8              		.eabi_attribute 30, 2
   9              		.eabi_attribute 34, 1
  10              		.eabi_attribute 18, 4
  11              		.file	"testmbox.c"
  12              		.text
  13              	.Ltext0:
  14              		.cfi_sections	.debug_frame
  15              		.section	.rodata.mbox1_execute.str1.4,"aMS",%progbits,1
  16              		.align	2
  17              	.LC0:
  18 0000 41424344 		.ascii	"ABCDE\000"
  18      4500
  19              		.section	.text.mbox1_execute,"ax",%progbits
  20              		.align	2
  21              		.arch armv6kz
  22              		.syntax unified
  23              		.arm
  24              		.fpu softvfp
  25              		.type	mbox1_execute, %function
  26              	mbox1_execute:
  27              	.LFB8:
  28              		.file 1 "../test/testmbox.c"
  29              		.loc 1 80 33 view -0
  30              		.cfi_startproc
  31              		@ args = 0, pretend = 0, frame = 8
  32              		@ frame_needed = 0, uses_anonymous_args = 0
  33              		.loc 1 81 3 view .LVU1
  34              		.loc 1 82 3 view .LVU2
  35              		.loc 1 87 3 view .LVU3
  36              		.loc 1 80 33 is_stmt 0 view .LVU4
  37 0000 70402DE9 		push	{r4, r5, r6, lr}
  38              		.cfi_def_cfa_offset 16
  39              		.cfi_offset 4, -16
  40              		.cfi_offset 5, -12
  41              		.cfi_offset 6, -8
  42              		.cfi_offset 14, -4
  43              		.loc 1 87 3 view .LVU5
  44 0004 8C679FE5 		ldr	r6, .L30
  45 0008 0100A0E3 		mov	r0, #1
  46 000c 241096E5 		ldr	r1, [r6, #36]
  47              		.loc 1 80 33 view .LVU6
  48 0010 08D04DE2 		sub	sp, sp, #8
  49              		.cfi_def_cfa_offset 24
  50              		.loc 1 87 3 view .LVU7
  51 0014 051041E2 		sub	r1, r1, #5
  52 0018 111F6FE1 		clz	r1, r1
  53 001c A112A0E1 		lsr	r1, r1, #5
  54 0020 FEFFFFEB 		bl	_test_assert
  55              	.LVL0:
  56 0024 000050E3 		cmp	r0, #0
ARM GAS  /tmp/ccGdBEjb.s 			page 2


  57 0028 1800001A 		bne	.L1
  58 002c 4240A0E3 		mov	r4, #66
  59              		.loc 1 93 12 view .LVU8
  60 0030 0650A0E1 		mov	r5, r6
  61              	.L3:
  62              	.LVL1:
  63              		.loc 1 93 5 is_stmt 1 view .LVU9
  64              		.loc 1 93 12 is_stmt 0 view .LVU10
  65 0034 0410A0E1 		mov	r1, r4
  66 0038 0020E0E3 		mvn	r2, #0
  67 003c 0500A0E1 		mov	r0, r5
  68 0040 FEFFFFEB 		bl	chMBPost
  69              	.LVL2:
  70              		.loc 1 94 5 is_stmt 1 view .LVU11
  71 0044 101F6FE1 		clz	r1, r0
  72 0048 0200A0E3 		mov	r0, #2
  73              	.LVL3:
  74              		.loc 1 94 5 is_stmt 0 view .LVU12
  75 004c A112A0E1 		lsr	r1, r1, #5
  76 0050 FEFFFFEB 		bl	_test_assert
  77              	.LVL4:
  78              		.loc 1 94 60 is_stmt 1 view .LVU13
  79              		.loc 1 92 32 view .LVU14
  80              		.loc 1 92 15 view .LVU15
  81              		.loc 1 94 5 is_stmt 0 view .LVU16
  82 0054 000050E3 		cmp	r0, #0
  83 0058 014084E2 		add	r4, r4, #1
  84              	.LVL5:
  85              		.loc 1 94 5 view .LVU17
  86 005c 0B00001A 		bne	.L1
  87              		.loc 1 92 3 discriminator 2 view .LVU18
  88 0060 460054E3 		cmp	r4, #70
  89 0064 F2FFFF1A 		bne	.L3
  90              		.loc 1 96 3 is_stmt 1 view .LVU19
  91              		.loc 1 96 10 is_stmt 0 view .LVU20
  92 0068 0020E0E3 		mvn	r2, #0
  93 006c 4110A0E3 		mov	r1, #65
  94 0070 20079FE5 		ldr	r0, .L30
  95 0074 FEFFFFEB 		bl	chMBPostAhead
  96              	.LVL6:
  97              		.loc 1 97 3 is_stmt 1 view .LVU21
  98 0078 101F6FE1 		clz	r1, r0
  99 007c 0300A0E3 		mov	r0, #3
 100              	.LVL7:
 101              		.loc 1 97 3 is_stmt 0 view .LVU22
 102 0080 A112A0E1 		lsr	r1, r1, #5
 103 0084 FEFFFFEB 		bl	_test_assert
 104              	.LVL8:
 105 0088 000050E3 		cmp	r0, #0
 106 008c 0100000A 		beq	.L29
 107              	.LVL9:
 108              	.L1:
 109              		.loc 1 224 1 view .LVU23
 110 0090 08D08DE2 		add	sp, sp, #8
 111              		.cfi_remember_state
 112              		.cfi_def_cfa_offset 16
 113              		@ sp needed
ARM GAS  /tmp/ccGdBEjb.s 			page 3


 114 0094 7080BDE8 		pop	{r4, r5, r6, pc}
 115              	.LVL10:
 116              	.L29:
 117              		.cfi_restore_state
 118              		.loc 1 97 58 is_stmt 1 discriminator 2 view .LVU24
 119              		.loc 1 102 3 discriminator 2 view .LVU25
 120              		.loc 1 102 10 is_stmt 0 discriminator 2 view .LVU26
 121 0098 0120A0E3 		mov	r2, #1
 122 009c 5810A0E3 		mov	r1, #88
 123 00a0 F0069FE5 		ldr	r0, .L30
 124 00a4 FEFFFFEB 		bl	chMBPost
 125              	.LVL11:
 126 00a8 0010A0E1 		mov	r1, r0
 127              	.LVL12:
 128              		.loc 1 103 3 is_stmt 1 discriminator 2 view .LVU27
 129 00ac 010071E3 		cmn	r1, #1
 130 00b0 0010A013 		movne	r1, #0
 131 00b4 0110A003 		moveq	r1, #1
 132 00b8 0400A0E3 		mov	r0, #4
 133              	.LVL13:
 134              		.loc 1 103 3 is_stmt 0 discriminator 2 view .LVU28
 135 00bc FEFFFFEB 		bl	_test_assert
 136              	.LVL14:
 137 00c0 000050E3 		cmp	r0, #0
 138 00c4 F1FFFF1A 		bne	.L1
 139              		.loc 1 103 63 is_stmt 1 discriminator 2 view .LVU29
 140              		.loc 1 104 3 discriminator 2 view .LVU30
 141              		.syntax divided
 142              	@ 104 "../test/testmbox.c" 1
 143 00c8 9FF021E3 		msr     CPSR_c, #0x9F
 144              	@ 0 "" 2
 145              		.loc 1 104 3 discriminator 2 view .LVU31
 146              		.loc 1 104 14 discriminator 2 view .LVU32
 147              		.loc 1 105 3 discriminator 2 view .LVU33
 148              		.loc 1 105 10 is_stmt 0 discriminator 2 view .LVU34
 149              		.arm
 150              		.syntax unified
 151 00cc 5810A0E3 		mov	r1, #88
 152 00d0 C0069FE5 		ldr	r0, .L30
 153 00d4 FEFFFFEB 		bl	chMBPostI
 154              	.LVL15:
 155 00d8 0010A0E1 		mov	r1, r0
 156              	.LVL16:
 157              		.loc 1 106 3 is_stmt 1 discriminator 2 view .LVU35
 158              		.loc 1 106 3 discriminator 2 view .LVU36
 159              		.syntax divided
 160              	@ 106 "../test/testmbox.c" 1
 161 00dc 1FF021E3 		msr     CPSR_c, #0x1F
 162              	@ 0 "" 2
 163              		.loc 1 106 16 discriminator 2 view .LVU37
 164              		.loc 1 107 3 discriminator 2 view .LVU38
 165              		.arm
 166              		.syntax unified
 167 00e0 010071E3 		cmn	r1, #1
 168 00e4 0010A013 		movne	r1, #0
 169 00e8 0110A003 		moveq	r1, #1
 170 00ec 0500A0E3 		mov	r0, #5
ARM GAS  /tmp/ccGdBEjb.s 			page 4


 171              	.LVL17:
 172              		.loc 1 107 3 is_stmt 0 discriminator 2 view .LVU39
 173 00f0 FEFFFFEB 		bl	_test_assert
 174              	.LVL18:
 175 00f4 000050E3 		cmp	r0, #0
 176 00f8 E4FFFF1A 		bne	.L1
 177              		.loc 1 107 63 is_stmt 1 discriminator 2 view .LVU40
 178              		.loc 1 108 3 discriminator 2 view .LVU41
 179              		.loc 1 108 10 is_stmt 0 discriminator 2 view .LVU42
 180 00fc 0120A0E3 		mov	r2, #1
 181 0100 5810A0E3 		mov	r1, #88
 182 0104 8C069FE5 		ldr	r0, .L30
 183 0108 FEFFFFEB 		bl	chMBPostAhead
 184              	.LVL19:
 185 010c 0010A0E1 		mov	r1, r0
 186              	.LVL20:
 187              		.loc 1 109 3 is_stmt 1 discriminator 2 view .LVU43
 188 0110 010071E3 		cmn	r1, #1
 189 0114 0010A013 		movne	r1, #0
 190 0118 0110A003 		moveq	r1, #1
 191 011c 0600A0E3 		mov	r0, #6
 192              	.LVL21:
 193              		.loc 1 109 3 is_stmt 0 discriminator 2 view .LVU44
 194 0120 FEFFFFEB 		bl	_test_assert
 195              	.LVL22:
 196 0124 000050E3 		cmp	r0, #0
 197 0128 D8FFFF1A 		bne	.L1
 198              		.loc 1 109 63 is_stmt 1 discriminator 2 view .LVU45
 199              		.loc 1 110 3 discriminator 2 view .LVU46
 200              		.syntax divided
 201              	@ 110 "../test/testmbox.c" 1
 202 012c 9FF021E3 		msr     CPSR_c, #0x9F
 203              	@ 0 "" 2
 204              		.loc 1 110 3 discriminator 2 view .LVU47
 205              		.loc 1 110 14 discriminator 2 view .LVU48
 206              		.loc 1 111 3 discriminator 2 view .LVU49
 207              		.loc 1 111 10 is_stmt 0 discriminator 2 view .LVU50
 208              		.arm
 209              		.syntax unified
 210 0130 5810A0E3 		mov	r1, #88
 211 0134 5C069FE5 		ldr	r0, .L30
 212 0138 FEFFFFEB 		bl	chMBPostAheadI
 213              	.LVL23:
 214 013c 0010A0E1 		mov	r1, r0
 215              	.LVL24:
 216              		.loc 1 112 3 is_stmt 1 discriminator 2 view .LVU51
 217              		.loc 1 112 3 discriminator 2 view .LVU52
 218              		.syntax divided
 219              	@ 112 "../test/testmbox.c" 1
 220 0140 1FF021E3 		msr     CPSR_c, #0x1F
 221              	@ 0 "" 2
 222              		.loc 1 112 16 discriminator 2 view .LVU53
 223              		.loc 1 113 3 discriminator 2 view .LVU54
 224              		.arm
 225              		.syntax unified
 226 0144 010071E3 		cmn	r1, #1
 227 0148 0010A013 		movne	r1, #0
ARM GAS  /tmp/ccGdBEjb.s 			page 5


 228 014c 0110A003 		moveq	r1, #1
 229 0150 0700A0E3 		mov	r0, #7
 230              	.LVL25:
 231              		.loc 1 113 3 is_stmt 0 discriminator 2 view .LVU55
 232 0154 FEFFFFEB 		bl	_test_assert
 233              	.LVL26:
 234 0158 000050E3 		cmp	r0, #0
 235 015c CBFFFF1A 		bne	.L1
 236              		.loc 1 113 63 is_stmt 1 discriminator 2 view .LVU56
 237              		.loc 1 118 3 discriminator 2 view .LVU57
 238              		.syntax divided
 239              	@ 118 "../test/testmbox.c" 1
 240 0160 9FF021E3 		msr     CPSR_c, #0x9F
 241              	@ 0 "" 2
 242              		.loc 1 118 3 discriminator 2 view .LVU58
 243              		.loc 1 118 3 discriminator 2 view .LVU59
 244              		.loc 1 118 3 discriminator 2 view .LVU60
 245              		.arm
 246              		.syntax unified
 247 0164 241096E5 		ldr	r1, [r6, #36]
 248 0168 0800A0E3 		mov	r0, #8
 249 016c 111F6FE1 		clz	r1, r1
 250 0170 A112A0E1 		lsr	r1, r1, #5
 251 0174 FEFFFFEB 		bl	_test_assert
 252              	.LVL27:
 253 0178 000050E3 		cmp	r0, #0
 254 017c 8301001A 		bne	.L21
 255              		.loc 1 118 3 discriminator 2 view .LVU61
 256              		.loc 1 118 3 discriminator 2 view .LVU62
 257              		.syntax divided
 258              	@ 118 "../test/testmbox.c" 1
 259 0180 1FF021E3 		msr     CPSR_c, #0x1F
 260              	@ 0 "" 2
 261              		.loc 1 118 3 discriminator 2 view .LVU63
 262              		.loc 1 118 67 discriminator 2 view .LVU64
 263              		.loc 1 119 3 discriminator 2 view .LVU65
 264              	@ 119 "../test/testmbox.c" 1
 265 0184 9FF021E3 		msr     CPSR_c, #0x9F
 266              	@ 0 "" 2
 267              		.loc 1 119 3 discriminator 2 view .LVU66
 268              		.loc 1 119 3 discriminator 2 view .LVU67
 269              		.loc 1 119 3 discriminator 2 view .LVU68
 270              		.arm
 271              		.syntax unified
 272 0188 181096E5 		ldr	r1, [r6, #24]
 273 018c 0900A0E3 		mov	r0, #9
 274 0190 051041E2 		sub	r1, r1, #5
 275 0194 111F6FE1 		clz	r1, r1
 276 0198 A112A0E1 		lsr	r1, r1, #5
 277 019c FEFFFFEB 		bl	_test_assert
 278              	.LVL28:
 279 01a0 000050E3 		cmp	r0, #0
 280 01a4 7901001A 		bne	.L21
 281              		.loc 1 119 3 discriminator 2 view .LVU69
 282              		.loc 1 119 3 discriminator 2 view .LVU70
 283              		.syntax divided
 284              	@ 119 "../test/testmbox.c" 1
ARM GAS  /tmp/ccGdBEjb.s 			page 6


 285 01a8 1FF021E3 		msr     CPSR_c, #0x1F
 286              	@ 0 "" 2
 287              		.loc 1 119 3 discriminator 2 view .LVU71
 288              		.loc 1 119 70 discriminator 2 view .LVU72
 289              		.loc 1 120 3 discriminator 2 view .LVU73
 290              	@ 120 "../test/testmbox.c" 1
 291 01ac 9FF021E3 		msr     CPSR_c, #0x9F
 292              	@ 0 "" 2
 293              		.loc 1 120 3 discriminator 2 view .LVU74
 294              		.loc 1 120 3 discriminator 2 view .LVU75
 295              		.loc 1 120 3 discriminator 2 view .LVU76
 296              		.arm
 297              		.syntax unified
 298 01b0 0C1096E5 		ldr	r1, [r6, #12]
 299 01b4 083096E5 		ldr	r3, [r6, #8]
 300 01b8 0A00A0E3 		mov	r0, #10
 301 01bc 031041E0 		sub	r1, r1, r3
 302 01c0 111F6FE1 		clz	r1, r1
 303 01c4 A112A0E1 		lsr	r1, r1, #5
 304 01c8 FEFFFFEB 		bl	_test_assert
 305              	.LVL29:
 306 01cc 000050E3 		cmp	r0, #0
 307 01d0 6E01001A 		bne	.L21
 308              		.loc 1 120 3 discriminator 2 view .LVU77
 309              		.loc 1 120 3 discriminator 2 view .LVU78
 310              		.syntax divided
 311              	@ 120 "../test/testmbox.c" 1
 312 01d4 1FF021E3 		msr     CPSR_c, #0x1F
 313              	@ 0 "" 2
 314              		.loc 1 120 3 discriminator 2 view .LVU79
 315              		.loc 1 120 77 discriminator 2 view .LVU80
 316              		.loc 1 125 3 discriminator 2 view .LVU81
 317              	.LVL30:
 318              		.loc 1 125 15 discriminator 2 view .LVU82
 319              		.loc 1 120 3 is_stmt 0 discriminator 2 view .LVU83
 320              		.arm
 321              		.syntax unified
 322 01d8 0540A0E3 		mov	r4, #5
 323              		.loc 1 126 12 discriminator 2 view .LVU84
 324 01dc B4559FE5 		ldr	r5, .L30
 325              	.LVL31:
 326              	.L8:
 327              		.loc 1 126 5 is_stmt 1 view .LVU85
 328              		.loc 1 126 12 is_stmt 0 view .LVU86
 329 01e0 0020E0E3 		mvn	r2, #0
 330 01e4 04108DE2 		add	r1, sp, #4
 331 01e8 0500A0E1 		mov	r0, r5
 332 01ec FEFFFFEB 		bl	chMBFetch
 333              	.LVL32:
 334              		.loc 1 127 5 is_stmt 1 view .LVU87
 335 01f0 101F6FE1 		clz	r1, r0
 336 01f4 0B00A0E3 		mov	r0, #11
 337              	.LVL33:
 338              		.loc 1 127 5 is_stmt 0 view .LVU88
 339 01f8 A112A0E1 		lsr	r1, r1, #5
 340 01fc FEFFFFEB 		bl	_test_assert
 341              	.LVL34:
ARM GAS  /tmp/ccGdBEjb.s 			page 7


 342              		.loc 1 127 61 is_stmt 1 view .LVU89
 343              		.loc 1 128 5 view .LVU90
 344              		.loc 1 127 5 is_stmt 0 view .LVU91
 345 0200 000050E3 		cmp	r0, #0
 346 0204 A1FFFF1A 		bne	.L1
 347              		.loc 1 128 5 discriminator 2 view .LVU92
 348 0208 0400DDE5 		ldrb	r0, [sp, #4]	@ zero_extendqisi2
 349 020c FEFFFFEB 		bl	test_emit_token
 350              	.LVL35:
 351              		.loc 1 125 28 is_stmt 1 discriminator 2 view .LVU93
 352              		.loc 1 125 15 discriminator 2 view .LVU94
 353              		.loc 1 125 3 is_stmt 0 discriminator 2 view .LVU95
 354 0210 014054E2 		subs	r4, r4, #1
 355              	.LVL36:
 356              		.loc 1 125 3 discriminator 2 view .LVU96
 357 0214 F1FFFF1A 		bne	.L8
 358              		.loc 1 130 3 is_stmt 1 view .LVU97
 359 0218 0C00A0E3 		mov	r0, #12
 360 021c 78159FE5 		ldr	r1, .L30+4
 361 0220 FEFFFFEB 		bl	_test_assert_sequence
 362              	.LVL37:
 363 0224 000050E3 		cmp	r0, #0
 364 0228 98FFFF1A 		bne	.L1
 365              		.loc 1 130 36 discriminator 2 view .LVU98
 366              		.loc 1 135 3 discriminator 2 view .LVU99
 367              		.loc 1 135 10 is_stmt 0 discriminator 2 view .LVU100
 368 022c 0020E0E3 		mvn	r2, #0
 369 0230 4710A0E3 		mov	r1, #71
 370 0234 5C059FE5 		ldr	r0, .L30
 371 0238 FEFFFFEB 		bl	chMBPost
 372              	.LVL38:
 373              		.loc 1 136 3 is_stmt 1 discriminator 2 view .LVU101
 374 023c 101F6FE1 		clz	r1, r0
 375 0240 0D00A0E3 		mov	r0, #13
 376              	.LVL39:
 377              		.loc 1 136 3 is_stmt 0 discriminator 2 view .LVU102
 378 0244 A112A0E1 		lsr	r1, r1, #5
 379 0248 FEFFFFEB 		bl	_test_assert
 380              	.LVL40:
 381 024c 000050E3 		cmp	r0, #0
 382 0250 8EFFFF1A 		bne	.L1
 383              		.loc 1 136 59 is_stmt 1 discriminator 2 view .LVU103
 384              		.loc 1 137 3 discriminator 2 view .LVU104
 385              		.loc 1 137 10 is_stmt 0 discriminator 2 view .LVU105
 386 0254 0020E0E3 		mvn	r2, #0
 387 0258 04108DE2 		add	r1, sp, #4
 388 025c 34059FE5 		ldr	r0, .L30
 389 0260 FEFFFFEB 		bl	chMBFetch
 390              	.LVL41:
 391              		.loc 1 138 3 is_stmt 1 discriminator 2 view .LVU106
 392 0264 101F6FE1 		clz	r1, r0
 393 0268 0E00A0E3 		mov	r0, #14
 394              	.LVL42:
 395              		.loc 1 138 3 is_stmt 0 discriminator 2 view .LVU107
 396 026c A112A0E1 		lsr	r1, r1, #5
 397 0270 FEFFFFEB 		bl	_test_assert
 398              	.LVL43:
ARM GAS  /tmp/ccGdBEjb.s 			page 8


 399 0274 000050E3 		cmp	r0, #0
 400 0278 84FFFF1A 		bne	.L1
 401              		.loc 1 138 59 is_stmt 1 discriminator 2 view .LVU108
 402              		.loc 1 139 3 discriminator 2 view .LVU109
 403 027c 001096E5 		ldr	r1, [r6]
 404 0280 083096E5 		ldr	r3, [r6, #8]
 405 0284 0F00A0E3 		mov	r0, #15
 406 0288 031041E0 		sub	r1, r1, r3
 407 028c 111F6FE1 		clz	r1, r1
 408 0290 A112A0E1 		lsr	r1, r1, #5
 409 0294 FEFFFFEB 		bl	_test_assert
 410              	.LVL44:
 411 0298 000050E3 		cmp	r0, #0
 412 029c 7BFFFF1A 		bne	.L1
 413              		.loc 1 139 86 discriminator 2 view .LVU110
 414              		.loc 1 140 3 discriminator 2 view .LVU111
 415 02a0 001096E5 		ldr	r1, [r6]
 416 02a4 0C3096E5 		ldr	r3, [r6, #12]
 417 02a8 1000A0E3 		mov	r0, #16
 418 02ac 031041E0 		sub	r1, r1, r3
 419 02b0 111F6FE1 		clz	r1, r1
 420 02b4 A112A0E1 		lsr	r1, r1, #5
 421 02b8 FEFFFFEB 		bl	_test_assert
 422              	.LVL45:
 423 02bc 000050E3 		cmp	r0, #0
 424 02c0 72FFFF1A 		bne	.L1
 425              		.loc 1 140 85 discriminator 2 view .LVU112
 426              		.loc 1 145 3 discriminator 2 view .LVU113
 427              		.loc 1 145 10 is_stmt 0 discriminator 2 view .LVU114
 428 02c4 0120A0E3 		mov	r2, #1
 429 02c8 04108DE2 		add	r1, sp, #4
 430 02cc C4049FE5 		ldr	r0, .L30
 431 02d0 FEFFFFEB 		bl	chMBFetch
 432              	.LVL46:
 433 02d4 0010A0E1 		mov	r1, r0
 434              	.LVL47:
 435              		.loc 1 146 3 is_stmt 1 discriminator 2 view .LVU115
 436 02d8 010071E3 		cmn	r1, #1
 437 02dc 0010A013 		movne	r1, #0
 438 02e0 0110A003 		moveq	r1, #1
 439 02e4 1100A0E3 		mov	r0, #17
 440              	.LVL48:
 441              		.loc 1 146 3 is_stmt 0 discriminator 2 view .LVU116
 442 02e8 FEFFFFEB 		bl	_test_assert
 443              	.LVL49:
 444 02ec 000050E3 		cmp	r0, #0
 445 02f0 66FFFF1A 		bne	.L1
 446              		.loc 1 146 64 is_stmt 1 discriminator 2 view .LVU117
 447              		.loc 1 147 3 discriminator 2 view .LVU118
 448              		.syntax divided
 449              	@ 147 "../test/testmbox.c" 1
 450 02f4 9FF021E3 		msr     CPSR_c, #0x9F
 451              	@ 0 "" 2
 452              		.loc 1 147 3 discriminator 2 view .LVU119
 453              		.loc 1 147 14 discriminator 2 view .LVU120
 454              		.loc 1 148 3 discriminator 2 view .LVU121
 455              		.loc 1 148 10 is_stmt 0 discriminator 2 view .LVU122
ARM GAS  /tmp/ccGdBEjb.s 			page 9


 456              		.arm
 457              		.syntax unified
 458 02f8 98049FE5 		ldr	r0, .L30
 459 02fc 04108DE2 		add	r1, sp, #4
 460 0300 FEFFFFEB 		bl	chMBFetchI
 461              	.LVL50:
 462 0304 0010A0E1 		mov	r1, r0
 463              	.LVL51:
 464              		.loc 1 149 3 is_stmt 1 discriminator 2 view .LVU123
 465              		.loc 1 149 3 discriminator 2 view .LVU124
 466              		.syntax divided
 467              	@ 149 "../test/testmbox.c" 1
 468 0308 1FF021E3 		msr     CPSR_c, #0x1F
 469              	@ 0 "" 2
 470              		.loc 1 149 16 discriminator 2 view .LVU125
 471              		.loc 1 150 3 discriminator 2 view .LVU126
 472              		.arm
 473              		.syntax unified
 474 030c 010071E3 		cmn	r1, #1
 475 0310 0010A013 		movne	r1, #0
 476 0314 0110A003 		moveq	r1, #1
 477 0318 1200A0E3 		mov	r0, #18
 478              	.LVL52:
 479              		.loc 1 150 3 is_stmt 0 discriminator 2 view .LVU127
 480 031c FEFFFFEB 		bl	_test_assert
 481              	.LVL53:
 482 0320 000050E3 		cmp	r0, #0
 483 0324 59FFFF1A 		bne	.L1
 484              		.loc 1 150 64 is_stmt 1 discriminator 2 view .LVU128
 485              		.loc 1 155 3 discriminator 2 view .LVU129
 486              		.syntax divided
 487              	@ 155 "../test/testmbox.c" 1
 488 0328 9FF021E3 		msr     CPSR_c, #0x9F
 489              	@ 0 "" 2
 490              		.loc 1 155 3 discriminator 2 view .LVU130
 491              		.loc 1 155 3 discriminator 2 view .LVU131
 492              		.loc 1 155 3 discriminator 2 view .LVU132
 493              		.arm
 494              		.syntax unified
 495 032c 241096E5 		ldr	r1, [r6, #36]
 496 0330 1300A0E3 		mov	r0, #19
 497 0334 051041E2 		sub	r1, r1, #5
 498 0338 111F6FE1 		clz	r1, r1
 499 033c A112A0E1 		lsr	r1, r1, #5
 500 0340 FEFFFFEB 		bl	_test_assert
 501              	.LVL54:
 502 0344 000050E3 		cmp	r0, #0
 503 0348 1001001A 		bne	.L21
 504              		.loc 1 155 3 discriminator 2 view .LVU133
 505              		.loc 1 155 3 discriminator 2 view .LVU134
 506              		.syntax divided
 507              	@ 155 "../test/testmbox.c" 1
 508 034c 1FF021E3 		msr     CPSR_c, #0x1F
 509              	@ 0 "" 2
 510              		.loc 1 155 3 discriminator 2 view .LVU135
 511              		.loc 1 155 72 discriminator 2 view .LVU136
 512              		.loc 1 156 3 discriminator 2 view .LVU137
ARM GAS  /tmp/ccGdBEjb.s 			page 10


 513              	@ 156 "../test/testmbox.c" 1
 514 0350 9FF021E3 		msr     CPSR_c, #0x9F
 515              	@ 0 "" 2
 516              		.loc 1 156 3 discriminator 2 view .LVU138
 517              		.loc 1 156 3 discriminator 2 view .LVU139
 518              		.loc 1 156 3 discriminator 2 view .LVU140
 519              		.arm
 520              		.syntax unified
 521 0354 181096E5 		ldr	r1, [r6, #24]
 522 0358 1400A0E3 		mov	r0, #20
 523 035c 111F6FE1 		clz	r1, r1
 524 0360 A112A0E1 		lsr	r1, r1, #5
 525 0364 FEFFFFEB 		bl	_test_assert
 526              	.LVL55:
 527 0368 000050E3 		cmp	r0, #0
 528 036c 0701001A 		bne	.L21
 529              		.loc 1 156 3 discriminator 2 view .LVU141
 530              		.loc 1 156 3 discriminator 2 view .LVU142
 531              		.syntax divided
 532              	@ 156 "../test/testmbox.c" 1
 533 0370 1FF021E3 		msr     CPSR_c, #0x1F
 534              	@ 0 "" 2
 535              		.loc 1 156 3 discriminator 2 view .LVU143
 536              		.loc 1 156 67 discriminator 2 view .LVU144
 537              		.loc 1 157 3 discriminator 2 view .LVU145
 538              	@ 157 "../test/testmbox.c" 1
 539 0374 9FF021E3 		msr     CPSR_c, #0x9F
 540              	@ 0 "" 2
 541              		.loc 1 157 3 discriminator 2 view .LVU146
 542              		.loc 1 157 3 discriminator 2 view .LVU147
 543              		.loc 1 157 3 discriminator 2 view .LVU148
 544              		.arm
 545              		.syntax unified
 546 0378 0C1096E5 		ldr	r1, [r6, #12]
 547 037c 083096E5 		ldr	r3, [r6, #8]
 548 0380 1500A0E3 		mov	r0, #21
 549 0384 031041E0 		sub	r1, r1, r3
 550 0388 111F6FE1 		clz	r1, r1
 551 038c A112A0E1 		lsr	r1, r1, #5
 552 0390 FEFFFFEB 		bl	_test_assert
 553              	.LVL56:
 554 0394 000050E3 		cmp	r0, #0
 555 0398 FC00001A 		bne	.L21
 556              		.loc 1 157 3 discriminator 2 view .LVU149
 557              		.loc 1 157 3 discriminator 2 view .LVU150
 558              		.syntax divided
 559              	@ 157 "../test/testmbox.c" 1
 560 039c 1FF021E3 		msr     CPSR_c, #0x1F
 561              	@ 0 "" 2
 562              		.loc 1 157 3 discriminator 2 view .LVU151
 563              		.loc 1 157 77 discriminator 2 view .LVU152
 564              		.loc 1 162 3 discriminator 2 view .LVU153
 565              	@ 162 "../test/testmbox.c" 1
 566 03a0 9FF021E3 		msr     CPSR_c, #0x9F
 567              	@ 0 "" 2
 568              		.loc 1 162 3 discriminator 2 view .LVU154
 569              		.loc 1 163 3 discriminator 2 view .LVU155
ARM GAS  /tmp/ccGdBEjb.s 			page 11


 570              		.loc 1 163 10 is_stmt 0 discriminator 2 view .LVU156
 571              		.arm
 572              		.syntax unified
 573 03a4 4110A0E3 		mov	r1, #65
 574 03a8 E8039FE5 		ldr	r0, .L30
 575 03ac FEFFFFEB 		bl	chMBPostI
 576              	.LVL57:
 577              		.loc 1 164 3 is_stmt 1 discriminator 2 view .LVU157
 578 03b0 101F6FE1 		clz	r1, r0
 579 03b4 1600A0E3 		mov	r0, #22
 580              	.LVL58:
 581              		.loc 1 164 3 is_stmt 0 discriminator 2 view .LVU158
 582 03b8 A112A0E1 		lsr	r1, r1, #5
 583 03bc FEFFFFEB 		bl	_test_assert
 584              	.LVL59:
 585 03c0 000050E3 		cmp	r0, #0
 586 03c4 31FFFF1A 		bne	.L1
 587              		.loc 1 164 59 is_stmt 1 discriminator 2 view .LVU159
 588              		.loc 1 165 3 discriminator 2 view .LVU160
 589              		.loc 1 165 10 is_stmt 0 discriminator 2 view .LVU161
 590 03c8 4210A0E3 		mov	r1, #66
 591 03cc C4039FE5 		ldr	r0, .L30
 592 03d0 FEFFFFEB 		bl	chMBPostI
 593              	.LVL60:
 594              		.loc 1 166 3 is_stmt 1 discriminator 2 view .LVU162
 595 03d4 101F6FE1 		clz	r1, r0
 596 03d8 1700A0E3 		mov	r0, #23
 597              	.LVL61:
 598              		.loc 1 166 3 is_stmt 0 discriminator 2 view .LVU163
 599 03dc A112A0E1 		lsr	r1, r1, #5
 600 03e0 FEFFFFEB 		bl	_test_assert
 601              	.LVL62:
 602 03e4 000050E3 		cmp	r0, #0
 603 03e8 28FFFF1A 		bne	.L1
 604              		.loc 1 166 59 is_stmt 1 discriminator 2 view .LVU164
 605              		.loc 1 167 3 discriminator 2 view .LVU165
 606              		.loc 1 167 10 is_stmt 0 discriminator 2 view .LVU166
 607 03ec 4310A0E3 		mov	r1, #67
 608 03f0 A0039FE5 		ldr	r0, .L30
 609 03f4 FEFFFFEB 		bl	chMBPostI
 610              	.LVL63:
 611              		.loc 1 168 3 is_stmt 1 discriminator 2 view .LVU167
 612 03f8 101F6FE1 		clz	r1, r0
 613 03fc 1800A0E3 		mov	r0, #24
 614              	.LVL64:
 615              		.loc 1 168 3 is_stmt 0 discriminator 2 view .LVU168
 616 0400 A112A0E1 		lsr	r1, r1, #5
 617 0404 FEFFFFEB 		bl	_test_assert
 618              	.LVL65:
 619 0408 000050E3 		cmp	r0, #0
 620 040c 1FFFFF1A 		bne	.L1
 621              		.loc 1 168 59 is_stmt 1 discriminator 2 view .LVU169
 622              		.loc 1 169 3 discriminator 2 view .LVU170
 623              		.loc 1 169 10 is_stmt 0 discriminator 2 view .LVU171
 624 0410 4410A0E3 		mov	r1, #68
 625 0414 7C039FE5 		ldr	r0, .L30
 626 0418 FEFFFFEB 		bl	chMBPostI
ARM GAS  /tmp/ccGdBEjb.s 			page 12


 627              	.LVL66:
 628              		.loc 1 170 3 is_stmt 1 discriminator 2 view .LVU172
 629 041c 101F6FE1 		clz	r1, r0
 630 0420 1900A0E3 		mov	r0, #25
 631              	.LVL67:
 632              		.loc 1 170 3 is_stmt 0 discriminator 2 view .LVU173
 633 0424 A112A0E1 		lsr	r1, r1, #5
 634 0428 FEFFFFEB 		bl	_test_assert
 635              	.LVL68:
 636 042c 000050E3 		cmp	r0, #0
 637 0430 16FFFF1A 		bne	.L1
 638              		.loc 1 170 59 is_stmt 1 discriminator 2 view .LVU174
 639              		.loc 1 171 3 discriminator 2 view .LVU175
 640              		.loc 1 171 10 is_stmt 0 discriminator 2 view .LVU176
 641 0434 4510A0E3 		mov	r1, #69
 642 0438 58039FE5 		ldr	r0, .L30
 643 043c FEFFFFEB 		bl	chMBPostI
 644              	.LVL69:
 645              		.loc 1 172 3 is_stmt 1 discriminator 2 view .LVU177
 646              		.loc 1 172 3 discriminator 2 view .LVU178
 647              		.syntax divided
 648              	@ 172 "../test/testmbox.c" 1
 649 0440 1FF021E3 		msr     CPSR_c, #0x1F
 650              	@ 0 "" 2
 651              		.loc 1 173 3 discriminator 2 view .LVU179
 652              		.arm
 653              		.syntax unified
 654 0444 101F6FE1 		clz	r1, r0
 655 0448 1A00A0E3 		mov	r0, #26
 656              	.LVL70:
 657              		.loc 1 173 3 is_stmt 0 discriminator 2 view .LVU180
 658 044c A112A0E1 		lsr	r1, r1, #5
 659 0450 FEFFFFEB 		bl	_test_assert
 660              	.LVL71:
 661 0454 000050E3 		cmp	r0, #0
 662 0458 0CFFFF1A 		bne	.L1
 663              		.loc 1 173 59 is_stmt 1 discriminator 2 view .LVU181
 664              		.loc 1 174 3 discriminator 2 view .LVU182
 665 045c 0C1096E5 		ldr	r1, [r6, #12]
 666 0460 083096E5 		ldr	r3, [r6, #8]
 667 0464 1B00A0E3 		mov	r0, #27
 668 0468 031041E0 		sub	r1, r1, r3
 669 046c 111F6FE1 		clz	r1, r1
 670 0470 A112A0E1 		lsr	r1, r1, #5
 671 0474 FEFFFFEB 		bl	_test_assert
 672              	.LVL72:
 673 0478 000050E3 		cmp	r0, #0
 674 047c 03FFFF1A 		bne	.L1
 675 0480 0540A0E3 		mov	r4, #5
 676              	.LVL73:
 677              		.loc 1 177 12 is_stmt 0 view .LVU183
 678 0484 0C539FE5 		ldr	r5, .L30
 679              	.L12:
 680              	.LVL74:
 681              		.loc 1 176 5 is_stmt 1 view .LVU184
 682              		.syntax divided
 683              	@ 176 "../test/testmbox.c" 1
ARM GAS  /tmp/ccGdBEjb.s 			page 13


 684 0488 9FF021E3 		msr     CPSR_c, #0x9F
 685              	@ 0 "" 2
 686              		.loc 1 176 5 view .LVU185
 687              		.loc 1 176 16 view .LVU186
 688              		.loc 1 177 5 view .LVU187
 689              		.loc 1 177 12 is_stmt 0 view .LVU188
 690              		.arm
 691              		.syntax unified
 692 048c 0500A0E1 		mov	r0, r5
 693 0490 04108DE2 		add	r1, sp, #4
 694 0494 FEFFFFEB 		bl	chMBFetchI
 695              	.LVL75:
 696              		.loc 1 178 5 is_stmt 1 view .LVU189
 697              		.loc 1 178 5 view .LVU190
 698              		.syntax divided
 699              	@ 178 "../test/testmbox.c" 1
 700 0498 1FF021E3 		msr     CPSR_c, #0x1F
 701              	@ 0 "" 2
 702              		.loc 1 178 18 view .LVU191
 703              		.loc 1 179 5 view .LVU192
 704              		.arm
 705              		.syntax unified
 706 049c 101F6FE1 		clz	r1, r0
 707 04a0 1C00A0E3 		mov	r0, #28
 708              	.LVL76:
 709              		.loc 1 179 5 is_stmt 0 view .LVU193
 710 04a4 A112A0E1 		lsr	r1, r1, #5
 711 04a8 FEFFFFEB 		bl	_test_assert
 712              	.LVL77:
 713              		.loc 1 179 61 is_stmt 1 view .LVU194
 714              		.loc 1 180 5 view .LVU195
 715              		.loc 1 179 5 is_stmt 0 view .LVU196
 716 04ac 000050E3 		cmp	r0, #0
 717 04b0 F6FEFF1A 		bne	.L1
 718              		.loc 1 180 5 discriminator 2 view .LVU197
 719 04b4 0400DDE5 		ldrb	r0, [sp, #4]	@ zero_extendqisi2
 720 04b8 FEFFFFEB 		bl	test_emit_token
 721              	.LVL78:
 722              		.loc 1 175 28 is_stmt 1 discriminator 2 view .LVU198
 723              		.loc 1 175 15 discriminator 2 view .LVU199
 724              		.loc 1 175 3 is_stmt 0 discriminator 2 view .LVU200
 725 04bc 014054E2 		subs	r4, r4, #1
 726              	.LVL79:
 727              		.loc 1 175 3 discriminator 2 view .LVU201
 728 04c0 F0FFFF1A 		bne	.L12
 729              		.loc 1 182 3 is_stmt 1 view .LVU202
 730 04c4 1D00A0E3 		mov	r0, #29
 731 04c8 CC129FE5 		ldr	r1, .L30+4
 732 04cc FEFFFFEB 		bl	_test_assert_sequence
 733              	.LVL80:
 734 04d0 000050E3 		cmp	r0, #0
 735 04d4 EDFEFF1A 		bne	.L1
 736              		.loc 1 182 36 discriminator 2 view .LVU203
 737              		.loc 1 183 3 discriminator 2 view .LVU204
 738              		.syntax divided
 739              	@ 183 "../test/testmbox.c" 1
 740 04d8 9FF021E3 		msr     CPSR_c, #0x9F
ARM GAS  /tmp/ccGdBEjb.s 			page 14


 741              	@ 0 "" 2
 742              		.loc 1 183 3 discriminator 2 view .LVU205
 743              		.loc 1 183 3 discriminator 2 view .LVU206
 744              		.loc 1 183 3 discriminator 2 view .LVU207
 745              		.arm
 746              		.syntax unified
 747 04dc 241096E5 		ldr	r1, [r6, #36]
 748 04e0 1E00A0E3 		mov	r0, #30
 749 04e4 051041E2 		sub	r1, r1, #5
 750 04e8 111F6FE1 		clz	r1, r1
 751 04ec A112A0E1 		lsr	r1, r1, #5
 752 04f0 FEFFFFEB 		bl	_test_assert
 753              	.LVL81:
 754 04f4 000050E3 		cmp	r0, #0
 755 04f8 A400001A 		bne	.L21
 756              		.loc 1 183 3 discriminator 2 view .LVU208
 757              		.loc 1 183 3 discriminator 2 view .LVU209
 758              		.syntax divided
 759              	@ 183 "../test/testmbox.c" 1
 760 04fc 1FF021E3 		msr     CPSR_c, #0x1F
 761              	@ 0 "" 2
 762              		.loc 1 183 3 discriminator 2 view .LVU210
 763              		.loc 1 183 72 discriminator 2 view .LVU211
 764              		.loc 1 184 3 discriminator 2 view .LVU212
 765              	@ 184 "../test/testmbox.c" 1
 766 0500 9FF021E3 		msr     CPSR_c, #0x9F
 767              	@ 0 "" 2
 768              		.loc 1 184 3 discriminator 2 view .LVU213
 769              		.loc 1 184 3 discriminator 2 view .LVU214
 770              		.loc 1 184 3 discriminator 2 view .LVU215
 771              		.arm
 772              		.syntax unified
 773 0504 181096E5 		ldr	r1, [r6, #24]
 774 0508 1F00A0E3 		mov	r0, #31
 775 050c 111F6FE1 		clz	r1, r1
 776 0510 A112A0E1 		lsr	r1, r1, #5
 777 0514 FEFFFFEB 		bl	_test_assert
 778              	.LVL82:
 779 0518 000050E3 		cmp	r0, #0
 780 051c 9B00001A 		bne	.L21
 781              		.loc 1 184 3 discriminator 2 view .LVU216
 782              		.loc 1 184 3 discriminator 2 view .LVU217
 783              		.syntax divided
 784              	@ 184 "../test/testmbox.c" 1
 785 0520 1FF021E3 		msr     CPSR_c, #0x1F
 786              	@ 0 "" 2
 787              		.loc 1 184 3 discriminator 2 view .LVU218
 788              		.loc 1 184 67 discriminator 2 view .LVU219
 789              		.loc 1 185 3 discriminator 2 view .LVU220
 790              		.arm
 791              		.syntax unified
 792 0524 0C1096E5 		ldr	r1, [r6, #12]
 793 0528 083096E5 		ldr	r3, [r6, #8]
 794 052c 2000A0E3 		mov	r0, #32
 795 0530 031041E0 		sub	r1, r1, r3
 796 0534 111F6FE1 		clz	r1, r1
 797 0538 A112A0E1 		lsr	r1, r1, #5
ARM GAS  /tmp/ccGdBEjb.s 			page 15


 798 053c FEFFFFEB 		bl	_test_assert
 799              	.LVL83:
 800 0540 000050E3 		cmp	r0, #0
 801 0544 D1FEFF1A 		bne	.L1
 802              		.loc 1 185 72 discriminator 2 view .LVU221
 803              		.loc 1 187 3 discriminator 2 view .LVU222
 804              		.syntax divided
 805              	@ 187 "../test/testmbox.c" 1
 806 0548 9FF021E3 		msr     CPSR_c, #0x9F
 807              	@ 0 "" 2
 808              		.loc 1 187 3 discriminator 2 view .LVU223
 809              		.loc 1 187 14 discriminator 2 view .LVU224
 810              		.loc 1 188 3 discriminator 2 view .LVU225
 811              		.loc 1 188 10 is_stmt 0 discriminator 2 view .LVU226
 812              		.arm
 813              		.syntax unified
 814 054c 4510A0E3 		mov	r1, #69
 815 0550 40029FE5 		ldr	r0, .L30
 816 0554 FEFFFFEB 		bl	chMBPostAheadI
 817              	.LVL84:
 818              		.loc 1 189 3 is_stmt 1 discriminator 2 view .LVU227
 819 0558 101F6FE1 		clz	r1, r0
 820 055c 2100A0E3 		mov	r0, #33
 821              	.LVL85:
 822              		.loc 1 189 3 is_stmt 0 discriminator 2 view .LVU228
 823 0560 A112A0E1 		lsr	r1, r1, #5
 824 0564 FEFFFFEB 		bl	_test_assert
 825              	.LVL86:
 826 0568 000050E3 		cmp	r0, #0
 827 056c C7FEFF1A 		bne	.L1
 828              		.loc 1 189 59 is_stmt 1 discriminator 2 view .LVU229
 829              		.loc 1 190 3 discriminator 2 view .LVU230
 830              		.loc 1 190 10 is_stmt 0 discriminator 2 view .LVU231
 831 0570 4410A0E3 		mov	r1, #68
 832 0574 1C029FE5 		ldr	r0, .L30
 833 0578 FEFFFFEB 		bl	chMBPostAheadI
 834              	.LVL87:
 835              		.loc 1 191 3 is_stmt 1 discriminator 2 view .LVU232
 836 057c 101F6FE1 		clz	r1, r0
 837 0580 2200A0E3 		mov	r0, #34
 838              	.LVL88:
 839              		.loc 1 191 3 is_stmt 0 discriminator 2 view .LVU233
 840 0584 A112A0E1 		lsr	r1, r1, #5
 841 0588 FEFFFFEB 		bl	_test_assert
 842              	.LVL89:
 843 058c 000050E3 		cmp	r0, #0
 844 0590 BEFEFF1A 		bne	.L1
 845              		.loc 1 191 59 is_stmt 1 discriminator 2 view .LVU234
 846              		.loc 1 192 3 discriminator 2 view .LVU235
 847              		.loc 1 192 10 is_stmt 0 discriminator 2 view .LVU236
 848 0594 4310A0E3 		mov	r1, #67
 849 0598 F8019FE5 		ldr	r0, .L30
 850 059c FEFFFFEB 		bl	chMBPostAheadI
 851              	.LVL90:
 852              		.loc 1 193 3 is_stmt 1 discriminator 2 view .LVU237
 853 05a0 101F6FE1 		clz	r1, r0
 854 05a4 2300A0E3 		mov	r0, #35
ARM GAS  /tmp/ccGdBEjb.s 			page 16


 855              	.LVL91:
 856              		.loc 1 193 3 is_stmt 0 discriminator 2 view .LVU238
 857 05a8 A112A0E1 		lsr	r1, r1, #5
 858 05ac FEFFFFEB 		bl	_test_assert
 859              	.LVL92:
 860 05b0 000050E3 		cmp	r0, #0
 861 05b4 B5FEFF1A 		bne	.L1
 862              		.loc 1 193 59 is_stmt 1 discriminator 2 view .LVU239
 863              		.loc 1 194 3 discriminator 2 view .LVU240
 864              		.loc 1 194 10 is_stmt 0 discriminator 2 view .LVU241
 865 05b8 4210A0E3 		mov	r1, #66
 866 05bc D4019FE5 		ldr	r0, .L30
 867 05c0 FEFFFFEB 		bl	chMBPostAheadI
 868              	.LVL93:
 869              		.loc 1 195 3 is_stmt 1 discriminator 2 view .LVU242
 870 05c4 101F6FE1 		clz	r1, r0
 871 05c8 2400A0E3 		mov	r0, #36
 872              	.LVL94:
 873              		.loc 1 195 3 is_stmt 0 discriminator 2 view .LVU243
 874 05cc A112A0E1 		lsr	r1, r1, #5
 875 05d0 FEFFFFEB 		bl	_test_assert
 876              	.LVL95:
 877 05d4 000050E3 		cmp	r0, #0
 878 05d8 ACFEFF1A 		bne	.L1
 879              		.loc 1 195 59 is_stmt 1 discriminator 2 view .LVU244
 880              		.loc 1 196 3 discriminator 2 view .LVU245
 881              		.loc 1 196 10 is_stmt 0 discriminator 2 view .LVU246
 882 05dc 4110A0E3 		mov	r1, #65
 883 05e0 B0019FE5 		ldr	r0, .L30
 884 05e4 FEFFFFEB 		bl	chMBPostAheadI
 885              	.LVL96:
 886              		.loc 1 197 3 is_stmt 1 discriminator 2 view .LVU247
 887              		.loc 1 197 3 discriminator 2 view .LVU248
 888              		.syntax divided
 889              	@ 197 "../test/testmbox.c" 1
 890 05e8 1FF021E3 		msr     CPSR_c, #0x1F
 891              	@ 0 "" 2
 892              		.loc 1 197 16 discriminator 2 view .LVU249
 893              		.loc 1 198 3 discriminator 2 view .LVU250
 894              		.arm
 895              		.syntax unified
 896 05ec 101F6FE1 		clz	r1, r0
 897 05f0 2500A0E3 		mov	r0, #37
 898              	.LVL97:
 899              		.loc 1 198 3 is_stmt 0 discriminator 2 view .LVU251
 900 05f4 A112A0E1 		lsr	r1, r1, #5
 901 05f8 FEFFFFEB 		bl	_test_assert
 902              	.LVL98:
 903 05fc 000050E3 		cmp	r0, #0
 904 0600 A2FEFF1A 		bne	.L1
 905              		.loc 1 198 59 is_stmt 1 discriminator 2 view .LVU252
 906              		.loc 1 199 3 discriminator 2 view .LVU253
 907 0604 0C1096E5 		ldr	r1, [r6, #12]
 908 0608 083096E5 		ldr	r3, [r6, #8]
 909 060c 2600A0E3 		mov	r0, #38
 910 0610 031041E0 		sub	r1, r1, r3
 911 0614 111F6FE1 		clz	r1, r1
ARM GAS  /tmp/ccGdBEjb.s 			page 17


 912 0618 A112A0E1 		lsr	r1, r1, #5
 913 061c FEFFFFEB 		bl	_test_assert
 914              	.LVL99:
 915 0620 000050E3 		cmp	r0, #0
 916 0624 99FEFF1A 		bne	.L1
 917 0628 0540A0E3 		mov	r4, #5
 918              	.LVL100:
 919              		.loc 1 202 12 is_stmt 0 view .LVU254
 920 062c 64519FE5 		ldr	r5, .L30
 921              	.L15:
 922              	.LVL101:
 923              		.loc 1 201 5 is_stmt 1 view .LVU255
 924              		.syntax divided
 925              	@ 201 "../test/testmbox.c" 1
 926 0630 9FF021E3 		msr     CPSR_c, #0x9F
 927              	@ 0 "" 2
 928              		.loc 1 201 5 view .LVU256
 929              		.loc 1 201 16 view .LVU257
 930              		.loc 1 202 5 view .LVU258
 931              		.loc 1 202 12 is_stmt 0 view .LVU259
 932              		.arm
 933              		.syntax unified
 934 0634 0500A0E1 		mov	r0, r5
 935 0638 04108DE2 		add	r1, sp, #4
 936 063c FEFFFFEB 		bl	chMBFetchI
 937              	.LVL102:
 938              		.loc 1 203 5 is_stmt 1 view .LVU260
 939              		.loc 1 203 5 view .LVU261
 940              		.syntax divided
 941              	@ 203 "../test/testmbox.c" 1
 942 0640 1FF021E3 		msr     CPSR_c, #0x1F
 943              	@ 0 "" 2
 944              		.loc 1 203 18 view .LVU262
 945              		.loc 1 204 5 view .LVU263
 946              		.arm
 947              		.syntax unified
 948 0644 101F6FE1 		clz	r1, r0
 949 0648 2700A0E3 		mov	r0, #39
 950              	.LVL103:
 951              		.loc 1 204 5 is_stmt 0 view .LVU264
 952 064c A112A0E1 		lsr	r1, r1, #5
 953 0650 FEFFFFEB 		bl	_test_assert
 954              	.LVL104:
 955              		.loc 1 204 61 is_stmt 1 view .LVU265
 956              		.loc 1 205 5 view .LVU266
 957              		.loc 1 204 5 is_stmt 0 view .LVU267
 958 0654 000050E3 		cmp	r0, #0
 959 0658 8CFEFF1A 		bne	.L1
 960              		.loc 1 205 5 discriminator 2 view .LVU268
 961 065c 0400DDE5 		ldrb	r0, [sp, #4]	@ zero_extendqisi2
 962 0660 FEFFFFEB 		bl	test_emit_token
 963              	.LVL105:
 964              		.loc 1 200 28 is_stmt 1 discriminator 2 view .LVU269
 965              		.loc 1 200 15 discriminator 2 view .LVU270
 966              		.loc 1 200 3 is_stmt 0 discriminator 2 view .LVU271
 967 0664 014054E2 		subs	r4, r4, #1
 968              	.LVL106:
ARM GAS  /tmp/ccGdBEjb.s 			page 18


 969              		.loc 1 200 3 discriminator 2 view .LVU272
 970 0668 F0FFFF1A 		bne	.L15
 971              		.loc 1 207 3 is_stmt 1 view .LVU273
 972 066c 2800A0E3 		mov	r0, #40
 973 0670 24119FE5 		ldr	r1, .L30+4
 974 0674 FEFFFFEB 		bl	_test_assert_sequence
 975              	.LVL107:
 976 0678 000050E3 		cmp	r0, #0
 977 067c 83FEFF1A 		bne	.L1
 978              		.loc 1 207 36 discriminator 2 view .LVU274
 979              		.loc 1 208 3 discriminator 2 view .LVU275
 980              		.syntax divided
 981              	@ 208 "../test/testmbox.c" 1
 982 0680 9FF021E3 		msr     CPSR_c, #0x9F
 983              	@ 0 "" 2
 984              		.loc 1 208 3 discriminator 2 view .LVU276
 985              		.loc 1 208 3 discriminator 2 view .LVU277
 986              		.loc 1 208 3 discriminator 2 view .LVU278
 987              		.arm
 988              		.syntax unified
 989 0684 241096E5 		ldr	r1, [r6, #36]
 990 0688 2900A0E3 		mov	r0, #41
 991 068c 051041E2 		sub	r1, r1, #5
 992 0690 111F6FE1 		clz	r1, r1
 993 0694 A112A0E1 		lsr	r1, r1, #5
 994 0698 FEFFFFEB 		bl	_test_assert
 995              	.LVL108:
 996 069c 000050E3 		cmp	r0, #0
 997 06a0 3A00001A 		bne	.L21
 998              		.loc 1 208 3 discriminator 2 view .LVU279
 999              		.loc 1 208 3 discriminator 2 view .LVU280
 1000              		.syntax divided
 1001              	@ 208 "../test/testmbox.c" 1
 1002 06a4 1FF021E3 		msr     CPSR_c, #0x1F
 1003              	@ 0 "" 2
 1004              		.loc 1 208 3 discriminator 2 view .LVU281
 1005              		.loc 1 208 72 discriminator 2 view .LVU282
 1006              		.loc 1 209 3 discriminator 2 view .LVU283
 1007              	@ 209 "../test/testmbox.c" 1
 1008 06a8 9FF021E3 		msr     CPSR_c, #0x9F
 1009              	@ 0 "" 2
 1010              		.loc 1 209 3 discriminator 2 view .LVU284
 1011              		.loc 1 209 3 discriminator 2 view .LVU285
 1012              		.loc 1 209 3 discriminator 2 view .LVU286
 1013              		.arm
 1014              		.syntax unified
 1015 06ac 181096E5 		ldr	r1, [r6, #24]
 1016 06b0 2A00A0E3 		mov	r0, #42
 1017 06b4 111F6FE1 		clz	r1, r1
 1018 06b8 A112A0E1 		lsr	r1, r1, #5
 1019 06bc FEFFFFEB 		bl	_test_assert
 1020              	.LVL109:
 1021 06c0 000050E3 		cmp	r0, #0
 1022 06c4 3100001A 		bne	.L21
 1023              		.loc 1 209 3 discriminator 2 view .LVU287
 1024              		.loc 1 209 3 discriminator 2 view .LVU288
 1025              		.syntax divided
ARM GAS  /tmp/ccGdBEjb.s 			page 19


 1026              	@ 209 "../test/testmbox.c" 1
 1027 06c8 1FF021E3 		msr     CPSR_c, #0x1F
 1028              	@ 0 "" 2
 1029              		.loc 1 209 3 discriminator 2 view .LVU289
 1030              		.loc 1 209 67 discriminator 2 view .LVU290
 1031              		.loc 1 210 3 discriminator 2 view .LVU291
 1032              		.arm
 1033              		.syntax unified
 1034 06cc 0C1096E5 		ldr	r1, [r6, #12]
 1035 06d0 083096E5 		ldr	r3, [r6, #8]
 1036 06d4 2B00A0E3 		mov	r0, #43
 1037 06d8 031041E0 		sub	r1, r1, r3
 1038 06dc 111F6FE1 		clz	r1, r1
 1039 06e0 A112A0E1 		lsr	r1, r1, #5
 1040 06e4 FEFFFFEB 		bl	_test_assert
 1041              	.LVL110:
 1042 06e8 000050E3 		cmp	r0, #0
 1043 06ec 67FEFF1A 		bne	.L1
 1044              		.loc 1 210 72 discriminator 2 view .LVU292
 1045              		.loc 1 215 3 discriminator 2 view .LVU293
 1046 06f0 A0009FE5 		ldr	r0, .L30
 1047 06f4 FEFFFFEB 		bl	chMBReset
 1048              	.LVL111:
 1049              		.loc 1 220 3 discriminator 2 view .LVU294
 1050              		.syntax divided
 1051              	@ 220 "../test/testmbox.c" 1
 1052 06f8 9FF021E3 		msr     CPSR_c, #0x9F
 1053              	@ 0 "" 2
 1054              		.loc 1 220 3 discriminator 2 view .LVU295
 1055              		.loc 1 220 3 discriminator 2 view .LVU296
 1056              		.loc 1 220 3 discriminator 2 view .LVU297
 1057              		.arm
 1058              		.syntax unified
 1059 06fc 241096E5 		ldr	r1, [r6, #36]
 1060 0700 2C00A0E3 		mov	r0, #44
 1061 0704 051041E2 		sub	r1, r1, #5
 1062 0708 111F6FE1 		clz	r1, r1
 1063 070c A112A0E1 		lsr	r1, r1, #5
 1064 0710 FEFFFFEB 		bl	_test_assert
 1065              	.LVL112:
 1066 0714 000050E3 		cmp	r0, #0
 1067 0718 1C00001A 		bne	.L21
 1068              		.loc 1 220 3 discriminator 2 view .LVU298
 1069              		.loc 1 220 3 discriminator 2 view .LVU299
 1070              		.syntax divided
 1071              	@ 220 "../test/testmbox.c" 1
 1072 071c 1FF021E3 		msr     CPSR_c, #0x1F
 1073              	@ 0 "" 2
 1074              		.loc 1 220 3 discriminator 2 view .LVU300
 1075              		.loc 1 220 72 discriminator 2 view .LVU301
 1076              		.loc 1 221 3 discriminator 2 view .LVU302
 1077              	@ 221 "../test/testmbox.c" 1
 1078 0720 9FF021E3 		msr     CPSR_c, #0x9F
 1079              	@ 0 "" 2
 1080              		.loc 1 221 3 discriminator 2 view .LVU303
 1081              		.loc 1 221 3 discriminator 2 view .LVU304
 1082              		.loc 1 221 3 discriminator 2 view .LVU305
ARM GAS  /tmp/ccGdBEjb.s 			page 20


 1083              		.arm
 1084              		.syntax unified
 1085 0724 181096E5 		ldr	r1, [r6, #24]
 1086 0728 2D00A0E3 		mov	r0, #45
 1087 072c 111F6FE1 		clz	r1, r1
 1088 0730 A112A0E1 		lsr	r1, r1, #5
 1089 0734 FEFFFFEB 		bl	_test_assert
 1090              	.LVL113:
 1091 0738 000050E3 		cmp	r0, #0
 1092 073c 1300001A 		bne	.L21
 1093              		.loc 1 221 3 discriminator 2 view .LVU306
 1094              		.loc 1 221 3 discriminator 2 view .LVU307
 1095              		.syntax divided
 1096              	@ 221 "../test/testmbox.c" 1
 1097 0740 1FF021E3 		msr     CPSR_c, #0x1F
 1098              	@ 0 "" 2
 1099              		.loc 1 221 3 discriminator 2 view .LVU308
 1100              		.loc 1 221 67 discriminator 2 view .LVU309
 1101              		.loc 1 222 3 discriminator 2 view .LVU310
 1102              	@ 222 "../test/testmbox.c" 1
 1103 0744 9FF021E3 		msr     CPSR_c, #0x9F
 1104              	@ 0 "" 2
 1105              		.loc 1 222 3 discriminator 2 view .LVU311
 1106              		.loc 1 222 3 discriminator 2 view .LVU312
 1107              		.loc 1 222 3 discriminator 2 view .LVU313
 1108              		.arm
 1109              		.syntax unified
 1110 0748 001096E5 		ldr	r1, [r6]
 1111 074c 083096E5 		ldr	r3, [r6, #8]
 1112 0750 2E00A0E3 		mov	r0, #46
 1113 0754 031041E0 		sub	r1, r1, r3
 1114 0758 111F6FE1 		clz	r1, r1
 1115 075c A112A0E1 		lsr	r1, r1, #5
 1116 0760 FEFFFFEB 		bl	_test_assert
 1117              	.LVL114:
 1118 0764 000050E3 		cmp	r0, #0
 1119 0768 0800001A 		bne	.L21
 1120              		.loc 1 222 3 discriminator 2 view .LVU314
 1121              		.loc 1 222 3 discriminator 2 view .LVU315
 1122              		.syntax divided
 1123              	@ 222 "../test/testmbox.c" 1
 1124 076c 1FF021E3 		msr     CPSR_c, #0x1F
 1125              	@ 0 "" 2
 1126              		.loc 1 222 3 discriminator 2 view .LVU316
 1127              		.loc 1 222 91 discriminator 2 view .LVU317
 1128              		.loc 1 223 3 discriminator 2 view .LVU318
 1129              	@ 223 "../test/testmbox.c" 1
 1130 0770 9FF021E3 		msr     CPSR_c, #0x9F
 1131              	@ 0 "" 2
 1132              		.loc 1 223 3 discriminator 2 view .LVU319
 1133              		.loc 1 223 3 discriminator 2 view .LVU320
 1134              		.loc 1 223 3 discriminator 2 view .LVU321
 1135              		.arm
 1136              		.syntax unified
 1137 0774 001096E5 		ldr	r1, [r6]
 1138 0778 0C3096E5 		ldr	r3, [r6, #12]
 1139 077c 2F00A0E3 		mov	r0, #47
ARM GAS  /tmp/ccGdBEjb.s 			page 21


 1140 0780 031041E0 		sub	r1, r1, r3
 1141 0784 111F6FE1 		clz	r1, r1
 1142 0788 A112A0E1 		lsr	r1, r1, #5
 1143 078c FEFFFFEB 		bl	_test_assert
 1144              	.LVL115:
 1145              	.L21:
 1146              		.loc 1 223 3 discriminator 2 view .LVU322
 1147              		.loc 1 223 3 discriminator 2 view .LVU323
 1148              		.syntax divided
 1149              	@ 223 "../test/testmbox.c" 1
 1150 0790 1FF021E3 		msr     CPSR_c, #0x1F
 1151              	@ 0 "" 2
 1152              		.loc 1 223 3 discriminator 2 view .LVU324
 1153              		.loc 1 223 90 discriminator 2 view .LVU325
 1154              		.arm
 1155              		.syntax unified
 1156 0794 3DFEFFEA 		b	.L1
 1157              	.L31:
 1158              		.align	2
 1159              	.L30:
 1160 0798 00000000 		.word	.LANCHOR0
 1161 079c 00000000 		.word	.LC0
 1162              		.cfi_endproc
 1163              	.LFE8:
 1164              		.size	mbox1_execute, .-mbox1_execute
 1165              		.section	.text.mbox1_setup,"ax",%progbits
 1166              		.align	2
 1167              		.syntax unified
 1168              		.arm
 1169              		.fpu softvfp
 1170              		.type	mbox1_setup, %function
 1171              	mbox1_setup:
 1172              	.LFB7:
 1173              		.loc 1 75 31 view -0
 1174              		.cfi_startproc
 1175              		@ args = 0, pretend = 0, frame = 0
 1176              		@ frame_needed = 0, uses_anonymous_args = 0
 1177              		@ link register save eliminated.
 1178              		.loc 1 77 3 view .LVU327
 1179 0000 0520A0E3 		mov	r2, #5
 1180 0004 04109FE5 		ldr	r1, .L33
 1181 0008 04009FE5 		ldr	r0, .L33+4
 1182 000c FEFFFFEA 		b	chMBInit
 1183              	.LVL116:
 1184              	.L34:
 1185              		.align	2
 1186              	.L33:
 1187 0010 00000000 		.word	test
 1188 0014 00000000 		.word	.LANCHOR0
 1189              		.cfi_endproc
 1190              	.LFE7:
 1191              		.size	mbox1_setup, .-mbox1_setup
 1192              		.global	patternmbox
 1193              		.global	testmbox1
 1194              		.section	.rodata.str1.4,"aMS",%progbits,1
 1195              		.align	2
 1196              	.LC1:
ARM GAS  /tmp/ccGdBEjb.s 			page 22


 1197 0000 4D61696C 		.ascii	"Mailboxes, queuing and timeouts\000"
 1197      626F7865 
 1197      732C2071 
 1197      75657569 
 1197      6E672061 
 1198              		.section	.data.mb1,"aw"
 1199              		.align	2
 1200              		.set	.LANCHOR0,. + 0
 1201              		.type	mb1, %object
 1202              		.size	mb1, 40
 1203              	mb1:
 1204 0000 00000000 		.word	test
 1205 0004 14000000 		.word	test+20
 1206 0008 00000000 		.word	test
 1207 000c 00000000 		.word	test
 1208 0010 10000000 		.word	mb1+16
 1209 0014 10000000 		.word	mb1+16
 1210 0018 00000000 		.word	0
 1211 001c 1C000000 		.word	mb1+28
 1212 0020 1C000000 		.word	mb1+28
 1213 0024 05000000 		.word	5
 1214              		.section	.rodata.patternmbox,"a"
 1215              		.align	2
 1216              		.type	patternmbox, %object
 1217              		.size	patternmbox, 8
 1218              	patternmbox:
 1219 0000 00000000 		.word	testmbox1
 1220 0004 00000000 		.word	0
 1221              		.section	.rodata.testmbox1,"a"
 1222              		.align	2
 1223              		.type	testmbox1, %object
 1224              		.size	testmbox1, 16
 1225              	testmbox1:
 1226 0000 00000000 		.word	.LC1
 1227 0004 00000000 		.word	mbox1_setup
 1228 0008 00000000 		.word	0
 1229 000c 00000000 		.word	mbox1_execute
 1230              		.text
 1231              	.Letext0:
 1232              		.file 2 "/usr/lib/gcc/arm-none-eabi/9.2.1/include/stdint.h"
 1233              		.file 3 "../os/ports/GCC/ARM/chtypes.h"
 1234              		.file 4 "../os/kernel/include/chlists.h"
 1235              		.file 5 "../os/kernel/include/chthreads.h"
 1236              		.file 6 "../os/ports/GCC/ARM/chcore.h"
 1237              		.file 7 "../os/kernel/include/chvt.h"
 1238              		.file 8 "../os/kernel/include/chschd.h"
 1239              		.file 9 "../os/kernel/include/chsem.h"
 1240              		.file 10 "../os/kernel/include/chmtx.h"
 1241              		.file 11 "../os/kernel/include/chmboxes.h"
 1242              		.file 12 "../os/kernel/include/chregistry.h"
 1243              		.file 13 "../os/kernel/include/ch.h"
 1244              		.file 14 "../test/test.h"
 1245              		.section	.debug_info,"",%progbits
 1246              	.Ldebug_info0:
 1247 0000 CD0F0000 		.4byte	0xfcd
 1248 0004 0400     		.2byte	0x4
 1249 0006 00000000 		.4byte	.Ldebug_abbrev0
ARM GAS  /tmp/ccGdBEjb.s 			page 23


 1250 000a 04       		.byte	0x4
 1251 000b 01       		.uleb128 0x1
 1252 000c 13000000 		.4byte	.LASF132
 1253 0010 0C       		.byte	0xc
 1254 0011 85020000 		.4byte	.LASF133
 1255 0015 F7040000 		.4byte	.LASF134
 1256 0019 00000000 		.4byte	.Ldebug_ranges0+0
 1257 001d 00000000 		.4byte	0
 1258 0021 00000000 		.4byte	.Ldebug_line0
 1259 0025 02       		.uleb128 0x2
 1260 0026 04       		.byte	0x4
 1261 0027 05       		.byte	0x5
 1262 0028 696E7400 		.ascii	"int\000"
 1263 002c 03       		.uleb128 0x3
 1264 002d 04       		.byte	0x4
 1265 002e 07       		.byte	0x7
 1266 002f 66020000 		.4byte	.LASF0
 1267 0033 03       		.uleb128 0x3
 1268 0034 01       		.byte	0x1
 1269 0035 06       		.byte	0x6
 1270 0036 9B010000 		.4byte	.LASF1
 1271 003a 03       		.uleb128 0x3
 1272 003b 02       		.byte	0x2
 1273 003c 05       		.byte	0x5
 1274 003d 51040000 		.4byte	.LASF2
 1275 0041 04       		.uleb128 0x4
 1276 0042 2A040000 		.4byte	.LASF5
 1277 0046 02       		.byte	0x2
 1278 0047 28       		.byte	0x28
 1279 0048 18       		.byte	0x18
 1280 0049 4D000000 		.4byte	0x4d
 1281 004d 03       		.uleb128 0x3
 1282 004e 04       		.byte	0x4
 1283 004f 05       		.byte	0x5
 1284 0050 FB010000 		.4byte	.LASF3
 1285 0054 03       		.uleb128 0x3
 1286 0055 08       		.byte	0x8
 1287 0056 05       		.byte	0x5
 1288 0057 8D010000 		.4byte	.LASF4
 1289 005b 04       		.uleb128 0x4
 1290 005c FB050000 		.4byte	.LASF6
 1291 0060 02       		.byte	0x2
 1292 0061 2E       		.byte	0x2e
 1293 0062 18       		.byte	0x18
 1294 0063 67000000 		.4byte	0x67
 1295 0067 03       		.uleb128 0x3
 1296 0068 01       		.byte	0x1
 1297 0069 08       		.byte	0x8
 1298 006a 32040000 		.4byte	.LASF7
 1299 006e 04       		.uleb128 0x4
 1300 006f 0D020000 		.4byte	.LASF8
 1301 0073 02       		.byte	0x2
 1302 0074 31       		.byte	0x31
 1303 0075 19       		.byte	0x19
 1304 0076 7A000000 		.4byte	0x7a
 1305 007a 03       		.uleb128 0x3
 1306 007b 02       		.byte	0x2
ARM GAS  /tmp/ccGdBEjb.s 			page 24


 1307 007c 07       		.byte	0x7
 1308 007d DE020000 		.4byte	.LASF9
 1309 0081 04       		.uleb128 0x4
 1310 0082 CD040000 		.4byte	.LASF10
 1311 0086 02       		.byte	0x2
 1312 0087 34       		.byte	0x34
 1313 0088 19       		.byte	0x19
 1314 0089 8D000000 		.4byte	0x8d
 1315 008d 03       		.uleb128 0x3
 1316 008e 04       		.byte	0x4
 1317 008f 07       		.byte	0x7
 1318 0090 B7010000 		.4byte	.LASF11
 1319 0094 03       		.uleb128 0x3
 1320 0095 08       		.byte	0x8
 1321 0096 07       		.byte	0x7
 1322 0097 1F010000 		.4byte	.LASF12
 1323 009b 04       		.uleb128 0x4
 1324 009c C9010000 		.4byte	.LASF13
 1325 00a0 03       		.byte	0x3
 1326 00a1 29       		.byte	0x29
 1327 00a2 19       		.byte	0x19
 1328 00a3 41000000 		.4byte	0x41
 1329 00a7 04       		.uleb128 0x4
 1330 00a8 0A030000 		.4byte	.LASF14
 1331 00ac 03       		.byte	0x3
 1332 00ad 2A       		.byte	0x2a
 1333 00ae 19       		.byte	0x19
 1334 00af 5B000000 		.4byte	0x5b
 1335 00b3 04       		.uleb128 0x4
 1336 00b4 04020000 		.4byte	.LASF15
 1337 00b8 03       		.byte	0x3
 1338 00b9 2B       		.byte	0x2b
 1339 00ba 19       		.byte	0x19
 1340 00bb 5B000000 		.4byte	0x5b
 1341 00bf 04       		.uleb128 0x4
 1342 00c0 00040000 		.4byte	.LASF16
 1343 00c4 03       		.byte	0x3
 1344 00c5 2C       		.byte	0x2c
 1345 00c6 19       		.byte	0x19
 1346 00c7 5B000000 		.4byte	0x5b
 1347 00cb 04       		.uleb128 0x4
 1348 00cc E8010000 		.4byte	.LASF17
 1349 00d0 03       		.byte	0x3
 1350 00d1 2D       		.byte	0x2d
 1351 00d2 19       		.byte	0x19
 1352 00d3 5B000000 		.4byte	0x5b
 1353 00d7 04       		.uleb128 0x4
 1354 00d8 22040000 		.4byte	.LASF18
 1355 00dc 03       		.byte	0x3
 1356 00dd 2E       		.byte	0x2e
 1357 00de 19       		.byte	0x19
 1358 00df 81000000 		.4byte	0x81
 1359 00e3 04       		.uleb128 0x4
 1360 00e4 FC020000 		.4byte	.LASF19
 1361 00e8 03       		.byte	0x3
 1362 00e9 2F       		.byte	0x2f
 1363 00ea 19       		.byte	0x19
ARM GAS  /tmp/ccGdBEjb.s 			page 25


 1364 00eb 41000000 		.4byte	0x41
 1365 00ef 04       		.uleb128 0x4
 1366 00f0 2A030000 		.4byte	.LASF20
 1367 00f4 03       		.byte	0x3
 1368 00f5 31       		.byte	0x31
 1369 00f6 19       		.byte	0x19
 1370 00f7 81000000 		.4byte	0x81
 1371 00fb 04       		.uleb128 0x4
 1372 00fc 6E050000 		.4byte	.LASF21
 1373 0100 03       		.byte	0x3
 1374 0101 33       		.byte	0x33
 1375 0102 19       		.byte	0x19
 1376 0103 81000000 		.4byte	0x81
 1377 0107 05       		.uleb128 0x5
 1378 0108 FB000000 		.4byte	0xfb
 1379 010c 04       		.uleb128 0x4
 1380 010d 60020000 		.4byte	.LASF22
 1381 0111 03       		.byte	0x3
 1382 0112 34       		.byte	0x34
 1383 0113 19       		.byte	0x19
 1384 0114 41000000 		.4byte	0x41
 1385 0118 04       		.uleb128 0x4
 1386 0119 A5040000 		.4byte	.LASF23
 1387 011d 04       		.byte	0x4
 1388 011e 23       		.byte	0x23
 1389 011f 17       		.byte	0x17
 1390 0120 24010000 		.4byte	0x124
 1391 0124 06       		.uleb128 0x6
 1392 0125 A5040000 		.4byte	.LASF23
 1393 0129 44       		.byte	0x44
 1394 012a 05       		.byte	0x5
 1395 012b 57       		.byte	0x57
 1396 012c 08       		.byte	0x8
 1397 012d 29020000 		.4byte	0x229
 1398 0131 07       		.uleb128 0x7
 1399 0132 87040000 		.4byte	.LASF24
 1400 0136 05       		.byte	0x5
 1401 0137 58       		.byte	0x58
 1402 0138 1A       		.byte	0x1a
 1403 0139 4D020000 		.4byte	0x24d
 1404 013d 00       		.byte	0
 1405 013e 07       		.uleb128 0x7
 1406 013f 13040000 		.4byte	.LASF25
 1407 0143 05       		.byte	0x5
 1408 0144 5A       		.byte	0x5a
 1409 0145 1A       		.byte	0x1a
 1410 0146 4D020000 		.4byte	0x24d
 1411 014a 04       		.byte	0x4
 1412 014b 07       		.uleb128 0x7
 1413 014c 70010000 		.4byte	.LASF26
 1414 0150 05       		.byte	0x5
 1415 0151 5C       		.byte	0x5c
 1416 0152 19       		.byte	0x19
 1417 0153 D7000000 		.4byte	0xd7
 1418 0157 08       		.byte	0x8
 1419 0158 07       		.uleb128 0x7
 1420 0159 50060000 		.4byte	.LASF27
ARM GAS  /tmp/ccGdBEjb.s 			page 26


 1421 015d 05       		.byte	0x5
 1422 015e 5D       		.byte	0x5d
 1423 015f 19       		.byte	0x19
 1424 0160 1D030000 		.4byte	0x31d
 1425 0164 0C       		.byte	0xc
 1426 0165 07       		.uleb128 0x7
 1427 0166 27020000 		.4byte	.LASF28
 1428 016a 05       		.byte	0x5
 1429 016b 5F       		.byte	0x5f
 1430 016c 1A       		.byte	0x1a
 1431 016d 4D020000 		.4byte	0x24d
 1432 0171 10       		.byte	0x10
 1433 0172 07       		.uleb128 0x7
 1434 0173 97030000 		.4byte	.LASF29
 1435 0177 05       		.byte	0x5
 1436 0178 60       		.byte	0x60
 1437 0179 1A       		.byte	0x1a
 1438 017a 4D020000 		.4byte	0x24d
 1439 017e 14       		.byte	0x14
 1440 017f 07       		.uleb128 0x7
 1441 0180 0A060000 		.4byte	.LASF30
 1442 0184 05       		.byte	0x5
 1443 0185 67       		.byte	0x67
 1444 0186 1A       		.byte	0x1a
 1445 0187 A1050000 		.4byte	0x5a1
 1446 018b 18       		.byte	0x18
 1447 018c 07       		.uleb128 0x7
 1448 018d 5B040000 		.4byte	.LASF31
 1449 0191 05       		.byte	0x5
 1450 0192 72       		.byte	0x72
 1451 0193 19       		.byte	0x19
 1452 0194 B3000000 		.4byte	0xb3
 1453 0198 1C       		.byte	0x1c
 1454 0199 07       		.uleb128 0x7
 1455 019a 9D040000 		.4byte	.LASF32
 1456 019e 05       		.byte	0x5
 1457 019f 76       		.byte	0x76
 1458 01a0 19       		.byte	0x19
 1459 01a1 A7000000 		.4byte	0xa7
 1460 01a5 1D       		.byte	0x1d
 1461 01a6 07       		.uleb128 0x7
 1462 01a7 E4050000 		.4byte	.LASF33
 1463 01ab 05       		.byte	0x5
 1464 01ac 7B       		.byte	0x7b
 1465 01ad 19       		.byte	0x19
 1466 01ae BF000000 		.4byte	0xbf
 1467 01b2 1E       		.byte	0x1e
 1468 01b3 07       		.uleb128 0x7
 1469 01b4 63040000 		.4byte	.LASF34
 1470 01b8 05       		.byte	0x5
 1471 01b9 81       		.byte	0x81
 1472 01ba 19       		.byte	0x19
 1473 01bb CB000000 		.4byte	0xcb
 1474 01bf 1F       		.byte	0x1f
 1475 01c0 07       		.uleb128 0x7
 1476 01c1 8C050000 		.4byte	.LASF35
 1477 01c5 05       		.byte	0x5
ARM GAS  /tmp/ccGdBEjb.s 			page 27


 1478 01c6 88       		.byte	0x88
 1479 01c7 19       		.byte	0x19
 1480 01c8 07010000 		.4byte	0x107
 1481 01cc 20       		.byte	0x20
 1482 01cd 08       		.uleb128 0x8
 1483 01ce 705F7500 		.ascii	"p_u\000"
 1484 01d2 05       		.byte	0x5
 1485 01d3 AD       		.byte	0xad
 1486 01d4 19       		.byte	0x19
 1487 01d5 67050000 		.4byte	0x567
 1488 01d9 24       		.byte	0x24
 1489 01da 07       		.uleb128 0x7
 1490 01db 56060000 		.4byte	.LASF36
 1491 01df 05       		.byte	0x5
 1492 01e0 B2       		.byte	0xb2
 1493 01e1 19       		.byte	0x19
 1494 01e2 76020000 		.4byte	0x276
 1495 01e6 28       		.byte	0x28
 1496 01e7 07       		.uleb128 0x7
 1497 01e8 A8050000 		.4byte	.LASF37
 1498 01ec 05       		.byte	0x5
 1499 01ed B8       		.byte	0xb8
 1500 01ee 19       		.byte	0x19
 1501 01ef 53020000 		.4byte	0x253
 1502 01f3 2C       		.byte	0x2c
 1503 01f4 07       		.uleb128 0x7
 1504 01f5 0D000000 		.4byte	.LASF38
 1505 01f9 05       		.byte	0x5
 1506 01fa BC       		.byte	0xbc
 1507 01fb 19       		.byte	0x19
 1508 01fc E3000000 		.4byte	0xe3
 1509 0200 34       		.byte	0x34
 1510 0201 07       		.uleb128 0x7
 1511 0202 C2040000 		.4byte	.LASF39
 1512 0206 05       		.byte	0x5
 1513 0207 C2       		.byte	0xc2
 1514 0208 19       		.byte	0x19
 1515 0209 EF000000 		.4byte	0xef
 1516 020d 38       		.byte	0x38
 1517 020e 07       		.uleb128 0x7
 1518 020f 47040000 		.4byte	.LASF40
 1519 0213 05       		.byte	0x5
 1520 0214 C9       		.byte	0xc9
 1521 0215 1A       		.byte	0x1a
 1522 0216 B3050000 		.4byte	0x5b3
 1523 021a 3C       		.byte	0x3c
 1524 021b 07       		.uleb128 0x7
 1525 021c 78050000 		.4byte	.LASF41
 1526 0220 05       		.byte	0x5
 1527 0221 CD       		.byte	0xcd
 1528 0222 19       		.byte	0x19
 1529 0223 D7000000 		.4byte	0xd7
 1530 0227 40       		.byte	0x40
 1531 0228 00       		.byte	0
 1532 0229 09       		.uleb128 0x9
 1533 022a 08       		.byte	0x8
 1534 022b 04       		.byte	0x4
ARM GAS  /tmp/ccGdBEjb.s 			page 28


 1535 022c 5A       		.byte	0x5a
 1536 022d 09       		.byte	0x9
 1537 022e 4D020000 		.4byte	0x24d
 1538 0232 07       		.uleb128 0x7
 1539 0233 87040000 		.4byte	.LASF24
 1540 0237 04       		.byte	0x4
 1541 0238 5B       		.byte	0x5b
 1542 0239 1A       		.byte	0x1a
 1543 023a 4D020000 		.4byte	0x24d
 1544 023e 00       		.byte	0
 1545 023f 07       		.uleb128 0x7
 1546 0240 13040000 		.4byte	.LASF25
 1547 0244 04       		.byte	0x4
 1548 0245 5D       		.byte	0x5d
 1549 0246 1A       		.byte	0x1a
 1550 0247 4D020000 		.4byte	0x24d
 1551 024b 04       		.byte	0x4
 1552 024c 00       		.byte	0
 1553 024d 0A       		.uleb128 0xa
 1554 024e 04       		.byte	0x4
 1555 024f 18010000 		.4byte	0x118
 1556 0253 04       		.uleb128 0x4
 1557 0254 A5030000 		.4byte	.LASF42
 1558 0258 04       		.byte	0x4
 1559 0259 5F       		.byte	0x5f
 1560 025a 03       		.byte	0x3
 1561 025b 29020000 		.4byte	0x229
 1562 025f 09       		.uleb128 0x9
 1563 0260 04       		.byte	0x4
 1564 0261 04       		.byte	0x4
 1565 0262 64       		.byte	0x64
 1566 0263 09       		.byte	0x9
 1567 0264 76020000 		.4byte	0x276
 1568 0268 07       		.uleb128 0x7
 1569 0269 87040000 		.4byte	.LASF24
 1570 026d 04       		.byte	0x4
 1571 026e 66       		.byte	0x66
 1572 026f 16       		.byte	0x16
 1573 0270 4D020000 		.4byte	0x24d
 1574 0274 00       		.byte	0
 1575 0275 00       		.byte	0
 1576 0276 04       		.uleb128 0x4
 1577 0277 1E030000 		.4byte	.LASF43
 1578 027b 04       		.byte	0x4
 1579 027c 69       		.byte	0x69
 1580 027d 03       		.byte	0x3
 1581 027e 5F020000 		.4byte	0x25f
 1582 0282 04       		.uleb128 0x4
 1583 0283 46030000 		.4byte	.LASF44
 1584 0287 06       		.byte	0x6
 1585 0288 9D       		.byte	0x9d
 1586 0289 12       		.byte	0x12
 1587 028a 81000000 		.4byte	0x81
 1588 028e 04       		.uleb128 0x4
 1589 028f 4F020000 		.4byte	.LASF45
 1590 0293 06       		.byte	0x6
 1591 0294 A2       		.byte	0xa2
ARM GAS  /tmp/ccGdBEjb.s 			page 29


 1592 0295 0F       		.byte	0xf
 1593 0296 9A020000 		.4byte	0x29a
 1594 029a 0B       		.uleb128 0xb
 1595 029b 04       		.byte	0x4
 1596 029c 0C       		.uleb128 0xc
 1597 029d 9A020000 		.4byte	0x29a
 1598 02a1 06       		.uleb128 0x6
 1599 02a2 A1050000 		.4byte	.LASF46
 1600 02a6 24       		.byte	0x24
 1601 02a7 06       		.byte	0x6
 1602 02a8 B9       		.byte	0xb9
 1603 02a9 08       		.byte	0x8
 1604 02aa 1D030000 		.4byte	0x31d
 1605 02ae 08       		.uleb128 0x8
 1606 02af 723400   		.ascii	"r4\000"
 1607 02b2 06       		.byte	0x6
 1608 02b3 BA       		.byte	0xba
 1609 02b4 11       		.byte	0x11
 1610 02b5 8E020000 		.4byte	0x28e
 1611 02b9 00       		.byte	0
 1612 02ba 08       		.uleb128 0x8
 1613 02bb 723500   		.ascii	"r5\000"
 1614 02be 06       		.byte	0x6
 1615 02bf BB       		.byte	0xbb
 1616 02c0 11       		.byte	0x11
 1617 02c1 8E020000 		.4byte	0x28e
 1618 02c5 04       		.byte	0x4
 1619 02c6 08       		.uleb128 0x8
 1620 02c7 723600   		.ascii	"r6\000"
 1621 02ca 06       		.byte	0x6
 1622 02cb BC       		.byte	0xbc
 1623 02cc 11       		.byte	0x11
 1624 02cd 8E020000 		.4byte	0x28e
 1625 02d1 08       		.byte	0x8
 1626 02d2 08       		.uleb128 0x8
 1627 02d3 723700   		.ascii	"r7\000"
 1628 02d6 06       		.byte	0x6
 1629 02d7 BD       		.byte	0xbd
 1630 02d8 11       		.byte	0x11
 1631 02d9 8E020000 		.4byte	0x28e
 1632 02dd 0C       		.byte	0xc
 1633 02de 08       		.uleb128 0x8
 1634 02df 723800   		.ascii	"r8\000"
 1635 02e2 06       		.byte	0x6
 1636 02e3 BE       		.byte	0xbe
 1637 02e4 11       		.byte	0x11
 1638 02e5 8E020000 		.4byte	0x28e
 1639 02e9 10       		.byte	0x10
 1640 02ea 08       		.uleb128 0x8
 1641 02eb 723900   		.ascii	"r9\000"
 1642 02ee 06       		.byte	0x6
 1643 02ef BF       		.byte	0xbf
 1644 02f0 11       		.byte	0x11
 1645 02f1 8E020000 		.4byte	0x28e
 1646 02f5 14       		.byte	0x14
 1647 02f6 08       		.uleb128 0x8
 1648 02f7 72313000 		.ascii	"r10\000"
ARM GAS  /tmp/ccGdBEjb.s 			page 30


 1649 02fb 06       		.byte	0x6
 1650 02fc C0       		.byte	0xc0
 1651 02fd 11       		.byte	0x11
 1652 02fe 8E020000 		.4byte	0x28e
 1653 0302 18       		.byte	0x18
 1654 0303 08       		.uleb128 0x8
 1655 0304 72313100 		.ascii	"r11\000"
 1656 0308 06       		.byte	0x6
 1657 0309 C1       		.byte	0xc1
 1658 030a 11       		.byte	0x11
 1659 030b 8E020000 		.4byte	0x28e
 1660 030f 1C       		.byte	0x1c
 1661 0310 08       		.uleb128 0x8
 1662 0311 6C7200   		.ascii	"lr\000"
 1663 0314 06       		.byte	0x6
 1664 0315 C2       		.byte	0xc2
 1665 0316 11       		.byte	0x11
 1666 0317 8E020000 		.4byte	0x28e
 1667 031b 20       		.byte	0x20
 1668 031c 00       		.byte	0
 1669 031d 06       		.uleb128 0x6
 1670 031e D6020000 		.4byte	.LASF47
 1671 0322 04       		.byte	0x4
 1672 0323 06       		.byte	0x6
 1673 0324 CA       		.byte	0xca
 1674 0325 08       		.byte	0x8
 1675 0326 38030000 		.4byte	0x338
 1676 032a 08       		.uleb128 0x8
 1677 032b 72313300 		.ascii	"r13\000"
 1678 032f 06       		.byte	0x6
 1679 0330 CB       		.byte	0xcb
 1680 0331 12       		.byte	0x12
 1681 0332 38030000 		.4byte	0x338
 1682 0336 00       		.byte	0
 1683 0337 00       		.byte	0
 1684 0338 0A       		.uleb128 0xa
 1685 0339 04       		.byte	0x4
 1686 033a A1020000 		.4byte	0x2a1
 1687 033e 04       		.uleb128 0x4
 1688 033f 83050000 		.4byte	.LASF48
 1689 0343 07       		.byte	0x7
 1690 0344 4E       		.byte	0x4e
 1691 0345 10       		.byte	0x10
 1692 0346 4A030000 		.4byte	0x34a
 1693 034a 0A       		.uleb128 0xa
 1694 034b 04       		.byte	0x4
 1695 034c 50030000 		.4byte	0x350
 1696 0350 0D       		.uleb128 0xd
 1697 0351 5B030000 		.4byte	0x35b
 1698 0355 0E       		.uleb128 0xe
 1699 0356 9A020000 		.4byte	0x29a
 1700 035a 00       		.byte	0
 1701 035b 04       		.uleb128 0x4
 1702 035c EA040000 		.4byte	.LASF49
 1703 0360 07       		.byte	0x7
 1704 0361 53       		.byte	0x53
 1705 0362 1D       		.byte	0x1d
ARM GAS  /tmp/ccGdBEjb.s 			page 31


 1706 0363 67030000 		.4byte	0x367
 1707 0367 06       		.uleb128 0x6
 1708 0368 EA040000 		.4byte	.LASF49
 1709 036c 14       		.byte	0x14
 1710 036d 07       		.byte	0x7
 1711 036e 5A       		.byte	0x5a
 1712 036f 08       		.byte	0x8
 1713 0370 B6030000 		.4byte	0x3b6
 1714 0374 07       		.uleb128 0x7
 1715 0375 73020000 		.4byte	.LASF50
 1716 0379 07       		.byte	0x7
 1717 037a 5B       		.byte	0x5b
 1718 037b 1A       		.byte	0x1a
 1719 037c B6030000 		.4byte	0x3b6
 1720 0380 00       		.byte	0
 1721 0381 07       		.uleb128 0x7
 1722 0382 58020000 		.4byte	.LASF51
 1723 0386 07       		.byte	0x7
 1724 0387 5D       		.byte	0x5d
 1725 0388 1A       		.byte	0x1a
 1726 0389 B6030000 		.4byte	0x3b6
 1727 038d 04       		.byte	0x4
 1728 038e 07       		.uleb128 0x7
 1729 038f 65030000 		.4byte	.LASF52
 1730 0393 07       		.byte	0x7
 1731 0394 5F       		.byte	0x5f
 1732 0395 19       		.byte	0x19
 1733 0396 FB000000 		.4byte	0xfb
 1734 039a 08       		.byte	0x8
 1735 039b 07       		.uleb128 0x7
 1736 039c 6D030000 		.4byte	.LASF53
 1737 03a0 07       		.byte	0x7
 1738 03a1 60       		.byte	0x60
 1739 03a2 19       		.byte	0x19
 1740 03a3 3E030000 		.4byte	0x33e
 1741 03a7 0C       		.byte	0xc
 1742 03a8 07       		.uleb128 0x7
 1743 03a9 BD050000 		.4byte	.LASF54
 1744 03ad 07       		.byte	0x7
 1745 03ae 62       		.byte	0x62
 1746 03af 1A       		.byte	0x1a
 1747 03b0 9A020000 		.4byte	0x29a
 1748 03b4 10       		.byte	0x10
 1749 03b5 00       		.byte	0
 1750 03b6 0A       		.uleb128 0xa
 1751 03b7 04       		.byte	0x4
 1752 03b8 5B030000 		.4byte	0x35b
 1753 03bc 09       		.uleb128 0x9
 1754 03bd 10       		.byte	0x10
 1755 03be 07       		.byte	0x7
 1756 03bf 6C       		.byte	0x6c
 1757 03c0 09       		.byte	0x9
 1758 03c1 FA030000 		.4byte	0x3fa
 1759 03c5 07       		.uleb128 0x7
 1760 03c6 73020000 		.4byte	.LASF50
 1761 03ca 07       		.byte	0x7
 1762 03cb 6D       		.byte	0x6d
ARM GAS  /tmp/ccGdBEjb.s 			page 32


 1763 03cc 1A       		.byte	0x1a
 1764 03cd B6030000 		.4byte	0x3b6
 1765 03d1 00       		.byte	0
 1766 03d2 07       		.uleb128 0x7
 1767 03d3 58020000 		.4byte	.LASF51
 1768 03d7 07       		.byte	0x7
 1769 03d8 6F       		.byte	0x6f
 1770 03d9 1A       		.byte	0x1a
 1771 03da B6030000 		.4byte	0x3b6
 1772 03de 04       		.byte	0x4
 1773 03df 07       		.uleb128 0x7
 1774 03e0 65030000 		.4byte	.LASF52
 1775 03e4 07       		.byte	0x7
 1776 03e5 71       		.byte	0x71
 1777 03e6 19       		.byte	0x19
 1778 03e7 FB000000 		.4byte	0xfb
 1779 03eb 08       		.byte	0x8
 1780 03ec 07       		.uleb128 0x7
 1781 03ed 1E060000 		.4byte	.LASF55
 1782 03f1 07       		.byte	0x7
 1783 03f2 72       		.byte	0x72
 1784 03f3 19       		.byte	0x19
 1785 03f4 07010000 		.4byte	0x107
 1786 03f8 0C       		.byte	0xc
 1787 03f9 00       		.byte	0
 1788 03fa 04       		.uleb128 0x4
 1789 03fb 34060000 		.4byte	.LASF56
 1790 03ff 07       		.byte	0x7
 1791 0400 73       		.byte	0x73
 1792 0401 03       		.byte	0x3
 1793 0402 BC030000 		.4byte	0x3bc
 1794 0406 0F       		.uleb128 0xf
 1795 0407 01010000 		.4byte	.LASF64
 1796 040b 07       		.byte	0x7
 1797 040c D1       		.byte	0xd1
 1798 040d 0F       		.byte	0xf
 1799 040e FA030000 		.4byte	0x3fa
 1800 0412 09       		.uleb128 0x9
 1801 0413 1C       		.byte	0x1c
 1802 0414 08       		.byte	0x8
 1803 0415 57       		.byte	0x57
 1804 0416 09       		.byte	0x9
 1805 0417 6A040000 		.4byte	0x46a
 1806 041b 07       		.uleb128 0x7
 1807 041c E2040000 		.4byte	.LASF57
 1808 0420 08       		.byte	0x8
 1809 0421 58       		.byte	0x58
 1810 0422 19       		.byte	0x19
 1811 0423 53020000 		.4byte	0x253
 1812 0427 00       		.byte	0
 1813 0428 07       		.uleb128 0x7
 1814 0429 79040000 		.4byte	.LASF58
 1815 042d 08       		.byte	0x8
 1816 042e 59       		.byte	0x59
 1817 042f 19       		.byte	0x19
 1818 0430 D7000000 		.4byte	0xd7
 1819 0434 08       		.byte	0x8
ARM GAS  /tmp/ccGdBEjb.s 			page 33


 1820 0435 07       		.uleb128 0x7
 1821 0436 9F030000 		.4byte	.LASF59
 1822 043a 08       		.byte	0x8
 1823 043b 5B       		.byte	0x5b
 1824 043c 19       		.byte	0x19
 1825 043d 1D030000 		.4byte	0x31d
 1826 0441 0C       		.byte	0xc
 1827 0442 07       		.uleb128 0x7
 1828 0443 47020000 		.4byte	.LASF60
 1829 0447 08       		.byte	0x8
 1830 0448 5E       		.byte	0x5e
 1831 0449 1A       		.byte	0x1a
 1832 044a 4D020000 		.4byte	0x24d
 1833 044e 10       		.byte	0x10
 1834 044f 07       		.uleb128 0x7
 1835 0450 F8030000 		.4byte	.LASF61
 1836 0454 08       		.byte	0x8
 1837 0455 5F       		.byte	0x5f
 1838 0456 1A       		.byte	0x1a
 1839 0457 4D020000 		.4byte	0x24d
 1840 045b 14       		.byte	0x14
 1841 045c 07       		.uleb128 0x7
 1842 045d EE030000 		.4byte	.LASF62
 1843 0461 08       		.byte	0x8
 1844 0462 62       		.byte	0x62
 1845 0463 1A       		.byte	0x1a
 1846 0464 4D020000 		.4byte	0x24d
 1847 0468 18       		.byte	0x18
 1848 0469 00       		.byte	0
 1849 046a 04       		.uleb128 0x4
 1850 046b EB050000 		.4byte	.LASF63
 1851 046f 08       		.byte	0x8
 1852 0470 64       		.byte	0x64
 1853 0471 03       		.byte	0x3
 1854 0472 12040000 		.4byte	0x412
 1855 0476 0F       		.uleb128 0xf
 1856 0477 F5050000 		.4byte	.LASF65
 1857 047b 08       		.byte	0x8
 1858 047c 68       		.byte	0x68
 1859 047d 12       		.byte	0x12
 1860 047e 6A040000 		.4byte	0x46a
 1861 0482 06       		.uleb128 0x6
 1862 0483 C4050000 		.4byte	.LASF66
 1863 0487 0C       		.byte	0xc
 1864 0488 09       		.byte	0x9
 1865 0489 25       		.byte	0x25
 1866 048a 10       		.byte	0x10
 1867 048b AA040000 		.4byte	0x4aa
 1868 048f 07       		.uleb128 0x7
 1869 0490 3F020000 		.4byte	.LASF67
 1870 0494 09       		.byte	0x9
 1871 0495 26       		.byte	0x26
 1872 0496 19       		.byte	0x19
 1873 0497 53020000 		.4byte	0x253
 1874 049b 00       		.byte	0
 1875 049c 07       		.uleb128 0x7
 1876 049d D0020000 		.4byte	.LASF68
ARM GAS  /tmp/ccGdBEjb.s 			page 34


 1877 04a1 09       		.byte	0x9
 1878 04a2 28       		.byte	0x28
 1879 04a3 19       		.byte	0x19
 1880 04a4 0C010000 		.4byte	0x10c
 1881 04a8 08       		.byte	0x8
 1882 04a9 00       		.byte	0
 1883 04aa 04       		.uleb128 0x4
 1884 04ab C4050000 		.4byte	.LASF66
 1885 04af 09       		.byte	0x9
 1886 04b0 29       		.byte	0x29
 1887 04b1 03       		.byte	0x3
 1888 04b2 82040000 		.4byte	0x482
 1889 04b6 06       		.uleb128 0x6
 1890 04b7 36030000 		.4byte	.LASF69
 1891 04bb 10       		.byte	0x10
 1892 04bc 0A       		.byte	0xa
 1893 04bd 25       		.byte	0x25
 1894 04be 10       		.byte	0x10
 1895 04bf EB040000 		.4byte	0x4eb
 1896 04c3 07       		.uleb128 0x7
 1897 04c4 D0010000 		.4byte	.LASF70
 1898 04c8 0A       		.byte	0xa
 1899 04c9 26       		.byte	0x26
 1900 04ca 19       		.byte	0x19
 1901 04cb 53020000 		.4byte	0x253
 1902 04cf 00       		.byte	0
 1903 04d0 07       		.uleb128 0x7
 1904 04d1 3B060000 		.4byte	.LASF71
 1905 04d5 0A       		.byte	0xa
 1906 04d6 28       		.byte	0x28
 1907 04d7 1A       		.byte	0x1a
 1908 04d8 4D020000 		.4byte	0x24d
 1909 04dc 08       		.byte	0x8
 1910 04dd 07       		.uleb128 0x7
 1911 04de 67050000 		.4byte	.LASF72
 1912 04e2 0A       		.byte	0xa
 1913 04e3 2A       		.byte	0x2a
 1914 04e4 1A       		.byte	0x1a
 1915 04e5 EB040000 		.4byte	0x4eb
 1916 04e9 0C       		.byte	0xc
 1917 04ea 00       		.byte	0
 1918 04eb 0A       		.uleb128 0xa
 1919 04ec 04       		.byte	0x4
 1920 04ed B6040000 		.4byte	0x4b6
 1921 04f1 04       		.uleb128 0x4
 1922 04f2 36030000 		.4byte	.LASF69
 1923 04f6 0A       		.byte	0xa
 1924 04f7 2C       		.byte	0x2c
 1925 04f8 03       		.byte	0x3
 1926 04f9 B6040000 		.4byte	0x4b6
 1927 04fd 09       		.uleb128 0x9
 1928 04fe 28       		.byte	0x28
 1929 04ff 0B       		.byte	0xb
 1930 0500 2C       		.byte	0x2c
 1931 0501 09       		.byte	0x9
 1932 0502 55050000 		.4byte	0x555
 1933 0506 07       		.uleb128 0x7
ARM GAS  /tmp/ccGdBEjb.s 			page 35


 1934 0507 D6030000 		.4byte	.LASF73
 1935 050b 0B       		.byte	0xb
 1936 050c 2D       		.byte	0x2d
 1937 050d 1A       		.byte	0x1a
 1938 050e 55050000 		.4byte	0x555
 1939 0512 00       		.byte	0
 1940 0513 07       		.uleb128 0x7
 1941 0514 40040000 		.4byte	.LASF74
 1942 0518 0B       		.byte	0xb
 1943 0519 2F       		.byte	0x2f
 1944 051a 1A       		.byte	0x1a
 1945 051b 55050000 		.4byte	0x555
 1946 051f 04       		.byte	0x4
 1947 0520 07       		.uleb128 0x7
 1948 0521 67010000 		.4byte	.LASF75
 1949 0525 0B       		.byte	0xb
 1950 0526 31       		.byte	0x31
 1951 0527 1A       		.byte	0x1a
 1952 0528 55050000 		.4byte	0x555
 1953 052c 08       		.byte	0x8
 1954 052d 07       		.uleb128 0x7
 1955 052e EE000000 		.4byte	.LASF76
 1956 0532 0B       		.byte	0xb
 1957 0533 32       		.byte	0x32
 1958 0534 1A       		.byte	0x1a
 1959 0535 55050000 		.4byte	0x555
 1960 0539 0C       		.byte	0xc
 1961 053a 07       		.uleb128 0x7
 1962 053b CE050000 		.4byte	.LASF77
 1963 053f 0B       		.byte	0xb
 1964 0540 33       		.byte	0x33
 1965 0541 19       		.byte	0x19
 1966 0542 AA040000 		.4byte	0x4aa
 1967 0546 10       		.byte	0x10
 1968 0547 07       		.uleb128 0x7
 1969 0548 B1020000 		.4byte	.LASF78
 1970 054c 0B       		.byte	0xb
 1971 054d 35       		.byte	0x35
 1972 054e 19       		.byte	0x19
 1973 054f AA040000 		.4byte	0x4aa
 1974 0553 1C       		.byte	0x1c
 1975 0554 00       		.byte	0
 1976 0555 0A       		.uleb128 0xa
 1977 0556 04       		.byte	0x4
 1978 0557 E3000000 		.4byte	0xe3
 1979 055b 04       		.uleb128 0x4
 1980 055c 08010000 		.4byte	.LASF79
 1981 0560 0B       		.byte	0xb
 1982 0561 37       		.byte	0x37
 1983 0562 03       		.byte	0x3
 1984 0563 FD040000 		.4byte	0x4fd
 1985 0567 10       		.uleb128 0x10
 1986 0568 04       		.byte	0x4
 1987 0569 05       		.byte	0x5
 1988 056a 8F       		.byte	0x8f
 1989 056b 03       		.byte	0x3
 1990 056c A1050000 		.4byte	0x5a1
ARM GAS  /tmp/ccGdBEjb.s 			page 36


 1991 0570 11       		.uleb128 0x11
 1992 0571 E7000000 		.4byte	.LASF80
 1993 0575 05       		.byte	0x5
 1994 0576 96       		.byte	0x96
 1995 0577 19       		.byte	0x19
 1996 0578 E3000000 		.4byte	0xe3
 1997 057c 11       		.uleb128 0x11
 1998 057d 50010000 		.4byte	.LASF81
 1999 0581 05       		.byte	0x5
 2000 0582 9D       		.byte	0x9d
 2001 0583 19       		.byte	0x19
 2002 0584 E3000000 		.4byte	0xe3
 2003 0588 11       		.uleb128 0x11
 2004 0589 03060000 		.4byte	.LASF82
 2005 058d 05       		.byte	0x5
 2006 058e A4       		.byte	0xa4
 2007 058f 1A       		.byte	0x1a
 2008 0590 9A020000 		.4byte	0x29a
 2009 0594 11       		.uleb128 0x11
 2010 0595 80040000 		.4byte	.LASF83
 2011 0599 05       		.byte	0x5
 2012 059a AB       		.byte	0xab
 2013 059b 19       		.byte	0x19
 2014 059c EF000000 		.4byte	0xef
 2015 05a0 00       		.byte	0
 2016 05a1 0A       		.uleb128 0xa
 2017 05a2 04       		.byte	0x4
 2018 05a3 AE050000 		.4byte	0x5ae
 2019 05a7 03       		.uleb128 0x3
 2020 05a8 01       		.byte	0x1
 2021 05a9 08       		.byte	0x8
 2022 05aa 55050000 		.4byte	.LASF84
 2023 05ae 0C       		.uleb128 0xc
 2024 05af A7050000 		.4byte	0x5a7
 2025 05b3 0A       		.uleb128 0xa
 2026 05b4 04       		.byte	0x4
 2027 05b5 F1040000 		.4byte	0x4f1
 2028 05b9 09       		.uleb128 0x9
 2029 05ba 16       		.byte	0x16
 2030 05bb 0C       		.byte	0xc
 2031 05bc 25       		.byte	0x25
 2032 05bd 09       		.byte	0x9
 2033 05be AD060000 		.4byte	0x6ad
 2034 05c2 07       		.uleb128 0x7
 2035 05c3 C2020000 		.4byte	.LASF85
 2036 05c7 0C       		.byte	0xc
 2037 05c8 26       		.byte	0x26
 2038 05c9 0D       		.byte	0xd
 2039 05ca AD060000 		.4byte	0x6ad
 2040 05ce 00       		.byte	0
 2041 05cf 07       		.uleb128 0x7
 2042 05d0 51030000 		.4byte	.LASF86
 2043 05d4 0C       		.byte	0xc
 2044 05d5 27       		.byte	0x27
 2045 05d6 0D       		.byte	0xd
 2046 05d7 5B000000 		.4byte	0x5b
 2047 05db 04       		.byte	0x4
ARM GAS  /tmp/ccGdBEjb.s 			page 37


 2048 05dc 07       		.uleb128 0x7
 2049 05dd B2030000 		.4byte	.LASF87
 2050 05e1 0C       		.byte	0xc
 2051 05e2 28       		.byte	0x28
 2052 05e3 0D       		.byte	0xd
 2053 05e4 5B000000 		.4byte	0x5b
 2054 05e8 05       		.byte	0x5
 2055 05e9 07       		.uleb128 0x7
 2056 05ea 29060000 		.4byte	.LASF88
 2057 05ee 0C       		.byte	0xc
 2058 05ef 29       		.byte	0x29
 2059 05f0 0D       		.byte	0xd
 2060 05f1 6E000000 		.4byte	0x6e
 2061 05f5 06       		.byte	0x6
 2062 05f6 07       		.uleb128 0x7
 2063 05f7 08040000 		.4byte	.LASF89
 2064 05fb 0C       		.byte	0xc
 2065 05fc 2A       		.byte	0x2a
 2066 05fd 0D       		.byte	0xd
 2067 05fe 5B000000 		.4byte	0x5b
 2068 0602 08       		.byte	0x8
 2069 0603 07       		.uleb128 0x7
 2070 0604 75030000 		.4byte	.LASF90
 2071 0608 0C       		.byte	0xc
 2072 0609 2B       		.byte	0x2b
 2073 060a 0D       		.byte	0xd
 2074 060b 5B000000 		.4byte	0x5b
 2075 060f 09       		.byte	0x9
 2076 0610 07       		.uleb128 0x7
 2077 0611 42010000 		.4byte	.LASF91
 2078 0615 0C       		.byte	0xc
 2079 0616 2C       		.byte	0x2c
 2080 0617 0D       		.byte	0xd
 2081 0618 5B000000 		.4byte	0x5b
 2082 061c 0A       		.byte	0xa
 2083 061d 07       		.uleb128 0x7
 2084 061e D6040000 		.4byte	.LASF92
 2085 0622 0C       		.byte	0xc
 2086 0623 2D       		.byte	0x2d
 2087 0624 0D       		.byte	0xd
 2088 0625 5B000000 		.4byte	0x5b
 2089 0629 0B       		.byte	0xb
 2090 062a 07       		.uleb128 0x7
 2091 062b D9050000 		.4byte	.LASF93
 2092 062f 0C       		.byte	0xc
 2093 0630 2E       		.byte	0x2e
 2094 0631 0D       		.byte	0xd
 2095 0632 5B000000 		.4byte	0x5b
 2096 0636 0C       		.byte	0xc
 2097 0637 07       		.uleb128 0x7
 2098 0638 AC040000 		.4byte	.LASF94
 2099 063c 0C       		.byte	0xc
 2100 063d 2F       		.byte	0x2f
 2101 063e 0D       		.byte	0xd
 2102 063f 5B000000 		.4byte	0x5b
 2103 0643 0D       		.byte	0xd
 2104 0644 07       		.uleb128 0x7
ARM GAS  /tmp/ccGdBEjb.s 			page 38


 2105 0645 00000000 		.4byte	.LASF95
 2106 0649 0C       		.byte	0xc
 2107 064a 30       		.byte	0x30
 2108 064b 0D       		.byte	0xd
 2109 064c 5B000000 		.4byte	0x5b
 2110 0650 0E       		.byte	0xe
 2111 0651 07       		.uleb128 0x7
 2112 0652 8B030000 		.4byte	.LASF96
 2113 0656 0C       		.byte	0xc
 2114 0657 31       		.byte	0x31
 2115 0658 0D       		.byte	0xd
 2116 0659 5B000000 		.4byte	0x5b
 2117 065d 0F       		.byte	0xf
 2118 065e 07       		.uleb128 0x7
 2119 065f A7010000 		.4byte	.LASF97
 2120 0663 0C       		.byte	0xc
 2121 0664 32       		.byte	0x32
 2122 0665 0D       		.byte	0xd
 2123 0666 5B000000 		.4byte	0x5b
 2124 066a 10       		.byte	0x10
 2125 066b 07       		.uleb128 0x7
 2126 066c 77010000 		.4byte	.LASF98
 2127 0670 0C       		.byte	0xc
 2128 0671 34       		.byte	0x34
 2129 0672 0D       		.byte	0xd
 2130 0673 5B000000 		.4byte	0x5b
 2131 0677 11       		.byte	0x11
 2132 0678 07       		.uleb128 0x7
 2133 0679 43060000 		.4byte	.LASF99
 2134 067d 0C       		.byte	0xc
 2135 067e 35       		.byte	0x35
 2136 067f 0D       		.byte	0xd
 2137 0680 5B000000 		.4byte	0x5b
 2138 0684 12       		.byte	0x12
 2139 0685 07       		.uleb128 0x7
 2140 0686 59030000 		.4byte	.LASF100
 2141 068a 0C       		.byte	0xc
 2142 068b 36       		.byte	0x36
 2143 068c 0D       		.byte	0xd
 2144 068d 5B000000 		.4byte	0x5b
 2145 0691 13       		.byte	0x13
 2146 0692 07       		.uleb128 0x7
 2147 0693 8E040000 		.4byte	.LASF101
 2148 0697 0C       		.byte	0xc
 2149 0698 37       		.byte	0x37
 2150 0699 0D       		.byte	0xd
 2151 069a 5B000000 		.4byte	0x5b
 2152 069e 14       		.byte	0x14
 2153 069f 07       		.uleb128 0x7
 2154 06a0 6D040000 		.4byte	.LASF102
 2155 06a4 0C       		.byte	0xc
 2156 06a5 39       		.byte	0x39
 2157 06a6 0D       		.byte	0xd
 2158 06a7 5B000000 		.4byte	0x5b
 2159 06ab 15       		.byte	0x15
 2160 06ac 00       		.byte	0
 2161 06ad 12       		.uleb128 0x12
ARM GAS  /tmp/ccGdBEjb.s 			page 39


 2162 06ae A7050000 		.4byte	0x5a7
 2163 06b2 BD060000 		.4byte	0x6bd
 2164 06b6 13       		.uleb128 0x13
 2165 06b7 2C000000 		.4byte	0x2c
 2166 06bb 03       		.byte	0x3
 2167 06bc 00       		.byte	0
 2168 06bd 04       		.uleb128 0x4
 2169 06be 16020000 		.4byte	.LASF103
 2170 06c2 0C       		.byte	0xc
 2171 06c3 3A       		.byte	0x3a
 2172 06c4 03       		.byte	0x3
 2173 06c5 B9050000 		.4byte	0x5b9
 2174 06c9 0C       		.uleb128 0xc
 2175 06ca BD060000 		.4byte	0x6bd
 2176 06ce 0F       		.uleb128 0xf
 2177 06cf 98020000 		.4byte	.LASF104
 2178 06d3 0C       		.byte	0xc
 2179 06d4 77       		.byte	0x77
 2180 06d5 1D       		.byte	0x1d
 2181 06d6 C9060000 		.4byte	0x6c9
 2182 06da 12       		.uleb128 0x12
 2183 06db 82020000 		.4byte	0x282
 2184 06df EA060000 		.4byte	0x6ea
 2185 06e3 13       		.uleb128 0x13
 2186 06e4 2C000000 		.4byte	0x2c
 2187 06e8 26       		.byte	0x26
 2188 06e9 00       		.byte	0
 2189 06ea 0F       		.uleb128 0xf
 2190 06eb 2F020000 		.4byte	.LASF105
 2191 06ef 0D       		.byte	0xd
 2192 06f0 82       		.byte	0x82
 2193 06f1 08       		.byte	0x8
 2194 06f2 DA060000 		.4byte	0x6da
 2195 06f6 06       		.uleb128 0x6
 2196 06f7 B9040000 		.4byte	.LASF106
 2197 06fb 10       		.byte	0x10
 2198 06fc 0E       		.byte	0xe
 2199 06fd 3F       		.byte	0x3f
 2200 06fe 08       		.byte	0x8
 2201 06ff 38070000 		.4byte	0x738
 2202 0703 07       		.uleb128 0x7
 2203 0704 BD020000 		.4byte	.LASF107
 2204 0708 0E       		.byte	0xe
 2205 0709 40       		.byte	0x40
 2206 070a 0F       		.byte	0xf
 2207 070b A1050000 		.4byte	0x5a1
 2208 070f 00       		.byte	0
 2209 0710 07       		.uleb128 0x7
 2210 0711 BA030000 		.4byte	.LASF108
 2211 0715 0E       		.byte	0xe
 2212 0716 41       		.byte	0x41
 2213 0717 0A       		.byte	0xa
 2214 0718 3E070000 		.4byte	0x73e
 2215 071c 04       		.byte	0x4
 2216 071d 07       		.uleb128 0x7
 2217 071e 84010000 		.4byte	.LASF109
 2218 0722 0E       		.byte	0xe
ARM GAS  /tmp/ccGdBEjb.s 			page 40


 2219 0723 42       		.byte	0x42
 2220 0724 0A       		.byte	0xa
 2221 0725 3E070000 		.4byte	0x73e
 2222 0729 08       		.byte	0x8
 2223 072a 07       		.uleb128 0x7
 2224 072b 1A040000 		.4byte	.LASF110
 2225 072f 0E       		.byte	0xe
 2226 0730 43       		.byte	0x43
 2227 0731 0A       		.byte	0xa
 2228 0732 3E070000 		.4byte	0x73e
 2229 0736 0C       		.byte	0xc
 2230 0737 00       		.byte	0
 2231 0738 0C       		.uleb128 0xc
 2232 0739 F6060000 		.4byte	0x6f6
 2233 073d 14       		.uleb128 0x14
 2234 073e 0A       		.uleb128 0xa
 2235 073f 04       		.byte	0x4
 2236 0740 3D070000 		.4byte	0x73d
 2237 0744 15       		.uleb128 0x15
 2238 0745 7805     		.2byte	0x578
 2239 0747 0E       		.byte	0xe
 2240 0748 48       		.byte	0x48
 2241 0749 03       		.byte	0x3
 2242 074a 8F070000 		.4byte	0x78f
 2243 074e 08       		.uleb128 0x8
 2244 074f 543000   		.ascii	"T0\000"
 2245 0752 0E       		.byte	0xe
 2246 0753 49       		.byte	0x49
 2247 0754 05       		.byte	0x5
 2248 0755 8F070000 		.4byte	0x78f
 2249 0759 00       		.byte	0
 2250 075a 16       		.uleb128 0x16
 2251 075b 543100   		.ascii	"T1\000"
 2252 075e 0E       		.byte	0xe
 2253 075f 4A       		.byte	0x4a
 2254 0760 05       		.byte	0x5
 2255 0761 8F070000 		.4byte	0x78f
 2256 0765 1801     		.2byte	0x118
 2257 0767 16       		.uleb128 0x16
 2258 0768 543200   		.ascii	"T2\000"
 2259 076b 0E       		.byte	0xe
 2260 076c 4B       		.byte	0x4b
 2261 076d 05       		.byte	0x5
 2262 076e 8F070000 		.4byte	0x78f
 2263 0772 3002     		.2byte	0x230
 2264 0774 16       		.uleb128 0x16
 2265 0775 543300   		.ascii	"T3\000"
 2266 0778 0E       		.byte	0xe
 2267 0779 4C       		.byte	0x4c
 2268 077a 05       		.byte	0x5
 2269 077b 8F070000 		.4byte	0x78f
 2270 077f 4803     		.2byte	0x348
 2271 0781 16       		.uleb128 0x16
 2272 0782 543400   		.ascii	"T4\000"
 2273 0785 0E       		.byte	0xe
 2274 0786 4D       		.byte	0x4d
 2275 0787 05       		.byte	0x5
ARM GAS  /tmp/ccGdBEjb.s 			page 41


 2276 0788 8F070000 		.4byte	0x78f
 2277 078c 6004     		.2byte	0x460
 2278 078e 00       		.byte	0
 2279 078f 12       		.uleb128 0x12
 2280 0790 82020000 		.4byte	0x282
 2281 0794 9F070000 		.4byte	0x79f
 2282 0798 13       		.uleb128 0x13
 2283 0799 2C000000 		.4byte	0x2c
 2284 079d 45       		.byte	0x45
 2285 079e 00       		.byte	0
 2286 079f 17       		.uleb128 0x17
 2287 07a0 5A050000 		.4byte	.LASF135
 2288 07a4 7805     		.2byte	0x578
 2289 07a6 0E       		.byte	0xe
 2290 07a7 47       		.byte	0x47
 2291 07a8 07       		.byte	0x7
 2292 07a9 C5070000 		.4byte	0x7c5
 2293 07ad 18       		.uleb128 0x18
 2294 07ae 776100   		.ascii	"wa\000"
 2295 07b1 0E       		.byte	0xe
 2296 07b2 4E       		.byte	0x4e
 2297 07b3 05       		.byte	0x5
 2298 07b4 44070000 		.4byte	0x744
 2299 07b8 11       		.uleb128 0x11
 2300 07b9 20020000 		.4byte	.LASF111
 2301 07bd 0E       		.byte	0xe
 2302 07be 4F       		.byte	0x4f
 2303 07bf 0B       		.byte	0xb
 2304 07c0 C5070000 		.4byte	0x7c5
 2305 07c4 00       		.byte	0
 2306 07c5 12       		.uleb128 0x12
 2307 07c6 5B000000 		.4byte	0x5b
 2308 07ca D6070000 		.4byte	0x7d6
 2309 07ce 19       		.uleb128 0x19
 2310 07cf 2C000000 		.4byte	0x2c
 2311 07d3 7705     		.2byte	0x577
 2312 07d5 00       		.byte	0
 2313 07d6 12       		.uleb128 0x12
 2314 07d7 4D020000 		.4byte	0x24d
 2315 07db E6070000 		.4byte	0x7e6
 2316 07df 13       		.uleb128 0x13
 2317 07e0 2C000000 		.4byte	0x2c
 2318 07e4 04       		.byte	0x4
 2319 07e5 00       		.byte	0
 2320 07e6 0F       		.uleb128 0xf
 2321 07e7 02030000 		.4byte	.LASF112
 2322 07eb 0E       		.byte	0xe
 2323 07ec A9       		.byte	0xa9
 2324 07ed 10       		.byte	0x10
 2325 07ee D6070000 		.4byte	0x7d6
 2326 07f2 0F       		.uleb128 0xf
 2327 07f3 62010000 		.4byte	.LASF113
 2328 07f7 0E       		.byte	0xe
 2329 07f8 AA       		.byte	0xaa
 2330 07f9 1B       		.byte	0x1b
 2331 07fa 9F070000 		.4byte	0x79f
 2332 07fe 12       		.uleb128 0x12
ARM GAS  /tmp/ccGdBEjb.s 			page 42


 2333 07ff 9C020000 		.4byte	0x29c
 2334 0803 09080000 		.4byte	0x809
 2335 0807 1A       		.uleb128 0x1a
 2336 0808 00       		.byte	0
 2337 0809 0C       		.uleb128 0xc
 2338 080a FE070000 		.4byte	0x7fe
 2339 080e 1B       		.uleb128 0x1b
 2340 080f 776100   		.ascii	"wa\000"
 2341 0812 0E       		.byte	0xe
 2342 0813 AB       		.byte	0xab
 2343 0814 18       		.byte	0x18
 2344 0815 09080000 		.4byte	0x809
 2345 0819 0F       		.uleb128 0xf
 2346 081a A1020000 		.4byte	.LASF114
 2347 081e 0E       		.byte	0xe
 2348 081f AC       		.byte	0xac
 2349 0820 0F       		.byte	0xf
 2350 0821 9B000000 		.4byte	0x9b
 2351 0825 1C       		.uleb128 0x1c
 2352 0826 6D623100 		.ascii	"mb1\000"
 2353 082a 01       		.byte	0x1
 2354 082b 40       		.byte	0x40
 2355 082c 08       		.byte	0x8
 2356 082d 5B050000 		.4byte	0x55b
 2357 0831 05       		.uleb128 0x5
 2358 0832 03       		.byte	0x3
 2359 0833 00000000 		.4byte	mb1
 2360 0837 1D       		.uleb128 0x1d
 2361 0838 3C030000 		.4byte	.LASF115
 2362 083c 01       		.byte	0x1
 2363 083d E2       		.byte	0xe2
 2364 083e 1A       		.byte	0x1a
 2365 083f 38070000 		.4byte	0x738
 2366 0843 05       		.uleb128 0x5
 2367 0844 03       		.byte	0x3
 2368 0845 00000000 		.4byte	testmbox1
 2369 0849 12       		.uleb128 0x12
 2370 084a 64080000 		.4byte	0x864
 2371 084e 59080000 		.4byte	0x859
 2372 0852 13       		.uleb128 0x13
 2373 0853 2C000000 		.4byte	0x2c
 2374 0857 01       		.byte	0x1
 2375 0858 00       		.byte	0
 2376 0859 0C       		.uleb128 0xc
 2377 085a 49080000 		.4byte	0x849
 2378 085e 0A       		.uleb128 0xa
 2379 085f 04       		.byte	0x4
 2380 0860 38070000 		.4byte	0x738
 2381 0864 0C       		.uleb128 0xc
 2382 0865 5E080000 		.4byte	0x85e
 2383 0869 1D       		.uleb128 0x1d
 2384 086a 36010000 		.4byte	.LASF116
 2385 086e 01       		.byte	0x1
 2386 086f EE       		.byte	0xee
 2387 0870 25       		.byte	0x25
 2388 0871 59080000 		.4byte	0x859
 2389 0875 05       		.uleb128 0x5
ARM GAS  /tmp/ccGdBEjb.s 			page 43


 2390 0876 03       		.byte	0x3
 2391 0877 00000000 		.4byte	patternmbox
 2392 087b 1E       		.uleb128 0x1e
 2393 087c E0030000 		.4byte	.LASF119
 2394 0880 01       		.byte	0x1
 2395 0881 50       		.byte	0x50
 2396 0882 0D       		.byte	0xd
 2397 0883 00000000 		.4byte	.LFB8
 2398 0887 A0070000 		.4byte	.LFE8-.LFB8
 2399 088b 01       		.uleb128 0x1
 2400 088c 9C       		.byte	0x9c
 2401 088d 1D0F0000 		.4byte	0xf1d
 2402 0891 1F       		.uleb128 0x1f
 2403 0892 7B020000 		.4byte	.LASF117
 2404 0896 01       		.byte	0x1
 2405 0897 51       		.byte	0x51
 2406 0898 09       		.byte	0x9
 2407 0899 E3000000 		.4byte	0xe3
 2408 089d 2E000000 		.4byte	.LLST0
 2409 08a1 00000000 		.4byte	.LVUS0
 2410 08a5 20       		.uleb128 0x20
 2411 08a6 80020000 		.4byte	.LASF118
 2412 08aa 01       		.byte	0x1
 2413 08ab 51       		.byte	0x51
 2414 08ac 0F       		.byte	0xf
 2415 08ad E3000000 		.4byte	0xe3
 2416 08b1 02       		.uleb128 0x2
 2417 08b2 91       		.byte	0x91
 2418 08b3 6C       		.sleb128 -20
 2419 08b4 21       		.uleb128 0x21
 2420 08b5 6900     		.ascii	"i\000"
 2421 08b7 01       		.byte	0x1
 2422 08b8 52       		.byte	0x52
 2423 08b9 0C       		.byte	0xc
 2424 08ba 2C000000 		.4byte	0x2c
 2425 08be 4F010000 		.4byte	.LLST1
 2426 08c2 33010000 		.4byte	.LVUS1
 2427 08c6 22       		.uleb128 0x22
 2428 08c7 24000000 		.4byte	.LVL0
 2429 08cb 4C0F0000 		.4byte	0xf4c
 2430 08cf D9080000 		.4byte	0x8d9
 2431 08d3 23       		.uleb128 0x23
 2432 08d4 01       		.uleb128 0x1
 2433 08d5 50       		.byte	0x50
 2434 08d6 01       		.uleb128 0x1
 2435 08d7 31       		.byte	0x31
 2436 08d8 00       		.byte	0
 2437 08d9 22       		.uleb128 0x22
 2438 08da 44000000 		.4byte	.LVL2
 2439 08de 580F0000 		.4byte	0xf58
 2440 08e2 F9080000 		.4byte	0x8f9
 2441 08e6 23       		.uleb128 0x23
 2442 08e7 01       		.uleb128 0x1
 2443 08e8 50       		.byte	0x50
 2444 08e9 02       		.uleb128 0x2
 2445 08ea 75       		.byte	0x75
 2446 08eb 00       		.sleb128 0
ARM GAS  /tmp/ccGdBEjb.s 			page 44


 2447 08ec 23       		.uleb128 0x23
 2448 08ed 01       		.uleb128 0x1
 2449 08ee 51       		.byte	0x51
 2450 08ef 02       		.uleb128 0x2
 2451 08f0 74       		.byte	0x74
 2452 08f1 00       		.sleb128 0
 2453 08f2 23       		.uleb128 0x23
 2454 08f3 01       		.uleb128 0x1
 2455 08f4 52       		.byte	0x52
 2456 08f5 02       		.uleb128 0x2
 2457 08f6 09       		.byte	0x9
 2458 08f7 FF       		.byte	0xff
 2459 08f8 00       		.byte	0
 2460 08f9 22       		.uleb128 0x22
 2461 08fa 54000000 		.4byte	.LVL4
 2462 08fe 4C0F0000 		.4byte	0xf4c
 2463 0902 0C090000 		.4byte	0x90c
 2464 0906 23       		.uleb128 0x23
 2465 0907 01       		.uleb128 0x1
 2466 0908 50       		.byte	0x50
 2467 0909 01       		.uleb128 0x1
 2468 090a 32       		.byte	0x32
 2469 090b 00       		.byte	0
 2470 090c 22       		.uleb128 0x22
 2471 090d 78000000 		.4byte	.LVL6
 2472 0911 640F0000 		.4byte	0xf64
 2473 0915 2C090000 		.4byte	0x92c
 2474 0919 23       		.uleb128 0x23
 2475 091a 01       		.uleb128 0x1
 2476 091b 50       		.byte	0x50
 2477 091c 02       		.uleb128 0x2
 2478 091d 75       		.byte	0x75
 2479 091e 00       		.sleb128 0
 2480 091f 23       		.uleb128 0x23
 2481 0920 01       		.uleb128 0x1
 2482 0921 51       		.byte	0x51
 2483 0922 02       		.uleb128 0x2
 2484 0923 08       		.byte	0x8
 2485 0924 41       		.byte	0x41
 2486 0925 23       		.uleb128 0x23
 2487 0926 01       		.uleb128 0x1
 2488 0927 52       		.byte	0x52
 2489 0928 02       		.uleb128 0x2
 2490 0929 09       		.byte	0x9
 2491 092a FF       		.byte	0xff
 2492 092b 00       		.byte	0
 2493 092c 22       		.uleb128 0x22
 2494 092d 88000000 		.4byte	.LVL8
 2495 0931 4C0F0000 		.4byte	0xf4c
 2496 0935 3F090000 		.4byte	0x93f
 2497 0939 23       		.uleb128 0x23
 2498 093a 01       		.uleb128 0x1
 2499 093b 50       		.byte	0x50
 2500 093c 01       		.uleb128 0x1
 2501 093d 33       		.byte	0x33
 2502 093e 00       		.byte	0
 2503 093f 22       		.uleb128 0x22
ARM GAS  /tmp/ccGdBEjb.s 			page 45


 2504 0940 A8000000 		.4byte	.LVL11
 2505 0944 580F0000 		.4byte	0xf58
 2506 0948 5E090000 		.4byte	0x95e
 2507 094c 23       		.uleb128 0x23
 2508 094d 01       		.uleb128 0x1
 2509 094e 50       		.byte	0x50
 2510 094f 02       		.uleb128 0x2
 2511 0950 75       		.byte	0x75
 2512 0951 00       		.sleb128 0
 2513 0952 23       		.uleb128 0x23
 2514 0953 01       		.uleb128 0x1
 2515 0954 51       		.byte	0x51
 2516 0955 02       		.uleb128 0x2
 2517 0956 08       		.byte	0x8
 2518 0957 58       		.byte	0x58
 2519 0958 23       		.uleb128 0x23
 2520 0959 01       		.uleb128 0x1
 2521 095a 52       		.byte	0x52
 2522 095b 01       		.uleb128 0x1
 2523 095c 31       		.byte	0x31
 2524 095d 00       		.byte	0
 2525 095e 22       		.uleb128 0x22
 2526 095f C0000000 		.4byte	.LVL14
 2527 0963 4C0F0000 		.4byte	0xf4c
 2528 0967 71090000 		.4byte	0x971
 2529 096b 23       		.uleb128 0x23
 2530 096c 01       		.uleb128 0x1
 2531 096d 50       		.byte	0x50
 2532 096e 01       		.uleb128 0x1
 2533 096f 34       		.byte	0x34
 2534 0970 00       		.byte	0
 2535 0971 22       		.uleb128 0x22
 2536 0972 D8000000 		.4byte	.LVL15
 2537 0976 700F0000 		.4byte	0xf70
 2538 097a 8B090000 		.4byte	0x98b
 2539 097e 23       		.uleb128 0x23
 2540 097f 01       		.uleb128 0x1
 2541 0980 50       		.byte	0x50
 2542 0981 02       		.uleb128 0x2
 2543 0982 75       		.byte	0x75
 2544 0983 00       		.sleb128 0
 2545 0984 23       		.uleb128 0x23
 2546 0985 01       		.uleb128 0x1
 2547 0986 51       		.byte	0x51
 2548 0987 02       		.uleb128 0x2
 2549 0988 08       		.byte	0x8
 2550 0989 58       		.byte	0x58
 2551 098a 00       		.byte	0
 2552 098b 22       		.uleb128 0x22
 2553 098c F4000000 		.4byte	.LVL18
 2554 0990 4C0F0000 		.4byte	0xf4c
 2555 0994 9E090000 		.4byte	0x99e
 2556 0998 23       		.uleb128 0x23
 2557 0999 01       		.uleb128 0x1
 2558 099a 50       		.byte	0x50
 2559 099b 01       		.uleb128 0x1
 2560 099c 35       		.byte	0x35
ARM GAS  /tmp/ccGdBEjb.s 			page 46


 2561 099d 00       		.byte	0
 2562 099e 22       		.uleb128 0x22
 2563 099f 0C010000 		.4byte	.LVL19
 2564 09a3 640F0000 		.4byte	0xf64
 2565 09a7 BD090000 		.4byte	0x9bd
 2566 09ab 23       		.uleb128 0x23
 2567 09ac 01       		.uleb128 0x1
 2568 09ad 50       		.byte	0x50
 2569 09ae 02       		.uleb128 0x2
 2570 09af 75       		.byte	0x75
 2571 09b0 00       		.sleb128 0
 2572 09b1 23       		.uleb128 0x23
 2573 09b2 01       		.uleb128 0x1
 2574 09b3 51       		.byte	0x51
 2575 09b4 02       		.uleb128 0x2
 2576 09b5 08       		.byte	0x8
 2577 09b6 58       		.byte	0x58
 2578 09b7 23       		.uleb128 0x23
 2579 09b8 01       		.uleb128 0x1
 2580 09b9 52       		.byte	0x52
 2581 09ba 01       		.uleb128 0x1
 2582 09bb 31       		.byte	0x31
 2583 09bc 00       		.byte	0
 2584 09bd 22       		.uleb128 0x22
 2585 09be 24010000 		.4byte	.LVL22
 2586 09c2 4C0F0000 		.4byte	0xf4c
 2587 09c6 D0090000 		.4byte	0x9d0
 2588 09ca 23       		.uleb128 0x23
 2589 09cb 01       		.uleb128 0x1
 2590 09cc 50       		.byte	0x50
 2591 09cd 01       		.uleb128 0x1
 2592 09ce 36       		.byte	0x36
 2593 09cf 00       		.byte	0
 2594 09d0 22       		.uleb128 0x22
 2595 09d1 3C010000 		.4byte	.LVL23
 2596 09d5 7C0F0000 		.4byte	0xf7c
 2597 09d9 EA090000 		.4byte	0x9ea
 2598 09dd 23       		.uleb128 0x23
 2599 09de 01       		.uleb128 0x1
 2600 09df 50       		.byte	0x50
 2601 09e0 02       		.uleb128 0x2
 2602 09e1 75       		.byte	0x75
 2603 09e2 00       		.sleb128 0
 2604 09e3 23       		.uleb128 0x23
 2605 09e4 01       		.uleb128 0x1
 2606 09e5 51       		.byte	0x51
 2607 09e6 02       		.uleb128 0x2
 2608 09e7 08       		.byte	0x8
 2609 09e8 58       		.byte	0x58
 2610 09e9 00       		.byte	0
 2611 09ea 22       		.uleb128 0x22
 2612 09eb 58010000 		.4byte	.LVL26
 2613 09ef 4C0F0000 		.4byte	0xf4c
 2614 09f3 FD090000 		.4byte	0x9fd
 2615 09f7 23       		.uleb128 0x23
 2616 09f8 01       		.uleb128 0x1
 2617 09f9 50       		.byte	0x50
ARM GAS  /tmp/ccGdBEjb.s 			page 47


 2618 09fa 01       		.uleb128 0x1
 2619 09fb 37       		.byte	0x37
 2620 09fc 00       		.byte	0
 2621 09fd 22       		.uleb128 0x22
 2622 09fe 78010000 		.4byte	.LVL27
 2623 0a02 4C0F0000 		.4byte	0xf4c
 2624 0a06 100A0000 		.4byte	0xa10
 2625 0a0a 23       		.uleb128 0x23
 2626 0a0b 01       		.uleb128 0x1
 2627 0a0c 50       		.byte	0x50
 2628 0a0d 01       		.uleb128 0x1
 2629 0a0e 38       		.byte	0x38
 2630 0a0f 00       		.byte	0
 2631 0a10 22       		.uleb128 0x22
 2632 0a11 A0010000 		.4byte	.LVL28
 2633 0a15 4C0F0000 		.4byte	0xf4c
 2634 0a19 230A0000 		.4byte	0xa23
 2635 0a1d 23       		.uleb128 0x23
 2636 0a1e 01       		.uleb128 0x1
 2637 0a1f 50       		.byte	0x50
 2638 0a20 01       		.uleb128 0x1
 2639 0a21 39       		.byte	0x39
 2640 0a22 00       		.byte	0
 2641 0a23 22       		.uleb128 0x22
 2642 0a24 CC010000 		.4byte	.LVL29
 2643 0a28 4C0F0000 		.4byte	0xf4c
 2644 0a2c 360A0000 		.4byte	0xa36
 2645 0a30 23       		.uleb128 0x23
 2646 0a31 01       		.uleb128 0x1
 2647 0a32 50       		.byte	0x50
 2648 0a33 01       		.uleb128 0x1
 2649 0a34 3A       		.byte	0x3a
 2650 0a35 00       		.byte	0
 2651 0a36 22       		.uleb128 0x22
 2652 0a37 F0010000 		.4byte	.LVL32
 2653 0a3b 880F0000 		.4byte	0xf88
 2654 0a3f 560A0000 		.4byte	0xa56
 2655 0a43 23       		.uleb128 0x23
 2656 0a44 01       		.uleb128 0x1
 2657 0a45 50       		.byte	0x50
 2658 0a46 02       		.uleb128 0x2
 2659 0a47 75       		.byte	0x75
 2660 0a48 00       		.sleb128 0
 2661 0a49 23       		.uleb128 0x23
 2662 0a4a 01       		.uleb128 0x1
 2663 0a4b 51       		.byte	0x51
 2664 0a4c 02       		.uleb128 0x2
 2665 0a4d 91       		.byte	0x91
 2666 0a4e 64       		.sleb128 -28
 2667 0a4f 23       		.uleb128 0x23
 2668 0a50 01       		.uleb128 0x1
 2669 0a51 52       		.byte	0x52
 2670 0a52 02       		.uleb128 0x2
 2671 0a53 09       		.byte	0x9
 2672 0a54 FF       		.byte	0xff
 2673 0a55 00       		.byte	0
 2674 0a56 22       		.uleb128 0x22
ARM GAS  /tmp/ccGdBEjb.s 			page 48


 2675 0a57 00020000 		.4byte	.LVL34
 2676 0a5b 4C0F0000 		.4byte	0xf4c
 2677 0a5f 690A0000 		.4byte	0xa69
 2678 0a63 23       		.uleb128 0x23
 2679 0a64 01       		.uleb128 0x1
 2680 0a65 50       		.byte	0x50
 2681 0a66 01       		.uleb128 0x1
 2682 0a67 3B       		.byte	0x3b
 2683 0a68 00       		.byte	0
 2684 0a69 24       		.uleb128 0x24
 2685 0a6a 10020000 		.4byte	.LVL35
 2686 0a6e 940F0000 		.4byte	0xf94
 2687 0a72 22       		.uleb128 0x22
 2688 0a73 24020000 		.4byte	.LVL37
 2689 0a77 A00F0000 		.4byte	0xfa0
 2690 0a7b 8E0A0000 		.4byte	0xa8e
 2691 0a7f 23       		.uleb128 0x23
 2692 0a80 01       		.uleb128 0x1
 2693 0a81 50       		.byte	0x50
 2694 0a82 01       		.uleb128 0x1
 2695 0a83 3C       		.byte	0x3c
 2696 0a84 23       		.uleb128 0x23
 2697 0a85 01       		.uleb128 0x1
 2698 0a86 51       		.byte	0x51
 2699 0a87 05       		.uleb128 0x5
 2700 0a88 03       		.byte	0x3
 2701 0a89 00000000 		.4byte	.LC0
 2702 0a8d 00       		.byte	0
 2703 0a8e 22       		.uleb128 0x22
 2704 0a8f 3C020000 		.4byte	.LVL38
 2705 0a93 580F0000 		.4byte	0xf58
 2706 0a97 AE0A0000 		.4byte	0xaae
 2707 0a9b 23       		.uleb128 0x23
 2708 0a9c 01       		.uleb128 0x1
 2709 0a9d 50       		.byte	0x50
 2710 0a9e 02       		.uleb128 0x2
 2711 0a9f 75       		.byte	0x75
 2712 0aa0 00       		.sleb128 0
 2713 0aa1 23       		.uleb128 0x23
 2714 0aa2 01       		.uleb128 0x1
 2715 0aa3 51       		.byte	0x51
 2716 0aa4 02       		.uleb128 0x2
 2717 0aa5 08       		.byte	0x8
 2718 0aa6 47       		.byte	0x47
 2719 0aa7 23       		.uleb128 0x23
 2720 0aa8 01       		.uleb128 0x1
 2721 0aa9 52       		.byte	0x52
 2722 0aaa 02       		.uleb128 0x2
 2723 0aab 09       		.byte	0x9
 2724 0aac FF       		.byte	0xff
 2725 0aad 00       		.byte	0
 2726 0aae 22       		.uleb128 0x22
 2727 0aaf 4C020000 		.4byte	.LVL40
 2728 0ab3 4C0F0000 		.4byte	0xf4c
 2729 0ab7 C10A0000 		.4byte	0xac1
 2730 0abb 23       		.uleb128 0x23
 2731 0abc 01       		.uleb128 0x1
ARM GAS  /tmp/ccGdBEjb.s 			page 49


 2732 0abd 50       		.byte	0x50
 2733 0abe 01       		.uleb128 0x1
 2734 0abf 3D       		.byte	0x3d
 2735 0ac0 00       		.byte	0
 2736 0ac1 22       		.uleb128 0x22
 2737 0ac2 64020000 		.4byte	.LVL41
 2738 0ac6 880F0000 		.4byte	0xf88
 2739 0aca E10A0000 		.4byte	0xae1
 2740 0ace 23       		.uleb128 0x23
 2741 0acf 01       		.uleb128 0x1
 2742 0ad0 50       		.byte	0x50
 2743 0ad1 02       		.uleb128 0x2
 2744 0ad2 75       		.byte	0x75
 2745 0ad3 00       		.sleb128 0
 2746 0ad4 23       		.uleb128 0x23
 2747 0ad5 01       		.uleb128 0x1
 2748 0ad6 51       		.byte	0x51
 2749 0ad7 02       		.uleb128 0x2
 2750 0ad8 91       		.byte	0x91
 2751 0ad9 64       		.sleb128 -28
 2752 0ada 23       		.uleb128 0x23
 2753 0adb 01       		.uleb128 0x1
 2754 0adc 52       		.byte	0x52
 2755 0add 02       		.uleb128 0x2
 2756 0ade 09       		.byte	0x9
 2757 0adf FF       		.byte	0xff
 2758 0ae0 00       		.byte	0
 2759 0ae1 22       		.uleb128 0x22
 2760 0ae2 74020000 		.4byte	.LVL43
 2761 0ae6 4C0F0000 		.4byte	0xf4c
 2762 0aea F40A0000 		.4byte	0xaf4
 2763 0aee 23       		.uleb128 0x23
 2764 0aef 01       		.uleb128 0x1
 2765 0af0 50       		.byte	0x50
 2766 0af1 01       		.uleb128 0x1
 2767 0af2 3E       		.byte	0x3e
 2768 0af3 00       		.byte	0
 2769 0af4 22       		.uleb128 0x22
 2770 0af5 98020000 		.4byte	.LVL44
 2771 0af9 4C0F0000 		.4byte	0xf4c
 2772 0afd 070B0000 		.4byte	0xb07
 2773 0b01 23       		.uleb128 0x23
 2774 0b02 01       		.uleb128 0x1
 2775 0b03 50       		.byte	0x50
 2776 0b04 01       		.uleb128 0x1
 2777 0b05 3F       		.byte	0x3f
 2778 0b06 00       		.byte	0
 2779 0b07 22       		.uleb128 0x22
 2780 0b08 BC020000 		.4byte	.LVL45
 2781 0b0c 4C0F0000 		.4byte	0xf4c
 2782 0b10 1A0B0000 		.4byte	0xb1a
 2783 0b14 23       		.uleb128 0x23
 2784 0b15 01       		.uleb128 0x1
 2785 0b16 50       		.byte	0x50
 2786 0b17 01       		.uleb128 0x1
 2787 0b18 40       		.byte	0x40
 2788 0b19 00       		.byte	0
ARM GAS  /tmp/ccGdBEjb.s 			page 50


 2789 0b1a 22       		.uleb128 0x22
 2790 0b1b D4020000 		.4byte	.LVL46
 2791 0b1f 880F0000 		.4byte	0xf88
 2792 0b23 390B0000 		.4byte	0xb39
 2793 0b27 23       		.uleb128 0x23
 2794 0b28 01       		.uleb128 0x1
 2795 0b29 50       		.byte	0x50
 2796 0b2a 02       		.uleb128 0x2
 2797 0b2b 75       		.byte	0x75
 2798 0b2c 00       		.sleb128 0
 2799 0b2d 23       		.uleb128 0x23
 2800 0b2e 01       		.uleb128 0x1
 2801 0b2f 51       		.byte	0x51
 2802 0b30 02       		.uleb128 0x2
 2803 0b31 91       		.byte	0x91
 2804 0b32 64       		.sleb128 -28
 2805 0b33 23       		.uleb128 0x23
 2806 0b34 01       		.uleb128 0x1
 2807 0b35 52       		.byte	0x52
 2808 0b36 01       		.uleb128 0x1
 2809 0b37 31       		.byte	0x31
 2810 0b38 00       		.byte	0
 2811 0b39 22       		.uleb128 0x22
 2812 0b3a EC020000 		.4byte	.LVL49
 2813 0b3e 4C0F0000 		.4byte	0xf4c
 2814 0b42 4C0B0000 		.4byte	0xb4c
 2815 0b46 23       		.uleb128 0x23
 2816 0b47 01       		.uleb128 0x1
 2817 0b48 50       		.byte	0x50
 2818 0b49 01       		.uleb128 0x1
 2819 0b4a 41       		.byte	0x41
 2820 0b4b 00       		.byte	0
 2821 0b4c 22       		.uleb128 0x22
 2822 0b4d 04030000 		.4byte	.LVL50
 2823 0b51 AC0F0000 		.4byte	0xfac
 2824 0b55 660B0000 		.4byte	0xb66
 2825 0b59 23       		.uleb128 0x23
 2826 0b5a 01       		.uleb128 0x1
 2827 0b5b 50       		.byte	0x50
 2828 0b5c 02       		.uleb128 0x2
 2829 0b5d 75       		.byte	0x75
 2830 0b5e 00       		.sleb128 0
 2831 0b5f 23       		.uleb128 0x23
 2832 0b60 01       		.uleb128 0x1
 2833 0b61 51       		.byte	0x51
 2834 0b62 02       		.uleb128 0x2
 2835 0b63 91       		.byte	0x91
 2836 0b64 64       		.sleb128 -28
 2837 0b65 00       		.byte	0
 2838 0b66 22       		.uleb128 0x22
 2839 0b67 20030000 		.4byte	.LVL53
 2840 0b6b 4C0F0000 		.4byte	0xf4c
 2841 0b6f 790B0000 		.4byte	0xb79
 2842 0b73 23       		.uleb128 0x23
 2843 0b74 01       		.uleb128 0x1
 2844 0b75 50       		.byte	0x50
 2845 0b76 01       		.uleb128 0x1
ARM GAS  /tmp/ccGdBEjb.s 			page 51


 2846 0b77 42       		.byte	0x42
 2847 0b78 00       		.byte	0
 2848 0b79 22       		.uleb128 0x22
 2849 0b7a 44030000 		.4byte	.LVL54
 2850 0b7e 4C0F0000 		.4byte	0xf4c
 2851 0b82 8C0B0000 		.4byte	0xb8c
 2852 0b86 23       		.uleb128 0x23
 2853 0b87 01       		.uleb128 0x1
 2854 0b88 50       		.byte	0x50
 2855 0b89 01       		.uleb128 0x1
 2856 0b8a 43       		.byte	0x43
 2857 0b8b 00       		.byte	0
 2858 0b8c 22       		.uleb128 0x22
 2859 0b8d 68030000 		.4byte	.LVL55
 2860 0b91 4C0F0000 		.4byte	0xf4c
 2861 0b95 9F0B0000 		.4byte	0xb9f
 2862 0b99 23       		.uleb128 0x23
 2863 0b9a 01       		.uleb128 0x1
 2864 0b9b 50       		.byte	0x50
 2865 0b9c 01       		.uleb128 0x1
 2866 0b9d 44       		.byte	0x44
 2867 0b9e 00       		.byte	0
 2868 0b9f 22       		.uleb128 0x22
 2869 0ba0 94030000 		.4byte	.LVL56
 2870 0ba4 4C0F0000 		.4byte	0xf4c
 2871 0ba8 B20B0000 		.4byte	0xbb2
 2872 0bac 23       		.uleb128 0x23
 2873 0bad 01       		.uleb128 0x1
 2874 0bae 50       		.byte	0x50
 2875 0baf 01       		.uleb128 0x1
 2876 0bb0 45       		.byte	0x45
 2877 0bb1 00       		.byte	0
 2878 0bb2 22       		.uleb128 0x22
 2879 0bb3 B0030000 		.4byte	.LVL57
 2880 0bb7 700F0000 		.4byte	0xf70
 2881 0bbb CC0B0000 		.4byte	0xbcc
 2882 0bbf 23       		.uleb128 0x23
 2883 0bc0 01       		.uleb128 0x1
 2884 0bc1 50       		.byte	0x50
 2885 0bc2 02       		.uleb128 0x2
 2886 0bc3 75       		.byte	0x75
 2887 0bc4 00       		.sleb128 0
 2888 0bc5 23       		.uleb128 0x23
 2889 0bc6 01       		.uleb128 0x1
 2890 0bc7 51       		.byte	0x51
 2891 0bc8 02       		.uleb128 0x2
 2892 0bc9 08       		.byte	0x8
 2893 0bca 41       		.byte	0x41
 2894 0bcb 00       		.byte	0
 2895 0bcc 22       		.uleb128 0x22
 2896 0bcd C0030000 		.4byte	.LVL59
 2897 0bd1 4C0F0000 		.4byte	0xf4c
 2898 0bd5 DF0B0000 		.4byte	0xbdf
 2899 0bd9 23       		.uleb128 0x23
 2900 0bda 01       		.uleb128 0x1
 2901 0bdb 50       		.byte	0x50
 2902 0bdc 01       		.uleb128 0x1
ARM GAS  /tmp/ccGdBEjb.s 			page 52


 2903 0bdd 46       		.byte	0x46
 2904 0bde 00       		.byte	0
 2905 0bdf 22       		.uleb128 0x22
 2906 0be0 D4030000 		.4byte	.LVL60
 2907 0be4 700F0000 		.4byte	0xf70
 2908 0be8 F90B0000 		.4byte	0xbf9
 2909 0bec 23       		.uleb128 0x23
 2910 0bed 01       		.uleb128 0x1
 2911 0bee 50       		.byte	0x50
 2912 0bef 02       		.uleb128 0x2
 2913 0bf0 75       		.byte	0x75
 2914 0bf1 00       		.sleb128 0
 2915 0bf2 23       		.uleb128 0x23
 2916 0bf3 01       		.uleb128 0x1
 2917 0bf4 51       		.byte	0x51
 2918 0bf5 02       		.uleb128 0x2
 2919 0bf6 08       		.byte	0x8
 2920 0bf7 42       		.byte	0x42
 2921 0bf8 00       		.byte	0
 2922 0bf9 22       		.uleb128 0x22
 2923 0bfa E4030000 		.4byte	.LVL62
 2924 0bfe 4C0F0000 		.4byte	0xf4c
 2925 0c02 0C0C0000 		.4byte	0xc0c
 2926 0c06 23       		.uleb128 0x23
 2927 0c07 01       		.uleb128 0x1
 2928 0c08 50       		.byte	0x50
 2929 0c09 01       		.uleb128 0x1
 2930 0c0a 47       		.byte	0x47
 2931 0c0b 00       		.byte	0
 2932 0c0c 22       		.uleb128 0x22
 2933 0c0d F8030000 		.4byte	.LVL63
 2934 0c11 700F0000 		.4byte	0xf70
 2935 0c15 260C0000 		.4byte	0xc26
 2936 0c19 23       		.uleb128 0x23
 2937 0c1a 01       		.uleb128 0x1
 2938 0c1b 50       		.byte	0x50
 2939 0c1c 02       		.uleb128 0x2
 2940 0c1d 75       		.byte	0x75
 2941 0c1e 00       		.sleb128 0
 2942 0c1f 23       		.uleb128 0x23
 2943 0c20 01       		.uleb128 0x1
 2944 0c21 51       		.byte	0x51
 2945 0c22 02       		.uleb128 0x2
 2946 0c23 08       		.byte	0x8
 2947 0c24 43       		.byte	0x43
 2948 0c25 00       		.byte	0
 2949 0c26 22       		.uleb128 0x22
 2950 0c27 08040000 		.4byte	.LVL65
 2951 0c2b 4C0F0000 		.4byte	0xf4c
 2952 0c2f 390C0000 		.4byte	0xc39
 2953 0c33 23       		.uleb128 0x23
 2954 0c34 01       		.uleb128 0x1
 2955 0c35 50       		.byte	0x50
 2956 0c36 01       		.uleb128 0x1
 2957 0c37 48       		.byte	0x48
 2958 0c38 00       		.byte	0
 2959 0c39 22       		.uleb128 0x22
ARM GAS  /tmp/ccGdBEjb.s 			page 53


 2960 0c3a 1C040000 		.4byte	.LVL66
 2961 0c3e 700F0000 		.4byte	0xf70
 2962 0c42 530C0000 		.4byte	0xc53
 2963 0c46 23       		.uleb128 0x23
 2964 0c47 01       		.uleb128 0x1
 2965 0c48 50       		.byte	0x50
 2966 0c49 02       		.uleb128 0x2
 2967 0c4a 75       		.byte	0x75
 2968 0c4b 00       		.sleb128 0
 2969 0c4c 23       		.uleb128 0x23
 2970 0c4d 01       		.uleb128 0x1
 2971 0c4e 51       		.byte	0x51
 2972 0c4f 02       		.uleb128 0x2
 2973 0c50 08       		.byte	0x8
 2974 0c51 44       		.byte	0x44
 2975 0c52 00       		.byte	0
 2976 0c53 22       		.uleb128 0x22
 2977 0c54 2C040000 		.4byte	.LVL68
 2978 0c58 4C0F0000 		.4byte	0xf4c
 2979 0c5c 660C0000 		.4byte	0xc66
 2980 0c60 23       		.uleb128 0x23
 2981 0c61 01       		.uleb128 0x1
 2982 0c62 50       		.byte	0x50
 2983 0c63 01       		.uleb128 0x1
 2984 0c64 49       		.byte	0x49
 2985 0c65 00       		.byte	0
 2986 0c66 22       		.uleb128 0x22
 2987 0c67 40040000 		.4byte	.LVL69
 2988 0c6b 700F0000 		.4byte	0xf70
 2989 0c6f 800C0000 		.4byte	0xc80
 2990 0c73 23       		.uleb128 0x23
 2991 0c74 01       		.uleb128 0x1
 2992 0c75 50       		.byte	0x50
 2993 0c76 02       		.uleb128 0x2
 2994 0c77 75       		.byte	0x75
 2995 0c78 00       		.sleb128 0
 2996 0c79 23       		.uleb128 0x23
 2997 0c7a 01       		.uleb128 0x1
 2998 0c7b 51       		.byte	0x51
 2999 0c7c 02       		.uleb128 0x2
 3000 0c7d 08       		.byte	0x8
 3001 0c7e 45       		.byte	0x45
 3002 0c7f 00       		.byte	0
 3003 0c80 22       		.uleb128 0x22
 3004 0c81 54040000 		.4byte	.LVL71
 3005 0c85 4C0F0000 		.4byte	0xf4c
 3006 0c89 930C0000 		.4byte	0xc93
 3007 0c8d 23       		.uleb128 0x23
 3008 0c8e 01       		.uleb128 0x1
 3009 0c8f 50       		.byte	0x50
 3010 0c90 01       		.uleb128 0x1
 3011 0c91 4A       		.byte	0x4a
 3012 0c92 00       		.byte	0
 3013 0c93 22       		.uleb128 0x22
 3014 0c94 78040000 		.4byte	.LVL72
 3015 0c98 4C0F0000 		.4byte	0xf4c
 3016 0c9c A60C0000 		.4byte	0xca6
ARM GAS  /tmp/ccGdBEjb.s 			page 54


 3017 0ca0 23       		.uleb128 0x23
 3018 0ca1 01       		.uleb128 0x1
 3019 0ca2 50       		.byte	0x50
 3020 0ca3 01       		.uleb128 0x1
 3021 0ca4 4B       		.byte	0x4b
 3022 0ca5 00       		.byte	0
 3023 0ca6 22       		.uleb128 0x22
 3024 0ca7 98040000 		.4byte	.LVL75
 3025 0cab AC0F0000 		.4byte	0xfac
 3026 0caf C00C0000 		.4byte	0xcc0
 3027 0cb3 23       		.uleb128 0x23
 3028 0cb4 01       		.uleb128 0x1
 3029 0cb5 50       		.byte	0x50
 3030 0cb6 02       		.uleb128 0x2
 3031 0cb7 75       		.byte	0x75
 3032 0cb8 00       		.sleb128 0
 3033 0cb9 23       		.uleb128 0x23
 3034 0cba 01       		.uleb128 0x1
 3035 0cbb 51       		.byte	0x51
 3036 0cbc 02       		.uleb128 0x2
 3037 0cbd 91       		.byte	0x91
 3038 0cbe 64       		.sleb128 -28
 3039 0cbf 00       		.byte	0
 3040 0cc0 22       		.uleb128 0x22
 3041 0cc1 AC040000 		.4byte	.LVL77
 3042 0cc5 4C0F0000 		.4byte	0xf4c
 3043 0cc9 D30C0000 		.4byte	0xcd3
 3044 0ccd 23       		.uleb128 0x23
 3045 0cce 01       		.uleb128 0x1
 3046 0ccf 50       		.byte	0x50
 3047 0cd0 01       		.uleb128 0x1
 3048 0cd1 4C       		.byte	0x4c
 3049 0cd2 00       		.byte	0
 3050 0cd3 24       		.uleb128 0x24
 3051 0cd4 BC040000 		.4byte	.LVL78
 3052 0cd8 940F0000 		.4byte	0xf94
 3053 0cdc 22       		.uleb128 0x22
 3054 0cdd D0040000 		.4byte	.LVL80
 3055 0ce1 A00F0000 		.4byte	0xfa0
 3056 0ce5 F80C0000 		.4byte	0xcf8
 3057 0ce9 23       		.uleb128 0x23
 3058 0cea 01       		.uleb128 0x1
 3059 0ceb 50       		.byte	0x50
 3060 0cec 01       		.uleb128 0x1
 3061 0ced 4D       		.byte	0x4d
 3062 0cee 23       		.uleb128 0x23
 3063 0cef 01       		.uleb128 0x1
 3064 0cf0 51       		.byte	0x51
 3065 0cf1 05       		.uleb128 0x5
 3066 0cf2 03       		.byte	0x3
 3067 0cf3 00000000 		.4byte	.LC0
 3068 0cf7 00       		.byte	0
 3069 0cf8 22       		.uleb128 0x22
 3070 0cf9 F4040000 		.4byte	.LVL81
 3071 0cfd 4C0F0000 		.4byte	0xf4c
 3072 0d01 0B0D0000 		.4byte	0xd0b
 3073 0d05 23       		.uleb128 0x23
ARM GAS  /tmp/ccGdBEjb.s 			page 55


 3074 0d06 01       		.uleb128 0x1
 3075 0d07 50       		.byte	0x50
 3076 0d08 01       		.uleb128 0x1
 3077 0d09 4E       		.byte	0x4e
 3078 0d0a 00       		.byte	0
 3079 0d0b 22       		.uleb128 0x22
 3080 0d0c 18050000 		.4byte	.LVL82
 3081 0d10 4C0F0000 		.4byte	0xf4c
 3082 0d14 1E0D0000 		.4byte	0xd1e
 3083 0d18 23       		.uleb128 0x23
 3084 0d19 01       		.uleb128 0x1
 3085 0d1a 50       		.byte	0x50
 3086 0d1b 01       		.uleb128 0x1
 3087 0d1c 4F       		.byte	0x4f
 3088 0d1d 00       		.byte	0
 3089 0d1e 22       		.uleb128 0x22
 3090 0d1f 40050000 		.4byte	.LVL83
 3091 0d23 4C0F0000 		.4byte	0xf4c
 3092 0d27 320D0000 		.4byte	0xd32
 3093 0d2b 23       		.uleb128 0x23
 3094 0d2c 01       		.uleb128 0x1
 3095 0d2d 50       		.byte	0x50
 3096 0d2e 02       		.uleb128 0x2
 3097 0d2f 08       		.byte	0x8
 3098 0d30 20       		.byte	0x20
 3099 0d31 00       		.byte	0
 3100 0d32 22       		.uleb128 0x22
 3101 0d33 58050000 		.4byte	.LVL84
 3102 0d37 7C0F0000 		.4byte	0xf7c
 3103 0d3b 4C0D0000 		.4byte	0xd4c
 3104 0d3f 23       		.uleb128 0x23
 3105 0d40 01       		.uleb128 0x1
 3106 0d41 50       		.byte	0x50
 3107 0d42 02       		.uleb128 0x2
 3108 0d43 75       		.byte	0x75
 3109 0d44 00       		.sleb128 0
 3110 0d45 23       		.uleb128 0x23
 3111 0d46 01       		.uleb128 0x1
 3112 0d47 51       		.byte	0x51
 3113 0d48 02       		.uleb128 0x2
 3114 0d49 08       		.byte	0x8
 3115 0d4a 45       		.byte	0x45
 3116 0d4b 00       		.byte	0
 3117 0d4c 22       		.uleb128 0x22
 3118 0d4d 68050000 		.4byte	.LVL86
 3119 0d51 4C0F0000 		.4byte	0xf4c
 3120 0d55 600D0000 		.4byte	0xd60
 3121 0d59 23       		.uleb128 0x23
 3122 0d5a 01       		.uleb128 0x1
 3123 0d5b 50       		.byte	0x50
 3124 0d5c 02       		.uleb128 0x2
 3125 0d5d 08       		.byte	0x8
 3126 0d5e 21       		.byte	0x21
 3127 0d5f 00       		.byte	0
 3128 0d60 22       		.uleb128 0x22
 3129 0d61 7C050000 		.4byte	.LVL87
 3130 0d65 7C0F0000 		.4byte	0xf7c
ARM GAS  /tmp/ccGdBEjb.s 			page 56


 3131 0d69 7A0D0000 		.4byte	0xd7a
 3132 0d6d 23       		.uleb128 0x23
 3133 0d6e 01       		.uleb128 0x1
 3134 0d6f 50       		.byte	0x50
 3135 0d70 02       		.uleb128 0x2
 3136 0d71 75       		.byte	0x75
 3137 0d72 00       		.sleb128 0
 3138 0d73 23       		.uleb128 0x23
 3139 0d74 01       		.uleb128 0x1
 3140 0d75 51       		.byte	0x51
 3141 0d76 02       		.uleb128 0x2
 3142 0d77 08       		.byte	0x8
 3143 0d78 44       		.byte	0x44
 3144 0d79 00       		.byte	0
 3145 0d7a 22       		.uleb128 0x22
 3146 0d7b 8C050000 		.4byte	.LVL89
 3147 0d7f 4C0F0000 		.4byte	0xf4c
 3148 0d83 8E0D0000 		.4byte	0xd8e
 3149 0d87 23       		.uleb128 0x23
 3150 0d88 01       		.uleb128 0x1
 3151 0d89 50       		.byte	0x50
 3152 0d8a 02       		.uleb128 0x2
 3153 0d8b 08       		.byte	0x8
 3154 0d8c 22       		.byte	0x22
 3155 0d8d 00       		.byte	0
 3156 0d8e 22       		.uleb128 0x22
 3157 0d8f A0050000 		.4byte	.LVL90
 3158 0d93 7C0F0000 		.4byte	0xf7c
 3159 0d97 A80D0000 		.4byte	0xda8
 3160 0d9b 23       		.uleb128 0x23
 3161 0d9c 01       		.uleb128 0x1
 3162 0d9d 50       		.byte	0x50
 3163 0d9e 02       		.uleb128 0x2
 3164 0d9f 75       		.byte	0x75
 3165 0da0 00       		.sleb128 0
 3166 0da1 23       		.uleb128 0x23
 3167 0da2 01       		.uleb128 0x1
 3168 0da3 51       		.byte	0x51
 3169 0da4 02       		.uleb128 0x2
 3170 0da5 08       		.byte	0x8
 3171 0da6 43       		.byte	0x43
 3172 0da7 00       		.byte	0
 3173 0da8 22       		.uleb128 0x22
 3174 0da9 B0050000 		.4byte	.LVL92
 3175 0dad 4C0F0000 		.4byte	0xf4c
 3176 0db1 BC0D0000 		.4byte	0xdbc
 3177 0db5 23       		.uleb128 0x23
 3178 0db6 01       		.uleb128 0x1
 3179 0db7 50       		.byte	0x50
 3180 0db8 02       		.uleb128 0x2
 3181 0db9 08       		.byte	0x8
 3182 0dba 23       		.byte	0x23
 3183 0dbb 00       		.byte	0
 3184 0dbc 22       		.uleb128 0x22
 3185 0dbd C4050000 		.4byte	.LVL93
 3186 0dc1 7C0F0000 		.4byte	0xf7c
 3187 0dc5 D60D0000 		.4byte	0xdd6
ARM GAS  /tmp/ccGdBEjb.s 			page 57


 3188 0dc9 23       		.uleb128 0x23
 3189 0dca 01       		.uleb128 0x1
 3190 0dcb 50       		.byte	0x50
 3191 0dcc 02       		.uleb128 0x2
 3192 0dcd 75       		.byte	0x75
 3193 0dce 00       		.sleb128 0
 3194 0dcf 23       		.uleb128 0x23
 3195 0dd0 01       		.uleb128 0x1
 3196 0dd1 51       		.byte	0x51
 3197 0dd2 02       		.uleb128 0x2
 3198 0dd3 08       		.byte	0x8
 3199 0dd4 42       		.byte	0x42
 3200 0dd5 00       		.byte	0
 3201 0dd6 22       		.uleb128 0x22
 3202 0dd7 D4050000 		.4byte	.LVL95
 3203 0ddb 4C0F0000 		.4byte	0xf4c
 3204 0ddf EA0D0000 		.4byte	0xdea
 3205 0de3 23       		.uleb128 0x23
 3206 0de4 01       		.uleb128 0x1
 3207 0de5 50       		.byte	0x50
 3208 0de6 02       		.uleb128 0x2
 3209 0de7 08       		.byte	0x8
 3210 0de8 24       		.byte	0x24
 3211 0de9 00       		.byte	0
 3212 0dea 22       		.uleb128 0x22
 3213 0deb E8050000 		.4byte	.LVL96
 3214 0def 7C0F0000 		.4byte	0xf7c
 3215 0df3 040E0000 		.4byte	0xe04
 3216 0df7 23       		.uleb128 0x23
 3217 0df8 01       		.uleb128 0x1
 3218 0df9 50       		.byte	0x50
 3219 0dfa 02       		.uleb128 0x2
 3220 0dfb 75       		.byte	0x75
 3221 0dfc 00       		.sleb128 0
 3222 0dfd 23       		.uleb128 0x23
 3223 0dfe 01       		.uleb128 0x1
 3224 0dff 51       		.byte	0x51
 3225 0e00 02       		.uleb128 0x2
 3226 0e01 08       		.byte	0x8
 3227 0e02 41       		.byte	0x41
 3228 0e03 00       		.byte	0
 3229 0e04 22       		.uleb128 0x22
 3230 0e05 FC050000 		.4byte	.LVL98
 3231 0e09 4C0F0000 		.4byte	0xf4c
 3232 0e0d 180E0000 		.4byte	0xe18
 3233 0e11 23       		.uleb128 0x23
 3234 0e12 01       		.uleb128 0x1
 3235 0e13 50       		.byte	0x50
 3236 0e14 02       		.uleb128 0x2
 3237 0e15 08       		.byte	0x8
 3238 0e16 25       		.byte	0x25
 3239 0e17 00       		.byte	0
 3240 0e18 22       		.uleb128 0x22
 3241 0e19 20060000 		.4byte	.LVL99
 3242 0e1d 4C0F0000 		.4byte	0xf4c
 3243 0e21 2C0E0000 		.4byte	0xe2c
 3244 0e25 23       		.uleb128 0x23
ARM GAS  /tmp/ccGdBEjb.s 			page 58


 3245 0e26 01       		.uleb128 0x1
 3246 0e27 50       		.byte	0x50
 3247 0e28 02       		.uleb128 0x2
 3248 0e29 08       		.byte	0x8
 3249 0e2a 26       		.byte	0x26
 3250 0e2b 00       		.byte	0
 3251 0e2c 22       		.uleb128 0x22
 3252 0e2d 40060000 		.4byte	.LVL102
 3253 0e31 AC0F0000 		.4byte	0xfac
 3254 0e35 460E0000 		.4byte	0xe46
 3255 0e39 23       		.uleb128 0x23
 3256 0e3a 01       		.uleb128 0x1
 3257 0e3b 50       		.byte	0x50
 3258 0e3c 02       		.uleb128 0x2
 3259 0e3d 75       		.byte	0x75
 3260 0e3e 00       		.sleb128 0
 3261 0e3f 23       		.uleb128 0x23
 3262 0e40 01       		.uleb128 0x1
 3263 0e41 51       		.byte	0x51
 3264 0e42 02       		.uleb128 0x2
 3265 0e43 91       		.byte	0x91
 3266 0e44 64       		.sleb128 -28
 3267 0e45 00       		.byte	0
 3268 0e46 22       		.uleb128 0x22
 3269 0e47 54060000 		.4byte	.LVL104
 3270 0e4b 4C0F0000 		.4byte	0xf4c
 3271 0e4f 5A0E0000 		.4byte	0xe5a
 3272 0e53 23       		.uleb128 0x23
 3273 0e54 01       		.uleb128 0x1
 3274 0e55 50       		.byte	0x50
 3275 0e56 02       		.uleb128 0x2
 3276 0e57 08       		.byte	0x8
 3277 0e58 27       		.byte	0x27
 3278 0e59 00       		.byte	0
 3279 0e5a 24       		.uleb128 0x24
 3280 0e5b 64060000 		.4byte	.LVL105
 3281 0e5f 940F0000 		.4byte	0xf94
 3282 0e63 22       		.uleb128 0x22
 3283 0e64 78060000 		.4byte	.LVL107
 3284 0e68 A00F0000 		.4byte	0xfa0
 3285 0e6c 800E0000 		.4byte	0xe80
 3286 0e70 23       		.uleb128 0x23
 3287 0e71 01       		.uleb128 0x1
 3288 0e72 50       		.byte	0x50
 3289 0e73 02       		.uleb128 0x2
 3290 0e74 08       		.byte	0x8
 3291 0e75 28       		.byte	0x28
 3292 0e76 23       		.uleb128 0x23
 3293 0e77 01       		.uleb128 0x1
 3294 0e78 51       		.byte	0x51
 3295 0e79 05       		.uleb128 0x5
 3296 0e7a 03       		.byte	0x3
 3297 0e7b 00000000 		.4byte	.LC0
 3298 0e7f 00       		.byte	0
 3299 0e80 22       		.uleb128 0x22
 3300 0e81 9C060000 		.4byte	.LVL108
 3301 0e85 4C0F0000 		.4byte	0xf4c
ARM GAS  /tmp/ccGdBEjb.s 			page 59


 3302 0e89 940E0000 		.4byte	0xe94
 3303 0e8d 23       		.uleb128 0x23
 3304 0e8e 01       		.uleb128 0x1
 3305 0e8f 50       		.byte	0x50
 3306 0e90 02       		.uleb128 0x2
 3307 0e91 08       		.byte	0x8
 3308 0e92 29       		.byte	0x29
 3309 0e93 00       		.byte	0
 3310 0e94 22       		.uleb128 0x22
 3311 0e95 C0060000 		.4byte	.LVL109
 3312 0e99 4C0F0000 		.4byte	0xf4c
 3313 0e9d A80E0000 		.4byte	0xea8
 3314 0ea1 23       		.uleb128 0x23
 3315 0ea2 01       		.uleb128 0x1
 3316 0ea3 50       		.byte	0x50
 3317 0ea4 02       		.uleb128 0x2
 3318 0ea5 08       		.byte	0x8
 3319 0ea6 2A       		.byte	0x2a
 3320 0ea7 00       		.byte	0
 3321 0ea8 22       		.uleb128 0x22
 3322 0ea9 E8060000 		.4byte	.LVL110
 3323 0ead 4C0F0000 		.4byte	0xf4c
 3324 0eb1 BC0E0000 		.4byte	0xebc
 3325 0eb5 23       		.uleb128 0x23
 3326 0eb6 01       		.uleb128 0x1
 3327 0eb7 50       		.byte	0x50
 3328 0eb8 02       		.uleb128 0x2
 3329 0eb9 08       		.byte	0x8
 3330 0eba 2B       		.byte	0x2b
 3331 0ebb 00       		.byte	0
 3332 0ebc 22       		.uleb128 0x22
 3333 0ebd F8060000 		.4byte	.LVL111
 3334 0ec1 B80F0000 		.4byte	0xfb8
 3335 0ec5 D00E0000 		.4byte	0xed0
 3336 0ec9 23       		.uleb128 0x23
 3337 0eca 01       		.uleb128 0x1
 3338 0ecb 50       		.byte	0x50
 3339 0ecc 02       		.uleb128 0x2
 3340 0ecd 75       		.byte	0x75
 3341 0ece 00       		.sleb128 0
 3342 0ecf 00       		.byte	0
 3343 0ed0 22       		.uleb128 0x22
 3344 0ed1 14070000 		.4byte	.LVL112
 3345 0ed5 4C0F0000 		.4byte	0xf4c
 3346 0ed9 E40E0000 		.4byte	0xee4
 3347 0edd 23       		.uleb128 0x23
 3348 0ede 01       		.uleb128 0x1
 3349 0edf 50       		.byte	0x50
 3350 0ee0 02       		.uleb128 0x2
 3351 0ee1 08       		.byte	0x8
 3352 0ee2 2C       		.byte	0x2c
 3353 0ee3 00       		.byte	0
 3354 0ee4 22       		.uleb128 0x22
 3355 0ee5 38070000 		.4byte	.LVL113
 3356 0ee9 4C0F0000 		.4byte	0xf4c
 3357 0eed F80E0000 		.4byte	0xef8
 3358 0ef1 23       		.uleb128 0x23
ARM GAS  /tmp/ccGdBEjb.s 			page 60


 3359 0ef2 01       		.uleb128 0x1
 3360 0ef3 50       		.byte	0x50
 3361 0ef4 02       		.uleb128 0x2
 3362 0ef5 08       		.byte	0x8
 3363 0ef6 2D       		.byte	0x2d
 3364 0ef7 00       		.byte	0
 3365 0ef8 22       		.uleb128 0x22
 3366 0ef9 64070000 		.4byte	.LVL114
 3367 0efd 4C0F0000 		.4byte	0xf4c
 3368 0f01 0C0F0000 		.4byte	0xf0c
 3369 0f05 23       		.uleb128 0x23
 3370 0f06 01       		.uleb128 0x1
 3371 0f07 50       		.byte	0x50
 3372 0f08 02       		.uleb128 0x2
 3373 0f09 08       		.byte	0x8
 3374 0f0a 2E       		.byte	0x2e
 3375 0f0b 00       		.byte	0
 3376 0f0c 25       		.uleb128 0x25
 3377 0f0d 90070000 		.4byte	.LVL115
 3378 0f11 4C0F0000 		.4byte	0xf4c
 3379 0f15 23       		.uleb128 0x23
 3380 0f16 01       		.uleb128 0x1
 3381 0f17 50       		.byte	0x50
 3382 0f18 02       		.uleb128 0x2
 3383 0f19 08       		.byte	0x8
 3384 0f1a 2F       		.byte	0x2f
 3385 0f1b 00       		.byte	0
 3386 0f1c 00       		.byte	0
 3387 0f1d 1E       		.uleb128 0x1e
 3388 0f1e 12030000 		.4byte	.LASF120
 3389 0f22 01       		.byte	0x1
 3390 0f23 4B       		.byte	0x4b
 3391 0f24 0D       		.byte	0xd
 3392 0f25 00000000 		.4byte	.LFB7
 3393 0f29 18000000 		.4byte	.LFE7-.LFB7
 3394 0f2d 01       		.uleb128 0x1
 3395 0f2e 9C       		.byte	0x9c
 3396 0f2f 4C0F0000 		.4byte	0xf4c
 3397 0f33 26       		.uleb128 0x26
 3398 0f34 10000000 		.4byte	.LVL116
 3399 0f38 C40F0000 		.4byte	0xfc4
 3400 0f3c 23       		.uleb128 0x23
 3401 0f3d 01       		.uleb128 0x1
 3402 0f3e 50       		.byte	0x50
 3403 0f3f 05       		.uleb128 0x5
 3404 0f40 03       		.byte	0x3
 3405 0f41 00000000 		.4byte	.LANCHOR0
 3406 0f45 23       		.uleb128 0x23
 3407 0f46 01       		.uleb128 0x1
 3408 0f47 52       		.byte	0x52
 3409 0f48 01       		.uleb128 0x1
 3410 0f49 35       		.byte	0x35
 3411 0f4a 00       		.byte	0
 3412 0f4b 00       		.byte	0
 3413 0f4c 27       		.uleb128 0x27
 3414 0f4d 11060000 		.4byte	.LASF121
 3415 0f51 11060000 		.4byte	.LASF121
ARM GAS  /tmp/ccGdBEjb.s 			page 61


 3416 0f55 0E       		.byte	0xe
 3417 0f56 5C       		.byte	0x5c
 3418 0f57 0A       		.byte	0xa
 3419 0f58 27       		.uleb128 0x27
 3420 0f59 F2010000 		.4byte	.LASF122
 3421 0f5d F2010000 		.4byte	.LASF122
 3422 0f61 0B       		.byte	0xb
 3423 0f62 3E       		.byte	0x3e
 3424 0f63 09       		.byte	0x9
 3425 0f64 27       		.uleb128 0x27
 3426 0f65 93050000 		.4byte	.LASF123
 3427 0f69 93050000 		.4byte	.LASF123
 3428 0f6d 0B       		.byte	0xb
 3429 0f6e 41       		.byte	0x41
 3430 0f6f 09       		.byte	0x9
 3431 0f70 27       		.uleb128 0x27
 3432 0f71 F7000000 		.4byte	.LASF124
 3433 0f75 F7000000 		.4byte	.LASF124
 3434 0f79 0B       		.byte	0xb
 3435 0f7a 40       		.byte	0x40
 3436 0f7b 09       		.byte	0x9
 3437 0f7c 27       		.uleb128 0x27
 3438 0f7d 10010000 		.4byte	.LASF125
 3439 0f81 10010000 		.4byte	.LASF125
 3440 0f85 0B       		.byte	0xb
 3441 0f86 43       		.byte	0x43
 3442 0f87 09       		.byte	0x9
 3443 0f88 27       		.uleb128 0x27
 3444 0f89 B3050000 		.4byte	.LASF126
 3445 0f8d B3050000 		.4byte	.LASF126
 3446 0f91 0B       		.byte	0xb
 3447 0f92 44       		.byte	0x44
 3448 0f93 09       		.byte	0x9
 3449 0f94 27       		.uleb128 0x27
 3450 0f95 D8010000 		.4byte	.LASF127
 3451 0f99 D8010000 		.4byte	.LASF127
 3452 0f9d 0E       		.byte	0xe
 3453 0f9e 5A       		.byte	0x5a
 3454 0f9f 08       		.byte	0x8
 3455 0fa0 27       		.uleb128 0x27
 3456 0fa1 C0030000 		.4byte	.LASF128
 3457 0fa5 C0030000 		.4byte	.LASF128
 3458 0fa9 0E       		.byte	0xe
 3459 0faa 5D       		.byte	0x5d
 3460 0fab 0A       		.byte	0xa
 3461 0fac 27       		.uleb128 0x27
 3462 0fad F1020000 		.4byte	.LASF129
 3463 0fb1 F1020000 		.4byte	.LASF129
 3464 0fb5 0B       		.byte	0xb
 3465 0fb6 46       		.byte	0x46
 3466 0fb7 09       		.byte	0x9
 3467 0fb8 27       		.uleb128 0x27
 3468 0fb9 81030000 		.4byte	.LASF130
 3469 0fbd 81030000 		.4byte	.LASF130
 3470 0fc1 0B       		.byte	0xb
 3471 0fc2 3D       		.byte	0x3d
 3472 0fc3 08       		.byte	0x8
ARM GAS  /tmp/ccGdBEjb.s 			page 62


 3473 0fc4 27       		.uleb128 0x27
 3474 0fc5 59010000 		.4byte	.LASF131
 3475 0fc9 59010000 		.4byte	.LASF131
 3476 0fcd 0B       		.byte	0xb
 3477 0fce 3C       		.byte	0x3c
 3478 0fcf 08       		.byte	0x8
 3479 0fd0 00       		.byte	0
 3480              		.section	.debug_abbrev,"",%progbits
 3481              	.Ldebug_abbrev0:
 3482 0000 01       		.uleb128 0x1
 3483 0001 11       		.uleb128 0x11
 3484 0002 01       		.byte	0x1
 3485 0003 25       		.uleb128 0x25
 3486 0004 0E       		.uleb128 0xe
 3487 0005 13       		.uleb128 0x13
 3488 0006 0B       		.uleb128 0xb
 3489 0007 03       		.uleb128 0x3
 3490 0008 0E       		.uleb128 0xe
 3491 0009 1B       		.uleb128 0x1b
 3492 000a 0E       		.uleb128 0xe
 3493 000b 55       		.uleb128 0x55
 3494 000c 17       		.uleb128 0x17
 3495 000d 11       		.uleb128 0x11
 3496 000e 01       		.uleb128 0x1
 3497 000f 10       		.uleb128 0x10
 3498 0010 17       		.uleb128 0x17
 3499 0011 00       		.byte	0
 3500 0012 00       		.byte	0
 3501 0013 02       		.uleb128 0x2
 3502 0014 24       		.uleb128 0x24
 3503 0015 00       		.byte	0
 3504 0016 0B       		.uleb128 0xb
 3505 0017 0B       		.uleb128 0xb
 3506 0018 3E       		.uleb128 0x3e
 3507 0019 0B       		.uleb128 0xb
 3508 001a 03       		.uleb128 0x3
 3509 001b 08       		.uleb128 0x8
 3510 001c 00       		.byte	0
 3511 001d 00       		.byte	0
 3512 001e 03       		.uleb128 0x3
 3513 001f 24       		.uleb128 0x24
 3514 0020 00       		.byte	0
 3515 0021 0B       		.uleb128 0xb
 3516 0022 0B       		.uleb128 0xb
 3517 0023 3E       		.uleb128 0x3e
 3518 0024 0B       		.uleb128 0xb
 3519 0025 03       		.uleb128 0x3
 3520 0026 0E       		.uleb128 0xe
 3521 0027 00       		.byte	0
 3522 0028 00       		.byte	0
 3523 0029 04       		.uleb128 0x4
 3524 002a 16       		.uleb128 0x16
 3525 002b 00       		.byte	0
 3526 002c 03       		.uleb128 0x3
 3527 002d 0E       		.uleb128 0xe
 3528 002e 3A       		.uleb128 0x3a
 3529 002f 0B       		.uleb128 0xb
ARM GAS  /tmp/ccGdBEjb.s 			page 63


 3530 0030 3B       		.uleb128 0x3b
 3531 0031 0B       		.uleb128 0xb
 3532 0032 39       		.uleb128 0x39
 3533 0033 0B       		.uleb128 0xb
 3534 0034 49       		.uleb128 0x49
 3535 0035 13       		.uleb128 0x13
 3536 0036 00       		.byte	0
 3537 0037 00       		.byte	0
 3538 0038 05       		.uleb128 0x5
 3539 0039 35       		.uleb128 0x35
 3540 003a 00       		.byte	0
 3541 003b 49       		.uleb128 0x49
 3542 003c 13       		.uleb128 0x13
 3543 003d 00       		.byte	0
 3544 003e 00       		.byte	0
 3545 003f 06       		.uleb128 0x6
 3546 0040 13       		.uleb128 0x13
 3547 0041 01       		.byte	0x1
 3548 0042 03       		.uleb128 0x3
 3549 0043 0E       		.uleb128 0xe
 3550 0044 0B       		.uleb128 0xb
 3551 0045 0B       		.uleb128 0xb
 3552 0046 3A       		.uleb128 0x3a
 3553 0047 0B       		.uleb128 0xb
 3554 0048 3B       		.uleb128 0x3b
 3555 0049 0B       		.uleb128 0xb
 3556 004a 39       		.uleb128 0x39
 3557 004b 0B       		.uleb128 0xb
 3558 004c 01       		.uleb128 0x1
 3559 004d 13       		.uleb128 0x13
 3560 004e 00       		.byte	0
 3561 004f 00       		.byte	0
 3562 0050 07       		.uleb128 0x7
 3563 0051 0D       		.uleb128 0xd
 3564 0052 00       		.byte	0
 3565 0053 03       		.uleb128 0x3
 3566 0054 0E       		.uleb128 0xe
 3567 0055 3A       		.uleb128 0x3a
 3568 0056 0B       		.uleb128 0xb
 3569 0057 3B       		.uleb128 0x3b
 3570 0058 0B       		.uleb128 0xb
 3571 0059 39       		.uleb128 0x39
 3572 005a 0B       		.uleb128 0xb
 3573 005b 49       		.uleb128 0x49
 3574 005c 13       		.uleb128 0x13
 3575 005d 38       		.uleb128 0x38
 3576 005e 0B       		.uleb128 0xb
 3577 005f 00       		.byte	0
 3578 0060 00       		.byte	0
 3579 0061 08       		.uleb128 0x8
 3580 0062 0D       		.uleb128 0xd
 3581 0063 00       		.byte	0
 3582 0064 03       		.uleb128 0x3
 3583 0065 08       		.uleb128 0x8
 3584 0066 3A       		.uleb128 0x3a
 3585 0067 0B       		.uleb128 0xb
 3586 0068 3B       		.uleb128 0x3b
ARM GAS  /tmp/ccGdBEjb.s 			page 64


 3587 0069 0B       		.uleb128 0xb
 3588 006a 39       		.uleb128 0x39
 3589 006b 0B       		.uleb128 0xb
 3590 006c 49       		.uleb128 0x49
 3591 006d 13       		.uleb128 0x13
 3592 006e 38       		.uleb128 0x38
 3593 006f 0B       		.uleb128 0xb
 3594 0070 00       		.byte	0
 3595 0071 00       		.byte	0
 3596 0072 09       		.uleb128 0x9
 3597 0073 13       		.uleb128 0x13
 3598 0074 01       		.byte	0x1
 3599 0075 0B       		.uleb128 0xb
 3600 0076 0B       		.uleb128 0xb
 3601 0077 3A       		.uleb128 0x3a
 3602 0078 0B       		.uleb128 0xb
 3603 0079 3B       		.uleb128 0x3b
 3604 007a 0B       		.uleb128 0xb
 3605 007b 39       		.uleb128 0x39
 3606 007c 0B       		.uleb128 0xb
 3607 007d 01       		.uleb128 0x1
 3608 007e 13       		.uleb128 0x13
 3609 007f 00       		.byte	0
 3610 0080 00       		.byte	0
 3611 0081 0A       		.uleb128 0xa
 3612 0082 0F       		.uleb128 0xf
 3613 0083 00       		.byte	0
 3614 0084 0B       		.uleb128 0xb
 3615 0085 0B       		.uleb128 0xb
 3616 0086 49       		.uleb128 0x49
 3617 0087 13       		.uleb128 0x13
 3618 0088 00       		.byte	0
 3619 0089 00       		.byte	0
 3620 008a 0B       		.uleb128 0xb
 3621 008b 0F       		.uleb128 0xf
 3622 008c 00       		.byte	0
 3623 008d 0B       		.uleb128 0xb
 3624 008e 0B       		.uleb128 0xb
 3625 008f 00       		.byte	0
 3626 0090 00       		.byte	0
 3627 0091 0C       		.uleb128 0xc
 3628 0092 26       		.uleb128 0x26
 3629 0093 00       		.byte	0
 3630 0094 49       		.uleb128 0x49
 3631 0095 13       		.uleb128 0x13
 3632 0096 00       		.byte	0
 3633 0097 00       		.byte	0
 3634 0098 0D       		.uleb128 0xd
 3635 0099 15       		.uleb128 0x15
 3636 009a 01       		.byte	0x1
 3637 009b 27       		.uleb128 0x27
 3638 009c 19       		.uleb128 0x19
 3639 009d 01       		.uleb128 0x1
 3640 009e 13       		.uleb128 0x13
 3641 009f 00       		.byte	0
 3642 00a0 00       		.byte	0
 3643 00a1 0E       		.uleb128 0xe
ARM GAS  /tmp/ccGdBEjb.s 			page 65


 3644 00a2 05       		.uleb128 0x5
 3645 00a3 00       		.byte	0
 3646 00a4 49       		.uleb128 0x49
 3647 00a5 13       		.uleb128 0x13
 3648 00a6 00       		.byte	0
 3649 00a7 00       		.byte	0
 3650 00a8 0F       		.uleb128 0xf
 3651 00a9 34       		.uleb128 0x34
 3652 00aa 00       		.byte	0
 3653 00ab 03       		.uleb128 0x3
 3654 00ac 0E       		.uleb128 0xe
 3655 00ad 3A       		.uleb128 0x3a
 3656 00ae 0B       		.uleb128 0xb
 3657 00af 3B       		.uleb128 0x3b
 3658 00b0 0B       		.uleb128 0xb
 3659 00b1 39       		.uleb128 0x39
 3660 00b2 0B       		.uleb128 0xb
 3661 00b3 49       		.uleb128 0x49
 3662 00b4 13       		.uleb128 0x13
 3663 00b5 3F       		.uleb128 0x3f
 3664 00b6 19       		.uleb128 0x19
 3665 00b7 3C       		.uleb128 0x3c
 3666 00b8 19       		.uleb128 0x19
 3667 00b9 00       		.byte	0
 3668 00ba 00       		.byte	0
 3669 00bb 10       		.uleb128 0x10
 3670 00bc 17       		.uleb128 0x17
 3671 00bd 01       		.byte	0x1
 3672 00be 0B       		.uleb128 0xb
 3673 00bf 0B       		.uleb128 0xb
 3674 00c0 3A       		.uleb128 0x3a
 3675 00c1 0B       		.uleb128 0xb
 3676 00c2 3B       		.uleb128 0x3b
 3677 00c3 0B       		.uleb128 0xb
 3678 00c4 39       		.uleb128 0x39
 3679 00c5 0B       		.uleb128 0xb
 3680 00c6 01       		.uleb128 0x1
 3681 00c7 13       		.uleb128 0x13
 3682 00c8 00       		.byte	0
 3683 00c9 00       		.byte	0
 3684 00ca 11       		.uleb128 0x11
 3685 00cb 0D       		.uleb128 0xd
 3686 00cc 00       		.byte	0
 3687 00cd 03       		.uleb128 0x3
 3688 00ce 0E       		.uleb128 0xe
 3689 00cf 3A       		.uleb128 0x3a
 3690 00d0 0B       		.uleb128 0xb
 3691 00d1 3B       		.uleb128 0x3b
 3692 00d2 0B       		.uleb128 0xb
 3693 00d3 39       		.uleb128 0x39
 3694 00d4 0B       		.uleb128 0xb
 3695 00d5 49       		.uleb128 0x49
 3696 00d6 13       		.uleb128 0x13
 3697 00d7 00       		.byte	0
 3698 00d8 00       		.byte	0
 3699 00d9 12       		.uleb128 0x12
 3700 00da 01       		.uleb128 0x1
ARM GAS  /tmp/ccGdBEjb.s 			page 66


 3701 00db 01       		.byte	0x1
 3702 00dc 49       		.uleb128 0x49
 3703 00dd 13       		.uleb128 0x13
 3704 00de 01       		.uleb128 0x1
 3705 00df 13       		.uleb128 0x13
 3706 00e0 00       		.byte	0
 3707 00e1 00       		.byte	0
 3708 00e2 13       		.uleb128 0x13
 3709 00e3 21       		.uleb128 0x21
 3710 00e4 00       		.byte	0
 3711 00e5 49       		.uleb128 0x49
 3712 00e6 13       		.uleb128 0x13
 3713 00e7 2F       		.uleb128 0x2f
 3714 00e8 0B       		.uleb128 0xb
 3715 00e9 00       		.byte	0
 3716 00ea 00       		.byte	0
 3717 00eb 14       		.uleb128 0x14
 3718 00ec 15       		.uleb128 0x15
 3719 00ed 00       		.byte	0
 3720 00ee 27       		.uleb128 0x27
 3721 00ef 19       		.uleb128 0x19
 3722 00f0 00       		.byte	0
 3723 00f1 00       		.byte	0
 3724 00f2 15       		.uleb128 0x15
 3725 00f3 13       		.uleb128 0x13
 3726 00f4 01       		.byte	0x1
 3727 00f5 0B       		.uleb128 0xb
 3728 00f6 05       		.uleb128 0x5
 3729 00f7 3A       		.uleb128 0x3a
 3730 00f8 0B       		.uleb128 0xb
 3731 00f9 3B       		.uleb128 0x3b
 3732 00fa 0B       		.uleb128 0xb
 3733 00fb 39       		.uleb128 0x39
 3734 00fc 0B       		.uleb128 0xb
 3735 00fd 01       		.uleb128 0x1
 3736 00fe 13       		.uleb128 0x13
 3737 00ff 00       		.byte	0
 3738 0100 00       		.byte	0
 3739 0101 16       		.uleb128 0x16
 3740 0102 0D       		.uleb128 0xd
 3741 0103 00       		.byte	0
 3742 0104 03       		.uleb128 0x3
 3743 0105 08       		.uleb128 0x8
 3744 0106 3A       		.uleb128 0x3a
 3745 0107 0B       		.uleb128 0xb
 3746 0108 3B       		.uleb128 0x3b
 3747 0109 0B       		.uleb128 0xb
 3748 010a 39       		.uleb128 0x39
 3749 010b 0B       		.uleb128 0xb
 3750 010c 49       		.uleb128 0x49
 3751 010d 13       		.uleb128 0x13
 3752 010e 38       		.uleb128 0x38
 3753 010f 05       		.uleb128 0x5
 3754 0110 00       		.byte	0
 3755 0111 00       		.byte	0
 3756 0112 17       		.uleb128 0x17
 3757 0113 17       		.uleb128 0x17
ARM GAS  /tmp/ccGdBEjb.s 			page 67


 3758 0114 01       		.byte	0x1
 3759 0115 03       		.uleb128 0x3
 3760 0116 0E       		.uleb128 0xe
 3761 0117 0B       		.uleb128 0xb
 3762 0118 05       		.uleb128 0x5
 3763 0119 3A       		.uleb128 0x3a
 3764 011a 0B       		.uleb128 0xb
 3765 011b 3B       		.uleb128 0x3b
 3766 011c 0B       		.uleb128 0xb
 3767 011d 39       		.uleb128 0x39
 3768 011e 0B       		.uleb128 0xb
 3769 011f 01       		.uleb128 0x1
 3770 0120 13       		.uleb128 0x13
 3771 0121 00       		.byte	0
 3772 0122 00       		.byte	0
 3773 0123 18       		.uleb128 0x18
 3774 0124 0D       		.uleb128 0xd
 3775 0125 00       		.byte	0
 3776 0126 03       		.uleb128 0x3
 3777 0127 08       		.uleb128 0x8
 3778 0128 3A       		.uleb128 0x3a
 3779 0129 0B       		.uleb128 0xb
 3780 012a 3B       		.uleb128 0x3b
 3781 012b 0B       		.uleb128 0xb
 3782 012c 39       		.uleb128 0x39
 3783 012d 0B       		.uleb128 0xb
 3784 012e 49       		.uleb128 0x49
 3785 012f 13       		.uleb128 0x13
 3786 0130 00       		.byte	0
 3787 0131 00       		.byte	0
 3788 0132 19       		.uleb128 0x19
 3789 0133 21       		.uleb128 0x21
 3790 0134 00       		.byte	0
 3791 0135 49       		.uleb128 0x49
 3792 0136 13       		.uleb128 0x13
 3793 0137 2F       		.uleb128 0x2f
 3794 0138 05       		.uleb128 0x5
 3795 0139 00       		.byte	0
 3796 013a 00       		.byte	0
 3797 013b 1A       		.uleb128 0x1a
 3798 013c 21       		.uleb128 0x21
 3799 013d 00       		.byte	0
 3800 013e 00       		.byte	0
 3801 013f 00       		.byte	0
 3802 0140 1B       		.uleb128 0x1b
 3803 0141 34       		.uleb128 0x34
 3804 0142 00       		.byte	0
 3805 0143 03       		.uleb128 0x3
 3806 0144 08       		.uleb128 0x8
 3807 0145 3A       		.uleb128 0x3a
 3808 0146 0B       		.uleb128 0xb
 3809 0147 3B       		.uleb128 0x3b
 3810 0148 0B       		.uleb128 0xb
 3811 0149 39       		.uleb128 0x39
 3812 014a 0B       		.uleb128 0xb
 3813 014b 49       		.uleb128 0x49
 3814 014c 13       		.uleb128 0x13
ARM GAS  /tmp/ccGdBEjb.s 			page 68


 3815 014d 3F       		.uleb128 0x3f
 3816 014e 19       		.uleb128 0x19
 3817 014f 3C       		.uleb128 0x3c
 3818 0150 19       		.uleb128 0x19
 3819 0151 00       		.byte	0
 3820 0152 00       		.byte	0
 3821 0153 1C       		.uleb128 0x1c
 3822 0154 34       		.uleb128 0x34
 3823 0155 00       		.byte	0
 3824 0156 03       		.uleb128 0x3
 3825 0157 08       		.uleb128 0x8
 3826 0158 3A       		.uleb128 0x3a
 3827 0159 0B       		.uleb128 0xb
 3828 015a 3B       		.uleb128 0x3b
 3829 015b 0B       		.uleb128 0xb
 3830 015c 39       		.uleb128 0x39
 3831 015d 0B       		.uleb128 0xb
 3832 015e 49       		.uleb128 0x49
 3833 015f 13       		.uleb128 0x13
 3834 0160 02       		.uleb128 0x2
 3835 0161 18       		.uleb128 0x18
 3836 0162 00       		.byte	0
 3837 0163 00       		.byte	0
 3838 0164 1D       		.uleb128 0x1d
 3839 0165 34       		.uleb128 0x34
 3840 0166 00       		.byte	0
 3841 0167 03       		.uleb128 0x3
 3842 0168 0E       		.uleb128 0xe
 3843 0169 3A       		.uleb128 0x3a
 3844 016a 0B       		.uleb128 0xb
 3845 016b 3B       		.uleb128 0x3b
 3846 016c 0B       		.uleb128 0xb
 3847 016d 39       		.uleb128 0x39
 3848 016e 0B       		.uleb128 0xb
 3849 016f 49       		.uleb128 0x49
 3850 0170 13       		.uleb128 0x13
 3851 0171 3F       		.uleb128 0x3f
 3852 0172 19       		.uleb128 0x19
 3853 0173 02       		.uleb128 0x2
 3854 0174 18       		.uleb128 0x18
 3855 0175 00       		.byte	0
 3856 0176 00       		.byte	0
 3857 0177 1E       		.uleb128 0x1e
 3858 0178 2E       		.uleb128 0x2e
 3859 0179 01       		.byte	0x1
 3860 017a 03       		.uleb128 0x3
 3861 017b 0E       		.uleb128 0xe
 3862 017c 3A       		.uleb128 0x3a
 3863 017d 0B       		.uleb128 0xb
 3864 017e 3B       		.uleb128 0x3b
 3865 017f 0B       		.uleb128 0xb
 3866 0180 39       		.uleb128 0x39
 3867 0181 0B       		.uleb128 0xb
 3868 0182 27       		.uleb128 0x27
 3869 0183 19       		.uleb128 0x19
 3870 0184 11       		.uleb128 0x11
 3871 0185 01       		.uleb128 0x1
ARM GAS  /tmp/ccGdBEjb.s 			page 69


 3872 0186 12       		.uleb128 0x12
 3873 0187 06       		.uleb128 0x6
 3874 0188 40       		.uleb128 0x40
 3875 0189 18       		.uleb128 0x18
 3876 018a 9742     		.uleb128 0x2117
 3877 018c 19       		.uleb128 0x19
 3878 018d 01       		.uleb128 0x1
 3879 018e 13       		.uleb128 0x13
 3880 018f 00       		.byte	0
 3881 0190 00       		.byte	0
 3882 0191 1F       		.uleb128 0x1f
 3883 0192 34       		.uleb128 0x34
 3884 0193 00       		.byte	0
 3885 0194 03       		.uleb128 0x3
 3886 0195 0E       		.uleb128 0xe
 3887 0196 3A       		.uleb128 0x3a
 3888 0197 0B       		.uleb128 0xb
 3889 0198 3B       		.uleb128 0x3b
 3890 0199 0B       		.uleb128 0xb
 3891 019a 39       		.uleb128 0x39
 3892 019b 0B       		.uleb128 0xb
 3893 019c 49       		.uleb128 0x49
 3894 019d 13       		.uleb128 0x13
 3895 019e 02       		.uleb128 0x2
 3896 019f 17       		.uleb128 0x17
 3897 01a0 B742     		.uleb128 0x2137
 3898 01a2 17       		.uleb128 0x17
 3899 01a3 00       		.byte	0
 3900 01a4 00       		.byte	0
 3901 01a5 20       		.uleb128 0x20
 3902 01a6 34       		.uleb128 0x34
 3903 01a7 00       		.byte	0
 3904 01a8 03       		.uleb128 0x3
 3905 01a9 0E       		.uleb128 0xe
 3906 01aa 3A       		.uleb128 0x3a
 3907 01ab 0B       		.uleb128 0xb
 3908 01ac 3B       		.uleb128 0x3b
 3909 01ad 0B       		.uleb128 0xb
 3910 01ae 39       		.uleb128 0x39
 3911 01af 0B       		.uleb128 0xb
 3912 01b0 49       		.uleb128 0x49
 3913 01b1 13       		.uleb128 0x13
 3914 01b2 02       		.uleb128 0x2
 3915 01b3 18       		.uleb128 0x18
 3916 01b4 00       		.byte	0
 3917 01b5 00       		.byte	0
 3918 01b6 21       		.uleb128 0x21
 3919 01b7 34       		.uleb128 0x34
 3920 01b8 00       		.byte	0
 3921 01b9 03       		.uleb128 0x3
 3922 01ba 08       		.uleb128 0x8
 3923 01bb 3A       		.uleb128 0x3a
 3924 01bc 0B       		.uleb128 0xb
 3925 01bd 3B       		.uleb128 0x3b
 3926 01be 0B       		.uleb128 0xb
 3927 01bf 39       		.uleb128 0x39
 3928 01c0 0B       		.uleb128 0xb
ARM GAS  /tmp/ccGdBEjb.s 			page 70


 3929 01c1 49       		.uleb128 0x49
 3930 01c2 13       		.uleb128 0x13
 3931 01c3 02       		.uleb128 0x2
 3932 01c4 17       		.uleb128 0x17
 3933 01c5 B742     		.uleb128 0x2137
 3934 01c7 17       		.uleb128 0x17
 3935 01c8 00       		.byte	0
 3936 01c9 00       		.byte	0
 3937 01ca 22       		.uleb128 0x22
 3938 01cb 898201   		.uleb128 0x4109
 3939 01ce 01       		.byte	0x1
 3940 01cf 11       		.uleb128 0x11
 3941 01d0 01       		.uleb128 0x1
 3942 01d1 31       		.uleb128 0x31
 3943 01d2 13       		.uleb128 0x13
 3944 01d3 01       		.uleb128 0x1
 3945 01d4 13       		.uleb128 0x13
 3946 01d5 00       		.byte	0
 3947 01d6 00       		.byte	0
 3948 01d7 23       		.uleb128 0x23
 3949 01d8 8A8201   		.uleb128 0x410a
 3950 01db 00       		.byte	0
 3951 01dc 02       		.uleb128 0x2
 3952 01dd 18       		.uleb128 0x18
 3953 01de 9142     		.uleb128 0x2111
 3954 01e0 18       		.uleb128 0x18
 3955 01e1 00       		.byte	0
 3956 01e2 00       		.byte	0
 3957 01e3 24       		.uleb128 0x24
 3958 01e4 898201   		.uleb128 0x4109
 3959 01e7 00       		.byte	0
 3960 01e8 11       		.uleb128 0x11
 3961 01e9 01       		.uleb128 0x1
 3962 01ea 31       		.uleb128 0x31
 3963 01eb 13       		.uleb128 0x13
 3964 01ec 00       		.byte	0
 3965 01ed 00       		.byte	0
 3966 01ee 25       		.uleb128 0x25
 3967 01ef 898201   		.uleb128 0x4109
 3968 01f2 01       		.byte	0x1
 3969 01f3 11       		.uleb128 0x11
 3970 01f4 01       		.uleb128 0x1
 3971 01f5 31       		.uleb128 0x31
 3972 01f6 13       		.uleb128 0x13
 3973 01f7 00       		.byte	0
 3974 01f8 00       		.byte	0
 3975 01f9 26       		.uleb128 0x26
 3976 01fa 898201   		.uleb128 0x4109
 3977 01fd 01       		.byte	0x1
 3978 01fe 11       		.uleb128 0x11
 3979 01ff 01       		.uleb128 0x1
 3980 0200 9542     		.uleb128 0x2115
 3981 0202 19       		.uleb128 0x19
 3982 0203 31       		.uleb128 0x31
 3983 0204 13       		.uleb128 0x13
 3984 0205 00       		.byte	0
 3985 0206 00       		.byte	0
ARM GAS  /tmp/ccGdBEjb.s 			page 71


 3986 0207 27       		.uleb128 0x27
 3987 0208 2E       		.uleb128 0x2e
 3988 0209 00       		.byte	0
 3989 020a 3F       		.uleb128 0x3f
 3990 020b 19       		.uleb128 0x19
 3991 020c 3C       		.uleb128 0x3c
 3992 020d 19       		.uleb128 0x19
 3993 020e 6E       		.uleb128 0x6e
 3994 020f 0E       		.uleb128 0xe
 3995 0210 03       		.uleb128 0x3
 3996 0211 0E       		.uleb128 0xe
 3997 0212 3A       		.uleb128 0x3a
 3998 0213 0B       		.uleb128 0xb
 3999 0214 3B       		.uleb128 0x3b
 4000 0215 0B       		.uleb128 0xb
 4001 0216 39       		.uleb128 0x39
 4002 0217 0B       		.uleb128 0xb
 4003 0218 00       		.byte	0
 4004 0219 00       		.byte	0
 4005 021a 00       		.byte	0
 4006              		.section	.debug_loc,"",%progbits
 4007              	.Ldebug_loc0:
 4008              	.LVUS0:
 4009 0000 00       		.uleb128 .LVU11
 4010 0001 00       		.uleb128 .LVU12
 4011 0002 00       		.uleb128 .LVU21
 4012 0003 00       		.uleb128 .LVU22
 4013 0004 00       		.uleb128 .LVU27
 4014 0005 00       		.uleb128 .LVU28
 4015 0006 00       		.uleb128 .LVU35
 4016 0007 00       		.uleb128 .LVU39
 4017 0008 00       		.uleb128 .LVU43
 4018 0009 00       		.uleb128 .LVU44
 4019 000a 00       		.uleb128 .LVU51
 4020 000b 00       		.uleb128 .LVU55
 4021 000c 00       		.uleb128 .LVU87
 4022 000d 00       		.uleb128 .LVU88
 4023 000e 00       		.uleb128 .LVU101
 4024 000f 00       		.uleb128 .LVU102
 4025 0010 00       		.uleb128 .LVU106
 4026 0011 00       		.uleb128 .LVU107
 4027 0012 00       		.uleb128 .LVU115
 4028 0013 00       		.uleb128 .LVU116
 4029 0014 00       		.uleb128 .LVU123
 4030 0015 00       		.uleb128 .LVU127
 4031 0016 00       		.uleb128 .LVU157
 4032 0017 00       		.uleb128 .LVU158
 4033 0018 00       		.uleb128 .LVU162
 4034 0019 00       		.uleb128 .LVU163
 4035 001a 00       		.uleb128 .LVU167
 4036 001b 00       		.uleb128 .LVU168
 4037 001c 00       		.uleb128 .LVU172
 4038 001d 00       		.uleb128 .LVU173
 4039 001e 00       		.uleb128 .LVU177
 4040 001f 00       		.uleb128 .LVU180
 4041 0020 00       		.uleb128 .LVU189
 4042 0021 00       		.uleb128 .LVU193
ARM GAS  /tmp/ccGdBEjb.s 			page 72


 4043 0022 00       		.uleb128 .LVU227
 4044 0023 00       		.uleb128 .LVU228
 4045 0024 00       		.uleb128 .LVU232
 4046 0025 00       		.uleb128 .LVU233
 4047 0026 00       		.uleb128 .LVU237
 4048 0027 00       		.uleb128 .LVU238
 4049 0028 00       		.uleb128 .LVU242
 4050 0029 00       		.uleb128 .LVU243
 4051 002a 00       		.uleb128 .LVU247
 4052 002b 00       		.uleb128 .LVU251
 4053 002c 00       		.uleb128 .LVU260
 4054 002d 00       		.uleb128 .LVU264
 4055              	.LLST0:
 4056 002e 44000000 		.4byte	.LVL2
 4057 0032 4C000000 		.4byte	.LVL3
 4058 0036 0100     		.2byte	0x1
 4059 0038 50       		.byte	0x50
 4060 0039 78000000 		.4byte	.LVL6
 4061 003d 80000000 		.4byte	.LVL7
 4062 0041 0100     		.2byte	0x1
 4063 0043 50       		.byte	0x50
 4064 0044 AC000000 		.4byte	.LVL12
 4065 0048 BC000000 		.4byte	.LVL13
 4066 004c 0100     		.2byte	0x1
 4067 004e 50       		.byte	0x50
 4068 004f DC000000 		.4byte	.LVL16
 4069 0053 F0000000 		.4byte	.LVL17
 4070 0057 0100     		.2byte	0x1
 4071 0059 50       		.byte	0x50
 4072 005a 10010000 		.4byte	.LVL20
 4073 005e 20010000 		.4byte	.LVL21
 4074 0062 0100     		.2byte	0x1
 4075 0064 50       		.byte	0x50
 4076 0065 40010000 		.4byte	.LVL24
 4077 0069 54010000 		.4byte	.LVL25
 4078 006d 0100     		.2byte	0x1
 4079 006f 50       		.byte	0x50
 4080 0070 F0010000 		.4byte	.LVL32
 4081 0074 F8010000 		.4byte	.LVL33
 4082 0078 0100     		.2byte	0x1
 4083 007a 50       		.byte	0x50
 4084 007b 3C020000 		.4byte	.LVL38
 4085 007f 44020000 		.4byte	.LVL39
 4086 0083 0100     		.2byte	0x1
 4087 0085 50       		.byte	0x50
 4088 0086 64020000 		.4byte	.LVL41
 4089 008a 6C020000 		.4byte	.LVL42
 4090 008e 0100     		.2byte	0x1
 4091 0090 50       		.byte	0x50
 4092 0091 D8020000 		.4byte	.LVL47
 4093 0095 E8020000 		.4byte	.LVL48
 4094 0099 0100     		.2byte	0x1
 4095 009b 50       		.byte	0x50
 4096 009c 08030000 		.4byte	.LVL51
 4097 00a0 1C030000 		.4byte	.LVL52
 4098 00a4 0100     		.2byte	0x1
 4099 00a6 50       		.byte	0x50
ARM GAS  /tmp/ccGdBEjb.s 			page 73


 4100 00a7 B0030000 		.4byte	.LVL57
 4101 00ab B8030000 		.4byte	.LVL58
 4102 00af 0100     		.2byte	0x1
 4103 00b1 50       		.byte	0x50
 4104 00b2 D4030000 		.4byte	.LVL60
 4105 00b6 DC030000 		.4byte	.LVL61
 4106 00ba 0100     		.2byte	0x1
 4107 00bc 50       		.byte	0x50
 4108 00bd F8030000 		.4byte	.LVL63
 4109 00c1 00040000 		.4byte	.LVL64
 4110 00c5 0100     		.2byte	0x1
 4111 00c7 50       		.byte	0x50
 4112 00c8 1C040000 		.4byte	.LVL66
 4113 00cc 24040000 		.4byte	.LVL67
 4114 00d0 0100     		.2byte	0x1
 4115 00d2 50       		.byte	0x50
 4116 00d3 40040000 		.4byte	.LVL69
 4117 00d7 4C040000 		.4byte	.LVL70
 4118 00db 0100     		.2byte	0x1
 4119 00dd 50       		.byte	0x50
 4120 00de 98040000 		.4byte	.LVL75
 4121 00e2 A4040000 		.4byte	.LVL76
 4122 00e6 0100     		.2byte	0x1
 4123 00e8 50       		.byte	0x50
 4124 00e9 58050000 		.4byte	.LVL84
 4125 00ed 60050000 		.4byte	.LVL85
 4126 00f1 0100     		.2byte	0x1
 4127 00f3 50       		.byte	0x50
 4128 00f4 7C050000 		.4byte	.LVL87
 4129 00f8 84050000 		.4byte	.LVL88
 4130 00fc 0100     		.2byte	0x1
 4131 00fe 50       		.byte	0x50
 4132 00ff A0050000 		.4byte	.LVL90
 4133 0103 A8050000 		.4byte	.LVL91
 4134 0107 0100     		.2byte	0x1
 4135 0109 50       		.byte	0x50
 4136 010a C4050000 		.4byte	.LVL93
 4137 010e CC050000 		.4byte	.LVL94
 4138 0112 0100     		.2byte	0x1
 4139 0114 50       		.byte	0x50
 4140 0115 E8050000 		.4byte	.LVL96
 4141 0119 F4050000 		.4byte	.LVL97
 4142 011d 0100     		.2byte	0x1
 4143 011f 50       		.byte	0x50
 4144 0120 40060000 		.4byte	.LVL102
 4145 0124 4C060000 		.4byte	.LVL103
 4146 0128 0100     		.2byte	0x1
 4147 012a 50       		.byte	0x50
 4148 012b 00000000 		.4byte	0
 4149 012f 00000000 		.4byte	0
 4150              	.LVUS1:
 4151 0133 00       		.uleb128 .LVU9
 4152 0134 02       		.uleb128 .LVU15
 4153 0135 02       		.uleb128 .LVU15
 4154 0136 00       		.uleb128 .LVU17
 4155 0137 00       		.uleb128 .LVU17
 4156 0138 00       		.uleb128 .LVU23
ARM GAS  /tmp/ccGdBEjb.s 			page 74


 4157 0139 00       		.uleb128 .LVU24
 4158 013a 03       		.uleb128 .LVU82
 4159 013b 03       		.uleb128 .LVU82
 4160 013c 00       		.uleb128 .LVU85
 4161 013d 00       		.uleb128 .LVU85
 4162 013e 01       		.uleb128 .LVU94
 4163 013f 01       		.uleb128 .LVU94
 4164 0140 00       		.uleb128 .LVU96
 4165 0141 00       		.uleb128 .LVU96
 4166 0142 00       		.uleb128 .LVU183
 4167 0143 00       		.uleb128 .LVU184
 4168 0144 01       		.uleb128 .LVU199
 4169 0145 01       		.uleb128 .LVU199
 4170 0146 00       		.uleb128 .LVU201
 4171 0147 00       		.uleb128 .LVU201
 4172 0148 00       		.uleb128 .LVU254
 4173 0149 00       		.uleb128 .LVU255
 4174 014a 01       		.uleb128 .LVU270
 4175 014b 01       		.uleb128 .LVU270
 4176 014c 00       		.uleb128 .LVU272
 4177 014d 00       		.uleb128 .LVU272
 4178 014e 00       		.uleb128 .LVU322
 4179              	.LLST1:
 4180 014f 34000000 		.4byte	.LVL1
 4181 0153 54000000 		.4byte	.LVL4
 4182 0157 0400     		.2byte	0x4
 4183 0159 74       		.byte	0x74
 4184 015a BE7F     		.sleb128 -66
 4185 015c 9F       		.byte	0x9f
 4186 015d 54000000 		.4byte	.LVL4
 4187 0161 5C000000 		.4byte	.LVL5
 4188 0165 0400     		.2byte	0x4
 4189 0167 74       		.byte	0x74
 4190 0168 BF7F     		.sleb128 -65
 4191 016a 9F       		.byte	0x9f
 4192 016b 5C000000 		.4byte	.LVL5
 4193 016f 90000000 		.4byte	.LVL9
 4194 0173 0400     		.2byte	0x4
 4195 0175 74       		.byte	0x74
 4196 0176 BE7F     		.sleb128 -66
 4197 0178 9F       		.byte	0x9f
 4198 0179 98000000 		.4byte	.LVL10
 4199 017d D8010000 		.4byte	.LVL30
 4200 0181 0400     		.2byte	0x4
 4201 0183 74       		.byte	0x74
 4202 0184 BE7F     		.sleb128 -66
 4203 0186 9F       		.byte	0x9f
 4204 0187 D8010000 		.4byte	.LVL30
 4205 018b E0010000 		.4byte	.LVL31
 4206 018f 0200     		.2byte	0x2
 4207 0191 30       		.byte	0x30
 4208 0192 9F       		.byte	0x9f
 4209 0193 E0010000 		.4byte	.LVL31
 4210 0197 10020000 		.4byte	.LVL35
 4211 019b 0500     		.2byte	0x5
 4212 019d 35       		.byte	0x35
 4213 019e 74       		.byte	0x74
ARM GAS  /tmp/ccGdBEjb.s 			page 75


 4214 019f 00       		.sleb128 0
 4215 01a0 1C       		.byte	0x1c
 4216 01a1 9F       		.byte	0x9f
 4217 01a2 10020000 		.4byte	.LVL35
 4218 01a6 14020000 		.4byte	.LVL36
 4219 01aa 0500     		.2byte	0x5
 4220 01ac 36       		.byte	0x36
 4221 01ad 74       		.byte	0x74
 4222 01ae 00       		.sleb128 0
 4223 01af 1C       		.byte	0x1c
 4224 01b0 9F       		.byte	0x9f
 4225 01b1 14020000 		.4byte	.LVL36
 4226 01b5 84040000 		.4byte	.LVL73
 4227 01b9 0500     		.2byte	0x5
 4228 01bb 35       		.byte	0x35
 4229 01bc 74       		.byte	0x74
 4230 01bd 00       		.sleb128 0
 4231 01be 1C       		.byte	0x1c
 4232 01bf 9F       		.byte	0x9f
 4233 01c0 88040000 		.4byte	.LVL74
 4234 01c4 BC040000 		.4byte	.LVL78
 4235 01c8 0500     		.2byte	0x5
 4236 01ca 35       		.byte	0x35
 4237 01cb 74       		.byte	0x74
 4238 01cc 00       		.sleb128 0
 4239 01cd 1C       		.byte	0x1c
 4240 01ce 9F       		.byte	0x9f
 4241 01cf BC040000 		.4byte	.LVL78
 4242 01d3 C0040000 		.4byte	.LVL79
 4243 01d7 0500     		.2byte	0x5
 4244 01d9 36       		.byte	0x36
 4245 01da 74       		.byte	0x74
 4246 01db 00       		.sleb128 0
 4247 01dc 1C       		.byte	0x1c
 4248 01dd 9F       		.byte	0x9f
 4249 01de C0040000 		.4byte	.LVL79
 4250 01e2 2C060000 		.4byte	.LVL100
 4251 01e6 0500     		.2byte	0x5
 4252 01e8 35       		.byte	0x35
 4253 01e9 74       		.byte	0x74
 4254 01ea 00       		.sleb128 0
 4255 01eb 1C       		.byte	0x1c
 4256 01ec 9F       		.byte	0x9f
 4257 01ed 30060000 		.4byte	.LVL101
 4258 01f1 64060000 		.4byte	.LVL105
 4259 01f5 0500     		.2byte	0x5
 4260 01f7 35       		.byte	0x35
 4261 01f8 74       		.byte	0x74
 4262 01f9 00       		.sleb128 0
 4263 01fa 1C       		.byte	0x1c
 4264 01fb 9F       		.byte	0x9f
 4265 01fc 64060000 		.4byte	.LVL105
 4266 0200 68060000 		.4byte	.LVL106
 4267 0204 0500     		.2byte	0x5
 4268 0206 36       		.byte	0x36
 4269 0207 74       		.byte	0x74
 4270 0208 00       		.sleb128 0
ARM GAS  /tmp/ccGdBEjb.s 			page 76


 4271 0209 1C       		.byte	0x1c
 4272 020a 9F       		.byte	0x9f
 4273 020b 68060000 		.4byte	.LVL106
 4274 020f 90070000 		.4byte	.LVL115
 4275 0213 0500     		.2byte	0x5
 4276 0215 35       		.byte	0x35
 4277 0216 74       		.byte	0x74
 4278 0217 00       		.sleb128 0
 4279 0218 1C       		.byte	0x1c
 4280 0219 9F       		.byte	0x9f
 4281 021a 00000000 		.4byte	0
 4282 021e 00000000 		.4byte	0
 4283              		.section	.debug_aranges,"",%progbits
 4284 0000 24000000 		.4byte	0x24
 4285 0004 0200     		.2byte	0x2
 4286 0006 00000000 		.4byte	.Ldebug_info0
 4287 000a 04       		.byte	0x4
 4288 000b 00       		.byte	0
 4289 000c 0000     		.2byte	0
 4290 000e 0000     		.2byte	0
 4291 0010 00000000 		.4byte	.LFB8
 4292 0014 A0070000 		.4byte	.LFE8-.LFB8
 4293 0018 00000000 		.4byte	.LFB7
 4294 001c 18000000 		.4byte	.LFE7-.LFB7
 4295 0020 00000000 		.4byte	0
 4296 0024 00000000 		.4byte	0
 4297              		.section	.debug_ranges,"",%progbits
 4298              	.Ldebug_ranges0:
 4299 0000 00000000 		.4byte	.LFB8
 4300 0004 A0070000 		.4byte	.LFE8
 4301 0008 00000000 		.4byte	.LFB7
 4302 000c 18000000 		.4byte	.LFE7
 4303 0010 00000000 		.4byte	0
 4304 0014 00000000 		.4byte	0
 4305              		.section	.debug_line,"",%progbits
 4306              	.Ldebug_line0:
 4307 0000 A5080000 		.section	.debug_str,"MS",%progbits,1
 4307      03001801 
 4307      00000201 
 4307      FB0E0D00 
 4307      01010101 
 4308              	.LASF95:
 4309 0000 63665F6F 		.ascii	"cf_off_older\000"
 4309      66665F6F 
 4309      6C646572 
 4309      00
 4310              	.LASF38:
 4311 000d 705F6D73 		.ascii	"p_msg\000"
 4311      6700
 4312              	.LASF132:
 4313 0013 474E5520 		.ascii	"GNU C17 9.2.1 20191025 (release) [ARM/arm-9-branch "
 4313      43313720 
 4313      392E322E 
 4313      31203230 
 4313      31393130 
 4314 0046 72657669 		.ascii	"revision 277599] -mcpu=arm1176jz-s -mno-thumb-inter"
 4314      73696F6E 
ARM GAS  /tmp/ccGdBEjb.s 			page 77


 4314      20323737 
 4314      3539395D 
 4314      202D6D63 
 4315 0079 776F726B 		.ascii	"work -mfloat-abi=soft -marm -march=armv6kz -ggdb -O"
 4315      202D6D66 
 4315      6C6F6174 
 4315      2D616269 
 4315      3D736F66 
 4316 00ac 32202D66 		.ascii	"2 -fomit-frame-pointer -ffunction-sections -fdata-s"
 4316      6F6D6974 
 4316      2D667261 
 4316      6D652D70 
 4316      6F696E74 
 4317 00df 65637469 		.ascii	"ections\000"
 4317      6F6E7300 
 4318              	.LASF80:
 4319 00e7 7264796D 		.ascii	"rdymsg\000"
 4319      736700
 4320              	.LASF76:
 4321 00ee 6D625F72 		.ascii	"mb_rdptr\000"
 4321      64707472 
 4321      00
 4322              	.LASF124:
 4323 00f7 63684D42 		.ascii	"chMBPostI\000"
 4323      506F7374 
 4323      4900
 4324              	.LASF64:
 4325 0101 76746C69 		.ascii	"vtlist\000"
 4325      737400
 4326              	.LASF79:
 4327 0108 4D61696C 		.ascii	"Mailbox\000"
 4327      626F7800 
 4328              	.LASF125:
 4329 0110 63684D42 		.ascii	"chMBPostAheadI\000"
 4329      506F7374 
 4329      41686561 
 4329      644900
 4330              	.LASF12:
 4331 011f 6C6F6E67 		.ascii	"long long unsigned int\000"
 4331      206C6F6E 
 4331      6720756E 
 4331      7369676E 
 4331      65642069 
 4332              	.LASF116:
 4333 0136 70617474 		.ascii	"patternmbox\000"
 4333      65726E6D 
 4333      626F7800 
 4334              	.LASF91:
 4335 0142 63685F74 		.ascii	"ch_threadsize\000"
 4335      68726561 
 4335      6473697A 
 4335      6500
 4336              	.LASF81:
 4337 0150 65786974 		.ascii	"exitcode\000"
 4337      636F6465 
 4337      00
 4338              	.LASF131:
ARM GAS  /tmp/ccGdBEjb.s 			page 78


 4339 0159 63684D42 		.ascii	"chMBInit\000"
 4339      496E6974 
 4339      00
 4340              	.LASF113:
 4341 0162 74657374 		.ascii	"test\000"
 4341      00
 4342              	.LASF75:
 4343 0167 6D625F77 		.ascii	"mb_wrptr\000"
 4343      72707472 
 4343      00
 4344              	.LASF26:
 4345 0170 705F7072 		.ascii	"p_prio\000"
 4345      696F00
 4346              	.LASF98:
 4347 0177 63665F6F 		.ascii	"cf_off_state\000"
 4347      66665F73 
 4347      74617465 
 4347      00
 4348              	.LASF109:
 4349 0184 74656172 		.ascii	"teardown\000"
 4349      646F776E 
 4349      00
 4350              	.LASF4:
 4351 018d 6C6F6E67 		.ascii	"long long int\000"
 4351      206C6F6E 
 4351      6720696E 
 4351      7400
 4352              	.LASF1:
 4353 019b 7369676E 		.ascii	"signed char\000"
 4353      65642063 
 4353      68617200 
 4354              	.LASF97:
 4355 01a7 63665F6F 		.ascii	"cf_off_stklimit\000"
 4355      66665F73 
 4355      746B6C69 
 4355      6D697400 
 4356              	.LASF11:
 4357 01b7 6C6F6E67 		.ascii	"long unsigned int\000"
 4357      20756E73 
 4357      69676E65 
 4357      6420696E 
 4357      7400
 4358              	.LASF13:
 4359 01c9 626F6F6C 		.ascii	"bool_t\000"
 4359      5F7400
 4360              	.LASF70:
 4361 01d0 6D5F7175 		.ascii	"m_queue\000"
 4361      65756500 
 4362              	.LASF127:
 4363 01d8 74657374 		.ascii	"test_emit_token\000"
 4363      5F656D69 
 4363      745F746F 
 4363      6B656E00 
 4364              	.LASF17:
 4365 01e8 74736C69 		.ascii	"tslices_t\000"
 4365      6365735F 
 4365      7400
ARM GAS  /tmp/ccGdBEjb.s 			page 79


 4366              	.LASF122:
 4367 01f2 63684D42 		.ascii	"chMBPost\000"
 4367      506F7374 
 4367      00
 4368              	.LASF3:
 4369 01fb 6C6F6E67 		.ascii	"long int\000"
 4369      20696E74 
 4369      00
 4370              	.LASF15:
 4371 0204 74737461 		.ascii	"tstate_t\000"
 4371      74655F74 
 4371      00
 4372              	.LASF8:
 4373 020d 75696E74 		.ascii	"uint16_t\000"
 4373      31365F74 
 4373      00
 4374              	.LASF103:
 4375 0216 63686465 		.ascii	"chdebug_t\000"
 4375      6275675F 
 4375      7400
 4376              	.LASF111:
 4377 0220 62756666 		.ascii	"buffer\000"
 4377      657200
 4378              	.LASF28:
 4379 0227 705F6E65 		.ascii	"p_newer\000"
 4379      77657200 
 4380              	.LASF105:
 4381 022f 5F69646C 		.ascii	"_idle_thread_wa\000"
 4381      655F7468 
 4381      72656164 
 4381      5F776100 
 4382              	.LASF67:
 4383 023f 735F7175 		.ascii	"s_queue\000"
 4383      65756500 
 4384              	.LASF60:
 4385 0247 725F6E65 		.ascii	"r_newer\000"
 4385      77657200 
 4386              	.LASF45:
 4387 024f 72656761 		.ascii	"regarm_t\000"
 4387      726D5F74 
 4387      00
 4388              	.LASF51:
 4389 0258 76745F70 		.ascii	"vt_prev\000"
 4389      72657600 
 4390              	.LASF22:
 4391 0260 636E745F 		.ascii	"cnt_t\000"
 4391      7400
 4392              	.LASF0:
 4393 0266 756E7369 		.ascii	"unsigned int\000"
 4393      676E6564 
 4393      20696E74 
 4393      00
 4394              	.LASF50:
 4395 0273 76745F6E 		.ascii	"vt_next\000"
 4395      65787400 
 4396              	.LASF117:
 4397 027b 6D736731 		.ascii	"msg1\000"
ARM GAS  /tmp/ccGdBEjb.s 			page 80


 4397      00
 4398              	.LASF118:
 4399 0280 6D736732 		.ascii	"msg2\000"
 4399      00
 4400              	.LASF133:
 4401 0285 2E2E2F74 		.ascii	"../test/testmbox.c\000"
 4401      6573742F 
 4401      74657374 
 4401      6D626F78 
 4401      2E6300
 4402              	.LASF104:
 4403 0298 63685F64 		.ascii	"ch_debug\000"
 4403      65627567 
 4403      00
 4404              	.LASF114:
 4405 02a1 74657374 		.ascii	"test_timer_done\000"
 4405      5F74696D 
 4405      65725F64 
 4405      6F6E6500 
 4406              	.LASF78:
 4407 02b1 6D625F65 		.ascii	"mb_emptysem\000"
 4407      6D707479 
 4407      73656D00 
 4408              	.LASF107:
 4409 02bd 6E616D65 		.ascii	"name\000"
 4409      00
 4410              	.LASF85:
 4411 02c2 63685F69 		.ascii	"ch_identifier\000"
 4411      64656E74 
 4411      69666965 
 4411      7200
 4412              	.LASF68:
 4413 02d0 735F636E 		.ascii	"s_cnt\000"
 4413      7400
 4414              	.LASF47:
 4415 02d6 636F6E74 		.ascii	"context\000"
 4415      65787400 
 4416              	.LASF9:
 4417 02de 73686F72 		.ascii	"short unsigned int\000"
 4417      7420756E 
 4417      7369676E 
 4417      65642069 
 4417      6E7400
 4418              	.LASF129:
 4419 02f1 63684D42 		.ascii	"chMBFetchI\000"
 4419      46657463 
 4419      684900
 4420              	.LASF19:
 4421 02fc 6D73675F 		.ascii	"msg_t\000"
 4421      7400
 4422              	.LASF112:
 4423 0302 74687265 		.ascii	"threads\000"
 4423      61647300 
 4424              	.LASF14:
 4425 030a 746D6F64 		.ascii	"tmode_t\000"
 4425      655F7400 
 4426              	.LASF120:
ARM GAS  /tmp/ccGdBEjb.s 			page 81


 4427 0312 6D626F78 		.ascii	"mbox1_setup\000"
 4427      315F7365 
 4427      74757000 
 4428              	.LASF43:
 4429 031e 54687265 		.ascii	"ThreadsList\000"
 4429      6164734C 
 4429      69737400 
 4430              	.LASF20:
 4431 032a 6576656E 		.ascii	"eventmask_t\000"
 4431      746D6173 
 4431      6B5F7400 
 4432              	.LASF69:
 4433 0336 4D757465 		.ascii	"Mutex\000"
 4433      7800
 4434              	.LASF115:
 4435 033c 74657374 		.ascii	"testmbox1\000"
 4435      6D626F78 
 4435      3100
 4436              	.LASF44:
 4437 0346 73746B61 		.ascii	"stkalign_t\000"
 4437      6C69676E 
 4437      5F7400
 4438              	.LASF86:
 4439 0351 63685F7A 		.ascii	"ch_zero\000"
 4439      65726F00 
 4440              	.LASF100:
 4441 0359 63665F6F 		.ascii	"cf_off_refs\000"
 4441      66665F72 
 4441      65667300 
 4442              	.LASF52:
 4443 0365 76745F74 		.ascii	"vt_time\000"
 4443      696D6500 
 4444              	.LASF53:
 4445 036d 76745F66 		.ascii	"vt_func\000"
 4445      756E6300 
 4446              	.LASF90:
 4447 0375 63685F74 		.ascii	"ch_timesize\000"
 4447      696D6573 
 4447      697A6500 
 4448              	.LASF130:
 4449 0381 63684D42 		.ascii	"chMBReset\000"
 4449      52657365 
 4449      7400
 4450              	.LASF96:
 4451 038b 63665F6F 		.ascii	"cf_off_name\000"
 4451      66665F6E 
 4451      616D6500 
 4452              	.LASF29:
 4453 0397 705F6F6C 		.ascii	"p_older\000"
 4453      64657200 
 4454              	.LASF59:
 4455 039f 725F6374 		.ascii	"r_ctx\000"
 4455      7800
 4456              	.LASF42:
 4457 03a5 54687265 		.ascii	"ThreadsQueue\000"
 4457      61647351 
 4457      75657565 
ARM GAS  /tmp/ccGdBEjb.s 			page 82


 4457      00
 4458              	.LASF87:
 4459 03b2 63685F73 		.ascii	"ch_size\000"
 4459      697A6500 
 4460              	.LASF108:
 4461 03ba 73657475 		.ascii	"setup\000"
 4461      7000
 4462              	.LASF128:
 4463 03c0 5F746573 		.ascii	"_test_assert_sequence\000"
 4463      745F6173 
 4463      73657274 
 4463      5F736571 
 4463      75656E63 
 4464              	.LASF73:
 4465 03d6 6D625F62 		.ascii	"mb_buffer\000"
 4465      75666665 
 4465      7200
 4466              	.LASF119:
 4467 03e0 6D626F78 		.ascii	"mbox1_execute\000"
 4467      315F6578 
 4467      65637574 
 4467      6500
 4468              	.LASF62:
 4469 03ee 725F6375 		.ascii	"r_current\000"
 4469      7272656E 
 4469      7400
 4470              	.LASF61:
 4471 03f8 725F6F6C 		.ascii	"r_older\000"
 4471      64657200 
 4472              	.LASF16:
 4473 0400 74726566 		.ascii	"trefs_t\000"
 4473      735F7400 
 4474              	.LASF89:
 4475 0408 63685F70 		.ascii	"ch_ptrsize\000"
 4475      74727369 
 4475      7A6500
 4476              	.LASF25:
 4477 0413 705F7072 		.ascii	"p_prev\000"
 4477      657600
 4478              	.LASF110:
 4479 041a 65786563 		.ascii	"execute\000"
 4479      75746500 
 4480              	.LASF18:
 4481 0422 74707269 		.ascii	"tprio_t\000"
 4481      6F5F7400 
 4482              	.LASF5:
 4483 042a 696E7433 		.ascii	"int32_t\000"
 4483      325F7400 
 4484              	.LASF7:
 4485 0432 756E7369 		.ascii	"unsigned char\000"
 4485      676E6564 
 4485      20636861 
 4485      7200
 4486              	.LASF74:
 4487 0440 6D625F74 		.ascii	"mb_top\000"
 4487      6F7000
 4488              	.LASF40:
ARM GAS  /tmp/ccGdBEjb.s 			page 83


 4489 0447 705F6D74 		.ascii	"p_mtxlist\000"
 4489      786C6973 
 4489      7400
 4490              	.LASF2:
 4491 0451 73686F72 		.ascii	"short int\000"
 4491      7420696E 
 4491      7400
 4492              	.LASF31:
 4493 045b 705F7374 		.ascii	"p_state\000"
 4493      61746500 
 4494              	.LASF34:
 4495 0463 705F7072 		.ascii	"p_preempt\000"
 4495      65656D70 
 4495      7400
 4496              	.LASF102:
 4497 046d 63665F6F 		.ascii	"cf_off_time\000"
 4497      66665F74 
 4497      696D6500 
 4498              	.LASF58:
 4499 0479 725F7072 		.ascii	"r_prio\000"
 4499      696F00
 4500              	.LASF83:
 4501 0480 65776D61 		.ascii	"ewmask\000"
 4501      736B00
 4502              	.LASF24:
 4503 0487 705F6E65 		.ascii	"p_next\000"
 4503      787400
 4504              	.LASF101:
 4505 048e 63665F6F 		.ascii	"cf_off_preempt\000"
 4505      66665F70 
 4505      7265656D 
 4505      707400
 4506              	.LASF32:
 4507 049d 705F666C 		.ascii	"p_flags\000"
 4507      61677300 
 4508              	.LASF23:
 4509 04a5 54687265 		.ascii	"Thread\000"
 4509      616400
 4510              	.LASF94:
 4511 04ac 63665F6F 		.ascii	"cf_off_newer\000"
 4511      66665F6E 
 4511      65776572 
 4511      00
 4512              	.LASF106:
 4513 04b9 74657374 		.ascii	"testcase\000"
 4513      63617365 
 4513      00
 4514              	.LASF39:
 4515 04c2 705F6570 		.ascii	"p_epending\000"
 4515      656E6469 
 4515      6E6700
 4516              	.LASF10:
 4517 04cd 75696E74 		.ascii	"uint32_t\000"
 4517      33325F74 
 4517      00
 4518              	.LASF92:
 4519 04d6 63665F6F 		.ascii	"cf_off_prio\000"
ARM GAS  /tmp/ccGdBEjb.s 			page 84


 4519      66665F70 
 4519      72696F00 
 4520              	.LASF57:
 4521 04e2 725F7175 		.ascii	"r_queue\000"
 4521      65756500 
 4522              	.LASF49:
 4523 04ea 56697274 		.ascii	"VirtualTimer\000"
 4523      75616C54 
 4523      696D6572 
 4523      00
 4524              	.LASF134:
 4525 04f7 2F686F6D 		.ascii	"/home/taskman/arduino/embedded-wind-turbine/Data_Co"
 4525      652F7461 
 4525      736B6D61 
 4525      6E2F6172 
 4525      6475696E 
 4526 052a 6C6C6563 		.ascii	"llector/raspberry/compiler/ChibiOS-RPi/led\000"
 4526      746F722F 
 4526      72617370 
 4526      62657272 
 4526      792F636F 
 4527              	.LASF84:
 4528 0555 63686172 		.ascii	"char\000"
 4528      00
 4529              	.LASF135:
 4530 055a 74657374 		.ascii	"test_buffers\000"
 4530      5F627566 
 4530      66657273 
 4530      00
 4531              	.LASF72:
 4532 0567 6D5F6E65 		.ascii	"m_next\000"
 4532      787400
 4533              	.LASF21:
 4534 056e 73797374 		.ascii	"systime_t\000"
 4534      696D655F 
 4534      7400
 4535              	.LASF41:
 4536 0578 705F7265 		.ascii	"p_realprio\000"
 4536      616C7072 
 4536      696F00
 4537              	.LASF48:
 4538 0583 76746675 		.ascii	"vtfunc_t\000"
 4538      6E635F74 
 4538      00
 4539              	.LASF35:
 4540 058c 705F7469 		.ascii	"p_time\000"
 4540      6D6500
 4541              	.LASF123:
 4542 0593 63684D42 		.ascii	"chMBPostAhead\000"
 4542      506F7374 
 4542      41686561 
 4542      6400
 4543              	.LASF46:
 4544 05a1 696E7463 		.ascii	"intctx\000"
 4544      747800
 4545              	.LASF37:
 4546 05a8 705F6D73 		.ascii	"p_msgqueue\000"
ARM GAS  /tmp/ccGdBEjb.s 			page 85


 4546      67717565 
 4546      756500
 4547              	.LASF126:
 4548 05b3 63684D42 		.ascii	"chMBFetch\000"
 4548      46657463 
 4548      6800
 4549              	.LASF54:
 4550 05bd 76745F70 		.ascii	"vt_par\000"
 4550      617200
 4551              	.LASF66:
 4552 05c4 53656D61 		.ascii	"Semaphore\000"
 4552      70686F72 
 4552      6500
 4553              	.LASF77:
 4554 05ce 6D625F66 		.ascii	"mb_fullsem\000"
 4554      756C6C73 
 4554      656D00
 4555              	.LASF93:
 4556 05d9 63665F6F 		.ascii	"cf_off_ctx\000"
 4556      66665F63 
 4556      747800
 4557              	.LASF33:
 4558 05e4 705F7265 		.ascii	"p_refs\000"
 4558      667300
 4559              	.LASF63:
 4560 05eb 52656164 		.ascii	"ReadyList\000"
 4560      794C6973 
 4560      7400
 4561              	.LASF65:
 4562 05f5 726C6973 		.ascii	"rlist\000"
 4562      7400
 4563              	.LASF6:
 4564 05fb 75696E74 		.ascii	"uint8_t\000"
 4564      385F7400 
 4565              	.LASF82:
 4566 0603 77746F62 		.ascii	"wtobjp\000"
 4566      6A7000
 4567              	.LASF30:
 4568 060a 705F6E61 		.ascii	"p_name\000"
 4568      6D6500
 4569              	.LASF121:
 4570 0611 5F746573 		.ascii	"_test_assert\000"
 4570      745F6173 
 4570      73657274 
 4570      00
 4571              	.LASF55:
 4572 061e 76745F73 		.ascii	"vt_systime\000"
 4572      79737469 
 4572      6D6500
 4573              	.LASF88:
 4574 0629 63685F76 		.ascii	"ch_version\000"
 4574      65727369 
 4574      6F6E00
 4575              	.LASF56:
 4576 0634 56544C69 		.ascii	"VTList\000"
 4576      737400
 4577              	.LASF71:
ARM GAS  /tmp/ccGdBEjb.s 			page 86


 4578 063b 6D5F6F77 		.ascii	"m_owner\000"
 4578      6E657200 
 4579              	.LASF99:
 4580 0643 63665F6F 		.ascii	"cf_off_flags\000"
 4580      66665F66 
 4580      6C616773 
 4580      00
 4581              	.LASF27:
 4582 0650 705F6374 		.ascii	"p_ctx\000"
 4582      7800
 4583              	.LASF36:
 4584 0656 705F7761 		.ascii	"p_waiting\000"
 4584      6974696E 
 4584      6700
 4585              		.ident	"GCC: (15:9-2019-q4-0ubuntu1) 9.2.1 20191025 (release) [ARM/arm-9-branch revision 277599]"
ARM GAS  /tmp/ccGdBEjb.s 			page 87


DEFINED SYMBOLS
                            *ABS*:0000000000000000 testmbox.c
     /tmp/ccGdBEjb.s:16     .rodata.mbox1_execute.str1.4:0000000000000000 $d
     /tmp/ccGdBEjb.s:20     .text.mbox1_execute:0000000000000000 $a
     /tmp/ccGdBEjb.s:26     .text.mbox1_execute:0000000000000000 mbox1_execute
     /tmp/ccGdBEjb.s:1160   .text.mbox1_execute:0000000000000798 $d
     /tmp/ccGdBEjb.s:1166   .text.mbox1_setup:0000000000000000 $a
     /tmp/ccGdBEjb.s:1171   .text.mbox1_setup:0000000000000000 mbox1_setup
     /tmp/ccGdBEjb.s:1187   .text.mbox1_setup:0000000000000010 $d
     /tmp/ccGdBEjb.s:1218   .rodata.patternmbox:0000000000000000 patternmbox
     /tmp/ccGdBEjb.s:1225   .rodata.testmbox1:0000000000000000 testmbox1
     /tmp/ccGdBEjb.s:1195   .rodata.str1.4:0000000000000000 $d
     /tmp/ccGdBEjb.s:1199   .data.mb1:0000000000000000 $d
     /tmp/ccGdBEjb.s:1203   .data.mb1:0000000000000000 mb1
     /tmp/ccGdBEjb.s:1215   .rodata.patternmbox:0000000000000000 $d
     /tmp/ccGdBEjb.s:1222   .rodata.testmbox1:0000000000000000 $d

UNDEFINED SYMBOLS
_test_assert
chMBPost
chMBPostAhead
chMBPostI
chMBPostAheadI
chMBFetch
test_emit_token
_test_assert_sequence
chMBFetchI
chMBReset
chMBInit
test
