ARM GAS  /tmp/ccdxa2mt.s 			page 1


   1              		.cpu arm1176jz-s
   2              		.eabi_attribute 20, 1
   3              		.eabi_attribute 21, 1
   4              		.eabi_attribute 23, 3
   5              		.eabi_attribute 24, 1
   6              		.eabi_attribute 25, 1
   7              		.eabi_attribute 26, 1
   8              		.eabi_attribute 30, 2
   9              		.eabi_attribute 34, 1
  10              		.eabi_attribute 18, 4
  11              		.file	"testevt.c"
  12              		.text
  13              	.Ltext0:
  14              		.cfi_sections	.debug_frame
  15              		.section	.rodata.evt1_execute.str1.4,"aMS",%progbits,1
  16              		.align	2
  17              	.LC0:
  18 0000 41424300 		.ascii	"ABC\000"
  19              		.section	.text.evt1_execute,"ax",%progbits
  20              		.align	2
  21              		.arch armv6kz
  22              		.syntax unified
  23              		.arm
  24              		.fpu softvfp
  25              		.type	evt1_execute, %function
  26              	evt1_execute:
  27              	.LFB11:
  28              		.file 1 "../test/testevt.c"
  29              		.loc 1 89 32 view -0
  30              		.cfi_startproc
  31              		@ args = 0, pretend = 0, frame = 32
  32              		@ frame_needed = 0, uses_anonymous_args = 0
  33              		.loc 1 90 3 view .LVU1
  34              		.loc 1 95 3 view .LVU2
  35              		.loc 1 89 32 is_stmt 0 view .LVU3
  36 0000 10402DE9 		push	{r4, lr}
  37              		.cfi_def_cfa_offset 8
  38              		.cfi_offset 4, -8
  39              		.cfi_offset 14, -4
  40              		.loc 1 95 3 view .LVU4
  41 0004 B8409FE5 		ldr	r4, .L8
  42              		.loc 1 89 32 view .LVU5
  43 0008 20D04DE2 		sub	sp, sp, #32
  44              		.cfi_def_cfa_offset 40
  45              		.loc 1 96 3 view .LVU6
  46 000c 0400A0E1 		mov	r0, r4
  47 0010 0D10A0E1 		mov	r1, sp
  48 0014 0120A0E3 		mov	r2, #1
  49              		.loc 1 95 3 view .LVU7
  50 0018 004084E5 		str	r4, [r4]
  51              		.loc 1 96 3 is_stmt 1 view .LVU8
  52 001c FEFFFFEB 		bl	chEvtRegisterMask
  53              	.LVL0:
  54              		.loc 1 97 3 view .LVU9
  55 0020 0400A0E1 		mov	r0, r4
  56 0024 0220A0E3 		mov	r2, #2
  57 0028 10108DE2 		add	r1, sp, #16
ARM GAS  /tmp/ccdxa2mt.s 			page 2


  58 002c FEFFFFEB 		bl	chEvtRegisterMask
  59              	.LVL1:
  60              		.loc 1 98 3 view .LVU10
  61 0030 001094E5 		ldr	r1, [r4]
  62 0034 0100A0E3 		mov	r0, #1
  63 0038 041051E0 		subs	r1, r1, r4
  64 003c 0110A013 		movne	r1, #1
  65 0040 FEFFFFEB 		bl	_test_assert
  66              	.LVL2:
  67 0044 000050E3 		cmp	r0, #0
  68 0048 0100000A 		beq	.L7
  69              	.L1:
  70              		.loc 1 109 1 is_stmt 0 view .LVU11
  71 004c 20D08DE2 		add	sp, sp, #32
  72              		.cfi_remember_state
  73              		.cfi_def_cfa_offset 8
  74              		@ sp needed
  75 0050 1080BDE8 		pop	{r4, pc}
  76              	.L7:
  77              		.cfi_restore_state
  78              		.loc 1 98 57 is_stmt 1 discriminator 2 view .LVU12
  79              		.loc 1 99 3 discriminator 2 view .LVU13
  80 0054 0D10A0E1 		mov	r1, sp
  81 0058 0400A0E1 		mov	r0, r4
  82 005c FEFFFFEB 		bl	chEvtUnregister
  83              	.LVL3:
  84              		.loc 1 100 3 discriminator 2 view .LVU14
  85 0060 001094E5 		ldr	r1, [r4]
  86 0064 0200A0E3 		mov	r0, #2
  87 0068 041051E0 		subs	r1, r1, r4
  88 006c 0110A013 		movne	r1, #1
  89 0070 FEFFFFEB 		bl	_test_assert
  90              	.LVL4:
  91 0074 000050E3 		cmp	r0, #0
  92 0078 F3FFFF1A 		bne	.L1
  93              		.loc 1 100 57 discriminator 2 view .LVU15
  94              		.loc 1 101 3 discriminator 2 view .LVU16
  95 007c 0400A0E1 		mov	r0, r4
  96 0080 10108DE2 		add	r1, sp, #16
  97 0084 FEFFFFEB 		bl	chEvtUnregister
  98              	.LVL5:
  99              		.loc 1 102 3 discriminator 2 view .LVU17
 100 0088 001094E5 		ldr	r1, [r4]
 101 008c 0300A0E3 		mov	r0, #3
 102 0090 041041E0 		sub	r1, r1, r4
 103 0094 111F6FE1 		clz	r1, r1
 104 0098 A112A0E1 		lsr	r1, r1, #5
 105 009c FEFFFFEB 		bl	_test_assert
 106              	.LVL6:
 107 00a0 000050E3 		cmp	r0, #0
 108 00a4 E8FFFF1A 		bne	.L1
 109              		.loc 1 102 61 discriminator 2 view .LVU18
 110              		.loc 1 107 3 discriminator 2 view .LVU19
 111 00a8 0710A0E3 		mov	r1, #7
 112 00ac 14009FE5 		ldr	r0, .L8+4
 113 00b0 FEFFFFEB 		bl	chEvtDispatch
 114              	.LVL7:
ARM GAS  /tmp/ccdxa2mt.s 			page 3


 115              		.loc 1 108 3 discriminator 2 view .LVU20
 116 00b4 10109FE5 		ldr	r1, .L8+8
 117 00b8 0400A0E3 		mov	r0, #4
 118 00bc FEFFFFEB 		bl	_test_assert_sequence
 119              	.LVL8:
 120              		.loc 1 108 3 discriminator 2 view .LVU21
 121 00c0 E1FFFFEA 		b	.L1
 122              	.L9:
 123              		.align	2
 124              	.L8:
 125 00c4 00000000 		.word	.LANCHOR0
 126 00c8 00000000 		.word	.LANCHOR1
 127 00cc 00000000 		.word	.LC0
 128              		.cfi_endproc
 129              	.LFE11:
 130              		.size	evt1_execute, .-evt1_execute
 131              		.section	.text.h3,"ax",%progbits
 132              		.align	2
 133              		.syntax unified
 134              		.arm
 135              		.fpu softvfp
 136              		.type	h3, %function
 137              	h3:
 138              	.LVL9:
 139              	.LFB10:
 140              		.loc 1 86 30 view -0
 141              		.cfi_startproc
 142              		@ args = 0, pretend = 0, frame = 0
 143              		@ frame_needed = 0, uses_anonymous_args = 0
 144              		@ link register save eliminated.
 145              		.loc 1 86 31 view .LVU23
 146              		.loc 1 86 40 view .LVU24
 147 0000 4300A0E3 		mov	r0, #67
 148              	.LVL10:
 149              		.loc 1 86 40 is_stmt 0 view .LVU25
 150 0004 FEFFFFEA 		b	test_emit_token
 151              	.LVL11:
 152              		.cfi_endproc
 153              	.LFE10:
 154              		.size	h3, .-h3
 155              		.section	.text.h2,"ax",%progbits
 156              		.align	2
 157              		.syntax unified
 158              		.arm
 159              		.fpu softvfp
 160              		.type	h2, %function
 161              	h2:
 162              	.LVL12:
 163              	.LFB9:
 164              		.loc 1 85 30 is_stmt 1 view -0
 165              		.cfi_startproc
 166              		@ args = 0, pretend = 0, frame = 0
 167              		@ frame_needed = 0, uses_anonymous_args = 0
 168              		@ link register save eliminated.
 169              		.loc 1 85 31 view .LVU27
 170              		.loc 1 85 40 view .LVU28
 171 0000 4200A0E3 		mov	r0, #66
ARM GAS  /tmp/ccdxa2mt.s 			page 4


 172              	.LVL13:
 173              		.loc 1 85 40 is_stmt 0 view .LVU29
 174 0004 FEFFFFEA 		b	test_emit_token
 175              	.LVL14:
 176              		.cfi_endproc
 177              	.LFE9:
 178              		.size	h2, .-h2
 179              		.section	.text.h1,"ax",%progbits
 180              		.align	2
 181              		.syntax unified
 182              		.arm
 183              		.fpu softvfp
 184              		.type	h1, %function
 185              	h1:
 186              	.LVL15:
 187              	.LFB8:
 188              		.loc 1 84 30 is_stmt 1 view -0
 189              		.cfi_startproc
 190              		@ args = 0, pretend = 0, frame = 0
 191              		@ frame_needed = 0, uses_anonymous_args = 0
 192              		@ link register save eliminated.
 193              		.loc 1 84 31 view .LVU31
 194              		.loc 1 84 40 view .LVU32
 195 0000 4100A0E3 		mov	r0, #65
 196              	.LVL16:
 197              		.loc 1 84 40 is_stmt 0 view .LVU33
 198 0004 FEFFFFEA 		b	test_emit_token
 199              	.LVL17:
 200              		.cfi_endproc
 201              	.LFE8:
 202              		.size	h1, .-h1
 203              		.section	.text.evt1_setup,"ax",%progbits
 204              		.align	2
 205              		.syntax unified
 206              		.arm
 207              		.fpu softvfp
 208              		.type	evt1_setup, %function
 209              	evt1_setup:
 210              	.LFB7:
 211              		.loc 1 79 30 is_stmt 1 view -0
 212              		.cfi_startproc
 213              		@ args = 0, pretend = 0, frame = 0
 214              		@ frame_needed = 0, uses_anonymous_args = 0
 215              		@ link register save eliminated.
 216              		.loc 1 81 3 view .LVU35
 217 0000 0000E0E3 		mvn	r0, #0
 218 0004 FEFFFFEA 		b	chEvtGetAndClearEvents
 219              	.LVL18:
 220              		.cfi_endproc
 221              	.LFE7:
 222              		.size	evt1_setup, .-evt1_setup
 223              		.section	.text.evt2_setup,"ax",%progbits
 224              		.align	2
 225              		.syntax unified
 226              		.arm
 227              		.fpu softvfp
 228              		.type	evt2_setup, %function
ARM GAS  /tmp/ccdxa2mt.s 			page 5


 229              	evt2_setup:
 230              	.LFB21:
 231              		.cfi_startproc
 232              		@ args = 0, pretend = 0, frame = 0
 233              		@ frame_needed = 0, uses_anonymous_args = 0
 234              		@ link register save eliminated.
 235 0000 FEFFFFEA 		b	evt1_setup
 236              		.cfi_endproc
 237              	.LFE21:
 238              		.size	evt2_setup, .-evt2_setup
 239              		.section	.text.evt3_setup,"ax",%progbits
 240              		.align	2
 241              		.syntax unified
 242              		.arm
 243              		.fpu softvfp
 244              		.type	evt3_setup, %function
 245              	evt3_setup:
 246              	.LFB23:
 247              		.cfi_startproc
 248              		@ args = 0, pretend = 0, frame = 0
 249              		@ frame_needed = 0, uses_anonymous_args = 0
 250              		@ link register save eliminated.
 251 0000 FEFFFFEA 		b	evt1_setup
 252              		.cfi_endproc
 253              	.LFE23:
 254              		.size	evt3_setup, .-evt3_setup
 255              		.section	.text.thread2,"ax",%progbits
 256              		.align	2
 257              		.syntax unified
 258              		.arm
 259              		.fpu softvfp
 260              		.type	thread2, %function
 261              	thread2:
 262              	.LVL19:
 263              	.LFB14:
 264              		.loc 1 144 31 view -0
 265              		.cfi_startproc
 266              		@ args = 0, pretend = 0, frame = 0
 267              		@ frame_needed = 0, uses_anonymous_args = 0
 268              		.loc 1 146 3 view .LVU37
 269              		.loc 1 147 3 view .LVU38
 270              		.loc 1 144 31 is_stmt 0 view .LVU39
 271 0000 10402DE9 		push	{r4, lr}
 272              		.cfi_def_cfa_offset 8
 273              		.cfi_offset 4, -8
 274              		.cfi_offset 14, -4
 275              		.loc 1 147 3 view .LVU40
 276 0004 0010A0E3 		mov	r1, #0
 277 0008 1C009FE5 		ldr	r0, .L18
 278              	.LVL20:
 279              		.loc 1 147 3 view .LVU41
 280 000c FEFFFFEB 		bl	chEvtBroadcastFlags
 281              	.LVL21:
 282              		.loc 1 148 3 is_stmt 1 view .LVU42
 283 0010 3200A0E3 		mov	r0, #50
 284 0014 FEFFFFEB 		bl	chThdSleep
 285              	.LVL22:
ARM GAS  /tmp/ccdxa2mt.s 			page 6


 286              		.loc 1 149 3 view .LVU43
 287 0018 0010A0E3 		mov	r1, #0
 288 001c 0C009FE5 		ldr	r0, .L18+4
 289 0020 FEFFFFEB 		bl	chEvtBroadcastFlags
 290              	.LVL23:
 291              		.loc 1 150 3 view .LVU44
 292              		.loc 1 151 1 is_stmt 0 view .LVU45
 293 0024 0000A0E3 		mov	r0, #0
 294 0028 1080BDE8 		pop	{r4, pc}
 295              	.L19:
 296              		.align	2
 297              	.L18:
 298 002c 00000000 		.word	.LANCHOR0
 299 0030 00000000 		.word	.LANCHOR2
 300              		.cfi_endproc
 301              	.LFE14:
 302              		.size	thread2, .-thread2
 303              		.section	.text.thread1,"ax",%progbits
 304              		.align	2
 305              		.syntax unified
 306              		.arm
 307              		.fpu softvfp
 308              		.type	thread1, %function
 309              	thread1:
 310              	.LVL24:
 311              	.LFB13:
 312              		.loc 1 137 31 is_stmt 1 view -0
 313              		.cfi_startproc
 314              		@ args = 0, pretend = 0, frame = 0
 315              		@ frame_needed = 0, uses_anonymous_args = 0
 316              		.loc 1 139 3 view .LVU47
 317              		.loc 1 137 31 is_stmt 0 view .LVU48
 318 0000 10402DE9 		push	{r4, lr}
 319              		.cfi_def_cfa_offset 8
 320              		.cfi_offset 4, -8
 321              		.cfi_offset 14, -4
 322              		.loc 1 137 31 view .LVU49
 323 0004 0040A0E1 		mov	r4, r0
 324              		.loc 1 139 3 view .LVU50
 325 0008 3200A0E3 		mov	r0, #50
 326              	.LVL25:
 327              		.loc 1 139 3 view .LVU51
 328 000c FEFFFFEB 		bl	chThdSleep
 329              	.LVL26:
 330              		.loc 1 140 3 is_stmt 1 view .LVU52
 331 0010 0400A0E1 		mov	r0, r4
 332 0014 0110A0E3 		mov	r1, #1
 333 0018 FEFFFFEB 		bl	chEvtSignal
 334              	.LVL27:
 335              		.loc 1 141 3 view .LVU53
 336              		.loc 1 142 1 is_stmt 0 view .LVU54
 337 001c 0000A0E3 		mov	r0, #0
 338 0020 1080BDE8 		pop	{r4, pc}
 339              		.cfi_endproc
 340              	.LFE13:
 341              		.size	thread1, .-thread1
 342              		.section	.rodata.evt2_execute.str1.4,"aMS",%progbits,1
ARM GAS  /tmp/ccdxa2mt.s 			page 7


 343              		.align	2
 344              	.LC1:
 345 0000 4100     		.ascii	"A\000"
 346              		.section	.text.evt2_execute,"ax",%progbits
 347              		.align	2
 348              		.syntax unified
 349              		.arm
 350              		.fpu softvfp
 351              		.type	evt2_execute, %function
 352              	evt2_execute:
 353              	.LFB15:
 354              		.loc 1 153 32 is_stmt 1 view -0
 355              		.cfi_startproc
 356              		@ args = 0, pretend = 0, frame = 32
 357              		@ frame_needed = 0, uses_anonymous_args = 0
 358              		.loc 1 154 3 view .LVU56
 359              		.loc 1 155 3 view .LVU57
 360              		.loc 1 156 3 view .LVU58
 361              		.loc 1 161 3 view .LVU59
 362              		.loc 1 153 32 is_stmt 0 view .LVU60
 363 0000 F0432DE9 		push	{r4, r5, r6, r7, r8, r9, lr}
 364              		.cfi_def_cfa_offset 28
 365              		.cfi_offset 4, -28
 366              		.cfi_offset 5, -24
 367              		.cfi_offset 6, -20
 368              		.cfi_offset 7, -16
 369              		.cfi_offset 8, -12
 370              		.cfi_offset 9, -8
 371              		.cfi_offset 14, -4
 372              		.loc 1 161 3 view .LVU61
 373 0004 0500A0E3 		mov	r0, #5
 374              		.loc 1 153 32 view .LVU62
 375 0008 2CD04DE2 		sub	sp, sp, #44
 376              		.cfi_def_cfa_offset 72
 377              		.loc 1 161 3 view .LVU63
 378 000c FEFFFFEB 		bl	chEvtAddEvents
 379              	.LVL28:
 380              		.loc 1 162 3 is_stmt 1 view .LVU64
 381              		.loc 1 162 7 is_stmt 0 view .LVU65
 382 0010 0000E0E3 		mvn	r0, #0
 383 0014 FEFFFFEB 		bl	chEvtWaitOne
 384              	.LVL29:
 385 0018 0010A0E1 		mov	r1, r0
 386              	.LVL30:
 387              		.loc 1 163 3 is_stmt 1 view .LVU66
 388 001c 0100A0E3 		mov	r0, #1
 389              	.LVL31:
 390              		.loc 1 163 3 is_stmt 0 view .LVU67
 391 0020 001041E0 		sub	r1, r1, r0
 392              	.LVL32:
 393              		.loc 1 163 3 view .LVU68
 394 0024 111F6FE1 		clz	r1, r1
 395              	.LVL33:
 396              		.loc 1 163 3 view .LVU69
 397 0028 A112A0E1 		lsr	r1, r1, #5
 398 002c FEFFFFEB 		bl	_test_assert
 399              	.LVL34:
ARM GAS  /tmp/ccdxa2mt.s 			page 8


 400 0030 000050E3 		cmp	r0, #0
 401 0034 0100000A 		beq	.L30
 402              	.L22:
 403              		.loc 1 226 1 view .LVU70
 404 0038 2CD08DE2 		add	sp, sp, #44
 405              		.cfi_remember_state
 406              		.cfi_def_cfa_offset 28
 407              		@ sp needed
 408 003c F083BDE8 		pop	{r4, r5, r6, r7, r8, r9, pc}
 409              	.L30:
 410              		.cfi_restore_state
 411              		.loc 1 163 47 is_stmt 1 discriminator 2 view .LVU71
 412              		.loc 1 164 3 discriminator 2 view .LVU72
 413              		.loc 1 164 7 is_stmt 0 discriminator 2 view .LVU73
 414 0040 0000E0E3 		mvn	r0, #0
 415 0044 FEFFFFEB 		bl	chEvtWaitOne
 416              	.LVL35:
 417 0048 0010A0E1 		mov	r1, r0
 418              	.LVL36:
 419              		.loc 1 165 3 is_stmt 1 discriminator 2 view .LVU74
 420 004c 041041E2 		sub	r1, r1, #4
 421 0050 111F6FE1 		clz	r1, r1
 422 0054 0200A0E3 		mov	r0, #2
 423              	.LVL37:
 424              		.loc 1 165 3 is_stmt 0 discriminator 2 view .LVU75
 425 0058 A112A0E1 		lsr	r1, r1, #5
 426 005c FEFFFFEB 		bl	_test_assert
 427              	.LVL38:
 428 0060 000050E3 		cmp	r0, #0
 429 0064 F3FFFF1A 		bne	.L22
 430              		.loc 1 165 47 is_stmt 1 discriminator 2 view .LVU76
 431              		.loc 1 166 3 discriminator 2 view .LVU77
 432              		.loc 1 166 7 is_stmt 0 discriminator 2 view .LVU78
 433 0068 0000E0E3 		mvn	r0, #0
 434 006c FEFFFFEB 		bl	chEvtGetAndClearEvents
 435              	.LVL39:
 436              		.loc 1 167 3 is_stmt 1 discriminator 2 view .LVU79
 437 0070 101F6FE1 		clz	r1, r0
 438 0074 0300A0E3 		mov	r0, #3
 439              	.LVL40:
 440              		.loc 1 167 3 is_stmt 0 discriminator 2 view .LVU80
 441 0078 A112A0E1 		lsr	r1, r1, #5
 442 007c FEFFFFEB 		bl	_test_assert
 443              	.LVL41:
 444 0080 000050E3 		cmp	r0, #0
 445 0084 EBFFFF1A 		bne	.L22
 446              	.LBB4:
 447              	.LBI4:
 448              		.loc 1 153 13 is_stmt 1 view .LVU81
 449              	.LBB5:
 450              		.loc 1 167 40 view .LVU82
 451              		.loc 1 172 3 view .LVU83
 452              		.loc 1 174 50 is_stmt 0 view .LVU84
 453 0088 88829FE5 		ldr	r8, .L31
 454              		.loc 1 172 3 view .LVU85
 455 008c FEFFFFEB 		bl	test_wait_tick
 456              	.LVL42:
ARM GAS  /tmp/ccdxa2mt.s 			page 9


 457              		.loc 1 173 3 is_stmt 1 view .LVU86
 458              		.loc 1 174 50 is_stmt 0 view .LVU87
 459 0090 183098E5 		ldr	r3, [r8, #24]
 460              		.loc 1 174 16 view .LVU88
 461 0094 80129FE5 		ldr	r1, .L31+4
 462 0098 082093E5 		ldr	r2, [r3, #8]
 463 009c 007091E5 		ldr	r7, [r1]
 464              		.loc 1 173 17 view .LVU89
 465 00a0 78629FE5 		ldr	r6, .L31+8
 466              		.loc 1 174 16 view .LVU90
 467 00a4 461FA0E3 		mov	r1, #280
 468 00a8 012042E2 		sub	r2, r2, #1
 469 00ac 00308DE5 		str	r3, [sp]
 470 00b0 0700A0E1 		mov	r0, r7
 471 00b4 68329FE5 		ldr	r3, .L31+12
 472              		.loc 1 173 17 view .LVU91
 473 00b8 0C4096E5 		ldr	r4, [r6, #12]
 474              	.LVL43:
 475              		.loc 1 174 3 is_stmt 1 view .LVU92
 476              		.loc 1 174 16 is_stmt 0 view .LVU93
 477 00bc FEFFFFEB 		bl	chThdCreateStatic
 478              	.LVL44:
 479 00c0 0030A0E1 		mov	r3, r0
 480              		.loc 1 174 14 view .LVU94
 481 00c4 5C529FE5 		ldr	r5, .L31+16
 482              		.loc 1 176 7 view .LVU95
 483 00c8 0000E0E3 		mvn	r0, #0
 484              		.loc 1 174 14 view .LVU96
 485 00cc 003085E5 		str	r3, [r5]
 486              		.loc 1 176 3 is_stmt 1 view .LVU97
 487              		.loc 1 176 7 is_stmt 0 view .LVU98
 488 00d0 FEFFFFEB 		bl	chEvtWaitOne
 489              	.LVL45:
 490 00d4 0030A0E1 		mov	r3, r0
 491              		.loc 1 177 3 view .LVU99
 492 00d8 372084E2 		add	r2, r4, #55
 493 00dc 321084E2 		add	r1, r4, #50
 494              	.LVL46:
 495              		.loc 1 177 3 view .LVU100
 496 00e0 0400A0E3 		mov	r0, #4
 497              		.loc 1 176 7 view .LVU101
 498 00e4 0340A0E1 		mov	r4, r3
 499              	.LVL47:
 500              		.loc 1 177 3 is_stmt 1 view .LVU102
 501 00e8 FEFFFFEB 		bl	_test_assert_time_window
 502              	.LVL48:
 503              		.loc 1 177 3 is_stmt 0 view .LVU103
 504 00ec 000050E3 		cmp	r0, #0
 505 00f0 D0FFFF1A 		bne	.L22
 506              		.loc 1 177 71 is_stmt 1 view .LVU104
 507              		.loc 1 178 3 view .LVU105
 508 00f4 011044E2 		sub	r1, r4, #1
 509 00f8 111F6FE1 		clz	r1, r1
 510 00fc 0500A0E3 		mov	r0, #5
 511 0100 A112A0E1 		lsr	r1, r1, #5
 512 0104 FEFFFFEB 		bl	_test_assert
 513              	.LVL49:
ARM GAS  /tmp/ccdxa2mt.s 			page 10


 514 0108 000050E3 		cmp	r0, #0
 515 010c C9FFFF1A 		bne	.L22
 516              		.loc 1 178 47 view .LVU106
 517              		.loc 1 179 3 view .LVU107
 518              		.loc 1 179 7 is_stmt 0 view .LVU108
 519 0110 0000E0E3 		mvn	r0, #0
 520 0114 FEFFFFEB 		bl	chEvtGetAndClearEvents
 521              	.LVL50:
 522              		.loc 1 180 3 is_stmt 1 view .LVU109
 523 0118 101F6FE1 		clz	r1, r0
 524 011c 0600A0E3 		mov	r0, #6
 525              	.LVL51:
 526              		.loc 1 180 3 is_stmt 0 view .LVU110
 527 0120 A112A0E1 		lsr	r1, r1, #5
 528 0124 FEFFFFEB 		bl	_test_assert
 529              	.LVL52:
 530 0128 000050E3 		cmp	r0, #0
 531 012c C1FFFF1A 		bne	.L22
 532              		.loc 1 180 40 is_stmt 1 view .LVU111
 533              		.loc 1 181 3 view .LVU112
 534 0130 FEFFFFEB 		bl	test_wait_threads
 535              	.LVL53:
 536              		.loc 1 186 3 view .LVU113
 537 0134 0500A0E3 		mov	r0, #5
 538 0138 FEFFFFEB 		bl	chEvtAddEvents
 539              	.LVL54:
 540              		.loc 1 187 3 view .LVU114
 541              		.loc 1 187 7 is_stmt 0 view .LVU115
 542 013c 0000E0E3 		mvn	r0, #0
 543 0140 FEFFFFEB 		bl	chEvtWaitAny
 544              	.LVL55:
 545 0144 0010A0E1 		mov	r1, r0
 546              	.LVL56:
 547              		.loc 1 188 3 is_stmt 1 view .LVU116
 548 0148 051041E2 		sub	r1, r1, #5
 549 014c 111F6FE1 		clz	r1, r1
 550 0150 0700A0E3 		mov	r0, #7
 551              	.LVL57:
 552              		.loc 1 188 3 is_stmt 0 view .LVU117
 553 0154 A112A0E1 		lsr	r1, r1, #5
 554 0158 FEFFFFEB 		bl	_test_assert
 555              	.LVL58:
 556 015c 000050E3 		cmp	r0, #0
 557 0160 B4FFFF1A 		bne	.L22
 558              		.loc 1 188 51 is_stmt 1 view .LVU118
 559              		.loc 1 189 3 view .LVU119
 560              		.loc 1 189 7 is_stmt 0 view .LVU120
 561 0164 0000E0E3 		mvn	r0, #0
 562 0168 FEFFFFEB 		bl	chEvtGetAndClearEvents
 563              	.LVL59:
 564              		.loc 1 190 3 is_stmt 1 view .LVU121
 565 016c 101F6FE1 		clz	r1, r0
 566 0170 0800A0E3 		mov	r0, #8
 567              	.LVL60:
 568              		.loc 1 190 3 is_stmt 0 view .LVU122
 569 0174 A112A0E1 		lsr	r1, r1, #5
 570 0178 FEFFFFEB 		bl	_test_assert
ARM GAS  /tmp/ccdxa2mt.s 			page 11


 571              	.LVL61:
 572 017c 000050E3 		cmp	r0, #0
 573 0180 ACFFFF1A 		bne	.L22
 574              		.loc 1 190 40 is_stmt 1 view .LVU123
 575              		.loc 1 195 3 view .LVU124
 576 0184 FEFFFFEB 		bl	test_wait_tick
 577              	.LVL62:
 578              		.loc 1 196 3 view .LVU125
 579              		.loc 1 197 50 is_stmt 0 view .LVU126
 580 0188 180098E5 		ldr	r0, [r8, #24]
 581              		.loc 1 197 16 view .LVU127
 582 018c 461FA0E3 		mov	r1, #280
 583 0190 082090E5 		ldr	r2, [r0, #8]
 584 0194 88319FE5 		ldr	r3, .L31+12
 585 0198 012042E2 		sub	r2, r2, #1
 586 019c 00008DE5 		str	r0, [sp]
 587 01a0 0700A0E1 		mov	r0, r7
 588              		.loc 1 196 17 view .LVU128
 589 01a4 0C4096E5 		ldr	r4, [r6, #12]
 590              	.LVL63:
 591              		.loc 1 197 3 is_stmt 1 view .LVU129
 592              		.loc 1 197 16 is_stmt 0 view .LVU130
 593 01a8 FEFFFFEB 		bl	chThdCreateStatic
 594              	.LVL64:
 595 01ac 0030A0E1 		mov	r3, r0
 596              		.loc 1 199 7 view .LVU131
 597 01b0 0000E0E3 		mvn	r0, #0
 598              		.loc 1 197 14 view .LVU132
 599 01b4 003085E5 		str	r3, [r5]
 600              		.loc 1 199 3 is_stmt 1 view .LVU133
 601              		.loc 1 199 7 is_stmt 0 view .LVU134
 602 01b8 FEFFFFEB 		bl	chEvtWaitAny
 603              	.LVL65:
 604 01bc 0030A0E1 		mov	r3, r0
 605              		.loc 1 200 3 view .LVU135
 606 01c0 372084E2 		add	r2, r4, #55
 607 01c4 321084E2 		add	r1, r4, #50
 608              	.LVL66:
 609              		.loc 1 200 3 view .LVU136
 610 01c8 0900A0E3 		mov	r0, #9
 611              		.loc 1 199 7 view .LVU137
 612 01cc 0340A0E1 		mov	r4, r3
 613              	.LVL67:
 614              		.loc 1 200 3 is_stmt 1 view .LVU138
 615 01d0 FEFFFFEB 		bl	_test_assert_time_window
 616              	.LVL68:
 617              		.loc 1 200 3 is_stmt 0 view .LVU139
 618 01d4 000050E3 		cmp	r0, #0
 619 01d8 96FFFF1A 		bne	.L22
 620              		.loc 1 200 71 is_stmt 1 view .LVU140
 621              		.loc 1 201 3 view .LVU141
 622 01dc 011044E2 		sub	r1, r4, #1
 623 01e0 111F6FE1 		clz	r1, r1
 624 01e4 0A00A0E3 		mov	r0, #10
 625 01e8 A112A0E1 		lsr	r1, r1, #5
 626 01ec FEFFFFEB 		bl	_test_assert
 627              	.LVL69:
ARM GAS  /tmp/ccdxa2mt.s 			page 12


 628 01f0 000050E3 		cmp	r0, #0
 629 01f4 8FFFFF1A 		bne	.L22
 630              		.loc 1 201 48 view .LVU142
 631              		.loc 1 202 3 view .LVU143
 632              		.loc 1 202 7 is_stmt 0 view .LVU144
 633 01f8 0000E0E3 		mvn	r0, #0
 634 01fc FEFFFFEB 		bl	chEvtGetAndClearEvents
 635              	.LVL70:
 636              		.loc 1 203 3 is_stmt 1 view .LVU145
 637 0200 101F6FE1 		clz	r1, r0
 638 0204 0B00A0E3 		mov	r0, #11
 639              	.LVL71:
 640              		.loc 1 203 3 is_stmt 0 view .LVU146
 641 0208 A112A0E1 		lsr	r1, r1, #5
 642 020c FEFFFFEB 		bl	_test_assert
 643              	.LVL72:
 644 0210 000050E3 		cmp	r0, #0
 645 0214 87FFFF1A 		bne	.L22
 646              		.loc 1 203 41 is_stmt 1 view .LVU147
 647              		.loc 1 204 3 view .LVU148
 648              		.loc 1 209 3 is_stmt 0 view .LVU149
 649 0218 0C919FE5 		ldr	r9, .L31+20
 650              		.loc 1 210 3 view .LVU150
 651 021c 0C419FE5 		ldr	r4, .L31+24
 652              		.loc 1 204 3 view .LVU151
 653 0220 FEFFFFEB 		bl	test_wait_threads
 654              	.LVL73:
 655              		.loc 1 209 3 is_stmt 1 view .LVU152
 656              		.loc 1 211 3 is_stmt 0 view .LVU153
 657 0224 0900A0E1 		mov	r0, r9
 658 0228 0120A0E3 		mov	r2, #1
 659 022c 08108DE2 		add	r1, sp, #8
 660              		.loc 1 209 3 view .LVU154
 661 0230 009089E5 		str	r9, [r9]
 662              		.loc 1 210 3 is_stmt 1 view .LVU155
 663 0234 004084E5 		str	r4, [r4]
 664              		.loc 1 211 3 view .LVU156
 665 0238 FEFFFFEB 		bl	chEvtRegisterMask
 666              	.LVL74:
 667              		.loc 1 212 3 view .LVU157
 668 023c 0420A0E3 		mov	r2, #4
 669 0240 18108DE2 		add	r1, sp, #24
 670 0244 0400A0E1 		mov	r0, r4
 671 0248 FEFFFFEB 		bl	chEvtRegisterMask
 672              	.LVL75:
 673              		.loc 1 213 3 view .LVU158
 674 024c FEFFFFEB 		bl	test_wait_tick
 675              	.LVL76:
 676              		.loc 1 214 3 view .LVU159
 677              		.loc 1 215 50 is_stmt 0 view .LVU160
 678 0250 182098E5 		ldr	r2, [r8, #24]
 679              		.loc 1 215 16 view .LVU161
 680 0254 D8309FE5 		ldr	r3, .L31+28
 681 0258 082092E5 		ldr	r2, [r2, #8]
 682 025c 461FA0E3 		mov	r1, #280
 683 0260 012042E2 		sub	r2, r2, #1
 684 0264 00308DE5 		str	r3, [sp]
ARM GAS  /tmp/ccdxa2mt.s 			page 13


 685 0268 0700A0E1 		mov	r0, r7
 686 026c C4309FE5 		ldr	r3, .L31+32
 687              		.loc 1 214 17 view .LVU162
 688 0270 0C6096E5 		ldr	r6, [r6, #12]
 689              	.LVL77:
 690              		.loc 1 215 3 is_stmt 1 view .LVU163
 691              		.loc 1 215 16 is_stmt 0 view .LVU164
 692 0274 FEFFFFEB 		bl	chThdCreateStatic
 693              	.LVL78:
 694 0278 0030A0E1 		mov	r3, r0
 695              		.loc 1 217 7 view .LVU165
 696 027c 0500A0E3 		mov	r0, #5
 697              		.loc 1 215 14 view .LVU166
 698 0280 003085E5 		str	r3, [r5]
 699              		.loc 1 217 3 is_stmt 1 view .LVU167
 700              		.loc 1 217 7 is_stmt 0 view .LVU168
 701 0284 FEFFFFEB 		bl	chEvtWaitAll
 702              	.LVL79:
 703              		.loc 1 218 3 is_stmt 1 view .LVU169
 704 0288 0C00A0E3 		mov	r0, #12
 705 028c 372086E2 		add	r2, r6, #55
 706 0290 321086E2 		add	r1, r6, #50
 707              	.LVL80:
 708              		.loc 1 218 3 is_stmt 0 view .LVU170
 709 0294 FEFFFFEB 		bl	_test_assert_time_window
 710              	.LVL81:
 711              		.loc 1 218 3 view .LVU171
 712 0298 000050E3 		cmp	r0, #0
 713 029c 65FFFF1A 		bne	.L22
 714              		.loc 1 218 72 is_stmt 1 view .LVU172
 715              		.loc 1 219 3 view .LVU173
 716              		.loc 1 219 7 is_stmt 0 view .LVU174
 717 02a0 0000E0E3 		mvn	r0, #0
 718 02a4 FEFFFFEB 		bl	chEvtGetAndClearEvents
 719              	.LVL82:
 720              		.loc 1 220 3 is_stmt 1 view .LVU175
 721 02a8 101F6FE1 		clz	r1, r0
 722 02ac 0D00A0E3 		mov	r0, #13
 723              	.LVL83:
 724              		.loc 1 220 3 is_stmt 0 view .LVU176
 725 02b0 A112A0E1 		lsr	r1, r1, #5
 726 02b4 FEFFFFEB 		bl	_test_assert
 727              	.LVL84:
 728 02b8 000050E3 		cmp	r0, #0
 729 02bc 5DFFFF1A 		bne	.L22
 730              		.loc 1 220 41 is_stmt 1 view .LVU177
 731              		.loc 1 221 3 view .LVU178
 732 02c0 FEFFFFEB 		bl	test_wait_threads
 733              	.LVL85:
 734              		.loc 1 222 3 view .LVU179
 735 02c4 0900A0E1 		mov	r0, r9
 736 02c8 08108DE2 		add	r1, sp, #8
 737 02cc FEFFFFEB 		bl	chEvtUnregister
 738              	.LVL86:
 739              		.loc 1 223 3 view .LVU180
 740 02d0 0400A0E1 		mov	r0, r4
 741 02d4 18108DE2 		add	r1, sp, #24
ARM GAS  /tmp/ccdxa2mt.s 			page 14


 742 02d8 FEFFFFEB 		bl	chEvtUnregister
 743              	.LVL87:
 744              		.loc 1 224 3 view .LVU181
 745 02dc 001099E5 		ldr	r1, [r9]
 746 02e0 0E00A0E3 		mov	r0, #14
 747 02e4 091041E0 		sub	r1, r1, r9
 748 02e8 111F6FE1 		clz	r1, r1
 749 02ec A112A0E1 		lsr	r1, r1, #5
 750 02f0 FEFFFFEB 		bl	_test_assert
 751              	.LVL88:
 752 02f4 000050E3 		cmp	r0, #0
 753 02f8 4EFFFF1A 		bne	.L22
 754              		.loc 1 224 62 view .LVU182
 755              		.loc 1 225 3 view .LVU183
 756 02fc 001094E5 		ldr	r1, [r4]
 757 0300 0F00A0E3 		mov	r0, #15
 758 0304 041041E0 		sub	r1, r1, r4
 759 0308 111F6FE1 		clz	r1, r1
 760 030c A112A0E1 		lsr	r1, r1, #5
 761 0310 FEFFFFEB 		bl	_test_assert
 762              	.LVL89:
 763              		.loc 1 225 3 view .LVU184
 764              		.loc 1 225 3 is_stmt 0 view .LVU185
 765 0314 47FFFFEA 		b	.L22
 766              	.L32:
 767              		.align	2
 768              	.L31:
 769 0318 00000000 		.word	rlist
 770 031c 00000000 		.word	wa
 771 0320 00000000 		.word	vtlist
 772 0324 00000000 		.word	thread1
 773 0328 00000000 		.word	threads
 774 032c 00000000 		.word	.LANCHOR0
 775 0330 00000000 		.word	.LANCHOR2
 776 0334 00000000 		.word	.LC1
 777 0338 00000000 		.word	thread2
 778              	.LBE5:
 779              	.LBE4:
 780              		.cfi_endproc
 781              	.LFE15:
 782              		.size	evt2_execute, .-evt2_execute
 783              		.section	.text.evt3_execute,"ax",%progbits
 784              		.align	2
 785              		.syntax unified
 786              		.arm
 787              		.fpu softvfp
 788              		.type	evt3_execute, %function
 789              	evt3_execute:
 790              	.LFB17:
 791              		.loc 1 256 32 is_stmt 1 view -0
 792              		.cfi_startproc
 793              		@ args = 0, pretend = 0, frame = 0
 794              		@ frame_needed = 0, uses_anonymous_args = 0
 795              		.loc 1 257 3 view .LVU187
 796              		.loc 1 262 3 view .LVU188
 797              		.loc 1 262 7 is_stmt 0 view .LVU189
 798 0000 0010A0E3 		mov	r1, #0
ARM GAS  /tmp/ccdxa2mt.s 			page 15


 799              		.loc 1 256 32 view .LVU190
 800 0004 10402DE9 		push	{r4, lr}
 801              		.cfi_def_cfa_offset 8
 802              		.cfi_offset 4, -8
 803              		.cfi_offset 14, -4
 804              		.loc 1 262 7 view .LVU191
 805 0008 0000E0E3 		mvn	r0, #0
 806 000c FEFFFFEB 		bl	chEvtWaitOneTimeout
 807              	.LVL90:
 808              		.loc 1 263 3 is_stmt 1 view .LVU192
 809 0010 101F6FE1 		clz	r1, r0
 810 0014 0100A0E3 		mov	r0, #1
 811              	.LVL91:
 812              		.loc 1 263 3 is_stmt 0 view .LVU193
 813 0018 A112A0E1 		lsr	r1, r1, #5
 814 001c FEFFFFEB 		bl	_test_assert
 815              	.LVL92:
 816 0020 001050E2 		subs	r1, r0, #0
 817 0024 1080BD18 		popne	{r4, pc}
 818              		.loc 1 263 43 is_stmt 1 discriminator 2 view .LVU194
 819              		.loc 1 264 3 discriminator 2 view .LVU195
 820              		.loc 1 264 7 is_stmt 0 discriminator 2 view .LVU196
 821 0028 0000E0E3 		mvn	r0, #0
 822 002c FEFFFFEB 		bl	chEvtWaitAnyTimeout
 823              	.LVL93:
 824              		.loc 1 265 3 is_stmt 1 discriminator 2 view .LVU197
 825 0030 101F6FE1 		clz	r1, r0
 826 0034 0200A0E3 		mov	r0, #2
 827              	.LVL94:
 828              		.loc 1 265 3 is_stmt 0 discriminator 2 view .LVU198
 829 0038 A112A0E1 		lsr	r1, r1, #5
 830 003c FEFFFFEB 		bl	_test_assert
 831              	.LVL95:
 832 0040 001050E2 		subs	r1, r0, #0
 833 0044 1080BD18 		popne	{r4, pc}
 834              		.loc 1 265 43 is_stmt 1 discriminator 2 view .LVU199
 835              		.loc 1 266 3 discriminator 2 view .LVU200
 836              		.loc 1 266 7 is_stmt 0 discriminator 2 view .LVU201
 837 0048 0000E0E3 		mvn	r0, #0
 838 004c FEFFFFEB 		bl	chEvtWaitAllTimeout
 839              	.LVL96:
 840              		.loc 1 267 3 is_stmt 1 discriminator 2 view .LVU202
 841 0050 101F6FE1 		clz	r1, r0
 842 0054 0300A0E3 		mov	r0, #3
 843              	.LVL97:
 844              		.loc 1 267 3 is_stmt 0 discriminator 2 view .LVU203
 845 0058 A112A0E1 		lsr	r1, r1, #5
 846 005c FEFFFFEB 		bl	_test_assert
 847              	.LVL98:
 848 0060 000050E3 		cmp	r0, #0
 849 0064 1080BD18 		popne	{r4, pc}
 850              	.LBB8:
 851              	.LBI8:
 852              		.loc 1 256 13 is_stmt 1 view .LVU204
 853              	.LBB9:
 854              		.loc 1 267 43 view .LVU205
 855              		.loc 1 268 3 view .LVU206
ARM GAS  /tmp/ccdxa2mt.s 			page 16


 856              		.loc 1 268 7 is_stmt 0 view .LVU207
 857 0068 0A10A0E3 		mov	r1, #10
 858 006c 0000E0E3 		mvn	r0, #0
 859 0070 FEFFFFEB 		bl	chEvtWaitOneTimeout
 860              	.LVL99:
 861              		.loc 1 269 3 is_stmt 1 view .LVU208
 862 0074 101F6FE1 		clz	r1, r0
 863 0078 0400A0E3 		mov	r0, #4
 864              	.LVL100:
 865              		.loc 1 269 3 is_stmt 0 view .LVU209
 866 007c A112A0E1 		lsr	r1, r1, #5
 867 0080 FEFFFFEB 		bl	_test_assert
 868              	.LVL101:
 869 0084 000050E3 		cmp	r0, #0
 870 0088 1080BD18 		popne	{r4, pc}
 871              		.loc 1 269 43 is_stmt 1 view .LVU210
 872              		.loc 1 270 3 view .LVU211
 873              		.loc 1 270 7 is_stmt 0 view .LVU212
 874 008c 0A10A0E3 		mov	r1, #10
 875 0090 0000E0E3 		mvn	r0, #0
 876 0094 FEFFFFEB 		bl	chEvtWaitAnyTimeout
 877              	.LVL102:
 878              		.loc 1 271 3 is_stmt 1 view .LVU213
 879 0098 101F6FE1 		clz	r1, r0
 880 009c 0500A0E3 		mov	r0, #5
 881              	.LVL103:
 882              		.loc 1 271 3 is_stmt 0 view .LVU214
 883 00a0 3110A0E1 		lsr	r1, r1, r0
 884 00a4 FEFFFFEB 		bl	_test_assert
 885              	.LVL104:
 886 00a8 000050E3 		cmp	r0, #0
 887 00ac 1080BD18 		popne	{r4, pc}
 888              		.loc 1 271 43 is_stmt 1 view .LVU215
 889              		.loc 1 272 3 view .LVU216
 890              		.loc 1 272 7 is_stmt 0 view .LVU217
 891 00b0 0A10A0E3 		mov	r1, #10
 892 00b4 0000E0E3 		mvn	r0, #0
 893 00b8 FEFFFFEB 		bl	chEvtWaitAllTimeout
 894              	.LVL105:
 895              		.loc 1 273 3 is_stmt 1 view .LVU218
 896              	.LBE9:
 897              	.LBE8:
 898              		.loc 1 274 1 is_stmt 0 view .LVU219
 899 00bc 1040BDE8 		pop	{r4, lr}
 900              		.cfi_restore 14
 901              		.cfi_restore 4
 902              		.cfi_def_cfa_offset 0
 903              	.LBB11:
 904              	.LBB10:
 905              		.loc 1 273 3 view .LVU220
 906 00c0 101F6FE1 		clz	r1, r0
 907 00c4 0600A0E3 		mov	r0, #6
 908              	.LVL106:
 909              		.loc 1 273 3 view .LVU221
 910 00c8 A112A0E1 		lsr	r1, r1, #5
 911 00cc FEFFFFEA 		b	_test_assert
 912              	.LVL107:
ARM GAS  /tmp/ccdxa2mt.s 			page 17


 913              	.LBE10:
 914              	.LBE11:
 915              		.cfi_endproc
 916              	.LFE17:
 917              		.size	evt3_execute, .-evt3_execute
 918              		.global	patternevt
 919              		.global	testevt3
 920              		.section	.rodata.str1.4,"aMS",%progbits,1
 921              		.align	2
 922              	.LC2:
 923 0000 4576656E 		.ascii	"Events, timeouts\000"
 923      74732C20 
 923      74696D65 
 923      6F757473 
 923      00
 924              		.global	testevt2
 925 0011 000000   		.align	2
 926              	.LC3:
 927 0014 4576656E 		.ascii	"Events, wait and broadcast\000"
 927      74732C20 
 927      77616974 
 927      20616E64 
 927      2062726F 
 928              		.global	testevt1
 929 002f 00       		.align	2
 930              	.LC4:
 931 0030 4576656E 		.ascii	"Events, registration and dispatch\000"
 931      74732C20 
 931      72656769 
 931      73747261 
 931      74696F6E 
 932              		.section	.data.es1,"aw"
 933              		.align	2
 934              		.set	.LANCHOR0,. + 0
 935              		.type	es1, %object
 936              		.size	es1, 4
 937              	es1:
 938 0000 00000000 		.word	es1
 939              		.section	.data.es2,"aw"
 940              		.align	2
 941              		.set	.LANCHOR2,. + 0
 942              		.type	es2, %object
 943              		.size	es2, 4
 944              	es2:
 945 0000 00000000 		.word	es2
 946              		.section	.rodata.evhndl,"a"
 947              		.align	2
 948              		.set	.LANCHOR1,. + 0
 949              		.type	evhndl, %object
 950              		.size	evhndl, 12
 951              	evhndl:
 952 0000 00000000 		.word	h1
 953 0004 00000000 		.word	h2
 954 0008 00000000 		.word	h3
 955              		.section	.rodata.patternevt,"a"
 956              		.align	2
 957              		.type	patternevt, %object
ARM GAS  /tmp/ccdxa2mt.s 			page 18


 958              		.size	patternevt, 16
 959              	patternevt:
 960 0000 00000000 		.word	testevt1
 961 0004 00000000 		.word	testevt2
 962 0008 00000000 		.word	testevt3
 963 000c 00000000 		.word	0
 964              		.section	.rodata.testevt1,"a"
 965              		.align	2
 966              		.type	testevt1, %object
 967              		.size	testevt1, 16
 968              	testevt1:
 969 0000 30000000 		.word	.LC4
 970 0004 00000000 		.word	evt1_setup
 971 0008 00000000 		.word	0
 972 000c 00000000 		.word	evt1_execute
 973              		.section	.rodata.testevt2,"a"
 974              		.align	2
 975              		.type	testevt2, %object
 976              		.size	testevt2, 16
 977              	testevt2:
 978 0000 14000000 		.word	.LC3
 979 0004 00000000 		.word	evt2_setup
 980 0008 00000000 		.word	0
 981 000c 00000000 		.word	evt2_execute
 982              		.section	.rodata.testevt3,"a"
 983              		.align	2
 984              		.type	testevt3, %object
 985              		.size	testevt3, 16
 986              	testevt3:
 987 0000 00000000 		.word	.LC2
 988 0004 00000000 		.word	evt3_setup
 989 0008 00000000 		.word	0
 990 000c 00000000 		.word	evt3_execute
 991              		.text
 992              	.Letext0:
 993              		.file 2 "/usr/lib/gcc/arm-none-eabi/9.2.1/include/stdint.h"
 994              		.file 3 "../os/ports/GCC/ARM/chtypes.h"
 995              		.file 4 "../os/kernel/include/chlists.h"
 996              		.file 5 "../os/kernel/include/chthreads.h"
 997              		.file 6 "../os/ports/GCC/ARM/chcore.h"
 998              		.file 7 "../os/kernel/include/chvt.h"
 999              		.file 8 "../os/kernel/include/chschd.h"
 1000              		.file 9 "../os/kernel/include/chmtx.h"
 1001              		.file 10 "../os/kernel/include/chevents.h"
 1002              		.file 11 "../os/kernel/include/chregistry.h"
 1003              		.file 12 "../os/kernel/include/ch.h"
 1004              		.file 13 "../test/test.h"