ARM GAS  /tmp/ccxUSUMi.s 			page 1


   1              		.cpu arm1176jz-s
   2              		.eabi_attribute 20, 1
   3              		.eabi_attribute 21, 1
   4              		.eabi_attribute 23, 3
   5              		.eabi_attribute 24, 1
   6              		.eabi_attribute 25, 1
   7              		.eabi_attribute 26, 1
   8              		.eabi_attribute 30, 2
   9              		.eabi_attribute 34, 1
  10              		.eabi_attribute 18, 4
  11              		.file	"testsem.c"
  12              		.text
  13              	.Ltext0:
  14              		.cfi_sections	.debug_frame
  15              		.section	.rodata.sem1_execute.str1.4,"aMS",%progbits,1
  16              		.align	2
  17              	.LC0:
  18 0000 4100     		.ascii	"A\000"
  19 0002 0000     		.align	2
  20              	.LC1:
  21 0004 4200     		.ascii	"B\000"
  22 0006 0000     		.align	2
  23              	.LC2:
  24 0008 4300     		.ascii	"C\000"
  25 000a 0000     		.align	2
  26              	.LC3:
  27 000c 4400     		.ascii	"D\000"
  28 000e 0000     		.align	2
  29              	.LC4:
  30 0010 4500     		.ascii	"E\000"
  31 0012 0000     		.align	2
  32              	.LC5:
  33 0014 41424344 		.ascii	"ABCDE\000"
  33      4500
  34              		.section	.text.sem1_execute,"ax",%progbits
  35              		.align	2
  36              		.arch armv6kz
  37              		.syntax unified
  38              		.arm
  39              		.fpu softvfp
  40              		.type	sem1_execute, %function
  41              	sem1_execute:
  42              	.LFB9:
  43              		.file 1 "../test/testsem.c"
  44              		.loc 1 88 32 view -0
  45              		.cfi_startproc
  46              		@ args = 0, pretend = 0, frame = 0
  47              		@ frame_needed = 0, uses_anonymous_args = 0
  48              		.loc 1 90 3 view .LVU1
  49              		.loc 1 88 32 is_stmt 0 view .LVU2
  50 0000 F0412DE9 		push	{r4, r5, r6, r7, r8, lr}
  51              		.cfi_def_cfa_offset 24
  52              		.cfi_offset 4, -24
  53              		.cfi_offset 5, -20
  54              		.cfi_offset 6, -16
  55              		.cfi_offset 7, -12
  56              		.cfi_offset 8, -8
ARM GAS  /tmp/ccxUSUMi.s 			page 2


  57              		.cfi_offset 14, -4
  58              		.loc 1 90 50 view .LVU3
  59 0004 8C619FE5 		ldr	r6, .L6
  60              		.loc 1 90 16 view .LVU4
  61 0008 8C419FE5 		ldr	r4, .L6+4
  62              		.loc 1 90 50 view .LVU5
  63 000c 183096E5 		ldr	r3, [r6, #24]
  64              		.loc 1 90 16 view .LVU6
  65 0010 008094E5 		ldr	r8, [r4]
  66 0014 082093E5 		ldr	r2, [r3, #8]
  67 0018 80719FE5 		ldr	r7, .L6+8
  68              		.loc 1 88 32 view .LVU7
  69 001c 08D04DE2 		sub	sp, sp, #8
  70              		.cfi_def_cfa_offset 32
  71              		.loc 1 90 16 view .LVU8
  72 0020 461FA0E3 		mov	r1, #280
  73 0024 78319FE5 		ldr	r3, .L6+12
  74 0028 052082E2 		add	r2, r2, #5
  75 002c 0800A0E1 		mov	r0, r8
  76 0030 00708DE5 		str	r7, [sp]
  77 0034 FEFFFFEB 		bl	chThdCreateStatic
  78              	.LVL0:
  79 0038 00C0A0E1 		mov	ip, r0
  80              		.loc 1 91 50 view .LVU9
  81 003c 182096E5 		ldr	r2, [r6, #24]
  82              		.loc 1 91 16 view .LVU10
  83 0040 60319FE5 		ldr	r3, .L6+16
  84 0044 082092E5 		ldr	r2, [r2, #8]
  85              		.loc 1 90 14 view .LVU11
  86 0048 5C519FE5 		ldr	r5, .L6+20
  87              		.loc 1 91 16 view .LVU12
  88 004c 461FA0E3 		mov	r1, #280
  89 0050 040094E5 		ldr	r0, [r4, #4]
  90 0054 012082E2 		add	r2, r2, #1
  91 0058 00308DE5 		str	r3, [sp]
  92 005c 40319FE5 		ldr	r3, .L6+12
  93              		.loc 1 90 14 view .LVU13
  94 0060 00C085E5 		str	ip, [r5]
  95              		.loc 1 91 3 is_stmt 1 view .LVU14
  96              		.loc 1 91 16 is_stmt 0 view .LVU15
  97 0064 FEFFFFEB 		bl	chThdCreateStatic
  98              	.LVL1:
  99 0068 00C0A0E1 		mov	ip, r0
 100              		.loc 1 92 50 view .LVU16
 101 006c 182096E5 		ldr	r2, [r6, #24]
 102              		.loc 1 92 16 view .LVU17
 103 0070 38319FE5 		ldr	r3, .L6+24
 104 0074 082092E5 		ldr	r2, [r2, #8]
 105 0078 461FA0E3 		mov	r1, #280
 106 007c 080094E5 		ldr	r0, [r4, #8]
 107 0080 032082E2 		add	r2, r2, #3
 108 0084 00308DE5 		str	r3, [sp]
 109 0088 14319FE5 		ldr	r3, .L6+12
 110              		.loc 1 91 14 view .LVU18
 111 008c 04C085E5 		str	ip, [r5, #4]
 112              		.loc 1 92 3 is_stmt 1 view .LVU19
 113              		.loc 1 92 16 is_stmt 0 view .LVU20
ARM GAS  /tmp/ccxUSUMi.s 			page 3


 114 0090 FEFFFFEB 		bl	chThdCreateStatic
 115              	.LVL2:
 116 0094 00C0A0E1 		mov	ip, r0
 117              		.loc 1 93 50 view .LVU21
 118 0098 182096E5 		ldr	r2, [r6, #24]
 119              		.loc 1 93 16 view .LVU22
 120 009c 10319FE5 		ldr	r3, .L6+28
 121 00a0 082092E5 		ldr	r2, [r2, #8]
 122 00a4 461FA0E3 		mov	r1, #280
 123 00a8 0C0094E5 		ldr	r0, [r4, #12]
 124 00ac 042082E2 		add	r2, r2, #4
 125 00b0 00308DE5 		str	r3, [sp]
 126 00b4 E8309FE5 		ldr	r3, .L6+12
 127              		.loc 1 92 14 view .LVU23
 128 00b8 08C085E5 		str	ip, [r5, #8]
 129              		.loc 1 93 3 is_stmt 1 view .LVU24
 130              		.loc 1 93 16 is_stmt 0 view .LVU25
 131 00bc FEFFFFEB 		bl	chThdCreateStatic
 132              	.LVL3:
 133 00c0 00C0A0E1 		mov	ip, r0
 134              		.loc 1 94 50 view .LVU26
 135 00c4 182096E5 		ldr	r2, [r6, #24]
 136              		.loc 1 94 16 view .LVU27
 137 00c8 E8309FE5 		ldr	r3, .L6+32
 138 00cc 082092E5 		ldr	r2, [r2, #8]
 139 00d0 461FA0E3 		mov	r1, #280
 140 00d4 022082E2 		add	r2, r2, #2
 141 00d8 100094E5 		ldr	r0, [r4, #16]
 142 00dc 00308DE5 		str	r3, [sp]
 143 00e0 BC309FE5 		ldr	r3, .L6+12
 144              		.loc 1 93 14 view .LVU28
 145 00e4 0CC085E5 		str	ip, [r5, #12]
 146              		.loc 1 94 3 is_stmt 1 view .LVU29
 147              		.loc 1 94 16 is_stmt 0 view .LVU30
 148 00e8 FEFFFFEB 		bl	chThdCreateStatic
 149              	.LVL4:
 150              		.loc 1 95 3 view .LVU31
 151 00ec C8409FE5 		ldr	r4, .L6+36
 152              		.loc 1 94 14 view .LVU32
 153 00f0 100085E5 		str	r0, [r5, #16]
 154              		.loc 1 95 3 is_stmt 1 view .LVU33
 155 00f4 0400A0E1 		mov	r0, r4
 156 00f8 FEFFFFEB 		bl	chSemSignal
 157              	.LVL5:
 158              		.loc 1 96 3 view .LVU34
 159 00fc 0400A0E1 		mov	r0, r4
 160 0100 FEFFFFEB 		bl	chSemSignal
 161              	.LVL6:
 162              		.loc 1 97 3 view .LVU35
 163 0104 0400A0E1 		mov	r0, r4
 164 0108 FEFFFFEB 		bl	chSemSignal
 165              	.LVL7:
 166              		.loc 1 98 3 view .LVU36
 167 010c 0400A0E1 		mov	r0, r4
 168 0110 FEFFFFEB 		bl	chSemSignal
 169              	.LVL8:
 170              		.loc 1 99 3 view .LVU37
ARM GAS  /tmp/ccxUSUMi.s 			page 4


 171 0114 0400A0E1 		mov	r0, r4
 172 0118 FEFFFFEB 		bl	chSemSignal
 173              	.LVL9:
 174              		.loc 1 100 3 view .LVU38
 175 011c FEFFFFEB 		bl	test_wait_threads
 176              	.LVL10:
 177              		.loc 1 104 3 view .LVU39
 178 0120 0100A0E3 		mov	r0, #1
 179 0124 94109FE5 		ldr	r1, .L6+40
 180 0128 FEFFFFEB 		bl	_test_assert_sequence
 181              	.LVL11:
 182 012c 000050E3 		cmp	r0, #0
 183 0130 0100000A 		beq	.L5
 184              		.loc 1 112 1 is_stmt 0 view .LVU40
 185 0134 08D08DE2 		add	sp, sp, #8
 186              		.cfi_remember_state
 187              		.cfi_def_cfa_offset 24
 188              		@ sp needed
 189 0138 F081BDE8 		pop	{r4, r5, r6, r7, r8, pc}
 190              	.L5:
 191              		.cfi_restore_state
 192              		.loc 1 104 35 is_stmt 1 discriminator 2 view .LVU41
 193              		.loc 1 106 3 discriminator 2 view .LVU42
 194              		.loc 1 106 50 is_stmt 0 discriminator 2 view .LVU43
 195 013c 183096E5 		ldr	r3, [r6, #24]
 196              		.loc 1 106 16 discriminator 2 view .LVU44
 197 0140 0800A0E1 		mov	r0, r8
 198 0144 082093E5 		ldr	r2, [r3, #8]
 199 0148 461FA0E3 		mov	r1, #280
 200 014c 50309FE5 		ldr	r3, .L6+12
 201 0150 052082E2 		add	r2, r2, #5
 202 0154 00708DE5 		str	r7, [sp]
 203 0158 FEFFFFEB 		bl	chThdCreateStatic
 204              	.LVL12:
 205              		.loc 1 106 14 discriminator 2 view .LVU45
 206 015c 000085E5 		str	r0, [r5]
 207              		.loc 1 107 3 is_stmt 1 discriminator 2 view .LVU46
 208              		.syntax divided
 209              	@ 107 "../test/testsem.c" 1
 210 0160 9FF021E3 		msr     CPSR_c, #0x9F
 211              	@ 0 "" 2
 212              		.loc 1 107 3 discriminator 2 view .LVU47
 213              		.loc 1 107 14 discriminator 2 view .LVU48
 214              		.loc 1 108 3 discriminator 2 view .LVU49
 215              		.arm
 216              		.syntax unified
 217 0164 0210A0E3 		mov	r1, #2
 218 0168 0400A0E1 		mov	r0, r4
 219 016c FEFFFFEB 		bl	chSemAddCounterI
 220              	.LVL13:
 221              		.loc 1 109 3 discriminator 2 view .LVU50
 222              		.loc 1 109 3 discriminator 2 view .LVU51
 223              		.syntax divided
 224              	@ 109 "../test/testsem.c" 1
 225 0170 1FF021E3 		msr     CPSR_c, #0x1F
 226              	@ 0 "" 2
 227              		.loc 1 109 16 discriminator 2 view .LVU52
ARM GAS  /tmp/ccxUSUMi.s 			page 5


 228              		.loc 1 110 3 discriminator 2 view .LVU53
 229              		.arm
 230              		.syntax unified
 231 0174 FEFFFFEB 		bl	test_wait_threads
 232              	.LVL14:
 233              		.loc 1 111 3 discriminator 2 view .LVU54
 234 0178 081094E5 		ldr	r1, [r4, #8]
 235 017c 0200A0E3 		mov	r0, #2
 236 0180 011041E2 		sub	r1, r1, #1
 237 0184 111F6FE1 		clz	r1, r1
 238 0188 A112A0E1 		lsr	r1, r1, #5
 239              		.loc 1 112 1 is_stmt 0 discriminator 2 view .LVU55
 240 018c 08D08DE2 		add	sp, sp, #8
 241              		.cfi_def_cfa_offset 24
 242              		@ sp needed
 243 0190 F041BDE8 		pop	{r4, r5, r6, r7, r8, lr}
 244              		.cfi_restore 14
 245              		.cfi_restore 8
 246              		.cfi_restore 7
 247              		.cfi_restore 6
 248              		.cfi_restore 5
 249              		.cfi_restore 4
 250              		.cfi_def_cfa_offset 0
 251              		.loc 1 111 3 discriminator 2 view .LVU56
 252 0194 FEFFFFEA 		b	_test_assert
 253              	.LVL15:
 254              	.L7:
 255              		.align	2
 256              	.L6:
 257 0198 00000000 		.word	rlist
 258 019c 00000000 		.word	wa
 259 01a0 00000000 		.word	.LC0
 260 01a4 00000000 		.word	thread1
 261 01a8 04000000 		.word	.LC1
 262 01ac 00000000 		.word	threads
 263 01b0 08000000 		.word	.LC2
 264 01b4 0C000000 		.word	.LC3
 265 01b8 10000000 		.word	.LC4
 266 01bc 00000000 		.word	.LANCHOR0
 267 01c0 14000000 		.word	.LC5
 268              		.cfi_endproc
 269              	.LFE9:
 270              		.size	sem1_execute, .-sem1_execute
 271              		.section	.text.thread3,"ax",%progbits
 272              		.align	2
 273              		.syntax unified
 274              		.arm
 275              		.fpu softvfp
 276              		.type	thread3, %function
 277              	thread3:
 278              	.LVL16:
 279              	.LFB14:
 280              		.loc 1 213 31 is_stmt 1 view -0
 281              		.cfi_startproc
 282              		@ args = 0, pretend = 0, frame = 0
 283              		@ frame_needed = 0, uses_anonymous_args = 0
 284              		.loc 1 215 3 view .LVU58
ARM GAS  /tmp/ccxUSUMi.s 			page 6


 285              		.loc 1 216 3 view .LVU59
 286              		.loc 1 213 31 is_stmt 0 view .LVU60
 287 0000 10402DE9 		push	{r4, lr}
 288              		.cfi_def_cfa_offset 8
 289              		.cfi_offset 4, -8
 290              		.cfi_offset 14, -4
 291              		.loc 1 216 3 view .LVU61
 292 0004 14409FE5 		ldr	r4, .L10
 293 0008 0400A0E1 		mov	r0, r4
 294              	.LVL17:
 295              		.loc 1 216 3 view .LVU62
 296 000c FEFFFFEB 		bl	chSemWait
 297              	.LVL18:
 298              		.loc 1 217 3 is_stmt 1 view .LVU63
 299 0010 0400A0E1 		mov	r0, r4
 300 0014 FEFFFFEB 		bl	chSemSignal
 301              	.LVL19:
 302              		.loc 1 218 3 view .LVU64
 303              		.loc 1 219 1 is_stmt 0 view .LVU65
 304 0018 0000A0E3 		mov	r0, #0
 305 001c 1080BDE8 		pop	{r4, pc}
 306              	.L11:
 307              		.align	2
 308              	.L10:
 309 0020 00000000 		.word	.LANCHOR0
 310              		.cfi_endproc
 311              	.LFE14:
 312              		.size	thread3, .-thread3
 313              		.section	.text.thread1,"ax",%progbits
 314              		.align	2
 315              		.syntax unified
 316              		.arm
 317              		.fpu softvfp
 318              		.type	thread1, %function
 319              	thread1:
 320              	.LVL20:
 321              	.LFB8:
 322              		.loc 1 81 31 is_stmt 1 view -0
 323              		.cfi_startproc
 324              		@ args = 0, pretend = 0, frame = 0
 325              		@ frame_needed = 0, uses_anonymous_args = 0
 326              		.loc 1 83 3 view .LVU67
 327              		.loc 1 81 31 is_stmt 0 view .LVU68
 328 0000 10402DE9 		push	{r4, lr}
 329              		.cfi_def_cfa_offset 8
 330              		.cfi_offset 4, -8
 331              		.cfi_offset 14, -4
 332              		.loc 1 81 31 view .LVU69
 333 0004 0040A0E1 		mov	r4, r0
 334              		.loc 1 83 3 view .LVU70
 335 0008 10009FE5 		ldr	r0, .L14
 336              	.LVL21:
 337              		.loc 1 83 3 view .LVU71
 338 000c FEFFFFEB 		bl	chSemWait
 339              	.LVL22:
 340              		.loc 1 84 3 is_stmt 1 view .LVU72
 341 0010 0000D4E5 		ldrb	r0, [r4]	@ zero_extendqisi2
ARM GAS  /tmp/ccxUSUMi.s 			page 7


 342 0014 FEFFFFEB 		bl	test_emit_token
 343              	.LVL23:
 344              		.loc 1 85 3 view .LVU73
 345              		.loc 1 86 1 is_stmt 0 view .LVU74
 346 0018 0000A0E3 		mov	r0, #0
 347 001c 1080BDE8 		pop	{r4, pc}
 348              	.L15:
 349              		.align	2
 350              	.L14:
 351 0020 00000000 		.word	.LANCHOR0
 352              		.cfi_endproc
 353              	.LFE8:
 354              		.size	thread1, .-thread1
 355              		.section	.text.sem1_setup,"ax",%progbits
 356              		.align	2
 357              		.syntax unified
 358              		.arm
 359              		.fpu softvfp
 360              		.type	sem1_setup, %function
 361              	sem1_setup:
 362              	.LFB7:
 363              		.loc 1 76 30 is_stmt 1 view -0
 364              		.cfi_startproc
 365              		@ args = 0, pretend = 0, frame = 0
 366              		@ frame_needed = 0, uses_anonymous_args = 0
 367              		@ link register save eliminated.
 368              		.loc 1 78 3 view .LVU76
 369 0000 0010A0E3 		mov	r1, #0
 370 0004 00009FE5 		ldr	r0, .L17
 371 0008 FEFFFFEA 		b	chSemInit
 372              	.LVL24:
 373              	.L18:
 374              		.align	2
 375              	.L17:
 376 000c 00000000 		.word	.LANCHOR0
 377              		.cfi_endproc
 378              	.LFE7:
 379              		.size	sem1_setup, .-sem1_setup
 380              		.section	.text.sem2_setup,"ax",%progbits
 381              		.align	2
 382              		.syntax unified
 383              		.arm
 384              		.fpu softvfp
 385              		.type	sem2_setup, %function
 386              	sem2_setup:
 387              	.LFB21:
 388              		.cfi_startproc
 389              		@ args = 0, pretend = 0, frame = 0
 390              		@ frame_needed = 0, uses_anonymous_args = 0
 391              		@ link register save eliminated.
 392 0000 FEFFFFEA 		b	sem1_setup
 393              		.cfi_endproc
 394              	.LFE21:
 395              		.size	sem2_setup, .-sem2_setup
 396              		.section	.text.sem3_setup,"ax",%progbits
 397              		.align	2
 398              		.syntax unified
ARM GAS  /tmp/ccxUSUMi.s 			page 8


 399              		.arm
 400              		.fpu softvfp
 401              		.type	sem3_setup, %function
 402              	sem3_setup:
 403              	.LFB23:
 404              		.cfi_startproc
 405              		@ args = 0, pretend = 0, frame = 0
 406              		@ frame_needed = 0, uses_anonymous_args = 0
 407              		@ link register save eliminated.
 408 0000 FEFFFFEA 		b	sem1_setup
 409              		.cfi_endproc
 410              	.LFE23:
 411              		.size	sem3_setup, .-sem3_setup
 412              		.section	.text.thread2,"ax",%progbits
 413              		.align	2
 414              		.syntax unified
 415              		.arm
 416              		.fpu softvfp
 417              		.type	thread2, %function
 418              	thread2:
 419              	.LVL25:
 420              	.LFB11:
 421              		.loc 1 137 31 view -0
 422              		.cfi_startproc
 423              		@ args = 0, pretend = 0, frame = 0
 424              		@ frame_needed = 0, uses_anonymous_args = 0
 425              		.loc 1 139 3 view .LVU78
 426              		.loc 1 140 3 view .LVU79
 427              		.loc 1 137 31 is_stmt 0 view .LVU80
 428 0000 10402DE9 		push	{r4, lr}
 429              		.cfi_def_cfa_offset 8
 430              		.cfi_offset 4, -8
 431              		.cfi_offset 14, -4
 432              		.loc 1 140 3 view .LVU81
 433 0004 3200A0E3 		mov	r0, #50
 434              	.LVL26:
 435              		.loc 1 140 3 view .LVU82
 436 0008 FEFFFFEB 		bl	chThdSleep
 437              	.LVL27:
 438              		.loc 1 141 3 is_stmt 1 view .LVU83
 439              		.syntax divided
 440              	@ 141 "../test/testsem.c" 1
 441 000c 9FF021E3 		msr     CPSR_c, #0x9F
 442              	@ 0 "" 2
 443              		.loc 1 141 3 view .LVU84
 444              		.loc 1 141 14 view .LVU85
 445              		.loc 1 142 3 view .LVU86
 446              		.arm
 447              		.syntax unified
 448 0010 10009FE5 		ldr	r0, .L23
 449 0014 FEFFFFEB 		bl	chSemSignalI
 450              	.LVL28:
 451              		.loc 1 143 3 view .LVU87
 452 0018 FEFFFFEB 		bl	chSchRescheduleS
 453              	.LVL29:
 454              		.loc 1 144 3 view .LVU88
 455              		.loc 1 144 3 view .LVU89
ARM GAS  /tmp/ccxUSUMi.s 			page 9


 456              		.syntax divided
 457              	@ 144 "../test/testsem.c" 1
 458 001c 1FF021E3 		msr     CPSR_c, #0x1F
 459              	@ 0 "" 2
 460              		.loc 1 144 16 view .LVU90
 461              		.loc 1 145 3 view .LVU91
 462              		.loc 1 146 1 is_stmt 0 view .LVU92
 463              		.arm
 464              		.syntax unified
 465 0020 0000A0E3 		mov	r0, #0
 466 0024 1080BDE8 		pop	{r4, pc}
 467              	.L24:
 468              		.align	2
 469              	.L23:
 470 0028 00000000 		.word	.LANCHOR0
 471              		.cfi_endproc
 472              	.LFE11:
 473              		.size	thread2, .-thread2
 474              		.section	.text.thread4,"ax",%progbits
 475              		.align	2
 476              		.syntax unified
 477              		.arm
 478              		.fpu softvfp
 479              		.type	thread4, %function
 480              	thread4:
 481              	.LVL30:
 482              	.LFB16:
 483              		.loc 1 249 31 is_stmt 1 view -0
 484              		.cfi_startproc
 485              		@ args = 0, pretend = 0, frame = 0
 486              		@ frame_needed = 0, uses_anonymous_args = 0
 487              		.loc 1 251 3 view .LVU94
 488              		.loc 1 249 31 is_stmt 0 view .LVU95
 489 0000 10402DE9 		push	{r4, lr}
 490              		.cfi_def_cfa_offset 8
 491              		.cfi_offset 4, -8
 492              		.cfi_offset 14, -4
 493              		.loc 1 251 3 view .LVU96
 494              		.syntax divided
 495              	@ 251 "../test/testsem.c" 1
 496 0004 9FF021E3 		msr     CPSR_c, #0x9F
 497              	@ 0 "" 2
 498              		.loc 1 251 3 is_stmt 1 view .LVU97
 499              		.loc 1 251 3 view .LVU98
 500              		.loc 1 251 3 view .LVU99
 501              		.arm
 502              		.syntax unified
 503 0008 083090E5 		ldr	r3, [r0, #8]
 504 000c 000053E3 		cmp	r3, #0
 505 0010 030000DA 		ble	.L28
 506              	.LVL31:
 507              	.L26:
 508              		.loc 1 251 3 discriminator 3 view .LVU100
 509              		.loc 1 251 3 discriminator 3 view .LVU101
 510 0014 FEFFFFEB 		bl	chSchRescheduleS
 511              	.LVL32:
 512              		.loc 1 251 3 discriminator 3 view .LVU102
ARM GAS  /tmp/ccxUSUMi.s 			page 10


 513              		.loc 1 251 3 discriminator 3 view .LVU103
 514              		.syntax divided
 515              	@ 251 "../test/testsem.c" 1
 516 0018 1FF021E3 		msr     CPSR_c, #0x1F
 517              	@ 0 "" 2
 518              		.loc 1 251 3 discriminator 3 view .LVU104
 519              		.loc 1 251 37 discriminator 3 view .LVU105
 520              		.loc 1 252 3 discriminator 3 view .LVU106
 521              		.loc 1 253 1 is_stmt 0 discriminator 3 view .LVU107
 522              		.arm
 523              		.syntax unified
 524 001c 0000A0E3 		mov	r0, #0
 525 0020 1080BDE8 		pop	{r4, pc}
 526              	.LVL33:
 527              	.L28:
 528              		.loc 1 251 3 is_stmt 1 discriminator 1 view .LVU108
 529 0024 FEFFFFEB 		bl	chSemSignalI
 530              	.LVL34:
 531              		.loc 1 251 3 is_stmt 0 discriminator 1 view .LVU109
 532 0028 F9FFFFEA 		b	.L26
 533              		.cfi_endproc
 534              	.LFE16:
 535              		.size	thread4, .-thread4
 536              		.section	.text.sem4_execute,"ax",%progbits
 537              		.align	2
 538              		.syntax unified
 539              		.arm
 540              		.fpu softvfp
 541              		.type	sem4_execute, %function
 542              	sem4_execute:
 543              	.LFB17:
 544              		.loc 1 255 32 is_stmt 1 view -0
 545              		.cfi_startproc
 546              		@ args = 0, pretend = 0, frame = 16
 547              		@ frame_needed = 0, uses_anonymous_args = 0
 548              		.loc 1 256 3 view .LVU111
 549              		.loc 1 259 3 view .LVU112
 550              		.loc 1 255 32 is_stmt 0 view .LVU113
 551 0000 04E02DE5 		str	lr, [sp, #-4]!
 552              		.cfi_def_cfa_offset 4
 553              		.cfi_offset 14, -4
 554 0004 1CD04DE2 		sub	sp, sp, #28
 555              		.cfi_def_cfa_offset 32
 556              		.loc 1 259 3 view .LVU114
 557 0008 0010A0E3 		mov	r1, #0
 558 000c 0C008DE2 		add	r0, sp, #12
 559 0010 FEFFFFEB 		bl	chSemInit
 560              	.LVL35:
 561              		.loc 1 260 3 is_stmt 1 view .LVU115
 562 0014 0010A0E3 		mov	r1, #0
 563 0018 0C008DE2 		add	r0, sp, #12
 564 001c FEFFFFEB 		bl	chSemReset
 565              	.LVL36:
 566              		.loc 1 261 3 view .LVU116
 567 0020 14109DE5 		ldr	r1, [sp, #20]
 568 0024 0100A0E3 		mov	r0, #1
 569 0028 000051E3 		cmp	r1, #0
ARM GAS  /tmp/ccxUSUMi.s 			page 11


 570 002c 0010A0C3 		movgt	r1, #0
 571 0030 0110A0D3 		movle	r1, #1
 572 0034 FEFFFFEB 		bl	_test_assert
 573              	.LVL37:
 574 0038 000050E3 		cmp	r0, #0
 575 003c 0100000A 		beq	.L36
 576              	.L29:
 577              		.loc 1 283 1 is_stmt 0 view .LVU117
 578 0040 1CD08DE2 		add	sp, sp, #28
 579              		.cfi_remember_state
 580              		.cfi_def_cfa_offset 4
 581              		@ sp needed
 582 0044 04F09DE4 		ldr	pc, [sp], #4
 583              	.L36:
 584              		.cfi_restore_state
 585              		.loc 1 261 62 is_stmt 1 discriminator 2 view .LVU118
 586              		.loc 1 264 3 discriminator 2 view .LVU119
 587              		.loc 1 265 34 is_stmt 0 discriminator 2 view .LVU120
 588 0048 1C319FE5 		ldr	r3, .L39
 589              		.loc 1 264 16 discriminator 2 view .LVU121
 590 004c 1C219FE5 		ldr	r2, .L39+4
 591              		.loc 1 265 34 discriminator 2 view .LVU122
 592 0050 183093E5 		ldr	r3, [r3, #24]
 593              		.loc 1 264 16 discriminator 2 view .LVU123
 594 0054 000092E5 		ldr	r0, [r2]
 595 0058 082093E5 		ldr	r2, [r3, #8]
 596 005c 0C108DE2 		add	r1, sp, #12
 597 0060 0C319FE5 		ldr	r3, .L39+8
 598 0064 012042E2 		sub	r2, r2, #1
 599 0068 00108DE5 		str	r1, [sp]
 600 006c 461FA0E3 		mov	r1, #280
 601 0070 FEFFFFEB 		bl	chThdCreateStatic
 602              	.LVL38:
 603 0074 0020A0E1 		mov	r2, r0
 604              		.loc 1 264 14 discriminator 2 view .LVU124
 605 0078 F8309FE5 		ldr	r3, .L39+12
 606              		.loc 1 268 3 discriminator 2 view .LVU125
 607 007c 0C008DE2 		add	r0, sp, #12
 608              		.loc 1 264 14 discriminator 2 view .LVU126
 609 0080 002083E5 		str	r2, [r3]
 610              		.loc 1 268 3 is_stmt 1 discriminator 2 view .LVU127
 611 0084 FEFFFFEB 		bl	chSemWait
 612              	.LVL39:
 613              		.loc 1 271 3 discriminator 2 view .LVU128
 614 0088 14109DE5 		ldr	r1, [sp, #20]
 615 008c 0200A0E3 		mov	r0, #2
 616 0090 000051E3 		cmp	r1, #0
 617 0094 0010A0C3 		movgt	r1, #0
 618 0098 0110A0D3 		movle	r1, #1
 619 009c FEFFFFEB 		bl	_test_assert
 620              	.LVL40:
 621 00a0 000050E3 		cmp	r0, #0
 622 00a4 E5FFFF1A 		bne	.L29
 623              		.loc 1 271 62 discriminator 2 view .LVU129
 624              		.loc 1 275 3 discriminator 2 view .LVU130
 625              		.syntax divided
 626              	@ 275 "../test/testsem.c" 1
ARM GAS  /tmp/ccxUSUMi.s 			page 12


 627 00a8 9FF021E3 		msr     CPSR_c, #0x9F
 628              	@ 0 "" 2
 629              		.loc 1 275 3 discriminator 2 view .LVU131
 630              		.loc 1 275 3 discriminator 2 view .LVU132
 631              		.loc 1 275 3 discriminator 2 view .LVU133
 632              		.arm
 633              		.syntax unified
 634 00ac 14309DE5 		ldr	r3, [sp, #20]
 635 00b0 000053E3 		cmp	r3, #0
 636 00b4 260000DA 		ble	.L37
 637              	.L33:
 638              		.loc 1 275 3 discriminator 3 view .LVU134
 639              		.loc 1 275 3 discriminator 3 view .LVU135
 640 00b8 FEFFFFEB 		bl	chSchRescheduleS
 641              	.LVL41:
 642              		.loc 1 275 3 discriminator 3 view .LVU136
 643              		.loc 1 275 3 discriminator 3 view .LVU137
 644              		.syntax divided
 645              	@ 275 "../test/testsem.c" 1
 646 00bc 1FF021E3 		msr     CPSR_c, #0x1F
 647              	@ 0 "" 2
 648              		.loc 1 275 3 discriminator 3 view .LVU138
 649              		.loc 1 275 22 discriminator 3 view .LVU139
 650              		.loc 1 276 3 discriminator 3 view .LVU140
 651              		.arm
 652              		.syntax unified
 653 00c0 14109DE5 		ldr	r1, [sp, #20]
 654 00c4 0300A0E3 		mov	r0, #3
 655 00c8 000051E3 		cmp	r1, #0
 656 00cc 0010A0D3 		movle	r1, #0
 657 00d0 0110A0C3 		movgt	r1, #1
 658 00d4 FEFFFFEB 		bl	_test_assert
 659              	.LVL42:
 660 00d8 000050E3 		cmp	r0, #0
 661 00dc D7FFFF1A 		bne	.L29
 662              		.loc 1 276 65 discriminator 2 view .LVU141
 663              		.loc 1 277 3 discriminator 2 view .LVU142
 664 00e0 14109DE5 		ldr	r1, [sp, #20]
 665 00e4 0400A0E3 		mov	r0, #4
 666 00e8 011041E2 		sub	r1, r1, #1
 667 00ec 111F6FE1 		clz	r1, r1
 668 00f0 A112A0E1 		lsr	r1, r1, #5
 669 00f4 FEFFFFEB 		bl	_test_assert
 670              	.LVL43:
 671 00f8 000050E3 		cmp	r0, #0
 672 00fc CFFFFF1A 		bne	.L29
 673              		.loc 1 277 76 discriminator 2 view .LVU143
 674              		.loc 1 280 3 discriminator 2 view .LVU144
 675              		.syntax divided
 676              	@ 280 "../test/testsem.c" 1
 677 0100 9FF021E3 		msr     CPSR_c, #0x9F
 678              	@ 0 "" 2
 679              		.loc 1 280 3 discriminator 2 view .LVU145
 680              		.loc 1 280 3 discriminator 2 view .LVU146
 681              		.loc 1 280 3 discriminator 2 view .LVU147
 682              		.arm
 683              		.syntax unified
ARM GAS  /tmp/ccxUSUMi.s 			page 13


 684 0104 14309DE5 		ldr	r3, [sp, #20]
 685 0108 000053E3 		cmp	r3, #0
 686 010c 130000DA 		ble	.L38
 687              	.L34:
 688              		.loc 1 280 3 discriminator 3 view .LVU148
 689              		.loc 1 280 3 discriminator 3 view .LVU149
 690 0110 FEFFFFEB 		bl	chSchRescheduleS
 691              	.LVL44:
 692              		.loc 1 280 3 discriminator 3 view .LVU150
 693              		.loc 1 280 3 discriminator 3 view .LVU151
 694              		.syntax divided
 695              	@ 280 "../test/testsem.c" 1
 696 0114 1FF021E3 		msr     CPSR_c, #0x1F
 697              	@ 0 "" 2
 698              		.loc 1 280 3 discriminator 3 view .LVU152
 699              		.loc 1 280 22 discriminator 3 view .LVU153
 700              		.loc 1 281 3 discriminator 3 view .LVU154
 701              		.arm
 702              		.syntax unified
 703 0118 14109DE5 		ldr	r1, [sp, #20]
 704 011c 0300A0E3 		mov	r0, #3
 705 0120 000051E3 		cmp	r1, #0
 706 0124 0010A0D3 		movle	r1, #0
 707 0128 0110A0C3 		movgt	r1, #1
 708 012c FEFFFFEB 		bl	_test_assert
 709              	.LVL45:
 710 0130 000050E3 		cmp	r0, #0
 711 0134 C1FFFF1A 		bne	.L29
 712              		.loc 1 281 59 discriminator 2 view .LVU155
 713              		.loc 1 282 3 discriminator 2 view .LVU156
 714 0138 14109DE5 		ldr	r1, [sp, #20]
 715 013c 0500A0E3 		mov	r0, #5
 716 0140 011041E2 		sub	r1, r1, #1
 717 0144 111F6FE1 		clz	r1, r1
 718 0148 A112A0E1 		lsr	r1, r1, #5
 719 014c FEFFFFEB 		bl	_test_assert
 720              	.LVL46:
 721              		.loc 1 282 3 discriminator 2 view .LVU157
 722 0150 BAFFFFEA 		b	.L29
 723              	.L37:
 724              		.loc 1 275 3 discriminator 1 view .LVU158
 725 0154 0C008DE2 		add	r0, sp, #12
 726 0158 FEFFFFEB 		bl	chSemSignalI
 727              	.LVL47:
 728 015c D5FFFFEA 		b	.L33
 729              	.L38:
 730              		.loc 1 280 3 discriminator 1 view .LVU159
 731 0160 0C008DE2 		add	r0, sp, #12
 732 0164 FEFFFFEB 		bl	chSemSignalI
 733              	.LVL48:
 734 0168 E8FFFFEA 		b	.L34
 735              	.L40:
 736              		.align	2
 737              	.L39:
 738 016c 00000000 		.word	rlist
 739 0170 00000000 		.word	wa
 740 0174 00000000 		.word	thread4
ARM GAS  /tmp/ccxUSUMi.s 			page 14


 741 0178 00000000 		.word	threads
 742              		.cfi_endproc
 743              	.LFE17:
 744              		.size	sem4_execute, .-sem4_execute
 745              		.section	.text.sem2_execute,"ax",%progbits
 746              		.align	2
 747              		.syntax unified
 748              		.arm
 749              		.fpu softvfp
 750              		.type	sem2_execute, %function
 751              	sem2_execute:
 752              	.LFB12:
 753              		.loc 1 148 32 view -0
 754              		.cfi_startproc
 755              		@ args = 0, pretend = 0, frame = 0
 756              		@ frame_needed = 0, uses_anonymous_args = 0
 757              		.loc 1 149 3 view .LVU161
 758              		.loc 1 150 3 view .LVU162
 759              		.loc 1 151 3 view .LVU163
 760              		.loc 1 156 3 view .LVU164
 761              		.loc 1 148 32 is_stmt 0 view .LVU165
 762 0000 F0402DE9 		push	{r4, r5, r6, r7, lr}
 763              		.cfi_def_cfa_offset 20
 764              		.cfi_offset 4, -20
 765              		.cfi_offset 5, -16
 766              		.cfi_offset 6, -12
 767              		.cfi_offset 7, -8
 768              		.cfi_offset 14, -4
 769              		.loc 1 156 9 view .LVU166
 770 0004 D0419FE5 		ldr	r4, .L49
 771 0008 0010A0E3 		mov	r1, #0
 772              		.loc 1 148 32 view .LVU167
 773 000c 0CD04DE2 		sub	sp, sp, #12
 774              		.cfi_def_cfa_offset 32
 775              		.loc 1 156 9 view .LVU168
 776 0010 0400A0E1 		mov	r0, r4
 777 0014 FEFFFFEB 		bl	chSemWaitTimeout
 778              	.LVL49:
 779 0018 0010A0E1 		mov	r1, r0
 780              	.LVL50:
 781              		.loc 1 157 3 is_stmt 1 view .LVU169
 782 001c 010071E3 		cmn	r1, #1
 783 0020 0010A013 		movne	r1, #0
 784 0024 0110A003 		moveq	r1, #1
 785 0028 0100A0E3 		mov	r0, #1
 786              	.LVL51:
 787              		.loc 1 157 3 is_stmt 0 view .LVU170
 788 002c FEFFFFEB 		bl	_test_assert
 789              	.LVL52:
 790 0030 000050E3 		cmp	r0, #0
 791 0034 0100000A 		beq	.L48
 792              	.L41:
 793              		.loc 1 186 1 view .LVU171
 794 0038 0CD08DE2 		add	sp, sp, #12
 795              		.cfi_remember_state
 796              		.cfi_def_cfa_offset 20
 797              		@ sp needed
ARM GAS  /tmp/ccxUSUMi.s 			page 15


 798 003c F080BDE8 		pop	{r4, r5, r6, r7, pc}
 799              	.L48:
 800              		.cfi_restore_state
 801              		.loc 1 157 62 is_stmt 1 discriminator 2 view .LVU172
 802              		.loc 1 158 3 discriminator 2 view .LVU173
 803 0040 001094E5 		ldr	r1, [r4]
 804 0044 0200A0E3 		mov	r0, #2
 805 0048 041041E0 		sub	r1, r1, r4
 806 004c 111F6FE1 		clz	r1, r1
 807 0050 A112A0E1 		lsr	r1, r1, #5
 808 0054 FEFFFFEB 		bl	_test_assert
 809              	.LVL53:
 810 0058 000050E3 		cmp	r0, #0
 811 005c F5FFFF1A 		bne	.L41
 812              		.loc 1 158 60 discriminator 2 view .LVU174
 813              		.loc 1 159 3 discriminator 2 view .LVU175
 814 0060 081094E5 		ldr	r1, [r4, #8]
 815 0064 0300A0E3 		mov	r0, #3
 816 0068 111F6FE1 		clz	r1, r1
 817 006c A112A0E1 		lsr	r1, r1, #5
 818 0070 FEFFFFEB 		bl	_test_assert
 819              	.LVL54:
 820 0074 001050E2 		subs	r1, r0, #0
 821 0078 EEFFFF1A 		bne	.L41
 822              	.LBB4:
 823              	.LBI4:
 824              		.loc 1 148 13 view .LVU176
 825              	.LBB5:
 826              		.loc 1 159 54 view .LVU177
 827              		.loc 1 164 3 view .LVU178
 828              		.loc 1 164 50 is_stmt 0 view .LVU179
 829 007c 5C319FE5 		ldr	r3, .L49+4
 830              		.loc 1 164 16 view .LVU180
 831 0080 5C219FE5 		ldr	r2, .L49+8
 832              		.loc 1 164 50 view .LVU181
 833 0084 183093E5 		ldr	r3, [r3, #24]
 834              		.loc 1 164 16 view .LVU182
 835 0088 000092E5 		ldr	r0, [r2]
 836 008c 082093E5 		ldr	r2, [r3, #8]
 837 0090 50319FE5 		ldr	r3, .L49+12
 838 0094 012042E2 		sub	r2, r2, #1
 839 0098 00108DE5 		str	r1, [sp]
 840 009c 461FA0E3 		mov	r1, #280
 841 00a0 FEFFFFEB 		bl	chThdCreateStatic
 842              	.LVL55:
 843 00a4 0020A0E1 		mov	r2, r0
 844              		.loc 1 164 14 view .LVU183
 845 00a8 3C319FE5 		ldr	r3, .L49+16
 846              		.loc 1 166 9 view .LVU184
 847 00ac 7D1FA0E3 		mov	r1, #500
 848 00b0 0400A0E1 		mov	r0, r4
 849              		.loc 1 164 14 view .LVU185
 850 00b4 002083E5 		str	r2, [r3]
 851              		.loc 1 166 3 is_stmt 1 view .LVU186
 852              		.loc 1 166 9 is_stmt 0 view .LVU187
 853 00b8 FEFFFFEB 		bl	chSemWaitTimeout
 854              	.LVL56:
ARM GAS  /tmp/ccxUSUMi.s 			page 16


 855 00bc 0050A0E1 		mov	r5, r0
 856              	.LVL57:
 857              		.loc 1 167 3 is_stmt 1 view .LVU188
 858 00c0 FEFFFFEB 		bl	test_wait_threads
 859              	.LVL58:
 860              		.loc 1 168 3 view .LVU189
 861 00c4 151F6FE1 		clz	r1, r5
 862 00c8 0400A0E3 		mov	r0, #4
 863 00cc A112A0E1 		lsr	r1, r1, #5
 864 00d0 FEFFFFEB 		bl	_test_assert
 865              	.LVL59:
 866 00d4 000050E3 		cmp	r0, #0
 867 00d8 D6FFFF1A 		bne	.L41
 868              		.loc 1 168 57 view .LVU190
 869              		.loc 1 169 3 view .LVU191
 870 00dc 001094E5 		ldr	r1, [r4]
 871 00e0 0500A0E3 		mov	r0, #5
 872 00e4 041041E0 		sub	r1, r1, r4
 873 00e8 111F6FE1 		clz	r1, r1
 874 00ec A112A0E1 		lsr	r1, r1, #5
 875 00f0 FEFFFFEB 		bl	_test_assert
 876              	.LVL60:
 877 00f4 000050E3 		cmp	r0, #0
 878 00f8 CEFFFF1A 		bne	.L41
 879              		.loc 1 169 60 view .LVU192
 880              		.loc 1 170 3 view .LVU193
 881 00fc 081094E5 		ldr	r1, [r4, #8]
 882 0100 0600A0E3 		mov	r0, #6
 883 0104 111F6FE1 		clz	r1, r1
 884 0108 A112A0E1 		lsr	r1, r1, #5
 885 010c FEFFFFEB 		bl	_test_assert
 886              	.LVL61:
 887 0110 000050E3 		cmp	r0, #0
 888 0114 C7FFFF1A 		bne	.L41
 889              		.loc 1 170 54 view .LVU194
 890              		.loc 1 175 3 view .LVU195
 891              		.loc 1 176 17 is_stmt 0 view .LVU196
 892 0118 4150A0E3 		mov	r5, #65
 893              	.LVL62:
 894              		.loc 1 179 11 view .LVU197
 895 011c 0460A0E1 		mov	r6, r4
 896              		.loc 1 175 3 view .LVU198
 897 0120 FEFFFFEB 		bl	test_wait_tick
 898              	.LVL63:
 899              		.loc 1 176 3 is_stmt 1 view .LVU199
 900              		.loc 1 176 17 is_stmt 0 view .LVU200
 901 0124 C4309FE5 		ldr	r3, .L49+20
 902 0128 0C7093E5 		ldr	r7, [r3, #12]
 903              	.LVL64:
 904              		.loc 1 177 3 is_stmt 1 view .LVU201
 905              		.loc 1 177 15 view .LVU202
 906              	.L45:
 907              		.loc 1 178 5 view .LVU203
 908 012c 0500A0E1 		mov	r0, r5
 909 0130 FEFFFFEB 		bl	test_emit_token
 910              	.LVL65:
 911              		.loc 1 179 5 view .LVU204
ARM GAS  /tmp/ccxUSUMi.s 			page 17


 912              		.loc 1 179 11 is_stmt 0 view .LVU205
 913 0134 7D1FA0E3 		mov	r1, #500
 914 0138 0600A0E1 		mov	r0, r6
 915 013c FEFFFFEB 		bl	chSemWaitTimeout
 916              	.LVL66:
 917 0140 0010A0E1 		mov	r1, r0
 918              	.LVL67:
 919              		.loc 1 180 5 is_stmt 1 view .LVU206
 920 0144 010071E3 		cmn	r1, #1
 921 0148 0010A013 		movne	r1, #0
 922 014c 0110A003 		moveq	r1, #1
 923 0150 0700A0E3 		mov	r0, #7
 924              	.LVL68:
 925              		.loc 1 180 5 is_stmt 0 view .LVU207
 926 0154 FEFFFFEB 		bl	_test_assert
 927              	.LVL69:
 928              		.loc 1 180 64 is_stmt 1 view .LVU208
 929              		.loc 1 181 5 view .LVU209
 930              		.loc 1 180 5 is_stmt 0 view .LVU210
 931 0158 000050E3 		cmp	r0, #0
 932 015c B5FFFF1A 		bne	.L41
 933              		.loc 1 181 5 view .LVU211
 934 0160 001094E5 		ldr	r1, [r4]
 935 0164 0800A0E3 		mov	r0, #8
 936 0168 041041E0 		sub	r1, r1, r4
 937 016c 111F6FE1 		clz	r1, r1
 938 0170 A112A0E1 		lsr	r1, r1, #5
 939 0174 FEFFFFEB 		bl	_test_assert
 940              	.LVL70:
 941              		.loc 1 181 62 is_stmt 1 view .LVU212
 942              		.loc 1 182 5 view .LVU213
 943              		.loc 1 181 5 is_stmt 0 view .LVU214
 944 0178 000050E3 		cmp	r0, #0
 945 017c ADFFFF1A 		bne	.L41
 946              		.loc 1 182 5 view .LVU215
 947 0180 081094E5 		ldr	r1, [r4, #8]
 948 0184 0900A0E3 		mov	r0, #9
 949 0188 111F6FE1 		clz	r1, r1
 950 018c A112A0E1 		lsr	r1, r1, #5
 951 0190 FEFFFFEB 		bl	_test_assert
 952              	.LVL71:
 953              		.loc 1 182 56 is_stmt 1 view .LVU216
 954              		.loc 1 177 22 view .LVU217
 955              		.loc 1 177 15 view .LVU218
 956 0194 015085E2 		add	r5, r5, #1
 957              		.loc 1 182 5 is_stmt 0 view .LVU219
 958 0198 000050E3 		cmp	r0, #0
 959 019c 7550EFE6 		uxtb	r5, r5
 960 01a0 A4FFFF1A 		bne	.L41
 961              		.loc 1 177 3 view .LVU220
 962 01a4 460055E3 		cmp	r5, #70
 963 01a8 DFFFFF1A 		bne	.L45
 964              		.loc 1 184 3 is_stmt 1 view .LVU221
 965 01ac 0A00A0E3 		mov	r0, #10
 966 01b0 3C109FE5 		ldr	r1, .L49+24
 967 01b4 FEFFFFEB 		bl	_test_assert_sequence
 968              	.LVL72:
ARM GAS  /tmp/ccxUSUMi.s 			page 18


 969 01b8 000050E3 		cmp	r0, #0
 970 01bc 9DFFFF1A 		bne	.L41
 971              		.loc 1 184 36 view .LVU222
 972              		.loc 1 185 3 view .LVU223
 973 01c0 0B00A0E3 		mov	r0, #11
 974 01c4 271D87E2 		add	r1, r7, #2496
 975 01c8 092081E2 		add	r2, r1, #9
 976 01cc 041081E2 		add	r1, r1, #4
 977              	.LBE5:
 978              	.LBE4:
 979              		.loc 1 186 1 is_stmt 0 view .LVU224
 980 01d0 0CD08DE2 		add	sp, sp, #12
 981              		.cfi_def_cfa_offset 20
 982              		@ sp needed
 983 01d4 F040BDE8 		pop	{r4, r5, r6, r7, lr}
 984              		.cfi_restore 14
 985              		.cfi_restore 7
 986              		.cfi_restore 6
 987              		.cfi_restore 5
 988              		.cfi_restore 4
 989              		.cfi_def_cfa_offset 0
 990              	.LVL73:
 991              	.LBB7:
 992              	.LBB6:
 993              		.loc 1 185 3 view .LVU225
 994 01d8 FEFFFFEA 		b	_test_assert_time_window
 995              	.LVL74:
 996              	.L50:
 997              		.loc 1 185 3 view .LVU226
 998              		.align	2
 999              	.L49:
 1000 01dc 00000000 		.word	.LANCHOR0
 1001 01e0 00000000 		.word	rlist
 1002 01e4 00000000 		.word	wa
 1003 01e8 00000000 		.word	thread2
 1004 01ec 00000000 		.word	threads
 1005 01f0 00000000 		.word	vtlist
 1006 01f4 14000000 		.word	.LC5
 1007              	.LBE6:
 1008              	.LBE7:
 1009              		.cfi_endproc
 1010              	.LFE12:
 1011              		.size	sem2_execute, .-sem2_execute
 1012              		.section	.text.sem3_execute,"ax",%progbits
 1013              		.align	2
 1014              		.syntax unified
 1015              		.arm
 1016              		.fpu softvfp
 1017              		.type	sem3_execute, %function
 1018              	sem3_execute:
 1019              	.LFB15:
 1020              		.loc 1 221 32 is_stmt 1 view -0
 1021              		.cfi_startproc
 1022              		@ args = 0, pretend = 0, frame = 0
 1023              		@ frame_needed = 0, uses_anonymous_args = 0
 1024              		.loc 1 223 3 view .LVU228
 1025              		.loc 1 223 16 is_stmt 0 view .LVU229
ARM GAS  /tmp/ccxUSUMi.s 			page 19


 1026 0000 0010A0E3 		mov	r1, #0
 1027              		.loc 1 221 32 view .LVU230
 1028 0004 10402DE9 		push	{r4, lr}
 1029              		.cfi_def_cfa_offset 8
 1030              		.cfi_offset 4, -8
 1031              		.cfi_offset 14, -4
 1032              		.loc 1 223 50 view .LVU231
 1033 0008 CC309FE5 		ldr	r3, .L57
 1034              		.loc 1 223 16 view .LVU232
 1035 000c CC209FE5 		ldr	r2, .L57+4
 1036              		.loc 1 223 50 view .LVU233
 1037 0010 183093E5 		ldr	r3, [r3, #24]
 1038              		.loc 1 223 16 view .LVU234
 1039 0014 000092E5 		ldr	r0, [r2]
 1040 0018 082093E5 		ldr	r2, [r3, #8]
 1041              		.loc 1 221 32 view .LVU235
 1042 001c 08D04DE2 		sub	sp, sp, #8
 1043              		.cfi_def_cfa_offset 16
 1044              		.loc 1 223 16 view .LVU236
 1045 0020 BC309FE5 		ldr	r3, .L57+8
 1046 0024 012082E2 		add	r2, r2, #1
 1047 0028 00108DE5 		str	r1, [sp]
 1048 002c 461FA0E3 		mov	r1, #280
 1049 0030 FEFFFFEB 		bl	chThdCreateStatic
 1050              	.LVL75:
 1051 0034 0020A0E1 		mov	r2, r0
 1052              		.loc 1 224 3 view .LVU237
 1053 0038 A8409FE5 		ldr	r4, .L57+12
 1054              		.loc 1 223 14 view .LVU238
 1055 003c A8309FE5 		ldr	r3, .L57+16
 1056              		.loc 1 224 3 view .LVU239
 1057 0040 0410A0E1 		mov	r1, r4
 1058 0044 0400A0E1 		mov	r0, r4
 1059              		.loc 1 223 14 view .LVU240
 1060 0048 002083E5 		str	r2, [r3]
 1061              		.loc 1 224 3 is_stmt 1 view .LVU241
 1062 004c FEFFFFEB 		bl	chSemSignalWait
 1063              	.LVL76:
 1064              		.loc 1 225 3 view .LVU242
 1065 0050 001094E5 		ldr	r1, [r4]
 1066 0054 0100A0E3 		mov	r0, #1
 1067 0058 041041E0 		sub	r1, r1, r4
 1068 005c 111F6FE1 		clz	r1, r1
 1069 0060 A112A0E1 		lsr	r1, r1, #5
 1070 0064 FEFFFFEB 		bl	_test_assert
 1071              	.LVL77:
 1072 0068 000050E3 		cmp	r0, #0
 1073 006c 0100000A 		beq	.L56
 1074              	.L51:
 1075              		.loc 1 231 1 is_stmt 0 view .LVU243
 1076 0070 08D08DE2 		add	sp, sp, #8
 1077              		.cfi_remember_state
 1078              		.cfi_def_cfa_offset 8
 1079              		@ sp needed
 1080 0074 1080BDE8 		pop	{r4, pc}
 1081              	.L56:
 1082              		.cfi_restore_state
ARM GAS  /tmp/ccxUSUMi.s 			page 20


 1083              		.loc 1 225 60 is_stmt 1 discriminator 2 view .LVU244
 1084              		.loc 1 226 3 discriminator 2 view .LVU245
 1085 0078 081094E5 		ldr	r1, [r4, #8]
 1086 007c 0200A0E3 		mov	r0, #2
 1087 0080 111F6FE1 		clz	r1, r1
 1088 0084 A112A0E1 		lsr	r1, r1, #5
 1089 0088 FEFFFFEB 		bl	_test_assert
 1090              	.LVL78:
 1091 008c 000050E3 		cmp	r0, #0
 1092 0090 F6FFFF1A 		bne	.L51
 1093              	.LBB10:
 1094              	.LBI10:
 1095              		.loc 1 221 13 view .LVU246
 1096              	.LBB11:
 1097              		.loc 1 226 54 view .LVU247
 1098              		.loc 1 228 3 view .LVU248
 1099 0094 0410A0E1 		mov	r1, r4
 1100 0098 0400A0E1 		mov	r0, r4
 1101 009c FEFFFFEB 		bl	chSemSignalWait
 1102              	.LVL79:
 1103              		.loc 1 229 3 view .LVU249
 1104 00a0 001094E5 		ldr	r1, [r4]
 1105 00a4 0300A0E3 		mov	r0, #3
 1106 00a8 041041E0 		sub	r1, r1, r4
 1107 00ac 111F6FE1 		clz	r1, r1
 1108 00b0 A112A0E1 		lsr	r1, r1, #5
 1109 00b4 FEFFFFEB 		bl	_test_assert
 1110              	.LVL80:
 1111 00b8 000050E3 		cmp	r0, #0
 1112 00bc EBFFFF1A 		bne	.L51
 1113              		.loc 1 229 60 view .LVU250
 1114              		.loc 1 230 3 view .LVU251
 1115 00c0 081094E5 		ldr	r1, [r4, #8]
 1116 00c4 0400A0E3 		mov	r0, #4
 1117 00c8 111F6FE1 		clz	r1, r1
 1118 00cc A112A0E1 		lsr	r1, r1, #5
 1119              	.LBE11:
 1120              	.LBE10:
 1121              		.loc 1 231 1 is_stmt 0 view .LVU252
 1122 00d0 08D08DE2 		add	sp, sp, #8
 1123              		.cfi_def_cfa_offset 8
 1124              		@ sp needed
 1125 00d4 1040BDE8 		pop	{r4, lr}
 1126              		.cfi_restore 14
 1127              		.cfi_restore 4
 1128              		.cfi_def_cfa_offset 0
 1129              	.LBB13:
 1130              	.LBB12:
 1131              		.loc 1 230 3 view .LVU253
 1132 00d8 FEFFFFEA 		b	_test_assert
 1133              	.LVL81:
 1134              	.L58:
 1135              		.align	2
 1136              	.L57:
 1137 00dc 00000000 		.word	rlist
 1138 00e0 00000000 		.word	wa
 1139 00e4 00000000 		.word	thread3
ARM GAS  /tmp/ccxUSUMi.s 			page 21


 1140 00e8 00000000 		.word	.LANCHOR0
 1141 00ec 00000000 		.word	threads
 1142              	.LBE12:
 1143              	.LBE13:
 1144              		.cfi_endproc
 1145              	.LFE15:
 1146              		.size	sem3_execute, .-sem3_execute
 1147              		.global	patternsem
 1148              		.global	testsem4
 1149              		.section	.rodata.str1.4,"aMS",%progbits,1
 1150              		.align	2
 1151              	.LC6:
 1152 0000 42696E61 		.ascii	"Binary Semaphores, functionality\000"
 1152      72792053 
 1152      656D6170 
 1152      686F7265 
 1152      732C2066 
 1153              		.global	testsem3
 1154 0021 000000   		.align	2
 1155              	.LC7:
 1156 0024 53656D61 		.ascii	"Semaphores, atomic signal-wait\000"
 1156      70686F72 
 1156      65732C20 
 1156      61746F6D 
 1156      69632073 
 1157              		.global	testsem2
 1158 0043 00       		.align	2
 1159              	.LC8:
 1160 0044 53656D61 		.ascii	"Semaphores, timeout\000"
 1160      70686F72 
 1160      65732C20 
 1160      74696D65 
 1160      6F757400 
 1161              		.global	testsem1
 1162              		.align	2
 1163              	.LC9:
 1164 0058 53656D61 		.ascii	"Semaphores, enqueuing\000"
 1164      70686F72 
 1164      65732C20 
 1164      656E7175 
 1164      6575696E 
 1165              		.section	.data.sem1,"aw"
 1166              		.align	2
 1167              		.set	.LANCHOR0,. + 0
 1168              		.type	sem1, %object
 1169              		.size	sem1, 12
 1170              	sem1:
 1171 0000 00000000 		.word	sem1
 1172 0004 00000000 		.word	sem1
 1173 0008 00000000 		.word	0
 1174              		.section	.rodata.patternsem,"a"
 1175              		.align	2
 1176              		.type	patternsem, %object
 1177              		.size	patternsem, 20
 1178              	patternsem:
 1179 0000 00000000 		.word	testsem1
 1180 0004 00000000 		.word	testsem2
ARM GAS  /tmp/ccxUSUMi.s 			page 22


 1181 0008 00000000 		.word	testsem3
 1182 000c 00000000 		.word	testsem4
 1183 0010 00000000 		.word	0
 1184              		.section	.rodata.testsem1,"a"
 1185              		.align	2
 1186              		.type	testsem1, %object
 1187              		.size	testsem1, 16
 1188              	testsem1:
 1189 0000 58000000 		.word	.LC9
 1190 0004 00000000 		.word	sem1_setup
 1191 0008 00000000 		.word	0
 1192 000c 00000000 		.word	sem1_execute
 1193              		.section	.rodata.testsem2,"a"
 1194              		.align	2
 1195              		.type	testsem2, %object
 1196              		.size	testsem2, 16
 1197              	testsem2:
 1198 0000 44000000 		.word	.LC8
 1199 0004 00000000 		.word	sem2_setup
 1200 0008 00000000 		.word	0
 1201 000c 00000000 		.word	sem2_execute
 1202              		.section	.rodata.testsem3,"a"
 1203              		.align	2
 1204              		.type	testsem3, %object
 1205              		.size	testsem3, 16
 1206              	testsem3:
 1207 0000 24000000 		.word	.LC7
 1208 0004 00000000 		.word	sem3_setup
 1209 0008 00000000 		.word	0
 1210 000c 00000000 		.word	sem3_execute
 1211              		.section	.rodata.testsem4,"a"
 1212              		.align	2
 1213              		.type	testsem4, %object
 1214              		.size	testsem4, 16
 1215              	testsem4:
 1216 0000 00000000 		.word	.LC6
 1217 0004 00000000 		.word	0
 1218 0008 00000000 		.word	0
 1219 000c 00000000 		.word	sem4_execute
 1220              		.text
 1221              	.Letext0:
 1222              		.file 2 "/usr/lib/gcc/arm-none-eabi/9.2.1/include/stdint.h"
 1223              		.file 3 "../os/ports/GCC/ARM/chtypes.h"
 1224              		.file 4 "../os/kernel/include/chlists.h"
 1225              		.file 5 "../os/kernel/include/chthreads.h"
 1226              		.file 6 "../os/ports/GCC/ARM/chcore.h"
 1227              		.file 7 "../os/kernel/include/chvt.h"
 1228              		.file 8 "../os/kernel/include/chschd.h"
 1229              		.file 9 "../os/kernel/include/chsem.h"
 1230              		.file 10 "../os/kernel/include/chbsem.h"
 1231              		.file 11 "../os/kernel/include/chmtx.h"
 1232              		.file 12 "../os/kernel/include/chregistry.h"
 1233              		.file 13 "../os/kernel/include/ch.h"
 1234              		.file 14 "../test/test.h"