ARM GAS  /tmp/ccNbTKDZ.s 			page 1


   1              		.cpu arm1176jz-s
   2              		.eabi_attribute 20, 1
   3              		.eabi_attribute 21, 1
   4              		.eabi_attribute 23, 3
   5              		.eabi_attribute 24, 1
   6              		.eabi_attribute 25, 1
   7              		.eabi_attribute 26, 1
   8              		.eabi_attribute 30, 2
   9              		.eabi_attribute 34, 1
  10              		.eabi_attribute 18, 4
  11              		.file	"testthd.c"
  12              		.text
  13              	.Ltext0:
  14              		.cfi_sections	.debug_frame
  15              		.section	.rodata.thd1_execute.str1.4,"aMS",%progbits,1
  16              		.align	2
  17              	.LC0:
  18 0000 4500     		.ascii	"E\000"
  19 0002 0000     		.align	2
  20              	.LC1:
  21 0004 4400     		.ascii	"D\000"
  22 0006 0000     		.align	2
  23              	.LC2:
  24 0008 4300     		.ascii	"C\000"
  25 000a 0000     		.align	2
  26              	.LC3:
  27 000c 4200     		.ascii	"B\000"
  28 000e 0000     		.align	2
  29              	.LC4:
  30 0010 4100     		.ascii	"A\000"
  31 0012 0000     		.align	2
  32              	.LC5:
  33 0014 41424344 		.ascii	"ABCDE\000"
  33      4500
  34              		.section	.text.thd1_execute,"ax",%progbits
  35              		.align	2
  36              		.arch armv6kz
  37              		.syntax unified
  38              		.arm
  39              		.fpu softvfp
  40              		.type	thd1_execute, %function
  41              	thd1_execute:
  42              	.LFB8:
  43              		.file 1 "../test/testthd.c"
  44              		.loc 1 70 32 view -0
  45              		.cfi_startproc
  46              		@ args = 0, pretend = 0, frame = 0
  47              		@ frame_needed = 0, uses_anonymous_args = 0
  48              		.loc 1 72 3 view .LVU1
  49              		.loc 1 70 32 is_stmt 0 view .LVU2
  50 0000 F0402DE9 		push	{r4, r5, r6, r7, lr}
  51              		.cfi_def_cfa_offset 20
  52              		.cfi_offset 4, -20
  53              		.cfi_offset 5, -16
  54              		.cfi_offset 6, -12
  55              		.cfi_offset 7, -8
  56              		.cfi_offset 14, -4
ARM GAS  /tmp/ccNbTKDZ.s 			page 2


  57              		.loc 1 72 50 view .LVU3
  58 0004 FC709FE5 		ldr	r7, .L4
  59              		.loc 1 72 16 view .LVU4
  60 0008 FC609FE5 		ldr	r6, .L4+4
  61              		.loc 1 72 50 view .LVU5
  62 000c 183097E5 		ldr	r3, [r7, #24]
  63              		.loc 1 72 16 view .LVU6
  64 0010 F8509FE5 		ldr	r5, .L4+8
  65 0014 082093E5 		ldr	r2, [r3, #8]
  66 0018 F4109FE5 		ldr	r1, .L4+12
  67              		.loc 1 70 32 view .LVU7
  68 001c 0CD04DE2 		sub	sp, sp, #12
  69              		.cfi_def_cfa_offset 32
  70              		.loc 1 72 16 view .LVU8
  71 0020 0630A0E1 		mov	r3, r6
  72 0024 00108DE5 		str	r1, [sp]
  73 0028 000095E5 		ldr	r0, [r5]
  74 002c 461FA0E3 		mov	r1, #280
  75 0030 052042E2 		sub	r2, r2, #5
  76 0034 FEFFFFEB 		bl	chThdCreateStatic
  77              	.LVL0:
  78 0038 00C0A0E1 		mov	ip, r0
  79              		.loc 1 73 50 view .LVU9
  80 003c 183097E5 		ldr	r3, [r7, #24]
  81              		.loc 1 73 16 view .LVU10
  82 0040 D0109FE5 		ldr	r1, .L4+16
  83 0044 082093E5 		ldr	r2, [r3, #8]
  84              		.loc 1 72 14 view .LVU11
  85 0048 CC409FE5 		ldr	r4, .L4+20
  86              		.loc 1 73 16 view .LVU12
  87 004c 0630A0E1 		mov	r3, r6
  88 0050 00108DE5 		str	r1, [sp]
  89 0054 040095E5 		ldr	r0, [r5, #4]
  90 0058 461FA0E3 		mov	r1, #280
  91 005c 042042E2 		sub	r2, r2, #4
  92              		.loc 1 72 14 view .LVU13
  93 0060 00C084E5 		str	ip, [r4]
  94              		.loc 1 73 3 is_stmt 1 view .LVU14
  95              		.loc 1 73 16 is_stmt 0 view .LVU15
  96 0064 FEFFFFEB 		bl	chThdCreateStatic
  97              	.LVL1:
  98 0068 00C0A0E1 		mov	ip, r0
  99              		.loc 1 74 50 view .LVU16
 100 006c 183097E5 		ldr	r3, [r7, #24]
 101              		.loc 1 74 16 view .LVU17
 102 0070 A8109FE5 		ldr	r1, .L4+24
 103 0074 082093E5 		ldr	r2, [r3, #8]
 104 0078 080095E5 		ldr	r0, [r5, #8]
 105 007c 0630A0E1 		mov	r3, r6
 106 0080 00108DE5 		str	r1, [sp]
 107 0084 032042E2 		sub	r2, r2, #3
 108 0088 461FA0E3 		mov	r1, #280
 109              		.loc 1 73 14 view .LVU18
 110 008c 04C084E5 		str	ip, [r4, #4]
 111              		.loc 1 74 3 is_stmt 1 view .LVU19
 112              		.loc 1 74 16 is_stmt 0 view .LVU20
 113 0090 FEFFFFEB 		bl	chThdCreateStatic
ARM GAS  /tmp/ccNbTKDZ.s 			page 3


 114              	.LVL2:
 115 0094 00C0A0E1 		mov	ip, r0
 116              		.loc 1 75 50 view .LVU21
 117 0098 183097E5 		ldr	r3, [r7, #24]
 118              		.loc 1 75 16 view .LVU22
 119 009c 80109FE5 		ldr	r1, .L4+28
 120 00a0 082093E5 		ldr	r2, [r3, #8]
 121 00a4 0C0095E5 		ldr	r0, [r5, #12]
 122 00a8 0630A0E1 		mov	r3, r6
 123 00ac 00108DE5 		str	r1, [sp]
 124 00b0 022042E2 		sub	r2, r2, #2
 125 00b4 461FA0E3 		mov	r1, #280
 126              		.loc 1 74 14 view .LVU23
 127 00b8 08C084E5 		str	ip, [r4, #8]
 128              		.loc 1 75 3 is_stmt 1 view .LVU24
 129              		.loc 1 75 16 is_stmt 0 view .LVU25
 130 00bc FEFFFFEB 		bl	chThdCreateStatic
 131              	.LVL3:
 132 00c0 00C0A0E1 		mov	ip, r0
 133              		.loc 1 76 50 view .LVU26
 134 00c4 183097E5 		ldr	r3, [r7, #24]
 135              		.loc 1 76 16 view .LVU27
 136 00c8 58109FE5 		ldr	r1, .L4+32
 137 00cc 082093E5 		ldr	r2, [r3, #8]
 138 00d0 100095E5 		ldr	r0, [r5, #16]
 139 00d4 0630A0E1 		mov	r3, r6
 140 00d8 012042E2 		sub	r2, r2, #1
 141 00dc 00108DE5 		str	r1, [sp]
 142 00e0 461FA0E3 		mov	r1, #280
 143              		.loc 1 75 14 view .LVU28
 144 00e4 0CC084E5 		str	ip, [r4, #12]
 145              		.loc 1 76 3 is_stmt 1 view .LVU29
 146              		.loc 1 76 16 is_stmt 0 view .LVU30
 147 00e8 FEFFFFEB 		bl	chThdCreateStatic
 148              	.LVL4:
 149              		.loc 1 76 14 view .LVU31
 150 00ec 100084E5 		str	r0, [r4, #16]
 151              		.loc 1 77 3 is_stmt 1 view .LVU32
 152 00f0 FEFFFFEB 		bl	test_wait_threads
 153              	.LVL5:
 154              		.loc 1 78 3 view .LVU33
 155 00f4 0100A0E3 		mov	r0, #1
 156 00f8 2C109FE5 		ldr	r1, .L4+36
 157              		.loc 1 79 1 is_stmt 0 view .LVU34
 158 00fc 0CD08DE2 		add	sp, sp, #12
 159              		.cfi_def_cfa_offset 20
 160              		@ sp needed
 161 0100 F040BDE8 		pop	{r4, r5, r6, r7, lr}
 162              		.cfi_restore 14
 163              		.cfi_restore 7
 164              		.cfi_restore 6
 165              		.cfi_restore 5
 166              		.cfi_restore 4
 167              		.cfi_def_cfa_offset 0
 168              		.loc 1 78 3 view .LVU35
 169 0104 FEFFFFEA 		b	_test_assert_sequence
 170              	.LVL6:
ARM GAS  /tmp/ccNbTKDZ.s 			page 4


 171              	.L5:
 172              		.align	2
 173              	.L4:
 174 0108 00000000 		.word	rlist
 175 010c 00000000 		.word	thread
 176 0110 00000000 		.word	wa
 177 0114 00000000 		.word	.LC0
 178 0118 04000000 		.word	.LC1
 179 011c 00000000 		.word	threads
 180 0120 08000000 		.word	.LC2
 181 0124 0C000000 		.word	.LC3
 182 0128 10000000 		.word	.LC4
 183 012c 14000000 		.word	.LC5
 184              		.cfi_endproc
 185              	.LFE8:
 186              		.size	thd1_execute, .-thd1_execute
 187              		.section	.text.thread,"ax",%progbits
 188              		.align	2
 189              		.syntax unified
 190              		.arm
 191              		.fpu softvfp
 192              		.type	thread, %function
 193              	thread:
 194              	.LVL7:
 195              	.LFB7:
 196              		.loc 1 64 30 is_stmt 1 view -0
 197              		.cfi_startproc
 198              		@ args = 0, pretend = 0, frame = 0
 199              		@ frame_needed = 0, uses_anonymous_args = 0
 200              		.loc 1 66 3 view .LVU37
 201              		.loc 1 64 30 is_stmt 0 view .LVU38
 202 0000 10402DE9 		push	{r4, lr}
 203              		.cfi_def_cfa_offset 8
 204              		.cfi_offset 4, -8
 205              		.cfi_offset 14, -4
 206              		.loc 1 66 3 view .LVU39
 207 0004 0000D0E5 		ldrb	r0, [r0]	@ zero_extendqisi2
 208              	.LVL8:
 209              		.loc 1 66 3 view .LVU40
 210 0008 FEFFFFEB 		bl	test_emit_token
 211              	.LVL9:
 212              		.loc 1 67 3 is_stmt 1 view .LVU41
 213              		.loc 1 68 1 is_stmt 0 view .LVU42
 214 000c 0000A0E3 		mov	r0, #0
 215 0010 1080BDE8 		pop	{r4, pc}
 216              		.cfi_endproc
 217              	.LFE7:
 218              		.size	thread, .-thread
 219              		.section	.text.thd2_execute,"ax",%progbits
 220              		.align	2
 221              		.syntax unified
 222              		.arm
 223              		.fpu softvfp
 224              		.type	thd2_execute, %function
 225              	thd2_execute:
 226              	.LFB9:
 227              		.loc 1 98 32 is_stmt 1 view -0
ARM GAS  /tmp/ccNbTKDZ.s 			page 5


 228              		.cfi_startproc
 229              		@ args = 0, pretend = 0, frame = 0
 230              		@ frame_needed = 0, uses_anonymous_args = 0
 231              		.loc 1 100 3 view .LVU44
 232              		.loc 1 98 32 is_stmt 0 view .LVU45
 233 0000 F0402DE9 		push	{r4, r5, r6, r7, lr}
 234              		.cfi_def_cfa_offset 20
 235              		.cfi_offset 4, -20
 236              		.cfi_offset 5, -16
 237              		.cfi_offset 6, -12
 238              		.cfi_offset 7, -8
 239              		.cfi_offset 14, -4
 240              		.loc 1 100 50 view .LVU46
 241 0004 08719FE5 		ldr	r7, .L10
 242              		.loc 1 100 16 view .LVU47
 243 0008 08619FE5 		ldr	r6, .L10+4
 244              		.loc 1 100 50 view .LVU48
 245 000c 183097E5 		ldr	r3, [r7, #24]
 246              		.loc 1 100 16 view .LVU49
 247 0010 04519FE5 		ldr	r5, .L10+8
 248 0014 082093E5 		ldr	r2, [r3, #8]
 249 0018 00119FE5 		ldr	r1, .L10+12
 250              		.loc 1 98 32 view .LVU50
 251 001c 0CD04DE2 		sub	sp, sp, #12
 252              		.cfi_def_cfa_offset 32
 253              		.loc 1 100 16 view .LVU51
 254 0020 0630A0E1 		mov	r3, r6
 255 0024 00108DE5 		str	r1, [sp]
 256 0028 040095E5 		ldr	r0, [r5, #4]
 257 002c 461FA0E3 		mov	r1, #280
 258 0030 042042E2 		sub	r2, r2, #4
 259 0034 FEFFFFEB 		bl	chThdCreateStatic
 260              	.LVL10:
 261 0038 00C0A0E1 		mov	ip, r0
 262              		.loc 1 101 50 view .LVU52
 263 003c 183097E5 		ldr	r3, [r7, #24]
 264              		.loc 1 101 16 view .LVU53
 265 0040 DC109FE5 		ldr	r1, .L10+16
 266 0044 082093E5 		ldr	r2, [r3, #8]
 267              		.loc 1 100 14 view .LVU54
 268 0048 D8409FE5 		ldr	r4, .L10+20
 269              		.loc 1 101 16 view .LVU55
 270 004c 0630A0E1 		mov	r3, r6
 271 0050 00108DE5 		str	r1, [sp]
 272 0054 000095E5 		ldr	r0, [r5]
 273 0058 461FA0E3 		mov	r1, #280
 274 005c 052042E2 		sub	r2, r2, #5
 275              		.loc 1 100 14 view .LVU56
 276 0060 04C084E5 		str	ip, [r4, #4]
 277              		.loc 1 101 3 is_stmt 1 view .LVU57
 278              		.loc 1 101 16 is_stmt 0 view .LVU58
 279 0064 FEFFFFEB 		bl	chThdCreateStatic
 280              	.LVL11:
 281 0068 00C0A0E1 		mov	ip, r0
 282              		.loc 1 102 50 view .LVU59
 283 006c 183097E5 		ldr	r3, [r7, #24]
 284              		.loc 1 102 16 view .LVU60
ARM GAS  /tmp/ccNbTKDZ.s 			page 6


 285 0070 B4109FE5 		ldr	r1, .L10+24
 286 0074 082093E5 		ldr	r2, [r3, #8]
 287 0078 100095E5 		ldr	r0, [r5, #16]
 288 007c 0630A0E1 		mov	r3, r6
 289 0080 00108DE5 		str	r1, [sp]
 290 0084 012042E2 		sub	r2, r2, #1
 291 0088 461FA0E3 		mov	r1, #280
 292              		.loc 1 101 14 view .LVU61
 293 008c 00C084E5 		str	ip, [r4]
 294              		.loc 1 102 3 is_stmt 1 view .LVU62
 295              		.loc 1 102 16 is_stmt 0 view .LVU63
 296 0090 FEFFFFEB 		bl	chThdCreateStatic
 297              	.LVL12:
 298 0094 00C0A0E1 		mov	ip, r0
 299              		.loc 1 103 50 view .LVU64
 300 0098 183097E5 		ldr	r3, [r7, #24]
 301              		.loc 1 103 16 view .LVU65
 302 009c 8C109FE5 		ldr	r1, .L10+28
 303 00a0 082093E5 		ldr	r2, [r3, #8]
 304 00a4 0C0095E5 		ldr	r0, [r5, #12]
 305 00a8 00108DE5 		str	r1, [sp]
 306 00ac 0630A0E1 		mov	r3, r6
 307 00b0 461FA0E3 		mov	r1, #280
 308 00b4 022042E2 		sub	r2, r2, #2
 309              		.loc 1 102 14 view .LVU66
 310 00b8 10C084E5 		str	ip, [r4, #16]
 311              		.loc 1 103 3 is_stmt 1 view .LVU67
 312              		.loc 1 103 16 is_stmt 0 view .LVU68
 313 00bc FEFFFFEB 		bl	chThdCreateStatic
 314              	.LVL13:
 315              		.loc 1 103 14 view .LVU69
 316 00c0 0C0084E5 		str	r0, [r4, #12]
 317              		.loc 1 105 3 is_stmt 1 view .LVU70
 318              		.syntax divided
 319              	@ 105 "../test/testthd.c" 1
 320 00c4 9FF021E3 		msr     CPSR_c, #0x9F
 321              	@ 0 "" 2
 322              		.loc 1 105 3 view .LVU71
 323              		.loc 1 105 14 view .LVU72
 324              		.loc 1 106 3 view .LVU73
 325              		.loc 1 106 45 is_stmt 0 view .LVU74
 326              		.arm
 327              		.syntax unified
 328 00c8 183097E5 		ldr	r3, [r7, #24]
 329              		.loc 1 106 16 view .LVU75
 330 00cc 60109FE5 		ldr	r1, .L10+32
 331 00d0 082093E5 		ldr	r2, [r3, #8]
 332 00d4 080095E5 		ldr	r0, [r5, #8]
 333 00d8 00108DE5 		str	r1, [sp]
 334 00dc 0630A0E1 		mov	r3, r6
 335 00e0 461FA0E3 		mov	r1, #280
 336 00e4 032042E2 		sub	r2, r2, #3
 337 00e8 FEFFFFEB 		bl	chThdCreateI
 338              	.LVL14:
 339              		.loc 1 106 14 view .LVU76
 340 00ec 080084E5 		str	r0, [r4, #8]
 341              		.loc 1 107 3 is_stmt 1 view .LVU77
ARM GAS  /tmp/ccNbTKDZ.s 			page 7


 342              		.loc 1 107 3 view .LVU78
 343              		.syntax divided
 344              	@ 107 "../test/testthd.c" 1
 345 00f0 1FF021E3 		msr     CPSR_c, #0x1F
 346              	@ 0 "" 2
 347              		.loc 1 107 16 view .LVU79
 348              		.loc 1 108 3 view .LVU80
 349              		.arm
 350              		.syntax unified
 351 00f4 080094E5 		ldr	r0, [r4, #8]
 352 00f8 FEFFFFEB 		bl	chThdResume
 353              	.LVL15:
 354              		.loc 1 109 3 view .LVU81
 355 00fc FEFFFFEB 		bl	test_wait_threads
 356              	.LVL16:
 357              		.loc 1 110 3 view .LVU82
 358 0100 0100A0E3 		mov	r0, #1
 359 0104 2C109FE5 		ldr	r1, .L10+36
 360              		.loc 1 111 1 is_stmt 0 view .LVU83
 361 0108 0CD08DE2 		add	sp, sp, #12
 362              		.cfi_def_cfa_offset 20
 363              		@ sp needed
 364 010c F040BDE8 		pop	{r4, r5, r6, r7, lr}
 365              		.cfi_restore 14
 366              		.cfi_restore 7
 367              		.cfi_restore 6
 368              		.cfi_restore 5
 369              		.cfi_restore 4
 370              		.cfi_def_cfa_offset 0
 371              		.loc 1 110 3 view .LVU84
 372 0110 FEFFFFEA 		b	_test_assert_sequence
 373              	.LVL17:
 374              	.L11:
 375              		.align	2
 376              	.L10:
 377 0114 00000000 		.word	rlist
 378 0118 00000000 		.word	thread
 379 011c 00000000 		.word	wa
 380 0120 04000000 		.word	.LC1
 381 0124 00000000 		.word	.LC0
 382 0128 00000000 		.word	threads
 383 012c 10000000 		.word	.LC4
 384 0130 0C000000 		.word	.LC3
 385 0134 08000000 		.word	.LC2
 386 0138 14000000 		.word	.LC5
 387              		.cfi_endproc
 388              	.LFE9:
 389              		.size	thd2_execute, .-thd2_execute
 390              		.section	.text.thd3_execute,"ax",%progbits
 391              		.align	2
 392              		.syntax unified
 393              		.arm
 394              		.fpu softvfp
 395              		.type	thd3_execute, %function
 396              	thd3_execute:
 397              	.LFB10:
 398              		.loc 1 130 32 is_stmt 1 view -0
ARM GAS  /tmp/ccNbTKDZ.s 			page 8


 399              		.cfi_startproc
 400              		@ args = 0, pretend = 0, frame = 0
 401              		@ frame_needed = 0, uses_anonymous_args = 0
 402              		.loc 1 131 3 view .LVU86
 403              		.loc 1 133 3 view .LVU87
 404              		.loc 1 130 32 is_stmt 0 view .LVU88
 405 0000 F0412DE9 		push	{r4, r5, r6, r7, r8, lr}
 406              		.cfi_def_cfa_offset 24
 407              		.cfi_offset 4, -24
 408              		.cfi_offset 5, -20
 409              		.cfi_offset 6, -16
 410              		.cfi_offset 7, -12
 411              		.cfi_offset 8, -8
 412              		.cfi_offset 14, -4
 413              		.loc 1 133 10 view .LVU89
 414 0004 D8719FE5 		ldr	r7, .L17
 415              		.loc 1 133 8 view .LVU90
 416 0008 183097E5 		ldr	r3, [r7, #24]
 417 000c 085093E5 		ldr	r5, [r3, #8]
 418              	.LVL18:
 419              		.loc 1 134 3 is_stmt 1 view .LVU91
 420              		.loc 1 134 8 is_stmt 0 view .LVU92
 421 0010 016085E2 		add	r6, r5, #1
 422 0014 0600A0E1 		mov	r0, r6
 423 0018 FEFFFFEB 		bl	chThdSetPriority
 424              	.LVL19:
 425 001c 0040A0E1 		mov	r4, r0
 426              	.LVL20:
 427              		.loc 1 135 3 is_stmt 1 view .LVU93
 428 0020 041045E0 		sub	r1, r5, r4
 429 0024 111F6FE1 		clz	r1, r1
 430 0028 0100A0E3 		mov	r0, #1
 431              	.LVL21:
 432              		.loc 1 135 3 is_stmt 0 view .LVU94
 433 002c A112A0E1 		lsr	r1, r1, #5
 434 0030 FEFFFFEB 		bl	_test_assert
 435              	.LVL22:
 436 0034 000050E3 		cmp	r0, #0
 437 0038 F081BD18 		popne	{r4, r5, r6, r7, r8, pc}
 438              		.loc 1 136 52 is_stmt 1 view .LVU95
 439              		.loc 1 137 3 view .LVU96
 440 003c 183097E5 		ldr	r3, [r7, #24]
 441 0040 0200A0E3 		mov	r0, #2
 442 0044 081093E5 		ldr	r1, [r3, #8]
 443 0048 061041E0 		sub	r1, r1, r6
 444 004c 111F6FE1 		clz	r1, r1
 445 0050 A112A0E1 		lsr	r1, r1, #5
 446 0054 FEFFFFEB 		bl	_test_assert
 447              	.LVL23:
 448 0058 000050E3 		cmp	r0, #0
 449 005c F081BD18 		popne	{r4, r5, r6, r7, r8, pc}
 450              		.loc 1 138 43 view .LVU97
 451              		.loc 1 139 3 view .LVU98
 452              		.loc 1 139 8 is_stmt 0 view .LVU99
 453 0060 0400A0E1 		mov	r0, r4
 454 0064 FEFFFFEB 		bl	chThdSetPriority
 455              	.LVL24:
ARM GAS  /tmp/ccNbTKDZ.s 			page 9


 456 0068 0010A0E1 		mov	r1, r0
 457              	.LVL25:
 458              		.loc 1 140 3 is_stmt 1 view .LVU100
 459 006c 011046E0 		sub	r1, r6, r1
 460 0070 111F6FE1 		clz	r1, r1
 461 0074 0300A0E3 		mov	r0, #3
 462              	.LVL26:
 463              		.loc 1 140 3 is_stmt 0 view .LVU101
 464 0078 A112A0E1 		lsr	r1, r1, #5
 465 007c FEFFFFEB 		bl	_test_assert
 466              	.LVL27:
 467 0080 000050E3 		cmp	r0, #0
 468 0084 F081BD18 		popne	{r4, r5, r6, r7, r8, pc}
 469              		.loc 1 141 52 is_stmt 1 view .LVU102
 470              		.loc 1 142 3 view .LVU103
 471 0088 183097E5 		ldr	r3, [r7, #24]
 472 008c 0400A0E3 		mov	r0, #4
 473 0090 081093E5 		ldr	r1, [r3, #8]
 474 0094 051041E0 		sub	r1, r1, r5
 475 0098 111F6FE1 		clz	r1, r1
 476 009c A112A0E1 		lsr	r1, r1, #5
 477 00a0 FEFFFFEB 		bl	_test_assert
 478              	.LVL28:
 479 00a4 000050E3 		cmp	r0, #0
 480 00a8 F081BD18 		popne	{r4, r5, r6, r7, r8, pc}
 481              		.loc 1 143 43 view .LVU104
 482              		.loc 1 147 3 view .LVU105
 483              		.syntax divided
 484              	@ 147 "../test/testthd.c" 1
 485 00ac 9FF021E3 		msr     CPSR_c, #0x9F
 486              	@ 0 "" 2
 487              		.loc 1 147 3 view .LVU106
 488              		.loc 1 147 14 view .LVU107
 489              		.loc 1 148 3 view .LVU108
 490              		.arm
 491              		.syntax unified
 492 00b0 182097E5 		ldr	r2, [r7, #24]
 493              		.loc 1 148 23 is_stmt 0 view .LVU109
 494 00b4 083092E5 		ldr	r3, [r2, #8]
 495 00b8 023083E2 		add	r3, r3, #2
 496 00bc 083082E5 		str	r3, [r2, #8]
 497              		.loc 1 149 3 is_stmt 1 view .LVU110
 498              		.loc 1 149 3 view .LVU111
 499              		.syntax divided
 500              	@ 149 "../test/testthd.c" 1
 501 00c0 1FF021E3 		msr     CPSR_c, #0x1F
 502              	@ 0 "" 2
 503              		.loc 1 149 16 view .LVU112
 504              		.loc 1 150 3 view .LVU113
 505              		.arm
 506              		.syntax unified
 507 00c4 183097E5 		ldr	r3, [r7, #24]
 508 00c8 024085E2 		add	r4, r5, #2
 509 00cc 081093E5 		ldr	r1, [r3, #8]
 510 00d0 0500A0E3 		mov	r0, #5
 511 00d4 041041E0 		sub	r1, r1, r4
 512 00d8 111F6FE1 		clz	r1, r1
ARM GAS  /tmp/ccNbTKDZ.s 			page 10


 513 00dc A112A0E1 		lsr	r1, r1, #5
 514 00e0 FEFFFFEB 		bl	_test_assert
 515              	.LVL29:
 516 00e4 000050E3 		cmp	r0, #0
 517 00e8 F081BD18 		popne	{r4, r5, r6, r7, r8, pc}
 518              		.loc 1 151 43 view .LVU114
 519              		.loc 1 154 3 view .LVU115
 520              		.loc 1 154 8 is_stmt 0 view .LVU116
 521 00ec 0600A0E1 		mov	r0, r6
 522 00f0 FEFFFFEB 		bl	chThdSetPriority
 523              	.LVL30:
 524 00f4 0010A0E1 		mov	r1, r0
 525              	.LVL31:
 526              		.loc 1 155 3 is_stmt 1 view .LVU117
 527 00f8 011045E0 		sub	r1, r5, r1
 528 00fc 111F6FE1 		clz	r1, r1
 529 0100 0600A0E3 		mov	r0, #6
 530              	.LVL32:
 531              		.loc 1 155 3 is_stmt 0 view .LVU118
 532 0104 A112A0E1 		lsr	r1, r1, #5
 533 0108 FEFFFFEB 		bl	_test_assert
 534              	.LVL33:
 535 010c 000050E3 		cmp	r0, #0
 536 0110 F081BD18 		popne	{r4, r5, r6, r7, r8, pc}
 537              		.loc 1 156 52 is_stmt 1 view .LVU119
 538              		.loc 1 157 3 view .LVU120
 539 0114 183097E5 		ldr	r3, [r7, #24]
 540 0118 0700A0E3 		mov	r0, #7
 541 011c 081093E5 		ldr	r1, [r3, #8]
 542 0120 041041E0 		sub	r1, r1, r4
 543 0124 111F6FE1 		clz	r1, r1
 544 0128 A112A0E1 		lsr	r1, r1, #5
 545 012c FEFFFFEB 		bl	_test_assert
 546              	.LVL34:
 547 0130 000050E3 		cmp	r0, #0
 548 0134 F081BD18 		popne	{r4, r5, r6, r7, r8, pc}
 549              		.loc 1 158 43 view .LVU121
 550              		.loc 1 159 3 view .LVU122
 551 0138 183097E5 		ldr	r3, [r7, #24]
 552 013c 0800A0E3 		mov	r0, #8
 553 0140 401093E5 		ldr	r1, [r3, #64]
 554 0144 061041E0 		sub	r1, r1, r6
 555 0148 111F6FE1 		clz	r1, r1
 556 014c A112A0E1 		lsr	r1, r1, #5
 557 0150 FEFFFFEB 		bl	_test_assert
 558              	.LVL35:
 559 0154 000050E3 		cmp	r0, #0
 560 0158 F081BD18 		popne	{r4, r5, r6, r7, r8, pc}
 561              		.loc 1 160 57 view .LVU123
 562              		.loc 1 163 3 view .LVU124
 563              		.loc 1 163 8 is_stmt 0 view .LVU125
 564 015c 034085E2 		add	r4, r5, #3
 565 0160 0400A0E1 		mov	r0, r4
 566 0164 FEFFFFEB 		bl	chThdSetPriority
 567              	.LVL36:
 568              		.loc 1 164 3 is_stmt 1 view .LVU126
 569 0168 001046E0 		sub	r1, r6, r0
ARM GAS  /tmp/ccNbTKDZ.s 			page 11


 570 016c 111F6FE1 		clz	r1, r1
 571 0170 0900A0E3 		mov	r0, #9
 572              	.LVL37:
 573              		.loc 1 164 3 is_stmt 0 view .LVU127
 574 0174 A112A0E1 		lsr	r1, r1, #5
 575 0178 FEFFFFEB 		bl	_test_assert
 576              	.LVL38:
 577 017c 000050E3 		cmp	r0, #0
 578 0180 F081BD18 		popne	{r4, r5, r6, r7, r8, pc}
 579              		.loc 1 165 52 is_stmt 1 view .LVU128
 580              		.loc 1 166 3 view .LVU129
 581 0184 183097E5 		ldr	r3, [r7, #24]
 582 0188 0A00A0E3 		mov	r0, #10
 583 018c 081093E5 		ldr	r1, [r3, #8]
 584 0190 041041E0 		sub	r1, r1, r4
 585 0194 111F6FE1 		clz	r1, r1
 586 0198 A112A0E1 		lsr	r1, r1, #5
 587 019c FEFFFFEB 		bl	_test_assert
 588              	.LVL39:
 589 01a0 000050E3 		cmp	r0, #0
 590 01a4 F081BD18 		popne	{r4, r5, r6, r7, r8, pc}
 591              		.loc 1 167 43 view .LVU130
 592              		.loc 1 168 3 view .LVU131
 593 01a8 183097E5 		ldr	r3, [r7, #24]
 594 01ac 0B00A0E3 		mov	r0, #11
 595 01b0 401093E5 		ldr	r1, [r3, #64]
 596 01b4 041041E0 		sub	r1, r1, r4
 597 01b8 111F6FE1 		clz	r1, r1
 598 01bc A112A0E1 		lsr	r1, r1, #5
 599 01c0 FEFFFFEB 		bl	_test_assert
 600              	.LVL40:
 601 01c4 000050E3 		cmp	r0, #0
 602 01c8 F081BD18 		popne	{r4, r5, r6, r7, r8, pc}
 603              		.loc 1 169 48 view .LVU132
 604              		.loc 1 171 3 view .LVU133
 605              		.syntax divided
 606              	@ 171 "../test/testthd.c" 1
 607 01cc 9FF021E3 		msr     CPSR_c, #0x9F
 608              	@ 0 "" 2
 609              		.loc 1 171 3 view .LVU134
 610              		.loc 1 171 14 view .LVU135
 611              		.loc 1 172 3 view .LVU136
 612              		.arm
 613              		.syntax unified
 614 01d0 183097E5 		ldr	r3, [r7, #24]
 615              		.loc 1 172 23 is_stmt 0 view .LVU137
 616 01d4 085083E5 		str	r5, [r3, #8]
 617              		.loc 1 173 3 is_stmt 1 view .LVU138
 618              		.loc 1 173 27 is_stmt 0 view .LVU139
 619 01d8 405083E5 		str	r5, [r3, #64]
 620              		.loc 1 174 3 is_stmt 1 view .LVU140
 621              		.loc 1 174 3 view .LVU141
 622              		.syntax divided
 623              	@ 174 "../test/testthd.c" 1
 624 01dc 1FF021E3 		msr     CPSR_c, #0x1F
 625              	@ 0 "" 2
 626              		.loc 1 174 16 view .LVU142
ARM GAS  /tmp/ccNbTKDZ.s 			page 12


 627              		.loc 1 176 1 is_stmt 0 view .LVU143
 628              		.arm
 629              		.syntax unified
 630 01e0 F081BDE8 		pop	{r4, r5, r6, r7, r8, pc}
 631              	.L18:
 632              		.align	2
 633              	.L17:
 634 01e4 00000000 		.word	rlist
 635              		.cfi_endproc
 636              	.LFE10:
 637              		.size	thd3_execute, .-thd3_execute
 638              		.section	.text.thd4_execute,"ax",%progbits
 639              		.align	2
 640              		.syntax unified
 641              		.arm
 642              		.fpu softvfp
 643              		.type	thd4_execute, %function
 644              	thd4_execute:
 645              	.LFB11:
 646              		.loc 1 193 32 is_stmt 1 view -0
 647              		.cfi_startproc
 648              		@ args = 0, pretend = 0, frame = 0
 649              		@ frame_needed = 0, uses_anonymous_args = 0
 650              		.loc 1 194 3 view .LVU145
 651              		.loc 1 196 3 view .LVU146
 652              		.loc 1 193 32 is_stmt 0 view .LVU147
 653 0000 70402DE9 		push	{r4, r5, r6, lr}
 654              		.cfi_def_cfa_offset 16
 655              		.cfi_offset 4, -16
 656              		.cfi_offset 5, -12
 657              		.cfi_offset 6, -8
 658              		.cfi_offset 14, -4
 659              		.loc 1 199 8 view .LVU148
 660 0004 90509FE5 		ldr	r5, .L24
 661              		.loc 1 196 3 view .LVU149
 662 0008 FEFFFFEB 		bl	test_wait_tick
 663              	.LVL41:
 664              		.loc 1 199 3 is_stmt 1 view .LVU150
 665              		.loc 1 199 8 is_stmt 0 view .LVU151
 666 000c 0C4095E5 		ldr	r4, [r5, #12]
 667              	.LVL42:
 668              		.loc 1 200 3 is_stmt 1 view .LVU152
 669 0010 6400A0E3 		mov	r0, #100
 670 0014 FEFFFFEB 		bl	chThdSleep
 671              	.LVL43:
 672              		.loc 1 201 3 view .LVU153
 673 0018 0100A0E3 		mov	r0, #1
 674 001c 652084E2 		add	r2, r4, #101
 675 0020 641084E2 		add	r1, r4, #100
 676 0024 FEFFFFEB 		bl	_test_assert_time_window
 677              	.LVL44:
 678 0028 000050E3 		cmp	r0, #0
 679 002c 7080BD18 		popne	{r4, r5, r6, pc}
 680              		.loc 1 201 77 discriminator 2 view .LVU154
 681              		.loc 1 204 3 discriminator 2 view .LVU155
 682              		.loc 1 204 8 is_stmt 0 discriminator 2 view .LVU156
 683 0030 0C4095E5 		ldr	r4, [r5, #12]
ARM GAS  /tmp/ccNbTKDZ.s 			page 13


 684              	.LVL45:
 685              		.loc 1 205 3 is_stmt 1 discriminator 2 view .LVU157
 686 0034 6400A0E3 		mov	r0, #100
 687 0038 FEFFFFEB 		bl	chThdSleep
 688              	.LVL46:
 689              		.loc 1 206 3 discriminator 2 view .LVU158
 690 003c 0200A0E3 		mov	r0, #2
 691 0040 652084E2 		add	r2, r4, #101
 692 0044 641084E2 		add	r1, r4, #100
 693 0048 FEFFFFEB 		bl	_test_assert_time_window
 694              	.LVL47:
 695 004c 000050E3 		cmp	r0, #0
 696 0050 7080BD18 		popne	{r4, r5, r6, pc}
 697              	.LBB4:
 698              	.LBI4:
 699              		.loc 1 193 13 view .LVU159
 700              	.LBB5:
 701              		.loc 1 206 71 view .LVU160
 702              		.loc 1 209 3 view .LVU161
 703              		.loc 1 209 8 is_stmt 0 view .LVU162
 704 0054 0C4095E5 		ldr	r4, [r5, #12]
 705              	.LVL48:
 706              		.loc 1 210 3 is_stmt 1 view .LVU163
 707 0058 FA0FA0E3 		mov	r0, #1000
 708 005c FEFFFFEB 		bl	chThdSleep
 709              	.LVL49:
 710              		.loc 1 211 3 view .LVU164
 711 0060 FA1F84E2 		add	r1, r4, #1000
 712 0064 0300A0E3 		mov	r0, #3
 713 0068 012081E2 		add	r2, r1, #1
 714 006c FEFFFFEB 		bl	_test_assert_time_window
 715              	.LVL50:
 716 0070 000050E3 		cmp	r0, #0
 717 0074 7080BD18 		popne	{r4, r5, r6, pc}
 718              		.loc 1 211 65 view .LVU165
 719              		.loc 1 214 3 view .LVU166
 720              		.loc 1 214 10 is_stmt 0 view .LVU167
 721 0078 0C4095E5 		ldr	r4, [r5, #12]
 722              	.LVL51:
 723              		.loc 1 214 8 view .LVU168
 724 007c 645084E2 		add	r5, r4, #100
 725              	.LVL52:
 726              		.loc 1 215 3 is_stmt 1 view .LVU169
 727 0080 0500A0E1 		mov	r0, r5
 728 0084 FEFFFFEB 		bl	chThdSleepUntil
 729              	.LVL53:
 730              		.loc 1 216 3 view .LVU170
 731 0088 0510A0E1 		mov	r1, r5
 732 008c 652084E2 		add	r2, r4, #101
 733 0090 0400A0E3 		mov	r0, #4
 734              	.LBE5:
 735              	.LBE4:
 736              		.loc 1 217 1 is_stmt 0 view .LVU171
 737 0094 7040BDE8 		pop	{r4, r5, r6, lr}
 738              		.cfi_restore 14
 739              		.cfi_restore 6
 740              		.cfi_restore 5
ARM GAS  /tmp/ccNbTKDZ.s 			page 14


 741              		.cfi_restore 4
 742              		.cfi_def_cfa_offset 0
 743              	.LVL54:
 744              	.LBB7:
 745              	.LBB6:
 746              		.loc 1 216 3 view .LVU172
 747 0098 FEFFFFEA 		b	_test_assert_time_window
 748              	.LVL55:
 749              	.L25:
 750              		.loc 1 216 3 view .LVU173
 751              		.align	2
 752              	.L24:
 753 009c 00000000 		.word	vtlist
 754              	.LBE6:
 755              	.LBE7:
 756              		.cfi_endproc
 757              	.LFE11:
 758              		.size	thd4_execute, .-thd4_execute
 759              		.global	patternthd
 760              		.global	testthd4
 761              		.section	.rodata.str1.4,"aMS",%progbits,1
 762              		.align	2
 763              	.LC6:
 764 0000 54687265 		.ascii	"Threads, delays\000"
 764      6164732C 
 764      2064656C 
 764      61797300 
 765              		.global	testthd3
 766              		.align	2
 767              	.LC7:
 768 0010 54687265 		.ascii	"Threads, priority change\000"
 768      6164732C 
 768      20707269 
 768      6F726974 
 768      79206368 
 769              		.global	testthd2
 770 0029 000000   		.align	2
 771              	.LC8:
 772 002c 54687265 		.ascii	"Threads, enqueuing test #2\000"
 772      6164732C 
 772      20656E71 
 772      75657569 
 772      6E672074 
 773              		.global	testthd1
 774 0047 00       		.align	2
 775              	.LC9:
 776 0048 54687265 		.ascii	"Threads, enqueuing test #1\000"
 776      6164732C 
 776      20656E71 
 776      75657569 
 776      6E672074 
 777              		.section	.rodata.patternthd,"a"
 778              		.align	2
 779              		.type	patternthd, %object
 780              		.size	patternthd, 20
 781              	patternthd:
 782 0000 00000000 		.word	testthd1
ARM GAS  /tmp/ccNbTKDZ.s 			page 15


 783 0004 00000000 		.word	testthd2
 784 0008 00000000 		.word	testthd3
 785 000c 00000000 		.word	testthd4
 786 0010 00000000 		.word	0
 787              		.section	.rodata.testthd1,"a"
 788              		.align	2
 789              		.type	testthd1, %object
 790              		.size	testthd1, 16
 791              	testthd1:
 792 0000 48000000 		.word	.LC9
 793 0004 00000000 		.word	0
 794 0008 00000000 		.word	0
 795 000c 00000000 		.word	thd1_execute
 796              		.section	.rodata.testthd2,"a"
 797              		.align	2
 798              		.type	testthd2, %object
 799              		.size	testthd2, 16
 800              	testthd2:
 801 0000 2C000000 		.word	.LC8
 802 0004 00000000 		.word	0
 803 0008 00000000 		.word	0
 804 000c 00000000 		.word	thd2_execute
 805              		.section	.rodata.testthd3,"a"
 806              		.align	2
 807              		.type	testthd3, %object
 808              		.size	testthd3, 16
 809              	testthd3:
 810 0000 10000000 		.word	.LC7
 811 0004 00000000 		.word	0
 812 0008 00000000 		.word	0
 813 000c 00000000 		.word	thd3_execute
 814              		.section	.rodata.testthd4,"a"
 815              		.align	2
 816              		.type	testthd4, %object
 817              		.size	testthd4, 16
 818              	testthd4:
 819 0000 00000000 		.word	.LC6
 820 0004 00000000 		.word	0
 821 0008 00000000 		.word	0
 822 000c 00000000 		.word	thd4_execute
 823              		.text
 824              	.Letext0:
 825              		.file 2 "/usr/lib/gcc/arm-none-eabi/9.2.1/include/stdint.h"
 826              		.file 3 "../os/ports/GCC/ARM/chtypes.h"
 827              		.file 4 "../os/kernel/include/chlists.h"
 828              		.file 5 "../os/kernel/include/chthreads.h"
 829              		.file 6 "../os/ports/GCC/ARM/chcore.h"
 830              		.file 7 "../os/kernel/include/chvt.h"
 831              		.file 8 "../os/kernel/include/chschd.h"
 832              		.file 9 "../os/kernel/include/chmtx.h"
 833              		.file 10 "../os/kernel/include/chregistry.h"
 834              		.file 11 "../os/kernel/include/ch.h"
 835              		.file 12 "../test/test.h"