ARM GAS  /tmp/ccLBGe59.s 			page 1


   1              		.cpu arm1176jz-s
   2              		.eabi_attribute 20, 1
   3              		.eabi_attribute 21, 1
   4              		.eabi_attribute 23, 3
   5              		.eabi_attribute 24, 1
   6              		.eabi_attribute 25, 1
   7              		.eabi_attribute 26, 1
   8              		.eabi_attribute 30, 2
   9              		.eabi_attribute 34, 1
  10              		.eabi_attribute 18, 4
  11              		.file	"testqueues.c"
  12              		.text
  13              	.Ltext0:
  14              		.cfi_sections	.debug_frame
  15              		.section	.text.notify,"ax",%progbits
  16              		.align	2
  17              		.arch armv6kz
  18              		.syntax unified
  19              		.arm
  20              		.fpu softvfp
  21              		.type	notify, %function
  22              	notify:
  23              	.LVL0:
  24              	.LFB7:
  25              		.file 1 "../test/testqueues.c"
  26              		.loc 1 61 38 view -0
  27              		.cfi_startproc
  28              		@ args = 0, pretend = 0, frame = 0
  29              		@ frame_needed = 0, uses_anonymous_args = 0
  30              		@ link register save eliminated.
  31              		.loc 1 62 3 view .LVU1
  32              		.loc 1 63 1 is_stmt 0 view .LVU2
  33 0000 1EFF2FE1 		bx	lr
  34              		.cfi_endproc
  35              	.LFE7:
  36              		.size	notify, .-notify
  37              		.section	.text.thread1,"ax",%progbits
  38              		.align	2
  39              		.syntax unified
  40              		.arm
  41              		.fpu softvfp
  42              		.type	thread1, %function
  43              	thread1:
  44              	.LVL1:
  45              	.LFB9:
  46              		.loc 1 87 31 is_stmt 1 view -0
  47              		.cfi_startproc
  48              		@ args = 0, pretend = 0, frame = 0
  49              		@ frame_needed = 0, uses_anonymous_args = 0
  50              		.loc 1 89 3 view .LVU4
  51              		.loc 1 90 3 view .LVU5
  52 0000 C810A0E3 		mov	r1, #200
  53              		.loc 1 87 31 is_stmt 0 view .LVU6
  54 0004 10402DE9 		push	{r4, lr}
  55              		.cfi_def_cfa_offset 8
  56              		.cfi_offset 4, -8
  57              		.cfi_offset 14, -4
ARM GAS  /tmp/ccLBGe59.s 			page 2


  58              		.loc 1 90 3 view .LVU7
  59 0008 08009FE5 		ldr	r0, .L5
  60              	.LVL2:
  61              		.loc 1 90 3 view .LVU8
  62 000c FEFFFFEB 		bl	chIQGetTimeout
  63              	.LVL3:
  64              		.loc 1 91 3 is_stmt 1 view .LVU9
  65              		.loc 1 92 1 is_stmt 0 view .LVU10
  66 0010 0000A0E3 		mov	r0, #0
  67 0014 1080BDE8 		pop	{r4, pc}
  68              	.L6:
  69              		.align	2
  70              	.L5:
  71 0018 00000000 		.word	.LANCHOR0
  72              		.cfi_endproc
  73              	.LFE9:
  74              		.size	thread1, .-thread1
  75              		.section	.text.queues1_setup,"ax",%progbits
  76              		.align	2
  77              		.syntax unified
  78              		.arm
  79              		.fpu softvfp
  80              		.type	queues1_setup, %function
  81              	queues1_setup:
  82              	.LFB8:
  83              		.loc 1 82 33 is_stmt 1 view -0
  84              		.cfi_startproc
  85              		@ args = 0, pretend = 0, frame = 0
  86              		@ frame_needed = 0, uses_anonymous_args = 0
  87              		.loc 1 84 3 view .LVU12
  88 0000 0020A0E3 		mov	r2, #0
  89              		.loc 1 82 33 is_stmt 0 view .LVU13
  90 0004 04E02DE5 		str	lr, [sp, #-4]!
  91              		.cfi_def_cfa_offset 4
  92              		.cfi_offset 14, -4
  93              		.loc 1 84 19 view .LVU14
  94 0008 20309FE5 		ldr	r3, .L9
  95              		.loc 1 82 33 view .LVU15
  96 000c 0CD04DE2 		sub	sp, sp, #12
  97              		.cfi_def_cfa_offset 16
  98              		.loc 1 84 3 view .LVU16
  99 0010 001093E5 		ldr	r1, [r3]
 100 0014 00208DE5 		str	r2, [sp]
 101 0018 14309FE5 		ldr	r3, .L9+4
 102 001c 0420A0E3 		mov	r2, #4
 103 0020 10009FE5 		ldr	r0, .L9+8
 104 0024 FEFFFFEB 		bl	chIQInit
 105              	.LVL4:
 106              		.loc 1 85 1 view .LVU17
 107 0028 0CD08DE2 		add	sp, sp, #12
 108              		.cfi_def_cfa_offset 4
 109              		@ sp needed
 110 002c 04F09DE4 		ldr	pc, [sp], #4
 111              	.L10:
 112              		.align	2
 113              	.L9:
 114 0030 00000000 		.word	wa
ARM GAS  /tmp/ccLBGe59.s 			page 3


 115 0034 00000000 		.word	notify
 116 0038 00000000 		.word	.LANCHOR0
 117              		.cfi_endproc
 118              	.LFE8:
 119              		.size	queues1_setup, .-queues1_setup
 120              		.section	.text.thread2,"ax",%progbits
 121              		.align	2
 122              		.syntax unified
 123              		.arm
 124              		.fpu softvfp
 125              		.type	thread2, %function
 126              	thread2:
 127              	.LVL5:
 128              	.LFB12:
 129              		.loc 1 174 31 is_stmt 1 view -0
 130              		.cfi_startproc
 131              		@ args = 0, pretend = 0, frame = 0
 132              		@ frame_needed = 0, uses_anonymous_args = 0
 133              		.loc 1 176 3 view .LVU19
 134              		.loc 1 177 3 view .LVU20
 135 0000 C820A0E3 		mov	r2, #200
 136 0004 0010A0E3 		mov	r1, #0
 137              		.loc 1 174 31 is_stmt 0 view .LVU21
 138 0008 10402DE9 		push	{r4, lr}
 139              		.cfi_def_cfa_offset 8
 140              		.cfi_offset 4, -8
 141              		.cfi_offset 14, -4
 142              		.loc 1 177 3 view .LVU22
 143 000c 08009FE5 		ldr	r0, .L13
 144              	.LVL6:
 145              		.loc 1 177 3 view .LVU23
 146 0010 FEFFFFEB 		bl	chOQPutTimeout
 147              	.LVL7:
 148              		.loc 1 178 3 is_stmt 1 view .LVU24
 149              		.loc 1 179 1 is_stmt 0 view .LVU25
 150 0014 0000A0E3 		mov	r0, #0
 151 0018 1080BDE8 		pop	{r4, pc}
 152              	.L14:
 153              		.align	2
 154              	.L13:
 155 001c 00000000 		.word	.LANCHOR1
 156              		.cfi_endproc
 157              	.LFE12:
 158              		.size	thread2, .-thread2
 159              		.section	.text.queues2_setup,"ax",%progbits
 160              		.align	2
 161              		.syntax unified
 162              		.arm
 163              		.fpu softvfp
 164              		.type	queues2_setup, %function
 165              	queues2_setup:
 166              	.LFB11:
 167              		.loc 1 169 33 is_stmt 1 view -0
 168              		.cfi_startproc
 169              		@ args = 0, pretend = 0, frame = 0
 170              		@ frame_needed = 0, uses_anonymous_args = 0
 171              		.loc 1 171 3 view .LVU27
ARM GAS  /tmp/ccLBGe59.s 			page 4


 172 0000 0020A0E3 		mov	r2, #0
 173              		.loc 1 169 33 is_stmt 0 view .LVU28
 174 0004 04E02DE5 		str	lr, [sp, #-4]!
 175              		.cfi_def_cfa_offset 4
 176              		.cfi_offset 14, -4
 177              		.loc 1 171 19 view .LVU29
 178 0008 20309FE5 		ldr	r3, .L17
 179              		.loc 1 169 33 view .LVU30
 180 000c 0CD04DE2 		sub	sp, sp, #12
 181              		.cfi_def_cfa_offset 16
 182              		.loc 1 171 3 view .LVU31
 183 0010 001093E5 		ldr	r1, [r3]
 184 0014 00208DE5 		str	r2, [sp]
 185 0018 14309FE5 		ldr	r3, .L17+4
 186 001c 0420A0E3 		mov	r2, #4
 187 0020 10009FE5 		ldr	r0, .L17+8
 188 0024 FEFFFFEB 		bl	chOQInit
 189              	.LVL8:
 190              		.loc 1 172 1 view .LVU32
 191 0028 0CD08DE2 		add	sp, sp, #12
 192              		.cfi_def_cfa_offset 4
 193              		@ sp needed
 194 002c 04F09DE4 		ldr	pc, [sp], #4
 195              	.L18:
 196              		.align	2
 197              	.L17:
 198 0030 00000000 		.word	wa
 199 0034 00000000 		.word	notify
 200 0038 00000000 		.word	.LANCHOR1
 201              		.cfi_endproc
 202              	.LFE11:
 203              		.size	queues2_setup, .-queues2_setup
 204              		.section	.rodata.queues1_execute.str1.4,"aMS",%progbits,1
 205              		.align	2
 206              	.LC0:
 207 0000 41424344 		.ascii	"ABCD\000"
 207      00
 208              		.section	.text.queues1_execute,"ax",%progbits
 209              		.align	2
 210              		.syntax unified
 211              		.arm
 212              		.fpu softvfp
 213              		.type	queues1_execute, %function
 214              	queues1_execute:
 215              	.LFB10:
 216              		.loc 1 94 35 is_stmt 1 view -0
 217              		.cfi_startproc
 218              		@ args = 0, pretend = 0, frame = 0
 219              		@ frame_needed = 0, uses_anonymous_args = 0
 220              		.loc 1 95 3 view .LVU34
 221              		.loc 1 96 3 view .LVU35
 222              		.loc 1 99 3 view .LVU36
 223              		.loc 1 94 35 is_stmt 0 view .LVU37
 224 0000 F0402DE9 		push	{r4, r5, r6, r7, lr}
 225              		.cfi_def_cfa_offset 20
 226              		.cfi_offset 4, -20
 227              		.cfi_offset 5, -16
ARM GAS  /tmp/ccLBGe59.s 			page 5


 228              		.cfi_offset 6, -12
 229              		.cfi_offset 7, -8
 230              		.cfi_offset 14, -4
 231 0004 0CD04DE2 		sub	sp, sp, #12
 232              		.cfi_def_cfa_offset 32
 233              		.loc 1 99 3 view .LVU38
 234              		.syntax divided
 235              	@ 99 "../test/testqueues.c" 1
 236 0008 9FF021E3 		msr     CPSR_c, #0x9F
 237              	@ 0 "" 2
 238              		.loc 1 99 3 is_stmt 1 view .LVU39
 239              		.loc 1 99 3 view .LVU40
 240              		.loc 1 99 3 view .LVU41
 241              		.arm
 242              		.syntax unified
 243 000c 40439FE5 		ldr	r4, .L37
 244 0010 0100A0E3 		mov	r0, #1
 245 0014 081094E5 		ldr	r1, [r4, #8]
 246 0018 111F6FE1 		clz	r1, r1
 247 001c A112A0E1 		lsr	r1, r1, #5
 248 0020 FEFFFFEB 		bl	_test_assert
 249              	.LVL9:
 250 0024 005050E2 		subs	r5, r0, #0
 251 0028 1700001A 		bne	.L35
 252              		.loc 1 99 3 discriminator 2 view .LVU42
 253              		.loc 1 99 3 discriminator 2 view .LVU43
 254              		.syntax divided
 255              	@ 99 "../test/testqueues.c" 1
 256 002c 1FF021E3 		msr     CPSR_c, #0x1F
 257              	@ 0 "" 2
 258              		.loc 1 99 3 discriminator 2 view .LVU44
 259              		.loc 1 99 54 discriminator 2 view .LVU45
 260              		.loc 1 102 3 discriminator 2 view .LVU46
 261              	@ 102 "../test/testqueues.c" 1
 262 0030 9FF021E3 		msr     CPSR_c, #0x9F
 263              	@ 0 "" 2
 264              		.loc 1 102 3 discriminator 2 view .LVU47
 265              		.loc 1 102 14 discriminator 2 view .LVU48
 266              		.loc 1 103 3 discriminator 2 view .LVU49
 267              	.LVL10:
 268              		.loc 1 103 15 discriminator 2 view .LVU50
 269              		.loc 1 104 5 discriminator 2 view .LVU51
 270              		.arm
 271              		.syntax unified
 272 0034 4110A0E3 		mov	r1, #65
 273 0038 0400A0E1 		mov	r0, r4
 274 003c FEFFFFEB 		bl	chIQPutI
 275              	.LVL11:
 276              		.loc 1 103 37 discriminator 2 view .LVU52
 277              		.loc 1 103 15 discriminator 2 view .LVU53
 278              		.loc 1 104 5 discriminator 2 view .LVU54
 279 0040 0400A0E1 		mov	r0, r4
 280 0044 4210A0E3 		mov	r1, #66
 281 0048 FEFFFFEB 		bl	chIQPutI
 282              	.LVL12:
 283              		.loc 1 103 37 discriminator 2 view .LVU55
 284              		.loc 1 103 15 discriminator 2 view .LVU56
ARM GAS  /tmp/ccLBGe59.s 			page 6


 285              		.loc 1 104 5 discriminator 2 view .LVU57
 286 004c 0400A0E1 		mov	r0, r4
 287 0050 4310A0E3 		mov	r1, #67
 288 0054 FEFFFFEB 		bl	chIQPutI
 289              	.LVL13:
 290              		.loc 1 103 37 discriminator 2 view .LVU58
 291              		.loc 1 103 15 discriminator 2 view .LVU59
 292              		.loc 1 104 5 discriminator 2 view .LVU60
 293 0058 0400A0E1 		mov	r0, r4
 294 005c 4410A0E3 		mov	r1, #68
 295 0060 FEFFFFEB 		bl	chIQPutI
 296              	.LVL14:
 297              		.loc 1 103 37 discriminator 2 view .LVU61
 298              		.loc 1 103 15 discriminator 2 view .LVU62
 299              		.loc 1 105 3 discriminator 2 view .LVU63
 300              		.loc 1 105 3 discriminator 2 view .LVU64
 301              		.syntax divided
 302              	@ 105 "../test/testqueues.c" 1
 303 0064 1FF021E3 		msr     CPSR_c, #0x1F
 304              	@ 0 "" 2
 305              		.loc 1 105 16 discriminator 2 view .LVU65
 306              		.loc 1 106 3 discriminator 2 view .LVU66
 307              	@ 106 "../test/testqueues.c" 1
 308 0068 9FF021E3 		msr     CPSR_c, #0x9F
 309              	@ 0 "" 2
 310              		.loc 1 106 3 discriminator 2 view .LVU67
 311              		.loc 1 106 3 discriminator 2 view .LVU68
 312              		.loc 1 106 3 discriminator 2 view .LVU69
 313              		.arm
 314              		.syntax unified
 315 006c D421C4E1 		ldrd	r2, [r4, #20]
 316 0070 030052E1 		cmp	r2, r3
 317 0074 B200000A 		beq	.L36
 318              	.L22:
 319              		.loc 1 106 3 is_stmt 0 discriminator 6 view .LVU70
 320 0078 0510A0E1 		mov	r1, r5
 321 007c 0200A0E3 		mov	r0, #2
 322 0080 FEFFFFEB 		bl	_test_assert
 323              	.LVL15:
 324 0084 001050E2 		subs	r1, r0, #0
 325 0088 0200000A 		beq	.L23
 326              	.LVL16:
 327              	.L35:
 328              	.LBB5:
 329              	.LBB6:
 330              		.loc 1 146 3 is_stmt 1 view .LVU71
 331              		.loc 1 146 3 view .LVU72
 332              		.syntax divided
 333              	@ 146 "../test/testqueues.c" 1
 334 008c 1FF021E3 		msr     CPSR_c, #0x1F
 335              	@ 0 "" 2
 336              		.loc 1 146 3 view .LVU73
 337              		.loc 1 146 3 view .LVU74
 338              		.arm
 339              		.syntax unified
 340              	.L19:
 341              	.LBE6:
ARM GAS  /tmp/ccLBGe59.s 			page 7


 342              	.LBE5:
 343              		.loc 1 151 1 is_stmt 0 view .LVU75
 344 0090 0CD08DE2 		add	sp, sp, #12
 345              		.cfi_remember_state
 346              		.cfi_def_cfa_offset 20
 347              		@ sp needed
 348 0094 F080BDE8 		pop	{r4, r5, r6, r7, pc}
 349              	.LVL17:
 350              	.L23:
 351              		.cfi_restore_state
 352              	.LBB9:
 353              	.LBI5:
 354              		.loc 1 94 13 is_stmt 1 view .LVU76
 355              	.LBB7:
 356              		.loc 1 106 3 view .LVU77
 357              		.loc 1 106 3 view .LVU78
 358              		.syntax divided
 359              	@ 106 "../test/testqueues.c" 1
 360 0098 1FF021E3 		msr     CPSR_c, #0x1F
 361              	@ 0 "" 2
 362              		.loc 1 106 3 view .LVU79
 363              		.loc 1 106 59 view .LVU80
 364              		.loc 1 107 3 view .LVU81
 365              	@ 107 "../test/testqueues.c" 1
 366 009c 9FF021E3 		msr     CPSR_c, #0x9F
 367              	@ 0 "" 2
 368              		.loc 1 107 3 view .LVU82
 369              		.loc 1 107 3 view .LVU83
 370              		.loc 1 107 3 view .LVU84
 371              		.arm
 372              		.syntax unified
 373 00a0 AC029FE5 		ldr	r0, .L37
 374 00a4 FEFFFFEB 		bl	chIQPutI
 375              	.LVL18:
 376 00a8 0010A0E1 		mov	r1, r0
 377 00ac 040071E3 		cmn	r1, #4
 378 00b0 0010A013 		movne	r1, #0
 379 00b4 0110A003 		moveq	r1, #1
 380 00b8 0300A0E3 		mov	r0, #3
 381 00bc FEFFFFEB 		bl	_test_assert
 382              	.LVL19:
 383 00c0 000050E3 		cmp	r0, #0
 384 00c4 F0FFFF1A 		bne	.L35
 385              		.loc 1 107 3 view .LVU85
 386              		.loc 1 107 3 view .LVU86
 387              		.syntax divided
 388              	@ 107 "../test/testqueues.c" 1
 389 00c8 1FF021E3 		msr     CPSR_c, #0x1F
 390              	@ 0 "" 2
 391              		.loc 1 107 3 view .LVU87
 392              		.loc 1 107 77 view .LVU88
 393              		.loc 1 110 3 view .LVU89
 394              	.LVL20:
 395              		.loc 1 110 15 view .LVU90
 396              		.loc 1 107 3 is_stmt 0 view .LVU91
 397              		.arm
 398              		.syntax unified
ARM GAS  /tmp/ccLBGe59.s 			page 8


 399 00cc 0450A0E3 		mov	r5, #4
 400              		.loc 1 111 21 view .LVU92
 401 00d0 7C629FE5 		ldr	r6, .L37
 402              	.LVL21:
 403              	.L25:
 404              		.loc 1 111 5 is_stmt 1 view .LVU93
 405              		.loc 1 111 21 is_stmt 0 view .LVU94
 406 00d4 0010E0E3 		mvn	r1, #0
 407 00d8 0600A0E1 		mov	r0, r6
 408 00dc FEFFFFEB 		bl	chIQGetTimeout
 409              	.LVL22:
 410              		.loc 1 111 5 view .LVU95
 411 00e0 7000EFE6 		uxtb	r0, r0
 412 00e4 FEFFFFEB 		bl	test_emit_token
 413              	.LVL23:
 414              		.loc 1 110 37 is_stmt 1 view .LVU96
 415              		.loc 1 110 15 view .LVU97
 416              		.loc 1 110 3 is_stmt 0 view .LVU98
 417 00e8 015055E2 		subs	r5, r5, #1
 418              	.LVL24:
 419              		.loc 1 110 3 view .LVU99
 420 00ec F8FFFF1A 		bne	.L25
 421              		.loc 1 112 3 is_stmt 1 view .LVU100
 422              		.syntax divided
 423              	@ 112 "../test/testqueues.c" 1
 424 00f0 9FF021E3 		msr     CPSR_c, #0x9F
 425              	@ 0 "" 2
 426              		.loc 1 112 3 view .LVU101
 427              		.loc 1 112 3 view .LVU102
 428              		.loc 1 112 3 view .LVU103
 429              		.arm
 430              		.syntax unified
 431 00f4 081094E5 		ldr	r1, [r4, #8]
 432 00f8 0400A0E3 		mov	r0, #4
 433 00fc 111F6FE1 		clz	r1, r1
 434 0100 A112A0E1 		lsr	r1, r1, #5
 435 0104 FEFFFFEB 		bl	_test_assert
 436              	.LVL25:
 437 0108 000050E3 		cmp	r0, #0
 438 010c DEFFFF1A 		bne	.L35
 439              		.loc 1 112 3 view .LVU104
 440              		.loc 1 112 3 view .LVU105
 441              		.syntax divided
 442              	@ 112 "../test/testqueues.c" 1
 443 0110 1FF021E3 		msr     CPSR_c, #0x1F
 444              	@ 0 "" 2
 445              		.loc 1 112 3 view .LVU106
 446              		.loc 1 112 55 view .LVU107
 447              		.loc 1 113 3 view .LVU108
 448              		.arm
 449              		.syntax unified
 450 0114 0500A0E3 		mov	r0, #5
 451 0118 38129FE5 		ldr	r1, .L37+4
 452 011c FEFFFFEB 		bl	_test_assert_sequence
 453              	.LVL26:
 454 0120 000050E3 		cmp	r0, #0
 455 0124 D9FFFF1A 		bne	.L19
ARM GAS  /tmp/ccLBGe59.s 			page 9


 456              		.loc 1 113 34 view .LVU109
 457              		.loc 1 116 3 view .LVU110
 458              		.syntax divided
 459              	@ 116 "../test/testqueues.c" 1
 460 0128 9FF021E3 		msr     CPSR_c, #0x9F
 461              	@ 0 "" 2
 462              		.loc 1 116 3 view .LVU111
 463              		.loc 1 116 14 view .LVU112
 464              		.loc 1 117 3 view .LVU113
 465              	.LVL27:
 466              		.loc 1 117 15 view .LVU114
 467              		.loc 1 118 5 view .LVU115
 468              		.arm
 469              		.syntax unified
 470 012c 4110A0E3 		mov	r1, #65
 471 0130 1C029FE5 		ldr	r0, .L37
 472 0134 FEFFFFEB 		bl	chIQPutI
 473              	.LVL28:
 474              		.loc 1 117 37 view .LVU116
 475              		.loc 1 117 15 view .LVU117
 476              		.loc 1 118 5 view .LVU118
 477 0138 4210A0E3 		mov	r1, #66
 478 013c 10029FE5 		ldr	r0, .L37
 479 0140 FEFFFFEB 		bl	chIQPutI
 480              	.LVL29:
 481              		.loc 1 117 37 view .LVU119
 482              		.loc 1 117 15 view .LVU120
 483              		.loc 1 118 5 view .LVU121
 484 0144 4310A0E3 		mov	r1, #67
 485 0148 04029FE5 		ldr	r0, .L37
 486 014c FEFFFFEB 		bl	chIQPutI
 487              	.LVL30:
 488              		.loc 1 117 37 view .LVU122
 489              		.loc 1 117 15 view .LVU123
 490              		.loc 1 118 5 view .LVU124
 491 0150 4410A0E3 		mov	r1, #68
 492 0154 F8019FE5 		ldr	r0, .L37
 493 0158 FEFFFFEB 		bl	chIQPutI
 494              	.LVL31:
 495              		.loc 1 117 37 view .LVU125
 496              		.loc 1 117 15 view .LVU126
 497              		.loc 1 119 3 view .LVU127
 498              		.loc 1 119 3 view .LVU128
 499              		.syntax divided
 500              	@ 119 "../test/testqueues.c" 1
 501 015c 1FF021E3 		msr     CPSR_c, #0x1F
 502              	@ 0 "" 2
 503              		.loc 1 119 16 view .LVU129
 504              		.loc 1 122 3 view .LVU130
 505              		.loc 1 122 30 is_stmt 0 view .LVU131
 506              		.arm
 507              		.syntax unified
 508 0160 F4719FE5 		ldr	r7, .L37+8
 509              		.loc 1 122 7 view .LVU132
 510 0164 0530A0E1 		mov	r3, r5
 511 0168 046097E5 		ldr	r6, [r7, #4]
 512 016c 0820A0E3 		mov	r2, #8
ARM GAS  /tmp/ccLBGe59.s 			page 10


 513 0170 0610A0E1 		mov	r1, r6
 514 0174 D8019FE5 		ldr	r0, .L37
 515 0178 FEFFFFEB 		bl	chIQReadTimeout
 516              	.LVL32:
 517 017c 0010A0E1 		mov	r1, r0
 518              	.LVL33:
 519              		.loc 1 123 3 is_stmt 1 view .LVU133
 520 0180 041041E2 		sub	r1, r1, #4
 521 0184 111F6FE1 		clz	r1, r1
 522 0188 0600A0E3 		mov	r0, #6
 523              	.LVL34:
 524              		.loc 1 123 3 is_stmt 0 view .LVU134
 525 018c A112A0E1 		lsr	r1, r1, #5
 526 0190 FEFFFFEB 		bl	_test_assert
 527              	.LVL35:
 528 0194 000050E3 		cmp	r0, #0
 529 0198 BCFFFF1A 		bne	.L19
 530              		.loc 1 123 63 is_stmt 1 view .LVU135
 531              		.loc 1 124 3 view .LVU136
 532              		.syntax divided
 533              	@ 124 "../test/testqueues.c" 1
 534 019c 9FF021E3 		msr     CPSR_c, #0x9F
 535              	@ 0 "" 2
 536              		.loc 1 124 3 view .LVU137
 537              		.loc 1 124 3 view .LVU138
 538              		.loc 1 124 3 view .LVU139
 539              		.arm
 540              		.syntax unified
 541 01a0 081094E5 		ldr	r1, [r4, #8]
 542 01a4 0700A0E3 		mov	r0, #7
 543 01a8 111F6FE1 		clz	r1, r1
 544 01ac A112A0E1 		lsr	r1, r1, #5
 545 01b0 FEFFFFEB 		bl	_test_assert
 546              	.LVL36:
 547 01b4 000050E3 		cmp	r0, #0
 548 01b8 B3FFFF1A 		bne	.L35
 549              		.loc 1 124 3 view .LVU140
 550              		.loc 1 124 3 view .LVU141
 551              		.syntax divided
 552              	@ 124 "../test/testqueues.c" 1
 553 01bc 1FF021E3 		msr     CPSR_c, #0x1F
 554              	@ 0 "" 2
 555              		.loc 1 124 3 view .LVU142
 556              		.loc 1 124 55 view .LVU143
 557              		.loc 1 127 3 view .LVU144
 558              	@ 127 "../test/testqueues.c" 1
 559 01c0 9FF021E3 		msr     CPSR_c, #0x9F
 560              	@ 0 "" 2
 561              		.loc 1 127 3 view .LVU145
 562              		.loc 1 127 14 view .LVU146
 563              		.loc 1 128 3 view .LVU147
 564              	.LVL37:
 565              		.loc 1 128 15 view .LVU148
 566              		.loc 1 129 5 view .LVU149
 567              		.arm
 568              		.syntax unified
 569 01c4 4110A0E3 		mov	r1, #65
ARM GAS  /tmp/ccLBGe59.s 			page 11


 570 01c8 84019FE5 		ldr	r0, .L37
 571 01cc FEFFFFEB 		bl	chIQPutI
 572              	.LVL38:
 573              		.loc 1 128 37 view .LVU150
 574              		.loc 1 128 15 view .LVU151
 575              		.loc 1 129 5 view .LVU152
 576 01d0 4210A0E3 		mov	r1, #66
 577 01d4 78019FE5 		ldr	r0, .L37
 578 01d8 FEFFFFEB 		bl	chIQPutI
 579              	.LVL39:
 580              		.loc 1 128 37 view .LVU153
 581              		.loc 1 128 15 view .LVU154
 582              		.loc 1 129 5 view .LVU155
 583 01dc 4310A0E3 		mov	r1, #67
 584 01e0 6C019FE5 		ldr	r0, .L37
 585 01e4 FEFFFFEB 		bl	chIQPutI
 586              	.LVL40:
 587              		.loc 1 128 37 view .LVU156
 588              		.loc 1 128 15 view .LVU157
 589              		.loc 1 129 5 view .LVU158
 590 01e8 4410A0E3 		mov	r1, #68
 591 01ec 60019FE5 		ldr	r0, .L37
 592 01f0 FEFFFFEB 		bl	chIQPutI
 593              	.LVL41:
 594              		.loc 1 128 37 view .LVU159
 595              		.loc 1 128 15 view .LVU160
 596              		.loc 1 130 3 view .LVU161
 597              		.loc 1 130 3 view .LVU162
 598              		.syntax divided
 599              	@ 130 "../test/testqueues.c" 1
 600 01f4 1FF021E3 		msr     CPSR_c, #0x1F
 601              	@ 0 "" 2
 602              		.loc 1 130 16 view .LVU163
 603              		.loc 1 133 3 view .LVU164
 604              		.loc 1 133 7 is_stmt 0 view .LVU165
 605              		.arm
 606              		.syntax unified
 607 01f8 0220A0E3 		mov	r2, #2
 608 01fc 0530A0E1 		mov	r3, r5
 609 0200 0610A0E1 		mov	r1, r6
 610 0204 48019FE5 		ldr	r0, .L37
 611 0208 FEFFFFEB 		bl	chIQReadTimeout
 612              	.LVL42:
 613 020c 0010A0E1 		mov	r1, r0
 614              	.LVL43:
 615              		.loc 1 134 3 is_stmt 1 view .LVU166
 616 0210 021041E2 		sub	r1, r1, #2
 617 0214 111F6FE1 		clz	r1, r1
 618 0218 0800A0E3 		mov	r0, #8
 619              	.LVL44:
 620              		.loc 1 134 3 is_stmt 0 view .LVU167
 621 021c A112A0E1 		lsr	r1, r1, #5
 622 0220 FEFFFFEB 		bl	_test_assert
 623              	.LVL45:
 624 0224 000050E3 		cmp	r0, #0
 625 0228 98FFFF1A 		bne	.L19
 626              		.loc 1 134 67 is_stmt 1 view .LVU168
ARM GAS  /tmp/ccLBGe59.s 			page 12


 627              		.loc 1 135 3 view .LVU169
 628              		.loc 1 135 7 is_stmt 0 view .LVU170
 629 022c 0610A0E1 		mov	r1, r6
 630 0230 0530A0E1 		mov	r3, r5
 631 0234 0220A0E3 		mov	r2, #2
 632 0238 14019FE5 		ldr	r0, .L37
 633 023c FEFFFFEB 		bl	chIQReadTimeout
 634              	.LVL46:
 635 0240 0010A0E1 		mov	r1, r0
 636              	.LVL47:
 637              		.loc 1 136 3 is_stmt 1 view .LVU171
 638 0244 021041E2 		sub	r1, r1, #2
 639 0248 111F6FE1 		clz	r1, r1
 640 024c 0900A0E3 		mov	r0, #9
 641              	.LVL48:
 642              		.loc 1 136 3 is_stmt 0 view .LVU172
 643 0250 A112A0E1 		lsr	r1, r1, #5
 644 0254 FEFFFFEB 		bl	_test_assert
 645              	.LVL49:
 646 0258 000050E3 		cmp	r0, #0
 647 025c 8BFFFF1A 		bne	.L19
 648              		.loc 1 136 67 is_stmt 1 view .LVU173
 649              		.loc 1 137 3 view .LVU174
 650              		.syntax divided
 651              	@ 137 "../test/testqueues.c" 1
 652 0260 9FF021E3 		msr     CPSR_c, #0x9F
 653              	@ 0 "" 2
 654              		.loc 1 137 3 view .LVU175
 655              		.loc 1 137 3 view .LVU176
 656              		.loc 1 137 3 view .LVU177
 657              		.arm
 658              		.syntax unified
 659 0264 081094E5 		ldr	r1, [r4, #8]
 660 0268 0A00A0E3 		mov	r0, #10
 661 026c 111F6FE1 		clz	r1, r1
 662 0270 A112A0E1 		lsr	r1, r1, #5
 663 0274 FEFFFFEB 		bl	_test_assert
 664              	.LVL50:
 665 0278 000050E3 		cmp	r0, #0
 666 027c 82FFFF1A 		bne	.L35
 667              		.loc 1 137 3 view .LVU178
 668              		.loc 1 137 3 view .LVU179
 669              		.syntax divided
 670              	@ 137 "../test/testqueues.c" 1
 671 0280 1FF021E3 		msr     CPSR_c, #0x1F
 672              	@ 0 "" 2
 673              		.loc 1 137 3 view .LVU180
 674              		.loc 1 137 56 view .LVU181
 675              		.loc 1 140 3 view .LVU182
 676              	@ 140 "../test/testqueues.c" 1
 677 0284 9FF021E3 		msr     CPSR_c, #0x9F
 678              	@ 0 "" 2
 679              		.loc 1 140 3 view .LVU183
 680              		.loc 1 140 14 view .LVU184
 681              		.loc 1 141 3 view .LVU185
 682              		.arm
 683              		.syntax unified
ARM GAS  /tmp/ccLBGe59.s 			page 13


 684 0288 C4009FE5 		ldr	r0, .L37
 685 028c 0510A0E1 		mov	r1, r5
 686 0290 FEFFFFEB 		bl	chIQPutI
 687              	.LVL51:
 688              		.loc 1 142 3 view .LVU186
 689 0294 B8009FE5 		ldr	r0, .L37
 690 0298 FEFFFFEB 		bl	chIQResetI
 691              	.LVL52:
 692              		.loc 1 143 3 view .LVU187
 693              		.loc 1 143 3 view .LVU188
 694              		.syntax divided
 695              	@ 143 "../test/testqueues.c" 1
 696 029c 1FF021E3 		msr     CPSR_c, #0x1F
 697              	@ 0 "" 2
 698              		.loc 1 143 16 view .LVU189
 699              		.loc 1 144 3 view .LVU190
 700              	@ 144 "../test/testqueues.c" 1
 701 02a0 9FF021E3 		msr     CPSR_c, #0x9F
 702              	@ 0 "" 2
 703              		.loc 1 144 3 view .LVU191
 704              		.loc 1 144 3 view .LVU192
 705              		.loc 1 144 3 view .LVU193
 706              		.arm
 707              		.syntax unified
 708 02a4 081094E5 		ldr	r1, [r4, #8]
 709 02a8 0B00A0E3 		mov	r0, #11
 710 02ac 111F6FE1 		clz	r1, r1
 711 02b0 A112A0E1 		lsr	r1, r1, #5
 712 02b4 FEFFFFEB 		bl	_test_assert
 713              	.LVL53:
 714 02b8 000050E3 		cmp	r0, #0
 715 02bc 72FFFF1A 		bne	.L35
 716              		.loc 1 144 3 view .LVU194
 717              		.loc 1 144 3 view .LVU195
 718              		.syntax divided
 719              	@ 144 "../test/testqueues.c" 1
 720 02c0 1FF021E3 		msr     CPSR_c, #0x1F
 721              	@ 0 "" 2
 722              		.loc 1 144 3 view .LVU196
 723              		.loc 1 144 61 view .LVU197
 724              		.loc 1 145 3 view .LVU198
 725              		.loc 1 145 50 is_stmt 0 view .LVU199
 726              		.arm
 727              		.syntax unified
 728 02c4 94309FE5 		ldr	r3, .L37+12
 729              		.loc 1 145 16 view .LVU200
 730 02c8 461FA0E3 		mov	r1, #280
 731              		.loc 1 145 50 view .LVU201
 732 02cc 182093E5 		ldr	r2, [r3, #24]
 733              		.loc 1 145 16 view .LVU202
 734 02d0 000097E5 		ldr	r0, [r7]
 735 02d4 082092E5 		ldr	r2, [r2, #8]
 736 02d8 84309FE5 		ldr	r3, .L37+16
 737 02dc 00508DE5 		str	r5, [sp]
 738 02e0 012082E2 		add	r2, r2, #1
 739 02e4 FEFFFFEB 		bl	chThdCreateStatic
 740              	.LVL54:
ARM GAS  /tmp/ccLBGe59.s 			page 14


 741              		.loc 1 145 14 view .LVU203
 742 02e8 78309FE5 		ldr	r3, .L37+20
 743 02ec 000083E5 		str	r0, [r3]
 744              		.loc 1 146 3 is_stmt 1 view .LVU204
 745              		.syntax divided
 746              	@ 146 "../test/testqueues.c" 1
 747 02f0 9FF021E3 		msr     CPSR_c, #0x9F
 748              	@ 0 "" 2
 749              		.loc 1 146 3 view .LVU205
 750              		.loc 1 146 3 view .LVU206
 751              		.loc 1 146 3 view .LVU207
 752              		.arm
 753              		.syntax unified
 754 02f4 081094E5 		ldr	r1, [r4, #8]
 755 02f8 0C00A0E3 		mov	r0, #12
 756 02fc 111F6FE1 		clz	r1, r1
 757 0300 A112A0E1 		lsr	r1, r1, #5
 758 0304 FEFFFFEB 		bl	_test_assert
 759              	.LVL55:
 760 0308 000050E3 		cmp	r0, #0
 761 030c 5EFFFF1A 		bne	.L35
 762              		.loc 1 146 3 view .LVU208
 763              		.loc 1 146 3 view .LVU209
 764              		.syntax divided
 765              	@ 146 "../test/testqueues.c" 1
 766 0310 1FF021E3 		msr     CPSR_c, #0x1F
 767              	@ 0 "" 2
 768              		.loc 1 146 3 view .LVU210
 769              		.loc 1 146 60 view .LVU211
 770              		.loc 1 147 3 view .LVU212
 771              		.arm
 772              		.syntax unified
 773 0314 FEFFFFEB 		bl	test_wait_threads
 774              	.LVL56:
 775              		.loc 1 150 3 view .LVU213
 776 0318 0A10A0E3 		mov	r1, #10
 777 031c 30009FE5 		ldr	r0, .L37
 778 0320 FEFFFFEB 		bl	chIQGetTimeout
 779              	.LVL57:
 780 0324 0010A0E1 		mov	r1, r0
 781 0328 010071E3 		cmn	r1, #1
 782 032c 0D00A0E3 		mov	r0, #13
 783 0330 0010A013 		movne	r1, #0
 784 0334 0110A003 		moveq	r1, #1
 785              	.LBE7:
 786              	.LBE9:
 787              		.loc 1 151 1 is_stmt 0 view .LVU214
 788 0338 0CD08DE2 		add	sp, sp, #12
 789              		.cfi_remember_state
 790              		.cfi_def_cfa_offset 20
 791              		@ sp needed
 792 033c F040BDE8 		pop	{r4, r5, r6, r7, lr}
 793              		.cfi_restore 14
 794              		.cfi_restore 7
 795              		.cfi_restore 6
 796              		.cfi_restore 5
 797              		.cfi_restore 4
ARM GAS  /tmp/ccLBGe59.s 			page 15


 798              		.cfi_def_cfa_offset 0
 799              	.LBB10:
 800              	.LBB8:
 801              		.loc 1 150 3 view .LVU215
 802 0340 FEFFFFEA 		b	_test_assert
 803              	.LVL58:
 804              	.L36:
 805              		.cfi_restore_state
 806              		.loc 1 150 3 view .LVU216
 807              	.LBE8:
 808              	.LBE10:
 809              		.loc 1 106 3 discriminator 1 view .LVU217
 810 0344 080094E5 		ldr	r0, [r4, #8]
 811 0348 005050E2 		subs	r5, r0, #0
 812 034c 0150A013 		movne	r5, #1
 813 0350 48FFFFEA 		b	.L22
 814              	.L38:
 815              		.align	2
 816              	.L37:
 817 0354 00000000 		.word	.LANCHOR0
 818 0358 00000000 		.word	.LC0
 819 035c 00000000 		.word	wa
 820 0360 00000000 		.word	rlist
 821 0364 00000000 		.word	thread1
 822 0368 00000000 		.word	threads
 823              		.cfi_endproc
 824              	.LFE10:
 825              		.size	queues1_execute, .-queues1_execute
 826              		.section	.text.queues2_execute,"ax",%progbits
 827              		.align	2
 828              		.syntax unified
 829              		.arm
 830              		.fpu softvfp
 831              		.type	queues2_execute, %function
 832              	queues2_execute:
 833              	.LFB13:
 834              		.loc 1 181 35 is_stmt 1 view -0
 835              		.cfi_startproc
 836              		@ args = 0, pretend = 0, frame = 0
 837              		@ frame_needed = 0, uses_anonymous_args = 0
 838              		.loc 1 182 3 view .LVU219
 839              		.loc 1 183 3 view .LVU220
 840              		.loc 1 186 3 view .LVU221
 841              		.loc 1 181 35 is_stmt 0 view .LVU222
 842 0000 F0402DE9 		push	{r4, r5, r6, r7, lr}
 843              		.cfi_def_cfa_offset 20
 844              		.cfi_offset 4, -20
 845              		.cfi_offset 5, -16
 846              		.cfi_offset 6, -12
 847              		.cfi_offset 7, -8
 848              		.cfi_offset 14, -4
 849 0004 0CD04DE2 		sub	sp, sp, #12
 850              		.cfi_def_cfa_offset 32
 851              		.loc 1 186 3 view .LVU223
 852              		.syntax divided
 853              	@ 186 "../test/testqueues.c" 1
 854 0008 9FF021E3 		msr     CPSR_c, #0x9F
ARM GAS  /tmp/ccLBGe59.s 			page 16


 855              	@ 0 "" 2
 856              		.loc 1 186 3 is_stmt 1 view .LVU224
 857              		.loc 1 186 3 view .LVU225
 858              		.loc 1 186 3 view .LVU226
 859              		.arm
 860              		.syntax unified
 861 000c E4529FE5 		ldr	r5, .L62
 862 0010 D421C5E1 		ldrd	r2, [r5, #20]
 863 0014 030052E1 		cmp	r2, r3
 864 0018 0010A013 		movne	r1, #0
 865 001c AD00000A 		beq	.L60
 866              	.L40:
 867              		.loc 1 186 3 is_stmt 0 discriminator 6 view .LVU227
 868 0020 0100A0E3 		mov	r0, #1
 869 0024 FEFFFFEB 		bl	_test_assert
 870              	.LVL59:
 871 0028 000050E3 		cmp	r0, #0
 872 002c A600001A 		bne	.L59
 873              		.loc 1 186 3 is_stmt 1 discriminator 8 view .LVU228
 874              		.loc 1 186 3 discriminator 8 view .LVU229
 875              		.syntax divided
 876              	@ 186 "../test/testqueues.c" 1
 877 0030 1FF021E3 		msr     CPSR_c, #0x1F
 878              	@ 0 "" 2
 879              		.loc 1 186 3 discriminator 8 view .LVU230
 880              		.loc 1 186 54 discriminator 8 view .LVU231
 881              		.loc 1 189 3 discriminator 8 view .LVU232
 882              	.LVL60:
 883              		.loc 1 189 15 discriminator 8 view .LVU233
 884              		.loc 1 186 3 is_stmt 0 discriminator 8 view .LVU234
 885              		.arm
 886              		.syntax unified
 887 0034 4140A0E3 		mov	r4, #65
 888              		.loc 1 190 5 discriminator 8 view .LVU235
 889 0038 B8629FE5 		ldr	r6, .L62
 890              	.LVL61:
 891              	.L43:
 892              		.loc 1 190 5 is_stmt 1 discriminator 3 view .LVU236
 893 003c 0410A0E1 		mov	r1, r4
 894 0040 014084E2 		add	r4, r4, #1
 895 0044 0020E0E3 		mvn	r2, #0
 896 0048 0600A0E1 		mov	r0, r6
 897 004c 7440EFE6 		uxtb	r4, r4
 898 0050 FEFFFFEB 		bl	chOQPutTimeout
 899              	.LVL62:
 900              		.loc 1 189 37 discriminator 3 view .LVU237
 901              		.loc 1 189 15 discriminator 3 view .LVU238
 902              		.loc 1 189 3 is_stmt 0 discriminator 3 view .LVU239
 903 0054 450054E3 		cmp	r4, #69
 904 0058 F7FFFF1A 		bne	.L43
 905              		.loc 1 191 3 is_stmt 1 view .LVU240
 906              		.syntax divided
 907              	@ 191 "../test/testqueues.c" 1
 908 005c 9FF021E3 		msr     CPSR_c, #0x9F
 909              	@ 0 "" 2
 910              		.loc 1 191 3 view .LVU241
 911              		.loc 1 191 3 view .LVU242
ARM GAS  /tmp/ccLBGe59.s 			page 17


 912              		.loc 1 191 3 view .LVU243
 913              		.arm
 914              		.syntax unified
 915 0060 081095E5 		ldr	r1, [r5, #8]
 916 0064 0200A0E3 		mov	r0, #2
 917 0068 111F6FE1 		clz	r1, r1
 918 006c A112A0E1 		lsr	r1, r1, #5
 919 0070 FEFFFFEB 		bl	_test_assert
 920              	.LVL63:
 921 0074 006050E2 		subs	r6, r0, #0
 922 0078 9300001A 		bne	.L59
 923              	.LBB14:
 924              	.LBI14:
 925              		.loc 1 181 13 view .LVU244
 926              	.LBB15:
 927              		.loc 1 191 3 view .LVU245
 928              		.loc 1 191 3 view .LVU246
 929              		.syntax divided
 930              	@ 191 "../test/testqueues.c" 1
 931 007c 1FF021E3 		msr     CPSR_c, #0x1F
 932              	@ 0 "" 2
 933              		.loc 1 191 3 view .LVU247
 934              		.loc 1 191 59 view .LVU248
 935              		.loc 1 194 3 view .LVU249
 936              	.LVL64:
 937              		.loc 1 194 15 view .LVU250
 938              		.loc 1 191 3 is_stmt 0 view .LVU251
 939              		.arm
 940              		.syntax unified
 941 0080 0440A0E3 		mov	r4, #4
 942              	.LBB16:
 943              		.loc 1 198 9 view .LVU252
 944 0084 6C729FE5 		ldr	r7, .L62
 945              	.LVL65:
 946              	.L45:
 947              		.loc 1 195 5 is_stmt 1 view .LVU253
 948              		.loc 1 197 5 view .LVU254
 949              		.syntax divided
 950              	@ 197 "../test/testqueues.c" 1
 951 0088 9FF021E3 		msr     CPSR_c, #0x9F
 952              	@ 0 "" 2
 953              		.loc 1 197 5 view .LVU255
 954              		.loc 1 197 16 view .LVU256
 955              		.loc 1 198 5 view .LVU257
 956              		.loc 1 198 9 is_stmt 0 view .LVU258
 957              		.arm
 958              		.syntax unified
 959 008c 0700A0E1 		mov	r0, r7
 960 0090 FEFFFFEB 		bl	chOQGetI
 961              	.LVL66:
 962              		.loc 1 199 5 is_stmt 1 view .LVU259
 963              		.loc 1 199 5 view .LVU260
 964              		.syntax divided
 965              	@ 199 "../test/testqueues.c" 1
 966 0094 1FF021E3 		msr     CPSR_c, #0x1F
 967              	@ 0 "" 2
 968              		.loc 1 199 18 view .LVU261
ARM GAS  /tmp/ccLBGe59.s 			page 18


 969              		.loc 1 200 5 view .LVU262
 970              		.arm
 971              		.syntax unified
 972 0098 7000EFE6 		uxtb	r0, r0
 973              		.loc 1 200 5 is_stmt 0 view .LVU263
 974 009c FEFFFFEB 		bl	test_emit_token
 975              	.LVL67:
 976              		.loc 1 200 5 view .LVU264
 977              	.LBE16:
 978              		.loc 1 194 37 is_stmt 1 view .LVU265
 979              		.loc 1 194 15 view .LVU266
 980              		.loc 1 194 3 is_stmt 0 view .LVU267
 981 00a0 014054E2 		subs	r4, r4, #1
 982              	.LVL68:
 983              		.loc 1 194 3 view .LVU268
 984 00a4 F7FFFF1A 		bne	.L45
 985              		.loc 1 202 3 is_stmt 1 view .LVU269
 986              		.syntax divided
 987              	@ 202 "../test/testqueues.c" 1
 988 00a8 9FF021E3 		msr     CPSR_c, #0x9F
 989              	@ 0 "" 2
 990              		.loc 1 202 3 view .LVU270
 991              		.loc 1 202 3 view .LVU271
 992              		.loc 1 202 3 view .LVU272
 993              		.arm
 994              		.syntax unified
 995 00ac D421C5E1 		ldrd	r2, [r5, #20]
 996 00b0 030052E1 		cmp	r2, r3
 997 00b4 8B00000A 		beq	.L61
 998              	.L46:
 999 00b8 0610A0E1 		mov	r1, r6
 1000 00bc 0300A0E3 		mov	r0, #3
 1001 00c0 FEFFFFEB 		bl	_test_assert
 1002              	.LVL69:
 1003 00c4 000050E3 		cmp	r0, #0
 1004 00c8 7F00001A 		bne	.L59
 1005              		.loc 1 202 3 view .LVU273
 1006              		.loc 1 202 3 view .LVU274
 1007              		.syntax divided
 1008              	@ 202 "../test/testqueues.c" 1
 1009 00cc 1FF021E3 		msr     CPSR_c, #0x1F
 1010              	@ 0 "" 2
 1011              		.loc 1 202 3 view .LVU275
 1012              		.loc 1 202 55 view .LVU276
 1013              		.loc 1 203 3 view .LVU277
 1014              		.arm
 1015              		.syntax unified
 1016 00d0 0400A0E3 		mov	r0, #4
 1017 00d4 20129FE5 		ldr	r1, .L62+4
 1018 00d8 FEFFFFEB 		bl	_test_assert_sequence
 1019              	.LVL70:
 1020 00dc 000050E3 		cmp	r0, #0
 1021 00e0 7A00001A 		bne	.L39
 1022              		.loc 1 203 34 view .LVU278
 1023              		.loc 1 204 3 view .LVU279
 1024              		.syntax divided
 1025              	@ 204 "../test/testqueues.c" 1
ARM GAS  /tmp/ccLBGe59.s 			page 19


 1026 00e4 9FF021E3 		msr     CPSR_c, #0x9F
 1027              	@ 0 "" 2
 1028              		.loc 1 204 3 view .LVU280
 1029              		.loc 1 204 3 view .LVU281
 1030              		.loc 1 204 3 view .LVU282
 1031              		.arm
 1032              		.syntax unified
 1033 00e8 08029FE5 		ldr	r0, .L62
 1034 00ec FEFFFFEB 		bl	chOQGetI
 1035              	.LVL71:
 1036 00f0 0010A0E1 		mov	r1, r0
 1037 00f4 030071E3 		cmn	r1, #3
 1038 00f8 0010A013 		movne	r1, #0
 1039 00fc 0110A003 		moveq	r1, #1
 1040 0100 0500A0E3 		mov	r0, #5
 1041 0104 FEFFFFEB 		bl	_test_assert
 1042              	.LVL72:
 1043 0108 003050E2 		subs	r3, r0, #0
 1044 010c 6E00001A 		bne	.L59
 1045              		.loc 1 204 3 view .LVU283
 1046              		.loc 1 204 3 view .LVU284
 1047              		.syntax divided
 1048              	@ 204 "../test/testqueues.c" 1
 1049 0110 1FF021E3 		msr     CPSR_c, #0x1F
 1050              	@ 0 "" 2
 1051              		.loc 1 204 3 view .LVU285
 1052              		.loc 1 204 76 view .LVU286
 1053              		.loc 1 207 3 view .LVU287
 1054              		.loc 1 207 31 is_stmt 0 view .LVU288
 1055              		.arm
 1056              		.syntax unified
 1057 0114 E4419FE5 		ldr	r4, .L62+8
 1058              	.LVL73:
 1059              		.loc 1 207 7 view .LVU289
 1060 0118 0820A0E3 		mov	r2, #8
 1061 011c 046094E5 		ldr	r6, [r4, #4]
 1062 0120 D0019FE5 		ldr	r0, .L62
 1063 0124 0610A0E1 		mov	r1, r6
 1064 0128 FEFFFFEB 		bl	chOQWriteTimeout
 1065              	.LVL74:
 1066 012c 0010A0E1 		mov	r1, r0
 1067              	.LVL75:
 1068              		.loc 1 208 3 is_stmt 1 view .LVU290
 1069 0130 041041E2 		sub	r1, r1, #4
 1070 0134 111F6FE1 		clz	r1, r1
 1071 0138 0600A0E3 		mov	r0, #6
 1072              	.LVL76:
 1073              		.loc 1 208 3 is_stmt 0 view .LVU291
 1074 013c A112A0E1 		lsr	r1, r1, #5
 1075 0140 FEFFFFEB 		bl	_test_assert
 1076              	.LVL77:
 1077 0144 000050E3 		cmp	r0, #0
 1078 0148 6000001A 		bne	.L39
 1079              		.loc 1 208 63 is_stmt 1 view .LVU292
 1080              		.loc 1 209 3 view .LVU293
 1081              		.syntax divided
 1082              	@ 209 "../test/testqueues.c" 1
ARM GAS  /tmp/ccLBGe59.s 			page 20


 1083 014c 9FF021E3 		msr     CPSR_c, #0x9F
 1084              	@ 0 "" 2
 1085              		.loc 1 209 3 view .LVU294
 1086              		.loc 1 209 3 view .LVU295
 1087              		.loc 1 209 3 view .LVU296
 1088              		.arm
 1089              		.syntax unified
 1090 0150 081095E5 		ldr	r1, [r5, #8]
 1091 0154 0700A0E3 		mov	r0, #7
 1092 0158 111F6FE1 		clz	r1, r1
 1093 015c A112A0E1 		lsr	r1, r1, #5
 1094 0160 FEFFFFEB 		bl	_test_assert
 1095              	.LVL78:
 1096 0164 001050E2 		subs	r1, r0, #0
 1097 0168 5700001A 		bne	.L59
 1098              		.loc 1 209 3 view .LVU297
 1099              		.loc 1 209 3 view .LVU298
 1100              		.syntax divided
 1101              	@ 209 "../test/testqueues.c" 1
 1102 016c 1FF021E3 		msr     CPSR_c, #0x1F
 1103              	@ 0 "" 2
 1104              		.loc 1 209 3 view .LVU299
 1105              		.loc 1 209 52 view .LVU300
 1106              		.loc 1 210 3 view .LVU301
 1107              		.loc 1 210 50 is_stmt 0 view .LVU302
 1108              		.arm
 1109              		.syntax unified
 1110 0170 8C319FE5 		ldr	r3, .L62+12
 1111              		.loc 1 210 16 view .LVU303
 1112 0174 000094E5 		ldr	r0, [r4]
 1113              		.loc 1 210 50 view .LVU304
 1114 0178 182093E5 		ldr	r2, [r3, #24]
 1115              		.loc 1 210 16 view .LVU305
 1116 017c 84319FE5 		ldr	r3, .L62+16
 1117 0180 082092E5 		ldr	r2, [r2, #8]
 1118 0184 00108DE5 		str	r1, [sp]
 1119 0188 012082E2 		add	r2, r2, #1
 1120 018c 461FA0E3 		mov	r1, #280
 1121 0190 FEFFFFEB 		bl	chThdCreateStatic
 1122              	.LVL79:
 1123              		.loc 1 210 14 view .LVU306
 1124 0194 70319FE5 		ldr	r3, .L62+20
 1125 0198 000083E5 		str	r0, [r3]
 1126              		.loc 1 211 3 is_stmt 1 view .LVU307
 1127              		.syntax divided
 1128              	@ 211 "../test/testqueues.c" 1
 1129 019c 9FF021E3 		msr     CPSR_c, #0x9F
 1130              	@ 0 "" 2
 1131              		.loc 1 211 3 view .LVU308
 1132              		.loc 1 211 3 view .LVU309
 1133              		.loc 1 211 3 view .LVU310
 1134              		.arm
 1135              		.syntax unified
 1136 01a0 101095E5 		ldr	r1, [r5, #16]
 1137 01a4 0C2095E5 		ldr	r2, [r5, #12]
 1138 01a8 083095E5 		ldr	r3, [r5, #8]
 1139 01ac 021041E0 		sub	r1, r1, r2
ARM GAS  /tmp/ccLBGe59.s 			page 21


 1140 01b0 031041E0 		sub	r1, r1, r3
 1141 01b4 041041E2 		sub	r1, r1, #4
 1142 01b8 111F6FE1 		clz	r1, r1
 1143 01bc 0800A0E3 		mov	r0, #8
 1144 01c0 A112A0E1 		lsr	r1, r1, #5
 1145 01c4 FEFFFFEB 		bl	_test_assert
 1146              	.LVL80:
 1147 01c8 000050E3 		cmp	r0, #0
 1148 01cc 3E00001A 		bne	.L59
 1149              		.loc 1 211 3 view .LVU311
 1150              		.loc 1 211 3 view .LVU312
 1151              		.syntax divided
 1152              	@ 211 "../test/testqueues.c" 1
 1153 01d0 1FF021E3 		msr     CPSR_c, #0x1F
 1154              	@ 0 "" 2
 1155              		.loc 1 211 3 view .LVU313
 1156              		.loc 1 211 74 view .LVU314
 1157              		.loc 1 212 3 view .LVU315
 1158              		.arm
 1159              		.syntax unified
 1160 01d4 FEFFFFEB 		bl	test_wait_threads
 1161              	.LVL81:
 1162              		.loc 1 215 3 view .LVU316
 1163              		.syntax divided
 1164              	@ 215 "../test/testqueues.c" 1
 1165 01d8 9FF021E3 		msr     CPSR_c, #0x9F
 1166              	@ 0 "" 2
 1167              		.loc 1 215 3 view .LVU317
 1168              		.loc 1 215 14 view .LVU318
 1169              		.loc 1 216 3 view .LVU319
 1170              		.arm
 1171              		.syntax unified
 1172 01dc 14019FE5 		ldr	r0, .L62
 1173 01e0 FEFFFFEB 		bl	chOQResetI
 1174              	.LVL82:
 1175              		.loc 1 217 3 view .LVU320
 1176              		.loc 1 217 3 view .LVU321
 1177              		.syntax divided
 1178              	@ 217 "../test/testqueues.c" 1
 1179 01e4 1FF021E3 		msr     CPSR_c, #0x1F
 1180              	@ 0 "" 2
 1181              		.loc 1 217 16 view .LVU322
 1182              		.loc 1 218 3 view .LVU323
 1183              	@ 218 "../test/testqueues.c" 1
 1184 01e8 9FF021E3 		msr     CPSR_c, #0x9F
 1185              	@ 0 "" 2
 1186              		.loc 1 218 3 view .LVU324
 1187              		.loc 1 218 3 view .LVU325
 1188              		.loc 1 218 3 view .LVU326
 1189              		.arm
 1190              		.syntax unified
 1191 01ec DC20C5E1 		ldrd	r2, [r5, #12]
 1192 01f0 081095E5 		ldr	r1, [r5, #8]
 1193 01f4 023043E0 		sub	r3, r3, r2
 1194 01f8 011043E0 		sub	r1, r3, r1
 1195 01fc 111F6FE1 		clz	r1, r1
 1196 0200 0900A0E3 		mov	r0, #9
ARM GAS  /tmp/ccLBGe59.s 			page 22


 1197 0204 A112A0E1 		lsr	r1, r1, #5
 1198 0208 FEFFFFEB 		bl	_test_assert
 1199              	.LVL83:
 1200 020c 003050E2 		subs	r3, r0, #0
 1201 0210 2D00001A 		bne	.L59
 1202              		.loc 1 218 3 view .LVU327
 1203              		.loc 1 218 3 view .LVU328
 1204              		.syntax divided
 1205              	@ 218 "../test/testqueues.c" 1
 1206 0214 1FF021E3 		msr     CPSR_c, #0x1F
 1207              	@ 0 "" 2
 1208              		.loc 1 218 3 view .LVU329
 1209              		.loc 1 218 60 view .LVU330
 1210              		.loc 1 221 3 view .LVU331
 1211              		.loc 1 221 7 is_stmt 0 view .LVU332
 1212              		.arm
 1213              		.syntax unified
 1214 0218 0220A0E3 		mov	r2, #2
 1215 021c 0610A0E1 		mov	r1, r6
 1216 0220 D0009FE5 		ldr	r0, .L62
 1217 0224 FEFFFFEB 		bl	chOQWriteTimeout
 1218              	.LVL84:
 1219 0228 0010A0E1 		mov	r1, r0
 1220              	.LVL85:
 1221              		.loc 1 222 3 is_stmt 1 view .LVU333
 1222 022c 021041E2 		sub	r1, r1, #2
 1223 0230 111F6FE1 		clz	r1, r1
 1224 0234 0A00A0E3 		mov	r0, #10
 1225              	.LVL86:
 1226              		.loc 1 222 3 is_stmt 0 view .LVU334
 1227 0238 A112A0E1 		lsr	r1, r1, #5
 1228 023c FEFFFFEB 		bl	_test_assert
 1229              	.LVL87:
 1230 0240 003050E2 		subs	r3, r0, #0
 1231 0244 2100001A 		bne	.L39
 1232              		.loc 1 222 68 is_stmt 1 view .LVU335
 1233              		.loc 1 223 3 view .LVU336
 1234              		.loc 1 223 7 is_stmt 0 view .LVU337
 1235 0248 0610A0E1 		mov	r1, r6
 1236 024c 0220A0E3 		mov	r2, #2
 1237 0250 A0009FE5 		ldr	r0, .L62
 1238 0254 FEFFFFEB 		bl	chOQWriteTimeout
 1239              	.LVL88:
 1240 0258 0010A0E1 		mov	r1, r0
 1241              	.LVL89:
 1242              		.loc 1 224 3 is_stmt 1 view .LVU338
 1243 025c 021041E2 		sub	r1, r1, #2
 1244 0260 111F6FE1 		clz	r1, r1
 1245 0264 0B00A0E3 		mov	r0, #11
 1246              	.LVL90:
 1247              		.loc 1 224 3 is_stmt 0 view .LVU339
 1248 0268 A112A0E1 		lsr	r1, r1, #5
 1249 026c FEFFFFEB 		bl	_test_assert
 1250              	.LVL91:
 1251 0270 000050E3 		cmp	r0, #0
 1252 0274 1500001A 		bne	.L39
 1253              		.loc 1 224 68 is_stmt 1 view .LVU340
ARM GAS  /tmp/ccLBGe59.s 			page 23


 1254              		.loc 1 225 3 view .LVU341
 1255              		.syntax divided
 1256              	@ 225 "../test/testqueues.c" 1
 1257 0278 9FF021E3 		msr     CPSR_c, #0x9F
 1258              	@ 0 "" 2
 1259              		.loc 1 225 3 view .LVU342
 1260              		.loc 1 225 3 view .LVU343
 1261              		.loc 1 225 3 view .LVU344
 1262              		.arm
 1263              		.syntax unified
 1264 027c 081095E5 		ldr	r1, [r5, #8]
 1265 0280 0C00A0E3 		mov	r0, #12
 1266 0284 111F6FE1 		clz	r1, r1
 1267 0288 A112A0E1 		lsr	r1, r1, #5
 1268 028c FEFFFFEB 		bl	_test_assert
 1269              	.LVL92:
 1270 0290 000050E3 		cmp	r0, #0
 1271 0294 0C00001A 		bne	.L59
 1272              		.loc 1 225 3 view .LVU345
 1273              		.loc 1 225 3 view .LVU346
 1274              		.syntax divided
 1275              	@ 225 "../test/testqueues.c" 1
 1276 0298 1FF021E3 		msr     CPSR_c, #0x1F
 1277              	@ 0 "" 2
 1278              		.loc 1 225 3 view .LVU347
 1279              		.loc 1 225 53 view .LVU348
 1280              		.loc 1 228 3 view .LVU349
 1281              		.arm
 1282              		.syntax unified
 1283 029c 0A20A0E3 		mov	r2, #10
 1284 02a0 0010A0E3 		mov	r1, #0
 1285 02a4 4C009FE5 		ldr	r0, .L62
 1286 02a8 FEFFFFEB 		bl	chOQPutTimeout
 1287              	.LVL93:
 1288 02ac 0010A0E1 		mov	r1, r0
 1289 02b0 010071E3 		cmn	r1, #1
 1290 02b4 0D00A0E3 		mov	r0, #13
 1291 02b8 0010A013 		movne	r1, #0
 1292 02bc 0110A003 		moveq	r1, #1
 1293              	.LBE15:
 1294              	.LBE14:
 1295              		.loc 1 229 1 is_stmt 0 view .LVU350
 1296 02c0 0CD08DE2 		add	sp, sp, #12
 1297              		.cfi_remember_state
 1298              		.cfi_def_cfa_offset 20
 1299              		@ sp needed
 1300 02c4 F040BDE8 		pop	{r4, r5, r6, r7, lr}
 1301              		.cfi_restore 14
 1302              		.cfi_restore 7
 1303              		.cfi_restore 6
 1304              		.cfi_restore 5
 1305              		.cfi_restore 4
 1306              		.cfi_def_cfa_offset 0
 1307              	.LBB19:
 1308              	.LBB17:
 1309              		.loc 1 228 3 view .LVU351
 1310 02c8 FEFFFFEA 		b	_test_assert
ARM GAS  /tmp/ccLBGe59.s 			page 24


 1311              	.LVL94:
 1312              	.L59:
 1313              		.cfi_restore_state
 1314              		.loc 1 225 3 is_stmt 1 view .LVU352
 1315              		.loc 1 225 3 view .LVU353
 1316              		.syntax divided
 1317              	@ 225 "../test/testqueues.c" 1
 1318 02cc 1FF021E3 		msr     CPSR_c, #0x1F
 1319              	@ 0 "" 2
 1320              		.loc 1 225 3 view .LVU354
 1321              		.loc 1 225 3 view .LVU355
 1322              		.arm
 1323              		.syntax unified
 1324              	.L39:
 1325              	.LBE17:
 1326              	.LBE19:
 1327              		.loc 1 229 1 is_stmt 0 view .LVU356
 1328 02d0 0CD08DE2 		add	sp, sp, #12
 1329              		.cfi_remember_state
 1330              		.cfi_def_cfa_offset 20
 1331              		@ sp needed
 1332 02d4 F080BDE8 		pop	{r4, r5, r6, r7, pc}
 1333              	.L60:
 1334              		.cfi_restore_state
 1335              		.loc 1 186 3 discriminator 1 view .LVU357
 1336 02d8 081095E5 		ldr	r1, [r5, #8]
 1337 02dc 001051E2 		subs	r1, r1, #0
 1338 02e0 0110A013 		movne	r1, #1
 1339 02e4 4DFFFFEA 		b	.L40
 1340              	.LVL95:
 1341              	.L61:
 1342              	.LBB20:
 1343              	.LBB18:
 1344              		.loc 1 202 3 view .LVU358
 1345 02e8 080095E5 		ldr	r0, [r5, #8]
 1346 02ec 006050E2 		subs	r6, r0, #0
 1347 02f0 0160A013 		movne	r6, #1
 1348 02f4 6FFFFFEA 		b	.L46
 1349              	.L63:
 1350              		.align	2
 1351              	.L62:
 1352 02f8 00000000 		.word	.LANCHOR1
 1353 02fc 00000000 		.word	.LC0
 1354 0300 00000000 		.word	wa
 1355 0304 00000000 		.word	rlist
 1356 0308 00000000 		.word	thread2
 1357 030c 00000000 		.word	threads
 1358              	.LBE18:
 1359              	.LBE20:
 1360              		.cfi_endproc
 1361              	.LFE13:
 1362              		.size	queues2_execute, .-queues2_execute
 1363              		.global	patternqueues
 1364              		.global	testqueues2
 1365              		.section	.rodata.str1.4,"aMS",%progbits,1
 1366              		.align	2
 1367              	.LC1:
ARM GAS  /tmp/ccLBGe59.s 			page 25


 1368 0000 51756575 		.ascii	"Queues, output queues\000"
 1368      65732C20 
 1368      6F757470 
 1368      75742071 
 1368      75657565 
 1369              		.global	testqueues1
 1370 0016 0000     		.align	2
 1371              	.LC2:
 1372 0018 51756575 		.ascii	"Queues, input queues\000"
 1372      65732C20 
 1372      696E7075 
 1372      74207175 
 1372      65756573 
 1373              		.section	.data.iq,"aw"
 1374              		.align	2
 1375              		.set	.LANCHOR0,. + 0
 1376              		.type	iq, %object
 1377              		.size	iq, 36
 1378              	iq:
 1379 0000 00000000 		.word	iq
 1380 0004 00000000 		.word	iq
 1381 0008 00000000 		.word	0
 1382 000c 00000000 		.word	test
 1383 0010 04000000 		.word	test+4
 1384 0014 00000000 		.word	test
 1385 0018 00000000 		.word	test
 1386 001c 00000000 		.word	notify
 1387 0020 00000000 		.word	0
 1388              		.section	.data.oq,"aw"
 1389              		.align	2
 1390              		.set	.LANCHOR1,. + 0
 1391              		.type	oq, %object
 1392              		.size	oq, 36
 1393              	oq:
 1394 0000 00000000 		.word	oq
 1395 0004 00000000 		.word	oq
 1396 0008 04000000 		.word	4
 1397 000c 18010000 		.word	test+280
 1398 0010 1C010000 		.word	test+284
 1399 0014 18010000 		.word	test+280
 1400 0018 18010000 		.word	test+280
 1401 001c 00000000 		.word	notify
 1402 0020 00000000 		.word	0
 1403              		.section	.rodata.patternqueues,"a"
 1404              		.align	2
 1405              		.type	patternqueues, %object
 1406              		.size	patternqueues, 12
 1407              	patternqueues:
 1408 0000 00000000 		.word	testqueues1
 1409 0004 00000000 		.word	testqueues2
 1410 0008 00000000 		.word	0
 1411              		.section	.rodata.testqueues1,"a"
 1412              		.align	2
 1413              		.type	testqueues1, %object
 1414              		.size	testqueues1, 16
 1415              	testqueues1:
 1416 0000 18000000 		.word	.LC2
ARM GAS  /tmp/ccLBGe59.s 			page 26


 1417 0004 00000000 		.word	queues1_setup
 1418 0008 00000000 		.word	0
 1419 000c 00000000 		.word	queues1_execute
 1420              		.section	.rodata.testqueues2,"a"
 1421              		.align	2
 1422              		.type	testqueues2, %object
 1423              		.size	testqueues2, 16
 1424              	testqueues2:
 1425 0000 00000000 		.word	.LC1
 1426 0004 00000000 		.word	queues2_setup
 1427 0008 00000000 		.word	0
 1428 000c 00000000 		.word	queues2_execute
 1429              		.text
 1430              	.Letext0:
 1431              		.file 2 "/usr/lib/gcc/arm-none-eabi/9.2.1/include/stddef.h"
 1432              		.file 3 "/usr/lib/gcc/arm-none-eabi/9.2.1/include/stdint.h"
 1433              		.file 4 "../os/ports/GCC/ARM/chtypes.h"
 1434              		.file 5 "../os/kernel/include/chlists.h"
 1435              		.file 6 "../os/kernel/include/chthreads.h"
 1436              		.file 7 "../os/ports/GCC/ARM/chcore.h"
 1437              		.file 8 "../os/kernel/include/chvt.h"
 1438              		.file 9 "../os/kernel/include/chschd.h"
 1439              		.file 10 "../os/kernel/include/chmtx.h"
 1440              		.file 11 "../os/kernel/include/chregistry.h"
 1441              		.file 12 "../os/kernel/include/chqueues.h"
 1442              		.file 13 "../os/kernel/include/ch.h"
 1443              		.file 14 "../test/test.h"