ARM GAS  /tmp/ccz1fEzT.s 			page 1


   1              		.cpu arm1176jz-s
   2              		.eabi_attribute 20, 1
   3              		.eabi_attribute 21, 1
   4              		.eabi_attribute 23, 3
   5              		.eabi_attribute 24, 1
   6              		.eabi_attribute 25, 1
   7              		.eabi_attribute 26, 1
   8              		.eabi_attribute 30, 2
   9              		.eabi_attribute 34, 1
  10              		.eabi_attribute 18, 4
  11              		.file	"testmsg.c"
  12              		.text
  13              	.Ltext0:
  14              		.cfi_sections	.debug_frame
  15              		.section	.rodata.msg1_execute.str1.4,"aMS",%progbits,1
  16              		.align	2
  17              	.LC0:
  18 0000 41424300 		.ascii	"ABC\000"
  19              		.section	.text.msg1_execute,"ax",%progbits
  20              		.align	2
  21              		.arch armv6kz
  22              		.syntax unified
  23              		.arm
  24              		.fpu softvfp
  25              		.type	msg1_execute, %function
  26              	msg1_execute:
  27              	.LFB8:
  28              		.file 1 "../test/testmsg.c"
  29              		.loc 1 71 32 view -0
  30              		.cfi_startproc
  31              		@ args = 0, pretend = 0, frame = 0
  32              		@ frame_needed = 0, uses_anonymous_args = 0
  33              		.loc 1 72 3 view .LVU1
  34              		.loc 1 73 3 view .LVU2
  35              		.loc 1 78 3 view .LVU3
  36              		.loc 1 71 32 is_stmt 0 view .LVU4
  37 0000 10402DE9 		push	{r4, lr}
  38              		.cfi_def_cfa_offset 8
  39              		.cfi_offset 4, -8
  40              		.cfi_offset 14, -4
  41              		.loc 1 78 50 view .LVU5
  42 0004 88209FE5 		ldr	r2, .L4
  43              		.loc 1 78 16 view .LVU6
  44 0008 88309FE5 		ldr	r3, .L4+4
  45              		.loc 1 78 50 view .LVU7
  46 000c 181092E5 		ldr	r1, [r2, #24]
  47              		.loc 1 71 32 view .LVU8
  48 0010 08D04DE2 		sub	sp, sp, #8
  49              		.cfi_def_cfa_offset 16
  50              		.loc 1 78 16 view .LVU9
  51 0014 082091E5 		ldr	r2, [r1, #8]
  52 0018 000093E5 		ldr	r0, [r3]
  53 001c 012082E2 		add	r2, r2, #1
  54 0020 00108DE5 		str	r1, [sp]
  55 0024 70309FE5 		ldr	r3, .L4+8
  56 0028 461FA0E3 		mov	r1, #280
  57 002c FEFFFFEB 		bl	chThdCreateStatic
ARM GAS  /tmp/ccz1fEzT.s 			page 2


  58              	.LVL0:
  59              		.loc 1 78 14 view .LVU10
  60 0030 68309FE5 		ldr	r3, .L4+12
  61 0034 000083E5 		str	r0, [r3]
  62              		.loc 1 80 3 is_stmt 1 view .LVU11
  63              		.loc 1 80 8 is_stmt 0 view .LVU12
  64 0038 FEFFFFEB 		bl	chMsgWait
  65              	.LVL1:
  66              		.loc 1 81 3 is_stmt 1 view .LVU13
  67              		.loc 1 81 7 is_stmt 0 view .LVU14
  68 003c 344090E5 		ldr	r4, [r0, #52]
  69              	.LVL2:
  70              		.loc 1 82 3 is_stmt 1 view .LVU15
  71 0040 0410A0E1 		mov	r1, r4
  72 0044 FEFFFFEB 		bl	chMsgRelease
  73              	.LVL3:
  74              		.loc 1 83 3 view .LVU16
  75 0048 7400EFE6 		uxtb	r0, r4
  76 004c FEFFFFEB 		bl	test_emit_token
  77              	.LVL4:
  78              		.loc 1 84 3 view .LVU17
  79              		.loc 1 84 8 is_stmt 0 view .LVU18
  80 0050 FEFFFFEB 		bl	chMsgWait
  81              	.LVL5:
  82              		.loc 1 85 3 is_stmt 1 view .LVU19
  83              		.loc 1 85 7 is_stmt 0 view .LVU20
  84 0054 344090E5 		ldr	r4, [r0, #52]
  85              	.LVL6:
  86              		.loc 1 86 3 is_stmt 1 view .LVU21
  87 0058 0410A0E1 		mov	r1, r4
  88 005c FEFFFFEB 		bl	chMsgRelease
  89              	.LVL7:
  90              		.loc 1 87 3 view .LVU22
  91 0060 7400EFE6 		uxtb	r0, r4
  92 0064 FEFFFFEB 		bl	test_emit_token
  93              	.LVL8:
  94              		.loc 1 88 3 view .LVU23
  95              		.loc 1 88 8 is_stmt 0 view .LVU24
  96 0068 FEFFFFEB 		bl	chMsgWait
  97              	.LVL9:
  98              		.loc 1 89 3 is_stmt 1 view .LVU25
  99              		.loc 1 89 7 is_stmt 0 view .LVU26
 100 006c 344090E5 		ldr	r4, [r0, #52]
 101              	.LVL10:
 102              		.loc 1 90 3 is_stmt 1 view .LVU27
 103 0070 0410A0E1 		mov	r1, r4
 104 0074 FEFFFFEB 		bl	chMsgRelease
 105              	.LVL11:
 106              		.loc 1 91 3 view .LVU28
 107 0078 7400EFE6 		uxtb	r0, r4
 108 007c FEFFFFEB 		bl	test_emit_token
 109              	.LVL12:
 110              		.loc 1 92 3 view .LVU29
 111 0080 0100A0E3 		mov	r0, #1
 112 0084 18109FE5 		ldr	r1, .L4+16
 113              		.loc 1 93 1 is_stmt 0 view .LVU30
 114 0088 08D08DE2 		add	sp, sp, #8
ARM GAS  /tmp/ccz1fEzT.s 			page 3


 115              		.cfi_def_cfa_offset 8
 116              		@ sp needed
 117 008c 1040BDE8 		pop	{r4, lr}
 118              		.cfi_restore 14
 119              		.cfi_restore 4
 120              		.cfi_def_cfa_offset 0
 121              	.LVL13:
 122              		.loc 1 92 3 view .LVU31
 123 0090 FEFFFFEA 		b	_test_assert_sequence
 124              	.LVL14:
 125              	.L5:
 126              		.align	2
 127              	.L4:
 128 0094 00000000 		.word	rlist
 129 0098 00000000 		.word	wa
 130 009c 00000000 		.word	thread
 131 00a0 00000000 		.word	threads
 132 00a4 00000000 		.word	.LC0
 133              		.cfi_endproc
 134              	.LFE8:
 135              		.size	msg1_execute, .-msg1_execute
 136              		.section	.text.thread,"ax",%progbits
 137              		.align	2
 138              		.syntax unified
 139              		.arm
 140              		.fpu softvfp
 141              		.type	thread, %function
 142              	thread:
 143              	.LVL15:
 144              	.LFB7:
 145              		.loc 1 63 30 is_stmt 1 view -0
 146              		.cfi_startproc
 147              		@ args = 0, pretend = 0, frame = 0
 148              		@ frame_needed = 0, uses_anonymous_args = 0
 149              		.loc 1 65 3 view .LVU33
 150              		.loc 1 63 30 is_stmt 0 view .LVU34
 151 0000 10402DE9 		push	{r4, lr}
 152              		.cfi_def_cfa_offset 8
 153              		.cfi_offset 4, -8
 154              		.cfi_offset 14, -4
 155              		.loc 1 63 30 view .LVU35
 156 0004 0040A0E1 		mov	r4, r0
 157              		.loc 1 65 3 view .LVU36
 158 0008 4110A0E3 		mov	r1, #65
 159 000c FEFFFFEB 		bl	chMsgSend
 160              	.LVL16:
 161              		.loc 1 66 3 is_stmt 1 view .LVU37
 162 0010 0400A0E1 		mov	r0, r4
 163 0014 4210A0E3 		mov	r1, #66
 164 0018 FEFFFFEB 		bl	chMsgSend
 165              	.LVL17:
 166              		.loc 1 67 3 view .LVU38
 167 001c 0400A0E1 		mov	r0, r4
 168 0020 4310A0E3 		mov	r1, #67
 169 0024 FEFFFFEB 		bl	chMsgSend
 170              	.LVL18:
 171              		.loc 1 68 3 view .LVU39
ARM GAS  /tmp/ccz1fEzT.s 			page 4


 172              		.loc 1 69 1 is_stmt 0 view .LVU40
 173 0028 0000A0E3 		mov	r0, #0
 174 002c 1080BDE8 		pop	{r4, pc}
 175              		.cfi_endproc
 176              	.LFE7:
 177              		.size	thread, .-thread
 178              		.global	patternmsg
 179              		.global	testmsg1
 180              		.section	.rodata.str1.4,"aMS",%progbits,1
 181              		.align	2
 182              	.LC1:
 183 0000 4D657373 		.ascii	"Messages, loop\000"
 183      61676573 
 183      2C206C6F 
 183      6F7000
 184              		.section	.rodata.patternmsg,"a"
 185              		.align	2
 186              		.type	patternmsg, %object
 187              		.size	patternmsg, 8
 188              	patternmsg:
 189 0000 00000000 		.word	testmsg1
 190 0004 00000000 		.word	0
 191              		.section	.rodata.testmsg1,"a"
 192              		.align	2
 193              		.type	testmsg1, %object
 194              		.size	testmsg1, 16
 195              	testmsg1:
 196 0000 00000000 		.word	.LC1
 197 0004 00000000 		.word	0
 198 0008 00000000 		.word	0
 199 000c 00000000 		.word	msg1_execute
 200              		.text
 201              	.Letext0:
 202              		.file 2 "/usr/lib/gcc/arm-none-eabi/9.2.1/include/stdint.h"
 203              		.file 3 "../os/ports/GCC/ARM/chtypes.h"
 204              		.file 4 "../os/kernel/include/chlists.h"
 205              		.file 5 "../os/kernel/include/chthreads.h"
 206              		.file 6 "../os/ports/GCC/ARM/chcore.h"
 207              		.file 7 "../os/kernel/include/chvt.h"
 208              		.file 8 "../os/kernel/include/chschd.h"
 209              		.file 9 "../os/kernel/include/chmtx.h"
 210              		.file 10 "../os/kernel/include/chregistry.h"
 211              		.file 11 "../os/kernel/include/ch.h"
 212              		.file 12 "../test/test.h"
 213              		.file 13 "../os/kernel/include/chmsg.h"