ARM GAS  /tmp/cc3L2rUz.s 			page 1


   1              		.cpu arm1176jz-s
   2              		.eabi_attribute 20, 1
   3              		.eabi_attribute 21, 1
   4              		.eabi_attribute 23, 3
   5              		.eabi_attribute 24, 1
   6              		.eabi_attribute 25, 1
   7              		.eabi_attribute 26, 1
   8              		.eabi_attribute 30, 2
   9              		.eabi_attribute 34, 1
  10              		.eabi_attribute 18, 4
  11              		.file	"testmtx.c"
  12              		.text
  13              	.Ltext0:
  14              		.cfi_sections	.debug_frame
  15              		.section	.rodata.mtx1_execute.str1.4,"aMS",%progbits,1
  16              		.align	2
  17              	.LC0:
  18 0000 4500     		.ascii	"E\000"
  19 0002 0000     		.align	2
  20              	.LC1:
  21 0004 4400     		.ascii	"D\000"
  22 0006 0000     		.align	2
  23              	.LC2:
  24 0008 4300     		.ascii	"C\000"
  25 000a 0000     		.align	2
  26              	.LC3:
  27 000c 4200     		.ascii	"B\000"
  28 000e 0000     		.align	2
  29              	.LC4:
  30 0010 4100     		.ascii	"A\000"
  31 0012 0000     		.align	2
  32              	.LC5:
  33 0014 41424344 		.ascii	"ABCDE\000"
  33      4500
  34              		.section	.text.mtx1_execute,"ax",%progbits
  35              		.align	2
  36              		.arch armv6kz
  37              		.syntax unified
  38              		.arm
  39              		.fpu softvfp
  40              		.type	mtx1_execute, %function
  41              	mtx1_execute:
  42              	.LFB9:
  43              		.file 1 "../test/testmtx.c"
  44              		.loc 1 101 32 view -0
  45              		.cfi_startproc
  46              		@ args = 0, pretend = 0, frame = 0
  47              		@ frame_needed = 0, uses_anonymous_args = 0
  48              		.loc 1 103 3 view .LVU1
  49              		.loc 1 101 32 is_stmt 0 view .LVU2
  50 0000 F0402DE9 		push	{r4, r5, r6, r7, lr}
  51              		.cfi_def_cfa_offset 20
  52              		.cfi_offset 4, -20
  53              		.cfi_offset 5, -16
  54              		.cfi_offset 6, -12
  55              		.cfi_offset 7, -8
  56              		.cfi_offset 14, -4
ARM GAS  /tmp/cc3L2rUz.s 			page 2


  57              		.loc 1 103 18 view .LVU3
  58 0004 10719FE5 		ldr	r7, .L6
  59              		.loc 1 101 32 view .LVU4
  60 0008 0CD04DE2 		sub	sp, sp, #12
  61              		.cfi_def_cfa_offset 32
  62              		.loc 1 103 11 view .LVU5
  63 000c 183097E5 		ldr	r3, [r7, #24]
  64              		.loc 1 104 3 view .LVU6
  65 0010 08019FE5 		ldr	r0, .L6+4
  66              		.loc 1 103 11 view .LVU7
  67 0014 084093E5 		ldr	r4, [r3, #8]
  68              	.LVL0:
  69              		.loc 1 104 3 is_stmt 1 view .LVU8
  70              		.loc 1 105 16 is_stmt 0 view .LVU9
  71 0018 04619FE5 		ldr	r6, .L6+8
  72              		.loc 1 104 3 view .LVU10
  73 001c FEFFFFEB 		bl	chMtxLock
  74              	.LVL1:
  75              		.loc 1 105 3 is_stmt 1 view .LVU11
  76              		.loc 1 105 16 is_stmt 0 view .LVU12
  77 0020 00319FE5 		ldr	r3, .L6+12
  78 0024 461FA0E3 		mov	r1, #280
  79 0028 012084E2 		add	r2, r4, #1
  80 002c 00308DE5 		str	r3, [sp]
  81 0030 000096E5 		ldr	r0, [r6]
  82 0034 F0309FE5 		ldr	r3, .L6+16
  83 0038 FEFFFFEB 		bl	chThdCreateStatic
  84              	.LVL2:
  85 003c 00C0A0E1 		mov	ip, r0
  86              		.loc 1 106 16 view .LVU13
  87 0040 E8309FE5 		ldr	r3, .L6+20
  88              		.loc 1 105 14 view .LVU14
  89 0044 E8509FE5 		ldr	r5, .L6+24
  90              		.loc 1 106 16 view .LVU15
  91 0048 461FA0E3 		mov	r1, #280
  92 004c 022084E2 		add	r2, r4, #2
  93 0050 00308DE5 		str	r3, [sp]
  94 0054 040096E5 		ldr	r0, [r6, #4]
  95 0058 CC309FE5 		ldr	r3, .L6+16
  96              		.loc 1 105 14 view .LVU16
  97 005c 00C085E5 		str	ip, [r5]
  98              		.loc 1 106 3 is_stmt 1 view .LVU17
  99              		.loc 1 106 16 is_stmt 0 view .LVU18
 100 0060 FEFFFFEB 		bl	chThdCreateStatic
 101              	.LVL3:
 102 0064 00C0A0E1 		mov	ip, r0
 103              		.loc 1 107 16 view .LVU19
 104 0068 C8309FE5 		ldr	r3, .L6+28
 105 006c 461FA0E3 		mov	r1, #280
 106 0070 032084E2 		add	r2, r4, #3
 107 0074 00308DE5 		str	r3, [sp]
 108 0078 080096E5 		ldr	r0, [r6, #8]
 109 007c A8309FE5 		ldr	r3, .L6+16
 110              		.loc 1 106 14 view .LVU20
 111 0080 04C085E5 		str	ip, [r5, #4]
 112              		.loc 1 107 3 is_stmt 1 view .LVU21
 113              		.loc 1 107 16 is_stmt 0 view .LVU22
ARM GAS  /tmp/cc3L2rUz.s 			page 3


 114 0084 FEFFFFEB 		bl	chThdCreateStatic
 115              	.LVL4:
 116 0088 00C0A0E1 		mov	ip, r0
 117              		.loc 1 108 16 view .LVU23
 118 008c A8309FE5 		ldr	r3, .L6+32
 119 0090 461FA0E3 		mov	r1, #280
 120 0094 042084E2 		add	r2, r4, #4
 121 0098 00308DE5 		str	r3, [sp]
 122 009c 0C0096E5 		ldr	r0, [r6, #12]
 123 00a0 84309FE5 		ldr	r3, .L6+16
 124              		.loc 1 107 14 view .LVU24
 125 00a4 08C085E5 		str	ip, [r5, #8]
 126              		.loc 1 108 3 is_stmt 1 view .LVU25
 127              		.loc 1 108 16 is_stmt 0 view .LVU26
 128 00a8 FEFFFFEB 		bl	chThdCreateStatic
 129              	.LVL5:
 130 00ac 00C0A0E1 		mov	ip, r0
 131              		.loc 1 109 16 view .LVU27
 132 00b0 88309FE5 		ldr	r3, .L6+36
 133 00b4 461FA0E3 		mov	r1, #280
 134 00b8 052084E2 		add	r2, r4, #5
 135 00bc 00308DE5 		str	r3, [sp]
 136 00c0 100096E5 		ldr	r0, [r6, #16]
 137 00c4 60309FE5 		ldr	r3, .L6+16
 138              		.loc 1 108 14 view .LVU28
 139 00c8 0CC085E5 		str	ip, [r5, #12]
 140              		.loc 1 109 3 is_stmt 1 view .LVU29
 141              		.loc 1 109 16 is_stmt 0 view .LVU30
 142 00cc FEFFFFEB 		bl	chThdCreateStatic
 143              	.LVL6:
 144              		.loc 1 109 14 view .LVU31
 145 00d0 100085E5 		str	r0, [r5, #16]
 146              		.loc 1 110 3 is_stmt 1 view .LVU32
 147 00d4 FEFFFFEB 		bl	chMtxUnlock
 148              	.LVL7:
 149              		.loc 1 111 3 view .LVU33
 150 00d8 FEFFFFEB 		bl	test_wait_threads
 151              	.LVL8:
 152              		.loc 1 112 3 view .LVU34
 153 00dc 183097E5 		ldr	r3, [r7, #24]
 154 00e0 0100A0E3 		mov	r0, #1
 155 00e4 081093E5 		ldr	r1, [r3, #8]
 156 00e8 041041E0 		sub	r1, r1, r4
 157 00ec 111F6FE1 		clz	r1, r1
 158 00f0 A112A0E1 		lsr	r1, r1, #5
 159 00f4 FEFFFFEB 		bl	_test_assert
 160              	.LVL9:
 161 00f8 000050E3 		cmp	r0, #0
 162 00fc 0100000A 		beq	.L5
 163              		.loc 1 114 1 is_stmt 0 view .LVU35
 164 0100 0CD08DE2 		add	sp, sp, #12
 165              		.cfi_remember_state
 166              		.cfi_def_cfa_offset 20
 167              		@ sp needed
 168 0104 F080BDE8 		pop	{r4, r5, r6, r7, pc}
 169              	.LVL10:
 170              	.L5:
ARM GAS  /tmp/cc3L2rUz.s 			page 4


 171              		.cfi_restore_state
 172              		.loc 1 112 69 is_stmt 1 discriminator 2 view .LVU36
 173              		.loc 1 113 3 discriminator 2 view .LVU37
 174 0108 0200A0E3 		mov	r0, #2
 175 010c 30109FE5 		ldr	r1, .L6+40
 176              		.loc 1 114 1 is_stmt 0 discriminator 2 view .LVU38
 177 0110 0CD08DE2 		add	sp, sp, #12
 178              		.cfi_def_cfa_offset 20
 179              		@ sp needed
 180 0114 F040BDE8 		pop	{r4, r5, r6, r7, lr}
 181              		.cfi_restore 14
 182              		.cfi_restore 7
 183              		.cfi_restore 6
 184              		.cfi_restore 5
 185              		.cfi_restore 4
 186              		.cfi_def_cfa_offset 0
 187              	.LVL11:
 188              		.loc 1 113 3 discriminator 2 view .LVU39
 189 0118 FEFFFFEA 		b	_test_assert_sequence
 190              	.LVL12:
 191              	.L7:
 192              		.align	2
 193              	.L6:
 194 011c 00000000 		.word	rlist
 195 0120 00000000 		.word	.LANCHOR0
 196 0124 00000000 		.word	wa
 197 0128 00000000 		.word	.LC0
 198 012c 00000000 		.word	thread1
 199 0130 04000000 		.word	.LC1
 200 0134 00000000 		.word	threads
 201 0138 08000000 		.word	.LC2
 202 013c 0C000000 		.word	.LC3
 203 0140 10000000 		.word	.LC4
 204 0144 14000000 		.word	.LC5
 205              		.cfi_endproc
 206              	.LFE9:
 207              		.size	mtx1_execute, .-mtx1_execute
 208              		.section	.text.thread1,"ax",%progbits
 209              		.align	2
 210              		.syntax unified
 211              		.arm
 212              		.fpu softvfp
 213              		.type	thread1, %function
 214              	thread1:
 215              	.LVL13:
 216              	.LFB8:
 217              		.loc 1 93 31 is_stmt 1 view -0
 218              		.cfi_startproc
 219              		@ args = 0, pretend = 0, frame = 0
 220              		@ frame_needed = 0, uses_anonymous_args = 0
 221              		.loc 1 95 3 view .LVU41
 222              		.loc 1 93 31 is_stmt 0 view .LVU42
 223 0000 10402DE9 		push	{r4, lr}
 224              		.cfi_def_cfa_offset 8
 225              		.cfi_offset 4, -8
 226              		.cfi_offset 14, -4
 227              		.loc 1 93 31 view .LVU43
ARM GAS  /tmp/cc3L2rUz.s 			page 5


 228 0004 0040A0E1 		mov	r4, r0
 229              		.loc 1 95 3 view .LVU44
 230 0008 14009FE5 		ldr	r0, .L10
 231              	.LVL14:
 232              		.loc 1 95 3 view .LVU45
 233 000c FEFFFFEB 		bl	chMtxLock
 234              	.LVL15:
 235              		.loc 1 96 3 is_stmt 1 view .LVU46
 236 0010 0000D4E5 		ldrb	r0, [r4]	@ zero_extendqisi2
 237 0014 FEFFFFEB 		bl	test_emit_token
 238              	.LVL16:
 239              		.loc 1 97 3 view .LVU47
 240 0018 FEFFFFEB 		bl	chMtxUnlock
 241              	.LVL17:
 242              		.loc 1 98 3 view .LVU48
 243              		.loc 1 99 1 is_stmt 0 view .LVU49
 244 001c 0000A0E3 		mov	r0, #0
 245 0020 1080BDE8 		pop	{r4, pc}
 246              	.L11:
 247              		.align	2
 248              	.L10:
 249 0024 00000000 		.word	.LANCHOR0
 250              		.cfi_endproc
 251              	.LFE8:
 252              		.size	thread1, .-thread1
 253              		.section	.text.thread12,"ax",%progbits
 254              		.align	2
 255              		.syntax unified
 256              		.arm
 257              		.fpu softvfp
 258              		.type	thread12, %function
 259              	thread12:
 260              	.LVL18:
 261              	.LFB35:
 262              		.loc 1 591 32 is_stmt 1 view -0
 263              		.cfi_startproc
 264              		@ args = 0, pretend = 0, frame = 0
 265              		@ frame_needed = 0, uses_anonymous_args = 0
 266              		.loc 1 593 3 view .LVU51
 267              		.loc 1 591 32 is_stmt 0 view .LVU52
 268 0000 10402DE9 		push	{r4, lr}
 269              		.cfi_def_cfa_offset 8
 270              		.cfi_offset 4, -8
 271              		.cfi_offset 14, -4
 272              		.loc 1 591 32 view .LVU53
 273 0004 0040A0E1 		mov	r4, r0
 274              		.loc 1 593 3 view .LVU54
 275 0008 14009FE5 		ldr	r0, .L14
 276              	.LVL19:
 277              		.loc 1 593 3 view .LVU55
 278 000c FEFFFFEB 		bl	chMtxLock
 279              	.LVL20:
 280              		.loc 1 594 3 is_stmt 1 view .LVU56
 281 0010 0000D4E5 		ldrb	r0, [r4]	@ zero_extendqisi2
 282 0014 FEFFFFEB 		bl	test_emit_token
 283              	.LVL21:
 284              		.loc 1 595 3 view .LVU57
ARM GAS  /tmp/cc3L2rUz.s 			page 6


 285 0018 FEFFFFEB 		bl	chMtxUnlock
 286              	.LVL22:
 287              		.loc 1 596 3 view .LVU58
 288              		.loc 1 597 1 is_stmt 0 view .LVU59
 289 001c 0000A0E3 		mov	r0, #0
 290 0020 1080BDE8 		pop	{r4, pc}
 291              	.L15:
 292              		.align	2
 293              	.L14:
 294 0024 00000000 		.word	.LANCHOR1
 295              		.cfi_endproc
 296              	.LFE35:
 297              		.size	thread12, .-thread12
 298              		.section	.text.mtx1_setup,"ax",%progbits
 299              		.align	2
 300              		.syntax unified
 301              		.arm
 302              		.fpu softvfp
 303              		.type	mtx1_setup, %function
 304              	mtx1_setup:
 305              	.LFB7:
 306              		.loc 1 88 30 is_stmt 1 view -0
 307              		.cfi_startproc
 308              		@ args = 0, pretend = 0, frame = 0
 309              		@ frame_needed = 0, uses_anonymous_args = 0
 310              		@ link register save eliminated.
 311              		.loc 1 90 3 view .LVU61
 312 0000 00009FE5 		ldr	r0, .L17
 313 0004 FEFFFFEA 		b	chMtxInit
 314              	.LVL23:
 315              	.L18:
 316              		.align	2
 317              	.L17:
 318 0008 00000000 		.word	.LANCHOR0
 319              		.cfi_endproc
 320              	.LFE7:
 321              		.size	mtx1_setup, .-mtx1_setup
 322              		.section	.text.mtx2_setup,"ax",%progbits
 323              		.align	2
 324              		.syntax unified
 325              		.arm
 326              		.fpu softvfp
 327              		.type	mtx2_setup, %function
 328              	mtx2_setup:
 329              	.LFB38:
 330              		.cfi_startproc
 331              		@ args = 0, pretend = 0, frame = 0
 332              		@ frame_needed = 0, uses_anonymous_args = 0
 333              		@ link register save eliminated.
 334 0000 FEFFFFEA 		b	mtx1_setup
 335              		.cfi_endproc
 336              	.LFE38:
 337              		.size	mtx2_setup, .-mtx2_setup
 338              		.section	.text.mtx5_setup,"ax",%progbits
 339              		.align	2
 340              		.syntax unified
 341              		.arm
ARM GAS  /tmp/cc3L2rUz.s 			page 7


 342              		.fpu softvfp
 343              		.type	mtx5_setup, %function
 344              	mtx5_setup:
 345              	.LFB40:
 346              		.cfi_startproc
 347              		@ args = 0, pretend = 0, frame = 0
 348              		@ frame_needed = 0, uses_anonymous_args = 0
 349              		@ link register save eliminated.
 350 0000 FEFFFFEA 		b	mtx1_setup
 351              		.cfi_endproc
 352              	.LFE40:
 353              		.size	mtx5_setup, .-mtx5_setup
 354              		.section	.text.mtx3_setup,"ax",%progbits
 355              		.align	2
 356              		.syntax unified
 357              		.arm
 358              		.fpu softvfp
 359              		.type	mtx3_setup, %function
 360              	mtx3_setup:
 361              	.LFB15:
 362              		.loc 1 245 30 view -0
 363              		.cfi_startproc
 364              		@ args = 0, pretend = 0, frame = 0
 365              		@ frame_needed = 0, uses_anonymous_args = 0
 366              		.loc 1 247 3 view .LVU63
 367              		.loc 1 245 30 is_stmt 0 view .LVU64
 368 0000 10402DE9 		push	{r4, lr}
 369              		.cfi_def_cfa_offset 8
 370              		.cfi_offset 4, -8
 371              		.cfi_offset 14, -4
 372              		.loc 1 247 3 view .LVU65
 373 0004 0C009FE5 		ldr	r0, .L23
 374 0008 FEFFFFEB 		bl	chMtxInit
 375              	.LVL24:
 376              		.loc 1 248 3 is_stmt 1 view .LVU66
 377              		.loc 1 249 1 is_stmt 0 view .LVU67
 378 000c 1040BDE8 		pop	{r4, lr}
 379              		.cfi_restore 14
 380              		.cfi_restore 4
 381              		.cfi_def_cfa_offset 0
 382              		.loc 1 248 3 view .LVU68
 383 0010 04009FE5 		ldr	r0, .L23+4
 384 0014 FEFFFFEA 		b	chMtxInit
 385              	.LVL25:
 386              	.L24:
 387              		.align	2
 388              	.L23:
 389 0018 00000000 		.word	.LANCHOR0
 390 001c 00000000 		.word	.LANCHOR1
 391              		.cfi_endproc
 392              	.LFE15:
 393              		.size	mtx3_setup, .-mtx3_setup
 394              		.section	.text.mtx4_setup,"ax",%progbits
 395              		.align	2
 396              		.syntax unified
 397              		.arm
 398              		.fpu softvfp
ARM GAS  /tmp/cc3L2rUz.s 			page 8


 399              		.type	mtx4_setup, %function
 400              	mtx4_setup:
 401              	.LFB42:
 402              		.cfi_startproc
 403              		@ args = 0, pretend = 0, frame = 0
 404              		@ frame_needed = 0, uses_anonymous_args = 0
 405              		@ link register save eliminated.
 406 0000 FEFFFFEA 		b	mtx3_setup
 407              		.cfi_endproc
 408              	.LFE42:
 409              		.size	mtx4_setup, .-mtx4_setup
 410              		.section	.rodata.mtx2_execute.str1.4,"aMS",%progbits,1
 411              		.align	2
 412              	.LC6:
 413 0000 41424300 		.ascii	"ABC\000"
 414              		.section	.text.mtx2_execute,"ax",%progbits
 415              		.align	2
 416              		.syntax unified
 417              		.arm
 418              		.fpu softvfp
 419              		.type	mtx2_execute, %function
 420              	mtx2_execute:
 421              	.LFB14:
 422              		.loc 1 194 32 is_stmt 1 view -0
 423              		.cfi_startproc
 424              		@ args = 0, pretend = 0, frame = 0
 425              		@ frame_needed = 0, uses_anonymous_args = 0
 426              		.loc 1 195 3 view .LVU70
 427              		.loc 1 197 3 view .LVU71
 428              		.loc 1 194 32 is_stmt 0 view .LVU72
 429 0000 F0412DE9 		push	{r4, r5, r6, r7, r8, lr}
 430              		.cfi_def_cfa_offset 24
 431              		.cfi_offset 4, -24
 432              		.cfi_offset 5, -20
 433              		.cfi_offset 6, -16
 434              		.cfi_offset 7, -12
 435              		.cfi_offset 8, -8
 436              		.cfi_offset 14, -4
 437              		.loc 1 199 16 view .LVU73
 438 0004 0050A0E3 		mov	r5, #0
 439              		.loc 1 199 50 view .LVU74
 440 0008 C0709FE5 		ldr	r7, .L30
 441              		.loc 1 194 32 view .LVU75
 442 000c 08D04DE2 		sub	sp, sp, #8
 443              		.cfi_def_cfa_offset 32
 444              		.loc 1 197 3 view .LVU76
 445 0010 FEFFFFEB 		bl	test_wait_tick
 446              	.LVL26:
 447              		.loc 1 198 3 is_stmt 1 view .LVU77
 448              		.loc 1 199 50 is_stmt 0 view .LVU78
 449 0014 183097E5 		ldr	r3, [r7, #24]
 450              		.loc 1 199 16 view .LVU79
 451 0018 B4609FE5 		ldr	r6, .L30+4
 452 001c 082093E5 		ldr	r2, [r3, #8]
 453              		.loc 1 198 8 view .LVU80
 454 0020 B0C09FE5 		ldr	ip, .L30+8
 455              		.loc 1 199 16 view .LVU81
ARM GAS  /tmp/cc3L2rUz.s 			page 9


 456 0024 461FA0E3 		mov	r1, #280
 457 0028 AC309FE5 		ldr	r3, .L30+12
 458 002c 012042E2 		sub	r2, r2, #1
 459 0030 00508DE5 		str	r5, [sp]
 460 0034 000096E5 		ldr	r0, [r6]
 461              		.loc 1 198 8 view .LVU82
 462 0038 0C809CE5 		ldr	r8, [ip, #12]
 463              	.LVL27:
 464              		.loc 1 199 3 is_stmt 1 view .LVU83
 465              		.loc 1 199 16 is_stmt 0 view .LVU84
 466 003c FEFFFFEB 		bl	chThdCreateStatic
 467              	.LVL28:
 468 0040 00C0A0E1 		mov	ip, r0
 469              		.loc 1 200 50 view .LVU85
 470 0044 183097E5 		ldr	r3, [r7, #24]
 471              		.loc 1 199 14 view .LVU86
 472 0048 90409FE5 		ldr	r4, .L30+16
 473              		.loc 1 200 16 view .LVU87
 474 004c 082093E5 		ldr	r2, [r3, #8]
 475 0050 461FA0E3 		mov	r1, #280
 476 0054 88309FE5 		ldr	r3, .L30+20
 477 0058 022042E2 		sub	r2, r2, #2
 478 005c 040096E5 		ldr	r0, [r6, #4]
 479 0060 00508DE5 		str	r5, [sp]
 480              		.loc 1 199 14 view .LVU88
 481 0064 00C084E5 		str	ip, [r4]
 482              		.loc 1 200 3 is_stmt 1 view .LVU89
 483              		.loc 1 200 16 is_stmt 0 view .LVU90
 484 0068 FEFFFFEB 		bl	chThdCreateStatic
 485              	.LVL29:
 486 006c 00C0A0E1 		mov	ip, r0
 487              		.loc 1 201 50 view .LVU91
 488 0070 183097E5 		ldr	r3, [r7, #24]
 489              		.loc 1 201 16 view .LVU92
 490 0074 461FA0E3 		mov	r1, #280
 491 0078 082093E5 		ldr	r2, [r3, #8]
 492 007c 080096E5 		ldr	r0, [r6, #8]
 493 0080 60309FE5 		ldr	r3, .L30+24
 494 0084 032042E2 		sub	r2, r2, #3
 495 0088 00508DE5 		str	r5, [sp]
 496              		.loc 1 200 14 view .LVU93
 497 008c 04C084E5 		str	ip, [r4, #4]
 498              		.loc 1 201 3 is_stmt 1 view .LVU94
 499              		.loc 1 201 16 is_stmt 0 view .LVU95
 500 0090 FEFFFFEB 		bl	chThdCreateStatic
 501              	.LVL30:
 502              		.loc 1 201 14 view .LVU96
 503 0094 080084E5 		str	r0, [r4, #8]
 504              		.loc 1 202 3 is_stmt 1 view .LVU97
 505 0098 FEFFFFEB 		bl	test_wait_threads
 506              	.LVL31:
 507              		.loc 1 203 3 view .LVU98
 508 009c 0100A0E3 		mov	r0, #1
 509 00a0 44109FE5 		ldr	r1, .L30+28
 510 00a4 FEFFFFEB 		bl	_test_assert_sequence
 511              	.LVL32:
 512 00a8 050050E1 		cmp	r0, r5
ARM GAS  /tmp/cc3L2rUz.s 			page 10


 513 00ac 0100000A 		beq	.L29
 514              		.loc 1 205 1 is_stmt 0 view .LVU99
 515 00b0 08D08DE2 		add	sp, sp, #8
 516              		.cfi_remember_state
 517              		.cfi_def_cfa_offset 24
 518              		@ sp needed
 519 00b4 F081BDE8 		pop	{r4, r5, r6, r7, r8, pc}
 520              	.LVL33:
 521              	.L29:
 522              		.cfi_restore_state
 523              		.loc 1 203 33 is_stmt 1 discriminator 2 view .LVU100
 524              		.loc 1 204 3 discriminator 2 view .LVU101
 525 00b8 0200A0E3 		mov	r0, #2
 526 00bc 692088E2 		add	r2, r8, #105
 527 00c0 641088E2 		add	r1, r8, #100
 528              		.loc 1 205 1 is_stmt 0 discriminator 2 view .LVU102
 529 00c4 08D08DE2 		add	sp, sp, #8
 530              		.cfi_def_cfa_offset 24
 531              		@ sp needed
 532 00c8 F041BDE8 		pop	{r4, r5, r6, r7, r8, lr}
 533              		.cfi_restore 14
 534              		.cfi_restore 8
 535              		.cfi_restore 7
 536              		.cfi_restore 6
 537              		.cfi_restore 5
 538              		.cfi_restore 4
 539              		.cfi_def_cfa_offset 0
 540              	.LVL34:
 541              		.loc 1 204 3 discriminator 2 view .LVU103
 542 00cc FEFFFFEA 		b	_test_assert_time_window
 543              	.LVL35:
 544              	.L31:
 545              		.loc 1 204 3 discriminator 2 view .LVU104
 546              		.align	2
 547              	.L30:
 548 00d0 00000000 		.word	rlist
 549 00d4 00000000 		.word	wa
 550 00d8 00000000 		.word	vtlist
 551 00dc 00000000 		.word	thread2H
 552 00e0 00000000 		.word	threads
 553 00e4 00000000 		.word	thread2M
 554 00e8 00000000 		.word	thread2L
 555 00ec 00000000 		.word	.LC6
 556              		.cfi_endproc
 557              	.LFE14:
 558              		.size	mtx2_execute, .-mtx2_execute
 559              		.section	.text.mtx3_execute,"ax",%progbits
 560              		.align	2
 561              		.syntax unified
 562              		.arm
 563              		.fpu softvfp
 564              		.type	mtx3_execute, %function
 565              	mtx3_execute:
 566              	.LFB21:
 567              		.loc 1 312 32 is_stmt 1 view -0
 568              		.cfi_startproc
 569              		@ args = 0, pretend = 0, frame = 0
ARM GAS  /tmp/cc3L2rUz.s 			page 11


 570              		@ frame_needed = 0, uses_anonymous_args = 0
 571              		.loc 1 313 3 view .LVU106
 572              		.loc 1 315 3 view .LVU107
 573              		.loc 1 312 32 is_stmt 0 view .LVU108
 574 0000 F0412DE9 		push	{r4, r5, r6, r7, r8, lr}
 575              		.cfi_def_cfa_offset 24
 576              		.cfi_offset 4, -24
 577              		.cfi_offset 5, -20
 578              		.cfi_offset 6, -16
 579              		.cfi_offset 7, -12
 580              		.cfi_offset 8, -8
 581              		.cfi_offset 14, -4
 582              		.loc 1 317 16 view .LVU109
 583 0004 0050A0E3 		mov	r5, #0
 584              		.loc 1 317 50 view .LVU110
 585 0008 10719FE5 		ldr	r7, .L36
 586              		.loc 1 312 32 view .LVU111
 587 000c 08D04DE2 		sub	sp, sp, #8
 588              		.cfi_def_cfa_offset 32
 589              		.loc 1 315 3 view .LVU112
 590 0010 FEFFFFEB 		bl	test_wait_tick
 591              	.LVL36:
 592              		.loc 1 316 3 is_stmt 1 view .LVU113
 593              		.loc 1 317 50 is_stmt 0 view .LVU114
 594 0014 183097E5 		ldr	r3, [r7, #24]
 595              		.loc 1 317 16 view .LVU115
 596 0018 04619FE5 		ldr	r6, .L36+4
 597 001c 082093E5 		ldr	r2, [r3, #8]
 598              		.loc 1 316 8 view .LVU116
 599 0020 00C19FE5 		ldr	ip, .L36+8
 600              		.loc 1 317 16 view .LVU117
 601 0024 461FA0E3 		mov	r1, #280
 602 0028 FC309FE5 		ldr	r3, .L36+12
 603 002c 052042E2 		sub	r2, r2, #5
 604 0030 00508DE5 		str	r5, [sp]
 605 0034 000096E5 		ldr	r0, [r6]
 606              		.loc 1 316 8 view .LVU118
 607 0038 0C809CE5 		ldr	r8, [ip, #12]
 608              	.LVL37:
 609              		.loc 1 317 3 is_stmt 1 view .LVU119
 610              		.loc 1 317 16 is_stmt 0 view .LVU120
 611 003c FEFFFFEB 		bl	chThdCreateStatic
 612              	.LVL38:
 613 0040 00C0A0E1 		mov	ip, r0
 614              		.loc 1 318 50 view .LVU121
 615 0044 183097E5 		ldr	r3, [r7, #24]
 616              		.loc 1 317 14 view .LVU122
 617 0048 E0409FE5 		ldr	r4, .L36+16
 618              		.loc 1 318 16 view .LVU123
 619 004c 082093E5 		ldr	r2, [r3, #8]
 620 0050 461FA0E3 		mov	r1, #280
 621 0054 D8309FE5 		ldr	r3, .L36+20
 622 0058 042042E2 		sub	r2, r2, #4
 623 005c 040096E5 		ldr	r0, [r6, #4]
 624 0060 00508DE5 		str	r5, [sp]
 625              		.loc 1 317 14 view .LVU124
 626 0064 00C084E5 		str	ip, [r4]
ARM GAS  /tmp/cc3L2rUz.s 			page 12


 627              		.loc 1 318 3 is_stmt 1 view .LVU125
 628              		.loc 1 318 16 is_stmt 0 view .LVU126
 629 0068 FEFFFFEB 		bl	chThdCreateStatic
 630              	.LVL39:
 631 006c 00C0A0E1 		mov	ip, r0
 632              		.loc 1 319 50 view .LVU127
 633 0070 183097E5 		ldr	r3, [r7, #24]
 634              		.loc 1 319 16 view .LVU128
 635 0074 461FA0E3 		mov	r1, #280
 636 0078 082093E5 		ldr	r2, [r3, #8]
 637 007c 080096E5 		ldr	r0, [r6, #8]
 638 0080 B0309FE5 		ldr	r3, .L36+24
 639 0084 032042E2 		sub	r2, r2, #3
 640 0088 00508DE5 		str	r5, [sp]
 641              		.loc 1 318 14 view .LVU129
 642 008c 04C084E5 		str	ip, [r4, #4]
 643              		.loc 1 319 3 is_stmt 1 view .LVU130
 644              		.loc 1 319 16 is_stmt 0 view .LVU131
 645 0090 FEFFFFEB 		bl	chThdCreateStatic
 646              	.LVL40:
 647 0094 00C0A0E1 		mov	ip, r0
 648              		.loc 1 320 50 view .LVU132
 649 0098 183097E5 		ldr	r3, [r7, #24]
 650              		.loc 1 320 16 view .LVU133
 651 009c 461FA0E3 		mov	r1, #280
 652 00a0 082093E5 		ldr	r2, [r3, #8]
 653 00a4 0C0096E5 		ldr	r0, [r6, #12]
 654 00a8 8C309FE5 		ldr	r3, .L36+28
 655 00ac 022042E2 		sub	r2, r2, #2
 656 00b0 00508DE5 		str	r5, [sp]
 657              		.loc 1 319 14 view .LVU134
 658 00b4 08C084E5 		str	ip, [r4, #8]
 659              		.loc 1 320 3 is_stmt 1 view .LVU135
 660              		.loc 1 320 16 is_stmt 0 view .LVU136
 661 00b8 FEFFFFEB 		bl	chThdCreateStatic
 662              	.LVL41:
 663 00bc 00C0A0E1 		mov	ip, r0
 664              		.loc 1 321 50 view .LVU137
 665 00c0 183097E5 		ldr	r3, [r7, #24]
 666              		.loc 1 321 16 view .LVU138
 667 00c4 461FA0E3 		mov	r1, #280
 668 00c8 082093E5 		ldr	r2, [r3, #8]
 669 00cc 100096E5 		ldr	r0, [r6, #16]
 670 00d0 68309FE5 		ldr	r3, .L36+32
 671 00d4 012042E2 		sub	r2, r2, #1
 672 00d8 00508DE5 		str	r5, [sp]
 673              		.loc 1 320 14 view .LVU139
 674 00dc 0CC084E5 		str	ip, [r4, #12]
 675              		.loc 1 321 3 is_stmt 1 view .LVU140
 676              		.loc 1 321 16 is_stmt 0 view .LVU141
 677 00e0 FEFFFFEB 		bl	chThdCreateStatic
 678              	.LVL42:
 679              		.loc 1 321 14 view .LVU142
 680 00e4 100084E5 		str	r0, [r4, #16]
 681              		.loc 1 322 3 is_stmt 1 view .LVU143
 682 00e8 FEFFFFEB 		bl	test_wait_threads
 683              	.LVL43:
ARM GAS  /tmp/cc3L2rUz.s 			page 13


 684              		.loc 1 323 3 view .LVU144
 685 00ec 0100A0E3 		mov	r0, #1
 686 00f0 4C109FE5 		ldr	r1, .L36+36
 687 00f4 FEFFFFEB 		bl	_test_assert_sequence
 688              	.LVL44:
 689 00f8 050050E1 		cmp	r0, r5
 690 00fc 0100000A 		beq	.L35
 691              		.loc 1 325 1 is_stmt 0 view .LVU145
 692 0100 08D08DE2 		add	sp, sp, #8
 693              		.cfi_remember_state
 694              		.cfi_def_cfa_offset 24
 695              		@ sp needed
 696 0104 F081BDE8 		pop	{r4, r5, r6, r7, r8, pc}
 697              	.LVL45:
 698              	.L35:
 699              		.cfi_restore_state
 700              		.loc 1 323 35 is_stmt 1 discriminator 2 view .LVU146
 701              		.loc 1 324 3 discriminator 2 view .LVU147
 702 0108 0200A0E3 		mov	r0, #2
 703 010c 732088E2 		add	r2, r8, #115
 704 0110 6E1088E2 		add	r1, r8, #110
 705              		.loc 1 325 1 is_stmt 0 discriminator 2 view .LVU148
 706 0114 08D08DE2 		add	sp, sp, #8
 707              		.cfi_def_cfa_offset 24
 708              		@ sp needed
 709 0118 F041BDE8 		pop	{r4, r5, r6, r7, r8, lr}
 710              		.cfi_restore 14
 711              		.cfi_restore 8
 712              		.cfi_restore 7
 713              		.cfi_restore 6
 714              		.cfi_restore 5
 715              		.cfi_restore 4
 716              		.cfi_def_cfa_offset 0
 717              	.LVL46:
 718              		.loc 1 324 3 discriminator 2 view .LVU149
 719 011c FEFFFFEA 		b	_test_assert_time_window
 720              	.LVL47:
 721              	.L37:
 722              		.loc 1 324 3 discriminator 2 view .LVU150
 723              		.align	2
 724              	.L36:
 725 0120 00000000 		.word	rlist
 726 0124 00000000 		.word	wa
 727 0128 00000000 		.word	vtlist
 728 012c 00000000 		.word	thread3LL
 729 0130 00000000 		.word	threads
 730 0134 00000000 		.word	thread3L
 731 0138 00000000 		.word	thread3M
 732 013c 00000000 		.word	thread3H
 733 0140 00000000 		.word	thread3HH
 734 0144 14000000 		.word	.LC5
 735              		.cfi_endproc
 736              	.LFE21:
 737              		.size	mtx3_execute, .-mtx3_execute
 738              		.section	.text.thread2L,"ax",%progbits
 739              		.align	2
 740              		.syntax unified
ARM GAS  /tmp/cc3L2rUz.s 			page 14


 741              		.arm
 742              		.fpu softvfp
 743              		.type	thread2L, %function
 744              	thread2L:
 745              	.LVL48:
 746              	.LFB11:
 747              		.loc 1 161 32 is_stmt 1 view -0
 748              		.cfi_startproc
 749              		@ args = 0, pretend = 0, frame = 0
 750              		@ frame_needed = 0, uses_anonymous_args = 0
 751              		.loc 1 163 3 view .LVU152
 752              		.loc 1 164 3 view .LVU153
 753              		.loc 1 161 32 is_stmt 0 view .LVU154
 754 0000 10402DE9 		push	{r4, lr}
 755              		.cfi_def_cfa_offset 8
 756              		.cfi_offset 4, -8
 757              		.cfi_offset 14, -4
 758              		.loc 1 164 3 view .LVU155
 759 0004 24009FE5 		ldr	r0, .L40
 760              	.LVL49:
 761              		.loc 1 164 3 view .LVU156
 762 0008 FEFFFFEB 		bl	chMtxLock
 763              	.LVL50:
 764              		.loc 1 165 3 is_stmt 1 view .LVU157
 765 000c 2800A0E3 		mov	r0, #40
 766 0010 FEFFFFEB 		bl	test_cpu_pulse
 767              	.LVL51:
 768              		.loc 1 166 3 view .LVU158
 769 0014 FEFFFFEB 		bl	chMtxUnlock
 770              	.LVL52:
 771              		.loc 1 167 3 view .LVU159
 772 0018 0A00A0E3 		mov	r0, #10
 773 001c FEFFFFEB 		bl	test_cpu_pulse
 774              	.LVL53:
 775              		.loc 1 168 3 view .LVU160
 776 0020 4300A0E3 		mov	r0, #67
 777 0024 FEFFFFEB 		bl	test_emit_token
 778              	.LVL54:
 779              		.loc 1 169 3 view .LVU161
 780              		.loc 1 170 1 is_stmt 0 view .LVU162
 781 0028 0000A0E3 		mov	r0, #0
 782 002c 1080BDE8 		pop	{r4, pc}
 783              	.L41:
 784              		.align	2
 785              	.L40:
 786 0030 00000000 		.word	.LANCHOR0
 787              		.cfi_endproc
 788              	.LFE11:
 789              		.size	thread2L, .-thread2L
 790              		.section	.text.thread3LL,"ax",%progbits
 791              		.align	2
 792              		.syntax unified
 793              		.arm
 794              		.fpu softvfp
 795              		.type	thread3LL, %function
 796              	thread3LL:
 797              	.LVL55:
ARM GAS  /tmp/cc3L2rUz.s 			page 15


 798              	.LFB16:
 799              		.loc 1 252 33 is_stmt 1 view -0
 800              		.cfi_startproc
 801              		@ args = 0, pretend = 0, frame = 0
 802              		@ frame_needed = 0, uses_anonymous_args = 0
 803              		.loc 1 254 3 view .LVU164
 804              		.loc 1 255 3 view .LVU165
 805              		.loc 1 252 33 is_stmt 0 view .LVU166
 806 0000 10402DE9 		push	{r4, lr}
 807              		.cfi_def_cfa_offset 8
 808              		.cfi_offset 4, -8
 809              		.cfi_offset 14, -4
 810              		.loc 1 255 3 view .LVU167
 811 0004 1C009FE5 		ldr	r0, .L44
 812              	.LVL56:
 813              		.loc 1 255 3 view .LVU168
 814 0008 FEFFFFEB 		bl	chMtxLock
 815              	.LVL57:
 816              		.loc 1 256 3 is_stmt 1 view .LVU169
 817 000c 1E00A0E3 		mov	r0, #30
 818 0010 FEFFFFEB 		bl	test_cpu_pulse
 819              	.LVL58:
 820              		.loc 1 257 3 view .LVU170
 821 0014 FEFFFFEB 		bl	chMtxUnlock
 822              	.LVL59:
 823              		.loc 1 258 3 view .LVU171
 824 0018 4500A0E3 		mov	r0, #69
 825 001c FEFFFFEB 		bl	test_emit_token
 826              	.LVL60:
 827              		.loc 1 259 3 view .LVU172
 828              		.loc 1 260 1 is_stmt 0 view .LVU173
 829 0020 0000A0E3 		mov	r0, #0
 830 0024 1080BDE8 		pop	{r4, pc}
 831              	.L45:
 832              		.align	2
 833              	.L44:
 834 0028 00000000 		.word	.LANCHOR0
 835              		.cfi_endproc
 836              	.LFE16:
 837              		.size	thread3LL, .-thread3LL
 838              		.section	.text.thread2M,"ax",%progbits
 839              		.align	2
 840              		.syntax unified
 841              		.arm
 842              		.fpu softvfp
 843              		.type	thread2M, %function
 844              	thread2M:
 845              	.LVL61:
 846              	.LFB12:
 847              		.loc 1 173 32 is_stmt 1 view -0
 848              		.cfi_startproc
 849              		@ args = 0, pretend = 0, frame = 0
 850              		@ frame_needed = 0, uses_anonymous_args = 0
 851              		.loc 1 175 3 view .LVU175
 852              		.loc 1 176 3 view .LVU176
 853              		.loc 1 173 32 is_stmt 0 view .LVU177
 854 0000 10402DE9 		push	{r4, lr}
ARM GAS  /tmp/cc3L2rUz.s 			page 16


 855              		.cfi_def_cfa_offset 8
 856              		.cfi_offset 4, -8
 857              		.cfi_offset 14, -4
 858              		.loc 1 176 3 view .LVU178
 859 0004 1400A0E3 		mov	r0, #20
 860              	.LVL62:
 861              		.loc 1 176 3 view .LVU179
 862 0008 FEFFFFEB 		bl	chThdSleep
 863              	.LVL63:
 864              		.loc 1 177 3 is_stmt 1 view .LVU180
 865 000c 2800A0E3 		mov	r0, #40
 866 0010 FEFFFFEB 		bl	test_cpu_pulse
 867              	.LVL64:
 868              		.loc 1 178 3 view .LVU181
 869 0014 4200A0E3 		mov	r0, #66
 870 0018 FEFFFFEB 		bl	test_emit_token
 871              	.LVL65:
 872              		.loc 1 179 3 view .LVU182
 873              		.loc 1 180 1 is_stmt 0 view .LVU183
 874 001c 0000A0E3 		mov	r0, #0
 875 0020 1080BDE8 		pop	{r4, pc}
 876              		.cfi_endproc
 877              	.LFE12:
 878              		.size	thread2M, .-thread2M
 879              		.section	.text.thread2H,"ax",%progbits
 880              		.align	2
 881              		.syntax unified
 882              		.arm
 883              		.fpu softvfp
 884              		.type	thread2H, %function
 885              	thread2H:
 886              	.LVL66:
 887              	.LFB13:
 888              		.loc 1 183 32 is_stmt 1 view -0
 889              		.cfi_startproc
 890              		@ args = 0, pretend = 0, frame = 0
 891              		@ frame_needed = 0, uses_anonymous_args = 0
 892              		.loc 1 185 3 view .LVU185
 893              		.loc 1 186 3 view .LVU186
 894              		.loc 1 183 32 is_stmt 0 view .LVU187
 895 0000 10402DE9 		push	{r4, lr}
 896              		.cfi_def_cfa_offset 8
 897              		.cfi_offset 4, -8
 898              		.cfi_offset 14, -4
 899              		.loc 1 186 3 view .LVU188
 900 0004 2800A0E3 		mov	r0, #40
 901              	.LVL67:
 902              		.loc 1 186 3 view .LVU189
 903 0008 FEFFFFEB 		bl	chThdSleep
 904              	.LVL68:
 905              		.loc 1 187 3 is_stmt 1 view .LVU190
 906 000c 1C009FE5 		ldr	r0, .L50
 907 0010 FEFFFFEB 		bl	chMtxLock
 908              	.LVL69:
 909              		.loc 1 188 3 view .LVU191
 910 0014 0A00A0E3 		mov	r0, #10
 911 0018 FEFFFFEB 		bl	test_cpu_pulse
ARM GAS  /tmp/cc3L2rUz.s 			page 17


 912              	.LVL70:
 913              		.loc 1 189 3 view .LVU192
 914 001c FEFFFFEB 		bl	chMtxUnlock
 915              	.LVL71:
 916              		.loc 1 190 3 view .LVU193
 917 0020 4100A0E3 		mov	r0, #65
 918 0024 FEFFFFEB 		bl	test_emit_token
 919              	.LVL72:
 920              		.loc 1 191 3 view .LVU194
 921              		.loc 1 192 1 is_stmt 0 view .LVU195
 922 0028 0000A0E3 		mov	r0, #0
 923 002c 1080BDE8 		pop	{r4, pc}
 924              	.L51:
 925              		.align	2
 926              	.L50:
 927 0030 00000000 		.word	.LANCHOR0
 928              		.cfi_endproc
 929              	.LFE13:
 930              		.size	thread2H, .-thread2H
 931              		.section	.text.thread3HH,"ax",%progbits
 932              		.align	2
 933              		.syntax unified
 934              		.arm
 935              		.fpu softvfp
 936              		.type	thread3HH, %function
 937              	thread3HH:
 938              	.LVL73:
 939              	.LFB20:
 940              		.loc 1 301 33 is_stmt 1 view -0
 941              		.cfi_startproc
 942              		@ args = 0, pretend = 0, frame = 0
 943              		@ frame_needed = 0, uses_anonymous_args = 0
 944              		.loc 1 303 3 view .LVU197
 945              		.loc 1 304 3 view .LVU198
 946              		.loc 1 301 33 is_stmt 0 view .LVU199
 947 0000 10402DE9 		push	{r4, lr}
 948              		.cfi_def_cfa_offset 8
 949              		.cfi_offset 4, -8
 950              		.cfi_offset 14, -4
 951              		.loc 1 304 3 view .LVU200
 952 0004 3200A0E3 		mov	r0, #50
 953              	.LVL74:
 954              		.loc 1 304 3 view .LVU201
 955 0008 FEFFFFEB 		bl	chThdSleep
 956              	.LVL75:
 957              		.loc 1 305 3 is_stmt 1 view .LVU202
 958 000c 1C009FE5 		ldr	r0, .L54
 959 0010 FEFFFFEB 		bl	chMtxLock
 960              	.LVL76:
 961              		.loc 1 306 3 view .LVU203
 962 0014 0A00A0E3 		mov	r0, #10
 963 0018 FEFFFFEB 		bl	test_cpu_pulse
 964              	.LVL77:
 965              		.loc 1 307 3 view .LVU204
 966 001c FEFFFFEB 		bl	chMtxUnlock
 967              	.LVL78:
 968              		.loc 1 308 3 view .LVU205
ARM GAS  /tmp/cc3L2rUz.s 			page 18


 969 0020 4100A0E3 		mov	r0, #65
 970 0024 FEFFFFEB 		bl	test_emit_token
 971              	.LVL79:
 972              		.loc 1 309 3 view .LVU206
 973              		.loc 1 310 1 is_stmt 0 view .LVU207
 974 0028 0000A0E3 		mov	r0, #0
 975 002c 1080BDE8 		pop	{r4, pc}
 976              	.L55:
 977              		.align	2
 978              	.L54:
 979 0030 00000000 		.word	.LANCHOR1
 980              		.cfi_endproc
 981              	.LFE20:
 982              		.size	thread3HH, .-thread3HH
 983              		.section	.text.thread3H,"ax",%progbits
 984              		.align	2
 985              		.syntax unified
 986              		.arm
 987              		.fpu softvfp
 988              		.type	thread3H, %function
 989              	thread3H:
 990              	.LVL80:
 991              	.LFB19:
 992              		.loc 1 291 32 is_stmt 1 view -0
 993              		.cfi_startproc
 994              		@ args = 0, pretend = 0, frame = 0
 995              		@ frame_needed = 0, uses_anonymous_args = 0
 996              		.loc 1 293 3 view .LVU209
 997              		.loc 1 294 3 view .LVU210
 998              		.loc 1 291 32 is_stmt 0 view .LVU211
 999 0000 10402DE9 		push	{r4, lr}
 1000              		.cfi_def_cfa_offset 8
 1001              		.cfi_offset 4, -8
 1002              		.cfi_offset 14, -4
 1003              		.loc 1 294 3 view .LVU212
 1004 0004 2800A0E3 		mov	r0, #40
 1005              	.LVL81:
 1006              		.loc 1 294 3 view .LVU213
 1007 0008 FEFFFFEB 		bl	chThdSleep
 1008              	.LVL82:
 1009              		.loc 1 295 3 is_stmt 1 view .LVU214
 1010 000c 1400A0E3 		mov	r0, #20
 1011 0010 FEFFFFEB 		bl	test_cpu_pulse
 1012              	.LVL83:
 1013              		.loc 1 296 3 view .LVU215
 1014 0014 4200A0E3 		mov	r0, #66
 1015 0018 FEFFFFEB 		bl	test_emit_token
 1016              	.LVL84:
 1017              		.loc 1 297 3 view .LVU216
 1018              		.loc 1 298 1 is_stmt 0 view .LVU217
 1019 001c 0000A0E3 		mov	r0, #0
 1020 0020 1080BDE8 		pop	{r4, pc}
 1021              		.cfi_endproc
 1022              	.LFE19:
 1023              		.size	thread3H, .-thread3H
 1024              		.section	.text.thread3M,"ax",%progbits
 1025              		.align	2
ARM GAS  /tmp/cc3L2rUz.s 			page 19


 1026              		.syntax unified
 1027              		.arm
 1028              		.fpu softvfp
 1029              		.type	thread3M, %function
 1030              	thread3M:
 1031              	.LVL85:
 1032              	.LFB18:
 1033              		.loc 1 279 32 is_stmt 1 view -0
 1034              		.cfi_startproc
 1035              		@ args = 0, pretend = 0, frame = 0
 1036              		@ frame_needed = 0, uses_anonymous_args = 0
 1037              		.loc 1 281 3 view .LVU219
 1038              		.loc 1 282 3 view .LVU220
 1039              		.loc 1 279 32 is_stmt 0 view .LVU221
 1040 0000 10402DE9 		push	{r4, lr}
 1041              		.cfi_def_cfa_offset 8
 1042              		.cfi_offset 4, -8
 1043              		.cfi_offset 14, -4
 1044              		.loc 1 282 3 view .LVU222
 1045 0004 1400A0E3 		mov	r0, #20
 1046              	.LVL86:
 1047              		.loc 1 282 3 view .LVU223
 1048 0008 FEFFFFEB 		bl	chThdSleep
 1049              	.LVL87:
 1050              		.loc 1 283 3 is_stmt 1 view .LVU224
 1051 000c 1C009FE5 		ldr	r0, .L60
 1052 0010 FEFFFFEB 		bl	chMtxLock
 1053              	.LVL88:
 1054              		.loc 1 284 3 view .LVU225
 1055 0014 0A00A0E3 		mov	r0, #10
 1056 0018 FEFFFFEB 		bl	test_cpu_pulse
 1057              	.LVL89:
 1058              		.loc 1 285 3 view .LVU226
 1059 001c FEFFFFEB 		bl	chMtxUnlock
 1060              	.LVL90:
 1061              		.loc 1 286 3 view .LVU227
 1062 0020 4300A0E3 		mov	r0, #67
 1063 0024 FEFFFFEB 		bl	test_emit_token
 1064              	.LVL91:
 1065              		.loc 1 287 3 view .LVU228
 1066              		.loc 1 288 1 is_stmt 0 view .LVU229
 1067 0028 0000A0E3 		mov	r0, #0
 1068 002c 1080BDE8 		pop	{r4, pc}
 1069              	.L61:
 1070              		.align	2
 1071              	.L60:
 1072 0030 00000000 		.word	.LANCHOR1
 1073              		.cfi_endproc
 1074              	.LFE18:
 1075              		.size	thread3M, .-thread3M
 1076              		.section	.text.thread3L,"ax",%progbits
 1077              		.align	2
 1078              		.syntax unified
 1079              		.arm
 1080              		.fpu softvfp
 1081              		.type	thread3L, %function
 1082              	thread3L:
ARM GAS  /tmp/cc3L2rUz.s 			page 20


 1083              	.LVL92:
 1084              	.LFB17:
 1085              		.loc 1 263 32 is_stmt 1 view -0
 1086              		.cfi_startproc
 1087              		@ args = 0, pretend = 0, frame = 0
 1088              		@ frame_needed = 0, uses_anonymous_args = 0
 1089              		.loc 1 265 3 view .LVU231
 1090              		.loc 1 266 3 view .LVU232
 1091              		.loc 1 263 32 is_stmt 0 view .LVU233
 1092 0000 10402DE9 		push	{r4, lr}
 1093              		.cfi_def_cfa_offset 8
 1094              		.cfi_offset 4, -8
 1095              		.cfi_offset 14, -4
 1096              		.loc 1 266 3 view .LVU234
 1097 0004 0A00A0E3 		mov	r0, #10
 1098              	.LVL93:
 1099              		.loc 1 266 3 view .LVU235
 1100 0008 FEFFFFEB 		bl	chThdSleep
 1101              	.LVL94:
 1102              		.loc 1 267 3 is_stmt 1 view .LVU236
 1103 000c 38009FE5 		ldr	r0, .L64
 1104 0010 FEFFFFEB 		bl	chMtxLock
 1105              	.LVL95:
 1106              		.loc 1 268 3 view .LVU237
 1107 0014 1400A0E3 		mov	r0, #20
 1108 0018 FEFFFFEB 		bl	test_cpu_pulse
 1109              	.LVL96:
 1110              		.loc 1 269 3 view .LVU238
 1111 001c 2C009FE5 		ldr	r0, .L64+4
 1112 0020 FEFFFFEB 		bl	chMtxLock
 1113              	.LVL97:
 1114              		.loc 1 270 3 view .LVU239
 1115 0024 0A00A0E3 		mov	r0, #10
 1116 0028 FEFFFFEB 		bl	test_cpu_pulse
 1117              	.LVL98:
 1118              		.loc 1 271 3 view .LVU240
 1119 002c FEFFFFEB 		bl	chMtxUnlock
 1120              	.LVL99:
 1121              		.loc 1 272 3 view .LVU241
 1122 0030 0A00A0E3 		mov	r0, #10
 1123 0034 FEFFFFEB 		bl	test_cpu_pulse
 1124              	.LVL100:
 1125              		.loc 1 273 3 view .LVU242
 1126 0038 FEFFFFEB 		bl	chMtxUnlock
 1127              	.LVL101:
 1128              		.loc 1 274 3 view .LVU243
 1129 003c 4400A0E3 		mov	r0, #68
 1130 0040 FEFFFFEB 		bl	test_emit_token
 1131              	.LVL102:
 1132              		.loc 1 275 3 view .LVU244
 1133              		.loc 1 276 1 is_stmt 0 view .LVU245
 1134 0044 0000A0E3 		mov	r0, #0
 1135 0048 1080BDE8 		pop	{r4, pc}
 1136              	.L65:
 1137              		.align	2
 1138              	.L64:
 1139 004c 00000000 		.word	.LANCHOR1
ARM GAS  /tmp/cc3L2rUz.s 			page 21


 1140 0050 00000000 		.word	.LANCHOR0
 1141              		.cfi_endproc
 1142              	.LFE17:
 1143              		.size	thread3L, .-thread3L
 1144              		.section	.text.thread4b,"ax",%progbits
 1145              		.align	2
 1146              		.syntax unified
 1147              		.arm
 1148              		.fpu softvfp
 1149              		.type	thread4b, %function
 1150              	thread4b:
 1151              	.LVL103:
 1152              	.LFB24:
 1153              		.loc 1 360 32 is_stmt 1 view -0
 1154              		.cfi_startproc
 1155              		@ args = 0, pretend = 0, frame = 0
 1156              		@ frame_needed = 0, uses_anonymous_args = 0
 1157              		.loc 1 362 3 view .LVU247
 1158              		.loc 1 363 3 view .LVU248
 1159              		.loc 1 360 32 is_stmt 0 view .LVU249
 1160 0000 10402DE9 		push	{r4, lr}
 1161              		.cfi_def_cfa_offset 8
 1162              		.cfi_offset 4, -8
 1163              		.cfi_offset 14, -4
 1164              		.loc 1 363 3 view .LVU250
 1165 0004 9600A0E3 		mov	r0, #150
 1166              	.LVL104:
 1167              		.loc 1 363 3 view .LVU251
 1168 0008 FEFFFFEB 		bl	chThdSleep
 1169              	.LVL105:
 1170              		.loc 1 364 3 is_stmt 1 view .LVU252
 1171 000c 0C009FE5 		ldr	r0, .L68
 1172 0010 FEFFFFEB 		bl	chMtxLock
 1173              	.LVL106:
 1174              		.loc 1 365 3 view .LVU253
 1175 0014 FEFFFFEB 		bl	chMtxUnlock
 1176              	.LVL107:
 1177              		.loc 1 366 3 view .LVU254
 1178              		.loc 1 367 1 is_stmt 0 view .LVU255
 1179 0018 0000A0E3 		mov	r0, #0
 1180 001c 1080BDE8 		pop	{r4, pc}
 1181              	.L69:
 1182              		.align	2
 1183              	.L68:
 1184 0020 00000000 		.word	.LANCHOR0
 1185              		.cfi_endproc
 1186              	.LFE24:
 1187              		.size	thread4b, .-thread4b
 1188              		.section	.text.thread4a,"ax",%progbits
 1189              		.align	2
 1190              		.syntax unified
 1191              		.arm
 1192              		.fpu softvfp
 1193              		.type	thread4a, %function
 1194              	thread4a:
 1195              	.LVL108:
 1196              	.LFB23:
ARM GAS  /tmp/cc3L2rUz.s 			page 22


 1197              		.loc 1 351 32 is_stmt 1 view -0
 1198              		.cfi_startproc
 1199              		@ args = 0, pretend = 0, frame = 0
 1200              		@ frame_needed = 0, uses_anonymous_args = 0
 1201              		.loc 1 353 3 view .LVU257
 1202              		.loc 1 354 3 view .LVU258
 1203              		.loc 1 351 32 is_stmt 0 view .LVU259
 1204 0000 10402DE9 		push	{r4, lr}
 1205              		.cfi_def_cfa_offset 8
 1206              		.cfi_offset 4, -8
 1207              		.cfi_offset 14, -4
 1208              		.loc 1 354 3 view .LVU260
 1209 0004 3200A0E3 		mov	r0, #50
 1210              	.LVL109:
 1211              		.loc 1 354 3 view .LVU261
 1212 0008 FEFFFFEB 		bl	chThdSleep
 1213              	.LVL110:
 1214              		.loc 1 355 3 is_stmt 1 view .LVU262
 1215 000c 0C009FE5 		ldr	r0, .L72
 1216 0010 FEFFFFEB 		bl	chMtxLock
 1217              	.LVL111:
 1218              		.loc 1 356 3 view .LVU263
 1219 0014 FEFFFFEB 		bl	chMtxUnlock
 1220              	.LVL112:
 1221              		.loc 1 357 3 view .LVU264
 1222              		.loc 1 358 1 is_stmt 0 view .LVU265
 1223 0018 0000A0E3 		mov	r0, #0
 1224 001c 1080BDE8 		pop	{r4, pc}
 1225              	.L73:
 1226              		.align	2
 1227              	.L72:
 1228 0020 00000000 		.word	.LANCHOR1
 1229              		.cfi_endproc
 1230              	.LFE23:
 1231              		.size	thread4a, .-thread4a
 1232              		.section	.text.mtx4_execute,"ax",%progbits
 1233              		.align	2
 1234              		.syntax unified
 1235              		.arm
 1236              		.fpu softvfp
 1237              		.type	mtx4_execute, %function
 1238              	mtx4_execute:
 1239              	.LFB25:
 1240              		.loc 1 369 32 is_stmt 1 view -0
 1241              		.cfi_startproc
 1242              		@ args = 0, pretend = 0, frame = 0
 1243              		@ frame_needed = 0, uses_anonymous_args = 0
 1244              		.loc 1 370 3 view .LVU267
 1245              		.loc 1 372 3 view .LVU268
 1246              		.loc 1 369 32 is_stmt 0 view .LVU269
 1247 0000 F0472DE9 		push	{r4, r5, r6, r7, r8, r9, r10, lr}
 1248              		.cfi_def_cfa_offset 32
 1249              		.cfi_offset 4, -32
 1250              		.cfi_offset 5, -28
 1251              		.cfi_offset 6, -24
 1252              		.cfi_offset 7, -20
 1253              		.cfi_offset 8, -16
ARM GAS  /tmp/cc3L2rUz.s 			page 23


 1254              		.cfi_offset 9, -12
 1255              		.cfi_offset 10, -8
 1256              		.cfi_offset 14, -4
 1257              		.loc 1 372 7 view .LVU270
 1258 0004 28539FE5 		ldr	r5, .L80
 1259              		.loc 1 375 16 view .LVU271
 1260 0008 28639FE5 		ldr	r6, .L80+4
 1261              		.loc 1 372 5 view .LVU272
 1262 000c 183095E5 		ldr	r3, [r5, #24]
 1263              		.loc 1 375 16 view .LVU273
 1264 0010 00A096E5 		ldr	r10, [r6]
 1265              		.loc 1 372 5 view .LVU274
 1266 0014 084093E5 		ldr	r4, [r3, #8]
 1267              	.LVL113:
 1268              		.loc 1 373 3 is_stmt 1 view .LVU275
 1269              		.loc 1 375 16 is_stmt 0 view .LVU276
 1270 0018 1C339FE5 		ldr	r3, .L80+8
 1271              		.loc 1 369 32 view .LVU277
 1272 001c 08D04DE2 		sub	sp, sp, #8
 1273              		.cfi_def_cfa_offset 40
 1274              		.loc 1 373 6 view .LVU278
 1275 0020 017084E2 		add	r7, r4, #1
 1276              	.LVL114:
 1277              		.loc 1 374 3 is_stmt 1 view .LVU279
 1278              		.loc 1 375 16 is_stmt 0 view .LVU280
 1279 0024 0720A0E1 		mov	r2, r7
 1280 0028 461FA0E3 		mov	r1, #280
 1281 002c 00308DE5 		str	r3, [sp]
 1282 0030 0A00A0E1 		mov	r0, r10
 1283 0034 04339FE5 		ldr	r3, .L80+12
 1284 0038 FEFFFFEB 		bl	chThdCreateStatic
 1285              	.LVL115:
 1286 003c 00C0A0E1 		mov	ip, r0
 1287              		.loc 1 376 16 view .LVU281
 1288 0040 049096E5 		ldr	r9, [r6, #4]
 1289 0044 F8329FE5 		ldr	r3, .L80+16
 1290              		.loc 1 375 14 view .LVU282
 1291 0048 F8629FE5 		ldr	r6, .L80+20
 1292              		.loc 1 374 6 view .LVU283
 1293 004c 028084E2 		add	r8, r4, #2
 1294              	.LVL116:
 1295              		.loc 1 375 3 is_stmt 1 view .LVU284
 1296              		.loc 1 376 16 is_stmt 0 view .LVU285
 1297 0050 0820A0E1 		mov	r2, r8
 1298 0054 461FA0E3 		mov	r1, #280
 1299 0058 00308DE5 		str	r3, [sp]
 1300 005c 0900A0E1 		mov	r0, r9
 1301              		.loc 1 375 14 view .LVU286
 1302 0060 00C086E5 		str	ip, [r6]
 1303              		.loc 1 376 3 is_stmt 1 view .LVU287
 1304              		.loc 1 376 16 is_stmt 0 view .LVU288
 1305 0064 E0329FE5 		ldr	r3, .L80+24
 1306 0068 FEFFFFEB 		bl	chThdCreateStatic
 1307              	.LVL117:
 1308 006c 0030A0E1 		mov	r3, r0
 1309              		.loc 1 377 3 view .LVU289
 1310 0070 D8029FE5 		ldr	r0, .L80+28
ARM GAS  /tmp/cc3L2rUz.s 			page 24


 1311              		.loc 1 376 14 view .LVU290
 1312 0074 043086E5 		str	r3, [r6, #4]
 1313              		.loc 1 377 3 is_stmt 1 view .LVU291
 1314 0078 FEFFFFEB 		bl	chMtxLock
 1315              	.LVL118:
 1316              		.loc 1 378 3 view .LVU292
 1317 007c 183095E5 		ldr	r3, [r5, #24]
 1318 0080 0100A0E3 		mov	r0, #1
 1319 0084 081093E5 		ldr	r1, [r3, #8]
 1320 0088 041041E0 		sub	r1, r1, r4
 1321 008c 111F6FE1 		clz	r1, r1
 1322 0090 A112A0E1 		lsr	r1, r1, #5
 1323 0094 FEFFFFEB 		bl	_test_assert
 1324              	.LVL119:
 1325 0098 000050E3 		cmp	r0, #0
 1326 009c 0100000A 		beq	.L79
 1327              	.L74:
 1328              		.loc 1 413 1 is_stmt 0 view .LVU293
 1329 00a0 08D08DE2 		add	sp, sp, #8
 1330              		.cfi_remember_state
 1331              		.cfi_def_cfa_offset 32
 1332              		@ sp needed
 1333 00a4 F087BDE8 		pop	{r4, r5, r6, r7, r8, r9, r10, pc}
 1334              	.LVL120:
 1335              	.L79:
 1336              		.cfi_restore_state
 1337              		.loc 1 378 66 is_stmt 1 discriminator 2 view .LVU294
 1338              		.loc 1 379 3 discriminator 2 view .LVU295
 1339 00a8 6400A0E3 		mov	r0, #100
 1340 00ac FEFFFFEB 		bl	chThdSleep
 1341              	.LVL121:
 1342              		.loc 1 380 3 discriminator 2 view .LVU296
 1343 00b0 183095E5 		ldr	r3, [r5, #24]
 1344 00b4 0200A0E3 		mov	r0, #2
 1345 00b8 081093E5 		ldr	r1, [r3, #8]
 1346 00bc 071041E0 		sub	r1, r1, r7
 1347 00c0 111F6FE1 		clz	r1, r1
 1348 00c4 A112A0E1 		lsr	r1, r1, #5
 1349 00c8 FEFFFFEB 		bl	_test_assert
 1350              	.LVL122:
 1351 00cc 000050E3 		cmp	r0, #0
 1352 00d0 F2FFFF1A 		bne	.L74
 1353              		.loc 1 380 67 discriminator 2 view .LVU297
 1354              		.loc 1 381 3 discriminator 2 view .LVU298
 1355 00d4 78029FE5 		ldr	r0, .L80+32
 1356 00d8 FEFFFFEB 		bl	chMtxLock
 1357              	.LVL123:
 1358              		.loc 1 382 3 discriminator 2 view .LVU299
 1359 00dc 183095E5 		ldr	r3, [r5, #24]
 1360 00e0 0300A0E3 		mov	r0, #3
 1361 00e4 081093E5 		ldr	r1, [r3, #8]
 1362 00e8 071041E0 		sub	r1, r1, r7
 1363 00ec 111F6FE1 		clz	r1, r1
 1364 00f0 A112A0E1 		lsr	r1, r1, #5
 1365 00f4 FEFFFFEB 		bl	_test_assert
 1366              	.LVL124:
 1367 00f8 000050E3 		cmp	r0, #0
ARM GAS  /tmp/cc3L2rUz.s 			page 25


 1368 00fc E7FFFF1A 		bne	.L74
 1369              		.loc 1 382 67 discriminator 2 view .LVU300
 1370              		.loc 1 383 3 discriminator 2 view .LVU301
 1371 0100 6400A0E3 		mov	r0, #100
 1372 0104 FEFFFFEB 		bl	chThdSleep
 1373              	.LVL125:
 1374              		.loc 1 384 3 discriminator 2 view .LVU302
 1375 0108 183095E5 		ldr	r3, [r5, #24]
 1376 010c 0400A0E3 		mov	r0, #4
 1377 0110 081093E5 		ldr	r1, [r3, #8]
 1378 0114 081041E0 		sub	r1, r1, r8
 1379 0118 111F6FE1 		clz	r1, r1
 1380 011c A112A0E1 		lsr	r1, r1, #5
 1381 0120 FEFFFFEB 		bl	_test_assert
 1382              	.LVL126:
 1383 0124 000050E3 		cmp	r0, #0
 1384 0128 DCFFFF1A 		bne	.L74
 1385              		.loc 1 384 67 discriminator 2 view .LVU303
 1386              		.loc 1 385 3 discriminator 2 view .LVU304
 1387 012c FEFFFFEB 		bl	chMtxUnlock
 1388              	.LVL127:
 1389              		.loc 1 386 3 discriminator 2 view .LVU305
 1390 0130 183095E5 		ldr	r3, [r5, #24]
 1391 0134 0500A0E3 		mov	r0, #5
 1392 0138 081093E5 		ldr	r1, [r3, #8]
 1393 013c 071041E0 		sub	r1, r1, r7
 1394 0140 111F6FE1 		clz	r1, r1
 1395 0144 A112A0E1 		lsr	r1, r1, #5
 1396 0148 FEFFFFEB 		bl	_test_assert
 1397              	.LVL128:
 1398 014c 000050E3 		cmp	r0, #0
 1399 0150 D2FFFF1A 		bne	.L74
 1400              		.loc 1 386 67 discriminator 2 view .LVU306
 1401              		.loc 1 387 3 discriminator 2 view .LVU307
 1402 0154 6400A0E3 		mov	r0, #100
 1403 0158 FEFFFFEB 		bl	chThdSleep
 1404              	.LVL129:
 1405              		.loc 1 388 3 discriminator 2 view .LVU308
 1406 015c 183095E5 		ldr	r3, [r5, #24]
 1407 0160 0600A0E3 		mov	r0, #6
 1408 0164 081093E5 		ldr	r1, [r3, #8]
 1409 0168 071041E0 		sub	r1, r1, r7
 1410 016c 111F6FE1 		clz	r1, r1
 1411 0170 A112A0E1 		lsr	r1, r1, #5
 1412 0174 FEFFFFEB 		bl	_test_assert
 1413              	.LVL130:
 1414 0178 000050E3 		cmp	r0, #0
 1415 017c C7FFFF1A 		bne	.L74
 1416              		.loc 1 388 67 discriminator 2 view .LVU309
 1417              		.loc 1 389 3 discriminator 2 view .LVU310
 1418 0180 FEFFFFEB 		bl	chMtxUnlockAll
 1419              	.LVL131:
 1420              		.loc 1 390 3 discriminator 2 view .LVU311
 1421 0184 183095E5 		ldr	r3, [r5, #24]
 1422 0188 0700A0E3 		mov	r0, #7
 1423 018c 081093E5 		ldr	r1, [r3, #8]
 1424 0190 041041E0 		sub	r1, r1, r4
ARM GAS  /tmp/cc3L2rUz.s 			page 26


 1425 0194 111F6FE1 		clz	r1, r1
 1426 0198 A112A0E1 		lsr	r1, r1, #5
 1427 019c FEFFFFEB 		bl	_test_assert
 1428              	.LVL132:
 1429 01a0 000050E3 		cmp	r0, #0
 1430 01a4 BDFFFF1A 		bne	.L74
 1431              		.loc 1 390 66 discriminator 2 view .LVU312
 1432              		.loc 1 391 3 discriminator 2 view .LVU313
 1433 01a8 FEFFFFEB 		bl	test_wait_threads
 1434              	.LVL133:
 1435              		.loc 1 394 3 discriminator 2 view .LVU314
 1436              		.loc 1 394 16 is_stmt 0 discriminator 2 view .LVU315
 1437 01ac A4319FE5 		ldr	r3, .L80+36
 1438 01b0 0720A0E1 		mov	r2, r7
 1439 01b4 461FA0E3 		mov	r1, #280
 1440 01b8 00308DE5 		str	r3, [sp]
 1441 01bc 0A00A0E1 		mov	r0, r10
 1442 01c0 78319FE5 		ldr	r3, .L80+12
 1443 01c4 FEFFFFEB 		bl	chThdCreateStatic
 1444              	.LVL134:
 1445 01c8 00C0A0E1 		mov	ip, r0
 1446              		.loc 1 395 16 discriminator 2 view .LVU316
 1447 01cc 88319FE5 		ldr	r3, .L80+40
 1448 01d0 0820A0E1 		mov	r2, r8
 1449 01d4 461FA0E3 		mov	r1, #280
 1450 01d8 00308DE5 		str	r3, [sp]
 1451 01dc 0900A0E1 		mov	r0, r9
 1452              		.loc 1 394 14 discriminator 2 view .LVU317
 1453 01e0 00C086E5 		str	ip, [r6]
 1454              		.loc 1 395 3 is_stmt 1 discriminator 2 view .LVU318
 1455              		.loc 1 395 16 is_stmt 0 discriminator 2 view .LVU319
 1456 01e4 60319FE5 		ldr	r3, .L80+24
 1457 01e8 FEFFFFEB 		bl	chThdCreateStatic
 1458              	.LVL135:
 1459 01ec 0030A0E1 		mov	r3, r0
 1460              		.loc 1 396 3 discriminator 2 view .LVU320
 1461 01f0 58019FE5 		ldr	r0, .L80+28
 1462              		.loc 1 395 14 discriminator 2 view .LVU321
 1463 01f4 043086E5 		str	r3, [r6, #4]
 1464              		.loc 1 396 3 is_stmt 1 discriminator 2 view .LVU322
 1465 01f8 FEFFFFEB 		bl	chMtxLock
 1466              	.LVL136:
 1467              		.loc 1 397 3 discriminator 2 view .LVU323
 1468 01fc 183095E5 		ldr	r3, [r5, #24]
 1469 0200 0800A0E3 		mov	r0, #8
 1470 0204 081093E5 		ldr	r1, [r3, #8]
 1471 0208 041041E0 		sub	r1, r1, r4
 1472 020c 111F6FE1 		clz	r1, r1
 1473 0210 A112A0E1 		lsr	r1, r1, #5
 1474 0214 FEFFFFEB 		bl	_test_assert
 1475              	.LVL137:
 1476 0218 000050E3 		cmp	r0, #0
 1477 021c 9FFFFF1A 		bne	.L74
 1478              		.loc 1 397 66 discriminator 2 view .LVU324
 1479              		.loc 1 398 3 discriminator 2 view .LVU325
 1480 0220 6400A0E3 		mov	r0, #100
 1481 0224 FEFFFFEB 		bl	chThdSleep
ARM GAS  /tmp/cc3L2rUz.s 			page 27


 1482              	.LVL138:
 1483              		.loc 1 399 3 discriminator 2 view .LVU326
 1484 0228 183095E5 		ldr	r3, [r5, #24]
 1485 022c 0900A0E3 		mov	r0, #9
 1486 0230 081093E5 		ldr	r1, [r3, #8]
 1487 0234 071041E0 		sub	r1, r1, r7
 1488 0238 111F6FE1 		clz	r1, r1
 1489 023c A112A0E1 		lsr	r1, r1, #5
 1490 0240 FEFFFFEB 		bl	_test_assert
 1491              	.LVL139:
 1492 0244 000050E3 		cmp	r0, #0
 1493 0248 94FFFF1A 		bne	.L74
 1494              		.loc 1 399 67 discriminator 2 view .LVU327
 1495              		.loc 1 400 3 discriminator 2 view .LVU328
 1496 024c 00019FE5 		ldr	r0, .L80+32
 1497 0250 FEFFFFEB 		bl	chMtxLock
 1498              	.LVL140:
 1499              		.loc 1 401 3 discriminator 2 view .LVU329
 1500 0254 183095E5 		ldr	r3, [r5, #24]
 1501 0258 0A00A0E3 		mov	r0, #10
 1502 025c 081093E5 		ldr	r1, [r3, #8]
 1503 0260 071041E0 		sub	r1, r1, r7
 1504 0264 111F6FE1 		clz	r1, r1
 1505 0268 A112A0E1 		lsr	r1, r1, #5
 1506 026c FEFFFFEB 		bl	_test_assert
 1507              	.LVL141:
 1508 0270 000050E3 		cmp	r0, #0
 1509 0274 89FFFF1A 		bne	.L74
 1510              		.loc 1 401 68 discriminator 2 view .LVU330
 1511              		.loc 1 402 3 discriminator 2 view .LVU331
 1512 0278 6400A0E3 		mov	r0, #100
 1513 027c FEFFFFEB 		bl	chThdSleep
 1514              	.LVL142:
 1515              		.loc 1 403 3 discriminator 2 view .LVU332
 1516 0280 183095E5 		ldr	r3, [r5, #24]
 1517 0284 0B00A0E3 		mov	r0, #11
 1518 0288 081093E5 		ldr	r1, [r3, #8]
 1519 028c 081041E0 		sub	r1, r1, r8
 1520 0290 111F6FE1 		clz	r1, r1
 1521 0294 A112A0E1 		lsr	r1, r1, #5
 1522 0298 FEFFFFEB 		bl	_test_assert
 1523              	.LVL143:
 1524 029c 000050E3 		cmp	r0, #0
 1525 02a0 7EFFFF1A 		bne	.L74
 1526              		.loc 1 403 68 discriminator 2 view .LVU333
 1527              		.loc 1 404 3 discriminator 2 view .LVU334
 1528              		.syntax divided
 1529              	@ 404 "../test/testmtx.c" 1
 1530 02a4 9FF021E3 		msr     CPSR_c, #0x9F
 1531              	@ 0 "" 2
 1532              		.loc 1 404 3 discriminator 2 view .LVU335
 1533              		.loc 1 404 14 discriminator 2 view .LVU336
 1534              		.loc 1 405 3 discriminator 2 view .LVU337
 1535              		.arm
 1536              		.syntax unified
 1537 02a8 FEFFFFEB 		bl	chMtxUnlockS
 1538              	.LVL144:
ARM GAS  /tmp/cc3L2rUz.s 			page 28


 1539              		.loc 1 406 3 discriminator 2 view .LVU338
 1540              		.loc 1 406 3 discriminator 2 view .LVU339
 1541              		.syntax divided
 1542              	@ 406 "../test/testmtx.c" 1
 1543 02ac 1FF021E3 		msr     CPSR_c, #0x1F
 1544              	@ 0 "" 2
 1545              		.loc 1 406 16 discriminator 2 view .LVU340
 1546              		.loc 1 407 3 discriminator 2 view .LVU341
 1547              		.arm
 1548              		.syntax unified
 1549 02b0 183095E5 		ldr	r3, [r5, #24]
 1550 02b4 0C00A0E3 		mov	r0, #12
 1551 02b8 081093E5 		ldr	r1, [r3, #8]
 1552 02bc 071041E0 		sub	r1, r1, r7
 1553 02c0 111F6FE1 		clz	r1, r1
 1554 02c4 A112A0E1 		lsr	r1, r1, #5
 1555 02c8 FEFFFFEB 		bl	_test_assert
 1556              	.LVL145:
 1557 02cc 000050E3 		cmp	r0, #0
 1558 02d0 72FFFF1A 		bne	.L74
 1559              		.loc 1 407 68 discriminator 2 view .LVU342
 1560              		.loc 1 408 3 discriminator 2 view .LVU343
 1561 02d4 6400A0E3 		mov	r0, #100
 1562 02d8 FEFFFFEB 		bl	chThdSleep
 1563              	.LVL146:
 1564              		.loc 1 409 3 discriminator 2 view .LVU344
 1565 02dc 183095E5 		ldr	r3, [r5, #24]
 1566 02e0 0D00A0E3 		mov	r0, #13
 1567 02e4 081093E5 		ldr	r1, [r3, #8]
 1568 02e8 071041E0 		sub	r1, r1, r7
 1569 02ec 111F6FE1 		clz	r1, r1
 1570 02f0 A112A0E1 		lsr	r1, r1, #5
 1571 02f4 FEFFFFEB 		bl	_test_assert
 1572              	.LVL147:
 1573 02f8 000050E3 		cmp	r0, #0
 1574 02fc 67FFFF1A 		bne	.L74
 1575              		.loc 1 409 68 discriminator 2 view .LVU345
 1576              		.loc 1 410 3 discriminator 2 view .LVU346
 1577 0300 FEFFFFEB 		bl	chMtxUnlockAll
 1578              	.LVL148:
 1579              		.loc 1 411 3 discriminator 2 view .LVU347
 1580 0304 183095E5 		ldr	r3, [r5, #24]
 1581 0308 0E00A0E3 		mov	r0, #14
 1582 030c 081093E5 		ldr	r1, [r3, #8]
 1583 0310 041041E0 		sub	r1, r1, r4
 1584 0314 111F6FE1 		clz	r1, r1
 1585 0318 A112A0E1 		lsr	r1, r1, #5
 1586 031c FEFFFFEB 		bl	_test_assert
 1587              	.LVL149:
 1588 0320 000050E3 		cmp	r0, #0
 1589 0324 5DFFFF1A 		bne	.L74
 1590              		.loc 1 411 67 discriminator 2 view .LVU348
 1591              		.loc 1 412 3 discriminator 2 view .LVU349
 1592              		.loc 1 413 1 is_stmt 0 discriminator 2 view .LVU350
 1593 0328 08D08DE2 		add	sp, sp, #8
 1594              		.cfi_def_cfa_offset 32
 1595              		@ sp needed
ARM GAS  /tmp/cc3L2rUz.s 			page 29


 1596 032c F047BDE8 		pop	{r4, r5, r6, r7, r8, r9, r10, lr}
 1597              		.cfi_restore 14
 1598              		.cfi_restore 10
 1599              		.cfi_restore 9
 1600              		.cfi_restore 8
 1601              		.cfi_restore 7
 1602              		.cfi_restore 6
 1603              		.cfi_restore 5
 1604              		.cfi_restore 4
 1605              		.cfi_def_cfa_offset 0
 1606              	.LVL150:
 1607              		.loc 1 412 3 discriminator 2 view .LVU351
 1608 0330 FEFFFFEA 		b	test_wait_threads
 1609              	.LVL151:
 1610              	.L81:
 1611              		.align	2
 1612              	.L80:
 1613 0334 00000000 		.word	rlist
 1614 0338 00000000 		.word	wa
 1615 033c 0C000000 		.word	.LC3
 1616 0340 00000000 		.word	thread4a
 1617 0344 10000000 		.word	.LC4
 1618 0348 00000000 		.word	threads
 1619 034c 00000000 		.word	thread4b
 1620 0350 00000000 		.word	.LANCHOR1
 1621 0354 00000000 		.word	.LANCHOR0
 1622 0358 04000000 		.word	.LC1
 1623 035c 08000000 		.word	.LC2
 1624              		.cfi_endproc
 1625              	.LFE25:
 1626              		.size	mtx4_execute, .-mtx4_execute
 1627              		.section	.text.mtx5_execute,"ax",%progbits
 1628              		.align	2
 1629              		.syntax unified
 1630              		.arm
 1631              		.fpu softvfp
 1632              		.type	mtx5_execute, %function
 1633              	mtx5_execute:
 1634              	.LFB27:
 1635              		.loc 1 437 32 is_stmt 1 view -0
 1636              		.cfi_startproc
 1637              		@ args = 0, pretend = 0, frame = 0
 1638              		@ frame_needed = 0, uses_anonymous_args = 0
 1639              		.loc 1 438 3 view .LVU353
 1640              		.loc 1 439 3 view .LVU354
 1641              		.loc 1 441 3 view .LVU355
 1642              		.loc 1 437 32 is_stmt 0 view .LVU356
 1643 0000 70402DE9 		push	{r4, r5, r6, lr}
 1644              		.cfi_def_cfa_offset 16
 1645              		.cfi_offset 4, -16
 1646              		.cfi_offset 5, -12
 1647              		.cfi_offset 6, -8
 1648              		.cfi_offset 14, -4
 1649              		.loc 1 441 10 view .LVU357
 1650 0004 F4509FE5 		ldr	r5, .L87
 1651              		.loc 1 443 7 view .LVU358
 1652 0008 F4409FE5 		ldr	r4, .L87+4
ARM GAS  /tmp/cc3L2rUz.s 			page 30


 1653              		.loc 1 441 8 view .LVU359
 1654 000c 183095E5 		ldr	r3, [r5, #24]
 1655              		.loc 1 443 7 view .LVU360
 1656 0010 0400A0E1 		mov	r0, r4
 1657              		.loc 1 441 8 view .LVU361
 1658 0014 086093E5 		ldr	r6, [r3, #8]
 1659              	.LVL152:
 1660              		.loc 1 443 3 is_stmt 1 view .LVU362
 1661              		.loc 1 443 7 is_stmt 0 view .LVU363
 1662 0018 FEFFFFEB 		bl	chMtxTryLock
 1663              	.LVL153:
 1664 001c 0010A0E1 		mov	r1, r0
 1665              	.LVL154:
 1666              		.loc 1 444 3 is_stmt 1 view .LVU364
 1667 0020 0100A0E3 		mov	r0, #1
 1668              	.LVL155:
 1669              		.loc 1 444 3 is_stmt 0 view .LVU365
 1670 0024 FEFFFFEB 		bl	_test_assert
 1671              	.LVL156:
 1672              		.loc 1 444 3 view .LVU366
 1673 0028 000050E3 		cmp	r0, #0
 1674 002c 7080BD18 		popne	{r4, r5, r6, pc}
 1675              		.loc 1 444 38 is_stmt 1 discriminator 2 view .LVU367
 1676              		.loc 1 446 3 discriminator 2 view .LVU368
 1677              		.loc 1 446 7 is_stmt 0 discriminator 2 view .LVU369
 1678 0030 0400A0E1 		mov	r0, r4
 1679 0034 FEFFFFEB 		bl	chMtxTryLock
 1680              	.LVL157:
 1681              		.loc 1 447 3 is_stmt 1 discriminator 2 view .LVU370
 1682 0038 101F6FE1 		clz	r1, r0
 1683 003c 0200A0E3 		mov	r0, #2
 1684              	.LVL158:
 1685              		.loc 1 447 3 is_stmt 0 discriminator 2 view .LVU371
 1686 0040 A112A0E1 		lsr	r1, r1, #5
 1687 0044 FEFFFFEB 		bl	_test_assert
 1688              	.LVL159:
 1689 0048 000050E3 		cmp	r0, #0
 1690 004c 7080BD18 		popne	{r4, r5, r6, pc}
 1691              		.loc 1 447 35 is_stmt 1 discriminator 2 view .LVU372
 1692              		.loc 1 449 3 discriminator 2 view .LVU373
 1693              		.syntax divided
 1694              	@ 449 "../test/testmtx.c" 1
 1695 0050 9FF021E3 		msr     CPSR_c, #0x9F
 1696              	@ 0 "" 2
 1697              		.loc 1 449 3 discriminator 2 view .LVU374
 1698              		.loc 1 449 14 discriminator 2 view .LVU375
 1699              		.loc 1 450 3 discriminator 2 view .LVU376
 1700              		.arm
 1701              		.syntax unified
 1702 0054 FEFFFFEB 		bl	chMtxUnlockS
 1703              	.LVL160:
 1704              		.loc 1 451 3 discriminator 2 view .LVU377
 1705              		.loc 1 451 3 discriminator 2 view .LVU378
 1706              		.syntax divided
 1707              	@ 451 "../test/testmtx.c" 1
 1708 0058 1FF021E3 		msr     CPSR_c, #0x1F
 1709              	@ 0 "" 2
ARM GAS  /tmp/cc3L2rUz.s 			page 31


 1710              		.loc 1 451 16 discriminator 2 view .LVU379
 1711              		.loc 1 453 3 discriminator 2 view .LVU380
 1712              		.arm
 1713              		.syntax unified
 1714 005c 001094E5 		ldr	r1, [r4]
 1715 0060 0300A0E3 		mov	r0, #3
 1716 0064 041041E0 		sub	r1, r1, r4
 1717 0068 111F6FE1 		clz	r1, r1
 1718 006c A112A0E1 		lsr	r1, r1, #5
 1719 0070 FEFFFFEB 		bl	_test_assert
 1720              	.LVL161:
 1721 0074 000050E3 		cmp	r0, #0
 1722 0078 7080BD18 		popne	{r4, r5, r6, pc}
 1723              		.loc 1 453 58 discriminator 2 view .LVU381
 1724              		.loc 1 454 3 discriminator 2 view .LVU382
 1725 007c 081094E5 		ldr	r1, [r4, #8]
 1726 0080 0400A0E3 		mov	r0, #4
 1727 0084 111F6FE1 		clz	r1, r1
 1728 0088 A112A0E1 		lsr	r1, r1, #5
 1729 008c FEFFFFEB 		bl	_test_assert
 1730              	.LVL162:
 1731 0090 000050E3 		cmp	r0, #0
 1732 0094 7080BD18 		popne	{r4, r5, r6, pc}
 1733              		.loc 1 454 52 discriminator 2 view .LVU383
 1734              		.loc 1 455 3 discriminator 2 view .LVU384
 1735 0098 183095E5 		ldr	r3, [r5, #24]
 1736 009c 0500A0E3 		mov	r0, #5
 1737 00a0 081093E5 		ldr	r1, [r3, #8]
 1738 00a4 061041E0 		sub	r1, r1, r6
 1739 00a8 111F6FE1 		clz	r1, r1
 1740 00ac A112A0E1 		lsr	r1, r1, #5
 1741 00b0 FEFFFFEB 		bl	_test_assert
 1742              	.LVL163:
 1743 00b4 000050E3 		cmp	r0, #0
 1744 00b8 7080BD18 		popne	{r4, r5, r6, pc}
 1745              		.loc 1 455 69 discriminator 2 view .LVU385
 1746              		.loc 1 457 3 discriminator 2 view .LVU386
 1747 00bc 0400A0E1 		mov	r0, r4
 1748 00c0 FEFFFFEB 		bl	chMtxLock
 1749              	.LVL164:
 1750              		.loc 1 458 3 discriminator 2 view .LVU387
 1751 00c4 FEFFFFEB 		bl	chMtxUnlockAll
 1752              	.LVL165:
 1753              		.loc 1 459 3 discriminator 2 view .LVU388
 1754 00c8 001094E5 		ldr	r1, [r4]
 1755 00cc 0600A0E3 		mov	r0, #6
 1756 00d0 041041E0 		sub	r1, r1, r4
 1757 00d4 111F6FE1 		clz	r1, r1
 1758 00d8 A112A0E1 		lsr	r1, r1, #5
 1759 00dc FEFFFFEB 		bl	_test_assert
 1760              	.LVL166:
 1761 00e0 000050E3 		cmp	r0, #0
 1762 00e4 7080BD18 		popne	{r4, r5, r6, pc}
 1763              		.loc 1 459 58 discriminator 2 view .LVU389
 1764              		.loc 1 460 3 discriminator 2 view .LVU390
 1765 00e8 081094E5 		ldr	r1, [r4, #8]
 1766 00ec 0700A0E3 		mov	r0, #7
ARM GAS  /tmp/cc3L2rUz.s 			page 32


 1767              		.loc 1 461 1 is_stmt 0 discriminator 2 view .LVU391
 1768 00f0 7040BDE8 		pop	{r4, r5, r6, lr}
 1769              		.cfi_restore 14
 1770              		.cfi_restore 6
 1771              		.cfi_restore 5
 1772              		.cfi_restore 4
 1773              		.cfi_def_cfa_offset 0
 1774              	.LVL167:
 1775              		.loc 1 460 3 discriminator 2 view .LVU392
 1776 00f4 111F6FE1 		clz	r1, r1
 1777 00f8 A112A0E1 		lsr	r1, r1, #5
 1778 00fc FEFFFFEA 		b	_test_assert
 1779              	.LVL168:
 1780              	.L88:
 1781              		.align	2
 1782              	.L87:
 1783 0100 00000000 		.word	rlist
 1784 0104 00000000 		.word	.LANCHOR0
 1785              		.cfi_endproc
 1786              	.LFE27:
 1787              		.size	mtx5_execute, .-mtx5_execute
 1788              		.section	.text.mtx6_execute,"ax",%progbits
 1789              		.align	2
 1790              		.syntax unified
 1791              		.arm
 1792              		.fpu softvfp
 1793              		.type	mtx6_execute, %function
 1794              	mtx6_execute:
 1795              	.LFB30:
 1796              		.loc 1 497 32 is_stmt 1 view -0
 1797              		.cfi_startproc
 1798              		@ args = 0, pretend = 0, frame = 0
 1799              		@ frame_needed = 0, uses_anonymous_args = 0
 1800              		.loc 1 499 3 view .LVU394
 1801              		.loc 1 497 32 is_stmt 0 view .LVU395
 1802 0000 F0402DE9 		push	{r4, r5, r6, r7, lr}
 1803              		.cfi_def_cfa_offset 20
 1804              		.cfi_offset 4, -20
 1805              		.cfi_offset 5, -16
 1806              		.cfi_offset 6, -12
 1807              		.cfi_offset 7, -8
 1808              		.cfi_offset 14, -4
 1809              		.loc 1 499 18 view .LVU396
 1810 0004 14319FE5 		ldr	r3, .L91
 1811              		.loc 1 500 16 view .LVU397
 1812 0008 14619FE5 		ldr	r6, .L91+4
 1813              		.loc 1 499 11 view .LVU398
 1814 000c 183093E5 		ldr	r3, [r3, #24]
 1815              		.loc 1 500 16 view .LVU399
 1816 0010 10519FE5 		ldr	r5, .L91+8
 1817              		.loc 1 499 11 view .LVU400
 1818 0014 087093E5 		ldr	r7, [r3, #8]
 1819              	.LVL169:
 1820              		.loc 1 500 3 is_stmt 1 view .LVU401
 1821              		.loc 1 500 16 is_stmt 0 view .LVU402
 1822 0018 0C119FE5 		ldr	r1, .L91+12
 1823              		.loc 1 497 32 view .LVU403
ARM GAS  /tmp/cc3L2rUz.s 			page 33


 1824 001c 0CD04DE2 		sub	sp, sp, #12
 1825              		.cfi_def_cfa_offset 32
 1826              		.loc 1 500 16 view .LVU404
 1827 0020 0630A0E1 		mov	r3, r6
 1828 0024 012087E2 		add	r2, r7, #1
 1829 0028 00108DE5 		str	r1, [sp]
 1830 002c 000095E5 		ldr	r0, [r5]
 1831 0030 461FA0E3 		mov	r1, #280
 1832 0034 FEFFFFEB 		bl	chThdCreateStatic
 1833              	.LVL170:
 1834 0038 00C0A0E1 		mov	ip, r0
 1835              		.loc 1 500 14 view .LVU405
 1836 003c EC409FE5 		ldr	r4, .L91+16
 1837              		.loc 1 501 16 view .LVU406
 1838 0040 EC109FE5 		ldr	r1, .L91+20
 1839 0044 0630A0E1 		mov	r3, r6
 1840 0048 00108DE5 		str	r1, [sp]
 1841 004c 022087E2 		add	r2, r7, #2
 1842              		.loc 1 500 14 view .LVU407
 1843 0050 00C084E5 		str	ip, [r4]
 1844              		.loc 1 501 3 is_stmt 1 view .LVU408
 1845              		.loc 1 501 16 is_stmt 0 view .LVU409
 1846 0054 461FA0E3 		mov	r1, #280
 1847 0058 040095E5 		ldr	r0, [r5, #4]
 1848 005c FEFFFFEB 		bl	chThdCreateStatic
 1849              	.LVL171:
 1850 0060 00C0A0E1 		mov	ip, r0
 1851              		.loc 1 502 16 view .LVU410
 1852 0064 CC109FE5 		ldr	r1, .L91+24
 1853 0068 0630A0E1 		mov	r3, r6
 1854 006c 00108DE5 		str	r1, [sp]
 1855 0070 032087E2 		add	r2, r7, #3
 1856              		.loc 1 501 14 view .LVU411
 1857 0074 04C084E5 		str	ip, [r4, #4]
 1858              		.loc 1 502 3 is_stmt 1 view .LVU412
 1859              		.loc 1 502 16 is_stmt 0 view .LVU413
 1860 0078 461FA0E3 		mov	r1, #280
 1861 007c 080095E5 		ldr	r0, [r5, #8]
 1862 0080 FEFFFFEB 		bl	chThdCreateStatic
 1863              	.LVL172:
 1864 0084 00C0A0E1 		mov	ip, r0
 1865              		.loc 1 503 16 view .LVU414
 1866 0088 AC109FE5 		ldr	r1, .L91+28
 1867 008c 0630A0E1 		mov	r3, r6
 1868 0090 00108DE5 		str	r1, [sp]
 1869 0094 042087E2 		add	r2, r7, #4
 1870              		.loc 1 502 14 view .LVU415
 1871 0098 08C084E5 		str	ip, [r4, #8]
 1872              		.loc 1 503 3 is_stmt 1 view .LVU416
 1873              		.loc 1 503 16 is_stmt 0 view .LVU417
 1874 009c 461FA0E3 		mov	r1, #280
 1875 00a0 0C0095E5 		ldr	r0, [r5, #12]
 1876 00a4 FEFFFFEB 		bl	chThdCreateStatic
 1877              	.LVL173:
 1878 00a8 00C0A0E1 		mov	ip, r0
 1879              		.loc 1 504 16 view .LVU418
 1880 00ac 8C109FE5 		ldr	r1, .L91+32
ARM GAS  /tmp/cc3L2rUz.s 			page 34


 1881 00b0 0630A0E1 		mov	r3, r6
 1882 00b4 00108DE5 		str	r1, [sp]
 1883 00b8 100095E5 		ldr	r0, [r5, #16]
 1884 00bc 461FA0E3 		mov	r1, #280
 1885 00c0 052087E2 		add	r2, r7, #5
 1886              		.loc 1 503 14 view .LVU419
 1887 00c4 0CC084E5 		str	ip, [r4, #12]
 1888              		.loc 1 504 3 is_stmt 1 view .LVU420
 1889              		.loc 1 504 16 is_stmt 0 view .LVU421
 1890 00c8 FEFFFFEB 		bl	chThdCreateStatic
 1891              	.LVL174:
 1892              		.loc 1 504 14 view .LVU422
 1893 00cc 100084E5 		str	r0, [r4, #16]
 1894              		.loc 1 505 3 is_stmt 1 view .LVU423
 1895              		.syntax divided
 1896              	@ 505 "../test/testmtx.c" 1
 1897 00d0 9FF021E3 		msr     CPSR_c, #0x9F
 1898              	@ 0 "" 2
 1899              		.loc 1 505 3 view .LVU424
 1900              		.loc 1 505 14 view .LVU425
 1901              		.loc 1 506 3 view .LVU426
 1902              		.arm
 1903              		.syntax unified
 1904 00d4 68409FE5 		ldr	r4, .L91+36
 1905 00d8 0400A0E1 		mov	r0, r4
 1906 00dc FEFFFFEB 		bl	chCondSignalI
 1907              	.LVL175:
 1908              		.loc 1 507 3 view .LVU427
 1909 00e0 0400A0E1 		mov	r0, r4
 1910 00e4 FEFFFFEB 		bl	chCondSignalI
 1911              	.LVL176:
 1912              		.loc 1 508 3 view .LVU428
 1913 00e8 0400A0E1 		mov	r0, r4
 1914 00ec FEFFFFEB 		bl	chCondSignalI
 1915              	.LVL177:
 1916              		.loc 1 509 3 view .LVU429
 1917 00f0 0400A0E1 		mov	r0, r4
 1918 00f4 FEFFFFEB 		bl	chCondSignalI
 1919              	.LVL178:
 1920              		.loc 1 510 3 view .LVU430
 1921 00f8 0400A0E1 		mov	r0, r4
 1922 00fc FEFFFFEB 		bl	chCondSignalI
 1923              	.LVL179:
 1924              		.loc 1 511 3 view .LVU431
 1925 0100 FEFFFFEB 		bl	chSchRescheduleS
 1926              	.LVL180:
 1927              		.loc 1 512 3 view .LVU432
 1928              		.loc 1 512 3 view .LVU433
 1929              		.syntax divided
 1930              	@ 512 "../test/testmtx.c" 1
 1931 0104 1FF021E3 		msr     CPSR_c, #0x1F
 1932              	@ 0 "" 2
 1933              		.loc 1 512 16 view .LVU434
 1934              		.loc 1 513 3 view .LVU435
 1935              		.arm
 1936              		.syntax unified
 1937 0108 FEFFFFEB 		bl	test_wait_threads
ARM GAS  /tmp/cc3L2rUz.s 			page 35


 1938              	.LVL181:
 1939              		.loc 1 514 3 view .LVU436
 1940 010c 0100A0E3 		mov	r0, #1
 1941 0110 30109FE5 		ldr	r1, .L91+40
 1942              		.loc 1 515 1 is_stmt 0 view .LVU437
 1943 0114 0CD08DE2 		add	sp, sp, #12
 1944              		.cfi_def_cfa_offset 20
 1945              		@ sp needed
 1946 0118 F040BDE8 		pop	{r4, r5, r6, r7, lr}
 1947              		.cfi_restore 14
 1948              		.cfi_restore 7
 1949              		.cfi_restore 6
 1950              		.cfi_restore 5
 1951              		.cfi_restore 4
 1952              		.cfi_def_cfa_offset 0
 1953              	.LVL182:
 1954              		.loc 1 514 3 view .LVU438
 1955 011c FEFFFFEA 		b	_test_assert_sequence
 1956              	.LVL183:
 1957              	.L92:
 1958              		.align	2
 1959              	.L91:
 1960 0120 00000000 		.word	rlist
 1961 0124 00000000 		.word	thread10
 1962 0128 00000000 		.word	wa
 1963 012c 00000000 		.word	.LC0
 1964 0130 00000000 		.word	threads
 1965 0134 04000000 		.word	.LC1
 1966 0138 08000000 		.word	.LC2
 1967 013c 0C000000 		.word	.LC3
 1968 0140 10000000 		.word	.LC4
 1969 0144 00000000 		.word	.LANCHOR2
 1970 0148 14000000 		.word	.LC5
 1971              		.cfi_endproc
 1972              	.LFE30:
 1973              		.size	mtx6_execute, .-mtx6_execute
 1974              		.section	.text.thread10,"ax",%progbits
 1975              		.align	2
 1976              		.syntax unified
 1977              		.arm
 1978              		.fpu softvfp
 1979              		.type	thread10, %function
 1980              	thread10:
 1981              	.LVL184:
 1982              	.LFB29:
 1983              		.loc 1 488 32 is_stmt 1 view -0
 1984              		.cfi_startproc
 1985              		@ args = 0, pretend = 0, frame = 0
 1986              		@ frame_needed = 0, uses_anonymous_args = 0
 1987              		.loc 1 490 3 view .LVU440
 1988              		.loc 1 488 32 is_stmt 0 view .LVU441
 1989 0000 10402DE9 		push	{r4, lr}
 1990              		.cfi_def_cfa_offset 8
 1991              		.cfi_offset 4, -8
 1992              		.cfi_offset 14, -4
 1993              		.loc 1 488 32 view .LVU442
 1994 0004 0040A0E1 		mov	r4, r0
ARM GAS  /tmp/cc3L2rUz.s 			page 36


 1995              		.loc 1 490 3 view .LVU443
 1996 0008 1C009FE5 		ldr	r0, .L95
 1997              	.LVL185:
 1998              		.loc 1 490 3 view .LVU444
 1999 000c FEFFFFEB 		bl	chMtxLock
 2000              	.LVL186:
 2001              		.loc 1 491 3 is_stmt 1 view .LVU445
 2002 0010 18009FE5 		ldr	r0, .L95+4
 2003 0014 FEFFFFEB 		bl	chCondWait
 2004              	.LVL187:
 2005              		.loc 1 492 3 view .LVU446
 2006 0018 0000D4E5 		ldrb	r0, [r4]	@ zero_extendqisi2
 2007 001c FEFFFFEB 		bl	test_emit_token
 2008              	.LVL188:
 2009              		.loc 1 493 3 view .LVU447
 2010 0020 FEFFFFEB 		bl	chMtxUnlock
 2011              	.LVL189:
 2012              		.loc 1 494 3 view .LVU448
 2013              		.loc 1 495 1 is_stmt 0 view .LVU449
 2014 0024 0000A0E3 		mov	r0, #0
 2015 0028 1080BDE8 		pop	{r4, pc}
 2016              	.L96:
 2017              		.align	2
 2018              	.L95:
 2019 002c 00000000 		.word	.LANCHOR0
 2020 0030 00000000 		.word	.LANCHOR2
 2021              		.cfi_endproc
 2022              	.LFE29:
 2023              		.size	thread10, .-thread10
 2024              		.section	.text.mtx6_setup,"ax",%progbits
 2025              		.align	2
 2026              		.syntax unified
 2027              		.arm
 2028              		.fpu softvfp
 2029              		.type	mtx6_setup, %function
 2030              	mtx6_setup:
 2031              	.LFB28:
 2032              		.loc 1 482 30 is_stmt 1 view -0
 2033              		.cfi_startproc
 2034              		@ args = 0, pretend = 0, frame = 0
 2035              		@ frame_needed = 0, uses_anonymous_args = 0
 2036              		.loc 1 484 3 view .LVU451
 2037              		.loc 1 482 30 is_stmt 0 view .LVU452
 2038 0000 10402DE9 		push	{r4, lr}
 2039              		.cfi_def_cfa_offset 8
 2040              		.cfi_offset 4, -8
 2041              		.cfi_offset 14, -4
 2042              		.loc 1 484 3 view .LVU453
 2043 0004 0C009FE5 		ldr	r0, .L99
 2044 0008 FEFFFFEB 		bl	chCondInit
 2045              	.LVL190:
 2046              		.loc 1 485 3 is_stmt 1 view .LVU454
 2047              		.loc 1 486 1 is_stmt 0 view .LVU455
 2048 000c 1040BDE8 		pop	{r4, lr}
 2049              		.cfi_restore 14
 2050              		.cfi_restore 4
 2051              		.cfi_def_cfa_offset 0
ARM GAS  /tmp/cc3L2rUz.s 			page 37


 2052              		.loc 1 485 3 view .LVU456
 2053 0010 04009FE5 		ldr	r0, .L99+4
 2054 0014 FEFFFFEA 		b	chMtxInit
 2055              	.LVL191:
 2056              	.L100:
 2057              		.align	2
 2058              	.L99:
 2059 0018 00000000 		.word	.LANCHOR2
 2060 001c 00000000 		.word	.LANCHOR0
 2061              		.cfi_endproc
 2062              	.LFE28:
 2063              		.size	mtx6_setup, .-mtx6_setup
 2064              		.section	.text.mtx7_setup,"ax",%progbits
 2065              		.align	2
 2066              		.syntax unified
 2067              		.arm
 2068              		.fpu softvfp
 2069              		.type	mtx7_setup, %function
 2070              	mtx7_setup:
 2071              	.LFB44:
 2072              		.cfi_startproc
 2073              		@ args = 0, pretend = 0, frame = 0
 2074              		@ frame_needed = 0, uses_anonymous_args = 0
 2075              		@ link register save eliminated.
 2076 0000 FEFFFFEA 		b	mtx6_setup
 2077              		.cfi_endproc
 2078              	.LFE44:
 2079              		.size	mtx7_setup, .-mtx7_setup
 2080              		.section	.text.mtx8_setup,"ax",%progbits
 2081              		.align	2
 2082              		.syntax unified
 2083              		.arm
 2084              		.fpu softvfp
 2085              		.type	mtx8_setup, %function
 2086              	mtx8_setup:
 2087              	.LFB33:
 2088              		.loc 1 569 30 is_stmt 1 view -0
 2089              		.cfi_startproc
 2090              		@ args = 0, pretend = 0, frame = 0
 2091              		@ frame_needed = 0, uses_anonymous_args = 0
 2092              		.loc 1 571 3 view .LVU458
 2093              		.loc 1 569 30 is_stmt 0 view .LVU459
 2094 0000 10402DE9 		push	{r4, lr}
 2095              		.cfi_def_cfa_offset 8
 2096              		.cfi_offset 4, -8
 2097              		.cfi_offset 14, -4
 2098              		.loc 1 571 3 view .LVU460
 2099 0004 14009FE5 		ldr	r0, .L104
 2100 0008 FEFFFFEB 		bl	chCondInit
 2101              	.LVL192:
 2102              		.loc 1 572 3 is_stmt 1 view .LVU461
 2103 000c 10009FE5 		ldr	r0, .L104+4
 2104 0010 FEFFFFEB 		bl	chMtxInit
 2105              	.LVL193:
 2106              		.loc 1 573 3 view .LVU462
 2107              		.loc 1 574 1 is_stmt 0 view .LVU463
 2108 0014 1040BDE8 		pop	{r4, lr}
ARM GAS  /tmp/cc3L2rUz.s 			page 38


 2109              		.cfi_restore 14
 2110              		.cfi_restore 4
 2111              		.cfi_def_cfa_offset 0
 2112              		.loc 1 573 3 view .LVU464
 2113 0018 08009FE5 		ldr	r0, .L104+8
 2114 001c FEFFFFEA 		b	chMtxInit
 2115              	.LVL194:
 2116              	.L105:
 2117              		.align	2
 2118              	.L104:
 2119 0020 00000000 		.word	.LANCHOR2
 2120 0024 00000000 		.word	.LANCHOR0
 2121 0028 00000000 		.word	.LANCHOR1
 2122              		.cfi_endproc
 2123              	.LFE33:
 2124              		.size	mtx8_setup, .-mtx8_setup
 2125              		.section	.text.mtx7_execute,"ax",%progbits
 2126              		.align	2
 2127              		.syntax unified
 2128              		.arm
 2129              		.fpu softvfp
 2130              		.type	mtx7_execute, %function
 2131              	mtx7_execute:
 2132              	.LFB32:
 2133              		.loc 1 540 32 is_stmt 1 view -0
 2134              		.cfi_startproc
 2135              		@ args = 0, pretend = 0, frame = 0
 2136              		@ frame_needed = 0, uses_anonymous_args = 0
 2137              		.loc 1 542 3 view .LVU466
 2138              		.loc 1 540 32 is_stmt 0 view .LVU467
 2139 0000 F0402DE9 		push	{r4, r5, r6, r7, lr}
 2140              		.cfi_def_cfa_offset 20
 2141              		.cfi_offset 4, -20
 2142              		.cfi_offset 5, -16
 2143              		.cfi_offset 6, -12
 2144              		.cfi_offset 7, -8
 2145              		.cfi_offset 14, -4
 2146              		.loc 1 542 18 view .LVU468
 2147 0004 E8309FE5 		ldr	r3, .L108
 2148              		.loc 1 543 16 view .LVU469
 2149 0008 E8609FE5 		ldr	r6, .L108+4
 2150              		.loc 1 542 11 view .LVU470
 2151 000c 183093E5 		ldr	r3, [r3, #24]
 2152              		.loc 1 543 16 view .LVU471
 2153 0010 E4509FE5 		ldr	r5, .L108+8
 2154              		.loc 1 542 11 view .LVU472
 2155 0014 087093E5 		ldr	r7, [r3, #8]
 2156              	.LVL195:
 2157              		.loc 1 543 3 is_stmt 1 view .LVU473
 2158              		.loc 1 543 16 is_stmt 0 view .LVU474
 2159 0018 E0109FE5 		ldr	r1, .L108+12
 2160              		.loc 1 540 32 view .LVU475
 2161 001c 0CD04DE2 		sub	sp, sp, #12
 2162              		.cfi_def_cfa_offset 32
 2163              		.loc 1 543 16 view .LVU476
 2164 0020 0630A0E1 		mov	r3, r6
 2165 0024 012087E2 		add	r2, r7, #1
ARM GAS  /tmp/cc3L2rUz.s 			page 39


 2166 0028 00108DE5 		str	r1, [sp]
 2167 002c 000095E5 		ldr	r0, [r5]
 2168 0030 461FA0E3 		mov	r1, #280
 2169 0034 FEFFFFEB 		bl	chThdCreateStatic
 2170              	.LVL196:
 2171 0038 00C0A0E1 		mov	ip, r0
 2172              		.loc 1 544 16 view .LVU477
 2173 003c C0109FE5 		ldr	r1, .L108+16
 2174              		.loc 1 543 14 view .LVU478
 2175 0040 C0409FE5 		ldr	r4, .L108+20
 2176              		.loc 1 544 16 view .LVU479
 2177 0044 0630A0E1 		mov	r3, r6
 2178 0048 022087E2 		add	r2, r7, #2
 2179 004c 00108DE5 		str	r1, [sp]
 2180 0050 040095E5 		ldr	r0, [r5, #4]
 2181 0054 461FA0E3 		mov	r1, #280
 2182              		.loc 1 543 14 view .LVU480
 2183 0058 00C084E5 		str	ip, [r4]
 2184              		.loc 1 544 3 is_stmt 1 view .LVU481
 2185              		.loc 1 544 16 is_stmt 0 view .LVU482
 2186 005c FEFFFFEB 		bl	chThdCreateStatic
 2187              	.LVL197:
 2188 0060 00C0A0E1 		mov	ip, r0
 2189              		.loc 1 545 16 view .LVU483
 2190 0064 A0109FE5 		ldr	r1, .L108+24
 2191 0068 0630A0E1 		mov	r3, r6
 2192 006c 032087E2 		add	r2, r7, #3
 2193 0070 00108DE5 		str	r1, [sp]
 2194 0074 080095E5 		ldr	r0, [r5, #8]
 2195 0078 461FA0E3 		mov	r1, #280
 2196              		.loc 1 544 14 view .LVU484
 2197 007c 04C084E5 		str	ip, [r4, #4]
 2198              		.loc 1 545 3 is_stmt 1 view .LVU485
 2199              		.loc 1 545 16 is_stmt 0 view .LVU486
 2200 0080 FEFFFFEB 		bl	chThdCreateStatic
 2201              	.LVL198:
 2202 0084 00C0A0E1 		mov	ip, r0
 2203              		.loc 1 546 16 view .LVU487
 2204 0088 80109FE5 		ldr	r1, .L108+28
 2205 008c 0630A0E1 		mov	r3, r6
 2206 0090 042087E2 		add	r2, r7, #4
 2207 0094 00108DE5 		str	r1, [sp]
 2208 0098 0C0095E5 		ldr	r0, [r5, #12]
 2209 009c 461FA0E3 		mov	r1, #280
 2210              		.loc 1 545 14 view .LVU488
 2211 00a0 08C084E5 		str	ip, [r4, #8]
 2212              		.loc 1 546 3 is_stmt 1 view .LVU489
 2213              		.loc 1 546 16 is_stmt 0 view .LVU490
 2214 00a4 FEFFFFEB 		bl	chThdCreateStatic
 2215              	.LVL199:
 2216 00a8 00C0A0E1 		mov	ip, r0
 2217              		.loc 1 547 16 view .LVU491
 2218 00ac 60109FE5 		ldr	r1, .L108+32
 2219 00b0 052087E2 		add	r2, r7, #5
 2220 00b4 0630A0E1 		mov	r3, r6
 2221 00b8 00108DE5 		str	r1, [sp]
 2222 00bc 100095E5 		ldr	r0, [r5, #16]
ARM GAS  /tmp/cc3L2rUz.s 			page 40


 2223 00c0 461FA0E3 		mov	r1, #280
 2224              		.loc 1 546 14 view .LVU492
 2225 00c4 0CC084E5 		str	ip, [r4, #12]
 2226              		.loc 1 547 3 is_stmt 1 view .LVU493
 2227              		.loc 1 547 16 is_stmt 0 view .LVU494
 2228 00c8 FEFFFFEB 		bl	chThdCreateStatic
 2229              	.LVL200:
 2230 00cc 0030A0E1 		mov	r3, r0
 2231              		.loc 1 548 3 view .LVU495
 2232 00d0 40009FE5 		ldr	r0, .L108+36
 2233              		.loc 1 547 14 view .LVU496
 2234 00d4 103084E5 		str	r3, [r4, #16]
 2235              		.loc 1 548 3 is_stmt 1 view .LVU497
 2236 00d8 FEFFFFEB 		bl	chCondBroadcast
 2237              	.LVL201:
 2238              		.loc 1 549 3 view .LVU498
 2239 00dc FEFFFFEB 		bl	test_wait_threads
 2240              	.LVL202:
 2241              		.loc 1 550 3 view .LVU499
 2242 00e0 0100A0E3 		mov	r0, #1
 2243 00e4 30109FE5 		ldr	r1, .L108+40
 2244              		.loc 1 551 1 is_stmt 0 view .LVU500
 2245 00e8 0CD08DE2 		add	sp, sp, #12
 2246              		.cfi_def_cfa_offset 20
 2247              		@ sp needed
 2248 00ec F040BDE8 		pop	{r4, r5, r6, r7, lr}
 2249              		.cfi_restore 14
 2250              		.cfi_restore 7
 2251              		.cfi_restore 6
 2252              		.cfi_restore 5
 2253              		.cfi_restore 4
 2254              		.cfi_def_cfa_offset 0
 2255              	.LVL203:
 2256              		.loc 1 550 3 view .LVU501
 2257 00f0 FEFFFFEA 		b	_test_assert_sequence
 2258              	.LVL204:
 2259              	.L109:
 2260              		.align	2
 2261              	.L108:
 2262 00f4 00000000 		.word	rlist
 2263 00f8 00000000 		.word	thread10
 2264 00fc 00000000 		.word	wa
 2265 0100 00000000 		.word	.LC0
 2266 0104 04000000 		.word	.LC1
 2267 0108 00000000 		.word	threads
 2268 010c 08000000 		.word	.LC2
 2269 0110 0C000000 		.word	.LC3
 2270 0114 10000000 		.word	.LC4
 2271 0118 00000000 		.word	.LANCHOR2
 2272 011c 14000000 		.word	.LC5
 2273              		.cfi_endproc
 2274              	.LFE32:
 2275              		.size	mtx7_execute, .-mtx7_execute
 2276              		.section	.text.mtx8_execute,"ax",%progbits
 2277              		.align	2
 2278              		.syntax unified
 2279              		.arm
ARM GAS  /tmp/cc3L2rUz.s 			page 41


 2280              		.fpu softvfp
 2281              		.type	mtx8_execute, %function
 2282              	mtx8_execute:
 2283              	.LFB36:
 2284              		.loc 1 599 32 is_stmt 1 view -0
 2285              		.cfi_startproc
 2286              		@ args = 0, pretend = 0, frame = 0
 2287              		@ frame_needed = 0, uses_anonymous_args = 0
 2288              		.loc 1 601 3 view .LVU503
 2289              		.loc 1 599 32 is_stmt 0 view .LVU504
 2290 0000 70402DE9 		push	{r4, r5, r6, lr}
 2291              		.cfi_def_cfa_offset 16
 2292              		.cfi_offset 4, -16
 2293              		.cfi_offset 5, -12
 2294              		.cfi_offset 6, -8
 2295              		.cfi_offset 14, -4
 2296              		.loc 1 601 18 view .LVU505
 2297 0004 A4309FE5 		ldr	r3, .L112
 2298              		.loc 1 602 16 view .LVU506
 2299 0008 A4509FE5 		ldr	r5, .L112+4
 2300              		.loc 1 601 11 view .LVU507
 2301 000c 182093E5 		ldr	r2, [r3, #24]
 2302              		.loc 1 602 16 view .LVU508
 2303 0010 A0309FE5 		ldr	r3, .L112+8
 2304              		.loc 1 601 11 view .LVU509
 2305 0014 086092E5 		ldr	r6, [r2, #8]
 2306              	.LVL205:
 2307              		.loc 1 602 3 is_stmt 1 view .LVU510
 2308              		.loc 1 599 32 is_stmt 0 view .LVU511
 2309 0018 08D04DE2 		sub	sp, sp, #8
 2310              		.cfi_def_cfa_offset 24
 2311              		.loc 1 602 16 view .LVU512
 2312 001c 012086E2 		add	r2, r6, #1
 2313 0020 00308DE5 		str	r3, [sp]
 2314 0024 461FA0E3 		mov	r1, #280
 2315 0028 000095E5 		ldr	r0, [r5]
 2316 002c 88309FE5 		ldr	r3, .L112+12
 2317 0030 FEFFFFEB 		bl	chThdCreateStatic
 2318              	.LVL206:
 2319 0034 00C0A0E1 		mov	ip, r0
 2320              		.loc 1 603 16 view .LVU513
 2321 0038 80309FE5 		ldr	r3, .L112+16
 2322              		.loc 1 602 14 view .LVU514
 2323 003c 80409FE5 		ldr	r4, .L112+20
 2324              		.loc 1 603 16 view .LVU515
 2325 0040 022086E2 		add	r2, r6, #2
 2326 0044 00308DE5 		str	r3, [sp]
 2327 0048 461FA0E3 		mov	r1, #280
 2328 004c 040095E5 		ldr	r0, [r5, #4]
 2329 0050 70309FE5 		ldr	r3, .L112+24
 2330              		.loc 1 602 14 view .LVU516
 2331 0054 00C084E5 		str	ip, [r4]
 2332              		.loc 1 603 3 is_stmt 1 view .LVU517
 2333              		.loc 1 603 16 is_stmt 0 view .LVU518
 2334 0058 FEFFFFEB 		bl	chThdCreateStatic
 2335              	.LVL207:
 2336 005c 00C0A0E1 		mov	ip, r0
ARM GAS  /tmp/cc3L2rUz.s 			page 42


 2337              		.loc 1 604 16 view .LVU519
 2338 0060 64309FE5 		ldr	r3, .L112+28
 2339 0064 461FA0E3 		mov	r1, #280
 2340 0068 032086E2 		add	r2, r6, #3
 2341 006c 00308DE5 		str	r3, [sp]
 2342 0070 080095E5 		ldr	r0, [r5, #8]
 2343 0074 54309FE5 		ldr	r3, .L112+32
 2344              		.loc 1 603 14 view .LVU520
 2345 0078 04C084E5 		str	ip, [r4, #4]
 2346              		.loc 1 604 3 is_stmt 1 view .LVU521
 2347              		.loc 1 604 16 is_stmt 0 view .LVU522
 2348 007c FEFFFFEB 		bl	chThdCreateStatic
 2349              	.LVL208:
 2350              		.loc 1 605 3 view .LVU523
 2351 0080 4C509FE5 		ldr	r5, .L112+36
 2352              		.loc 1 604 14 view .LVU524
 2353 0084 080084E5 		str	r0, [r4, #8]
 2354              		.loc 1 605 3 is_stmt 1 view .LVU525
 2355 0088 0500A0E1 		mov	r0, r5
 2356 008c FEFFFFEB 		bl	chCondSignal
 2357              	.LVL209:
 2358              		.loc 1 606 3 view .LVU526
 2359 0090 0500A0E1 		mov	r0, r5
 2360 0094 FEFFFFEB 		bl	chCondSignal
 2361              	.LVL210:
 2362              		.loc 1 607 3 view .LVU527
 2363 0098 FEFFFFEB 		bl	test_wait_threads
 2364              	.LVL211:
 2365              		.loc 1 608 3 view .LVU528
 2366 009c 0100A0E3 		mov	r0, #1
 2367 00a0 30109FE5 		ldr	r1, .L112+40
 2368              		.loc 1 609 1 is_stmt 0 view .LVU529
 2369 00a4 08D08DE2 		add	sp, sp, #8
 2370              		.cfi_def_cfa_offset 16
 2371              		@ sp needed
 2372 00a8 7040BDE8 		pop	{r4, r5, r6, lr}
 2373              		.cfi_restore 14
 2374              		.cfi_restore 6
 2375              		.cfi_restore 5
 2376              		.cfi_restore 4
 2377              		.cfi_def_cfa_offset 0
 2378              	.LVL212:
 2379              		.loc 1 608 3 view .LVU530
 2380 00ac FEFFFFEA 		b	_test_assert_sequence
 2381              	.LVL213:
 2382              	.L113:
 2383              		.align	2
 2384              	.L112:
 2385 00b0 00000000 		.word	rlist
 2386 00b4 00000000 		.word	wa
 2387 00b8 10000000 		.word	.LC4
 2388 00bc 00000000 		.word	thread11
 2389 00c0 08000000 		.word	.LC2
 2390 00c4 00000000 		.word	threads
 2391 00c8 00000000 		.word	thread10
 2392 00cc 0C000000 		.word	.LC3
 2393 00d0 00000000 		.word	thread12
ARM GAS  /tmp/cc3L2rUz.s 			page 43


 2394 00d4 00000000 		.word	.LANCHOR2
 2395 00d8 00000000 		.word	.LC6
 2396              		.cfi_endproc
 2397              	.LFE36:
 2398              		.size	mtx8_execute, .-mtx8_execute
 2399              		.section	.text.thread11,"ax",%progbits
 2400              		.align	2
 2401              		.syntax unified
 2402              		.arm
 2403              		.fpu softvfp
 2404              		.type	thread11, %function
 2405              	thread11:
 2406              	.LVL214:
 2407              	.LFB34:
 2408              		.loc 1 576 32 is_stmt 1 view -0
 2409              		.cfi_startproc
 2410              		@ args = 0, pretend = 0, frame = 0
 2411              		@ frame_needed = 0, uses_anonymous_args = 0
 2412              		.loc 1 578 3 view .LVU532
 2413              		.loc 1 576 32 is_stmt 0 view .LVU533
 2414 0000 10402DE9 		push	{r4, lr}
 2415              		.cfi_def_cfa_offset 8
 2416              		.cfi_offset 4, -8
 2417              		.cfi_offset 14, -4
 2418              		.loc 1 576 32 view .LVU534
 2419 0004 0040A0E1 		mov	r4, r0
 2420              		.loc 1 578 3 view .LVU535
 2421 0008 2C009FE5 		ldr	r0, .L116
 2422              	.LVL215:
 2423              		.loc 1 578 3 view .LVU536
 2424 000c FEFFFFEB 		bl	chMtxLock
 2425              	.LVL216:
 2426              		.loc 1 579 3 is_stmt 1 view .LVU537
 2427 0010 28009FE5 		ldr	r0, .L116+4
 2428 0014 FEFFFFEB 		bl	chMtxLock
 2429              	.LVL217:
 2430              		.loc 1 581 3 view .LVU538
 2431 0018 0010E0E3 		mvn	r1, #0
 2432 001c 20009FE5 		ldr	r0, .L116+8
 2433 0020 FEFFFFEB 		bl	chCondWaitTimeout
 2434              	.LVL218:
 2435              		.loc 1 585 3 view .LVU539
 2436 0024 0000D4E5 		ldrb	r0, [r4]	@ zero_extendqisi2
 2437 0028 FEFFFFEB 		bl	test_emit_token
 2438              	.LVL219:
 2439              		.loc 1 586 3 view .LVU540
 2440 002c FEFFFFEB 		bl	chMtxUnlock
 2441              	.LVL220:
 2442              		.loc 1 587 3 view .LVU541
 2443 0030 FEFFFFEB 		bl	chMtxUnlock
 2444              	.LVL221:
 2445              		.loc 1 588 3 view .LVU542
 2446              		.loc 1 589 1 is_stmt 0 view .LVU543
 2447 0034 0000A0E3 		mov	r0, #0
 2448 0038 1080BDE8 		pop	{r4, pc}
 2449              	.L117:
 2450              		.align	2
ARM GAS  /tmp/cc3L2rUz.s 			page 44


 2451              	.L116:
 2452 003c 00000000 		.word	.LANCHOR1
 2453 0040 00000000 		.word	.LANCHOR0
 2454 0044 00000000 		.word	.LANCHOR2
 2455              		.cfi_endproc
 2456              	.LFE34:
 2457              		.size	thread11, .-thread11
 2458              		.global	patternmtx
 2459              		.global	testmtx8
 2460              		.section	.rodata.str1.4,"aMS",%progbits,1
 2461              		.align	2
 2462              	.LC7:
 2463 0000 436F6E64 		.ascii	"CondVar, boost test\000"
 2463      5661722C 
 2463      20626F6F 
 2463      73742074 
 2463      65737400 
 2464              		.global	testmtx7
 2465              		.align	2
 2466              	.LC8:
 2467 0014 436F6E64 		.ascii	"CondVar, broadcast test\000"
 2467      5661722C 
 2467      2062726F 
 2467      61646361 
 2467      73742074 
 2468              		.global	testmtx6
 2469              		.align	2
 2470              	.LC9:
 2471 002c 436F6E64 		.ascii	"CondVar, signal test\000"
 2471      5661722C 
 2471      20736967 
 2471      6E616C20 
 2471      74657374 
 2472              		.global	testmtx5
 2473 0041 000000   		.align	2
 2474              	.LC10:
 2475 0044 4D757465 		.ascii	"Mutexes, status\000"
 2475      7865732C 
 2475      20737461 
 2475      74757300 
 2476              		.global	testmtx4
 2477              		.align	2
 2478              	.LC11:
 2479 0054 4D757465 		.ascii	"Mutexes, priority return\000"
 2479      7865732C 
 2479      20707269 
 2479      6F726974 
 2479      79207265 
 2480              		.global	testmtx3
 2481 006d 000000   		.align	2
 2482              	.LC12:
 2483 0070 4D757465 		.ascii	"Mutexes, priority inheritance, complex case\000"
 2483      7865732C 
 2483      20707269 
 2483      6F726974 
 2483      7920696E 
 2484              		.global	testmtx2
ARM GAS  /tmp/cc3L2rUz.s 			page 45


 2485              		.align	2
 2486              	.LC13:
 2487 009c 4D757465 		.ascii	"Mutexes, priority inheritance, simple case\000"
 2487      7865732C 
 2487      20707269 
 2487      6F726974 
 2487      7920696E 
 2488              		.global	testmtx1
 2489 00c7 00       		.align	2
 2490              	.LC14:
 2491 00c8 4D757465 		.ascii	"Mutexes, priority enqueuing test\000"
 2491      7865732C 
 2491      20707269 
 2491      6F726974 
 2491      7920656E 
 2492              		.section	.data.c1,"aw"
 2493              		.align	2
 2494              		.set	.LANCHOR2,. + 0
 2495              		.type	c1, %object
 2496              		.size	c1, 8
 2497              	c1:
 2498 0000 00000000 		.word	c1
 2499 0004 00000000 		.word	c1
 2500              		.section	.data.m1,"aw"
 2501              		.align	2
 2502              		.set	.LANCHOR0,. + 0
 2503              		.type	m1, %object
 2504              		.size	m1, 16
 2505              	m1:
 2506 0000 00000000 		.word	m1
 2507 0004 00000000 		.word	m1
 2508 0008 00000000 		.word	0
 2509 000c 00000000 		.word	0
 2510              		.section	.data.m2,"aw"
 2511              		.align	2
 2512              		.set	.LANCHOR1,. + 0
 2513              		.type	m2, %object
 2514              		.size	m2, 16
 2515              	m2:
 2516 0000 00000000 		.word	m2
 2517 0004 00000000 		.word	m2
 2518 0008 00000000 		.word	0
 2519 000c 00000000 		.word	0
 2520              		.section	.rodata.patternmtx,"a"
 2521              		.align	2
 2522              		.type	patternmtx, %object
 2523              		.size	patternmtx, 36
 2524              	patternmtx:
 2525 0000 00000000 		.word	testmtx1
 2526 0004 00000000 		.word	testmtx2
 2527 0008 00000000 		.word	testmtx3
 2528 000c 00000000 		.word	testmtx4
 2529 0010 00000000 		.word	testmtx5
 2530 0014 00000000 		.word	testmtx6
 2531 0018 00000000 		.word	testmtx7
 2532 001c 00000000 		.word	testmtx8
 2533 0020 00000000 		.word	0
ARM GAS  /tmp/cc3L2rUz.s 			page 46


 2534              		.section	.rodata.testmtx1,"a"
 2535              		.align	2
 2536              		.type	testmtx1, %object
 2537              		.size	testmtx1, 16
 2538              	testmtx1:
 2539 0000 C8000000 		.word	.LC14
 2540 0004 00000000 		.word	mtx1_setup
 2541 0008 00000000 		.word	0
 2542 000c 00000000 		.word	mtx1_execute
 2543              		.section	.rodata.testmtx2,"a"
 2544              		.align	2
 2545              		.type	testmtx2, %object
 2546              		.size	testmtx2, 16
 2547              	testmtx2:
 2548 0000 9C000000 		.word	.LC13
 2549 0004 00000000 		.word	mtx2_setup
 2550 0008 00000000 		.word	0
 2551 000c 00000000 		.word	mtx2_execute
 2552              		.section	.rodata.testmtx3,"a"
 2553              		.align	2
 2554              		.type	testmtx3, %object
 2555              		.size	testmtx3, 16
 2556              	testmtx3:
 2557 0000 70000000 		.word	.LC12
 2558 0004 00000000 		.word	mtx3_setup
 2559 0008 00000000 		.word	0
 2560 000c 00000000 		.word	mtx3_execute
 2561              		.section	.rodata.testmtx4,"a"
 2562              		.align	2
 2563              		.type	testmtx4, %object
 2564              		.size	testmtx4, 16
 2565              	testmtx4:
 2566 0000 54000000 		.word	.LC11
 2567 0004 00000000 		.word	mtx4_setup
 2568 0008 00000000 		.word	0
 2569 000c 00000000 		.word	mtx4_execute
 2570              		.section	.rodata.testmtx5,"a"
 2571              		.align	2
 2572              		.type	testmtx5, %object
 2573              		.size	testmtx5, 16
 2574              	testmtx5:
 2575 0000 44000000 		.word	.LC10
 2576 0004 00000000 		.word	mtx5_setup
 2577 0008 00000000 		.word	0
 2578 000c 00000000 		.word	mtx5_execute
 2579              		.section	.rodata.testmtx6,"a"
 2580              		.align	2
 2581              		.type	testmtx6, %object
 2582              		.size	testmtx6, 16
 2583              	testmtx6:
 2584 0000 2C000000 		.word	.LC9
 2585 0004 00000000 		.word	mtx6_setup
 2586 0008 00000000 		.word	0
 2587 000c 00000000 		.word	mtx6_execute
 2588              		.section	.rodata.testmtx7,"a"
 2589              		.align	2
 2590              		.type	testmtx7, %object
ARM GAS  /tmp/cc3L2rUz.s 			page 47


 2591              		.size	testmtx7, 16
 2592              	testmtx7:
 2593 0000 14000000 		.word	.LC8
 2594 0004 00000000 		.word	mtx7_setup
 2595 0008 00000000 		.word	0
 2596 000c 00000000 		.word	mtx7_execute
 2597              		.section	.rodata.testmtx8,"a"
 2598              		.align	2
 2599              		.type	testmtx8, %object
 2600              		.size	testmtx8, 16
 2601              	testmtx8:
 2602 0000 00000000 		.word	.LC7
 2603 0004 00000000 		.word	mtx8_setup
 2604 0008 00000000 		.word	0
 2605 000c 00000000 		.word	mtx8_execute
 2606              		.text
 2607              	.Letext0:
 2608              		.file 2 "/usr/lib/gcc/arm-none-eabi/9.2.1/include/stdint.h"
 2609              		.file 3 "../os/ports/GCC/ARM/chtypes.h"
 2610              		.file 4 "../os/kernel/include/chlists.h"
 2611              		.file 5 "../os/kernel/include/chthreads.h"
 2612              		.file 6 "../os/ports/GCC/ARM/chcore.h"
 2613              		.file 7 "../os/kernel/include/chvt.h"
 2614              		.file 8 "../os/kernel/include/chschd.h"
 2615              		.file 9 "../os/kernel/include/chmtx.h"
 2616              		.file 10 "../os/kernel/include/chcond.h"
 2617              		.file 11 "../os/kernel/include/chregistry.h"
 2618              		.file 12 "../os/kernel/include/ch.h"
 2619              		.file 13 "../test/test.h"