ARM GAS  /tmp/ccC5bkFI.s 			page 1


   1              		.cpu arm1176jz-s
   2              		.eabi_attribute 20, 1
   3              		.eabi_attribute 21, 1
   4              		.eabi_attribute 23, 3
   5              		.eabi_attribute 24, 1
   6              		.eabi_attribute 25, 1
   7              		.eabi_attribute 26, 1
   8              		.eabi_attribute 30, 2
   9              		.eabi_attribute 34, 1
  10              		.eabi_attribute 18, 4
  11              		.file	"testheap.c"
  12              		.text
  13              	.Ltext0:
  14              		.cfi_sections	.debug_frame
  15              		.section	.text.heap1_execute,"ax",%progbits
  16              		.align	2
  17              		.arch armv6kz
  18              		.syntax unified
  19              		.arm
  20              		.fpu softvfp
  21              		.type	heap1_execute, %function
  22              	heap1_execute:
  23              	.LFB8:
  24              		.file 1 "../test/testheap.c"
  25              		.loc 1 73 33 view -0
  26              		.cfi_startproc
  27              		@ args = 0, pretend = 0, frame = 8
  28              		@ frame_needed = 0, uses_anonymous_args = 0
  29              		.loc 1 74 3 view .LVU1
  30              		.loc 1 75 3 view .LVU2
  31              		.loc 1 78 3 view .LVU3
  32              		.loc 1 73 33 is_stmt 0 view .LVU4
  33 0000 70402DE9 		push	{r4, r5, r6, lr}
  34              		.cfi_def_cfa_offset 16
  35              		.cfi_offset 4, -16
  36              		.cfi_offset 5, -12
  37              		.cfi_offset 6, -8
  38              		.cfi_offset 14, -4
  39 0004 08D04DE2 		sub	sp, sp, #8
  40              		.cfi_def_cfa_offset 24
  41              		.loc 1 78 9 view .LVU5
  42 0008 FEFFFFEB 		bl	chCoreStatus
  43              	.LVL0:
  44              		.loc 1 84 3 is_stmt 1 view .LVU6
  45              		.loc 1 84 9 is_stmt 0 view .LVU7
  46 000c 04108DE2 		add	r1, sp, #4
  47 0010 0000A0E3 		mov	r0, #0
  48 0014 FEFFFFEB 		bl	chHeapStatus
  49              	.LVL1:
  50              		.loc 1 85 3 is_stmt 1 view .LVU8
  51              		.loc 1 85 8 is_stmt 0 view .LVU9
  52 0018 1010A0E3 		mov	r1, #16
  53 001c 0000A0E3 		mov	r0, #0
  54 0020 FEFFFFEB 		bl	chHeapAlloc
  55              	.LVL2:
  56 0024 0050A0E1 		mov	r5, r0
  57              	.LVL3:
ARM GAS  /tmp/ccC5bkFI.s 			page 2


  58              		.loc 1 86 3 is_stmt 1 view .LVU10
  59 0028 001055E2 		subs	r1, r5, #0
  60 002c 0110A013 		movne	r1, #1
  61 0030 0100A0E3 		mov	r0, #1
  62              	.LVL4:
  63              		.loc 1 86 3 is_stmt 0 view .LVU11
  64 0034 FEFFFFEB 		bl	_test_assert
  65              	.LVL5:
  66 0038 004050E2 		subs	r4, r0, #0
  67 003c 0100000A 		beq	.L9
  68              	.LVL6:
  69              	.L1:
  70              		.loc 1 144 1 view .LVU12
  71 0040 08D08DE2 		add	sp, sp, #8
  72              		.cfi_remember_state
  73              		.cfi_def_cfa_offset 16
  74              		@ sp needed
  75 0044 7080BDE8 		pop	{r4, r5, r6, pc}
  76              	.LVL7:
  77              	.L9:
  78              		.cfi_restore_state
  79              		.loc 1 86 50 is_stmt 1 discriminator 2 view .LVU13
  80              		.loc 1 87 3 discriminator 2 view .LVU14
  81 0048 0500A0E1 		mov	r0, r5
  82 004c FEFFFFEB 		bl	chHeapFree
  83              	.LVL8:
  84              		.loc 1 88 3 discriminator 2 view .LVU15
  85              		.loc 1 88 8 is_stmt 0 discriminator 2 view .LVU16
  86 0050 FF10E0E3 		mvn	r1, #255
  87 0054 0400A0E1 		mov	r0, r4
  88 0058 FEFFFFEB 		bl	chHeapAlloc
  89              	.LVL9:
  90              		.loc 1 89 3 is_stmt 1 discriminator 2 view .LVU17
  91 005c 101F6FE1 		clz	r1, r0
  92 0060 0200A0E3 		mov	r0, #2
  93              	.LVL10:
  94              		.loc 1 89 3 is_stmt 0 discriminator 2 view .LVU18
  95 0064 A112A0E1 		lsr	r1, r1, #5
  96 0068 FEFFFFEB 		bl	_test_assert
  97              	.LVL11:
  98 006c 000050E3 		cmp	r0, #0
  99 0070 F2FFFF1A 		bne	.L1
 100              		.loc 1 89 54 is_stmt 1 discriminator 2 view .LVU19
 101              		.loc 1 92 3 discriminator 2 view .LVU20
 102              		.loc 1 92 9 is_stmt 0 discriminator 2 view .LVU21
 103 0074 04108DE2 		add	r1, sp, #4
 104 0078 F0029FE5 		ldr	r0, .L10
 105 007c FEFFFFEB 		bl	chHeapStatus
 106              	.LVL12:
 107              		.loc 1 95 3 is_stmt 1 discriminator 2 view .LVU22
 108              		.loc 1 95 8 is_stmt 0 discriminator 2 view .LVU23
 109 0080 1010A0E3 		mov	r1, #16
 110 0084 E4029FE5 		ldr	r0, .L10
 111 0088 FEFFFFEB 		bl	chHeapAlloc
 112              	.LVL13:
 113              		.loc 1 96 8 discriminator 2 view .LVU24
 114 008c 1010A0E3 		mov	r1, #16
ARM GAS  /tmp/ccC5bkFI.s 			page 3


 115              		.loc 1 95 8 discriminator 2 view .LVU25
 116 0090 0060A0E1 		mov	r6, r0
 117              		.loc 1 96 8 discriminator 2 view .LVU26
 118 0094 D4029FE5 		ldr	r0, .L10
 119              	.LVL14:
 120              		.loc 1 96 3 is_stmt 1 discriminator 2 view .LVU27
 121              		.loc 1 96 8 is_stmt 0 discriminator 2 view .LVU28
 122 0098 FEFFFFEB 		bl	chHeapAlloc
 123              	.LVL15:
 124              		.loc 1 97 8 discriminator 2 view .LVU29
 125 009c 1010A0E3 		mov	r1, #16
 126              		.loc 1 96 8 discriminator 2 view .LVU30
 127 00a0 0050A0E1 		mov	r5, r0
 128              		.loc 1 97 8 discriminator 2 view .LVU31
 129 00a4 C4029FE5 		ldr	r0, .L10
 130              	.LVL16:
 131              		.loc 1 97 3 is_stmt 1 discriminator 2 view .LVU32
 132              		.loc 1 97 8 is_stmt 0 discriminator 2 view .LVU33
 133 00a8 FEFFFFEB 		bl	chHeapAlloc
 134              	.LVL17:
 135 00ac 0040A0E1 		mov	r4, r0
 136              		.loc 1 98 3 discriminator 2 view .LVU34
 137 00b0 0600A0E1 		mov	r0, r6
 138              	.LVL18:
 139              		.loc 1 98 3 is_stmt 1 discriminator 2 view .LVU35
 140 00b4 FEFFFFEB 		bl	chHeapFree
 141              	.LVL19:
 142              		.loc 1 99 3 discriminator 2 view .LVU36
 143 00b8 0500A0E1 		mov	r0, r5
 144 00bc FEFFFFEB 		bl	chHeapFree
 145              	.LVL20:
 146              		.loc 1 100 3 discriminator 2 view .LVU37
 147 00c0 0400A0E1 		mov	r0, r4
 148 00c4 FEFFFFEB 		bl	chHeapFree
 149              	.LVL21:
 150              		.loc 1 101 3 discriminator 2 view .LVU38
 151 00c8 0D10A0E1 		mov	r1, sp
 152 00cc 9C029FE5 		ldr	r0, .L10
 153 00d0 FEFFFFEB 		bl	chHeapStatus
 154              	.LVL22:
 155 00d4 0010A0E1 		mov	r1, r0
 156 00d8 011041E2 		sub	r1, r1, #1
 157 00dc 111F6FE1 		clz	r1, r1
 158 00e0 0300A0E3 		mov	r0, #3
 159 00e4 A112A0E1 		lsr	r1, r1, #5
 160 00e8 FEFFFFEB 		bl	_test_assert
 161              	.LVL23:
 162 00ec 000050E3 		cmp	r0, #0
 163 00f0 D2FFFF1A 		bne	.L1
 164              		.loc 1 101 71 discriminator 2 view .LVU39
 165              		.loc 1 104 3 discriminator 2 view .LVU40
 166              		.loc 1 104 8 is_stmt 0 discriminator 2 view .LVU41
 167 00f4 1010A0E3 		mov	r1, #16
 168 00f8 70029FE5 		ldr	r0, .L10
 169 00fc FEFFFFEB 		bl	chHeapAlloc
 170              	.LVL24:
 171              		.loc 1 105 8 discriminator 2 view .LVU42
ARM GAS  /tmp/ccC5bkFI.s 			page 4


 172 0100 1010A0E3 		mov	r1, #16
 173              		.loc 1 104 8 discriminator 2 view .LVU43
 174 0104 0040A0E1 		mov	r4, r0
 175              	.LVL25:
 176              		.loc 1 105 8 discriminator 2 view .LVU44
 177 0108 60029FE5 		ldr	r0, .L10
 178              	.LVL26:
 179              		.loc 1 105 3 is_stmt 1 discriminator 2 view .LVU45
 180              		.loc 1 105 8 is_stmt 0 discriminator 2 view .LVU46
 181 010c FEFFFFEB 		bl	chHeapAlloc
 182              	.LVL27:
 183 0110 0050A0E1 		mov	r5, r0
 184              	.LVL28:
 185              		.loc 1 106 8 discriminator 2 view .LVU47
 186 0114 1010A0E3 		mov	r1, #16
 187 0118 50029FE5 		ldr	r0, .L10
 188              	.LVL29:
 189              		.loc 1 106 3 is_stmt 1 discriminator 2 view .LVU48
 190              		.loc 1 106 8 is_stmt 0 discriminator 2 view .LVU49
 191 011c FEFFFFEB 		bl	chHeapAlloc
 192              	.LVL30:
 193              		.loc 1 107 3 is_stmt 1 discriminator 2 view .LVU50
 194 0120 FEFFFFEB 		bl	chHeapFree
 195              	.LVL31:
 196              		.loc 1 108 3 discriminator 2 view .LVU51
 197 0124 0500A0E1 		mov	r0, r5
 198 0128 FEFFFFEB 		bl	chHeapFree
 199              	.LVL32:
 200              		.loc 1 109 3 discriminator 2 view .LVU52
 201 012c 0400A0E1 		mov	r0, r4
 202 0130 FEFFFFEB 		bl	chHeapFree
 203              	.LVL33:
 204              		.loc 1 110 3 discriminator 2 view .LVU53
 205 0134 0D10A0E1 		mov	r1, sp
 206 0138 30029FE5 		ldr	r0, .L10
 207 013c FEFFFFEB 		bl	chHeapStatus
 208              	.LVL34:
 209 0140 0010A0E1 		mov	r1, r0
 210 0144 011041E2 		sub	r1, r1, #1
 211 0148 111F6FE1 		clz	r1, r1
 212 014c 0400A0E3 		mov	r0, #4
 213 0150 A112A0E1 		lsr	r1, r1, #5
 214 0154 FEFFFFEB 		bl	_test_assert
 215              	.LVL35:
 216 0158 000050E3 		cmp	r0, #0
 217 015c B7FFFF1A 		bne	.L1
 218              		.loc 1 110 71 discriminator 2 view .LVU54
 219              		.loc 1 113 3 discriminator 2 view .LVU55
 220              		.loc 1 113 8 is_stmt 0 discriminator 2 view .LVU56
 221 0160 1110A0E3 		mov	r1, #17
 222 0164 04029FE5 		ldr	r0, .L10
 223 0168 FEFFFFEB 		bl	chHeapAlloc
 224              	.LVL36:
 225              		.loc 1 114 8 discriminator 2 view .LVU57
 226 016c 1010A0E3 		mov	r1, #16
 227              		.loc 1 113 8 discriminator 2 view .LVU58
 228 0170 0040A0E1 		mov	r4, r0
ARM GAS  /tmp/ccC5bkFI.s 			page 5


 229              	.LVL37:
 230              		.loc 1 114 3 is_stmt 1 discriminator 2 view .LVU59
 231              		.loc 1 114 8 is_stmt 0 discriminator 2 view .LVU60
 232 0174 F4019FE5 		ldr	r0, .L10
 233              	.LVL38:
 234              		.loc 1 114 8 discriminator 2 view .LVU61
 235 0178 FEFFFFEB 		bl	chHeapAlloc
 236              	.LVL39:
 237 017c 0030A0E1 		mov	r3, r0
 238              		.loc 1 115 3 discriminator 2 view .LVU62
 239 0180 0400A0E1 		mov	r0, r4
 240              		.loc 1 114 8 discriminator 2 view .LVU63
 241 0184 0340A0E1 		mov	r4, r3
 242              	.LVL40:
 243              		.loc 1 115 3 is_stmt 1 discriminator 2 view .LVU64
 244 0188 FEFFFFEB 		bl	chHeapFree
 245              	.LVL41:
 246              		.loc 1 116 3 discriminator 2 view .LVU65
 247 018c 0D10A0E1 		mov	r1, sp
 248 0190 D8019FE5 		ldr	r0, .L10
 249 0194 FEFFFFEB 		bl	chHeapStatus
 250              	.LVL42:
 251 0198 0010A0E1 		mov	r1, r0
 252 019c 021041E2 		sub	r1, r1, #2
 253 01a0 111F6FE1 		clz	r1, r1
 254 01a4 0500A0E3 		mov	r0, #5
 255 01a8 A112A0E1 		lsr	r1, r1, #5
 256 01ac FEFFFFEB 		bl	_test_assert
 257              	.LVL43:
 258 01b0 000050E3 		cmp	r0, #0
 259 01b4 A1FFFF1A 		bne	.L1
 260              		.loc 1 116 69 discriminator 2 view .LVU66
 261              		.loc 1 117 3 discriminator 2 view .LVU67
 262              		.loc 1 117 8 is_stmt 0 discriminator 2 view .LVU68
 263 01b8 1010A0E3 		mov	r1, #16
 264 01bc AC019FE5 		ldr	r0, .L10
 265 01c0 FEFFFFEB 		bl	chHeapAlloc
 266              	.LVL44:
 267              		.loc 1 120 3 discriminator 2 view .LVU69
 268 01c4 0D10A0E1 		mov	r1, sp
 269              		.loc 1 117 8 discriminator 2 view .LVU70
 270 01c8 0050A0E1 		mov	r5, r0
 271              		.loc 1 120 3 discriminator 2 view .LVU71
 272 01cc 9C019FE5 		ldr	r0, .L10
 273              	.LVL45:
 274              		.loc 1 120 3 is_stmt 1 discriminator 2 view .LVU72
 275 01d0 FEFFFFEB 		bl	chHeapStatus
 276              	.LVL46:
 277 01d4 010050E3 		cmp	r0, #1
 278 01d8 0010A0E1 		mov	r1, r0
 279 01dc 0500000A 		beq	.L5
 280 01e0 0D10A0E1 		mov	r1, sp
 281 01e4 84019FE5 		ldr	r0, .L10
 282 01e8 FEFFFFEB 		bl	chHeapStatus
 283              	.LVL47:
 284 01ec 021040E2 		sub	r1, r0, #2
 285 01f0 111F6FE1 		clz	r1, r1
ARM GAS  /tmp/ccC5bkFI.s 			page 6


 286 01f4 A112A0E1 		lsr	r1, r1, #5
 287              	.L5:
 288              		.loc 1 120 3 is_stmt 0 discriminator 6 view .LVU73
 289 01f8 0600A0E3 		mov	r0, #6
 290 01fc FEFFFFEB 		bl	_test_assert
 291              	.LVL48:
 292 0200 000050E3 		cmp	r0, #0
 293 0204 8DFFFF1A 		bne	.L1
 294              		.loc 1 121 73 is_stmt 1 view .LVU74
 295              		.loc 1 122 3 view .LVU75
 296 0208 0400A0E1 		mov	r0, r4
 297 020c FEFFFFEB 		bl	chHeapFree
 298              	.LVL49:
 299              		.loc 1 123 3 view .LVU76
 300 0210 0500A0E1 		mov	r0, r5
 301 0214 FEFFFFEB 		bl	chHeapFree
 302              	.LVL50:
 303              		.loc 1 124 3 view .LVU77
 304 0218 0D10A0E1 		mov	r1, sp
 305 021c 4C019FE5 		ldr	r0, .L10
 306 0220 FEFFFFEB 		bl	chHeapStatus
 307              	.LVL51:
 308 0224 0010A0E1 		mov	r1, r0
 309 0228 011041E2 		sub	r1, r1, #1
 310 022c 111F6FE1 		clz	r1, r1
 311 0230 0700A0E3 		mov	r0, #7
 312 0234 A112A0E1 		lsr	r1, r1, #5
 313 0238 FEFFFFEB 		bl	_test_assert
 314              	.LVL52:
 315 023c 000050E3 		cmp	r0, #0
 316 0240 7EFFFF1A 		bne	.L1
 317              		.loc 1 124 71 discriminator 2 view .LVU78
 318              		.loc 1 127 3 discriminator 2 view .LVU79
 319              		.loc 1 127 8 is_stmt 0 discriminator 2 view .LVU80
 320 0244 1010A0E3 		mov	r1, #16
 321 0248 20019FE5 		ldr	r0, .L10
 322 024c FEFFFFEB 		bl	chHeapAlloc
 323              	.LVL53:
 324              		.loc 1 128 8 discriminator 2 view .LVU81
 325 0250 1010A0E3 		mov	r1, #16
 326              		.loc 1 127 8 discriminator 2 view .LVU82
 327 0254 0040A0E1 		mov	r4, r0
 328              	.LVL54:
 329              		.loc 1 128 3 is_stmt 1 discriminator 2 view .LVU83
 330              		.loc 1 128 8 is_stmt 0 discriminator 2 view .LVU84
 331 0258 10019FE5 		ldr	r0, .L10
 332              	.LVL55:
 333              		.loc 1 128 8 discriminator 2 view .LVU85
 334 025c FEFFFFEB 		bl	chHeapAlloc
 335              	.LVL56:
 336 0260 0030A0E1 		mov	r3, r0
 337              		.loc 1 129 3 discriminator 2 view .LVU86
 338 0264 0400A0E1 		mov	r0, r4
 339              		.loc 1 128 8 discriminator 2 view .LVU87
 340 0268 0340A0E1 		mov	r4, r3
 341              	.LVL57:
 342              		.loc 1 129 3 is_stmt 1 discriminator 2 view .LVU88
ARM GAS  /tmp/ccC5bkFI.s 			page 7


 343 026c FEFFFFEB 		bl	chHeapFree
 344              	.LVL58:
 345              		.loc 1 130 3 discriminator 2 view .LVU89
 346 0270 0D10A0E1 		mov	r1, sp
 347 0274 F4009FE5 		ldr	r0, .L10
 348 0278 FEFFFFEB 		bl	chHeapStatus
 349              	.LVL59:
 350 027c 0010A0E1 		mov	r1, r0
 351 0280 021041E2 		sub	r1, r1, #2
 352 0284 111F6FE1 		clz	r1, r1
 353 0288 0800A0E3 		mov	r0, #8
 354 028c A112A0E1 		lsr	r1, r1, #5
 355 0290 FEFFFFEB 		bl	_test_assert
 356              	.LVL60:
 357 0294 000050E3 		cmp	r0, #0
 358 0298 68FFFF1A 		bne	.L1
 359              		.loc 1 130 69 discriminator 2 view .LVU90
 360              		.loc 1 131 3 discriminator 2 view .LVU91
 361              		.loc 1 131 8 is_stmt 0 discriminator 2 view .LVU92
 362 029c 2010A0E3 		mov	r1, #32
 363 02a0 C8009FE5 		ldr	r0, .L10
 364 02a4 FEFFFFEB 		bl	chHeapAlloc
 365              	.LVL61:
 366              		.loc 1 132 3 is_stmt 1 discriminator 2 view .LVU93
 367 02a8 FEFFFFEB 		bl	chHeapFree
 368              	.LVL62:
 369              		.loc 1 133 3 discriminator 2 view .LVU94
 370 02ac 0400A0E1 		mov	r0, r4
 371 02b0 FEFFFFEB 		bl	chHeapFree
 372              	.LVL63:
 373              		.loc 1 134 3 discriminator 2 view .LVU95
 374 02b4 0D10A0E1 		mov	r1, sp
 375 02b8 B0009FE5 		ldr	r0, .L10
 376 02bc FEFFFFEB 		bl	chHeapStatus
 377              	.LVL64:
 378 02c0 0010A0E1 		mov	r1, r0
 379 02c4 011041E2 		sub	r1, r1, #1
 380 02c8 111F6FE1 		clz	r1, r1
 381 02cc 0900A0E3 		mov	r0, #9
 382 02d0 A112A0E1 		lsr	r1, r1, #5
 383 02d4 FEFFFFEB 		bl	_test_assert
 384              	.LVL65:
 385 02d8 000050E3 		cmp	r0, #0
 386 02dc 57FFFF1A 		bne	.L1
 387              		.loc 1 134 71 discriminator 2 view .LVU96
 388              		.loc 1 137 3 discriminator 2 view .LVU97
 389              		.loc 1 137 9 is_stmt 0 discriminator 2 view .LVU98
 390 02e0 0D10A0E1 		mov	r1, sp
 391 02e4 84009FE5 		ldr	r0, .L10
 392 02e8 FEFFFFEB 		bl	chHeapStatus
 393              	.LVL66:
 394              		.loc 1 138 3 is_stmt 1 discriminator 2 view .LVU99
 395              		.loc 1 138 8 is_stmt 0 discriminator 2 view .LVU100
 396 02ec 00109DE5 		ldr	r1, [sp]
 397 02f0 78009FE5 		ldr	r0, .L10
 398 02f4 FEFFFFEB 		bl	chHeapAlloc
 399              	.LVL67:
ARM GAS  /tmp/ccC5bkFI.s 			page 8


 400              		.loc 1 139 3 discriminator 2 view .LVU101
 401 02f8 0D10A0E1 		mov	r1, sp
 402              		.loc 1 138 8 discriminator 2 view .LVU102
 403 02fc 0040A0E1 		mov	r4, r0
 404              	.LVL68:
 405              		.loc 1 139 3 discriminator 2 view .LVU103
 406 0300 68009FE5 		ldr	r0, .L10
 407              	.LVL69:
 408              		.loc 1 139 3 is_stmt 1 discriminator 2 view .LVU104
 409 0304 FEFFFFEB 		bl	chHeapStatus
 410              	.LVL70:
 411 0308 101F6FE1 		clz	r1, r0
 412 030c 0A00A0E3 		mov	r0, #10
 413 0310 A112A0E1 		lsr	r1, r1, #5
 414 0314 FEFFFFEB 		bl	_test_assert
 415              	.LVL71:
 416 0318 000050E3 		cmp	r0, #0
 417 031c 47FFFF1A 		bne	.L1
 418              		.loc 1 139 66 discriminator 2 view .LVU105
 419              		.loc 1 140 3 discriminator 2 view .LVU106
 420 0320 0400A0E1 		mov	r0, r4
 421 0324 FEFFFFEB 		bl	chHeapFree
 422              	.LVL72:
 423              		.loc 1 142 3 discriminator 2 view .LVU107
 424 0328 0D10A0E1 		mov	r1, sp
 425 032c 3C009FE5 		ldr	r0, .L10
 426 0330 FEFFFFEB 		bl	chHeapStatus
 427              	.LVL73:
 428 0334 0010A0E1 		mov	r1, r0
 429 0338 011041E2 		sub	r1, r1, #1
 430 033c 111F6FE1 		clz	r1, r1
 431 0340 0B00A0E3 		mov	r0, #11
 432 0344 A112A0E1 		lsr	r1, r1, #5
 433 0348 FEFFFFEB 		bl	_test_assert
 434              	.LVL74:
 435 034c 000050E3 		cmp	r0, #0
 436 0350 3AFFFF1A 		bne	.L1
 437              		.loc 1 142 72 discriminator 2 view .LVU108
 438              		.loc 1 143 3 discriminator 2 view .LVU109
 439 0354 0A009DE8 		ldm	sp, {r1, r3}
 440 0358 031041E0 		sub	r1, r1, r3
 441 035c 111F6FE1 		clz	r1, r1
 442 0360 0C00A0E3 		mov	r0, #12
 443 0364 A112A0E1 		lsr	r1, r1, #5
 444 0368 FEFFFFEB 		bl	_test_assert
 445              	.LVL75:
 446              		.loc 1 143 3 discriminator 2 view .LVU110
 447 036c 33FFFFEA 		b	.L1
 448              	.L11:
 449              		.align	2
 450              	.L10:
 451 0370 00000000 		.word	.LANCHOR0
 452              		.cfi_endproc
 453              	.LFE8:
 454              		.size	heap1_execute, .-heap1_execute
 455              		.section	.text.heap1_setup,"ax",%progbits
 456              		.align	2
ARM GAS  /tmp/ccC5bkFI.s 			page 9


 457              		.syntax unified
 458              		.arm
 459              		.fpu softvfp
 460              		.type	heap1_setup, %function
 461              	heap1_setup:
 462              	.LFB7:
 463              		.loc 1 68 31 view -0
 464              		.cfi_startproc
 465              		@ args = 0, pretend = 0, frame = 0
 466              		@ frame_needed = 0, uses_anonymous_args = 0
 467              		@ link register save eliminated.
 468              		.loc 1 70 3 view .LVU112
 469 0000 08209FE5 		ldr	r2, .L13
 470 0004 08109FE5 		ldr	r1, .L13+4
 471 0008 08009FE5 		ldr	r0, .L13+8
 472 000c FEFFFFEA 		b	chHeapInit
 473              	.LVL76:
 474              	.L14:
 475              		.align	2
 476              	.L13:
 477 0010 78050000 		.word	1400
 478 0014 00000000 		.word	test
 479 0018 00000000 		.word	.LANCHOR0
 480              		.cfi_endproc
 481              	.LFE7:
 482              		.size	heap1_setup, .-heap1_setup
 483              		.global	patternheap
 484              		.global	testheap1
 485              		.section	.rodata.str1.4,"aMS",%progbits,1
 486              		.align	2
 487              	.LC0:
 488 0000 48656170 		.ascii	"Heap, allocation and fragmentation test\000"
 488      2C20616C 
 488      6C6F6361 
 488      74696F6E 
 488      20616E64 
 489              		.section	.bss.test_heap,"aw",%nobits
 490              		.align	2
 491              		.set	.LANCHOR0,. + 0
 492              		.type	test_heap, %object
 493              		.size	test_heap, 28
 494              	test_heap:
 495 0000 00000000 		.space	28
 495      00000000 
 495      00000000 
 495      00000000 
 495      00000000 
 496              		.section	.rodata.patternheap,"a"
 497              		.align	2
 498              		.type	patternheap, %object
 499              		.size	patternheap, 8
 500              	patternheap:
 501 0000 00000000 		.word	testheap1
 502 0004 00000000 		.word	0
 503              		.section	.rodata.testheap1,"a"
 504              		.align	2
 505              		.type	testheap1, %object
ARM GAS  /tmp/ccC5bkFI.s 			page 10


 506              		.size	testheap1, 16
 507              	testheap1:
 508 0000 00000000 		.word	.LC0
 509 0004 00000000 		.word	heap1_setup
 510 0008 00000000 		.word	0
 511 000c 00000000 		.word	heap1_execute
 512              		.text
 513              	.Letext0:
 514              		.file 2 "/usr/lib/gcc/arm-none-eabi/9.2.1/include/stddef.h"
 515              		.file 3 "/usr/lib/gcc/arm-none-eabi/9.2.1/include/stdint.h"
 516              		.file 4 "../os/ports/GCC/ARM/chtypes.h"
 517              		.file 5 "../os/kernel/include/chlists.h"
 518              		.file 6 "../os/kernel/include/chthreads.h"
 519              		.file 7 "../os/ports/GCC/ARM/chcore.h"
 520              		.file 8 "../os/kernel/include/chvt.h"
 521              		.file 9 "../os/kernel/include/chschd.h"
 522              		.file 10 "../os/kernel/include/chmtx.h"
 523              		.file 11 "../os/kernel/include/chmemcore.h"
 524              		.file 12 "../os/kernel/include/chheap.h"
 525              		.file 13 "../os/kernel/include/chregistry.h"
 526              		.file 14 "../os/kernel/include/ch.h"
 527              		.file 15 "../test/test.h"