ARM GAS  /tmp/ccWCcJ4h.s 			page 1


   1              		.cpu arm1176jz-s
   2              		.eabi_attribute 20, 1
   3              		.eabi_attribute 21, 1
   4              		.eabi_attribute 23, 3
   5              		.eabi_attribute 24, 1
   6              		.eabi_attribute 25, 1
   7              		.eabi_attribute 26, 1
   8              		.eabi_attribute 30, 2
   9              		.eabi_attribute 34, 1
  10              		.eabi_attribute 18, 4
  11              		.file	"testdyn.c"
  12              		.text
  13              	.Ltext0:
  14              		.cfi_sections	.debug_frame
  15              		.section	.rodata.dyn1_execute.str1.4,"aMS",%progbits,1
  16              		.align	2
  17              	.LC0:
  18 0000 4100     		.ascii	"A\000"
  19 0002 0000     		.align	2
  20              	.LC1:
  21 0004 4200     		.ascii	"B\000"
  22 0006 0000     		.align	2
  23              	.LC2:
  24 0008 4300     		.ascii	"C\000"
  25 000a 0000     		.align	2
  26              	.LC3:
  27 000c 414200   		.ascii	"AB\000"
  28              		.section	.text.dyn1_execute,"ax",%progbits
  29              		.align	2
  30              		.arch armv6kz
  31              		.syntax unified
  32              		.arm
  33              		.fpu softvfp
  34              		.type	dyn1_execute, %function
  35              	dyn1_execute:
  36              	.LFB9:
  37              		.file 1 "../test/testdyn.c"
  38              		.loc 1 87 32 view -0
  39              		.cfi_startproc
  40              		@ args = 0, pretend = 0, frame = 8
  41              		@ frame_needed = 0, uses_anonymous_args = 0
  42              		.loc 1 88 3 view .LVU1
  43              		.loc 1 89 3 view .LVU2
  44              		.loc 1 90 3 view .LVU3
  45              		.loc 1 87 32 is_stmt 0 view .LVU4
  46 0000 30402DE9 		push	{r4, r5, lr}
  47              		.cfi_def_cfa_offset 12
  48              		.cfi_offset 4, -12
  49              		.cfi_offset 5, -8
  50              		.cfi_offset 14, -4
  51              		.loc 1 90 18 view .LVU5
  52 0004 64319FE5 		ldr	r3, .L14
  53              		.loc 1 87 32 view .LVU6
  54 0008 14D04DE2 		sub	sp, sp, #20
  55              		.cfi_def_cfa_offset 32
  56              		.loc 1 90 11 view .LVU7
  57 000c 183093E5 		ldr	r3, [r3, #24]
ARM GAS  /tmp/ccWCcJ4h.s 			page 2


  58              		.loc 1 92 9 view .LVU8
  59 0010 0C108DE2 		add	r1, sp, #12
  60 0014 58019FE5 		ldr	r0, .L14+4
  61              		.loc 1 90 11 view .LVU9
  62 0018 085093E5 		ldr	r5, [r3, #8]
  63              	.LVL0:
  64              		.loc 1 92 3 is_stmt 1 view .LVU10
  65              		.loc 1 92 9 is_stmt 0 view .LVU11
  66 001c FEFFFFEB 		bl	chHeapStatus
  67              	.LVL1:
  68              		.loc 1 94 3 is_stmt 1 view .LVU12
  69              		.loc 1 94 16 is_stmt 0 view .LVU13
  70 0020 50319FE5 		ldr	r3, .L14+8
  71 0024 012045E2 		sub	r2, r5, #1
  72 0028 461FA0E3 		mov	r1, #280
  73 002c 00308DE5 		str	r3, [sp]
  74 0030 3C019FE5 		ldr	r0, .L14+4
  75 0034 40319FE5 		ldr	r3, .L14+12
  76 0038 FEFFFFEB 		bl	chThdCreateFromHeap
  77              	.LVL2:
  78 003c 00C0A0E1 		mov	ip, r0
  79              		.loc 1 96 16 view .LVU14
  80 0040 38319FE5 		ldr	r3, .L14+16
  81              		.loc 1 94 14 view .LVU15
  82 0044 38419FE5 		ldr	r4, .L14+20
  83              		.loc 1 96 16 view .LVU16
  84 0048 022045E2 		sub	r2, r5, #2
  85 004c 461FA0E3 		mov	r1, #280
  86 0050 00308DE5 		str	r3, [sp]
  87 0054 18019FE5 		ldr	r0, .L14+4
  88 0058 1C319FE5 		ldr	r3, .L14+12
  89              		.loc 1 94 14 view .LVU17
  90 005c 00C084E5 		str	ip, [r4]
  91              		.loc 1 96 3 is_stmt 1 view .LVU18
  92              		.loc 1 96 16 is_stmt 0 view .LVU19
  93 0060 FEFFFFEB 		bl	chThdCreateFromHeap
  94              	.LVL3:
  95 0064 0030A0E1 		mov	r3, r0
  96              		.loc 1 99 9 view .LVU20
  97 0068 08108DE2 		add	r1, sp, #8
  98 006c 00019FE5 		ldr	r0, .L14+4
  99              		.loc 1 96 14 view .LVU21
 100 0070 043084E5 		str	r3, [r4, #4]
 101              		.loc 1 99 3 is_stmt 1 view .LVU22
 102              		.loc 1 99 9 is_stmt 0 view .LVU23
 103 0074 FEFFFFEB 		bl	chHeapStatus
 104              	.LVL4:
 105              		.loc 1 100 3 is_stmt 1 view .LVU24
 106              		.loc 1 100 8 is_stmt 0 view .LVU25
 107 0078 08109DE5 		ldr	r1, [sp, #8]
 108 007c F0009FE5 		ldr	r0, .L14+4
 109 0080 FEFFFFEB 		bl	chHeapAlloc
 110              	.LVL5:
 111              		.loc 1 101 16 view .LVU26
 112 0084 FC309FE5 		ldr	r3, .L14+24
 113 0088 461FA0E3 		mov	r1, #280
 114 008c 032045E2 		sub	r2, r5, #3
ARM GAS  /tmp/ccWCcJ4h.s 			page 3


 115 0090 00308DE5 		str	r3, [sp]
 116              		.loc 1 100 8 view .LVU27
 117 0094 0050A0E1 		mov	r5, r0
 118              	.LVL6:
 119              		.loc 1 101 3 is_stmt 1 view .LVU28
 120              		.loc 1 101 16 is_stmt 0 view .LVU29
 121 0098 DC309FE5 		ldr	r3, .L14+12
 122 009c D0009FE5 		ldr	r0, .L14+4
 123              	.LVL7:
 124              		.loc 1 101 16 view .LVU30
 125 00a0 FEFFFFEB 		bl	chThdCreateFromHeap
 126              	.LVL8:
 127              		.loc 1 101 16 view .LVU31
 128 00a4 0030A0E1 		mov	r3, r0
 129              		.loc 1 103 3 view .LVU32
 130 00a8 0500A0E1 		mov	r0, r5
 131              		.loc 1 101 14 view .LVU33
 132 00ac 083084E5 		str	r3, [r4, #8]
 133              		.loc 1 103 3 is_stmt 1 view .LVU34
 134 00b0 FEFFFFEB 		bl	chHeapFree
 135              	.LVL9:
 136              		.loc 1 105 3 view .LVU35
 137 00b4 001094E5 		ldr	r1, [r4]
 138 00b8 000051E3 		cmp	r1, #0
 139 00bc 0600000A 		beq	.L2
 140              		.loc 1 105 3 is_stmt 0 discriminator 1 view .LVU36
 141 00c0 041094E5 		ldr	r1, [r4, #4]
 142 00c4 000051E3 		cmp	r1, #0
 143 00c8 0300000A 		beq	.L2
 144              		.loc 1 105 3 discriminator 3 view .LVU37
 145 00cc 081094E5 		ldr	r1, [r4, #8]
 146 00d0 000051E3 		cmp	r1, #0
 147 00d4 0010A013 		movne	r1, #0
 148 00d8 1E00000A 		beq	.L12
 149              	.L2:
 150              		.loc 1 105 3 discriminator 12 view .LVU38
 151 00dc 0100A0E3 		mov	r0, #1
 152 00e0 FEFFFFEB 		bl	_test_assert
 153              	.LVL10:
 154 00e4 000050E3 		cmp	r0, #0
 155 00e8 0100000A 		beq	.L13
 156              	.L1:
 157              		.loc 1 119 1 view .LVU39
 158 00ec 14D08DE2 		add	sp, sp, #20
 159              		.cfi_remember_state
 160              		.cfi_def_cfa_offset 12
 161              		@ sp needed
 162 00f0 3080BDE8 		pop	{r4, r5, pc}
 163              	.LVL11:
 164              	.L13:
 165              		.cfi_restore_state
 166              		.loc 1 110 43 is_stmt 1 view .LVU40
 167              		.loc 1 113 3 view .LVU41
 168 00f4 FEFFFFEB 		bl	test_wait_threads
 169              	.LVL12:
 170              		.loc 1 114 3 view .LVU42
 171 00f8 0200A0E3 		mov	r0, #2
ARM GAS  /tmp/ccWCcJ4h.s 			page 4


 172 00fc 88109FE5 		ldr	r1, .L14+28
 173 0100 FEFFFFEB 		bl	_test_assert_sequence
 174              	.LVL13:
 175 0104 000050E3 		cmp	r0, #0
 176 0108 F7FFFF1A 		bne	.L1
 177              		.loc 1 114 32 discriminator 2 view .LVU43
 178              		.loc 1 117 3 discriminator 2 view .LVU44
 179 010c 08108DE2 		add	r1, sp, #8
 180 0110 5C009FE5 		ldr	r0, .L14+4
 181 0114 FEFFFFEB 		bl	chHeapStatus
 182              	.LVL14:
 183 0118 0010A0E1 		mov	r1, r0
 184 011c 011041E2 		sub	r1, r1, #1
 185 0120 111F6FE1 		clz	r1, r1
 186 0124 0300A0E3 		mov	r0, #3
 187 0128 A112A0E1 		lsr	r1, r1, #5
 188 012c FEFFFFEB 		bl	_test_assert
 189              	.LVL15:
 190 0130 000050E3 		cmp	r0, #0
 191 0134 ECFFFF1A 		bne	.L1
 192              		.loc 1 117 67 discriminator 2 view .LVU45
 193              		.loc 1 118 3 discriminator 2 view .LVU46
 194 0138 08109DE5 		ldr	r1, [sp, #8]
 195 013c 0C309DE5 		ldr	r3, [sp, #12]
 196 0140 0400A0E3 		mov	r0, #4
 197 0144 031041E0 		sub	r1, r1, r3
 198 0148 111F6FE1 		clz	r1, r1
 199 014c A112A0E1 		lsr	r1, r1, #5
 200 0150 FEFFFFEB 		bl	_test_assert
 201              	.LVL16:
 202              		.loc 1 118 3 discriminator 2 view .LVU47
 203 0154 E4FFFFEA 		b	.L1
 204              	.L12:
 205              		.loc 1 105 3 is_stmt 0 discriminator 5 view .LVU48
 206 0158 0C3094E5 		ldr	r3, [r4, #12]
 207 015c 000053E3 		cmp	r3, #0
 208 0160 10109405 		ldreq	r1, [r4, #16]
 209 0164 111F6F01 		clzeq	r1, r1
 210 0168 A112A001 		lsreq	r1, r1, #5
 211 016c DAFFFFEA 		b	.L2
 212              	.L15:
 213              		.align	2
 214              	.L14:
 215 0170 00000000 		.word	rlist
 216 0174 00000000 		.word	.LANCHOR0
 217 0178 00000000 		.word	.LC0
 218 017c 00000000 		.word	thread
 219 0180 04000000 		.word	.LC1
 220 0184 00000000 		.word	threads
 221 0188 08000000 		.word	.LC2
 222 018c 0C000000 		.word	.LC3
 223              		.cfi_endproc
 224              	.LFE9:
 225              		.size	dyn1_execute, .-dyn1_execute
 226              		.section	.text.thread,"ax",%progbits
 227              		.align	2
 228              		.syntax unified
ARM GAS  /tmp/ccWCcJ4h.s 			page 5


 229              		.arm
 230              		.fpu softvfp
 231              		.type	thread, %function
 232              	thread:
 233              	.LVL17:
 234              	.LFB7:
 235              		.loc 1 75 30 is_stmt 1 view -0
 236              		.cfi_startproc
 237              		@ args = 0, pretend = 0, frame = 0
 238              		@ frame_needed = 0, uses_anonymous_args = 0
 239              		.loc 1 77 3 view .LVU50
 240              		.loc 1 75 30 is_stmt 0 view .LVU51
 241 0000 10402DE9 		push	{r4, lr}
 242              		.cfi_def_cfa_offset 8
 243              		.cfi_offset 4, -8
 244              		.cfi_offset 14, -4
 245              		.loc 1 77 3 view .LVU52
 246 0004 0000D0E5 		ldrb	r0, [r0]	@ zero_extendqisi2
 247              	.LVL18:
 248              		.loc 1 77 3 view .LVU53
 249 0008 FEFFFFEB 		bl	test_emit_token
 250              	.LVL19:
 251              		.loc 1 78 3 is_stmt 1 view .LVU54
 252              		.loc 1 79 1 is_stmt 0 view .LVU55
 253 000c 0000A0E3 		mov	r0, #0
 254 0010 1080BDE8 		pop	{r4, pc}
 255              		.cfi_endproc
 256              	.LFE7:
 257              		.size	thread, .-thread
 258              		.section	.text.dyn1_setup,"ax",%progbits
 259              		.align	2
 260              		.syntax unified
 261              		.arm
 262              		.fpu softvfp
 263              		.type	dyn1_setup, %function
 264              	dyn1_setup:
 265              	.LFB8:
 266              		.loc 1 82 30 is_stmt 1 view -0
 267              		.cfi_startproc
 268              		@ args = 0, pretend = 0, frame = 0
 269              		@ frame_needed = 0, uses_anonymous_args = 0
 270              		@ link register save eliminated.
 271              		.loc 1 84 3 view .LVU57
 272 0000 08209FE5 		ldr	r2, .L19
 273 0004 08109FE5 		ldr	r1, .L19+4
 274 0008 08009FE5 		ldr	r0, .L19+8
 275 000c FEFFFFEA 		b	chHeapInit
 276              	.LVL20:
 277              	.L20:
 278              		.align	2
 279              	.L19:
 280 0010 78050000 		.word	1400
 281 0014 00000000 		.word	test
 282 0018 00000000 		.word	.LANCHOR0
 283              		.cfi_endproc
 284              	.LFE8:
 285              		.size	dyn1_setup, .-dyn1_setup
ARM GAS  /tmp/ccWCcJ4h.s 			page 6


 286              		.section	.text.dyn3_setup,"ax",%progbits
 287              		.align	2
 288              		.syntax unified
 289              		.arm
 290              		.fpu softvfp
 291              		.type	dyn3_setup, %function
 292              	dyn3_setup:
 293              	.LFB14:
 294              		.cfi_startproc
 295              		@ args = 0, pretend = 0, frame = 0
 296              		@ frame_needed = 0, uses_anonymous_args = 0
 297              		@ link register save eliminated.
 298 0000 FEFFFFEA 		b	dyn1_setup
 299              		.cfi_endproc
 300              	.LFE14:
 301              		.size	dyn3_setup, .-dyn3_setup
 302              		.section	.text.regfind,"ax",%progbits
 303              		.align	2
 304              		.syntax unified
 305              		.arm
 306              		.fpu softvfp
 307              		.type	regfind, %function
 308              	regfind:
 309              	.LVL21:
 310              	.LFB10:
 311              		.loc 1 195 35 view -0
 312              		.cfi_startproc
 313              		@ args = 0, pretend = 0, frame = 0
 314              		@ frame_needed = 0, uses_anonymous_args = 0
 315              		.loc 1 196 3 view .LVU59
 316              		.loc 1 197 3 view .LVU60
 317              		.loc 1 199 3 view .LVU61
 318              		.loc 1 195 35 is_stmt 0 view .LVU62
 319 0000 70402DE9 		push	{r4, r5, r6, lr}
 320              		.cfi_def_cfa_offset 16
 321              		.cfi_offset 4, -16
 322              		.cfi_offset 5, -12
 323              		.cfi_offset 6, -8
 324              		.cfi_offset 14, -4
 325              		.loc 1 195 35 view .LVU63
 326 0004 0050A0E1 		mov	r5, r0
 327              		.loc 1 197 10 view .LVU64
 328 0008 0040A0E3 		mov	r4, #0
 329              		.loc 1 199 9 view .LVU65
 330 000c FEFFFFEB 		bl	chRegFirstThread
 331              	.LVL22:
 332              	.L23:
 333              		.loc 1 200 3 is_stmt 1 discriminator 1 view .LVU66
 334              		.loc 1 201 5 discriminator 1 view .LVU67
 335              		.loc 1 201 11 is_stmt 0 discriminator 1 view .LVU68
 336 0010 050050E1 		cmp	r0, r5
 337 0014 01408403 		orreq	r4, r4, #1
 338              	.LVL23:
 339              		.loc 1 202 5 is_stmt 1 discriminator 1 view .LVU69
 340              		.loc 1 202 11 is_stmt 0 discriminator 1 view .LVU70
 341 0018 FEFFFFEB 		bl	chRegNextThread
 342              	.LVL24:
ARM GAS  /tmp/ccWCcJ4h.s 			page 7


 343              		.loc 1 203 11 is_stmt 1 discriminator 1 view .LVU71
 344              		.loc 1 203 3 is_stmt 0 discriminator 1 view .LVU72
 345 001c 000050E3 		cmp	r0, #0
 346              		.loc 1 203 3 discriminator 1 view .LVU73
 347 0020 FAFFFF1A 		bne	.L23
 348              		.loc 1 204 3 is_stmt 1 view .LVU74
 349              		.loc 1 205 1 is_stmt 0 view .LVU75
 350 0024 0400A0E1 		mov	r0, r4
 351              	.LVL25:
 352              		.loc 1 205 1 view .LVU76
 353 0028 7080BDE8 		pop	{r4, r5, r6, pc}
 354              		.cfi_endproc
 355              	.LFE10:
 356              		.size	regfind, .-regfind
 357              		.section	.text.dyn3_execute,"ax",%progbits
 358              		.align	2
 359              		.syntax unified
 360              		.arm
 361              		.fpu softvfp
 362              		.type	dyn3_execute, %function
 363              	dyn3_execute:
 364              	.LFB12:
 365              		.loc 1 212 32 is_stmt 1 view -0
 366              		.cfi_startproc
 367              		@ args = 0, pretend = 0, frame = 0
 368              		@ frame_needed = 0, uses_anonymous_args = 0
 369              		.loc 1 213 3 view .LVU78
 370              		.loc 1 214 3 view .LVU79
 371              	.LVL26:
 372              		.loc 1 217 3 view .LVU80
 373              		.loc 1 212 32 is_stmt 0 view .LVU81
 374 0000 10402DE9 		push	{r4, lr}
 375              		.cfi_def_cfa_offset 8
 376              		.cfi_offset 4, -8
 377              		.cfi_offset 14, -4
 378              		.loc 1 214 18 view .LVU82
 379 0004 B4319FE5 		ldr	r3, .L32
 380              		.loc 1 217 8 view .LVU83
 381 0008 B4019FE5 		ldr	r0, .L32+4
 382              		.loc 1 214 11 view .LVU84
 383 000c 182093E5 		ldr	r2, [r3, #24]
 384              		.loc 1 212 32 view .LVU85
 385 0010 08D04DE2 		sub	sp, sp, #8
 386              		.cfi_def_cfa_offset 16
 387              		.loc 1 217 8 view .LVU86
 388 0014 082092E5 		ldr	r2, [r2, #8]
 389 0018 461FA0E3 		mov	r1, #280
 390 001c A4319FE5 		ldr	r3, .L32+8
 391 0020 012042E2 		sub	r2, r2, #1
 392 0024 00008DE5 		str	r0, [sp]
 393              	.LVL27:
 394              		.loc 1 217 8 view .LVU87
 395 0028 9C019FE5 		ldr	r0, .L32+12
 396 002c FEFFFFEB 		bl	chThdCreateFromHeap
 397              	.LVL28:
 398              		.loc 1 218 3 view .LVU88
 399 0030 1E10D0E5 		ldrb	r1, [r0, #30]	@ zero_extendqisi2
ARM GAS  /tmp/ccWCcJ4h.s 			page 8


 400              		.loc 1 217 8 view .LVU89
 401 0034 0040A0E1 		mov	r4, r0
 402              	.LVL29:
 403              		.loc 1 218 3 is_stmt 1 view .LVU90
 404 0038 0100A0E3 		mov	r0, #1
 405              	.LVL30:
 406              		.loc 1 218 3 is_stmt 0 view .LVU91
 407 003c 001041E0 		sub	r1, r1, r0
 408 0040 111F6FE1 		clz	r1, r1
 409 0044 A112A0E1 		lsr	r1, r1, #5
 410 0048 FEFFFFEB 		bl	_test_assert
 411              	.LVL31:
 412 004c 000050E3 		cmp	r0, #0
 413 0050 0100000A 		beq	.L31
 414              	.L26:
 415              		.loc 1 240 1 view .LVU92
 416 0054 08D08DE2 		add	sp, sp, #8
 417              		.cfi_remember_state
 418              		.cfi_def_cfa_offset 8
 419              		@ sp needed
 420 0058 1080BDE8 		pop	{r4, pc}
 421              	.LVL32:
 422              	.L31:
 423              		.cfi_restore_state
 424              		.loc 1 218 69 is_stmt 1 discriminator 2 view .LVU93
 425              		.loc 1 219 3 discriminator 2 view .LVU94
 426 005c 0400A0E1 		mov	r0, r4
 427 0060 FEFFFFEB 		bl	chThdAddRef
 428              	.LVL33:
 429              		.loc 1 220 3 discriminator 2 view .LVU95
 430 0064 0200A0E3 		mov	r0, #2
 431 0068 1E10D4E5 		ldrb	r1, [r4, #30]	@ zero_extendqisi2
 432 006c 001041E0 		sub	r1, r1, r0
 433 0070 111F6FE1 		clz	r1, r1
 434 0074 A112A0E1 		lsr	r1, r1, #5
 435 0078 FEFFFFEB 		bl	_test_assert
 436              	.LVL34:
 437 007c 000050E3 		cmp	r0, #0
 438 0080 F3FFFF1A 		bne	.L26
 439              		.loc 1 220 65 discriminator 2 view .LVU96
 440              		.loc 1 221 3 discriminator 2 view .LVU97
 441 0084 0400A0E1 		mov	r0, r4
 442 0088 FEFFFFEB 		bl	chThdRelease
 443              	.LVL35:
 444              		.loc 1 222 3 discriminator 2 view .LVU98
 445 008c 1E10D4E5 		ldrb	r1, [r4, #30]	@ zero_extendqisi2
 446 0090 0300A0E3 		mov	r0, #3
 447 0094 011041E2 		sub	r1, r1, #1
 448 0098 111F6FE1 		clz	r1, r1
 449 009c A112A0E1 		lsr	r1, r1, #5
 450 00a0 FEFFFFEB 		bl	_test_assert
 451              	.LVL36:
 452 00a4 000050E3 		cmp	r0, #0
 453 00a8 E9FFFF1A 		bne	.L26
 454              		.loc 1 222 65 discriminator 2 view .LVU99
 455              		.loc 1 225 3 discriminator 2 view .LVU100
 456 00ac 0400A0E1 		mov	r0, r4
ARM GAS  /tmp/ccWCcJ4h.s 			page 9


 457 00b0 FEFFFFEB 		bl	regfind
 458              	.LVL37:
 459 00b4 0010A0E1 		mov	r1, r0
 460 00b8 0400A0E3 		mov	r0, #4
 461 00bc FEFFFFEB 		bl	_test_assert
 462              	.LVL38:
 463 00c0 000050E3 		cmp	r0, #0
 464 00c4 E2FFFF1A 		bne	.L26
 465              		.loc 1 225 62 discriminator 2 view .LVU101
 466              		.loc 1 226 3 discriminator 2 view .LVU102
 467 00c8 0400A0E1 		mov	r0, r4
 468 00cc FEFFFFEB 		bl	regfind
 469              	.LVL39:
 470 00d0 0010A0E1 		mov	r1, r0
 471 00d4 0500A0E3 		mov	r0, #5
 472 00d8 FEFFFFEB 		bl	_test_assert
 473              	.LVL40:
 474 00dc 000050E3 		cmp	r0, #0
 475 00e0 DBFFFF1A 		bne	.L26
 476              		.loc 1 226 52 discriminator 2 view .LVU103
 477              		.loc 1 229 3 discriminator 2 view .LVU104
 478 00e4 0400A0E1 		mov	r0, r4
 479 00e8 FEFFFFEB 		bl	chThdRelease
 480              	.LVL41:
 481              		.loc 1 230 3 discriminator 2 view .LVU105
 482 00ec 1E10D4E5 		ldrb	r1, [r4, #30]	@ zero_extendqisi2
 483 00f0 0600A0E3 		mov	r0, #6
 484 00f4 111F6FE1 		clz	r1, r1
 485 00f8 A112A0E1 		lsr	r1, r1, #5
 486 00fc FEFFFFEB 		bl	_test_assert
 487              	.LVL42:
 488 0100 000050E3 		cmp	r0, #0
 489 0104 D2FFFF1A 		bne	.L26
 490              		.loc 1 230 52 discriminator 2 view .LVU106
 491              		.loc 1 231 3 discriminator 2 view .LVU107
 492 0108 1C10D4E5 		ldrb	r1, [r4, #28]	@ zero_extendqisi2
 493 010c 0700A0E3 		mov	r0, #7
 494 0110 111F6FE1 		clz	r1, r1
 495 0114 A112A0E1 		lsr	r1, r1, #5
 496 0118 FEFFFFEB 		bl	_test_assert
 497              	.LVL43:
 498 011c 000050E3 		cmp	r0, #0
 499 0120 CBFFFF1A 		bne	.L26
 500              		.loc 1 231 66 discriminator 2 view .LVU108
 501              		.loc 1 232 3 discriminator 2 view .LVU109
 502 0124 0400A0E1 		mov	r0, r4
 503 0128 FEFFFFEB 		bl	regfind
 504              	.LVL44:
 505 012c 0010A0E1 		mov	r1, r0
 506 0130 0800A0E3 		mov	r0, #8
 507 0134 FEFFFFEB 		bl	_test_assert
 508              	.LVL45:
 509 0138 000050E3 		cmp	r0, #0
 510 013c C4FFFF1A 		bne	.L26
 511              		.loc 1 232 52 discriminator 2 view .LVU110
 512              		.loc 1 233 3 discriminator 2 view .LVU111
 513 0140 0400A0E1 		mov	r0, r4
ARM GAS  /tmp/ccWCcJ4h.s 			page 10


 514 0144 FEFFFFEB 		bl	regfind
 515              	.LVL46:
 516 0148 0010A0E1 		mov	r1, r0
 517 014c 0900A0E3 		mov	r0, #9
 518 0150 FEFFFFEB 		bl	_test_assert
 519              	.LVL47:
 520 0154 000050E3 		cmp	r0, #0
 521 0158 BDFFFF1A 		bne	.L26
 522              		.loc 1 233 52 discriminator 2 view .LVU112
 523              		.loc 1 234 3 discriminator 2 view .LVU113
 524 015c 3200A0E3 		mov	r0, #50
 525 0160 FEFFFFEB 		bl	chThdSleep
 526              	.LVL48:
 527              		.loc 1 235 3 discriminator 2 view .LVU114
 528 0164 1C10D4E5 		ldrb	r1, [r4, #28]	@ zero_extendqisi2
 529 0168 0A00A0E3 		mov	r0, #10
 530 016c 0E1041E2 		sub	r1, r1, #14
 531 0170 111F6FE1 		clz	r1, r1
 532 0174 A112A0E1 		lsr	r1, r1, #5
 533 0178 FEFFFFEB 		bl	_test_assert
 534              	.LVL49:
 535 017c 000050E3 		cmp	r0, #0
 536 0180 B3FFFF1A 		bne	.L26
 537              		.loc 1 235 67 discriminator 2 view .LVU115
 538              		.loc 1 238 3 discriminator 2 view .LVU116
 539 0184 0400A0E1 		mov	r0, r4
 540 0188 FEFFFFEB 		bl	regfind
 541              	.LVL50:
 542 018c 0010A0E1 		mov	r1, r0
 543 0190 0B00A0E3 		mov	r0, #11
 544 0194 FEFFFFEB 		bl	_test_assert
 545              	.LVL51:
 546 0198 000050E3 		cmp	r0, #0
 547 019c ACFFFF1A 		bne	.L26
 548              		.loc 1 238 53 discriminator 2 view .LVU117
 549              		.loc 1 239 3 discriminator 2 view .LVU118
 550 01a0 0400A0E1 		mov	r0, r4
 551 01a4 FEFFFFEB 		bl	regfind
 552              	.LVL52:
 553 01a8 101F6FE1 		clz	r1, r0
 554 01ac 0C00A0E3 		mov	r0, #12
 555 01b0 A112A0E1 		lsr	r1, r1, #5
 556              		.loc 1 240 1 is_stmt 0 discriminator 2 view .LVU119
 557 01b4 08D08DE2 		add	sp, sp, #8
 558              		.cfi_def_cfa_offset 8
 559              		@ sp needed
 560 01b8 1040BDE8 		pop	{r4, lr}
 561              		.cfi_restore 14
 562              		.cfi_restore 4
 563              		.cfi_def_cfa_offset 0
 564              	.LVL53:
 565              		.loc 1 239 3 discriminator 2 view .LVU120
 566 01bc FEFFFFEA 		b	_test_assert
 567              	.LVL54:
 568              	.L33:
 569              		.align	2
 570              	.L32:
ARM GAS  /tmp/ccWCcJ4h.s 			page 11


 571 01c0 00000000 		.word	rlist
 572 01c4 00000000 		.word	.LC0
 573 01c8 00000000 		.word	thread
 574 01cc 00000000 		.word	.LANCHOR0
 575              		.cfi_endproc
 576              	.LFE12:
 577              		.size	dyn3_execute, .-dyn3_execute
 578              		.global	patterndyn
 579              		.global	testdyn3
 580              		.section	.rodata.str1.4,"aMS",%progbits,1
 581              		.align	2
 582              	.LC4:
 583 0000 44796E61 		.ascii	"Dynamic APIs, registry and references\000"
 583      6D696320 
 583      41504973 
 583      2C207265 
 583      67697374 
 584              		.global	testdyn1
 585 0026 0000     		.align	2
 586              	.LC5:
 587 0028 44796E61 		.ascii	"Dynamic APIs, threads creation from heap\000"
 587      6D696320 
 587      41504973 
 587      2C207468 
 587      72656164 
 588              		.section	.bss.heap1,"aw",%nobits
 589              		.align	2
 590              		.set	.LANCHOR0,. + 0
 591              		.type	heap1, %object
 592              		.size	heap1, 28
 593              	heap1:
 594 0000 00000000 		.space	28
 594      00000000 
 594      00000000 
 594      00000000 
 594      00000000 
 595              		.section	.rodata.patterndyn,"a"
 596              		.align	2
 597              		.type	patterndyn, %object
 598              		.size	patterndyn, 12
 599              	patterndyn:
 600 0000 00000000 		.word	testdyn1
 601 0004 00000000 		.word	testdyn3
 602 0008 00000000 		.word	0
 603              		.section	.rodata.testdyn1,"a"
 604              		.align	2
 605              		.type	testdyn1, %object
 606              		.size	testdyn1, 16
 607              	testdyn1:
 608 0000 28000000 		.word	.LC5
 609 0004 00000000 		.word	dyn1_setup
 610 0008 00000000 		.word	0
 611 000c 00000000 		.word	dyn1_execute
 612              		.section	.rodata.testdyn3,"a"
 613              		.align	2
 614              		.type	testdyn3, %object
 615              		.size	testdyn3, 16
ARM GAS  /tmp/ccWCcJ4h.s 			page 12


 616              	testdyn3:
 617 0000 00000000 		.word	.LC4
 618 0004 00000000 		.word	dyn3_setup
 619 0008 00000000 		.word	0
 620 000c 00000000 		.word	dyn3_execute
 621              		.text
 622              	.Letext0:
 623              		.file 2 "/usr/lib/gcc/arm-none-eabi/9.2.1/include/stddef.h"
 624              		.file 3 "/usr/lib/gcc/arm-none-eabi/9.2.1/include/stdint.h"
 625              		.file 4 "../os/ports/GCC/ARM/chtypes.h"
 626              		.file 5 "../os/kernel/include/chlists.h"
 627              		.file 6 "../os/kernel/include/chthreads.h"
 628              		.file 7 "../os/ports/GCC/ARM/chcore.h"
 629              		.file 8 "../os/kernel/include/chvt.h"
 630              		.file 9 "../os/kernel/include/chschd.h"
 631              		.file 10 "../os/kernel/include/chmtx.h"
 632              		.file 11 "../os/kernel/include/chmemcore.h"
 633              		.file 12 "../os/kernel/include/chheap.h"
 634              		.file 13 "../os/kernel/include/chregistry.h"
 635              		.file 14 "../os/kernel/include/ch.h"
 636              		.file 15 "../test/test.h"
 637              		.file 16 "../os/kernel/include/chdynamic.h"