ARM GAS  /tmp/ccGdBEjb.s 			page 1


   1              		.cpu arm1176jz-s
   2              		.eabi_attribute 20, 1
   3              		.eabi_attribute 21, 1
   4              		.eabi_attribute 23, 3
   5              		.eabi_attribute 24, 1
   6              		.eabi_attribute 25, 1
   7              		.eabi_attribute 26, 1
   8              		.eabi_attribute 30, 2
   9              		.eabi_attribute 34, 1
  10              		.eabi_attribute 18, 4
  11              		.file	"testmbox.c"
  12              		.text
  13              	.Ltext0:
  14              		.cfi_sections	.debug_frame
  15              		.section	.rodata.mbox1_execute.str1.4,"aMS",%progbits,1
  16              		.align	2
  17              	.LC0:
  18 0000 41424344 		.ascii	"ABCDE\000"
  18      4500
  19              		.section	.text.mbox1_execute,"ax",%progbits
  20              		.align	2
  21              		.arch armv6kz
  22              		.syntax unified
  23              		.arm
  24              		.fpu softvfp
  25              		.type	mbox1_execute, %function
  26              	mbox1_execute:
  27              	.LFB8:
  28              		.file 1 "../test/testmbox.c"
  29              		.loc 1 80 33 view -0
  30              		.cfi_startproc
  31              		@ args = 0, pretend = 0, frame = 8
  32              		@ frame_needed = 0, uses_anonymous_args = 0
  33              		.loc 1 81 3 view .LVU1
  34              		.loc 1 82 3 view .LVU2
  35              		.loc 1 87 3 view .LVU3
  36              		.loc 1 80 33 is_stmt 0 view .LVU4
  37 0000 70402DE9 		push	{r4, r5, r6, lr}
  38              		.cfi_def_cfa_offset 16
  39              		.cfi_offset 4, -16
  40              		.cfi_offset 5, -12
  41              		.cfi_offset 6, -8
  42              		.cfi_offset 14, -4
  43              		.loc 1 87 3 view .LVU5
  44 0004 8C679FE5 		ldr	r6, .L30
  45 0008 0100A0E3 		mov	r0, #1
  46 000c 241096E5 		ldr	r1, [r6, #36]
  47              		.loc 1 80 33 view .LVU6
  48 0010 08D04DE2 		sub	sp, sp, #8
  49              		.cfi_def_cfa_offset 24
  50              		.loc 1 87 3 view .LVU7
  51 0014 051041E2 		sub	r1, r1, #5
  52 0018 111F6FE1 		clz	r1, r1
  53 001c A112A0E1 		lsr	r1, r1, #5
  54 0020 FEFFFFEB 		bl	_test_assert
  55              	.LVL0:
  56 0024 000050E3 		cmp	r0, #0
ARM GAS  /tmp/ccGdBEjb.s 			page 2


  57 0028 1800001A 		bne	.L1
  58 002c 4240A0E3 		mov	r4, #66
  59              		.loc 1 93 12 view .LVU8
  60 0030 0650A0E1 		mov	r5, r6
  61              	.L3:
  62              	.LVL1:
  63              		.loc 1 93 5 is_stmt 1 view .LVU9
  64              		.loc 1 93 12 is_stmt 0 view .LVU10
  65 0034 0410A0E1 		mov	r1, r4
  66 0038 0020E0E3 		mvn	r2, #0
  67 003c 0500A0E1 		mov	r0, r5
  68 0040 FEFFFFEB 		bl	chMBPost
  69              	.LVL2:
  70              		.loc 1 94 5 is_stmt 1 view .LVU11
  71 0044 101F6FE1 		clz	r1, r0
  72 0048 0200A0E3 		mov	r0, #2
  73              	.LVL3:
  74              		.loc 1 94 5 is_stmt 0 view .LVU12
  75 004c A112A0E1 		lsr	r1, r1, #5
  76 0050 FEFFFFEB 		bl	_test_assert
  77              	.LVL4:
  78              		.loc 1 94 60 is_stmt 1 view .LVU13
  79              		.loc 1 92 32 view .LVU14
  80              		.loc 1 92 15 view .LVU15
  81              		.loc 1 94 5 is_stmt 0 view .LVU16
  82 0054 000050E3 		cmp	r0, #0
  83 0058 014084E2 		add	r4, r4, #1
  84              	.LVL5:
  85              		.loc 1 94 5 view .LVU17
  86 005c 0B00001A 		bne	.L1
  87              		.loc 1 92 3 discriminator 2 view .LVU18
  88 0060 460054E3 		cmp	r4, #70
  89 0064 F2FFFF1A 		bne	.L3
  90              		.loc 1 96 3 is_stmt 1 view .LVU19
  91              		.loc 1 96 10 is_stmt 0 view .LVU20
  92 0068 0020E0E3 		mvn	r2, #0
  93 006c 4110A0E3 		mov	r1, #65
  94 0070 20079FE5 		ldr	r0, .L30
  95 0074 FEFFFFEB 		bl	chMBPostAhead
  96              	.LVL6:
  97              		.loc 1 97 3 is_stmt 1 view .LVU21
  98 0078 101F6FE1 		clz	r1, r0
  99 007c 0300A0E3 		mov	r0, #3
 100              	.LVL7:
 101              		.loc 1 97 3 is_stmt 0 view .LVU22
 102 0080 A112A0E1 		lsr	r1, r1, #5
 103 0084 FEFFFFEB 		bl	_test_assert
 104              	.LVL8:
 105 0088 000050E3 		cmp	r0, #0
 106 008c 0100000A 		beq	.L29
 107              	.LVL9:
 108              	.L1:
 109              		.loc 1 224 1 view .LVU23
 110 0090 08D08DE2 		add	sp, sp, #8
 111              		.cfi_remember_state
 112              		.cfi_def_cfa_offset 16
 113              		@ sp needed
ARM GAS  /tmp/ccGdBEjb.s 			page 3


 114 0094 7080BDE8 		pop	{r4, r5, r6, pc}
 115              	.LVL10:
 116              	.L29:
 117              		.cfi_restore_state
 118              		.loc 1 97 58 is_stmt 1 discriminator 2 view .LVU24
 119              		.loc 1 102 3 discriminator 2 view .LVU25
 120              		.loc 1 102 10 is_stmt 0 discriminator 2 view .LVU26
 121 0098 0120A0E3 		mov	r2, #1
 122 009c 5810A0E3 		mov	r1, #88
 123 00a0 F0069FE5 		ldr	r0, .L30
 124 00a4 FEFFFFEB 		bl	chMBPost
 125              	.LVL11:
 126 00a8 0010A0E1 		mov	r1, r0
 127              	.LVL12:
 128              		.loc 1 103 3 is_stmt 1 discriminator 2 view .LVU27
 129 00ac 010071E3 		cmn	r1, #1
 130 00b0 0010A013 		movne	r1, #0
 131 00b4 0110A003 		moveq	r1, #1
 132 00b8 0400A0E3 		mov	r0, #4
 133              	.LVL13:
 134              		.loc 1 103 3 is_stmt 0 discriminator 2 view .LVU28
 135 00bc FEFFFFEB 		bl	_test_assert
 136              	.LVL14:
 137 00c0 000050E3 		cmp	r0, #0
 138 00c4 F1FFFF1A 		bne	.L1
 139              		.loc 1 103 63 is_stmt 1 discriminator 2 view .LVU29
 140              		.loc 1 104 3 discriminator 2 view .LVU30
 141              		.syntax divided
 142              	@ 104 "../test/testmbox.c" 1
 143 00c8 9FF021E3 		msr     CPSR_c, #0x9F
 144              	@ 0 "" 2
 145              		.loc 1 104 3 discriminator 2 view .LVU31
 146              		.loc 1 104 14 discriminator 2 view .LVU32
 147              		.loc 1 105 3 discriminator 2 view .LVU33
 148              		.loc 1 105 10 is_stmt 0 discriminator 2 view .LVU34
 149              		.arm
 150              		.syntax unified
 151 00cc 5810A0E3 		mov	r1, #88
 152 00d0 C0069FE5 		ldr	r0, .L30
 153 00d4 FEFFFFEB 		bl	chMBPostI
 154              	.LVL15:
 155 00d8 0010A0E1 		mov	r1, r0
 156              	.LVL16:
 157              		.loc 1 106 3 is_stmt 1 discriminator 2 view .LVU35
 158              		.loc 1 106 3 discriminator 2 view .LVU36
 159              		.syntax divided
 160              	@ 106 "../test/testmbox.c" 1
 161 00dc 1FF021E3 		msr     CPSR_c, #0x1F
 162              	@ 0 "" 2
 163              		.loc 1 106 16 discriminator 2 view .LVU37
 164              		.loc 1 107 3 discriminator 2 view .LVU38
 165              		.arm
 166              		.syntax unified
 167 00e0 010071E3 		cmn	r1, #1
 168 00e4 0010A013 		movne	r1, #0
 169 00e8 0110A003 		moveq	r1, #1
 170 00ec 0500A0E3 		mov	r0, #5
ARM GAS  /tmp/ccGdBEjb.s 			page 4


 171              	.LVL17:
 172              		.loc 1 107 3 is_stmt 0 discriminator 2 view .LVU39
 173 00f0 FEFFFFEB 		bl	_test_assert
 174              	.LVL18:
 175 00f4 000050E3 		cmp	r0, #0
 176 00f8 E4FFFF1A 		bne	.L1
 177              		.loc 1 107 63 is_stmt 1 discriminator 2 view .LVU40
 178              		.loc 1 108 3 discriminator 2 view .LVU41
 179              		.loc 1 108 10 is_stmt 0 discriminator 2 view .LVU42
 180 00fc 0120A0E3 		mov	r2, #1
 181 0100 5810A0E3 		mov	r1, #88
 182 0104 8C069FE5 		ldr	r0, .L30
 183 0108 FEFFFFEB 		bl	chMBPostAhead
 184              	.LVL19:
 185 010c 0010A0E1 		mov	r1, r0
 186              	.LVL20:
 187              		.loc 1 109 3 is_stmt 1 discriminator 2 view .LVU43
 188 0110 010071E3 		cmn	r1, #1
 189 0114 0010A013 		movne	r1, #0
 190 0118 0110A003 		moveq	r1, #1
 191 011c 0600A0E3 		mov	r0, #6
 192              	.LVL21:
 193              		.loc 1 109 3 is_stmt 0 discriminator 2 view .LVU44
 194 0120 FEFFFFEB 		bl	_test_assert
 195              	.LVL22:
 196 0124 000050E3 		cmp	r0, #0
 197 0128 D8FFFF1A 		bne	.L1
 198              		.loc 1 109 63 is_stmt 1 discriminator 2 view .LVU45
 199              		.loc 1 110 3 discriminator 2 view .LVU46
 200              		.syntax divided
 201              	@ 110 "../test/testmbox.c" 1
 202 012c 9FF021E3 		msr     CPSR_c, #0x9F
 203              	@ 0 "" 2
 204              		.loc 1 110 3 discriminator 2 view .LVU47
 205              		.loc 1 110 14 discriminator 2 view .LVU48
 206              		.loc 1 111 3 discriminator 2 view .LVU49
 207              		.loc 1 111 10 is_stmt 0 discriminator 2 view .LVU50
 208              		.arm
 209              		.syntax unified
 210 0130 5810A0E3 		mov	r1, #88
 211 0134 5C069FE5 		ldr	r0, .L30
 212 0138 FEFFFFEB 		bl	chMBPostAheadI
 213              	.LVL23:
 214 013c 0010A0E1 		mov	r1, r0
 215              	.LVL24:
 216              		.loc 1 112 3 is_stmt 1 discriminator 2 view .LVU51
 217              		.loc 1 112 3 discriminator 2 view .LVU52
 218              		.syntax divided
 219              	@ 112 "../test/testmbox.c" 1
 220 0140 1FF021E3 		msr     CPSR_c, #0x1F
 221              	@ 0 "" 2
 222              		.loc 1 112 16 discriminator 2 view .LVU53
 223              		.loc 1 113 3 discriminator 2 view .LVU54
 224              		.arm
 225              		.syntax unified
 226 0144 010071E3 		cmn	r1, #1
 227 0148 0010A013 		movne	r1, #0
ARM GAS  /tmp/ccGdBEjb.s 			page 5


 228 014c 0110A003 		moveq	r1, #1
 229 0150 0700A0E3 		mov	r0, #7
 230              	.LVL25:
 231              		.loc 1 113 3 is_stmt 0 discriminator 2 view .LVU55
 232 0154 FEFFFFEB 		bl	_test_assert
 233              	.LVL26:
 234 0158 000050E3 		cmp	r0, #0
 235 015c CBFFFF1A 		bne	.L1
 236              		.loc 1 113 63 is_stmt 1 discriminator 2 view .LVU56
 237              		.loc 1 118 3 discriminator 2 view .LVU57
 238              		.syntax divided
 239              	@ 118 "../test/testmbox.c" 1
 240 0160 9FF021E3 		msr     CPSR_c, #0x9F
 241              	@ 0 "" 2
 242              		.loc 1 118 3 discriminator 2 view .LVU58
 243              		.loc 1 118 3 discriminator 2 view .LVU59
 244              		.loc 1 118 3 discriminator 2 view .LVU60
 245              		.arm
 246              		.syntax unified
 247 0164 241096E5 		ldr	r1, [r6, #36]
 248 0168 0800A0E3 		mov	r0, #8
 249 016c 111F6FE1 		clz	r1, r1
 250 0170 A112A0E1 		lsr	r1, r1, #5
 251 0174 FEFFFFEB 		bl	_test_assert
 252              	.LVL27:
 253 0178 000050E3 		cmp	r0, #0
 254 017c 8301001A 		bne	.L21
 255              		.loc 1 118 3 discriminator 2 view .LVU61
 256              		.loc 1 118 3 discriminator 2 view .LVU62
 257              		.syntax divided
 258              	@ 118 "../test/testmbox.c" 1
 259 0180 1FF021E3 		msr     CPSR_c, #0x1F
 260              	@ 0 "" 2
 261              		.loc 1 118 3 discriminator 2 view .LVU63
 262              		.loc 1 118 67 discriminator 2 view .LVU64
 263              		.loc 1 119 3 discriminator 2 view .LVU65
 264              	@ 119 "../test/testmbox.c" 1
 265 0184 9FF021E3 		msr     CPSR_c, #0x9F
 266              	@ 0 "" 2
 267              		.loc 1 119 3 discriminator 2 view .LVU66
 268              		.loc 1 119 3 discriminator 2 view .LVU67
 269              		.loc 1 119 3 discriminator 2 view .LVU68
 270              		.arm
 271              		.syntax unified
 272 0188 181096E5 		ldr	r1, [r6, #24]
 273 018c 0900A0E3 		mov	r0, #9
 274 0190 051041E2 		sub	r1, r1, #5
 275 0194 111F6FE1 		clz	r1, r1
 276 0198 A112A0E1 		lsr	r1, r1, #5
 277 019c FEFFFFEB 		bl	_test_assert
 278              	.LVL28:
 279 01a0 000050E3 		cmp	r0, #0
 280 01a4 7901001A 		bne	.L21
 281              		.loc 1 119 3 discriminator 2 view .LVU69
 282              		.loc 1 119 3 discriminator 2 view .LVU70
 283              		.syntax divided
 284              	@ 119 "../test/testmbox.c" 1
ARM GAS  /tmp/ccGdBEjb.s 			page 6


 285 01a8 1FF021E3 		msr     CPSR_c, #0x1F
 286              	@ 0 "" 2
 287              		.loc 1 119 3 discriminator 2 view .LVU71
 288              		.loc 1 119 70 discriminator 2 view .LVU72
 289              		.loc 1 120 3 discriminator 2 view .LVU73
 290              	@ 120 "../test/testmbox.c" 1
 291 01ac 9FF021E3 		msr     CPSR_c, #0x9F
 292              	@ 0 "" 2
 293              		.loc 1 120 3 discriminator 2 view .LVU74
 294              		.loc 1 120 3 discriminator 2 view .LVU75
 295              		.loc 1 120 3 discriminator 2 view .LVU76
 296              		.arm
 297              		.syntax unified
 298 01b0 0C1096E5 		ldr	r1, [r6, #12]
 299 01b4 083096E5 		ldr	r3, [r6, #8]
 300 01b8 0A00A0E3 		mov	r0, #10
 301 01bc 031041E0 		sub	r1, r1, r3
 302 01c0 111F6FE1 		clz	r1, r1
 303 01c4 A112A0E1 		lsr	r1, r1, #5
 304 01c8 FEFFFFEB 		bl	_test_assert
 305              	.LVL29:
 306 01cc 000050E3 		cmp	r0, #0
 307 01d0 6E01001A 		bne	.L21
 308              		.loc 1 120 3 discriminator 2 view .LVU77
 309              		.loc 1 120 3 discriminator 2 view .LVU78
 310              		.syntax divided
 311              	@ 120 "../test/testmbox.c" 1
 312 01d4 1FF021E3 		msr     CPSR_c, #0x1F
 313              	@ 0 "" 2
 314              		.loc 1 120 3 discriminator 2 view .LVU79
 315              		.loc 1 120 77 discriminator 2 view .LVU80
 316              		.loc 1 125 3 discriminator 2 view .LVU81
 317              	.LVL30:
 318              		.loc 1 125 15 discriminator 2 view .LVU82
 319              		.loc 1 120 3 is_stmt 0 discriminator 2 view .LVU83
 320              		.arm
 321              		.syntax unified
 322 01d8 0540A0E3 		mov	r4, #5
 323              		.loc 1 126 12 discriminator 2 view .LVU84
 324 01dc B4559FE5 		ldr	r5, .L30
 325              	.LVL31:
 326              	.L8:
 327              		.loc 1 126 5 is_stmt 1 view .LVU85
 328              		.loc 1 126 12 is_stmt 0 view .LVU86
 329 01e0 0020E0E3 		mvn	r2, #0
 330 01e4 04108DE2 		add	r1, sp, #4
 331 01e8 0500A0E1 		mov	r0, r5
 332 01ec FEFFFFEB 		bl	chMBFetch
 333              	.LVL32:
 334              		.loc 1 127 5 is_stmt 1 view .LVU87
 335 01f0 101F6FE1 		clz	r1, r0
 336 01f4 0B00A0E3 		mov	r0, #11
 337              	.LVL33:
 338              		.loc 1 127 5 is_stmt 0 view .LVU88
 339 01f8 A112A0E1 		lsr	r1, r1, #5
 340 01fc FEFFFFEB 		bl	_test_assert
 341              	.LVL34:
ARM GAS  /tmp/ccGdBEjb.s 			page 7


 342              		.loc 1 127 61 is_stmt 1 view .LVU89
 343              		.loc 1 128 5 view .LVU90
 344              		.loc 1 127 5 is_stmt 0 view .LVU91
 345 0200 000050E3 		cmp	r0, #0
 346 0204 A1FFFF1A 		bne	.L1
 347              		.loc 1 128 5 discriminator 2 view .LVU92
 348 0208 0400DDE5 		ldrb	r0, [sp, #4]	@ zero_extendqisi2
 349 020c FEFFFFEB 		bl	test_emit_token
 350              	.LVL35:
 351              		.loc 1 125 28 is_stmt 1 discriminator 2 view .LVU93
 352              		.loc 1 125 15 discriminator 2 view .LVU94
 353              		.loc 1 125 3 is_stmt 0 discriminator 2 view .LVU95
 354 0210 014054E2 		subs	r4, r4, #1
 355              	.LVL36:
 356              		.loc 1 125 3 discriminator 2 view .LVU96
 357 0214 F1FFFF1A 		bne	.L8
 358              		.loc 1 130 3 is_stmt 1 view .LVU97
 359 0218 0C00A0E3 		mov	r0, #12
 360 021c 78159FE5 		ldr	r1, .L30+4
 361 0220 FEFFFFEB 		bl	_test_assert_sequence
 362              	.LVL37:
 363 0224 000050E3 		cmp	r0, #0
 364 0228 98FFFF1A 		bne	.L1
 365              		.loc 1 130 36 discriminator 2 view .LVU98
 366              		.loc 1 135 3 discriminator 2 view .LVU99
 367              		.loc 1 135 10 is_stmt 0 discriminator 2 view .LVU100
 368 022c 0020E0E3 		mvn	r2, #0
 369 0230 4710A0E3 		mov	r1, #71
 370 0234 5C059FE5 		ldr	r0, .L30
 371 0238 FEFFFFEB 		bl	chMBPost
 372              	.LVL38:
 373              		.loc 1 136 3 is_stmt 1 discriminator 2 view .LVU101
 374 023c 101F6FE1 		clz	r1, r0
 375 0240 0D00A0E3 		mov	r0, #13
 376              	.LVL39:
 377              		.loc 1 136 3 is_stmt 0 discriminator 2 view .LVU102
 378 0244 A112A0E1 		lsr	r1, r1, #5
 379 0248 FEFFFFEB 		bl	_test_assert
 380              	.LVL40:
 381 024c 000050E3 		cmp	r0, #0
 382 0250 8EFFFF1A 		bne	.L1
 383              		.loc 1 136 59 is_stmt 1 discriminator 2 view .LVU103
 384              		.loc 1 137 3 discriminator 2 view .LVU104
 385              		.loc 1 137 10 is_stmt 0 discriminator 2 view .LVU105
 386 0254 0020E0E3 		mvn	r2, #0
 387 0258 04108DE2 		add	r1, sp, #4
 388 025c 34059FE5 		ldr	r0, .L30
 389 0260 FEFFFFEB 		bl	chMBFetch
 390              	.LVL41:
 391              		.loc 1 138 3 is_stmt 1 discriminator 2 view .LVU106
 392 0264 101F6FE1 		clz	r1, r0
 393 0268 0E00A0E3 		mov	r0, #14
 394              	.LVL42:
 395              		.loc 1 138 3 is_stmt 0 discriminator 2 view .LVU107
 396 026c A112A0E1 		lsr	r1, r1, #5
 397 0270 FEFFFFEB 		bl	_test_assert
 398              	.LVL43:
ARM GAS  /tmp/ccGdBEjb.s 			page 8


 399 0274 000050E3 		cmp	r0, #0
 400 0278 84FFFF1A 		bne	.L1
 401              		.loc 1 138 59 is_stmt 1 discriminator 2 view .LVU108
 402              		.loc 1 139 3 discriminator 2 view .LVU109
 403 027c 001096E5 		ldr	r1, [r6]
 404 0280 083096E5 		ldr	r3, [r6, #8]
 405 0284 0F00A0E3 		mov	r0, #15
 406 0288 031041E0 		sub	r1, r1, r3
 407 028c 111F6FE1 		clz	r1, r1
 408 0290 A112A0E1 		lsr	r1, r1, #5
 409 0294 FEFFFFEB 		bl	_test_assert
 410              	.LVL44:
 411 0298 000050E3 		cmp	r0, #0
 412 029c 7BFFFF1A 		bne	.L1
 413              		.loc 1 139 86 discriminator 2 view .LVU110
 414              		.loc 1 140 3 discriminator 2 view .LVU111
 415 02a0 001096E5 		ldr	r1, [r6]
 416 02a4 0C3096E5 		ldr	r3, [r6, #12]
 417 02a8 1000A0E3 		mov	r0, #16
 418 02ac 031041E0 		sub	r1, r1, r3
 419 02b0 111F6FE1 		clz	r1, r1
 420 02b4 A112A0E1 		lsr	r1, r1, #5
 421 02b8 FEFFFFEB 		bl	_test_assert
 422              	.LVL45:
 423 02bc 000050E3 		cmp	r0, #0
 424 02c0 72FFFF1A 		bne	.L1
 425              		.loc 1 140 85 discriminator 2 view .LVU112
 426              		.loc 1 145 3 discriminator 2 view .LVU113
 427              		.loc 1 145 10 is_stmt 0 discriminator 2 view .LVU114
 428 02c4 0120A0E3 		mov	r2, #1
 429 02c8 04108DE2 		add	r1, sp, #4
 430 02cc C4049FE5 		ldr	r0, .L30
 431 02d0 FEFFFFEB 		bl	chMBFetch
 432              	.LVL46:
 433 02d4 0010A0E1 		mov	r1, r0
 434              	.LVL47:
 435              		.loc 1 146 3 is_stmt 1 discriminator 2 view .LVU115
 436 02d8 010071E3 		cmn	r1, #1
 437 02dc 0010A013 		movne	r1, #0
 438 02e0 0110A003 		moveq	r1, #1
 439 02e4 1100A0E3 		mov	r0, #17
 440              	.LVL48:
 441              		.loc 1 146 3 is_stmt 0 discriminator 2 view .LVU116
 442 02e8 FEFFFFEB 		bl	_test_assert
 443              	.LVL49:
 444 02ec 000050E3 		cmp	r0, #0
 445 02f0 66FFFF1A 		bne	.L1
 446              		.loc 1 146 64 is_stmt 1 discriminator 2 view .LVU117
 447              		.loc 1 147 3 discriminator 2 view .LVU118
 448              		.syntax divided
 449              	@ 147 "../test/testmbox.c" 1
 450 02f4 9FF021E3 		msr     CPSR_c, #0x9F
 451              	@ 0 "" 2
 452              		.loc 1 147 3 discriminator 2 view .LVU119
 453              		.loc 1 147 14 discriminator 2 view .LVU120
 454              		.loc 1 148 3 discriminator 2 view .LVU121
 455              		.loc 1 148 10 is_stmt 0 discriminator 2 view .LVU122
ARM GAS  /tmp/ccGdBEjb.s 			page 9


 456              		.arm
 457              		.syntax unified
 458 02f8 98049FE5 		ldr	r0, .L30
 459 02fc 04108DE2 		add	r1, sp, #4
 460 0300 FEFFFFEB 		bl	chMBFetchI
 461              	.LVL50:
 462 0304 0010A0E1 		mov	r1, r0
 463              	.LVL51:
 464              		.loc 1 149 3 is_stmt 1 discriminator 2 view .LVU123
 465              		.loc 1 149 3 discriminator 2 view .LVU124
 466              		.syntax divided
 467              	@ 149 "../test/testmbox.c" 1
 468 0308 1FF021E3 		msr     CPSR_c, #0x1F
 469              	@ 0 "" 2
 470              		.loc 1 149 16 discriminator 2 view .LVU125
 471              		.loc 1 150 3 discriminator 2 view .LVU126
 472              		.arm
 473              		.syntax unified
 474 030c 010071E3 		cmn	r1, #1
 475 0310 0010A013 		movne	r1, #0
 476 0314 0110A003 		moveq	r1, #1
 477 0318 1200A0E3 		mov	r0, #18
 478              	.LVL52:
 479              		.loc 1 150 3 is_stmt 0 discriminator 2 view .LVU127
 480 031c FEFFFFEB 		bl	_test_assert
 481              	.LVL53:
 482 0320 000050E3 		cmp	r0, #0
 483 0324 59FFFF1A 		bne	.L1
 484              		.loc 1 150 64 is_stmt 1 discriminator 2 view .LVU128
 485              		.loc 1 155 3 discriminator 2 view .LVU129
 486              		.syntax divided
 487              	@ 155 "../test/testmbox.c" 1
 488 0328 9FF021E3 		msr     CPSR_c, #0x9F
 489              	@ 0 "" 2
 490              		.loc 1 155 3 discriminator 2 view .LVU130
 491              		.loc 1 155 3 discriminator 2 view .LVU131
 492              		.loc 1 155 3 discriminator 2 view .LVU132
 493              		.arm
 494              		.syntax unified
 495 032c 241096E5 		ldr	r1, [r6, #36]
 496 0330 1300A0E3 		mov	r0, #19
 497 0334 051041E2 		sub	r1, r1, #5
 498 0338 111F6FE1 		clz	r1, r1
 499 033c A112A0E1 		lsr	r1, r1, #5
 500 0340 FEFFFFEB 		bl	_test_assert
 501              	.LVL54:
 502 0344 000050E3 		cmp	r0, #0
 503 0348 1001001A 		bne	.L21
 504              		.loc 1 155 3 discriminator 2 view .LVU133
 505              		.loc 1 155 3 discriminator 2 view .LVU134
 506              		.syntax divided
 507              	@ 155 "../test/testmbox.c" 1
 508 034c 1FF021E3 		msr     CPSR_c, #0x1F
 509              	@ 0 "" 2
 510              		.loc 1 155 3 discriminator 2 view .LVU135
 511              		.loc 1 155 72 discriminator 2 view .LVU136
 512              		.loc 1 156 3 discriminator 2 view .LVU137
ARM GAS  /tmp/ccGdBEjb.s 			page 10


 513              	@ 156 "../test/testmbox.c" 1
 514 0350 9FF021E3 		msr     CPSR_c, #0x9F
 515              	@ 0 "" 2
 516              		.loc 1 156 3 discriminator 2 view .LVU138
 517              		.loc 1 156 3 discriminator 2 view .LVU139
 518              		.loc 1 156 3 discriminator 2 view .LVU140
 519              		.arm
 520              		.syntax unified
 521 0354 181096E5 		ldr	r1, [r6, #24]
 522 0358 1400A0E3 		mov	r0, #20
 523 035c 111F6FE1 		clz	r1, r1
 524 0360 A112A0E1 		lsr	r1, r1, #5
 525 0364 FEFFFFEB 		bl	_test_assert
 526              	.LVL55:
 527 0368 000050E3 		cmp	r0, #0
 528 036c 0701001A 		bne	.L21
 529              		.loc 1 156 3 discriminator 2 view .LVU141
 530              		.loc 1 156 3 discriminator 2 view .LVU142
 531              		.syntax divided
 532              	@ 156 "../test/testmbox.c" 1
 533 0370 1FF021E3 		msr     CPSR_c, #0x1F
 534              	@ 0 "" 2
 535              		.loc 1 156 3 discriminator 2 view .LVU143
 536              		.loc 1 156 67 discriminator 2 view .LVU144
 537              		.loc 1 157 3 discriminator 2 view .LVU145
 538              	@ 157 "../test/testmbox.c" 1
 539 0374 9FF021E3 		msr     CPSR_c, #0x9F
 540              	@ 0 "" 2
 541              		.loc 1 157 3 discriminator 2 view .LVU146
 542              		.loc 1 157 3 discriminator 2 view .LVU147
 543              		.loc 1 157 3 discriminator 2 view .LVU148
 544              		.arm
 545              		.syntax unified
 546 0378 0C1096E5 		ldr	r1, [r6, #12]
 547 037c 083096E5 		ldr	r3, [r6, #8]
 548 0380 1500A0E3 		mov	r0, #21
 549 0384 031041E0 		sub	r1, r1, r3
 550 0388 111F6FE1 		clz	r1, r1
 551 038c A112A0E1 		lsr	r1, r1, #5
 552 0390 FEFFFFEB 		bl	_test_assert
 553              	.LVL56:
 554 0394 000050E3 		cmp	r0, #0
 555 0398 FC00001A 		bne	.L21
 556              		.loc 1 157 3 discriminator 2 view .LVU149
 557              		.loc 1 157 3 discriminator 2 view .LVU150
 558              		.syntax divided
 559              	@ 157 "../test/testmbox.c" 1
 560 039c 1FF021E3 		msr     CPSR_c, #0x1F
 561              	@ 0 "" 2
 562              		.loc 1 157 3 discriminator 2 view .LVU151
 563              		.loc 1 157 77 discriminator 2 view .LVU152
 564              		.loc 1 162 3 discriminator 2 view .LVU153
 565              	@ 162 "../test/testmbox.c" 1
 566 03a0 9FF021E3 		msr     CPSR_c, #0x9F
 567              	@ 0 "" 2
 568              		.loc 1 162 3 discriminator 2 view .LVU154
 569              		.loc 1 163 3 discriminator 2 view .LVU155
ARM GAS  /tmp/ccGdBEjb.s 			page 11


 570              		.loc 1 163 10 is_stmt 0 discriminator 2 view .LVU156
 571              		.arm
 572              		.syntax unified
 573 03a4 4110A0E3 		mov	r1, #65
 574 03a8 E8039FE5 		ldr	r0, .L30
 575 03ac FEFFFFEB 		bl	chMBPostI
 576              	.LVL57:
 577              		.loc 1 164 3 is_stmt 1 discriminator 2 view .LVU157
 578 03b0 101F6FE1 		clz	r1, r0
 579 03b4 1600A0E3 		mov	r0, #22
 580              	.LVL58:
 581              		.loc 1 164 3 is_stmt 0 discriminator 2 view .LVU158
 582 03b8 A112A0E1 		lsr	r1, r1, #5
 583 03bc FEFFFFEB 		bl	_test_assert
 584              	.LVL59:
 585 03c0 000050E3 		cmp	r0, #0
 586 03c4 31FFFF1A 		bne	.L1
 587              		.loc 1 164 59 is_stmt 1 discriminator 2 view .LVU159
 588              		.loc 1 165 3 discriminator 2 view .LVU160
 589              		.loc 1 165 10 is_stmt 0 discriminator 2 view .LVU161
 590 03c8 4210A0E3 		mov	r1, #66
 591 03cc C4039FE5 		ldr	r0, .L30
 592 03d0 FEFFFFEB 		bl	chMBPostI
 593              	.LVL60:
 594              		.loc 1 166 3 is_stmt 1 discriminator 2 view .LVU162
 595 03d4 101F6FE1 		clz	r1, r0
 596 03d8 1700A0E3 		mov	r0, #23
 597              	.LVL61:
 598              		.loc 1 166 3 is_stmt 0 discriminator 2 view .LVU163
 599 03dc A112A0E1 		lsr	r1, r1, #5
 600 03e0 FEFFFFEB 		bl	_test_assert
 601              	.LVL62:
 602 03e4 000050E3 		cmp	r0, #0
 603 03e8 28FFFF1A 		bne	.L1
 604              		.loc 1 166 59 is_stmt 1 discriminator 2 view .LVU164
 605              		.loc 1 167 3 discriminator 2 view .LVU165
 606              		.loc 1 167 10 is_stmt 0 discriminator 2 view .LVU166
 607 03ec 4310A0E3 		mov	r1, #67
 608 03f0 A0039FE5 		ldr	r0, .L30
 609 03f4 FEFFFFEB 		bl	chMBPostI
 610              	.LVL63:
 611              		.loc 1 168 3 is_stmt 1 discriminator 2 view .LVU167
 612 03f8 101F6FE1 		clz	r1, r0
 613 03fc 1800A0E3 		mov	r0, #24
 614              	.LVL64:
 615              		.loc 1 168 3 is_stmt 0 discriminator 2 view .LVU168
 616 0400 A112A0E1 		lsr	r1, r1, #5
 617 0404 FEFFFFEB 		bl	_test_assert
 618              	.LVL65:
 619 0408 000050E3 		cmp	r0, #0
 620 040c 1FFFFF1A 		bne	.L1
 621              		.loc 1 168 59 is_stmt 1 discriminator 2 view .LVU169
 622              		.loc 1 169 3 discriminator 2 view .LVU170
 623              		.loc 1 169 10 is_stmt 0 discriminator 2 view .LVU171
 624 0410 4410A0E3 		mov	r1, #68
 625 0414 7C039FE5 		ldr	r0, .L30
 626 0418 FEFFFFEB 		bl	chMBPostI
ARM GAS  /tmp/ccGdBEjb.s 			page 12


 627              	.LVL66:
 628              		.loc 1 170 3 is_stmt 1 discriminator 2 view .LVU172
 629 041c 101F6FE1 		clz	r1, r0
 630 0420 1900A0E3 		mov	r0, #25
 631              	.LVL67:
 632              		.loc 1 170 3 is_stmt 0 discriminator 2 view .LVU173
 633 0424 A112A0E1 		lsr	r1, r1, #5
 634 0428 FEFFFFEB 		bl	_test_assert
 635              	.LVL68:
 636 042c 000050E3 		cmp	r0, #0
 637 0430 16FFFF1A 		bne	.L1
 638              		.loc 1 170 59 is_stmt 1 discriminator 2 view .LVU174
 639              		.loc 1 171 3 discriminator 2 view .LVU175
 640              		.loc 1 171 10 is_stmt 0 discriminator 2 view .LVU176
 641 0434 4510A0E3 		mov	r1, #69
 642 0438 58039FE5 		ldr	r0, .L30
 643 043c FEFFFFEB 		bl	chMBPostI
 644              	.LVL69:
 645              		.loc 1 172 3 is_stmt 1 discriminator 2 view .LVU177
 646              		.loc 1 172 3 discriminator 2 view .LVU178
 647              		.syntax divided
 648              	@ 172 "../test/testmbox.c" 1
 649 0440 1FF021E3 		msr     CPSR_c, #0x1F
 650              	@ 0 "" 2
 651              		.loc 1 173 3 discriminator 2 view .LVU179
 652              		.arm
 653              		.syntax unified
 654 0444 101F6FE1 		clz	r1, r0
 655 0448 1A00A0E3 		mov	r0, #26
 656              	.LVL70:
 657              		.loc 1 173 3 is_stmt 0 discriminator 2 view .LVU180
 658 044c A112A0E1 		lsr	r1, r1, #5
 659 0450 FEFFFFEB 		bl	_test_assert
 660              	.LVL71:
 661 0454 000050E3 		cmp	r0, #0
 662 0458 0CFFFF1A 		bne	.L1
 663              		.loc 1 173 59 is_stmt 1 discriminator 2 view .LVU181
 664              		.loc 1 174 3 discriminator 2 view .LVU182
 665 045c 0C1096E5 		ldr	r1, [r6, #12]
 666 0460 083096E5 		ldr	r3, [r6, #8]
 667 0464 1B00A0E3 		mov	r0, #27
 668 0468 031041E0 		sub	r1, r1, r3
 669 046c 111F6FE1 		clz	r1, r1
 670 0470 A112A0E1 		lsr	r1, r1, #5
 671 0474 FEFFFFEB 		bl	_test_assert
 672              	.LVL72:
 673 0478 000050E3 		cmp	r0, #0
 674 047c 03FFFF1A 		bne	.L1
 675 0480 0540A0E3 		mov	r4, #5
 676              	.LVL73:
 677              		.loc 1 177 12 is_stmt 0 view .LVU183
 678 0484 0C539FE5 		ldr	r5, .L30
 679              	.L12:
 680              	.LVL74:
 681              		.loc 1 176 5 is_stmt 1 view .LVU184
 682              		.syntax divided
 683              	@ 176 "../test/testmbox.c" 1
ARM GAS  /tmp/ccGdBEjb.s 			page 13


 684 0488 9FF021E3 		msr     CPSR_c, #0x9F
 685              	@ 0 "" 2
 686              		.loc 1 176 5 view .LVU185
 687              		.loc 1 176 16 view .LVU186
 688              		.loc 1 177 5 view .LVU187
 689              		.loc 1 177 12 is_stmt 0 view .LVU188
 690              		.arm
 691              		.syntax unified
 692 048c 0500A0E1 		mov	r0, r5
 693 0490 04108DE2 		add	r1, sp, #4
 694 0494 FEFFFFEB 		bl	chMBFetchI
 695              	.LVL75:
 696              		.loc 1 178 5 is_stmt 1 view .LVU189
 697              		.loc 1 178 5 view .LVU190
 698              		.syntax divided
 699              	@ 178 "../test/testmbox.c" 1
 700 0498 1FF021E3 		msr     CPSR_c, #0x1F
 701              	@ 0 "" 2
 702              		.loc 1 178 18 view .LVU191
 703              		.loc 1 179 5 view .LVU192
 704              		.arm
 705              		.syntax unified
 706 049c 101F6FE1 		clz	r1, r0
 707 04a0 1C00A0E3 		mov	r0, #28
 708              	.LVL76:
 709              		.loc 1 179 5 is_stmt 0 view .LVU193
 710 04a4 A112A0E1 		lsr	r1, r1, #5
 711 04a8 FEFFFFEB 		bl	_test_assert
 712              	.LVL77:
 713              		.loc 1 179 61 is_stmt 1 view .LVU194
 714              		.loc 1 180 5 view .LVU195
 715              		.loc 1 179 5 is_stmt 0 view .LVU196
 716 04ac 000050E3 		cmp	r0, #0
 717 04b0 F6FEFF1A 		bne	.L1
 718              		.loc 1 180 5 discriminator 2 view .LVU197
 719 04b4 0400DDE5 		ldrb	r0, [sp, #4]	@ zero_extendqisi2
 720 04b8 FEFFFFEB 		bl	test_emit_token
 721              	.LVL78:
 722              		.loc 1 175 28 is_stmt 1 discriminator 2 view .LVU198
 723              		.loc 1 175 15 discriminator 2 view .LVU199
 724              		.loc 1 175 3 is_stmt 0 discriminator 2 view .LVU200
 725 04bc 014054E2 		subs	r4, r4, #1
 726              	.LVL79:
 727              		.loc 1 175 3 discriminator 2 view .LVU201
 728 04c0 F0FFFF1A 		bne	.L12
 729              		.loc 1 182 3 is_stmt 1 view .LVU202
 730 04c4 1D00A0E3 		mov	r0, #29
 731 04c8 CC129FE5 		ldr	r1, .L30+4
 732 04cc FEFFFFEB 		bl	_test_assert_sequence
 733              	.LVL80:
 734 04d0 000050E3 		cmp	r0, #0
 735 04d4 EDFEFF1A 		bne	.L1
 736              		.loc 1 182 36 discriminator 2 view .LVU203
 737              		.loc 1 183 3 discriminator 2 view .LVU204
 738              		.syntax divided
 739              	@ 183 "../test/testmbox.c" 1
 740 04d8 9FF021E3 		msr     CPSR_c, #0x9F
ARM GAS  /tmp/ccGdBEjb.s 			page 14


 741              	@ 0 "" 2
 742              		.loc 1 183 3 discriminator 2 view .LVU205
 743              		.loc 1 183 3 discriminator 2 view .LVU206
 744              		.loc 1 183 3 discriminator 2 view .LVU207
 745              		.arm
 746              		.syntax unified
 747 04dc 241096E5 		ldr	r1, [r6, #36]
 748 04e0 1E00A0E3 		mov	r0, #30
 749 04e4 051041E2 		sub	r1, r1, #5
 750 04e8 111F6FE1 		clz	r1, r1
 751 04ec A112A0E1 		lsr	r1, r1, #5
 752 04f0 FEFFFFEB 		bl	_test_assert
 753              	.LVL81:
 754 04f4 000050E3 		cmp	r0, #0
 755 04f8 A400001A 		bne	.L21
 756              		.loc 1 183 3 discriminator 2 view .LVU208
 757              		.loc 1 183 3 discriminator 2 view .LVU209
 758              		.syntax divided
 759              	@ 183 "../test/testmbox.c" 1
 760 04fc 1FF021E3 		msr     CPSR_c, #0x1F
 761              	@ 0 "" 2
 762              		.loc 1 183 3 discriminator 2 view .LVU210
 763              		.loc 1 183 72 discriminator 2 view .LVU211
 764              		.loc 1 184 3 discriminator 2 view .LVU212
 765              	@ 184 "../test/testmbox.c" 1
 766 0500 9FF021E3 		msr     CPSR_c, #0x9F
 767              	@ 0 "" 2
 768              		.loc 1 184 3 discriminator 2 view .LVU213
 769              		.loc 1 184 3 discriminator 2 view .LVU214
 770              		.loc 1 184 3 discriminator 2 view .LVU215
 771              		.arm
 772              		.syntax unified
 773 0504 181096E5 		ldr	r1, [r6, #24]
 774 0508 1F00A0E3 		mov	r0, #31
 775 050c 111F6FE1 		clz	r1, r1
 776 0510 A112A0E1 		lsr	r1, r1, #5
 777 0514 FEFFFFEB 		bl	_test_assert
 778              	.LVL82:
 779 0518 000050E3 		cmp	r0, #0
 780 051c 9B00001A 		bne	.L21
 781              		.loc 1 184 3 discriminator 2 view .LVU216
 782              		.loc 1 184 3 discriminator 2 view .LVU217
 783              		.syntax divided
 784              	@ 184 "../test/testmbox.c" 1
 785 0520 1FF021E3 		msr     CPSR_c, #0x1F
 786              	@ 0 "" 2
 787              		.loc 1 184 3 discriminator 2 view .LVU218
 788              		.loc 1 184 67 discriminator 2 view .LVU219
 789              		.loc 1 185 3 discriminator 2 view .LVU220
 790              		.arm
 791              		.syntax unified
 792 0524 0C1096E5 		ldr	r1, [r6, #12]
 793 0528 083096E5 		ldr	r3, [r6, #8]
 794 052c 2000A0E3 		mov	r0, #32
 795 0530 031041E0 		sub	r1, r1, r3
 796 0534 111F6FE1 		clz	r1, r1
 797 0538 A112A0E1 		lsr	r1, r1, #5
ARM GAS  /tmp/ccGdBEjb.s 			page 15


 798 053c FEFFFFEB 		bl	_test_assert
 799              	.LVL83:
 800 0540 000050E3 		cmp	r0, #0
 801 0544 D1FEFF1A 		bne	.L1
 802              		.loc 1 185 72 discriminator 2 view .LVU221
 803              		.loc 1 187 3 discriminator 2 view .LVU222
 804              		.syntax divided
 805              	@ 187 "../test/testmbox.c" 1
 806 0548 9FF021E3 		msr     CPSR_c, #0x9F
 807              	@ 0 "" 2
 808              		.loc 1 187 3 discriminator 2 view .LVU223
 809              		.loc 1 187 14 discriminator 2 view .LVU224
 810              		.loc 1 188 3 discriminator 2 view .LVU225
 811              		.loc 1 188 10 is_stmt 0 discriminator 2 view .LVU226
 812              		.arm
 813              		.syntax unified
 814 054c 4510A0E3 		mov	r1, #69
 815 0550 40029FE5 		ldr	r0, .L30
 816 0554 FEFFFFEB 		bl	chMBPostAheadI
 817              	.LVL84:
 818              		.loc 1 189 3 is_stmt 1 discriminator 2 view .LVU227
 819 0558 101F6FE1 		clz	r1, r0
 820 055c 2100A0E3 		mov	r0, #33
 821              	.LVL85:
 822              		.loc 1 189 3 is_stmt 0 discriminator 2 view .LVU228
 823 0560 A112A0E1 		lsr	r1, r1, #5
 824 0564 FEFFFFEB 		bl	_test_assert
 825              	.LVL86:
 826 0568 000050E3 		cmp	r0, #0
 827 056c C7FEFF1A 		bne	.L1
 828              		.loc 1 189 59 is_stmt 1 discriminator 2 view .LVU229
 829              		.loc 1 190 3 discriminator 2 view .LVU230
 830              		.loc 1 190 10 is_stmt 0 discriminator 2 view .LVU231
 831 0570 4410A0E3 		mov	r1, #68
 832 0574 1C029FE5 		ldr	r0, .L30
 833 0578 FEFFFFEB 		bl	chMBPostAheadI
 834              	.LVL87:
 835              		.loc 1 191 3 is_stmt 1 discriminator 2 view .LVU232
 836 057c 101F6FE1 		clz	r1, r0
 837 0580 2200A0E3 		mov	r0, #34
 838              	.LVL88:
 839              		.loc 1 191 3 is_stmt 0 discriminator 2 view .LVU233
 840 0584 A112A0E1 		lsr	r1, r1, #5
 841 0588 FEFFFFEB 		bl	_test_assert
 842              	.LVL89:
 843 058c 000050E3 		cmp	r0, #0
 844 0590 BEFEFF1A 		bne	.L1
 845              		.loc 1 191 59 is_stmt 1 discriminator 2 view .LVU234
 846              		.loc 1 192 3 discriminator 2 view .LVU235
 847              		.loc 1 192 10 is_stmt 0 discriminator 2 view .LVU236
 848 0594 4310A0E3 		mov	r1, #67
 849 0598 F8019FE5 		ldr	r0, .L30
 850 059c FEFFFFEB 		bl	chMBPostAheadI
 851              	.LVL90:
 852              		.loc 1 193 3 is_stmt 1 discriminator 2 view .LVU237
 853 05a0 101F6FE1 		clz	r1, r0
 854 05a4 2300A0E3 		mov	r0, #35
ARM GAS  /tmp/ccGdBEjb.s 			page 16


 855              	.LVL91:
 856              		.loc 1 193 3 is_stmt 0 discriminator 2 view .LVU238
 857 05a8 A112A0E1 		lsr	r1, r1, #5
 858 05ac FEFFFFEB 		bl	_test_assert
 859              	.LVL92:
 860 05b0 000050E3 		cmp	r0, #0
 861 05b4 B5FEFF1A 		bne	.L1
 862              		.loc 1 193 59 is_stmt 1 discriminator 2 view .LVU239
 863              		.loc 1 194 3 discriminator 2 view .LVU240
 864              		.loc 1 194 10 is_stmt 0 discriminator 2 view .LVU241
 865 05b8 4210A0E3 		mov	r1, #66
 866 05bc D4019FE5 		ldr	r0, .L30
 867 05c0 FEFFFFEB 		bl	chMBPostAheadI
 868              	.LVL93:
 869              		.loc 1 195 3 is_stmt 1 discriminator 2 view .LVU242
 870 05c4 101F6FE1 		clz	r1, r0
 871 05c8 2400A0E3 		mov	r0, #36
 872              	.LVL94:
 873              		.loc 1 195 3 is_stmt 0 discriminator 2 view .LVU243
 874 05cc A112A0E1 		lsr	r1, r1, #5
 875 05d0 FEFFFFEB 		bl	_test_assert
 876              	.LVL95:
 877 05d4 000050E3 		cmp	r0, #0
 878 05d8 ACFEFF1A 		bne	.L1
 879              		.loc 1 195 59 is_stmt 1 discriminator 2 view .LVU244
 880              		.loc 1 196 3 discriminator 2 view .LVU245
 881              		.loc 1 196 10 is_stmt 0 discriminator 2 view .LVU246
 882 05dc 4110A0E3 		mov	r1, #65
 883 05e0 B0019FE5 		ldr	r0, .L30
 884 05e4 FEFFFFEB 		bl	chMBPostAheadI
 885              	.LVL96:
 886              		.loc 1 197 3 is_stmt 1 discriminator 2 view .LVU247
 887              		.loc 1 197 3 discriminator 2 view .LVU248
 888              		.syntax divided
 889              	@ 197 "../test/testmbox.c" 1
 890 05e8 1FF021E3 		msr     CPSR_c, #0x1F
 891              	@ 0 "" 2
 892              		.loc 1 197 16 discriminator 2 view .LVU249
 893              		.loc 1 198 3 discriminator 2 view .LVU250
 894              		.arm
 895              		.syntax unified
 896 05ec 101F6FE1 		clz	r1, r0
 897 05f0 2500A0E3 		mov	r0, #37
 898              	.LVL97:
 899              		.loc 1 198 3 is_stmt 0 discriminator 2 view .LVU251
 900 05f4 A112A0E1 		lsr	r1, r1, #5
 901 05f8 FEFFFFEB 		bl	_test_assert
 902              	.LVL98:
 903 05fc 000050E3 		cmp	r0, #0
 904 0600 A2FEFF1A 		bne	.L1
 905              		.loc 1 198 59 is_stmt 1 discriminator 2 view .LVU252
 906              		.loc 1 199 3 discriminator 2 view .LVU253
 907 0604 0C1096E5 		ldr	r1, [r6, #12]
 908 0608 083096E5 		ldr	r3, [r6, #8]
 909 060c 2600A0E3 		mov	r0, #38
 910 0610 031041E0 		sub	r1, r1, r3
 911 0614 111F6FE1 		clz	r1, r1
ARM GAS  /tmp/ccGdBEjb.s 			page 17


 912 0618 A112A0E1 		lsr	r1, r1, #5
 913 061c FEFFFFEB 		bl	_test_assert
 914              	.LVL99:
 915 0620 000050E3 		cmp	r0, #0
 916 0624 99FEFF1A 		bne	.L1
 917 0628 0540A0E3 		mov	r4, #5
 918              	.LVL100:
 919              		.loc 1 202 12 is_stmt 0 view .LVU254
 920 062c 64519FE5 		ldr	r5, .L30
 921              	.L15:
 922              	.LVL101:
 923              		.loc 1 201 5 is_stmt 1 view .LVU255
 924              		.syntax divided
 925              	@ 201 "../test/testmbox.c" 1
 926 0630 9FF021E3 		msr     CPSR_c, #0x9F
 927              	@ 0 "" 2
 928              		.loc 1 201 5 view .LVU256
 929              		.loc 1 201 16 view .LVU257
 930              		.loc 1 202 5 view .LVU258
 931              		.loc 1 202 12 is_stmt 0 view .LVU259
 932              		.arm
 933              		.syntax unified
 934 0634 0500A0E1 		mov	r0, r5
 935 0638 04108DE2 		add	r1, sp, #4
 936 063c FEFFFFEB 		bl	chMBFetchI
 937              	.LVL102:
 938              		.loc 1 203 5 is_stmt 1 view .LVU260
 939              		.loc 1 203 5 view .LVU261
 940              		.syntax divided
 941              	@ 203 "../test/testmbox.c" 1
 942 0640 1FF021E3 		msr     CPSR_c, #0x1F
 943              	@ 0 "" 2
 944              		.loc 1 203 18 view .LVU262
 945              		.loc 1 204 5 view .LVU263
 946              		.arm
 947              		.syntax unified
 948 0644 101F6FE1 		clz	r1, r0
 949 0648 2700A0E3 		mov	r0, #39
 950              	.LVL103:
 951              		.loc 1 204 5 is_stmt 0 view .LVU264
 952 064c A112A0E1 		lsr	r1, r1, #5
 953 0650 FEFFFFEB 		bl	_test_assert
 954              	.LVL104:
 955              		.loc 1 204 61 is_stmt 1 view .LVU265
 956              		.loc 1 205 5 view .LVU266
 957              		.loc 1 204 5 is_stmt 0 view .LVU267
 958 0654 000050E3 		cmp	r0, #0
 959 0658 8CFEFF1A 		bne	.L1
 960              		.loc 1 205 5 discriminator 2 view .LVU268
 961 065c 0400DDE5 		ldrb	r0, [sp, #4]	@ zero_extendqisi2
 962 0660 FEFFFFEB 		bl	test_emit_token
 963              	.LVL105:
 964              		.loc 1 200 28 is_stmt 1 discriminator 2 view .LVU269
 965              		.loc 1 200 15 discriminator 2 view .LVU270
 966              		.loc 1 200 3 is_stmt 0 discriminator 2 view .LVU271
 967 0664 014054E2 		subs	r4, r4, #1
 968              	.LVL106:
ARM GAS  /tmp/ccGdBEjb.s 			page 18


 969              		.loc 1 200 3 discriminator 2 view .LVU272
 970 0668 F0FFFF1A 		bne	.L15
 971              		.loc 1 207 3 is_stmt 1 view .LVU273
 972 066c 2800A0E3 		mov	r0, #40
 973 0670 24119FE5 		ldr	r1, .L30+4
 974 0674 FEFFFFEB 		bl	_test_assert_sequence
 975              	.LVL107:
 976 0678 000050E3 		cmp	r0, #0
 977 067c 83FEFF1A 		bne	.L1
 978              		.loc 1 207 36 discriminator 2 view .LVU274
 979              		.loc 1 208 3 discriminator 2 view .LVU275
 980              		.syntax divided
 981              	@ 208 "../test/testmbox.c" 1
 982 0680 9FF021E3 		msr     CPSR_c, #0x9F
 983              	@ 0 "" 2
 984              		.loc 1 208 3 discriminator 2 view .LVU276
 985              		.loc 1 208 3 discriminator 2 view .LVU277
 986              		.loc 1 208 3 discriminator 2 view .LVU278
 987              		.arm
 988              		.syntax unified
 989 0684 241096E5 		ldr	r1, [r6, #36]
 990 0688 2900A0E3 		mov	r0, #41
 991 068c 051041E2 		sub	r1, r1, #5
 992 0690 111F6FE1 		clz	r1, r1
 993 0694 A112A0E1 		lsr	r1, r1, #5
 994 0698 FEFFFFEB 		bl	_test_assert
 995              	.LVL108:
 996 069c 000050E3 		cmp	r0, #0
 997 06a0 3A00001A 		bne	.L21
 998              		.loc 1 208 3 discriminator 2 view .LVU279
 999              		.loc 1 208 3 discriminator 2 view .LVU280
 1000              		.syntax divided
 1001              	@ 208 "../test/testmbox.c" 1
 1002 06a4 1FF021E3 		msr     CPSR_c, #0x1F
 1003              	@ 0 "" 2
 1004              		.loc 1 208 3 discriminator 2 view .LVU281
 1005              		.loc 1 208 72 discriminator 2 view .LVU282
 1006              		.loc 1 209 3 discriminator 2 view .LVU283
 1007              	@ 209 "../test/testmbox.c" 1
 1008 06a8 9FF021E3 		msr     CPSR_c, #0x9F
 1009              	@ 0 "" 2
 1010              		.loc 1 209 3 discriminator 2 view .LVU284
 1011              		.loc 1 209 3 discriminator 2 view .LVU285
 1012              		.loc 1 209 3 discriminator 2 view .LVU286
 1013              		.arm
 1014              		.syntax unified
 1015 06ac 181096E5 		ldr	r1, [r6, #24]
 1016 06b0 2A00A0E3 		mov	r0, #42
 1017 06b4 111F6FE1 		clz	r1, r1
 1018 06b8 A112A0E1 		lsr	r1, r1, #5
 1019 06bc FEFFFFEB 		bl	_test_assert
 1020              	.LVL109:
 1021 06c0 000050E3 		cmp	r0, #0
 1022 06c4 3100001A 		bne	.L21
 1023              		.loc 1 209 3 discriminator 2 view .LVU287
 1024              		.loc 1 209 3 discriminator 2 view .LVU288
 1025              		.syntax divided
ARM GAS  /tmp/ccGdBEjb.s 			page 19


 1026              	@ 209 "../test/testmbox.c" 1
 1027 06c8 1FF021E3 		msr     CPSR_c, #0x1F
 1028              	@ 0 "" 2
 1029              		.loc 1 209 3 discriminator 2 view .LVU289
 1030              		.loc 1 209 67 discriminator 2 view .LVU290
 1031              		.loc 1 210 3 discriminator 2 view .LVU291
 1032              		.arm
 1033              		.syntax unified
 1034 06cc 0C1096E5 		ldr	r1, [r6, #12]
 1035 06d0 083096E5 		ldr	r3, [r6, #8]
 1036 06d4 2B00A0E3 		mov	r0, #43
 1037 06d8 031041E0 		sub	r1, r1, r3
 1038 06dc 111F6FE1 		clz	r1, r1
 1039 06e0 A112A0E1 		lsr	r1, r1, #5
 1040 06e4 FEFFFFEB 		bl	_test_assert
 1041              	.LVL110:
 1042 06e8 000050E3 		cmp	r0, #0
 1043 06ec 67FEFF1A 		bne	.L1
 1044              		.loc 1 210 72 discriminator 2 view .LVU292
 1045              		.loc 1 215 3 discriminator 2 view .LVU293
 1046 06f0 A0009FE5 		ldr	r0, .L30
 1047 06f4 FEFFFFEB 		bl	chMBReset
 1048              	.LVL111:
 1049              		.loc 1 220 3 discriminator 2 view .LVU294
 1050              		.syntax divided
 1051              	@ 220 "../test/testmbox.c" 1
 1052 06f8 9FF021E3 		msr     CPSR_c, #0x9F
 1053              	@ 0 "" 2
 1054              		.loc 1 220 3 discriminator 2 view .LVU295
 1055              		.loc 1 220 3 discriminator 2 view .LVU296
 1056              		.loc 1 220 3 discriminator 2 view .LVU297
 1057              		.arm
 1058              		.syntax unified
 1059 06fc 241096E5 		ldr	r1, [r6, #36]
 1060 0700 2C00A0E3 		mov	r0, #44
 1061 0704 051041E2 		sub	r1, r1, #5
 1062 0708 111F6FE1 		clz	r1, r1
 1063 070c A112A0E1 		lsr	r1, r1, #5
 1064 0710 FEFFFFEB 		bl	_test_assert
 1065              	.LVL112:
 1066 0714 000050E3 		cmp	r0, #0
 1067 0718 1C00001A 		bne	.L21
 1068              		.loc 1 220 3 discriminator 2 view .LVU298
 1069              		.loc 1 220 3 discriminator 2 view .LVU299
 1070              		.syntax divided
 1071              	@ 220 "../test/testmbox.c" 1
 1072 071c 1FF021E3 		msr     CPSR_c, #0x1F
 1073              	@ 0 "" 2
 1074              		.loc 1 220 3 discriminator 2 view .LVU300
 1075              		.loc 1 220 72 discriminator 2 view .LVU301
 1076              		.loc 1 221 3 discriminator 2 view .LVU302
 1077              	@ 221 "../test/testmbox.c" 1
 1078 0720 9FF021E3 		msr     CPSR_c, #0x9F
 1079              	@ 0 "" 2
 1080              		.loc 1 221 3 discriminator 2 view .LVU303
 1081              		.loc 1 221 3 discriminator 2 view .LVU304
 1082              		.loc 1 221 3 discriminator 2 view .LVU305
ARM GAS  /tmp/ccGdBEjb.s 			page 20


 1083              		.arm
 1084              		.syntax unified
 1085 0724 181096E5 		ldr	r1, [r6, #24]
 1086 0728 2D00A0E3 		mov	r0, #45
 1087 072c 111F6FE1 		clz	r1, r1
 1088 0730 A112A0E1 		lsr	r1, r1, #5
 1089 0734 FEFFFFEB 		bl	_test_assert
 1090              	.LVL113:
 1091 0738 000050E3 		cmp	r0, #0
 1092 073c 1300001A 		bne	.L21
 1093              		.loc 1 221 3 discriminator 2 view .LVU306
 1094              		.loc 1 221 3 discriminator 2 view .LVU307
 1095              		.syntax divided
 1096              	@ 221 "../test/testmbox.c" 1
 1097 0740 1FF021E3 		msr     CPSR_c, #0x1F
 1098              	@ 0 "" 2
 1099              		.loc 1 221 3 discriminator 2 view .LVU308
 1100              		.loc 1 221 67 discriminator 2 view .LVU309
 1101              		.loc 1 222 3 discriminator 2 view .LVU310
 1102              	@ 222 "../test/testmbox.c" 1
 1103 0744 9FF021E3 		msr     CPSR_c, #0x9F
 1104              	@ 0 "" 2
 1105              		.loc 1 222 3 discriminator 2 view .LVU311
 1106              		.loc 1 222 3 discriminator 2 view .LVU312
 1107              		.loc 1 222 3 discriminator 2 view .LVU313
 1108              		.arm
 1109              		.syntax unified
 1110 0748 001096E5 		ldr	r1, [r6]
 1111 074c 083096E5 		ldr	r3, [r6, #8]
 1112 0750 2E00A0E3 		mov	r0, #46
 1113 0754 031041E0 		sub	r1, r1, r3
 1114 0758 111F6FE1 		clz	r1, r1
 1115 075c A112A0E1 		lsr	r1, r1, #5
 1116 0760 FEFFFFEB 		bl	_test_assert
 1117              	.LVL114:
 1118 0764 000050E3 		cmp	r0, #0
 1119 0768 0800001A 		bne	.L21
 1120              		.loc 1 222 3 discriminator 2 view .LVU314
 1121              		.loc 1 222 3 discriminator 2 view .LVU315
 1122              		.syntax divided
 1123              	@ 222 "../test/testmbox.c" 1
 1124 076c 1FF021E3 		msr     CPSR_c, #0x1F
 1125              	@ 0 "" 2
 1126              		.loc 1 222 3 discriminator 2 view .LVU316
 1127              		.loc 1 222 91 discriminator 2 view .LVU317
 1128              		.loc 1 223 3 discriminator 2 view .LVU318
 1129              	@ 223 "../test/testmbox.c" 1
 1130 0770 9FF021E3 		msr     CPSR_c, #0x9F
 1131              	@ 0 "" 2
 1132              		.loc 1 223 3 discriminator 2 view .LVU319
 1133              		.loc 1 223 3 discriminator 2 view .LVU320
 1134              		.loc 1 223 3 discriminator 2 view .LVU321
 1135              		.arm
 1136              		.syntax unified
 1137 0774 001096E5 		ldr	r1, [r6]
 1138 0778 0C3096E5 		ldr	r3, [r6, #12]
 1139 077c 2F00A0E3 		mov	r0, #47
ARM GAS  /tmp/ccGdBEjb.s 			page 21


 1140 0780 031041E0 		sub	r1, r1, r3
 1141 0784 111F6FE1 		clz	r1, r1
 1142 0788 A112A0E1 		lsr	r1, r1, #5
 1143 078c FEFFFFEB 		bl	_test_assert
 1144              	.LVL115:
 1145              	.L21:
 1146              		.loc 1 223 3 discriminator 2 view .LVU322
 1147              		.loc 1 223 3 discriminator 2 view .LVU323
 1148              		.syntax divided
 1149              	@ 223 "../test/testmbox.c" 1
 1150 0790 1FF021E3 		msr     CPSR_c, #0x1F
 1151              	@ 0 "" 2
 1152              		.loc 1 223 3 discriminator 2 view .LVU324
 1153              		.loc 1 223 90 discriminator 2 view .LVU325
 1154              		.arm
 1155              		.syntax unified
 1156 0794 3DFEFFEA 		b	.L1
 1157              	.L31:
 1158              		.align	2
 1159              	.L30:
 1160 0798 00000000 		.word	.LANCHOR0
 1161 079c 00000000 		.word	.LC0
 1162              		.cfi_endproc
 1163              	.LFE8:
 1164              		.size	mbox1_execute, .-mbox1_execute
 1165              		.section	.text.mbox1_setup,"ax",%progbits
 1166              		.align	2
 1167              		.syntax unified
 1168              		.arm
 1169              		.fpu softvfp
 1170              		.type	mbox1_setup, %function
 1171              	mbox1_setup:
 1172              	.LFB7:
 1173              		.loc 1 75 31 view -0
 1174              		.cfi_startproc
 1175              		@ args = 0, pretend = 0, frame = 0
 1176              		@ frame_needed = 0, uses_anonymous_args = 0
 1177              		@ link register save eliminated.
 1178              		.loc 1 77 3 view .LVU327
 1179 0000 0520A0E3 		mov	r2, #5
 1180 0004 04109FE5 		ldr	r1, .L33
 1181 0008 04009FE5 		ldr	r0, .L33+4
 1182 000c FEFFFFEA 		b	chMBInit
 1183              	.LVL116:
 1184              	.L34:
 1185              		.align	2
 1186              	.L33:
 1187 0010 00000000 		.word	test
 1188 0014 00000000 		.word	.LANCHOR0
 1189              		.cfi_endproc
 1190              	.LFE7:
 1191              		.size	mbox1_setup, .-mbox1_setup
 1192              		.global	patternmbox
 1193              		.global	testmbox1
 1194              		.section	.rodata.str1.4,"aMS",%progbits,1
 1195              		.align	2
 1196              	.LC1:
ARM GAS  /tmp/ccGdBEjb.s 			page 22


 1197 0000 4D61696C 		.ascii	"Mailboxes, queuing and timeouts\000"
 1197      626F7865 
 1197      732C2071 
 1197      75657569 
 1197      6E672061 
 1198              		.section	.data.mb1,"aw"
 1199              		.align	2
 1200              		.set	.LANCHOR0,. + 0
 1201              		.type	mb1, %object
 1202              		.size	mb1, 40
 1203              	mb1:
 1204 0000 00000000 		.word	test
 1205 0004 14000000 		.word	test+20
 1206 0008 00000000 		.word	test
 1207 000c 00000000 		.word	test
 1208 0010 10000000 		.word	mb1+16
 1209 0014 10000000 		.word	mb1+16
 1210 0018 00000000 		.word	0
 1211 001c 1C000000 		.word	mb1+28
 1212 0020 1C000000 		.word	mb1+28
 1213 0024 05000000 		.word	5
 1214              		.section	.rodata.patternmbox,"a"
 1215              		.align	2
 1216              		.type	patternmbox, %object
 1217              		.size	patternmbox, 8
 1218              	patternmbox:
 1219 0000 00000000 		.word	testmbox1
 1220 0004 00000000 		.word	0
 1221              		.section	.rodata.testmbox1,"a"
 1222              		.align	2
 1223              		.type	testmbox1, %object
 1224              		.size	testmbox1, 16
 1225              	testmbox1:
 1226 0000 00000000 		.word	.LC1
 1227 0004 00000000 		.word	mbox1_setup
 1228 0008 00000000 		.word	0
 1229 000c 00000000 		.word	mbox1_execute
 1230              		.text
 1231              	.Letext0:
 1232              		.file 2 "/usr/lib/gcc/arm-none-eabi/9.2.1/include/stdint.h"
 1233              		.file 3 "../os/ports/GCC/ARM/chtypes.h"
 1234              		.file 4 "../os/kernel/include/chlists.h"
 1235              		.file 5 "../os/kernel/include/chthreads.h"
 1236              		.file 6 "../os/ports/GCC/ARM/chcore.h"
 1237              		.file 7 "../os/kernel/include/chvt.h"
 1238              		.file 8 "../os/kernel/include/chschd.h"
 1239              		.file 9 "../os/kernel/include/chsem.h"
 1240              		.file 10 "../os/kernel/include/chmtx.h"
 1241              		.file 11 "../os/kernel/include/chmboxes.h"
 1242              		.file 12 "../os/kernel/include/chregistry.h"
 1243              		.file 13 "../os/kernel/include/ch.h"
 1244              		.file 14 "../test/test.h"