ARM GAS  /tmp/ccesbR0I.s 			page 1


   1              		.cpu arm1176jz-s
   2              		.eabi_attribute 20, 1
   3              		.eabi_attribute 21, 1
   4              		.eabi_attribute 23, 3
   5              		.eabi_attribute 24, 1
   6              		.eabi_attribute 25, 1
   7              		.eabi_attribute 26, 1
   8              		.eabi_attribute 30, 2
   9              		.eabi_attribute 34, 1
  10              		.eabi_attribute 18, 4
  11              		.file	"tm.c"
  12              		.text
  13              	.Ltext0:
  14              		.cfi_sections	.debug_frame
  15              		.section	.text.tm_start,"ax",%progbits
  16              		.align	2
  17              		.arch armv6kz
  18              		.syntax unified
  19              		.arm
  20              		.fpu softvfp
  21              		.type	tm_start, %function
  22              	tm_start:
  23              	.LVL0:
  24              	.LFB7:
  25              		.file 1 "../os/hal/src/tm.c"
  26              		.loc 1 62 44 view -0
  27              		.cfi_startproc
  28              		@ args = 0, pretend = 0, frame = 0
  29              		@ frame_needed = 0, uses_anonymous_args = 0
  30              		@ link register save eliminated.
  31              		.loc 1 64 3 view .LVU1
  32              		.loc 1 64 15 is_stmt 0 view .LVU2
  33 0000 08309FE5 		ldr	r3, .L3
  34 0004 043093E5 		ldr	r3, [r3, #4]
  35              		.loc 1 64 13 view .LVU3
  36 0008 083080E5 		str	r3, [r0, #8]
  37              		.loc 1 65 1 view .LVU4
  38 000c 1EFF2FE1 		bx	lr
  39              	.L4:
  40              		.align	2
  41              	.L3:
  42 0010 00300020 		.word	536883200
  43              		.cfi_endproc
  44              	.LFE7:
  45              		.size	tm_start, .-tm_start
  46              		.section	.text.tm_stop,"ax",%progbits
  47              		.align	2
  48              		.syntax unified
  49              		.arm
  50              		.fpu softvfp
  51              		.type	tm_stop, %function
  52              	tm_stop:
  53              	.LVL1:
  54              	.LFB8:
  55              		.loc 1 74 43 is_stmt 1 view -0
  56              		.cfi_startproc
  57              		@ args = 0, pretend = 0, frame = 0
ARM GAS  /tmp/ccesbR0I.s 			page 2


  58              		@ frame_needed = 0, uses_anonymous_args = 0
  59              		@ link register save eliminated.
  60              		.loc 1 76 3 view .LVU6
  61              		.loc 1 76 14 is_stmt 0 view .LVU7
  62 0000 3C309FE5 		ldr	r3, .L8
  63              		.loc 1 77 31 view .LVU8
  64 0004 3C209FE5 		ldr	r2, .L8+4
  65              		.loc 1 76 14 view .LVU9
  66 0008 043093E5 		ldr	r3, [r3, #4]
  67              	.LVL2:
  68              		.loc 1 77 3 is_stmt 1 view .LVU10
  69              		.loc 1 77 31 is_stmt 0 view .LVU11
  70 000c 002092E5 		ldr	r2, [r2]
  71 0010 081090E5 		ldr	r1, [r0, #8]
  72 0014 023043E0 		sub	r3, r3, r2
  73              	.LVL3:
  74              		.loc 1 78 6 view .LVU12
  75 0018 0C2090E5 		ldr	r2, [r0, #12]
  76              		.loc 1 77 31 view .LVU13
  77 001c 013043E0 		sub	r3, r3, r1
  78              		.loc 1 78 6 view .LVU14
  79 0020 020053E1 		cmp	r3, r2
  80              		.loc 1 77 13 view .LVU15
  81 0024 083080E5 		str	r3, [r0, #8]
  82              		.loc 1 78 3 is_stmt 1 view .LVU16
  83              		.loc 1 78 6 is_stmt 0 view .LVU17
  84 0028 0100009A 		bls	.L6
  85              		.loc 1 79 7 is_stmt 1 view .LVU18
  86              		.loc 1 79 18 is_stmt 0 view .LVU19
  87 002c 0C3080E5 		str	r3, [r0, #12]
  88 0030 1EFF2FE1 		bx	lr
  89              	.L6:
  90              		.loc 1 80 8 is_stmt 1 view .LVU20
  91              		.loc 1 80 11 is_stmt 0 view .LVU21
  92 0034 102090E5 		ldr	r2, [r0, #16]
  93 0038 020053E1 		cmp	r3, r2
  94              		.loc 1 81 7 is_stmt 1 view .LVU22
  95              		.loc 1 81 17 is_stmt 0 view .LVU23
  96 003c 10308035 		strcc	r3, [r0, #16]
  97              		.loc 1 82 1 view .LVU24
  98 0040 1EFF2FE1 		bx	lr
  99              	.L9:
 100              		.align	2
 101              	.L8:
 102 0044 00300020 		.word	536883200
 103 0048 00000000 		.word	.LANCHOR0
 104              		.cfi_endproc
 105              	.LFE8:
 106              		.size	tm_stop, .-tm_stop
 107              		.section	.text.tmInit,"ax",%progbits
 108              		.align	2
 109              		.global	tmInit
 110              		.syntax unified
 111              		.arm
 112              		.fpu softvfp
 113              		.type	tmInit, %function
 114              	tmInit:
ARM GAS  /tmp/ccesbR0I.s 			page 3


 115              	.LFB9:
 116              		.loc 1 97 19 is_stmt 1 view -0
 117              		.cfi_startproc
 118              		@ args = 0, pretend = 0, frame = 24
 119              		@ frame_needed = 0, uses_anonymous_args = 0
 120              		.loc 1 98 3 view .LVU26
 121              		.loc 1 103 3 view .LVU27
 122              		.loc 1 103 22 is_stmt 0 view .LVU28
 123 0000 0030A0E3 		mov	r3, #0
 124              	.LBB8:
 125              	.LBB9:
 126              		.loc 1 123 14 view .LVU29
 127 0004 0010E0E3 		mvn	r1, #0
 128              	.LBE9:
 129              	.LBE8:
 130              		.loc 1 97 19 view .LVU30
 131 0008 10402DE9 		push	{r4, lr}
 132              		.cfi_def_cfa_offset 8
 133              		.cfi_offset 4, -8
 134              		.cfi_offset 14, -4
 135              		.loc 1 103 22 view .LVU31
 136 000c 40409FE5 		ldr	r4, .L12
 137              		.loc 1 97 19 view .LVU32
 138 0010 18D04DE2 		sub	sp, sp, #24
 139              		.cfi_def_cfa_offset 32
 140              	.LBB14:
 141              	.LBB15:
 142              		.loc 1 64 15 view .LVU33
 143 0014 3C209FE5 		ldr	r2, .L12+4
 144              	.LBE15:
 145              	.LBE14:
 146              	.LBB19:
 147              	.LBB10:
 148              		.loc 1 121 14 view .LVU34
 149 0018 0C308DE5 		str	r3, [sp, #12]
 150              		.loc 1 122 14 view .LVU35
 151 001c 10308DE5 		str	r3, [sp, #16]
 152              	.LBE10:
 153              	.LBE19:
 154              		.loc 1 103 22 view .LVU36
 155 0020 003084E5 		str	r3, [r4]
 156              		.loc 1 104 3 is_stmt 1 view .LVU37
 157              	.LVL4:
 158              	.LBB20:
 159              	.LBI8:
 160              		.loc 1 117 6 view .LVU38
 161              	.LBB11:
 162              		.loc 1 119 3 view .LVU39
 163              		.loc 1 123 14 is_stmt 0 view .LVU40
 164 0024 14108DE5 		str	r1, [sp, #20]
 165              	.LBE11:
 166              	.LBE20:
 167              	.LBB21:
 168              	.LBB16:
 169              		.loc 1 64 15 view .LVU41
 170 0028 041092E5 		ldr	r1, [r2, #4]
 171              	.LBE16:
ARM GAS  /tmp/ccesbR0I.s 			page 4


 172              	.LBE21:
 173              	.LBB22:
 174              	.LBB12:
 175              		.loc 1 120 14 view .LVU42
 176 002c 28309FE5 		ldr	r3, .L12+8
 177              		.loc 1 119 14 view .LVU43
 178 0030 28209FE5 		ldr	r2, .L12+12
 179              	.LBE12:
 180              	.LBE22:
 181              		.loc 1 106 3 view .LVU44
 182 0034 04008DE2 		add	r0, sp, #4
 183              	.LVL5:
 184              	.LBB23:
 185              	.LBB13:
 186              		.loc 1 120 14 view .LVU45
 187 0038 F420CDE1 		strd	r2, [sp, #4]
 188              		.loc 1 121 3 is_stmt 1 view .LVU46
 189              		.loc 1 122 3 view .LVU47
 190              		.loc 1 123 3 view .LVU48
 191              	.LVL6:
 192              		.loc 1 123 3 is_stmt 0 view .LVU49
 193              	.LBE13:
 194              	.LBE23:
 195              		.loc 1 105 3 is_stmt 1 view .LVU50
 196              	.LBB24:
 197              	.LBI14:
 198              		.loc 1 62 13 view .LVU51
 199              	.LBB17:
 200              		.loc 1 64 3 view .LVU52
 201              		.loc 1 64 3 is_stmt 0 view .LVU53
 202              	.LBE17:
 203              	.LBE24:
 204              		.loc 1 106 3 is_stmt 1 view .LVU54
 205              	.LBB25:
 206              	.LBB18:
 207              		.loc 1 64 13 is_stmt 0 view .LVU55
 208 003c 0C108DE5 		str	r1, [sp, #12]
 209              	.LBE18:
 210              	.LBE25:
 211              		.loc 1 106 3 view .LVU56
 212 0040 FEFFFFEB 		bl	tm_stop
 213              	.LVL7:
 214              		.loc 1 107 3 is_stmt 1 view .LVU57
 215              		.loc 1 107 22 is_stmt 0 view .LVU58
 216 0044 0C309DE5 		ldr	r3, [sp, #12]
 217 0048 003084E5 		str	r3, [r4]
 218              		.loc 1 108 1 view .LVU59
 219 004c 18D08DE2 		add	sp, sp, #24
 220              		.cfi_def_cfa_offset 8
 221              		@ sp needed
 222 0050 1080BDE8 		pop	{r4, pc}
 223              	.L13:
 224              		.align	2
 225              	.L12:
 226 0054 00000000 		.word	.LANCHOR0
 227 0058 00300020 		.word	536883200
 228 005c 00000000 		.word	tm_stop
ARM GAS  /tmp/ccesbR0I.s 			page 5


 229 0060 00000000 		.word	tm_start
 230              		.cfi_endproc
 231              	.LFE9:
 232              		.size	tmInit, .-tmInit
 233              		.section	.text.tmObjectInit,"ax",%progbits
 234              		.align	2
 235              		.global	tmObjectInit
 236              		.syntax unified
 237              		.arm
 238              		.fpu softvfp
 239              		.type	tmObjectInit, %function
 240              	tmObjectInit:
 241              	.LVL8:
 242              	.LFB10:
 243              		.loc 1 117 41 is_stmt 1 view -0
 244              		.cfi_startproc
 245              		@ args = 0, pretend = 0, frame = 0
 246              		@ frame_needed = 0, uses_anonymous_args = 0
 247              		@ link register save eliminated.
 248              		.loc 1 119 3 view .LVU61
 249              		.loc 1 121 14 is_stmt 0 view .LVU62
 250 0000 0030A0E3 		mov	r3, #0
 251              		.loc 1 123 14 view .LVU63
 252 0004 0020E0E3 		mvn	r2, #0
 253              		.loc 1 119 14 view .LVU64
 254 0008 18C09FE5 		ldr	ip, .L15
 255              		.loc 1 120 14 view .LVU65
 256 000c 18109FE5 		ldr	r1, .L15+4
 257              		.loc 1 119 14 view .LVU66
 258 0010 00C080E5 		str	ip, [r0]
 259              		.loc 1 120 3 is_stmt 1 view .LVU67
 260              		.loc 1 120 14 is_stmt 0 view .LVU68
 261 0014 041080E5 		str	r1, [r0, #4]
 262              		.loc 1 121 3 is_stmt 1 view .LVU69
 263              		.loc 1 123 14 is_stmt 0 view .LVU70
 264 0018 102080E5 		str	r2, [r0, #16]
 265              		.loc 1 121 14 view .LVU71
 266 001c 083080E5 		str	r3, [r0, #8]
 267              		.loc 1 122 3 is_stmt 1 view .LVU72
 268              		.loc 1 122 14 is_stmt 0 view .LVU73
 269 0020 0C3080E5 		str	r3, [r0, #12]
 270              		.loc 1 123 3 is_stmt 1 view .LVU74
 271              		.loc 1 124 1 is_stmt 0 view .LVU75
 272 0024 1EFF2FE1 		bx	lr
 273              	.L16:
 274              		.align	2
 275              	.L15:
 276 0028 00000000 		.word	tm_start
 277 002c 00000000 		.word	tm_stop
 278              		.cfi_endproc
 279              	.LFE10:
 280              		.size	tmObjectInit, .-tmObjectInit
 281              		.section	.bss.measurement_offset,"aw",%nobits
 282              		.align	2
 283              		.set	.LANCHOR0,. + 0
 284              		.type	measurement_offset, %object
 285              		.size	measurement_offset, 4
ARM GAS  /tmp/ccesbR0I.s 			page 6


 286              	measurement_offset:
 287 0000 00000000 		.space	4
 288              		.text
 289              	.Letext0:
 290              		.file 2 "/usr/lib/gcc/arm-none-eabi/9.2.1/include/stddef.h"
 291              		.file 3 "/usr/lib/gcc/arm-none-eabi/9.2.1/include/stdint.h"
 292              		.file 4 "../os/ports/GCC/ARM/chtypes.h"
 293              		.file 5 "../os/kernel/include/chlists.h"
 294              		.file 6 "../os/kernel/include/chthreads.h"
 295              		.file 7 "../os/ports/GCC/ARM/chcore.h"
 296              		.file 8 "../os/kernel/include/chvt.h"
 297              		.file 9 "../os/kernel/include/chschd.h"
 298              		.file 10 "../os/kernel/include/chmtx.h"
 299              		.file 11 "../os/kernel/include/chevents.h"
 300              		.file 12 "../os/kernel/include/chregistry.h"
 301              		.file 13 "../os/kernel/include/chqueues.h"
 302              		.file 14 "../os/kernel/include/ch.h"
 303              		.file 15 "../os/hal/platforms/BCM2835/bcm2835.h"
 304              		.file 16 "../os/hal/platforms/BCM2835/hal_lld.h"
 305              		.file 17 "../os/hal/include/tm.h"
 306              		.file 18 "../os/hal/platforms/BCM2835/pal_lld.h"
 307              		.file 19 "../os/hal/include/i2c.h"
 308              		.file 20 "../os/hal/platforms/BCM2835/i2c_lld.h"
 309              		.file 21 "../os/hal/include/serial.h"
 310              		.file 22 "../os/hal/include/spi.h"
 311              		.file 23 "../os/hal/platforms/BCM2835/spi_lld.h"
 312              		.file 24 "../os/hal/platforms/BCM2835/serial_lld.h"
 313              		.section	.debug_info,"",%progbits
 314              	.Ldebug_info0:
 315 0000 790F0000 		.4byte	0xf79
 316 0004 0400     		.2byte	0x4
 317 0006 00000000 		.4byte	.Ldebug_abbrev0
 318 000a 04       		.byte	0x4
 319 000b 01       		.uleb128 0x1
 320 000c 13000000 		.4byte	.LASF204
 321 0010 0C       		.byte	0xc
 322 0011 58060000 		.4byte	.LASF205
 323 0015 D7060000 		.4byte	.LASF206
 324 0019 58000000 		.4byte	.Ldebug_ranges0+0x58
 325 001d 00000000 		.4byte	0
 326 0021 00000000 		.4byte	.Ldebug_line0
 327 0025 02       		.uleb128 0x2
 328 0026 04       		.byte	0x4
 329 0027 05       		.byte	0x5
 330 0028 696E7400 		.ascii	"int\000"
 331 002c 03       		.uleb128 0x3
 332 002d 0C030000 		.4byte	.LASF3
 333 0031 02       		.byte	0x2
 334 0032 D1       		.byte	0xd1
 335 0033 17       		.byte	0x17
 336 0034 38000000 		.4byte	0x38
 337 0038 04       		.uleb128 0x4
 338 0039 04       		.byte	0x4
 339 003a 07       		.byte	0x7
 340 003b 32030000 		.4byte	.LASF0
 341 003f 05       		.uleb128 0x5
 342 0040 38000000 		.4byte	0x38
ARM GAS  /tmp/ccesbR0I.s 			page 7


 343 0044 04       		.uleb128 0x4
 344 0045 01       		.byte	0x1
 345 0046 06       		.byte	0x6
 346 0047 BD010000 		.4byte	.LASF1
 347 004b 04       		.uleb128 0x4
 348 004c 02       		.byte	0x2
 349 004d 05       		.byte	0x5
 350 004e F3050000 		.4byte	.LASF2
 351 0052 03       		.uleb128 0x3
 352 0053 BE050000 		.4byte	.LASF4
 353 0057 03       		.byte	0x3
 354 0058 28       		.byte	0x28
 355 0059 18       		.byte	0x18
 356 005a 5E000000 		.4byte	0x5e
 357 005e 04       		.uleb128 0x4
 358 005f 04       		.byte	0x4
 359 0060 05       		.byte	0x5
 360 0061 29020000 		.4byte	.LASF5
 361 0065 04       		.uleb128 0x4
 362 0066 08       		.byte	0x8
 363 0067 05       		.byte	0x5
 364 0068 AF010000 		.4byte	.LASF6
 365 006c 03       		.uleb128 0x3
 366 006d 57080000 		.4byte	.LASF7
 367 0071 03       		.byte	0x3
 368 0072 2E       		.byte	0x2e
 369 0073 18       		.byte	0x18
 370 0074 7D000000 		.4byte	0x7d
 371 0078 06       		.uleb128 0x6
 372 0079 6C000000 		.4byte	0x6c
 373 007d 04       		.uleb128 0x4
 374 007e 01       		.byte	0x1
 375 007f 08       		.byte	0x8
 376 0080 C6050000 		.4byte	.LASF8
 377 0084 03       		.uleb128 0x3
 378 0085 5B020000 		.4byte	.LASF9
 379 0089 03       		.byte	0x3
 380 008a 31       		.byte	0x31
 381 008b 19       		.byte	0x19
 382 008c 90000000 		.4byte	0x90
 383 0090 04       		.uleb128 0x4
 384 0091 02       		.byte	0x2
 385 0092 07       		.byte	0x7
 386 0093 CC030000 		.4byte	.LASF10
 387 0097 03       		.uleb128 0x3
 388 0098 AD060000 		.4byte	.LASF11
 389 009c 03       		.byte	0x3
 390 009d 34       		.byte	0x34
 391 009e 19       		.byte	0x19
 392 009f A8000000 		.4byte	0xa8
 393 00a3 05       		.uleb128 0x5
 394 00a4 97000000 		.4byte	0x97
 395 00a8 04       		.uleb128 0x4
 396 00a9 04       		.byte	0x4
 397 00aa 07       		.byte	0x7
 398 00ab 6B030000 		.4byte	.LASF12
 399 00af 04       		.uleb128 0x4
ARM GAS  /tmp/ccesbR0I.s 			page 8


 400 00b0 08       		.byte	0x8
 401 00b1 07       		.byte	0x7
 402 00b2 3C010000 		.4byte	.LASF13
 403 00b6 03       		.uleb128 0x3
 404 00b7 0B040000 		.4byte	.LASF14
 405 00bb 04       		.byte	0x4
 406 00bc 2A       		.byte	0x2a
 407 00bd 19       		.byte	0x19
 408 00be 6C000000 		.4byte	0x6c
 409 00c2 03       		.uleb128 0x3
 410 00c3 32020000 		.4byte	.LASF15
 411 00c7 04       		.byte	0x4
 412 00c8 2B       		.byte	0x2b
 413 00c9 19       		.byte	0x19
 414 00ca 6C000000 		.4byte	0x6c
 415 00ce 03       		.uleb128 0x3
 416 00cf 6E050000 		.4byte	.LASF16
 417 00d3 04       		.byte	0x4
 418 00d4 2C       		.byte	0x2c
 419 00d5 19       		.byte	0x19
 420 00d6 6C000000 		.4byte	0x6c
 421 00da 03       		.uleb128 0x3
 422 00db 04020000 		.4byte	.LASF17
 423 00df 04       		.byte	0x4
 424 00e0 2D       		.byte	0x2d
 425 00e1 19       		.byte	0x19
 426 00e2 6C000000 		.4byte	0x6c
 427 00e6 03       		.uleb128 0x3
 428 00e7 9D050000 		.4byte	.LASF18
 429 00eb 04       		.byte	0x4
 430 00ec 2E       		.byte	0x2e
 431 00ed 19       		.byte	0x19
 432 00ee 97000000 		.4byte	0x97
 433 00f2 03       		.uleb128 0x3
 434 00f3 F1030000 		.4byte	.LASF19
 435 00f7 04       		.byte	0x4
 436 00f8 2F       		.byte	0x2f
 437 00f9 19       		.byte	0x19
 438 00fa 52000000 		.4byte	0x52
 439 00fe 03       		.uleb128 0x3
 440 00ff 2C040000 		.4byte	.LASF20
 441 0103 04       		.byte	0x4
 442 0104 31       		.byte	0x31
 443 0105 19       		.byte	0x19
 444 0106 97000000 		.4byte	0x97
 445 010a 03       		.uleb128 0x3
 446 010b FF070000 		.4byte	.LASF21
 447 010f 04       		.byte	0x4
 448 0110 32       		.byte	0x32
 449 0111 19       		.byte	0x19
 450 0112 97000000 		.4byte	0x97
 451 0116 03       		.uleb128 0x3
 452 0117 80070000 		.4byte	.LASF22
 453 011b 04       		.byte	0x4
 454 011c 33       		.byte	0x33
 455 011d 19       		.byte	0x19
 456 011e 97000000 		.4byte	0x97
ARM GAS  /tmp/ccesbR0I.s 			page 9


 457 0122 05       		.uleb128 0x5
 458 0123 16010000 		.4byte	0x116
 459 0127 03       		.uleb128 0x3
 460 0128 6B060000 		.4byte	.LASF23
 461 012c 05       		.byte	0x5
 462 012d 23       		.byte	0x23
 463 012e 17       		.byte	0x17
 464 012f 33010000 		.4byte	0x133
 465 0133 07       		.uleb128 0x7
 466 0134 6B060000 		.4byte	.LASF23
 467 0138 44       		.byte	0x44
 468 0139 06       		.byte	0x6
 469 013a 57       		.byte	0x57
 470 013b 08       		.byte	0x8
 471 013c 38020000 		.4byte	0x238
 472 0140 08       		.uleb128 0x8
 473 0141 32060000 		.4byte	.LASF24
 474 0145 06       		.byte	0x6
 475 0146 58       		.byte	0x58
 476 0147 1A       		.byte	0x1a
 477 0148 5C020000 		.4byte	0x25c
 478 014c 00       		.byte	0
 479 014d 08       		.uleb128 0x8
 480 014e 96050000 		.4byte	.LASF25
 481 0152 06       		.byte	0x6
 482 0153 5A       		.byte	0x5a
 483 0154 1A       		.byte	0x1a
 484 0155 5C020000 		.4byte	0x25c
 485 0159 04       		.byte	0x4
 486 015a 08       		.uleb128 0x8
 487 015b 7D010000 		.4byte	.LASF26
 488 015f 06       		.byte	0x6
 489 0160 5C       		.byte	0x5c
 490 0161 19       		.byte	0x19
 491 0162 E6000000 		.4byte	0xe6
 492 0166 08       		.byte	0x8
 493 0167 08       		.uleb128 0x8
 494 0168 01090000 		.4byte	.LASF27
 495 016c 06       		.byte	0x6
 496 016d 5D       		.byte	0x5d
 497 016e 19       		.byte	0x19
 498 016f 27030000 		.4byte	0x327
 499 0173 0C       		.byte	0xc
 500 0174 08       		.uleb128 0x8
 501 0175 8D020000 		.4byte	.LASF28
 502 0179 06       		.byte	0x6
 503 017a 5F       		.byte	0x5f
 504 017b 1A       		.byte	0x1a
 505 017c 5C020000 		.4byte	0x25c
 506 0180 10       		.byte	0x10
 507 0181 08       		.uleb128 0x8
 508 0182 E4040000 		.4byte	.LASF29
 509 0186 06       		.byte	0x6
 510 0187 60       		.byte	0x60
 511 0188 1A       		.byte	0x1a
 512 0189 5C020000 		.4byte	0x25c
 513 018d 14       		.byte	0x14
ARM GAS  /tmp/ccesbR0I.s 			page 10


 514 018e 08       		.uleb128 0x8
 515 018f 80080000 		.4byte	.LASF30
 516 0193 06       		.byte	0x6
 517 0194 67       		.byte	0x67
 518 0195 1A       		.byte	0x1a
 519 0196 88050000 		.4byte	0x588
 520 019a 18       		.byte	0x18
 521 019b 08       		.uleb128 0x8
 522 019c FD050000 		.4byte	.LASF31
 523 01a0 06       		.byte	0x6
 524 01a1 72       		.byte	0x72
 525 01a2 19       		.byte	0x19
 526 01a3 C2000000 		.4byte	0xc2
 527 01a7 1C       		.byte	0x1c
 528 01a8 08       		.uleb128 0x8
 529 01a9 50060000 		.4byte	.LASF32
 530 01ad 06       		.byte	0x6
 531 01ae 76       		.byte	0x76
 532 01af 19       		.byte	0x19
 533 01b0 B6000000 		.4byte	0xb6
 534 01b4 1D       		.byte	0x1d
 535 01b5 08       		.uleb128 0x8
 536 01b6 30080000 		.4byte	.LASF33
 537 01ba 06       		.byte	0x6
 538 01bb 7B       		.byte	0x7b
 539 01bc 19       		.byte	0x19
 540 01bd CE000000 		.4byte	0xce
 541 01c1 1E       		.byte	0x1e
 542 01c2 08       		.uleb128 0x8
 543 01c3 05060000 		.4byte	.LASF34
 544 01c7 06       		.byte	0x6
 545 01c8 81       		.byte	0x81
 546 01c9 19       		.byte	0x19
 547 01ca DA000000 		.4byte	0xda
 548 01ce 1F       		.byte	0x1f
 549 01cf 08       		.uleb128 0x8
 550 01d0 B2070000 		.4byte	.LASF35
 551 01d4 06       		.byte	0x6
 552 01d5 88       		.byte	0x88
 553 01d6 19       		.byte	0x19
 554 01d7 22010000 		.4byte	0x122
 555 01db 20       		.byte	0x20
 556 01dc 09       		.uleb128 0x9
 557 01dd 705F7500 		.ascii	"p_u\000"
 558 01e1 06       		.byte	0x6
 559 01e2 AD       		.byte	0xad
 560 01e3 19       		.byte	0x19
 561 01e4 4E050000 		.4byte	0x54e
 562 01e8 24       		.byte	0x24
 563 01e9 08       		.uleb128 0x8
 564 01ea 07090000 		.4byte	.LASF36
 565 01ee 06       		.byte	0x6
 566 01ef B2       		.byte	0xb2
 567 01f0 19       		.byte	0x19
 568 01f1 85020000 		.4byte	0x285
 569 01f5 28       		.byte	0x28
 570 01f6 08       		.uleb128 0x8
ARM GAS  /tmp/ccesbR0I.s 			page 11


 571 01f7 CF070000 		.4byte	.LASF37
 572 01fb 06       		.byte	0x6
 573 01fc B8       		.byte	0xb8
 574 01fd 19       		.byte	0x19
 575 01fe 62020000 		.4byte	0x262
 576 0202 2C       		.byte	0x2c
 577 0203 08       		.uleb128 0x8
 578 0204 0D000000 		.4byte	.LASF38
 579 0208 06       		.byte	0x6
 580 0209 BC       		.byte	0xbc
 581 020a 19       		.byte	0x19
 582 020b F2000000 		.4byte	0xf2
 583 020f 34       		.byte	0x34
 584 0210 08       		.uleb128 0x8
 585 0211 98060000 		.4byte	.LASF39
 586 0215 06       		.byte	0x6
 587 0216 C2       		.byte	0xc2
 588 0217 19       		.byte	0x19
 589 0218 FE000000 		.4byte	0xfe
 590 021c 38       		.byte	0x38
 591 021d 08       		.uleb128 0x8
 592 021e E9050000 		.4byte	.LASF40
 593 0222 06       		.byte	0x6
 594 0223 C9       		.byte	0xc9
 595 0224 1A       		.byte	0x1a
 596 0225 9A050000 		.4byte	0x59a
 597 0229 3C       		.byte	0x3c
 598 022a 08       		.uleb128 0x8
 599 022b 8A070000 		.4byte	.LASF41
 600 022f 06       		.byte	0x6
 601 0230 CD       		.byte	0xcd
 602 0231 19       		.byte	0x19
 603 0232 E6000000 		.4byte	0xe6
 604 0236 40       		.byte	0x40
 605 0237 00       		.byte	0
 606 0238 0A       		.uleb128 0xa
 607 0239 08       		.byte	0x8
 608 023a 05       		.byte	0x5
 609 023b 5A       		.byte	0x5a
 610 023c 09       		.byte	0x9
 611 023d 5C020000 		.4byte	0x25c
 612 0241 08       		.uleb128 0x8
 613 0242 32060000 		.4byte	.LASF24
 614 0246 05       		.byte	0x5
 615 0247 5B       		.byte	0x5b
 616 0248 1A       		.byte	0x1a
 617 0249 5C020000 		.4byte	0x25c
 618 024d 00       		.byte	0
 619 024e 08       		.uleb128 0x8
 620 024f 96050000 		.4byte	.LASF25
 621 0253 05       		.byte	0x5
 622 0254 5D       		.byte	0x5d
 623 0255 1A       		.byte	0x1a
 624 0256 5C020000 		.4byte	0x25c
 625 025a 04       		.byte	0x4
 626 025b 00       		.byte	0
 627 025c 0B       		.uleb128 0xb
ARM GAS  /tmp/ccesbR0I.s 			page 12


 628 025d 04       		.byte	0x4
 629 025e 27010000 		.4byte	0x127
 630 0262 03       		.uleb128 0x3
 631 0263 02050000 		.4byte	.LASF42
 632 0267 05       		.byte	0x5
 633 0268 5F       		.byte	0x5f
 634 0269 03       		.byte	0x3
 635 026a 38020000 		.4byte	0x238
 636 026e 0A       		.uleb128 0xa
 637 026f 04       		.byte	0x4
 638 0270 05       		.byte	0x5
 639 0271 64       		.byte	0x64
 640 0272 09       		.byte	0x9
 641 0273 85020000 		.4byte	0x285
 642 0277 08       		.uleb128 0x8
 643 0278 32060000 		.4byte	.LASF24
 644 027c 05       		.byte	0x5
 645 027d 66       		.byte	0x66
 646 027e 16       		.byte	0x16
 647 027f 5C020000 		.4byte	0x25c
 648 0283 00       		.byte	0
 649 0284 00       		.byte	0
 650 0285 03       		.uleb128 0x3
 651 0286 20040000 		.4byte	.LASF43
 652 028a 05       		.byte	0x5
 653 028b 69       		.byte	0x69
 654 028c 03       		.byte	0x3
 655 028d 6E020000 		.4byte	0x26e
 656 0291 03       		.uleb128 0x3
 657 0292 56040000 		.4byte	.LASF44
 658 0296 07       		.byte	0x7
 659 0297 9D       		.byte	0x9d
 660 0298 12       		.byte	0x12
 661 0299 97000000 		.4byte	0x97
 662 029d 03       		.uleb128 0x3
 663 029e EE020000 		.4byte	.LASF45
 664 02a2 07       		.byte	0x7
 665 02a3 A2       		.byte	0xa2
 666 02a4 0F       		.byte	0xf
 667 02a5 A9020000 		.4byte	0x2a9
 668 02a9 0C       		.uleb128 0xc
 669 02aa 04       		.byte	0x4
 670 02ab 07       		.uleb128 0x7
 671 02ac C8070000 		.4byte	.LASF46
 672 02b0 24       		.byte	0x24
 673 02b1 07       		.byte	0x7
 674 02b2 B9       		.byte	0xb9
 675 02b3 08       		.byte	0x8
 676 02b4 27030000 		.4byte	0x327
 677 02b8 09       		.uleb128 0x9
 678 02b9 723400   		.ascii	"r4\000"
 679 02bc 07       		.byte	0x7
 680 02bd BA       		.byte	0xba
 681 02be 11       		.byte	0x11
 682 02bf 9D020000 		.4byte	0x29d
 683 02c3 00       		.byte	0
 684 02c4 09       		.uleb128 0x9
ARM GAS  /tmp/ccesbR0I.s 			page 13


 685 02c5 723500   		.ascii	"r5\000"
 686 02c8 07       		.byte	0x7
 687 02c9 BB       		.byte	0xbb
 688 02ca 11       		.byte	0x11
 689 02cb 9D020000 		.4byte	0x29d
 690 02cf 04       		.byte	0x4
 691 02d0 09       		.uleb128 0x9
 692 02d1 723600   		.ascii	"r6\000"
 693 02d4 07       		.byte	0x7
 694 02d5 BC       		.byte	0xbc
 695 02d6 11       		.byte	0x11
 696 02d7 9D020000 		.4byte	0x29d
 697 02db 08       		.byte	0x8
 698 02dc 09       		.uleb128 0x9
 699 02dd 723700   		.ascii	"r7\000"
 700 02e0 07       		.byte	0x7
 701 02e1 BD       		.byte	0xbd
 702 02e2 11       		.byte	0x11
 703 02e3 9D020000 		.4byte	0x29d
 704 02e7 0C       		.byte	0xc
 705 02e8 09       		.uleb128 0x9
 706 02e9 723800   		.ascii	"r8\000"
 707 02ec 07       		.byte	0x7
 708 02ed BE       		.byte	0xbe
 709 02ee 11       		.byte	0x11
 710 02ef 9D020000 		.4byte	0x29d
 711 02f3 10       		.byte	0x10
 712 02f4 09       		.uleb128 0x9
 713 02f5 723900   		.ascii	"r9\000"
 714 02f8 07       		.byte	0x7
 715 02f9 BF       		.byte	0xbf
 716 02fa 11       		.byte	0x11
 717 02fb 9D020000 		.4byte	0x29d
 718 02ff 14       		.byte	0x14
 719 0300 09       		.uleb128 0x9
 720 0301 72313000 		.ascii	"r10\000"
 721 0305 07       		.byte	0x7
 722 0306 C0       		.byte	0xc0
 723 0307 11       		.byte	0x11
 724 0308 9D020000 		.4byte	0x29d
 725 030c 18       		.byte	0x18
 726 030d 09       		.uleb128 0x9
 727 030e 72313100 		.ascii	"r11\000"
 728 0312 07       		.byte	0x7
 729 0313 C1       		.byte	0xc1
 730 0314 11       		.byte	0x11
 731 0315 9D020000 		.4byte	0x29d
 732 0319 1C       		.byte	0x1c
 733 031a 09       		.uleb128 0x9
 734 031b 6C7200   		.ascii	"lr\000"
 735 031e 07       		.byte	0x7
 736 031f C2       		.byte	0xc2
 737 0320 11       		.byte	0x11
 738 0321 9D020000 		.4byte	0x29d
 739 0325 20       		.byte	0x20
 740 0326 00       		.byte	0
 741 0327 07       		.uleb128 0x7
ARM GAS  /tmp/ccesbR0I.s 			page 14


 742 0328 C4030000 		.4byte	.LASF47
 743 032c 04       		.byte	0x4
 744 032d 07       		.byte	0x7
 745 032e CA       		.byte	0xca
 746 032f 08       		.byte	0x8
 747 0330 42030000 		.4byte	0x342
 748 0334 09       		.uleb128 0x9
 749 0335 72313300 		.ascii	"r13\000"
 750 0339 07       		.byte	0x7
 751 033a CB       		.byte	0xcb
 752 033b 12       		.byte	0x12
 753 033c 42030000 		.4byte	0x342
 754 0340 00       		.byte	0
 755 0341 00       		.byte	0
 756 0342 0B       		.uleb128 0xb
 757 0343 04       		.byte	0x4
 758 0344 AB020000 		.4byte	0x2ab
 759 0348 03       		.uleb128 0x3
 760 0349 95070000 		.4byte	.LASF48
 761 034d 08       		.byte	0x8
 762 034e 4E       		.byte	0x4e
 763 034f 10       		.byte	0x10
 764 0350 54030000 		.4byte	0x354
 765 0354 0B       		.uleb128 0xb
 766 0355 04       		.byte	0x4
 767 0356 5A030000 		.4byte	0x35a
 768 035a 0D       		.uleb128 0xd
 769 035b 65030000 		.4byte	0x365
 770 035f 0E       		.uleb128 0xe
 771 0360 A9020000 		.4byte	0x2a9
 772 0364 00       		.byte	0
 773 0365 03       		.uleb128 0x3
 774 0366 CA060000 		.4byte	.LASF49
 775 036a 08       		.byte	0x8
 776 036b 53       		.byte	0x53
 777 036c 1D       		.byte	0x1d
 778 036d 71030000 		.4byte	0x371
 779 0371 07       		.uleb128 0x7
 780 0372 CA060000 		.4byte	.LASF49
 781 0376 14       		.byte	0x14
 782 0377 08       		.byte	0x8
 783 0378 5A       		.byte	0x5a
 784 0379 08       		.byte	0x8
 785 037a C0030000 		.4byte	0x3c0
 786 037e 08       		.uleb128 0x8
 787 037f 3F030000 		.4byte	.LASF50
 788 0383 08       		.byte	0x8
 789 0384 5B       		.byte	0x5b
 790 0385 1A       		.byte	0x1a
 791 0386 C0030000 		.4byte	0x3c0
 792 038a 00       		.byte	0
 793 038b 08       		.uleb128 0x8
 794 038c F7020000 		.4byte	.LASF51
 795 0390 08       		.byte	0x8
 796 0391 5D       		.byte	0x5d
 797 0392 1A       		.byte	0x1a
 798 0393 C0030000 		.4byte	0x3c0
ARM GAS  /tmp/ccesbR0I.s 			page 15


 799 0397 04       		.byte	0x4
 800 0398 08       		.uleb128 0x8
 801 0399 80040000 		.4byte	.LASF52
 802 039d 08       		.byte	0x8
 803 039e 5F       		.byte	0x5f
 804 039f 19       		.byte	0x19
 805 03a0 16010000 		.4byte	0x116
 806 03a4 08       		.byte	0x8
 807 03a5 08       		.uleb128 0x8
 808 03a6 BB040000 		.4byte	.LASF53
 809 03aa 08       		.byte	0x8
 810 03ab 60       		.byte	0x60
 811 03ac 19       		.byte	0x19
 812 03ad 48030000 		.4byte	0x348
 813 03b1 0C       		.byte	0xc
 814 03b2 08       		.uleb128 0x8
 815 03b3 F8070000 		.4byte	.LASF54
 816 03b7 08       		.byte	0x8
 817 03b8 62       		.byte	0x62
 818 03b9 1A       		.byte	0x1a
 819 03ba A9020000 		.4byte	0x2a9
 820 03be 10       		.byte	0x10
 821 03bf 00       		.byte	0
 822 03c0 0B       		.uleb128 0xb
 823 03c1 04       		.byte	0x4
 824 03c2 65030000 		.4byte	0x365
 825 03c6 0A       		.uleb128 0xa
 826 03c7 10       		.byte	0x10
 827 03c8 08       		.byte	0x8
 828 03c9 6C       		.byte	0x6c
 829 03ca 09       		.byte	0x9
 830 03cb 04040000 		.4byte	0x404
 831 03cf 08       		.uleb128 0x8
 832 03d0 3F030000 		.4byte	.LASF50
 833 03d4 08       		.byte	0x8
 834 03d5 6D       		.byte	0x6d
 835 03d6 1A       		.byte	0x1a
 836 03d7 C0030000 		.4byte	0x3c0
 837 03db 00       		.byte	0
 838 03dc 08       		.uleb128 0x8
 839 03dd F7020000 		.4byte	.LASF51
 840 03e1 08       		.byte	0x8
 841 03e2 6F       		.byte	0x6f
 842 03e3 1A       		.byte	0x1a
 843 03e4 C0030000 		.4byte	0x3c0
 844 03e8 04       		.byte	0x4
 845 03e9 08       		.uleb128 0x8
 846 03ea 80040000 		.4byte	.LASF52
 847 03ee 08       		.byte	0x8
 848 03ef 71       		.byte	0x71
 849 03f0 19       		.byte	0x19
 850 03f1 16010000 		.4byte	0x116
 851 03f5 08       		.byte	0x8
 852 03f6 08       		.uleb128 0x8
 853 03f7 87080000 		.4byte	.LASF55
 854 03fb 08       		.byte	0x8
 855 03fc 72       		.byte	0x72
ARM GAS  /tmp/ccesbR0I.s 			page 16


 856 03fd 19       		.byte	0x19
 857 03fe 22010000 		.4byte	0x122
 858 0402 0C       		.byte	0xc
 859 0403 00       		.byte	0
 860 0404 03       		.uleb128 0x3
 861 0405 C0080000 		.4byte	.LASF56
 862 0409 08       		.byte	0x8
 863 040a 73       		.byte	0x73
 864 040b 03       		.byte	0x3
 865 040c C6030000 		.4byte	0x3c6
 866 0410 0F       		.uleb128 0xf
 867 0411 12010000 		.4byte	.LASF64
 868 0415 08       		.byte	0x8
 869 0416 D1       		.byte	0xd1
 870 0417 0F       		.byte	0xf
 871 0418 04040000 		.4byte	0x404
 872 041c 0A       		.uleb128 0xa
 873 041d 1C       		.byte	0x1c
 874 041e 09       		.byte	0x9
 875 041f 57       		.byte	0x57
 876 0420 09       		.byte	0x9
 877 0421 74040000 		.4byte	0x474
 878 0425 08       		.uleb128 0x8
 879 0426 C2060000 		.4byte	.LASF57
 880 042a 09       		.byte	0x9
 881 042b 58       		.byte	0x58
 882 042c 19       		.byte	0x19
 883 042d 62020000 		.4byte	0x262
 884 0431 00       		.byte	0
 885 0432 08       		.uleb128 0x8
 886 0433 1B060000 		.4byte	.LASF58
 887 0437 09       		.byte	0x9
 888 0438 59       		.byte	0x59
 889 0439 19       		.byte	0x19
 890 043a E6000000 		.4byte	0xe6
 891 043e 08       		.byte	0x8
 892 043f 08       		.uleb128 0x8
 893 0440 FC040000 		.4byte	.LASF59
 894 0444 09       		.byte	0x9
 895 0445 5B       		.byte	0x5b
 896 0446 19       		.byte	0x19
 897 0447 27030000 		.4byte	0x327
 898 044b 0C       		.byte	0xc
 899 044c 08       		.uleb128 0x8
 900 044d E6020000 		.4byte	.LASF60
 901 0451 09       		.byte	0x9
 902 0452 5E       		.byte	0x5e
 903 0453 1A       		.byte	0x1a
 904 0454 5C020000 		.4byte	0x25c
 905 0458 10       		.byte	0x10
 906 0459 08       		.uleb128 0x8
 907 045a 2F050000 		.4byte	.LASF61
 908 045e 09       		.byte	0x9
 909 045f 5F       		.byte	0x5f
 910 0460 1A       		.byte	0x1a
 911 0461 5C020000 		.4byte	0x25c
 912 0465 14       		.byte	0x14
ARM GAS  /tmp/ccesbR0I.s 			page 17


 913 0466 08       		.uleb128 0x8
 914 0467 25050000 		.4byte	.LASF62
 915 046b 09       		.byte	0x9
 916 046c 62       		.byte	0x62
 917 046d 1A       		.byte	0x1a
 918 046e 5C020000 		.4byte	0x25c
 919 0472 18       		.byte	0x18
 920 0473 00       		.byte	0
 921 0474 03       		.uleb128 0x3
 922 0475 3E080000 		.4byte	.LASF63
 923 0479 09       		.byte	0x9
 924 047a 64       		.byte	0x64
 925 047b 03       		.byte	0x3
 926 047c 1C040000 		.4byte	0x41c
 927 0480 0F       		.uleb128 0xf
 928 0481 51080000 		.4byte	.LASF65
 929 0485 09       		.byte	0x9
 930 0486 68       		.byte	0x68
 931 0487 12       		.byte	0x12
 932 0488 74040000 		.4byte	0x474
 933 048c 07       		.uleb128 0x7
 934 048d 43040000 		.4byte	.LASF66
 935 0491 10       		.byte	0x10
 936 0492 0A       		.byte	0xa
 937 0493 25       		.byte	0x25
 938 0494 10       		.byte	0x10
 939 0495 C1040000 		.4byte	0x4c1
 940 0499 08       		.uleb128 0x8
 941 049a F7010000 		.4byte	.LASF67
 942 049e 0A       		.byte	0xa
 943 049f 26       		.byte	0x26
 944 04a0 19       		.byte	0x19
 945 04a1 62020000 		.4byte	0x262
 946 04a5 00       		.byte	0
 947 04a6 08       		.uleb128 0x8
 948 04a7 DD080000 		.4byte	.LASF68
 949 04ab 0A       		.byte	0xa
 950 04ac 28       		.byte	0x28
 951 04ad 1A       		.byte	0x1a
 952 04ae 5C020000 		.4byte	0x25c
 953 04b2 08       		.byte	0x8
 954 04b3 08       		.uleb128 0x8
 955 04b4 79070000 		.4byte	.LASF69
 956 04b8 0A       		.byte	0xa
 957 04b9 2A       		.byte	0x2a
 958 04ba 1A       		.byte	0x1a
 959 04bb C1040000 		.4byte	0x4c1
 960 04bf 0C       		.byte	0xc
 961 04c0 00       		.byte	0
 962 04c1 0B       		.uleb128 0xb
 963 04c2 04       		.byte	0x4
 964 04c3 8C040000 		.4byte	0x48c
 965 04c7 03       		.uleb128 0x3
 966 04c8 43040000 		.4byte	.LASF66
 967 04cc 0A       		.byte	0xa
 968 04cd 2C       		.byte	0x2c
 969 04ce 03       		.byte	0x3
ARM GAS  /tmp/ccesbR0I.s 			page 18


 970 04cf 8C040000 		.4byte	0x48c
 971 04d3 03       		.uleb128 0x3
 972 04d4 6B080000 		.4byte	.LASF70
 973 04d8 0B       		.byte	0xb
 974 04d9 25       		.byte	0x25
 975 04da 1E       		.byte	0x1e
 976 04db DF040000 		.4byte	0x4df
 977 04df 07       		.uleb128 0x7
 978 04e0 6B080000 		.4byte	.LASF70
 979 04e4 10       		.byte	0x10
 980 04e5 0B       		.byte	0xb
 981 04e6 2A       		.byte	0x2a
 982 04e7 08       		.byte	0x8
 983 04e8 21050000 		.4byte	0x521
 984 04ec 08       		.uleb128 0x8
 985 04ed FC030000 		.4byte	.LASF71
 986 04f1 0B       		.byte	0xb
 987 04f2 2B       		.byte	0x2b
 988 04f3 1A       		.byte	0x1a
 989 04f4 21050000 		.4byte	0x521
 990 04f8 00       		.byte	0
 991 04f9 08       		.uleb128 0x8
 992 04fa D4050000 		.4byte	.LASF72
 993 04fe 0B       		.byte	0xb
 994 04ff 2E       		.byte	0x2e
 995 0500 1A       		.byte	0x1a
 996 0501 5C020000 		.4byte	0x25c
 997 0505 04       		.byte	0x4
 998 0506 08       		.uleb128 0x8
 999 0507 37050000 		.4byte	.LASF73
 1000 050b 0B       		.byte	0xb
 1001 050c 30       		.byte	0x30
 1002 050d 19       		.byte	0x19
 1003 050e FE000000 		.4byte	0xfe
 1004 0512 08       		.byte	0x8
 1005 0513 08       		.uleb128 0x8
 1006 0514 E0050000 		.4byte	.LASF74
 1007 0518 0B       		.byte	0xb
 1008 0519 33       		.byte	0x33
 1009 051a 19       		.byte	0x19
 1010 051b 0A010000 		.4byte	0x10a
 1011 051f 0C       		.byte	0xc
 1012 0520 00       		.byte	0
 1013 0521 0B       		.uleb128 0xb
 1014 0522 04       		.byte	0x4
 1015 0523 D3040000 		.4byte	0x4d3
 1016 0527 07       		.uleb128 0x7
 1017 0528 26030000 		.4byte	.LASF75
 1018 052c 04       		.byte	0x4
 1019 052d 0B       		.byte	0xb
 1020 052e 3A       		.byte	0x3a
 1021 052f 10       		.byte	0x10
 1022 0530 42050000 		.4byte	0x542
 1023 0534 08       		.uleb128 0x8
 1024 0535 92080000 		.4byte	.LASF76
 1025 0539 0B       		.byte	0xb
 1026 053a 3B       		.byte	0x3b
ARM GAS  /tmp/ccesbR0I.s 			page 19


 1027 053b 1A       		.byte	0x1a
 1028 053c 21050000 		.4byte	0x521
 1029 0540 00       		.byte	0
 1030 0541 00       		.byte	0
 1031 0542 03       		.uleb128 0x3
 1032 0543 26030000 		.4byte	.LASF75
 1033 0547 0B       		.byte	0xb
 1034 0548 3E       		.byte	0x3e
 1035 0549 03       		.byte	0x3
 1036 054a 27050000 		.4byte	0x527
 1037 054e 10       		.uleb128 0x10
 1038 054f 04       		.byte	0x4
 1039 0550 06       		.byte	0x6
 1040 0551 8F       		.byte	0x8f
 1041 0552 03       		.byte	0x3
 1042 0553 88050000 		.4byte	0x588
 1043 0557 11       		.uleb128 0x11
 1044 0558 E7000000 		.4byte	.LASF77
 1045 055c 06       		.byte	0x6
 1046 055d 96       		.byte	0x96
 1047 055e 19       		.byte	0x19
 1048 055f F2000000 		.4byte	0xf2
 1049 0563 11       		.uleb128 0x11
 1050 0564 61010000 		.4byte	.LASF78
 1051 0568 06       		.byte	0x6
 1052 0569 9D       		.byte	0x9d
 1053 056a 19       		.byte	0x19
 1054 056b F2000000 		.4byte	0xf2
 1055 056f 11       		.uleb128 0x11
 1056 0570 79080000 		.4byte	.LASF79
 1057 0574 06       		.byte	0x6
 1058 0575 A4       		.byte	0xa4
 1059 0576 1A       		.byte	0x1a
 1060 0577 A9020000 		.4byte	0x2a9
 1061 057b 11       		.uleb128 0x11
 1062 057c 2B060000 		.4byte	.LASF80
 1063 0580 06       		.byte	0x6
 1064 0581 AB       		.byte	0xab
 1065 0582 19       		.byte	0x19
 1066 0583 FE000000 		.4byte	0xfe
 1067 0587 00       		.byte	0
 1068 0588 0B       		.uleb128 0xb
 1069 0589 04       		.byte	0x4
 1070 058a 95050000 		.4byte	0x595
 1071 058e 04       		.uleb128 0x4
 1072 058f 01       		.byte	0x1
 1073 0590 08       		.byte	0x8
 1074 0591 48070000 		.4byte	.LASF81
 1075 0595 06       		.uleb128 0x6
 1076 0596 8E050000 		.4byte	0x58e
 1077 059a 0B       		.uleb128 0xb
 1078 059b 04       		.byte	0x4
 1079 059c C7040000 		.4byte	0x4c7
 1080 05a0 0B       		.uleb128 0xb
 1081 05a1 04       		.byte	0x4
 1082 05a2 A6050000 		.4byte	0x5a6
 1083 05a6 12       		.uleb128 0x12
ARM GAS  /tmp/ccesbR0I.s 			page 20


 1084 05a7 F2000000 		.4byte	0xf2
 1085 05ab B5050000 		.4byte	0x5b5
 1086 05af 0E       		.uleb128 0xe
 1087 05b0 A9020000 		.4byte	0x2a9
 1088 05b4 00       		.byte	0
 1089 05b5 0A       		.uleb128 0xa
 1090 05b6 16       		.byte	0x16
 1091 05b7 0C       		.byte	0xc
 1092 05b8 25       		.byte	0x25
 1093 05b9 09       		.byte	0x9
 1094 05ba A9060000 		.4byte	0x6a9
 1095 05be 08       		.uleb128 0x8
 1096 05bf 8B030000 		.4byte	.LASF82
 1097 05c3 0C       		.byte	0xc
 1098 05c4 26       		.byte	0x26
 1099 05c5 0D       		.byte	0xd
 1100 05c6 A9060000 		.4byte	0x6a9
 1101 05ca 00       		.byte	0
 1102 05cb 08       		.uleb128 0x8
 1103 05cc 61040000 		.4byte	.LASF83
 1104 05d0 0C       		.byte	0xc
 1105 05d1 27       		.byte	0x27
 1106 05d2 0D       		.byte	0xd
 1107 05d3 6C000000 		.4byte	0x6c
 1108 05d7 04       		.byte	0x4
 1109 05d8 08       		.uleb128 0x8
 1110 05d9 0F050000 		.4byte	.LASF84
 1111 05dd 0C       		.byte	0xc
 1112 05de 28       		.byte	0x28
 1113 05df 0D       		.byte	0xd
 1114 05e0 6C000000 		.4byte	0x6c
 1115 05e4 05       		.byte	0x5
 1116 05e5 08       		.uleb128 0x8
 1117 05e6 A4080000 		.4byte	.LASF85
 1118 05ea 0C       		.byte	0xc
 1119 05eb 29       		.byte	0x29
 1120 05ec 0D       		.byte	0xd
 1121 05ed 84000000 		.4byte	0x84
 1122 05f1 06       		.byte	0x6
 1123 05f2 08       		.uleb128 0x8
 1124 05f3 81050000 		.4byte	.LASF86
 1125 05f7 0C       		.byte	0xc
 1126 05f8 2A       		.byte	0x2a
 1127 05f9 0D       		.byte	0xd
 1128 05fa 6C000000 		.4byte	0x6c
 1129 05fe 08       		.byte	0x8
 1130 05ff 08       		.uleb128 0x8
 1131 0600 C3040000 		.4byte	.LASF87
 1132 0604 0C       		.byte	0xc
 1133 0605 2B       		.byte	0x2b
 1134 0606 0D       		.byte	0xd
 1135 0607 6C000000 		.4byte	0x6c
 1136 060b 09       		.byte	0x9
 1137 060c 08       		.uleb128 0x8
 1138 060d 53010000 		.4byte	.LASF88
 1139 0611 0C       		.byte	0xc
 1140 0612 2C       		.byte	0x2c
ARM GAS  /tmp/ccesbR0I.s 			page 21


 1141 0613 0D       		.byte	0xd
 1142 0614 6C000000 		.4byte	0x6c
 1143 0618 0A       		.byte	0xa
 1144 0619 08       		.uleb128 0x8
 1145 061a B6060000 		.4byte	.LASF89
 1146 061e 0C       		.byte	0xc
 1147 061f 2D       		.byte	0x2d
 1148 0620 0D       		.byte	0xd
 1149 0621 6C000000 		.4byte	0x6c
 1150 0625 0B       		.byte	0xb
 1151 0626 08       		.uleb128 0x8
 1152 0627 25080000 		.4byte	.LASF90
 1153 062b 0C       		.byte	0xc
 1154 062c 2E       		.byte	0x2e
 1155 062d 0D       		.byte	0xd
 1156 062e 6C000000 		.4byte	0x6c
 1157 0632 0C       		.byte	0xc
 1158 0633 08       		.uleb128 0x8
 1159 0634 80060000 		.4byte	.LASF91
 1160 0638 0C       		.byte	0xc
 1161 0639 2F       		.byte	0x2f
 1162 063a 0D       		.byte	0xd
 1163 063b 6C000000 		.4byte	0x6c
 1164 063f 0D       		.byte	0xd
 1165 0640 08       		.uleb128 0x8
 1166 0641 00000000 		.4byte	.LASF92
 1167 0645 0C       		.byte	0xc
 1168 0646 30       		.byte	0x30
 1169 0647 0D       		.byte	0xd
 1170 0648 6C000000 		.4byte	0x6c
 1171 064c 0E       		.byte	0xe
 1172 064d 08       		.uleb128 0x8
 1173 064e D8040000 		.4byte	.LASF93
 1174 0652 0C       		.byte	0xc
 1175 0653 31       		.byte	0x31
 1176 0654 0D       		.byte	0xd
 1177 0655 6C000000 		.4byte	0x6c
 1178 0659 0F       		.byte	0xf
 1179 065a 08       		.uleb128 0x8
 1180 065b C9010000 		.4byte	.LASF94
 1181 065f 0C       		.byte	0xc
 1182 0660 32       		.byte	0x32
 1183 0661 0D       		.byte	0xd
 1184 0662 6C000000 		.4byte	0x6c
 1185 0666 10       		.byte	0x10
 1186 0667 08       		.uleb128 0x8
 1187 0668 84010000 		.4byte	.LASF95
 1188 066c 0C       		.byte	0xc
 1189 066d 34       		.byte	0x34
 1190 066e 0D       		.byte	0xd
 1191 066f 6C000000 		.4byte	0x6c
 1192 0673 11       		.byte	0x11
 1193 0674 08       		.uleb128 0x8
 1194 0675 E2010000 		.4byte	.LASF96
 1195 0679 0C       		.byte	0xc
 1196 067a 35       		.byte	0x35
 1197 067b 0D       		.byte	0xd
ARM GAS  /tmp/ccesbR0I.s 			page 22


 1198 067c 6C000000 		.4byte	0x6c
 1199 0680 12       		.byte	0x12
 1200 0681 08       		.uleb128 0x8
 1201 0682 69040000 		.4byte	.LASF97
 1202 0686 0C       		.byte	0xc
 1203 0687 36       		.byte	0x36
 1204 0688 0D       		.byte	0xd
 1205 0689 6C000000 		.4byte	0x6c
 1206 068d 13       		.byte	0x13
 1207 068e 08       		.uleb128 0x8
 1208 068f 41060000 		.4byte	.LASF98
 1209 0693 0C       		.byte	0xc
 1210 0694 37       		.byte	0x37
 1211 0695 0D       		.byte	0xd
 1212 0696 6C000000 		.4byte	0x6c
 1213 069a 14       		.byte	0x14
 1214 069b 08       		.uleb128 0x8
 1215 069c 0F060000 		.4byte	.LASF99
 1216 06a0 0C       		.byte	0xc
 1217 06a1 39       		.byte	0x39
 1218 06a2 0D       		.byte	0xd
 1219 06a3 6C000000 		.4byte	0x6c
 1220 06a7 15       		.byte	0x15
 1221 06a8 00       		.byte	0
 1222 06a9 13       		.uleb128 0x13
 1223 06aa 8E050000 		.4byte	0x58e
 1224 06ae B9060000 		.4byte	0x6b9
 1225 06b2 14       		.uleb128 0x14
 1226 06b3 38000000 		.4byte	0x38
 1227 06b7 03       		.byte	0x3
 1228 06b8 00       		.byte	0
 1229 06b9 03       		.uleb128 0x3
 1230 06ba 69020000 		.4byte	.LASF100
 1231 06be 0C       		.byte	0xc
 1232 06bf 3A       		.byte	0x3a
 1233 06c0 03       		.byte	0x3
 1234 06c1 B5050000 		.4byte	0x5b5
 1235 06c5 06       		.uleb128 0x6
 1236 06c6 B9060000 		.4byte	0x6b9
 1237 06ca 0F       		.uleb128 0xf
 1238 06cb 7D030000 		.4byte	.LASF101
 1239 06cf 0C       		.byte	0xc
 1240 06d0 77       		.byte	0x77
 1241 06d1 1D       		.byte	0x1d
 1242 06d2 C5060000 		.4byte	0x6c5
 1243 06d6 03       		.uleb128 0x3
 1244 06d7 49040000 		.4byte	.LASF102
 1245 06db 0D       		.byte	0xd
 1246 06dc 30       		.byte	0x30
 1247 06dd 1D       		.byte	0x1d
 1248 06de E2060000 		.4byte	0x6e2
 1249 06e2 07       		.uleb128 0x7
 1250 06e3 49040000 		.4byte	.LASF102
 1251 06e7 24       		.byte	0x24
 1252 06e8 0D       		.byte	0xd
 1253 06e9 3E       		.byte	0x3e
 1254 06ea 08       		.byte	0x8
ARM GAS  /tmp/ccesbR0I.s 			page 23


 1255 06eb 58070000 		.4byte	0x758
 1256 06ef 08       		.uleb128 0x8
 1257 06f0 A5010000 		.4byte	.LASF103
 1258 06f4 0D       		.byte	0xd
 1259 06f5 3F       		.byte	0x3f
 1260 06f6 19       		.byte	0x19
 1261 06f7 62020000 		.4byte	0x262
 1262 06fb 00       		.byte	0
 1263 06fc 08       		.uleb128 0x8
 1264 06fd B1040000 		.4byte	.LASF104
 1265 0701 0D       		.byte	0xd
 1266 0702 40       		.byte	0x40
 1267 0703 19       		.byte	0x19
 1268 0704 2C000000 		.4byte	0x2c
 1269 0708 08       		.byte	0x8
 1270 0709 08       		.uleb128 0x8
 1271 070a 52020000 		.4byte	.LASF105
 1272 070e 0D       		.byte	0xd
 1273 070f 41       		.byte	0x41
 1274 0710 1A       		.byte	0x1a
 1275 0711 7B070000 		.4byte	0x77b
 1276 0715 0C       		.byte	0xc
 1277 0716 08       		.uleb128 0x8
 1278 0717 36010000 		.4byte	.LASF106
 1279 071b 0D       		.byte	0xd
 1280 071c 42       		.byte	0x42
 1281 071d 1A       		.byte	0x1a
 1282 071e 7B070000 		.4byte	0x77b
 1283 0722 10       		.byte	0x10
 1284 0723 08       		.uleb128 0x8
 1285 0724 F4040000 		.4byte	.LASF107
 1286 0728 0D       		.byte	0xd
 1287 0729 44       		.byte	0x44
 1288 072a 1A       		.byte	0x1a
 1289 072b 7B070000 		.4byte	0x77b
 1290 072f 14       		.byte	0x14
 1291 0730 08       		.uleb128 0x8
 1292 0731 A5050000 		.4byte	.LASF108
 1293 0735 0D       		.byte	0xd
 1294 0736 45       		.byte	0x45
 1295 0737 1A       		.byte	0x1a
 1296 0738 7B070000 		.4byte	0x77b
 1297 073c 18       		.byte	0x18
 1298 073d 08       		.uleb128 0x8
 1299 073e 48080000 		.4byte	.LASF109
 1300 0742 0D       		.byte	0xd
 1301 0743 46       		.byte	0x46
 1302 0744 19       		.byte	0x19
 1303 0745 58070000 		.4byte	0x758
 1304 0749 1C       		.byte	0x1c
 1305 074a 08       		.uleb128 0x8
 1306 074b C7080000 		.4byte	.LASF110
 1307 074f 0D       		.byte	0xd
 1308 0750 47       		.byte	0x47
 1309 0751 1A       		.byte	0x1a
 1310 0752 A9020000 		.4byte	0x2a9
 1311 0756 20       		.byte	0x20
ARM GAS  /tmp/ccesbR0I.s 			page 24


 1312 0757 00       		.byte	0
 1313 0758 03       		.uleb128 0x3
 1314 0759 8C050000 		.4byte	.LASF111
 1315 075d 0D       		.byte	0xd
 1316 075e 33       		.byte	0x33
 1317 075f 10       		.byte	0x10
 1318 0760 64070000 		.4byte	0x764
 1319 0764 0B       		.uleb128 0xb
 1320 0765 04       		.byte	0x4
 1321 0766 6A070000 		.4byte	0x76a
 1322 076a 0D       		.uleb128 0xd
 1323 076b 75070000 		.4byte	0x775
 1324 076f 0E       		.uleb128 0xe
 1325 0770 75070000 		.4byte	0x775
 1326 0774 00       		.byte	0
 1327 0775 0B       		.uleb128 0xb
 1328 0776 04       		.byte	0x4
 1329 0777 D6060000 		.4byte	0x6d6
 1330 077b 0B       		.uleb128 0xb
 1331 077c 04       		.byte	0x4
 1332 077d 6C000000 		.4byte	0x6c
 1333 0781 03       		.uleb128 0x3
 1334 0782 38040000 		.4byte	.LASF112
 1335 0786 0D       		.byte	0xd
 1336 0787 7B       		.byte	0x7b
 1337 0788 16       		.byte	0x16
 1338 0789 D6060000 		.4byte	0x6d6
 1339 078d 03       		.uleb128 0x3
 1340 078e F4000000 		.4byte	.LASF113
 1341 0792 0D       		.byte	0xd
 1342 0793 EE       		.byte	0xee
 1343 0794 16       		.byte	0x16
 1344 0795 D6060000 		.4byte	0x6d6
 1345 0799 12       		.uleb128 0x12
 1346 079a 2C000000 		.4byte	0x2c
 1347 079e B2070000 		.4byte	0x7b2
 1348 07a2 0E       		.uleb128 0xe
 1349 07a3 A9020000 		.4byte	0x2a9
 1350 07a7 0E       		.uleb128 0xe
 1351 07a8 B2070000 		.4byte	0x7b2
 1352 07ac 0E       		.uleb128 0xe
 1353 07ad 2C000000 		.4byte	0x2c
 1354 07b1 00       		.byte	0
 1355 07b2 0B       		.uleb128 0xb
 1356 07b3 04       		.byte	0x4
 1357 07b4 78000000 		.4byte	0x78
 1358 07b8 0B       		.uleb128 0xb
 1359 07b9 04       		.byte	0x4
 1360 07ba 99070000 		.4byte	0x799
 1361 07be 12       		.uleb128 0x12
 1362 07bf 2C000000 		.4byte	0x2c
 1363 07c3 D7070000 		.4byte	0x7d7
 1364 07c7 0E       		.uleb128 0xe
 1365 07c8 A9020000 		.4byte	0x2a9
 1366 07cc 0E       		.uleb128 0xe
 1367 07cd 7B070000 		.4byte	0x77b
 1368 07d1 0E       		.uleb128 0xe
ARM GAS  /tmp/ccesbR0I.s 			page 25


 1369 07d2 2C000000 		.4byte	0x2c
 1370 07d6 00       		.byte	0
 1371 07d7 0B       		.uleb128 0xb
 1372 07d8 04       		.byte	0x4
 1373 07d9 BE070000 		.4byte	0x7be
 1374 07dd 12       		.uleb128 0x12
 1375 07de F2000000 		.4byte	0xf2
 1376 07e2 F1070000 		.4byte	0x7f1
 1377 07e6 0E       		.uleb128 0xe
 1378 07e7 A9020000 		.4byte	0x2a9
 1379 07eb 0E       		.uleb128 0xe
 1380 07ec 6C000000 		.4byte	0x6c
 1381 07f0 00       		.byte	0
 1382 07f1 0B       		.uleb128 0xb
 1383 07f2 04       		.byte	0x4
 1384 07f3 DD070000 		.4byte	0x7dd
 1385 07f7 13       		.uleb128 0x13
 1386 07f8 91020000 		.4byte	0x291
 1387 07fc 07080000 		.4byte	0x807
 1388 0800 14       		.uleb128 0x14
 1389 0801 38000000 		.4byte	0x38
 1390 0805 26       		.byte	0x26
 1391 0806 00       		.byte	0
 1392 0807 0F       		.uleb128 0xf
 1393 0808 95020000 		.4byte	.LASF114
 1394 080c 0E       		.byte	0xe
 1395 080d 82       		.byte	0x82
 1396 080e 08       		.byte	0x8
 1397 080f F7070000 		.4byte	0x7f7
 1398 0813 07       		.uleb128 0x7
 1399 0814 19010000 		.4byte	.LASF115
 1400 0818 20       		.byte	0x20
 1401 0819 0F       		.byte	0xf
 1402 081a FD       		.byte	0xfd
 1403 081b 08       		.byte	0x8
 1404 081c 8F080000 		.4byte	0x88f
 1405 0820 08       		.uleb128 0x8
 1406 0821 DE020000 		.4byte	.LASF116
 1407 0825 0F       		.byte	0xf
 1408 0826 FE       		.byte	0xfe
 1409 0827 19       		.byte	0x19
 1410 0828 3F000000 		.4byte	0x3f
 1411 082c 00       		.byte	0
 1412 082d 08       		.uleb128 0x8
 1413 082e 37080000 		.4byte	.LASF117
 1414 0832 0F       		.byte	0xf
 1415 0833 FF       		.byte	0xff
 1416 0834 19       		.byte	0x19
 1417 0835 3F000000 		.4byte	0x3f
 1418 0839 04       		.byte	0x4
 1419 083a 15       		.uleb128 0x15
 1420 083b B5080000 		.4byte	.LASF118
 1421 083f 0F       		.byte	0xf
 1422 0840 0001     		.2byte	0x100
 1423 0842 19       		.byte	0x19
 1424 0843 3F000000 		.4byte	0x3f
 1425 0847 08       		.byte	0x8
ARM GAS  /tmp/ccesbR0I.s 			page 26


 1426 0848 15       		.uleb128 0x15
 1427 0849 FF020000 		.4byte	.LASF119
 1428 084d 0F       		.byte	0xf
 1429 084e 0101     		.2byte	0x101
 1430 0850 19       		.byte	0x19
 1431 0851 3F000000 		.4byte	0x3f
 1432 0855 0C       		.byte	0xc
 1433 0856 15       		.uleb128 0x15
 1434 0857 74010000 		.4byte	.LASF120
 1435 085b 0F       		.byte	0xf
 1436 085c 0201     		.2byte	0x102
 1437 085e 19       		.byte	0x19
 1438 085f 3F000000 		.4byte	0x3f
 1439 0863 10       		.byte	0x10
 1440 0864 15       		.uleb128 0x15
 1441 0865 91040000 		.4byte	.LASF121
 1442 0869 0F       		.byte	0xf
 1443 086a 0301     		.2byte	0x103
 1444 086c 19       		.byte	0x19
 1445 086d 3F000000 		.4byte	0x3f
 1446 0871 14       		.byte	0x14
 1447 0872 15       		.uleb128 0x15
 1448 0873 42020000 		.4byte	.LASF122
 1449 0877 0F       		.byte	0xf
 1450 0878 0401     		.2byte	0x104
 1451 087a 19       		.byte	0x19
 1452 087b 3F000000 		.4byte	0x3f
 1453 087f 18       		.byte	0x18
 1454 0880 15       		.uleb128 0x15
 1455 0881 19090000 		.4byte	.LASF123
 1456 0885 0F       		.byte	0xf
 1457 0886 0501     		.2byte	0x105
 1458 0888 19       		.byte	0x19
 1459 0889 3F000000 		.4byte	0x3f
 1460 088d 1C       		.byte	0x1c
 1461 088e 00       		.byte	0
 1462 088f 16       		.uleb128 0x16
 1463 0890 19010000 		.4byte	.LASF115
 1464 0894 0F       		.byte	0xf
 1465 0895 0801     		.2byte	0x108
 1466 0897 1C       		.byte	0x1c
 1467 0898 13080000 		.4byte	0x813
 1468 089c 03       		.uleb128 0x3
 1469 089d 25010000 		.4byte	.LASF124
 1470 08a1 10       		.byte	0x10
 1471 08a2 45       		.byte	0x45
 1472 08a3 12       		.byte	0x12
 1473 08a4 97000000 		.4byte	0x97
 1474 08a8 12       		.uleb128 0x12
 1475 08a9 F2000000 		.4byte	0xf2
 1476 08ad C1080000 		.4byte	0x8c1
 1477 08b1 0E       		.uleb128 0xe
 1478 08b2 A9020000 		.4byte	0x2a9
 1479 08b6 0E       		.uleb128 0xe
 1480 08b7 6C000000 		.4byte	0x6c
 1481 08bb 0E       		.uleb128 0xe
 1482 08bc 16010000 		.4byte	0x116
ARM GAS  /tmp/ccesbR0I.s 			page 27


 1483 08c0 00       		.byte	0
 1484 08c1 0B       		.uleb128 0xb
 1485 08c2 04       		.byte	0x4
 1486 08c3 A8080000 		.4byte	0x8a8
 1487 08c7 12       		.uleb128 0x12
 1488 08c8 F2000000 		.4byte	0xf2
 1489 08cc DB080000 		.4byte	0x8db
 1490 08d0 0E       		.uleb128 0xe
 1491 08d1 A9020000 		.4byte	0x2a9
 1492 08d5 0E       		.uleb128 0xe
 1493 08d6 16010000 		.4byte	0x116
 1494 08da 00       		.byte	0
 1495 08db 0B       		.uleb128 0xb
 1496 08dc 04       		.byte	0x4
 1497 08dd C7080000 		.4byte	0x8c7
 1498 08e1 12       		.uleb128 0x12
 1499 08e2 2C000000 		.4byte	0x2c
 1500 08e6 FF080000 		.4byte	0x8ff
 1501 08ea 0E       		.uleb128 0xe
 1502 08eb A9020000 		.4byte	0x2a9
 1503 08ef 0E       		.uleb128 0xe
 1504 08f0 B2070000 		.4byte	0x7b2
 1505 08f4 0E       		.uleb128 0xe
 1506 08f5 2C000000 		.4byte	0x2c
 1507 08f9 0E       		.uleb128 0xe
 1508 08fa 16010000 		.4byte	0x116
 1509 08fe 00       		.byte	0
 1510 08ff 0B       		.uleb128 0xb
 1511 0900 04       		.byte	0x4
 1512 0901 E1080000 		.4byte	0x8e1
 1513 0905 12       		.uleb128 0x12
 1514 0906 2C000000 		.4byte	0x2c
 1515 090a 23090000 		.4byte	0x923
 1516 090e 0E       		.uleb128 0xe
 1517 090f A9020000 		.4byte	0x2a9
 1518 0913 0E       		.uleb128 0xe
 1519 0914 7B070000 		.4byte	0x77b
 1520 0918 0E       		.uleb128 0xe
 1521 0919 2C000000 		.4byte	0x2c
 1522 091d 0E       		.uleb128 0xe
 1523 091e 16010000 		.4byte	0x116
 1524 0922 00       		.byte	0
 1525 0923 0B       		.uleb128 0xb
 1526 0924 04       		.byte	0x4
 1527 0925 05090000 		.4byte	0x905
 1528 0929 03       		.uleb128 0x3
 1529 092a 99030000 		.4byte	.LASF125
 1530 092e 11       		.byte	0x11
 1531 092f 3E       		.byte	0x3e
 1532 0930 20       		.byte	0x20
 1533 0931 35090000 		.4byte	0x935
 1534 0935 07       		.uleb128 0x7
 1535 0936 99030000 		.4byte	.LASF125
 1536 093a 14       		.byte	0x14
 1537 093b 11       		.byte	0x11
 1538 093c 43       		.byte	0x43
 1539 093d 08       		.byte	0x8
ARM GAS  /tmp/ccesbR0I.s 			page 28


 1540 093e 84090000 		.4byte	0x984
 1541 0942 08       		.uleb128 0x8
 1542 0943 AF080000 		.4byte	.LASF126
 1543 0947 11       		.byte	0x11
 1544 0948 44       		.byte	0x44
 1545 0949 0A       		.byte	0xa
 1546 094a 95090000 		.4byte	0x995
 1547 094e 00       		.byte	0
 1548 094f 08       		.uleb128 0x8
 1549 0950 CE080000 		.4byte	.LASF127
 1550 0954 11       		.byte	0x11
 1551 0955 45       		.byte	0x45
 1552 0956 0A       		.byte	0xa
 1553 0957 95090000 		.4byte	0x995
 1554 095b 04       		.byte	0x4
 1555 095c 08       		.uleb128 0x8
 1556 095d F7030000 		.4byte	.LASF128
 1557 0961 11       		.byte	0x11
 1558 0962 46       		.byte	0x46
 1559 0963 18       		.byte	0x18
 1560 0964 9C080000 		.4byte	0x89c
 1561 0968 08       		.byte	0x8
 1562 0969 08       		.uleb128 0x8
 1563 096a 1F050000 		.4byte	.LASF129
 1564 096e 11       		.byte	0x11
 1565 096f 47       		.byte	0x47
 1566 0970 18       		.byte	0x18
 1567 0971 9C080000 		.4byte	0x89c
 1568 0975 0C       		.byte	0xc
 1569 0976 08       		.uleb128 0x8
 1570 0977 69070000 		.4byte	.LASF130
 1571 097b 11       		.byte	0x11
 1572 097c 48       		.byte	0x48
 1573 097d 18       		.byte	0x18
 1574 097e 9C080000 		.4byte	0x89c
 1575 0982 10       		.byte	0x10
 1576 0983 00       		.byte	0
 1577 0984 0D       		.uleb128 0xd
 1578 0985 8F090000 		.4byte	0x98f
 1579 0989 0E       		.uleb128 0xe
 1580 098a 8F090000 		.4byte	0x98f
 1581 098e 00       		.byte	0
 1582 098f 0B       		.uleb128 0xb
 1583 0990 04       		.byte	0x4
 1584 0991 29090000 		.4byte	0x929
 1585 0995 0B       		.uleb128 0xb
 1586 0996 04       		.byte	0x4
 1587 0997 84090000 		.4byte	0x984
 1588 099b 0A       		.uleb128 0xa
 1589 099c 18       		.byte	0x18
 1590 099d 12       		.byte	0x12
 1591 099e 2A       		.byte	0x2a
 1592 099f 09       		.byte	0x9
 1593 09a0 F3090000 		.4byte	0x9f3
 1594 09a4 08       		.uleb128 0x8
 1595 09a5 65080000 		.4byte	.LASF131
 1596 09a9 12       		.byte	0x12
ARM GAS  /tmp/ccesbR0I.s 			page 29


 1597 09aa 2F       		.byte	0x2f
 1598 09ab 15       		.byte	0x15
 1599 09ac 97000000 		.4byte	0x97
 1600 09b0 00       		.byte	0
 1601 09b1 08       		.uleb128 0x8
 1602 09b2 46050000 		.4byte	.LASF132
 1603 09b6 12       		.byte	0x12
 1604 09b7 31       		.byte	0x31
 1605 09b8 16       		.byte	0x16
 1606 09b9 F3090000 		.4byte	0x9f3
 1607 09bd 04       		.byte	0x4
 1608 09be 08       		.uleb128 0x8
 1609 09bf EB030000 		.4byte	.LASF133
 1610 09c3 12       		.byte	0x12
 1611 09c4 32       		.byte	0x32
 1612 09c5 16       		.byte	0x16
 1613 09c6 F3090000 		.4byte	0x9f3
 1614 09ca 08       		.byte	0x8
 1615 09cb 08       		.uleb128 0x8
 1616 09cc 75040000 		.4byte	.LASF134
 1617 09d0 12       		.byte	0x12
 1618 09d1 33       		.byte	0x33
 1619 09d2 16       		.byte	0x16
 1620 09d3 F3090000 		.4byte	0x9f3
 1621 09d7 0C       		.byte	0xc
 1622 09d8 08       		.uleb128 0x8
 1623 09d9 4C050000 		.4byte	.LASF135
 1624 09dd 12       		.byte	0x12
 1625 09de 34       		.byte	0x34
 1626 09df 16       		.byte	0x16
 1627 09e0 F3090000 		.4byte	0x9f3
 1628 09e4 10       		.byte	0x10
 1629 09e5 08       		.uleb128 0x8
 1630 09e6 22060000 		.4byte	.LASF136
 1631 09ea 12       		.byte	0x12
 1632 09eb 35       		.byte	0x35
 1633 09ec 10       		.byte	0x10
 1634 09ed 38000000 		.4byte	0x38
 1635 09f1 14       		.byte	0x14
 1636 09f2 00       		.byte	0
 1637 09f3 0B       		.uleb128 0xb
 1638 09f4 04       		.byte	0x4
 1639 09f5 A3000000 		.4byte	0xa3
 1640 09f9 03       		.uleb128 0x3
 1641 09fa DF030000 		.4byte	.LASF137
 1642 09fe 12       		.byte	0x12
 1643 09ff 37       		.byte	0x37
 1644 0a00 03       		.byte	0x3
 1645 0a01 9B090000 		.4byte	0x99b
 1646 0a05 17       		.uleb128 0x17
 1647 0a06 00       		.byte	0
 1648 0a07 12       		.byte	0x12
 1649 0a08 43       		.byte	0x43
 1650 0a09 09       		.byte	0x9
 1651 0a0a 03       		.uleb128 0x3
 1652 0a0b D3080000 		.4byte	.LASF138
 1653 0a0f 12       		.byte	0x12
ARM GAS  /tmp/ccesbR0I.s 			page 30


 1654 0a10 45       		.byte	0x45
 1655 0a11 03       		.byte	0x3
 1656 0a12 050A0000 		.4byte	0xa05
 1657 0a16 06       		.uleb128 0x6
 1658 0a17 0A0A0000 		.4byte	0xa0a
 1659 0a1b 0F       		.uleb128 0xf
 1660 0a1c 17050000 		.4byte	.LASF139
 1661 0a20 12       		.byte	0x12
 1662 0a21 6D       		.byte	0x6d
 1663 0a22 14       		.byte	0x14
 1664 0a23 F9090000 		.4byte	0x9f9
 1665 0a27 0F       		.uleb128 0xf
 1666 0a28 39060000 		.4byte	.LASF140
 1667 0a2c 12       		.byte	0x12
 1668 0a2d 6E       		.byte	0x6e
 1669 0a2e 14       		.byte	0x14
 1670 0a2f F9090000 		.4byte	0x9f9
 1671 0a33 0F       		.uleb128 0xf
 1672 0a34 EE080000 		.4byte	.LASF141
 1673 0a38 12       		.byte	0x12
 1674 0a39 75       		.byte	0x75
 1675 0a3a 18       		.byte	0x18
 1676 0a3b 160A0000 		.4byte	0xa16
 1677 0a3f 18       		.uleb128 0x18
 1678 0a40 07       		.byte	0x7
 1679 0a41 01       		.byte	0x1
 1680 0a42 7D000000 		.4byte	0x7d
 1681 0a46 13       		.byte	0x13
 1682 0a47 54       		.byte	0x54
 1683 0a48 0E       		.byte	0xe
 1684 0a49 720A0000 		.4byte	0xa72
 1685 0a4d 19       		.uleb128 0x19
 1686 0a4e 0E020000 		.4byte	.LASF142
 1687 0a52 00       		.byte	0
 1688 0a53 19       		.uleb128 0x19
 1689 0a54 88040000 		.4byte	.LASF143
 1690 0a58 01       		.byte	0x1
 1691 0a59 19       		.uleb128 0x19
 1692 0a5a 9E070000 		.4byte	.LASF144
 1693 0a5e 02       		.byte	0x2
 1694 0a5f 19       		.uleb128 0x19
 1695 0a60 73020000 		.4byte	.LASF145
 1696 0a64 03       		.byte	0x3
 1697 0a65 19       		.uleb128 0x19
 1698 0a66 35070000 		.4byte	.LASF146
 1699 0a6a 04       		.byte	0x4
 1700 0a6b 19       		.uleb128 0x19
 1701 0a6c 8D060000 		.4byte	.LASF147
 1702 0a70 05       		.byte	0x5
 1703 0a71 00       		.byte	0
 1704 0a72 03       		.uleb128 0x3
 1705 0a73 76050000 		.4byte	.LASF148
 1706 0a77 13       		.byte	0x13
 1707 0a78 5B       		.byte	0x5b
 1708 0a79 03       		.byte	0x3
 1709 0a7a 3F0A0000 		.4byte	0xa3f
 1710 0a7e 03       		.uleb128 0x3
ARM GAS  /tmp/ccesbR0I.s 			page 31


 1711 0a7f A8070000 		.4byte	.LASF149
 1712 0a83 14       		.byte	0x14
 1713 0a84 38       		.byte	0x38
 1714 0a85 1A       		.byte	0x1a
 1715 0a86 8A0A0000 		.4byte	0xa8a
 1716 0a8a 07       		.uleb128 0x7
 1717 0a8b A8070000 		.4byte	.LASF149
 1718 0a8f 40       		.byte	0x40
 1719 0a90 14       		.byte	0x14
 1720 0a91 62       		.byte	0x62
 1721 0a92 08       		.byte	0x8
 1722 0a93 410B0000 		.4byte	0xb41
 1723 0a97 08       		.uleb128 0x8
 1724 0a98 23020000 		.4byte	.LASF150
 1725 0a9c 14       		.byte	0x14
 1726 0a9d 64       		.byte	0x64
 1727 0a9e 1D       		.byte	0x1d
 1728 0a9f 720A0000 		.4byte	0xa72
 1729 0aa3 00       		.byte	0
 1730 0aa4 08       		.uleb128 0x8
 1731 0aa5 5A070000 		.4byte	.LASF151
 1732 0aa9 14       		.byte	0x14
 1733 0aaa 66       		.byte	0x66
 1734 0aab 1E       		.byte	0x1e
 1735 0aac 810B0000 		.4byte	0xb81
 1736 0ab0 04       		.byte	0x4
 1737 0ab1 08       		.uleb128 0x8
 1738 0ab2 5D030000 		.4byte	.LASF152
 1739 0ab6 14       		.byte	0x14
 1740 0ab7 68       		.byte	0x68
 1741 0ab8 1D       		.byte	0x1d
 1742 0ab9 410B0000 		.4byte	0xb41
 1743 0abd 08       		.byte	0x8
 1744 0abe 08       		.uleb128 0x8
 1745 0abf 9E010000 		.4byte	.LASF153
 1746 0ac3 14       		.byte	0x14
 1747 0ac4 6A       		.byte	0x6a
 1748 0ac5 1E       		.byte	0x1e
 1749 0ac6 870B0000 		.4byte	0xb87
 1750 0aca 0C       		.byte	0xc
 1751 0acb 08       		.uleb128 0x8
 1752 0acc B8050000 		.4byte	.LASF154
 1753 0ad0 14       		.byte	0x14
 1754 0ad1 6D       		.byte	0x6d
 1755 0ad2 1D       		.byte	0x1d
 1756 0ad3 C7040000 		.4byte	0x4c7
 1757 0ad7 10       		.byte	0x10
 1758 0ad8 08       		.uleb128 0x8
 1759 0ad9 3B020000 		.4byte	.LASF155
 1760 0add 14       		.byte	0x14
 1761 0ade 77       		.byte	0x77
 1762 0adf 1E       		.byte	0x1e
 1763 0ae0 5C020000 		.4byte	0x25c
 1764 0ae4 20       		.byte	0x20
 1765 0ae5 08       		.uleb128 0x8
 1766 0ae6 FF010000 		.4byte	.LASF156
 1767 0aea 14       		.byte	0x14
ARM GAS  /tmp/ccesbR0I.s 			page 32


 1768 0aeb 7B       		.byte	0x7b
 1769 0aec 1D       		.byte	0x1d
 1770 0aed 4D0B0000 		.4byte	0xb4d
 1771 0af1 24       		.byte	0x24
 1772 0af2 08       		.uleb128 0x8
 1773 0af3 47030000 		.4byte	.LASF157
 1774 0af7 14       		.byte	0x14
 1775 0af8 7F       		.byte	0x7f
 1776 0af9 1E       		.byte	0x1e
 1777 0afa B2070000 		.4byte	0x7b2
 1778 0afe 28       		.byte	0x28
 1779 0aff 08       		.uleb128 0x8
 1780 0b00 11090000 		.4byte	.LASF158
 1781 0b04 14       		.byte	0x14
 1782 0b05 83       		.byte	0x83
 1783 0b06 1D       		.byte	0x1d
 1784 0b07 2C000000 		.4byte	0x2c
 1785 0b0b 2C       		.byte	0x2c
 1786 0b0c 08       		.uleb128 0x8
 1787 0b0d 1F080000 		.4byte	.LASF159
 1788 0b11 14       		.byte	0x14
 1789 0b12 87       		.byte	0x87
 1790 0b13 1D       		.byte	0x1d
 1791 0b14 2C000000 		.4byte	0x2c
 1792 0b18 30       		.byte	0x30
 1793 0b19 08       		.uleb128 0x8
 1794 0b1a 30010000 		.4byte	.LASF160
 1795 0b1e 14       		.byte	0x14
 1796 0b1f 8B       		.byte	0x8b
 1797 0b20 1E       		.byte	0x1e
 1798 0b21 7B070000 		.4byte	0x77b
 1799 0b25 34       		.byte	0x34
 1800 0b26 08       		.uleb128 0x8
 1801 0b27 EC040000 		.4byte	.LASF161
 1802 0b2b 14       		.byte	0x14
 1803 0b2c 8F       		.byte	0x8f
 1804 0b2d 1D       		.byte	0x1d
 1805 0b2e 2C000000 		.4byte	0x2c
 1806 0b32 38       		.byte	0x38
 1807 0b33 08       		.uleb128 0x8
 1808 0b34 4C020000 		.4byte	.LASF162
 1809 0b38 14       		.byte	0x14
 1810 0b39 93       		.byte	0x93
 1811 0b3a 1D       		.byte	0x1d
 1812 0b3b 2C000000 		.4byte	0x2c
 1813 0b3f 3C       		.byte	0x3c
 1814 0b40 00       		.byte	0
 1815 0b41 03       		.uleb128 0x3
 1816 0b42 AD050000 		.4byte	.LASF163
 1817 0b46 14       		.byte	0x14
 1818 0b47 42       		.byte	0x42
 1819 0b48 12       		.byte	0x12
 1820 0b49 97000000 		.4byte	0x97
 1821 0b4d 03       		.uleb128 0x3
 1822 0b4e 19020000 		.4byte	.LASF164
 1823 0b52 14       		.byte	0x14
 1824 0b53 48       		.byte	0x48
ARM GAS  /tmp/ccesbR0I.s 			page 33


 1825 0b54 12       		.byte	0x12
 1826 0b55 84000000 		.4byte	0x84
 1827 0b59 0A       		.uleb128 0xa
 1828 0b5a 04       		.byte	0x4
 1829 0b5b 14       		.byte	0x14
 1830 0b5c 57       		.byte	0x57
 1831 0b5d 09       		.byte	0x9
 1832 0b5e 700B0000 		.4byte	0xb70
 1833 0b62 08       		.uleb128 0x8
 1834 0b63 CF040000 		.4byte	.LASF165
 1835 0b67 14       		.byte	0x14
 1836 0b68 59       		.byte	0x59
 1837 0b69 1D       		.byte	0x1d
 1838 0b6a 97000000 		.4byte	0x97
 1839 0b6e 00       		.byte	0
 1840 0b6f 00       		.byte	0
 1841 0b70 03       		.uleb128 0x3
 1842 0b71 0B080000 		.4byte	.LASF166
 1843 0b75 14       		.byte	0x14
 1844 0b76 5B       		.byte	0x5b
 1845 0b77 03       		.byte	0x3
 1846 0b78 590B0000 		.4byte	0xb59
 1847 0b7c 06       		.uleb128 0x6
 1848 0b7d 700B0000 		.4byte	0xb70
 1849 0b81 0B       		.uleb128 0xb
 1850 0b82 04       		.byte	0x4
 1851 0b83 7C0B0000 		.4byte	0xb7c
 1852 0b87 0B       		.uleb128 0xb
 1853 0b88 04       		.byte	0x4
 1854 0b89 8F080000 		.4byte	0x88f
 1855 0b8d 0F       		.uleb128 0xf
 1856 0b8e 21030000 		.4byte	.LASF167
 1857 0b92 14       		.byte	0x14
 1858 0b93 A6       		.byte	0xa6
 1859 0b94 12       		.byte	0x12
 1860 0b95 7E0A0000 		.4byte	0xa7e
 1861 0b99 18       		.uleb128 0x18
 1862 0b9a 07       		.byte	0x7
 1863 0b9b 01       		.byte	0x1
 1864 0b9c 7D000000 		.4byte	0x7d
 1865 0ba0 15       		.byte	0x15
 1866 0ba1 5D       		.byte	0x5d
 1867 0ba2 0E       		.byte	0xe
 1868 0ba3 BA0B0000 		.4byte	0xbba
 1869 0ba7 19       		.uleb128 0x19
 1870 0ba8 A3060000 		.4byte	.LASF168
 1871 0bac 00       		.byte	0
 1872 0bad 19       		.uleb128 0x19
 1873 0bae EF010000 		.4byte	.LASF169
 1874 0bb2 01       		.byte	0x1
 1875 0bb3 19       		.uleb128 0x19
 1876 0bb4 DA070000 		.4byte	.LASF170
 1877 0bb8 02       		.byte	0x2
 1878 0bb9 00       		.byte	0
 1879 0bba 03       		.uleb128 0x3
 1880 0bbb 15080000 		.4byte	.LASF171
 1881 0bbf 15       		.byte	0x15
ARM GAS  /tmp/ccesbR0I.s 			page 34


 1882 0bc0 61       		.byte	0x61
 1883 0bc1 03       		.byte	0x3
 1884 0bc2 990B0000 		.4byte	0xb99
 1885 0bc6 03       		.uleb128 0x3
 1886 0bc7 91010000 		.4byte	.LASF172
 1887 0bcb 15       		.byte	0x15
 1888 0bcc 66       		.byte	0x66
 1889 0bcd 1D       		.byte	0x1d
 1890 0bce D20B0000 		.4byte	0xbd2
 1891 0bd2 07       		.uleb128 0x7
 1892 0bd3 91010000 		.4byte	.LASF172
 1893 0bd7 74       		.byte	0x74
 1894 0bd8 15       		.byte	0x15
 1895 0bd9 80       		.byte	0x80
 1896 0bda 08       		.byte	0x8
 1897 0bdb 390C0000 		.4byte	0xc39
 1898 0bdf 09       		.uleb128 0x9
 1899 0be0 766D7400 		.ascii	"vmt\000"
 1900 0be4 15       		.byte	0x15
 1901 0be5 82       		.byte	0x82
 1902 0be6 21       		.byte	0x21
 1903 0be7 C00C0000 		.4byte	0xcc0
 1904 0beb 00       		.byte	0
 1905 0bec 08       		.uleb128 0x8
 1906 0bed BE030000 		.4byte	.LASF173
 1907 0bf1 15       		.byte	0x15
 1908 0bf2 83       		.byte	0x83
 1909 0bf3 03       		.byte	0x3
 1910 0bf4 42050000 		.4byte	0x542
 1911 0bf8 04       		.byte	0x4
 1912 0bf9 08       		.uleb128 0x8
 1913 0bfa 23020000 		.4byte	.LASF150
 1914 0bfe 15       		.byte	0x15
 1915 0bff 83       		.byte	0x83
 1916 0c00 03       		.byte	0x3
 1917 0c01 BA0B0000 		.4byte	0xbba
 1918 0c05 08       		.byte	0x8
 1919 0c06 08       		.uleb128 0x8
 1920 0c07 64030000 		.4byte	.LASF174
 1921 0c0b 15       		.byte	0x15
 1922 0c0c 83       		.byte	0x83
 1923 0c0d 03       		.byte	0x3
 1924 0c0e 81070000 		.4byte	0x781
 1925 0c12 0C       		.byte	0xc
 1926 0c13 08       		.uleb128 0x8
 1927 0c14 3F050000 		.4byte	.LASF175
 1928 0c18 15       		.byte	0x15
 1929 0c19 83       		.byte	0x83
 1930 0c1a 03       		.byte	0x3
 1931 0c1b 8D070000 		.4byte	0x78d
 1932 0c1f 30       		.byte	0x30
 1933 0c20 09       		.uleb128 0x9
 1934 0c21 696200   		.ascii	"ib\000"
 1935 0c24 15       		.byte	0x15
 1936 0c25 83       		.byte	0x83
 1937 0c26 03       		.byte	0x3
 1938 0c27 C60C0000 		.4byte	0xcc6
ARM GAS  /tmp/ccesbR0I.s 			page 35


 1939 0c2b 54       		.byte	0x54
 1940 0c2c 09       		.uleb128 0x9
 1941 0c2d 6F6200   		.ascii	"ob\000"
 1942 0c30 15       		.byte	0x15
 1943 0c31 83       		.byte	0x83
 1944 0c32 03       		.byte	0x3
 1945 0c33 C60C0000 		.4byte	0xcc6
 1946 0c37 64       		.byte	0x64
 1947 0c38 00       		.byte	0
 1948 0c39 1A       		.uleb128 0x1a
 1949 0c3a 53443100 		.ascii	"SD1\000"
 1950 0c3e 18       		.byte	0x18
 1951 0c3f 62       		.byte	0x62
 1952 0c40 15       		.byte	0x15
 1953 0c41 C60B0000 		.4byte	0xbc6
 1954 0c45 07       		.uleb128 0x7
 1955 0c46 4D030000 		.4byte	.LASF176
 1956 0c4a 20       		.byte	0x20
 1957 0c4b 15       		.byte	0x15
 1958 0c4c 75       		.byte	0x75
 1959 0c4d 08       		.byte	0x8
 1960 0c4e BB0C0000 		.4byte	0xcbb
 1961 0c52 08       		.uleb128 0x8
 1962 0c53 EE000000 		.4byte	.LASF177
 1963 0c57 15       		.byte	0x15
 1964 0c58 76       		.byte	0x76
 1965 0c59 03       		.byte	0x3
 1966 0c5a B8070000 		.4byte	0x7b8
 1967 0c5e 00       		.byte	0
 1968 0c5f 08       		.uleb128 0x8
 1969 0c60 43070000 		.4byte	.LASF178
 1970 0c64 15       		.byte	0x15
 1971 0c65 76       		.byte	0x76
 1972 0c66 03       		.byte	0x3
 1973 0c67 D7070000 		.4byte	0x7d7
 1974 0c6b 04       		.byte	0x4
 1975 0c6c 09       		.uleb128 0x9
 1976 0c6d 70757400 		.ascii	"put\000"
 1977 0c71 15       		.byte	0x15
 1978 0c72 76       		.byte	0x76
 1979 0c73 03       		.byte	0x3
 1980 0c74 F1070000 		.4byte	0x7f1
 1981 0c78 08       		.byte	0x8
 1982 0c79 09       		.uleb128 0x9
 1983 0c7a 67657400 		.ascii	"get\000"
 1984 0c7e 15       		.byte	0x15
 1985 0c7f 76       		.byte	0x76
 1986 0c80 03       		.byte	0x3
 1987 0c81 A0050000 		.4byte	0x5a0
 1988 0c85 0C       		.byte	0xc
 1989 0c86 08       		.uleb128 0x8
 1990 0c87 7B040000 		.4byte	.LASF179
 1991 0c8b 15       		.byte	0x15
 1992 0c8c 76       		.byte	0x76
 1993 0c8d 03       		.byte	0x3
 1994 0c8e C1080000 		.4byte	0x8c1
 1995 0c92 10       		.byte	0x10
ARM GAS  /tmp/ccesbR0I.s 			page 36


 1996 0c93 08       		.uleb128 0x8
 1997 0c94 86030000 		.4byte	.LASF180
 1998 0c98 15       		.byte	0x15
 1999 0c99 76       		.byte	0x76
 2000 0c9a 03       		.byte	0x3
 2001 0c9b DB080000 		.4byte	0x8db
 2002 0c9f 14       		.byte	0x14
 2003 0ca0 08       		.uleb128 0x8
 2004 0ca1 04040000 		.4byte	.LASF181
 2005 0ca5 15       		.byte	0x15
 2006 0ca6 76       		.byte	0x76
 2007 0ca7 03       		.byte	0x3
 2008 0ca8 FF080000 		.4byte	0x8ff
 2009 0cac 18       		.byte	0x18
 2010 0cad 08       		.uleb128 0x8
 2011 0cae 5F080000 		.4byte	.LASF182
 2012 0cb2 15       		.byte	0x15
 2013 0cb3 76       		.byte	0x76
 2014 0cb4 03       		.byte	0x3
 2015 0cb5 23090000 		.4byte	0x923
 2016 0cb9 1C       		.byte	0x1c
 2017 0cba 00       		.byte	0
 2018 0cbb 06       		.uleb128 0x6
 2019 0cbc 450C0000 		.4byte	0xc45
 2020 0cc0 0B       		.uleb128 0xb
 2021 0cc1 04       		.byte	0x4
 2022 0cc2 BB0C0000 		.4byte	0xcbb
 2023 0cc6 13       		.uleb128 0x13
 2024 0cc7 6C000000 		.4byte	0x6c
 2025 0ccb D60C0000 		.4byte	0xcd6
 2026 0ccf 14       		.uleb128 0x14
 2027 0cd0 38000000 		.4byte	0x38
 2028 0cd4 0F       		.byte	0xf
 2029 0cd5 00       		.byte	0
 2030 0cd6 18       		.uleb128 0x18
 2031 0cd7 07       		.byte	0x7
 2032 0cd8 01       		.byte	0x1
 2033 0cd9 7D000000 		.4byte	0x7d
 2034 0cdd 16       		.byte	0x16
 2035 0cde 4E       		.byte	0x4e
 2036 0cdf 0E       		.byte	0xe
 2037 0ce0 030D0000 		.4byte	0xd03
 2038 0ce4 19       		.uleb128 0x19
 2039 0ce5 ED070000 		.4byte	.LASF183
 2040 0ce9 00       		.byte	0
 2041 0cea 19       		.uleb128 0x19
 2042 0ceb D9010000 		.4byte	.LASF184
 2043 0cef 01       		.byte	0x1
 2044 0cf0 19       		.uleb128 0x19
 2045 0cf1 E3070000 		.4byte	.LASF185
 2046 0cf5 02       		.byte	0x2
 2047 0cf6 19       		.uleb128 0x19
 2048 0cf7 07010000 		.4byte	.LASF186
 2049 0cfb 03       		.byte	0x3
 2050 0cfc 19       		.uleb128 0x19
 2051 0cfd 4D070000 		.4byte	.LASF187
 2052 0d01 04       		.byte	0x4
ARM GAS  /tmp/ccesbR0I.s 			page 37


 2053 0d02 00       		.byte	0
 2054 0d03 03       		.uleb128 0x3
 2055 0d04 6E070000 		.4byte	.LASF188
 2056 0d08 16       		.byte	0x16
 2057 0d09 54       		.byte	0x54
 2058 0d0a 03       		.byte	0x3
 2059 0d0b D60C0000 		.4byte	0xcd6
 2060 0d0f 03       		.uleb128 0x3
 2061 0d10 6A010000 		.4byte	.LASF189
 2062 0d14 17       		.byte	0x17
 2063 0d15 35       		.byte	0x35
 2064 0d16 1A       		.byte	0x1a
 2065 0d17 1B0D0000 		.4byte	0xd1b
 2066 0d1b 07       		.uleb128 0x7
 2067 0d1c 6A010000 		.4byte	.LASF189
 2068 0d20 28       		.byte	0x28
 2069 0d21 17       		.byte	0x17
 2070 0d22 7C       		.byte	0x7c
 2071 0d23 08       		.byte	0x8
 2072 0d24 840D0000 		.4byte	0xd84
 2073 0d28 08       		.uleb128 0x8
 2074 0d29 23020000 		.4byte	.LASF150
 2075 0d2d 17       		.byte	0x17
 2076 0d2e 80       		.byte	0x80
 2077 0d2f 19       		.byte	0x19
 2078 0d30 030D0000 		.4byte	0xd03
 2079 0d34 00       		.byte	0
 2080 0d35 08       		.uleb128 0x8
 2081 0d36 5A070000 		.4byte	.LASF151
 2082 0d3a 17       		.byte	0x17
 2083 0d3b 84       		.byte	0x84
 2084 0d3c 1A       		.byte	0x1a
 2085 0d3d 370E0000 		.4byte	0xe37
 2086 0d41 04       		.byte	0x4
 2087 0d42 08       		.uleb128 0x8
 2088 0d43 3B020000 		.4byte	.LASF155
 2089 0d47 17       		.byte	0x17
 2090 0d48 89       		.byte	0x89
 2091 0d49 1A       		.byte	0x1a
 2092 0d4a 5C020000 		.4byte	0x25c
 2093 0d4e 08       		.byte	0x8
 2094 0d4f 08       		.uleb128 0x8
 2095 0d50 B8050000 		.4byte	.LASF154
 2096 0d54 17       		.byte	0x17
 2097 0d55 90       		.byte	0x90
 2098 0d56 19       		.byte	0x19
 2099 0d57 C7040000 		.4byte	0x4c7
 2100 0d5b 0C       		.byte	0xc
 2101 0d5c 08       		.uleb128 0x8
 2102 0d5d 30010000 		.4byte	.LASF160
 2103 0d61 17       		.byte	0x17
 2104 0d62 98       		.byte	0x98
 2105 0d63 1A       		.byte	0x1a
 2106 0d64 A9020000 		.4byte	0x2a9
 2107 0d68 1C       		.byte	0x1c
 2108 0d69 08       		.uleb128 0x8
 2109 0d6a 47030000 		.4byte	.LASF157
ARM GAS  /tmp/ccesbR0I.s 			page 38


 2110 0d6e 17       		.byte	0x17
 2111 0d6f 9D       		.byte	0x9d
 2112 0d70 1A       		.byte	0x1a
 2113 0d71 3D0E0000 		.4byte	0xe3d
 2114 0d75 20       		.byte	0x20
 2115 0d76 08       		.uleb128 0x8
 2116 0d77 AC020000 		.4byte	.LASF190
 2117 0d7b 17       		.byte	0x17
 2118 0d7c A2       		.byte	0xa2
 2119 0d7d 17       		.byte	0x17
 2120 0d7e 2C000000 		.4byte	0x2c
 2121 0d82 24       		.byte	0x24
 2122 0d83 00       		.byte	0
 2123 0d84 03       		.uleb128 0x3
 2124 0d85 13030000 		.4byte	.LASF191
 2125 0d89 17       		.byte	0x17
 2126 0d8a 3D       		.byte	0x3d
 2127 0d8b 10       		.byte	0x10
 2128 0d8c 900D0000 		.4byte	0xd90
 2129 0d90 0B       		.uleb128 0xb
 2130 0d91 04       		.byte	0x4
 2131 0d92 960D0000 		.4byte	0xd96
 2132 0d96 0D       		.uleb128 0xd
 2133 0d97 A10D0000 		.4byte	0xda1
 2134 0d9b 0E       		.uleb128 0xe
 2135 0d9c A10D0000 		.4byte	0xda1
 2136 0da0 00       		.byte	0
 2137 0da1 0B       		.uleb128 0xb
 2138 0da2 04       		.byte	0x4
 2139 0da3 0F0D0000 		.4byte	0xd0f
 2140 0da7 0A       		.uleb128 0xa
 2141 0da8 10       		.byte	0x10
 2142 0da9 17       		.byte	0x17
 2143 0daa 44       		.byte	0x44
 2144 0dab 09       		.byte	0x9
 2145 0dac 260E0000 		.4byte	0xe26
 2146 0db0 08       		.uleb128 0x8
 2147 0db1 A5020000 		.4byte	.LASF192
 2148 0db5 17       		.byte	0x17
 2149 0db6 48       		.byte	0x48
 2150 0db7 19       		.byte	0x19
 2151 0db8 840D0000 		.4byte	0xd84
 2152 0dbc 00       		.byte	0
 2153 0dbd 08       		.uleb128 0x8
 2154 0dbe 55050000 		.4byte	.LASF193
 2155 0dc2 17       		.byte	0x17
 2156 0dc3 4F       		.byte	0x4f
 2157 0dc4 19       		.byte	0x19
 2158 0dc5 6C000000 		.4byte	0x6c
 2159 0dc9 04       		.byte	0x4
 2160 0dca 08       		.uleb128 0x8
 2161 0dcb 62050000 		.4byte	.LASF194
 2162 0dcf 17       		.byte	0x17
 2163 0dd0 52       		.byte	0x52
 2164 0dd1 19       		.byte	0x19
 2165 0dd2 6C000000 		.4byte	0x6c
 2166 0dd6 05       		.byte	0x5
ARM GAS  /tmp/ccesbR0I.s 			page 39


 2167 0dd7 08       		.uleb128 0x8
 2168 0dd8 A9030000 		.4byte	.LASF195
 2169 0ddc 17       		.byte	0x17
 2170 0ddd 58       		.byte	0x58
 2171 0dde 19       		.byte	0x19
 2172 0ddf 6C000000 		.4byte	0x6c
 2173 0de3 06       		.byte	0x6
 2174 0de4 08       		.uleb128 0x8
 2175 0de5 B2020000 		.4byte	.LASF196
 2176 0de9 17       		.byte	0x17
 2177 0dea 5E       		.byte	0x5e
 2178 0deb 19       		.byte	0x19
 2179 0dec 6C000000 		.4byte	0x6c
 2180 0df0 07       		.byte	0x7
 2181 0df1 08       		.uleb128 0x8
 2182 0df2 C8020000 		.4byte	.LASF197
 2183 0df6 17       		.byte	0x17
 2184 0df7 64       		.byte	0x64
 2185 0df8 19       		.byte	0x19
 2186 0df9 6C000000 		.4byte	0x6c
 2187 0dfd 08       		.byte	0x8
 2188 0dfe 08       		.uleb128 0x8
 2189 0dff B9070000 		.4byte	.LASF198
 2190 0e03 17       		.byte	0x17
 2191 0e04 6A       		.byte	0x6a
 2192 0e05 19       		.byte	0x19
 2193 0e06 6C000000 		.4byte	0x6c
 2194 0e0a 09       		.byte	0x9
 2195 0e0b 08       		.uleb128 0x8
 2196 0e0c 81020000 		.4byte	.LASF199
 2197 0e10 17       		.byte	0x17
 2198 0e11 70       		.byte	0x70
 2199 0e12 19       		.byte	0x19
 2200 0e13 6C000000 		.4byte	0x6c
 2201 0e17 0A       		.byte	0xa
 2202 0e18 08       		.uleb128 0x8
 2203 0e19 72060000 		.4byte	.LASF200
 2204 0e1d 17       		.byte	0x17
 2205 0e1e 73       		.byte	0x73
 2206 0e1f 19       		.byte	0x19
 2207 0e20 97000000 		.4byte	0x97
 2208 0e24 0C       		.byte	0xc
 2209 0e25 00       		.byte	0
 2210 0e26 03       		.uleb128 0x3
 2211 0e27 9A080000 		.4byte	.LASF201
 2212 0e2b 17       		.byte	0x17
 2213 0e2c 75       		.byte	0x75
 2214 0e2d 03       		.byte	0x3
 2215 0e2e A70D0000 		.4byte	0xda7
 2216 0e32 06       		.uleb128 0x6
 2217 0e33 260E0000 		.4byte	0xe26
 2218 0e37 0B       		.uleb128 0xb
 2219 0e38 04       		.byte	0x4
 2220 0e39 320E0000 		.4byte	0xe32
 2221 0e3d 0B       		.uleb128 0xb
 2222 0e3e 04       		.byte	0x4
 2223 0e3f 430E0000 		.4byte	0xe43
ARM GAS  /tmp/ccesbR0I.s 			page 40


 2224 0e43 1B       		.uleb128 0x1b
 2225 0e44 0F       		.uleb128 0xf
 2226 0e45 64020000 		.4byte	.LASF202
 2227 0e49 17       		.byte	0x17
 2228 0e4a B6       		.byte	0xb6
 2229 0e4b 14       		.byte	0x14
 2230 0e4c 0F0D0000 		.4byte	0xd0f
 2231 0e50 1C       		.uleb128 0x1c
 2232 0e51 9E040000 		.4byte	.LASF203
 2233 0e55 01       		.byte	0x1
 2234 0e56 31       		.byte	0x31
 2235 0e57 13       		.byte	0x13
 2236 0e58 9C080000 		.4byte	0x89c
 2237 0e5c 05       		.uleb128 0x5
 2238 0e5d 03       		.byte	0x3
 2239 0e5e 00000000 		.4byte	measurement_offset
 2240 0e62 1D       		.uleb128 0x1d
 2241 0e63 13040000 		.4byte	.LASF207
 2242 0e67 01       		.byte	0x1
 2243 0e68 75       		.byte	0x75
 2244 0e69 06       		.byte	0x6
 2245 0e6a 01       		.byte	0x1
 2246 0e6b 7C0E0000 		.4byte	0xe7c
 2247 0e6f 1E       		.uleb128 0x1e
 2248 0e70 746D7000 		.ascii	"tmp\000"
 2249 0e74 01       		.byte	0x1
 2250 0e75 75       		.byte	0x75
 2251 0e76 24       		.byte	0x24
 2252 0e77 8F090000 		.4byte	0x98f
 2253 0e7b 00       		.byte	0
 2254 0e7c 1F       		.uleb128 0x1f
 2255 0e7d 00010000 		.4byte	.LASF208
 2256 0e81 01       		.byte	0x1
 2257 0e82 61       		.byte	0x61
 2258 0e83 06       		.byte	0x6
 2259 0e84 00000000 		.4byte	.LFB9
 2260 0e88 64000000 		.4byte	.LFE9-.LFB9
 2261 0e8c 01       		.uleb128 0x1
 2262 0e8d 9C       		.byte	0x9c
 2263 0e8e F70E0000 		.4byte	0xef7
 2264 0e92 20       		.uleb128 0x20
 2265 0e93 746D00   		.ascii	"tm\000"
 2266 0e96 01       		.byte	0x1
 2267 0e97 62       		.byte	0x62
 2268 0e98 13       		.byte	0x13
 2269 0e99 29090000 		.4byte	0x929
 2270 0e9d 02       		.uleb128 0x2
 2271 0e9e 91       		.byte	0x91
 2272 0e9f 64       		.sleb128 -28
 2273 0ea0 21       		.uleb128 0x21
 2274 0ea1 620E0000 		.4byte	0xe62
 2275 0ea5 24000000 		.4byte	.LBI8
 2276 0ea9 01       		.byte	.LVU38
 2277 0eaa 00000000 		.4byte	.Ldebug_ranges0+0
 2278 0eae 01       		.byte	0x1
 2279 0eaf 68       		.byte	0x68
 2280 0eb0 03       		.byte	0x3
ARM GAS  /tmp/ccesbR0I.s 			page 41


 2281 0eb1 C30E0000 		.4byte	0xec3
 2282 0eb5 22       		.uleb128 0x22
 2283 0eb6 6F0E0000 		.4byte	0xe6f
 2284 0eba 04000000 		.4byte	.LLST1
 2285 0ebe 00000000 		.4byte	.LVUS1
 2286 0ec2 00       		.byte	0
 2287 0ec3 21       		.uleb128 0x21
 2288 0ec4 300F0000 		.4byte	0xf30
 2289 0ec8 3C000000 		.4byte	.LBI14
 2290 0ecc 05       		.byte	.LVU51
 2291 0ecd 30000000 		.4byte	.Ldebug_ranges0+0x30
 2292 0ed1 01       		.byte	0x1
 2293 0ed2 69       		.byte	0x69
 2294 0ed3 03       		.byte	0x3
 2295 0ed4 E60E0000 		.4byte	0xee6
 2296 0ed8 22       		.uleb128 0x22
 2297 0ed9 3D0F0000 		.4byte	0xf3d
 2298 0edd 26000000 		.4byte	.LLST2
 2299 0ee1 24000000 		.4byte	.LVUS2
 2300 0ee5 00       		.byte	0
 2301 0ee6 23       		.uleb128 0x23
 2302 0ee7 44000000 		.4byte	.LVL7
 2303 0eeb F70E0000 		.4byte	0xef7
 2304 0eef 24       		.uleb128 0x24
 2305 0ef0 01       		.uleb128 0x1
 2306 0ef1 50       		.byte	0x50
 2307 0ef2 02       		.uleb128 0x2
 2308 0ef3 70       		.byte	0x70
 2309 0ef4 00       		.sleb128 0
 2310 0ef5 00       		.byte	0
 2311 0ef6 00       		.byte	0
 2312 0ef7 25       		.uleb128 0x25
 2313 0ef8 61070000 		.4byte	.LASF209
 2314 0efc 01       		.byte	0x1
 2315 0efd 4A       		.byte	0x4a
 2316 0efe 0D       		.byte	0xd
 2317 0eff 00000000 		.4byte	.LFB8
 2318 0f03 4C000000 		.4byte	.LFE8-.LFB8
 2319 0f07 01       		.uleb128 0x1
 2320 0f08 9C       		.byte	0x9c
 2321 0f09 300F0000 		.4byte	0xf30
 2322 0f0d 26       		.uleb128 0x26
 2323 0f0e 746D7000 		.ascii	"tmp\000"
 2324 0f12 01       		.byte	0x1
 2325 0f13 4A       		.byte	0x4a
 2326 0f14 26       		.byte	0x26
 2327 0f15 8F090000 		.4byte	0x98f
 2328 0f19 01       		.uleb128 0x1
 2329 0f1a 50       		.byte	0x50
 2330 0f1b 27       		.uleb128 0x27
 2331 0f1c 6E6F7700 		.ascii	"now\000"
 2332 0f20 01       		.byte	0x1
 2333 0f21 4C       		.byte	0x4c
 2334 0f22 0E       		.byte	0xe
 2335 0f23 9C080000 		.4byte	0x89c
 2336 0f27 3B000000 		.4byte	.LLST0
 2337 0f2b 39000000 		.4byte	.LVUS0
ARM GAS  /tmp/ccesbR0I.s 			page 42


 2338 0f2f 00       		.byte	0
 2339 0f30 28       		.uleb128 0x28
 2340 0f31 E5080000 		.4byte	.LASF210
 2341 0f35 01       		.byte	0x1
 2342 0f36 3E       		.byte	0x3e
 2343 0f37 0D       		.byte	0xd
 2344 0f38 01       		.byte	0x1
 2345 0f39 4A0F0000 		.4byte	0xf4a
 2346 0f3d 1E       		.uleb128 0x1e
 2347 0f3e 746D7000 		.ascii	"tmp\000"
 2348 0f42 01       		.byte	0x1
 2349 0f43 3E       		.byte	0x3e
 2350 0f44 27       		.byte	0x27
 2351 0f45 8F090000 		.4byte	0x98f
 2352 0f49 00       		.byte	0
 2353 0f4a 29       		.uleb128 0x29
 2354 0f4b 300F0000 		.4byte	0xf30
 2355 0f4f 00000000 		.4byte	.LFB7
 2356 0f53 14000000 		.4byte	.LFE7-.LFB7
 2357 0f57 01       		.uleb128 0x1
 2358 0f58 9C       		.byte	0x9c
 2359 0f59 650F0000 		.4byte	0xf65
 2360 0f5d 2A       		.uleb128 0x2a
 2361 0f5e 3D0F0000 		.4byte	0xf3d
 2362 0f62 01       		.uleb128 0x1
 2363 0f63 50       		.byte	0x50
 2364 0f64 00       		.byte	0
 2365 0f65 2B       		.uleb128 0x2b
 2366 0f66 620E0000 		.4byte	0xe62
 2367 0f6a 00000000 		.4byte	.LFB10
 2368 0f6e 30000000 		.4byte	.LFE10-.LFB10
 2369 0f72 01       		.uleb128 0x1
 2370 0f73 9C       		.byte	0x9c
 2371 0f74 2A       		.uleb128 0x2a
 2372 0f75 6F0E0000 		.4byte	0xe6f
 2373 0f79 01       		.uleb128 0x1
 2374 0f7a 50       		.byte	0x50
 2375 0f7b 00       		.byte	0
 2376 0f7c 00       		.byte	0
 2377              		.section	.debug_abbrev,"",%progbits
 2378              	.Ldebug_abbrev0:
 2379 0000 01       		.uleb128 0x1
 2380 0001 11       		.uleb128 0x11
 2381 0002 01       		.byte	0x1
 2382 0003 25       		.uleb128 0x25
 2383 0004 0E       		.uleb128 0xe
 2384 0005 13       		.uleb128 0x13
 2385 0006 0B       		.uleb128 0xb
 2386 0007 03       		.uleb128 0x3
 2387 0008 0E       		.uleb128 0xe
 2388 0009 1B       		.uleb128 0x1b
 2389 000a 0E       		.uleb128 0xe
 2390 000b 55       		.uleb128 0x55
 2391 000c 17       		.uleb128 0x17
 2392 000d 11       		.uleb128 0x11
 2393 000e 01       		.uleb128 0x1
 2394 000f 10       		.uleb128 0x10
ARM GAS  /tmp/ccesbR0I.s 			page 43


 2395 0010 17       		.uleb128 0x17
 2396 0011 00       		.byte	0
 2397 0012 00       		.byte	0
 2398 0013 02       		.uleb128 0x2
 2399 0014 24       		.uleb128 0x24
 2400 0015 00       		.byte	0
 2401 0016 0B       		.uleb128 0xb
 2402 0017 0B       		.uleb128 0xb
 2403 0018 3E       		.uleb128 0x3e
 2404 0019 0B       		.uleb128 0xb
 2405 001a 03       		.uleb128 0x3
 2406 001b 08       		.uleb128 0x8
 2407 001c 00       		.byte	0
 2408 001d 00       		.byte	0
 2409 001e 03       		.uleb128 0x3
 2410 001f 16       		.uleb128 0x16
 2411 0020 00       		.byte	0
 2412 0021 03       		.uleb128 0x3
 2413 0022 0E       		.uleb128 0xe
 2414 0023 3A       		.uleb128 0x3a
 2415 0024 0B       		.uleb128 0xb
 2416 0025 3B       		.uleb128 0x3b
 2417 0026 0B       		.uleb128 0xb
 2418 0027 39       		.uleb128 0x39
 2419 0028 0B       		.uleb128 0xb
 2420 0029 49       		.uleb128 0x49
 2421 002a 13       		.uleb128 0x13
 2422 002b 00       		.byte	0
 2423 002c 00       		.byte	0
 2424 002d 04       		.uleb128 0x4
 2425 002e 24       		.uleb128 0x24
 2426 002f 00       		.byte	0
 2427 0030 0B       		.uleb128 0xb
 2428 0031 0B       		.uleb128 0xb
 2429 0032 3E       		.uleb128 0x3e
 2430 0033 0B       		.uleb128 0xb
 2431 0034 03       		.uleb128 0x3
 2432 0035 0E       		.uleb128 0xe
 2433 0036 00       		.byte	0
 2434 0037 00       		.byte	0
 2435 0038 05       		.uleb128 0x5
 2436 0039 35       		.uleb128 0x35
 2437 003a 00       		.byte	0
 2438 003b 49       		.uleb128 0x49
 2439 003c 13       		.uleb128 0x13
 2440 003d 00       		.byte	0
 2441 003e 00       		.byte	0
 2442 003f 06       		.uleb128 0x6
 2443 0040 26       		.uleb128 0x26
 2444 0041 00       		.byte	0
 2445 0042 49       		.uleb128 0x49
 2446 0043 13       		.uleb128 0x13
 2447 0044 00       		.byte	0
 2448 0045 00       		.byte	0
 2449 0046 07       		.uleb128 0x7
 2450 0047 13       		.uleb128 0x13
 2451 0048 01       		.byte	0x1
ARM GAS  /tmp/ccesbR0I.s 			page 44


 2452 0049 03       		.uleb128 0x3
 2453 004a 0E       		.uleb128 0xe
 2454 004b 0B       		.uleb128 0xb
 2455 004c 0B       		.uleb128 0xb
 2456 004d 3A       		.uleb128 0x3a
 2457 004e 0B       		.uleb128 0xb
 2458 004f 3B       		.uleb128 0x3b
 2459 0050 0B       		.uleb128 0xb
 2460 0051 39       		.uleb128 0x39
 2461 0052 0B       		.uleb128 0xb
 2462 0053 01       		.uleb128 0x1
 2463 0054 13       		.uleb128 0x13
 2464 0055 00       		.byte	0
 2465 0056 00       		.byte	0
 2466 0057 08       		.uleb128 0x8
 2467 0058 0D       		.uleb128 0xd
 2468 0059 00       		.byte	0
 2469 005a 03       		.uleb128 0x3
 2470 005b 0E       		.uleb128 0xe
 2471 005c 3A       		.uleb128 0x3a
 2472 005d 0B       		.uleb128 0xb
 2473 005e 3B       		.uleb128 0x3b
 2474 005f 0B       		.uleb128 0xb
 2475 0060 39       		.uleb128 0x39
 2476 0061 0B       		.uleb128 0xb
 2477 0062 49       		.uleb128 0x49
 2478 0063 13       		.uleb128 0x13
 2479 0064 38       		.uleb128 0x38
 2480 0065 0B       		.uleb128 0xb
 2481 0066 00       		.byte	0
 2482 0067 00       		.byte	0
 2483 0068 09       		.uleb128 0x9
 2484 0069 0D       		.uleb128 0xd
 2485 006a 00       		.byte	0
 2486 006b 03       		.uleb128 0x3
 2487 006c 08       		.uleb128 0x8
 2488 006d 3A       		.uleb128 0x3a
 2489 006e 0B       		.uleb128 0xb
 2490 006f 3B       		.uleb128 0x3b
 2491 0070 0B       		.uleb128 0xb
 2492 0071 39       		.uleb128 0x39
 2493 0072 0B       		.uleb128 0xb
 2494 0073 49       		.uleb128 0x49
 2495 0074 13       		.uleb128 0x13
 2496 0075 38       		.uleb128 0x38
 2497 0076 0B       		.uleb128 0xb
 2498 0077 00       		.byte	0
 2499 0078 00       		.byte	0
 2500 0079 0A       		.uleb128 0xa
 2501 007a 13       		.uleb128 0x13
 2502 007b 01       		.byte	0x1
 2503 007c 0B       		.uleb128 0xb
 2504 007d 0B       		.uleb128 0xb
 2505 007e 3A       		.uleb128 0x3a
 2506 007f 0B       		.uleb128 0xb
 2507 0080 3B       		.uleb128 0x3b
 2508 0081 0B       		.uleb128 0xb
ARM GAS  /tmp/ccesbR0I.s 			page 45


 2509 0082 39       		.uleb128 0x39
 2510 0083 0B       		.uleb128 0xb
 2511 0084 01       		.uleb128 0x1
 2512 0085 13       		.uleb128 0x13
 2513 0086 00       		.byte	0
 2514 0087 00       		.byte	0
 2515 0088 0B       		.uleb128 0xb
 2516 0089 0F       		.uleb128 0xf
 2517 008a 00       		.byte	0
 2518 008b 0B       		.uleb128 0xb
 2519 008c 0B       		.uleb128 0xb
 2520 008d 49       		.uleb128 0x49
 2521 008e 13       		.uleb128 0x13
 2522 008f 00       		.byte	0
 2523 0090 00       		.byte	0
 2524 0091 0C       		.uleb128 0xc
 2525 0092 0F       		.uleb128 0xf
 2526 0093 00       		.byte	0
 2527 0094 0B       		.uleb128 0xb
 2528 0095 0B       		.uleb128 0xb
 2529 0096 00       		.byte	0
 2530 0097 00       		.byte	0
 2531 0098 0D       		.uleb128 0xd
 2532 0099 15       		.uleb128 0x15
 2533 009a 01       		.byte	0x1
 2534 009b 27       		.uleb128 0x27
 2535 009c 19       		.uleb128 0x19
 2536 009d 01       		.uleb128 0x1
 2537 009e 13       		.uleb128 0x13
 2538 009f 00       		.byte	0
 2539 00a0 00       		.byte	0
 2540 00a1 0E       		.uleb128 0xe
 2541 00a2 05       		.uleb128 0x5
 2542 00a3 00       		.byte	0
 2543 00a4 49       		.uleb128 0x49
 2544 00a5 13       		.uleb128 0x13
 2545 00a6 00       		.byte	0
 2546 00a7 00       		.byte	0
 2547 00a8 0F       		.uleb128 0xf
 2548 00a9 34       		.uleb128 0x34
 2549 00aa 00       		.byte	0
 2550 00ab 03       		.uleb128 0x3
 2551 00ac 0E       		.uleb128 0xe
 2552 00ad 3A       		.uleb128 0x3a
 2553 00ae 0B       		.uleb128 0xb
 2554 00af 3B       		.uleb128 0x3b
 2555 00b0 0B       		.uleb128 0xb
 2556 00b1 39       		.uleb128 0x39
 2557 00b2 0B       		.uleb128 0xb
 2558 00b3 49       		.uleb128 0x49
 2559 00b4 13       		.uleb128 0x13
 2560 00b5 3F       		.uleb128 0x3f
 2561 00b6 19       		.uleb128 0x19
 2562 00b7 3C       		.uleb128 0x3c
 2563 00b8 19       		.uleb128 0x19
 2564 00b9 00       		.byte	0
 2565 00ba 00       		.byte	0
ARM GAS  /tmp/ccesbR0I.s 			page 46


 2566 00bb 10       		.uleb128 0x10
 2567 00bc 17       		.uleb128 0x17
 2568 00bd 01       		.byte	0x1
 2569 00be 0B       		.uleb128 0xb
 2570 00bf 0B       		.uleb128 0xb
 2571 00c0 3A       		.uleb128 0x3a
 2572 00c1 0B       		.uleb128 0xb
 2573 00c2 3B       		.uleb128 0x3b
 2574 00c3 0B       		.uleb128 0xb
 2575 00c4 39       		.uleb128 0x39
 2576 00c5 0B       		.uleb128 0xb
 2577 00c6 01       		.uleb128 0x1
 2578 00c7 13       		.uleb128 0x13
 2579 00c8 00       		.byte	0
 2580 00c9 00       		.byte	0
 2581 00ca 11       		.uleb128 0x11
 2582 00cb 0D       		.uleb128 0xd
 2583 00cc 00       		.byte	0
 2584 00cd 03       		.uleb128 0x3
 2585 00ce 0E       		.uleb128 0xe
 2586 00cf 3A       		.uleb128 0x3a
 2587 00d0 0B       		.uleb128 0xb
 2588 00d1 3B       		.uleb128 0x3b
 2589 00d2 0B       		.uleb128 0xb
 2590 00d3 39       		.uleb128 0x39
 2591 00d4 0B       		.uleb128 0xb
 2592 00d5 49       		.uleb128 0x49
 2593 00d6 13       		.uleb128 0x13
 2594 00d7 00       		.byte	0
 2595 00d8 00       		.byte	0
 2596 00d9 12       		.uleb128 0x12
 2597 00da 15       		.uleb128 0x15
 2598 00db 01       		.byte	0x1
 2599 00dc 27       		.uleb128 0x27
 2600 00dd 19       		.uleb128 0x19
 2601 00de 49       		.uleb128 0x49
 2602 00df 13       		.uleb128 0x13
 2603 00e0 01       		.uleb128 0x1
 2604 00e1 13       		.uleb128 0x13
 2605 00e2 00       		.byte	0
 2606 00e3 00       		.byte	0
 2607 00e4 13       		.uleb128 0x13
 2608 00e5 01       		.uleb128 0x1
 2609 00e6 01       		.byte	0x1
 2610 00e7 49       		.uleb128 0x49
 2611 00e8 13       		.uleb128 0x13
 2612 00e9 01       		.uleb128 0x1
 2613 00ea 13       		.uleb128 0x13
 2614 00eb 00       		.byte	0
 2615 00ec 00       		.byte	0
 2616 00ed 14       		.uleb128 0x14
 2617 00ee 21       		.uleb128 0x21
 2618 00ef 00       		.byte	0
 2619 00f0 49       		.uleb128 0x49
 2620 00f1 13       		.uleb128 0x13
 2621 00f2 2F       		.uleb128 0x2f
 2622 00f3 0B       		.uleb128 0xb
ARM GAS  /tmp/ccesbR0I.s 			page 47


 2623 00f4 00       		.byte	0
 2624 00f5 00       		.byte	0
 2625 00f6 15       		.uleb128 0x15
 2626 00f7 0D       		.uleb128 0xd
 2627 00f8 00       		.byte	0
 2628 00f9 03       		.uleb128 0x3
 2629 00fa 0E       		.uleb128 0xe
 2630 00fb 3A       		.uleb128 0x3a
 2631 00fc 0B       		.uleb128 0xb
 2632 00fd 3B       		.uleb128 0x3b
 2633 00fe 05       		.uleb128 0x5
 2634 00ff 39       		.uleb128 0x39
 2635 0100 0B       		.uleb128 0xb
 2636 0101 49       		.uleb128 0x49
 2637 0102 13       		.uleb128 0x13
 2638 0103 38       		.uleb128 0x38
 2639 0104 0B       		.uleb128 0xb
 2640 0105 00       		.byte	0
 2641 0106 00       		.byte	0
 2642 0107 16       		.uleb128 0x16
 2643 0108 16       		.uleb128 0x16
 2644 0109 00       		.byte	0
 2645 010a 03       		.uleb128 0x3
 2646 010b 0E       		.uleb128 0xe
 2647 010c 3A       		.uleb128 0x3a
 2648 010d 0B       		.uleb128 0xb
 2649 010e 3B       		.uleb128 0x3b
 2650 010f 05       		.uleb128 0x5
 2651 0110 39       		.uleb128 0x39
 2652 0111 0B       		.uleb128 0xb
 2653 0112 49       		.uleb128 0x49
 2654 0113 13       		.uleb128 0x13
 2655 0114 00       		.byte	0
 2656 0115 00       		.byte	0
 2657 0116 17       		.uleb128 0x17
 2658 0117 13       		.uleb128 0x13
 2659 0118 00       		.byte	0
 2660 0119 0B       		.uleb128 0xb
 2661 011a 0B       		.uleb128 0xb
 2662 011b 3A       		.uleb128 0x3a
 2663 011c 0B       		.uleb128 0xb
 2664 011d 3B       		.uleb128 0x3b
 2665 011e 0B       		.uleb128 0xb
 2666 011f 39       		.uleb128 0x39
 2667 0120 0B       		.uleb128 0xb
 2668 0121 00       		.byte	0
 2669 0122 00       		.byte	0
 2670 0123 18       		.uleb128 0x18
 2671 0124 04       		.uleb128 0x4
 2672 0125 01       		.byte	0x1
 2673 0126 3E       		.uleb128 0x3e
 2674 0127 0B       		.uleb128 0xb
 2675 0128 0B       		.uleb128 0xb
 2676 0129 0B       		.uleb128 0xb
 2677 012a 49       		.uleb128 0x49
 2678 012b 13       		.uleb128 0x13
 2679 012c 3A       		.uleb128 0x3a
ARM GAS  /tmp/ccesbR0I.s 			page 48


 2680 012d 0B       		.uleb128 0xb
 2681 012e 3B       		.uleb128 0x3b
 2682 012f 0B       		.uleb128 0xb
 2683 0130 39       		.uleb128 0x39
 2684 0131 0B       		.uleb128 0xb
 2685 0132 01       		.uleb128 0x1
 2686 0133 13       		.uleb128 0x13
 2687 0134 00       		.byte	0
 2688 0135 00       		.byte	0
 2689 0136 19       		.uleb128 0x19
 2690 0137 28       		.uleb128 0x28
 2691 0138 00       		.byte	0
 2692 0139 03       		.uleb128 0x3
 2693 013a 0E       		.uleb128 0xe
 2694 013b 1C       		.uleb128 0x1c
 2695 013c 0B       		.uleb128 0xb
 2696 013d 00       		.byte	0
 2697 013e 00       		.byte	0
 2698 013f 1A       		.uleb128 0x1a
 2699 0140 34       		.uleb128 0x34
 2700 0141 00       		.byte	0
 2701 0142 03       		.uleb128 0x3
 2702 0143 08       		.uleb128 0x8
 2703 0144 3A       		.uleb128 0x3a
 2704 0145 0B       		.uleb128 0xb
 2705 0146 3B       		.uleb128 0x3b
 2706 0147 0B       		.uleb128 0xb
 2707 0148 39       		.uleb128 0x39
 2708 0149 0B       		.uleb128 0xb
 2709 014a 49       		.uleb128 0x49
 2710 014b 13       		.uleb128 0x13
 2711 014c 3F       		.uleb128 0x3f
 2712 014d 19       		.uleb128 0x19
 2713 014e 3C       		.uleb128 0x3c
 2714 014f 19       		.uleb128 0x19
 2715 0150 00       		.byte	0
 2716 0151 00       		.byte	0
 2717 0152 1B       		.uleb128 0x1b
 2718 0153 26       		.uleb128 0x26
 2719 0154 00       		.byte	0
 2720 0155 00       		.byte	0
 2721 0156 00       		.byte	0
 2722 0157 1C       		.uleb128 0x1c
 2723 0158 34       		.uleb128 0x34
 2724 0159 00       		.byte	0
 2725 015a 03       		.uleb128 0x3
 2726 015b 0E       		.uleb128 0xe
 2727 015c 3A       		.uleb128 0x3a
 2728 015d 0B       		.uleb128 0xb
 2729 015e 3B       		.uleb128 0x3b
 2730 015f 0B       		.uleb128 0xb
 2731 0160 39       		.uleb128 0x39
 2732 0161 0B       		.uleb128 0xb
 2733 0162 49       		.uleb128 0x49
 2734 0163 13       		.uleb128 0x13
 2735 0164 02       		.uleb128 0x2
 2736 0165 18       		.uleb128 0x18
ARM GAS  /tmp/ccesbR0I.s 			page 49


 2737 0166 00       		.byte	0
 2738 0167 00       		.byte	0
 2739 0168 1D       		.uleb128 0x1d
 2740 0169 2E       		.uleb128 0x2e
 2741 016a 01       		.byte	0x1
 2742 016b 3F       		.uleb128 0x3f
 2743 016c 19       		.uleb128 0x19
 2744 016d 03       		.uleb128 0x3
 2745 016e 0E       		.uleb128 0xe
 2746 016f 3A       		.uleb128 0x3a
 2747 0170 0B       		.uleb128 0xb
 2748 0171 3B       		.uleb128 0x3b
 2749 0172 0B       		.uleb128 0xb
 2750 0173 39       		.uleb128 0x39
 2751 0174 0B       		.uleb128 0xb
 2752 0175 27       		.uleb128 0x27
 2753 0176 19       		.uleb128 0x19
 2754 0177 20       		.uleb128 0x20
 2755 0178 0B       		.uleb128 0xb
 2756 0179 01       		.uleb128 0x1
 2757 017a 13       		.uleb128 0x13
 2758 017b 00       		.byte	0
 2759 017c 00       		.byte	0
 2760 017d 1E       		.uleb128 0x1e
 2761 017e 05       		.uleb128 0x5
 2762 017f 00       		.byte	0
 2763 0180 03       		.uleb128 0x3
 2764 0181 08       		.uleb128 0x8
 2765 0182 3A       		.uleb128 0x3a
 2766 0183 0B       		.uleb128 0xb
 2767 0184 3B       		.uleb128 0x3b
 2768 0185 0B       		.uleb128 0xb
 2769 0186 39       		.uleb128 0x39
 2770 0187 0B       		.uleb128 0xb
 2771 0188 49       		.uleb128 0x49
 2772 0189 13       		.uleb128 0x13
 2773 018a 00       		.byte	0
 2774 018b 00       		.byte	0
 2775 018c 1F       		.uleb128 0x1f
 2776 018d 2E       		.uleb128 0x2e
 2777 018e 01       		.byte	0x1
 2778 018f 3F       		.uleb128 0x3f
 2779 0190 19       		.uleb128 0x19
 2780 0191 03       		.uleb128 0x3
 2781 0192 0E       		.uleb128 0xe
 2782 0193 3A       		.uleb128 0x3a
 2783 0194 0B       		.uleb128 0xb
 2784 0195 3B       		.uleb128 0x3b
 2785 0196 0B       		.uleb128 0xb
 2786 0197 39       		.uleb128 0x39
 2787 0198 0B       		.uleb128 0xb
 2788 0199 27       		.uleb128 0x27
 2789 019a 19       		.uleb128 0x19
 2790 019b 11       		.uleb128 0x11
 2791 019c 01       		.uleb128 0x1
 2792 019d 12       		.uleb128 0x12
 2793 019e 06       		.uleb128 0x6
ARM GAS  /tmp/ccesbR0I.s 			page 50


 2794 019f 40       		.uleb128 0x40
 2795 01a0 18       		.uleb128 0x18
 2796 01a1 9742     		.uleb128 0x2117
 2797 01a3 19       		.uleb128 0x19
 2798 01a4 01       		.uleb128 0x1
 2799 01a5 13       		.uleb128 0x13
 2800 01a6 00       		.byte	0
 2801 01a7 00       		.byte	0
 2802 01a8 20       		.uleb128 0x20
 2803 01a9 34       		.uleb128 0x34
 2804 01aa 00       		.byte	0
 2805 01ab 03       		.uleb128 0x3
 2806 01ac 08       		.uleb128 0x8
 2807 01ad 3A       		.uleb128 0x3a
 2808 01ae 0B       		.uleb128 0xb
 2809 01af 3B       		.uleb128 0x3b
 2810 01b0 0B       		.uleb128 0xb
 2811 01b1 39       		.uleb128 0x39
 2812 01b2 0B       		.uleb128 0xb
 2813 01b3 49       		.uleb128 0x49
 2814 01b4 13       		.uleb128 0x13
 2815 01b5 02       		.uleb128 0x2
 2816 01b6 18       		.uleb128 0x18
 2817 01b7 00       		.byte	0
 2818 01b8 00       		.byte	0
 2819 01b9 21       		.uleb128 0x21
 2820 01ba 1D       		.uleb128 0x1d
 2821 01bb 01       		.byte	0x1
 2822 01bc 31       		.uleb128 0x31
 2823 01bd 13       		.uleb128 0x13
 2824 01be 52       		.uleb128 0x52
 2825 01bf 01       		.uleb128 0x1
 2826 01c0 B842     		.uleb128 0x2138
 2827 01c2 0B       		.uleb128 0xb
 2828 01c3 55       		.uleb128 0x55
 2829 01c4 17       		.uleb128 0x17
 2830 01c5 58       		.uleb128 0x58
 2831 01c6 0B       		.uleb128 0xb
 2832 01c7 59       		.uleb128 0x59
 2833 01c8 0B       		.uleb128 0xb
 2834 01c9 57       		.uleb128 0x57
 2835 01ca 0B       		.uleb128 0xb
 2836 01cb 01       		.uleb128 0x1
 2837 01cc 13       		.uleb128 0x13
 2838 01cd 00       		.byte	0
 2839 01ce 00       		.byte	0
 2840 01cf 22       		.uleb128 0x22
 2841 01d0 05       		.uleb128 0x5
 2842 01d1 00       		.byte	0
 2843 01d2 31       		.uleb128 0x31
 2844 01d3 13       		.uleb128 0x13
 2845 01d4 02       		.uleb128 0x2
 2846 01d5 17       		.uleb128 0x17
 2847 01d6 B742     		.uleb128 0x2137
 2848 01d8 17       		.uleb128 0x17
 2849 01d9 00       		.byte	0
 2850 01da 00       		.byte	0
ARM GAS  /tmp/ccesbR0I.s 			page 51


 2851 01db 23       		.uleb128 0x23
 2852 01dc 898201   		.uleb128 0x4109
 2853 01df 01       		.byte	0x1
 2854 01e0 11       		.uleb128 0x11
 2855 01e1 01       		.uleb128 0x1
 2856 01e2 31       		.uleb128 0x31
 2857 01e3 13       		.uleb128 0x13
 2858 01e4 00       		.byte	0
 2859 01e5 00       		.byte	0
 2860 01e6 24       		.uleb128 0x24
 2861 01e7 8A8201   		.uleb128 0x410a
 2862 01ea 00       		.byte	0
 2863 01eb 02       		.uleb128 0x2
 2864 01ec 18       		.uleb128 0x18
 2865 01ed 9142     		.uleb128 0x2111
 2866 01ef 18       		.uleb128 0x18
 2867 01f0 00       		.byte	0
 2868 01f1 00       		.byte	0
 2869 01f2 25       		.uleb128 0x25
 2870 01f3 2E       		.uleb128 0x2e
 2871 01f4 01       		.byte	0x1
 2872 01f5 03       		.uleb128 0x3
 2873 01f6 0E       		.uleb128 0xe
 2874 01f7 3A       		.uleb128 0x3a
 2875 01f8 0B       		.uleb128 0xb
 2876 01f9 3B       		.uleb128 0x3b
 2877 01fa 0B       		.uleb128 0xb
 2878 01fb 39       		.uleb128 0x39
 2879 01fc 0B       		.uleb128 0xb
 2880 01fd 27       		.uleb128 0x27
 2881 01fe 19       		.uleb128 0x19
 2882 01ff 11       		.uleb128 0x11
 2883 0200 01       		.uleb128 0x1
 2884 0201 12       		.uleb128 0x12
 2885 0202 06       		.uleb128 0x6
 2886 0203 40       		.uleb128 0x40
 2887 0204 18       		.uleb128 0x18
 2888 0205 9742     		.uleb128 0x2117
 2889 0207 19       		.uleb128 0x19
 2890 0208 01       		.uleb128 0x1
 2891 0209 13       		.uleb128 0x13
 2892 020a 00       		.byte	0
 2893 020b 00       		.byte	0
 2894 020c 26       		.uleb128 0x26
 2895 020d 05       		.uleb128 0x5
 2896 020e 00       		.byte	0
 2897 020f 03       		.uleb128 0x3
 2898 0210 08       		.uleb128 0x8
 2899 0211 3A       		.uleb128 0x3a
 2900 0212 0B       		.uleb128 0xb
 2901 0213 3B       		.uleb128 0x3b
 2902 0214 0B       		.uleb128 0xb
 2903 0215 39       		.uleb128 0x39
 2904 0216 0B       		.uleb128 0xb
 2905 0217 49       		.uleb128 0x49
 2906 0218 13       		.uleb128 0x13
 2907 0219 02       		.uleb128 0x2
ARM GAS  /tmp/ccesbR0I.s 			page 52


 2908 021a 18       		.uleb128 0x18
 2909 021b 00       		.byte	0
 2910 021c 00       		.byte	0
 2911 021d 27       		.uleb128 0x27
 2912 021e 34       		.uleb128 0x34
 2913 021f 00       		.byte	0
 2914 0220 03       		.uleb128 0x3
 2915 0221 08       		.uleb128 0x8
 2916 0222 3A       		.uleb128 0x3a
 2917 0223 0B       		.uleb128 0xb
 2918 0224 3B       		.uleb128 0x3b
 2919 0225 0B       		.uleb128 0xb
 2920 0226 39       		.uleb128 0x39
 2921 0227 0B       		.uleb128 0xb
 2922 0228 49       		.uleb128 0x49
 2923 0229 13       		.uleb128 0x13
 2924 022a 02       		.uleb128 0x2
 2925 022b 17       		.uleb128 0x17
 2926 022c B742     		.uleb128 0x2137
 2927 022e 17       		.uleb128 0x17
 2928 022f 00       		.byte	0
 2929 0230 00       		.byte	0
 2930 0231 28       		.uleb128 0x28
 2931 0232 2E       		.uleb128 0x2e
 2932 0233 01       		.byte	0x1
 2933 0234 03       		.uleb128 0x3
 2934 0235 0E       		.uleb128 0xe
 2935 0236 3A       		.uleb128 0x3a
 2936 0237 0B       		.uleb128 0xb
 2937 0238 3B       		.uleb128 0x3b
 2938 0239 0B       		.uleb128 0xb
 2939 023a 39       		.uleb128 0x39
 2940 023b 0B       		.uleb128 0xb
 2941 023c 27       		.uleb128 0x27
 2942 023d 19       		.uleb128 0x19
 2943 023e 20       		.uleb128 0x20
 2944 023f 0B       		.uleb128 0xb
 2945 0240 01       		.uleb128 0x1
 2946 0241 13       		.uleb128 0x13
 2947 0242 00       		.byte	0
 2948 0243 00       		.byte	0
 2949 0244 29       		.uleb128 0x29
 2950 0245 2E       		.uleb128 0x2e
 2951 0246 01       		.byte	0x1
 2952 0247 31       		.uleb128 0x31
 2953 0248 13       		.uleb128 0x13
 2954 0249 11       		.uleb128 0x11
 2955 024a 01       		.uleb128 0x1
 2956 024b 12       		.uleb128 0x12
 2957 024c 06       		.uleb128 0x6
 2958 024d 40       		.uleb128 0x40
 2959 024e 18       		.uleb128 0x18
 2960 024f 9742     		.uleb128 0x2117
 2961 0251 19       		.uleb128 0x19
 2962 0252 01       		.uleb128 0x1
 2963 0253 13       		.uleb128 0x13
 2964 0254 00       		.byte	0
ARM GAS  /tmp/ccesbR0I.s 			page 53


 2965 0255 00       		.byte	0
 2966 0256 2A       		.uleb128 0x2a
 2967 0257 05       		.uleb128 0x5
 2968 0258 00       		.byte	0
 2969 0259 31       		.uleb128 0x31
 2970 025a 13       		.uleb128 0x13
 2971 025b 02       		.uleb128 0x2
 2972 025c 18       		.uleb128 0x18
 2973 025d 00       		.byte	0
 2974 025e 00       		.byte	0
 2975 025f 2B       		.uleb128 0x2b
 2976 0260 2E       		.uleb128 0x2e
 2977 0261 01       		.byte	0x1
 2978 0262 31       		.uleb128 0x31
 2979 0263 13       		.uleb128 0x13
 2980 0264 11       		.uleb128 0x11
 2981 0265 01       		.uleb128 0x1
 2982 0266 12       		.uleb128 0x12
 2983 0267 06       		.uleb128 0x6
 2984 0268 40       		.uleb128 0x40
 2985 0269 18       		.uleb128 0x18
 2986 026a 9742     		.uleb128 0x2117
 2987 026c 19       		.uleb128 0x19
 2988 026d 00       		.byte	0
 2989 026e 00       		.byte	0
 2990 026f 00       		.byte	0
 2991              		.section	.debug_loc,"",%progbits
 2992              	.Ldebug_loc0:
 2993              	.LVUS1:
 2994 0000 01       		.uleb128 .LVU38
 2995 0001 00       		.uleb128 .LVU45
 2996 0002 00       		.uleb128 .LVU45
 2997 0003 03       		.uleb128 .LVU49
 2998              	.LLST1:
 2999 0004 24000000 		.4byte	.LVL4
 3000 0008 38000000 		.4byte	.LVL5
 3001 000c 0300     		.2byte	0x3
 3002 000e 91       		.byte	0x91
 3003 000f 5C       		.sleb128 -36
 3004 0010 9F       		.byte	0x9f
 3005 0011 38000000 		.4byte	.LVL5
 3006 0015 3C000000 		.4byte	.LVL6
 3007 0019 0100     		.2byte	0x1
 3008 001b 50       		.byte	0x50
 3009 001c 00000000 		.4byte	0
 3010 0020 00000000 		.4byte	0
 3011              	.LVUS2:
 3012 0024 05       		.uleb128 .LVU51
 3013 0025 07       		.uleb128 .LVU53
 3014              	.LLST2:
 3015 0026 3C000000 		.4byte	.LVL6
 3016 002a 3C000000 		.4byte	.LVL6
 3017 002e 0100     		.2byte	0x1
 3018 0030 50       		.byte	0x50
 3019 0031 00000000 		.4byte	0
 3020 0035 00000000 		.4byte	0
 3021              	.LVUS0:
ARM GAS  /tmp/ccesbR0I.s 			page 54


 3022 0039 00       		.uleb128 .LVU10
 3023 003a 00       		.uleb128 .LVU12
 3024              	.LLST0:
 3025 003b 0C000000 		.4byte	.LVL2
 3026 003f 18000000 		.4byte	.LVL3
 3027 0043 0100     		.2byte	0x1
 3028 0045 53       		.byte	0x53
 3029 0046 00000000 		.4byte	0
 3030 004a 00000000 		.4byte	0
 3031              		.section	.debug_aranges,"",%progbits
 3032 0000 34000000 		.4byte	0x34
 3033 0004 0200     		.2byte	0x2
 3034 0006 00000000 		.4byte	.Ldebug_info0
 3035 000a 04       		.byte	0x4
 3036 000b 00       		.byte	0
 3037 000c 0000     		.2byte	0
 3038 000e 0000     		.2byte	0
 3039 0010 00000000 		.4byte	.LFB7
 3040 0014 14000000 		.4byte	.LFE7-.LFB7
 3041 0018 00000000 		.4byte	.LFB8
 3042 001c 4C000000 		.4byte	.LFE8-.LFB8
 3043 0020 00000000 		.4byte	.LFB9
 3044 0024 64000000 		.4byte	.LFE9-.LFB9
 3045 0028 00000000 		.4byte	.LFB10
 3046 002c 30000000 		.4byte	.LFE10-.LFB10
 3047 0030 00000000 		.4byte	0
 3048 0034 00000000 		.4byte	0
 3049              		.section	.debug_ranges,"",%progbits
 3050              	.Ldebug_ranges0:
 3051 0000 04000000 		.4byte	.LBB8
 3052 0004 08000000 		.4byte	.LBE8
 3053 0008 18000000 		.4byte	.LBB19
 3054 000c 20000000 		.4byte	.LBE19
 3055 0010 24000000 		.4byte	.LBB20
 3056 0014 28000000 		.4byte	.LBE20
 3057 0018 2C000000 		.4byte	.LBB22
 3058 001c 34000000 		.4byte	.LBE22
 3059 0020 38000000 		.4byte	.LBB23
 3060 0024 3C000000 		.4byte	.LBE23
 3061 0028 00000000 		.4byte	0
 3062 002c 00000000 		.4byte	0
 3063 0030 14000000 		.4byte	.LBB14
 3064 0034 18000000 		.4byte	.LBE14
 3065 0038 28000000 		.4byte	.LBB21
 3066 003c 2C000000 		.4byte	.LBE21
 3067 0040 3C000000 		.4byte	.LBB24
 3068 0044 3C000000 		.4byte	.LBE24
 3069 0048 3C000000 		.4byte	.LBB25
 3070 004c 40000000 		.4byte	.LBE25
 3071 0050 00000000 		.4byte	0
 3072 0054 00000000 		.4byte	0
 3073 0058 00000000 		.4byte	.LFB7
 3074 005c 14000000 		.4byte	.LFE7
 3075 0060 00000000 		.4byte	.LFB8
 3076 0064 4C000000 		.4byte	.LFE8
 3077 0068 00000000 		.4byte	.LFB9
 3078 006c 64000000 		.4byte	.LFE9
ARM GAS  /tmp/ccesbR0I.s 			page 55


 3079 0070 00000000 		.4byte	.LFB10
 3080 0074 30000000 		.4byte	.LFE10
 3081 0078 00000000 		.4byte	0
 3082 007c 00000000 		.4byte	0
 3083              		.section	.debug_line,"",%progbits
 3084              	.Ldebug_line0:
 3085 0000 09030000 		.section	.debug_str,"MS",%progbits,1
 3085      0300C201 
 3085      00000201 
 3085      FB0E0D00 
 3085      01010101 
 3086              	.LASF92:
 3087 0000 63665F6F 		.ascii	"cf_off_older\000"
 3087      66665F6F 
 3087      6C646572 
 3087      00
 3088              	.LASF38:
 3089 000d 705F6D73 		.ascii	"p_msg\000"
 3089      6700
 3090              	.LASF204:
 3091 0013 474E5520 		.ascii	"GNU C17 9.2.1 20191025 (release) [ARM/arm-9-branch "
 3091      43313720 
 3091      392E322E 
 3091      31203230 
 3091      31393130 
 3092 0046 72657669 		.ascii	"revision 277599] -mcpu=arm1176jz-s -mno-thumb-inter"
 3092      73696F6E 
 3092      20323737 
 3092      3539395D 
 3092      202D6D63 
 3093 0079 776F726B 		.ascii	"work -mfloat-abi=soft -marm -march=armv6kz -ggdb -O"
 3093      202D6D66 
 3093      6C6F6174 
 3093      2D616269 
 3093      3D736F66 
 3094 00ac 32202D66 		.ascii	"2 -fomit-frame-pointer -ffunction-sections -fdata-s"
 3094      6F6D6974 
 3094      2D667261 
 3094      6D652D70 
 3094      6F696E74 
 3095 00df 65637469 		.ascii	"ections\000"
 3095      6F6E7300 
 3096              	.LASF77:
 3097 00e7 7264796D 		.ascii	"rdymsg\000"
 3097      736700
 3098              	.LASF177:
 3099 00ee 77726974 		.ascii	"write\000"
 3099      6500
 3100              	.LASF113:
 3101 00f4 4F757470 		.ascii	"OutputQueue\000"
 3101      75745175 
 3101      65756500 
 3102              	.LASF208:
 3103 0100 746D496E 		.ascii	"tmInit\000"
 3103      697400
 3104              	.LASF186:
 3105 0107 5350495F 		.ascii	"SPI_ACTIVE\000"
ARM GAS  /tmp/ccesbR0I.s 			page 56


 3105      41435449 
 3105      564500
 3106              	.LASF64:
 3107 0112 76746C69 		.ascii	"vtlist\000"
 3107      737400
 3108              	.LASF115:
 3109 0119 62736364 		.ascii	"bscdevice_t\000"
 3109      65766963 
 3109      655F7400 
 3110              	.LASF124:
 3111 0125 68616C72 		.ascii	"halrtcnt_t\000"
 3111      74636E74 
 3111      5F7400
 3112              	.LASF160:
 3113 0130 72786275 		.ascii	"rxbuf\000"
 3113      6600
 3114              	.LASF106:
 3115 0136 715F746F 		.ascii	"q_top\000"
 3115      7000
 3116              	.LASF13:
 3117 013c 6C6F6E67 		.ascii	"long long unsigned int\000"
 3117      206C6F6E 
 3117      6720756E 
 3117      7369676E 
 3117      65642069 
 3118              	.LASF88:
 3119 0153 63685F74 		.ascii	"ch_threadsize\000"
 3119      68726561 
 3119      6473697A 
 3119      6500
 3120              	.LASF78:
 3121 0161 65786974 		.ascii	"exitcode\000"
 3121      636F6465 
 3121      00
 3122              	.LASF189:
 3123 016a 53504944 		.ascii	"SPIDriver\000"
 3123      72697665 
 3123      7200
 3124              	.LASF120:
 3125 0174 64617461 		.ascii	"dataFifo\000"
 3125      4669666F 
 3125      00
 3126              	.LASF26:
 3127 017d 705F7072 		.ascii	"p_prio\000"
 3127      696F00
 3128              	.LASF95:
 3129 0184 63665F6F 		.ascii	"cf_off_state\000"
 3129      66665F73 
 3129      74617465 
 3129      00
 3130              	.LASF172:
 3131 0191 53657269 		.ascii	"SerialDriver\000"
 3131      616C4472 
 3131      69766572 
 3131      00
 3132              	.LASF153:
 3133 019e 64657669 		.ascii	"device\000"
ARM GAS  /tmp/ccesbR0I.s 			page 57


 3133      636500
 3134              	.LASF103:
 3135 01a5 715F7761 		.ascii	"q_waiting\000"
 3135      6974696E 
 3135      6700
 3136              	.LASF6:
 3137 01af 6C6F6E67 		.ascii	"long long int\000"
 3137      206C6F6E 
 3137      6720696E 
 3137      7400
 3138              	.LASF1:
 3139 01bd 7369676E 		.ascii	"signed char\000"
 3139      65642063 
 3139      68617200 
 3140              	.LASF94:
 3141 01c9 63665F6F 		.ascii	"cf_off_stklimit\000"
 3141      66665F73 
 3141      746B6C69 
 3141      6D697400 
 3142              	.LASF184:
 3143 01d9 5350495F 		.ascii	"SPI_STOP\000"
 3143      53544F50 
 3143      00
 3144              	.LASF96:
 3145 01e2 63665F6F 		.ascii	"cf_off_flags\000"
 3145      66665F66 
 3145      6C616773 
 3145      00
 3146              	.LASF169:
 3147 01ef 53445F53 		.ascii	"SD_STOP\000"
 3147      544F5000 
 3148              	.LASF67:
 3149 01f7 6D5F7175 		.ascii	"m_queue\000"
 3149      65756500 
 3150              	.LASF156:
 3151 01ff 61646472 		.ascii	"addr\000"
 3151      00
 3152              	.LASF17:
 3153 0204 74736C69 		.ascii	"tslices_t\000"
 3153      6365735F 
 3153      7400
 3154              	.LASF142:
 3155 020e 4932435F 		.ascii	"I2C_UNINIT\000"
 3155      554E494E 
 3155      495400
 3156              	.LASF164:
 3157 0219 69326361 		.ascii	"i2caddr_t\000"
 3157      6464725F 
 3157      7400
 3158              	.LASF150:
 3159 0223 73746174 		.ascii	"state\000"
 3159      6500
 3160              	.LASF5:
 3161 0229 6C6F6E67 		.ascii	"long int\000"
 3161      20696E74 
 3161      00
 3162              	.LASF15:
ARM GAS  /tmp/ccesbR0I.s 			page 58


 3163 0232 74737461 		.ascii	"tstate_t\000"
 3163      74655F74 
 3163      00
 3164              	.LASF155:
 3165 023b 74687265 		.ascii	"thread\000"
 3165      616400
 3166              	.LASF122:
 3167 0242 64617461 		.ascii	"dataDelay\000"
 3167      44656C61 
 3167      7900
 3168              	.LASF162:
 3169 024c 72786964 		.ascii	"rxidx\000"
 3169      7800
 3170              	.LASF105:
 3171 0252 715F6275 		.ascii	"q_buffer\000"
 3171      66666572 
 3171      00
 3172              	.LASF9:
 3173 025b 75696E74 		.ascii	"uint16_t\000"
 3173      31365F74 
 3173      00
 3174              	.LASF202:
 3175 0264 53504930 		.ascii	"SPI0\000"
 3175      00
 3176              	.LASF100:
 3177 0269 63686465 		.ascii	"chdebug_t\000"
 3177      6275675F 
 3177      7400
 3178              	.LASF145:
 3179 0273 4932435F 		.ascii	"I2C_ACTIVE_TX\000"
 3179      41435449 
 3179      56455F54 
 3179      5800
 3180              	.LASF199:
 3181 0281 636C6F63 		.ascii	"clock_phase\000"
 3181      6B5F7068 
 3181      61736500 
 3182              	.LASF28:
 3183 028d 705F6E65 		.ascii	"p_newer\000"
 3183      77657200 
 3184              	.LASF114:
 3185 0295 5F69646C 		.ascii	"_idle_thread_wa\000"
 3185      655F7468 
 3185      72656164 
 3185      5F776100 
 3186              	.LASF192:
 3187 02a5 656E645F 		.ascii	"end_cb\000"
 3187      636200
 3188              	.LASF190:
 3189 02ac 7478636E 		.ascii	"txcnt\000"
 3189      7400
 3190              	.LASF196:
 3191 02b2 63686970 		.ascii	"chip_select_polarity0\000"
 3191      5F73656C 
 3191      6563745F 
 3191      706F6C61 
 3191      72697479 
ARM GAS  /tmp/ccesbR0I.s 			page 59


 3192              	.LASF197:
 3193 02c8 63686970 		.ascii	"chip_select_polarity1\000"
 3193      5F73656C 
 3193      6563745F 
 3193      706F6C61 
 3193      72697479 
 3194              	.LASF116:
 3195 02de 636F6E74 		.ascii	"control\000"
 3195      726F6C00 
 3196              	.LASF60:
 3197 02e6 725F6E65 		.ascii	"r_newer\000"
 3197      77657200 
 3198              	.LASF45:
 3199 02ee 72656761 		.ascii	"regarm_t\000"
 3199      726D5F74 
 3199      00
 3200              	.LASF51:
 3201 02f7 76745F70 		.ascii	"vt_prev\000"
 3201      72657600 
 3202              	.LASF119:
 3203 02ff 736C6176 		.ascii	"slaveAddress\000"
 3203      65416464 
 3203      72657373 
 3203      00
 3204              	.LASF3:
 3205 030c 73697A65 		.ascii	"size_t\000"
 3205      5F7400
 3206              	.LASF191:
 3207 0313 73706963 		.ascii	"spicallback_t\000"
 3207      616C6C62 
 3207      61636B5F 
 3207      7400
 3208              	.LASF167:
 3209 0321 49324330 		.ascii	"I2C0\000"
 3209      00
 3210              	.LASF75:
 3211 0326 4576656E 		.ascii	"EventSource\000"
 3211      74536F75 
 3211      72636500 
 3212              	.LASF0:
 3213 0332 756E7369 		.ascii	"unsigned int\000"
 3213      676E6564 
 3213      20696E74 
 3213      00
 3214              	.LASF50:
 3215 033f 76745F6E 		.ascii	"vt_next\000"
 3215      65787400 
 3216              	.LASF157:
 3217 0347 74786275 		.ascii	"txbuf\000"
 3217      6600
 3218              	.LASF176:
 3219 034d 53657269 		.ascii	"SerialDriverVMT\000"
 3219      616C4472 
 3219      69766572 
 3219      564D5400 
 3220              	.LASF152:
 3221 035d 6572726F 		.ascii	"errors\000"
ARM GAS  /tmp/ccesbR0I.s 			page 60


 3221      727300
 3222              	.LASF174:
 3223 0364 69717565 		.ascii	"iqueue\000"
 3223      756500
 3224              	.LASF12:
 3225 036b 6C6F6E67 		.ascii	"long unsigned int\000"
 3225      20756E73 
 3225      69676E65 
 3225      6420696E 
 3225      7400
 3226              	.LASF101:
 3227 037d 63685F64 		.ascii	"ch_debug\000"
 3227      65627567 
 3227      00
 3228              	.LASF180:
 3229 0386 67657474 		.ascii	"gett\000"
 3229      00
 3230              	.LASF82:
 3231 038b 63685F69 		.ascii	"ch_identifier\000"
 3231      64656E74 
 3231      69666965 
 3231      7200
 3232              	.LASF125:
 3233 0399 54696D65 		.ascii	"TimeMeasurement\000"
 3233      4D656173 
 3233      7572656D 
 3233      656E7400 
 3234              	.LASF195:
 3235 03a9 63686970 		.ascii	"chip_select_polarity\000"
 3235      5F73656C 
 3235      6563745F 
 3235      706F6C61 
 3235      72697479 
 3236              	.LASF173:
 3237 03be 6576656E 		.ascii	"event\000"
 3237      7400
 3238              	.LASF47:
 3239 03c4 636F6E74 		.ascii	"context\000"
 3239      65787400 
 3240              	.LASF10:
 3241 03cc 73686F72 		.ascii	"short unsigned int\000"
 3241      7420756E 
 3241      7369676E 
 3241      65642069 
 3241      6E7400
 3242              	.LASF137:
 3243 03df 6770696F 		.ascii	"gpio_port_t\000"
 3243      5F706F72 
 3243      745F7400 
 3244              	.LASF133:
 3245 03eb 6770636C 		.ascii	"gpclr\000"
 3245      7200
 3246              	.LASF19:
 3247 03f1 6D73675F 		.ascii	"msg_t\000"
 3247      7400
 3248              	.LASF128:
 3249 03f7 6C617374 		.ascii	"last\000"
ARM GAS  /tmp/ccesbR0I.s 			page 61


 3249      00
 3250              	.LASF71:
 3251 03fc 656C5F6E 		.ascii	"el_next\000"
 3251      65787400 
 3252              	.LASF181:
 3253 0404 77726974 		.ascii	"writet\000"
 3253      657400
 3254              	.LASF14:
 3255 040b 746D6F64 		.ascii	"tmode_t\000"
 3255      655F7400 
 3256              	.LASF207:
 3257 0413 746D4F62 		.ascii	"tmObjectInit\000"
 3257      6A656374 
 3257      496E6974 
 3257      00
 3258              	.LASF43:
 3259 0420 54687265 		.ascii	"ThreadsList\000"
 3259      6164734C 
 3259      69737400 
 3260              	.LASF20:
 3261 042c 6576656E 		.ascii	"eventmask_t\000"
 3261      746D6173 
 3261      6B5F7400 
 3262              	.LASF112:
 3263 0438 496E7075 		.ascii	"InputQueue\000"
 3263      74517565 
 3263      756500
 3264              	.LASF66:
 3265 0443 4D757465 		.ascii	"Mutex\000"
 3265      7800
 3266              	.LASF102:
 3267 0449 47656E65 		.ascii	"GenericQueue\000"
 3267      72696351 
 3267      75657565 
 3267      00
 3268              	.LASF44:
 3269 0456 73746B61 		.ascii	"stkalign_t\000"
 3269      6C69676E 
 3269      5F7400
 3270              	.LASF83:
 3271 0461 63685F7A 		.ascii	"ch_zero\000"
 3271      65726F00 
 3272              	.LASF97:
 3273 0469 63665F6F 		.ascii	"cf_off_refs\000"
 3273      66665F72 
 3273      65667300 
 3274              	.LASF134:
 3275 0475 67706C65 		.ascii	"gplev\000"
 3275      7600
 3276              	.LASF179:
 3277 047b 70757474 		.ascii	"putt\000"
 3277      00
 3278              	.LASF52:
 3279 0480 76745F74 		.ascii	"vt_time\000"
 3279      696D6500 
 3280              	.LASF143:
 3281 0488 4932435F 		.ascii	"I2C_STOP\000"
ARM GAS  /tmp/ccesbR0I.s 			page 62


 3281      53544F50 
 3281      00
 3282              	.LASF121:
 3283 0491 636C6F63 		.ascii	"clockDivider\000"
 3283      6B446976 
 3283      69646572 
 3283      00
 3284              	.LASF203:
 3285 049e 6D656173 		.ascii	"measurement_offset\000"
 3285      7572656D 
 3285      656E745F 
 3285      6F666673 
 3285      657400
 3286              	.LASF104:
 3287 04b1 715F636F 		.ascii	"q_counter\000"
 3287      756E7465 
 3287      7200
 3288              	.LASF53:
 3289 04bb 76745F66 		.ascii	"vt_func\000"
 3289      756E6300 
 3290              	.LASF87:
 3291 04c3 63685F74 		.ascii	"ch_timesize\000"
 3291      696D6573 
 3291      697A6500 
 3292              	.LASF165:
 3293 04cf 69635F73 		.ascii	"ic_speed\000"
 3293      70656564 
 3293      00
 3294              	.LASF93:
 3295 04d8 63665F6F 		.ascii	"cf_off_name\000"
 3295      66665F6E 
 3295      616D6500 
 3296              	.LASF29:
 3297 04e4 705F6F6C 		.ascii	"p_older\000"
 3297      64657200 
 3298              	.LASF161:
 3299 04ec 72786279 		.ascii	"rxbytes\000"
 3299      74657300 
 3300              	.LASF107:
 3301 04f4 715F7772 		.ascii	"q_wrptr\000"
 3301      70747200 
 3302              	.LASF59:
 3303 04fc 725F6374 		.ascii	"r_ctx\000"
 3303      7800
 3304              	.LASF42:
 3305 0502 54687265 		.ascii	"ThreadsQueue\000"
 3305      61647351 
 3305      75657565 
 3305      00
 3306              	.LASF84:
 3307 050f 63685F73 		.ascii	"ch_size\000"
 3307      697A6500 
 3308              	.LASF139:
 3309 0517 494F504F 		.ascii	"IOPORT0\000"
 3309      52543000 
 3310              	.LASF129:
 3311 051f 776F7273 		.ascii	"worst\000"
ARM GAS  /tmp/ccesbR0I.s 			page 63


 3311      7400
 3312              	.LASF62:
 3313 0525 725F6375 		.ascii	"r_current\000"
 3313      7272656E 
 3313      7400
 3314              	.LASF61:
 3315 052f 725F6F6C 		.ascii	"r_older\000"
 3315      64657200 
 3316              	.LASF73:
 3317 0537 656C5F6D 		.ascii	"el_mask\000"
 3317      61736B00 
 3318              	.LASF175:
 3319 053f 6F717565 		.ascii	"oqueue\000"
 3319      756500
 3320              	.LASF132:
 3321 0546 67707365 		.ascii	"gpset\000"
 3321      7400
 3322              	.LASF135:
 3323 054c 67707075 		.ascii	"gppudclk\000"
 3323      64636C6B 
 3323      00
 3324              	.LASF193:
 3325 0555 6C6F7373 		.ascii	"lossiEnabled\000"
 3325      69456E61 
 3325      626C6564 
 3325      00
 3326              	.LASF194:
 3327 0562 63686970 		.ascii	"chip_select\000"
 3327      5F73656C 
 3327      65637400 
 3328              	.LASF16:
 3329 056e 74726566 		.ascii	"trefs_t\000"
 3329      735F7400 
 3330              	.LASF148:
 3331 0576 69326373 		.ascii	"i2cstate_t\000"
 3331      74617465 
 3331      5F7400
 3332              	.LASF86:
 3333 0581 63685F70 		.ascii	"ch_ptrsize\000"
 3333      74727369 
 3333      7A6500
 3334              	.LASF111:
 3335 058c 716E6F74 		.ascii	"qnotify_t\000"
 3335      6966795F 
 3335      7400
 3336              	.LASF25:
 3337 0596 705F7072 		.ascii	"p_prev\000"
 3337      657600
 3338              	.LASF18:
 3339 059d 74707269 		.ascii	"tprio_t\000"
 3339      6F5F7400 
 3340              	.LASF108:
 3341 05a5 715F7264 		.ascii	"q_rdptr\000"
 3341      70747200 
 3342              	.LASF163:
 3343 05ad 69326366 		.ascii	"i2cflags_t\000"
 3343      6C616773 
ARM GAS  /tmp/ccesbR0I.s 			page 64


 3343      5F7400
 3344              	.LASF154:
 3345 05b8 6D757465 		.ascii	"mutex\000"
 3345      7800
 3346              	.LASF4:
 3347 05be 696E7433 		.ascii	"int32_t\000"
 3347      325F7400 
 3348              	.LASF8:
 3349 05c6 756E7369 		.ascii	"unsigned char\000"
 3349      676E6564 
 3349      20636861 
 3349      7200
 3350              	.LASF72:
 3351 05d4 656C5F6C 		.ascii	"el_listener\000"
 3351      69737465 
 3351      6E657200 
 3352              	.LASF74:
 3353 05e0 656C5F66 		.ascii	"el_flags\000"
 3353      6C616773 
 3353      00
 3354              	.LASF40:
 3355 05e9 705F6D74 		.ascii	"p_mtxlist\000"
 3355      786C6973 
 3355      7400
 3356              	.LASF2:
 3357 05f3 73686F72 		.ascii	"short int\000"
 3357      7420696E 
 3357      7400
 3358              	.LASF31:
 3359 05fd 705F7374 		.ascii	"p_state\000"
 3359      61746500 
 3360              	.LASF34:
 3361 0605 705F7072 		.ascii	"p_preempt\000"
 3361      65656D70 
 3361      7400
 3362              	.LASF99:
 3363 060f 63665F6F 		.ascii	"cf_off_time\000"
 3363      66665F74 
 3363      696D6500 
 3364              	.LASF58:
 3365 061b 725F7072 		.ascii	"r_prio\000"
 3365      696F00
 3366              	.LASF136:
 3367 0622 70696E5F 		.ascii	"pin_base\000"
 3367      62617365 
 3367      00
 3368              	.LASF80:
 3369 062b 65776D61 		.ascii	"ewmask\000"
 3369      736B00
 3370              	.LASF24:
 3371 0632 705F6E65 		.ascii	"p_next\000"
 3371      787400
 3372              	.LASF140:
 3373 0639 494F504F 		.ascii	"IOPORT1\000"
 3373      52543100 
 3374              	.LASF98:
 3375 0641 63665F6F 		.ascii	"cf_off_preempt\000"
ARM GAS  /tmp/ccesbR0I.s 			page 65


 3375      66665F70 
 3375      7265656D 
 3375      707400
 3376              	.LASF32:
 3377 0650 705F666C 		.ascii	"p_flags\000"
 3377      61677300 
 3378              	.LASF205:
 3379 0658 2E2E2F6F 		.ascii	"../os/hal/src/tm.c\000"
 3379      732F6861 
 3379      6C2F7372 
 3379      632F746D 
 3379      2E6300
 3380              	.LASF23:
 3381 066b 54687265 		.ascii	"Thread\000"
 3381      616400
 3382              	.LASF200:
 3383 0672 636C6F63 		.ascii	"clock_divider\000"
 3383      6B5F6469 
 3383      76696465 
 3383      7200
 3384              	.LASF91:
 3385 0680 63665F6F 		.ascii	"cf_off_newer\000"
 3385      66665F6E 
 3385      65776572 
 3385      00
 3386              	.LASF147:
 3387 068d 4932435F 		.ascii	"I2C_LOCKED\000"
 3387      4C4F434B 
 3387      454400
 3388              	.LASF39:
 3389 0698 705F6570 		.ascii	"p_epending\000"
 3389      656E6469 
 3389      6E6700
 3390              	.LASF168:
 3391 06a3 53445F55 		.ascii	"SD_UNINIT\000"
 3391      4E494E49 
 3391      5400
 3392              	.LASF11:
 3393 06ad 75696E74 		.ascii	"uint32_t\000"
 3393      33325F74 
 3393      00
 3394              	.LASF89:
 3395 06b6 63665F6F 		.ascii	"cf_off_prio\000"
 3395      66665F70 
 3395      72696F00 
 3396              	.LASF57:
 3397 06c2 725F7175 		.ascii	"r_queue\000"
 3397      65756500 
 3398              	.LASF49:
 3399 06ca 56697274 		.ascii	"VirtualTimer\000"
 3399      75616C54 
 3399      696D6572 
 3399      00
 3400              	.LASF206:
 3401 06d7 2F686F6D 		.ascii	"/home/taskman/arduino/embedded-wind-turbine/Data_Co"
 3401      652F7461 
 3401      736B6D61 
ARM GAS  /tmp/ccesbR0I.s 			page 66


 3401      6E2F6172 
 3401      6475696E 
 3402 070a 6C6C6563 		.ascii	"llector/raspberry/compiler/ChibiOS-RPi/led\000"
 3402      746F722F 
 3402      72617370 
 3402      62657272 
 3402      792F636F 
 3403              	.LASF146:
 3404 0735 4932435F 		.ascii	"I2C_ACTIVE_RX\000"
 3404      41435449 
 3404      56455F52 
 3404      5800
 3405              	.LASF178:
 3406 0743 72656164 		.ascii	"read\000"
 3406      00
 3407              	.LASF81:
 3408 0748 63686172 		.ascii	"char\000"
 3408      00
 3409              	.LASF187:
 3410 074d 5350495F 		.ascii	"SPI_COMPLETE\000"
 3410      434F4D50 
 3410      4C455445 
 3410      00
 3411              	.LASF151:
 3412 075a 636F6E66 		.ascii	"config\000"
 3412      696700
 3413              	.LASF209:
 3414 0761 746D5F73 		.ascii	"tm_stop\000"
 3414      746F7000 
 3415              	.LASF130:
 3416 0769 62657374 		.ascii	"best\000"
 3416      00
 3417              	.LASF188:
 3418 076e 73706973 		.ascii	"spistate_t\000"
 3418      74617465 
 3418      5F7400
 3419              	.LASF69:
 3420 0779 6D5F6E65 		.ascii	"m_next\000"
 3420      787400
 3421              	.LASF22:
 3422 0780 73797374 		.ascii	"systime_t\000"
 3422      696D655F 
 3422      7400
 3423              	.LASF41:
 3424 078a 705F7265 		.ascii	"p_realprio\000"
 3424      616C7072 
 3424      696F00
 3425              	.LASF48:
 3426 0795 76746675 		.ascii	"vtfunc_t\000"
 3426      6E635F74 
 3426      00
 3427              	.LASF144:
 3428 079e 4932435F 		.ascii	"I2C_READY\000"
 3428      52454144 
 3428      5900
 3429              	.LASF149:
 3430 07a8 49324344 		.ascii	"I2CDriver\000"
ARM GAS  /tmp/ccesbR0I.s 			page 67


 3430      72697665 
 3430      7200
 3431              	.LASF35:
 3432 07b2 705F7469 		.ascii	"p_time\000"
 3432      6D6500
 3433              	.LASF198:
 3434 07b9 636C6F63 		.ascii	"clock_polarity\000"
 3434      6B5F706F 
 3434      6C617269 
 3434      747900
 3435              	.LASF46:
 3436 07c8 696E7463 		.ascii	"intctx\000"
 3436      747800
 3437              	.LASF37:
 3438 07cf 705F6D73 		.ascii	"p_msgqueue\000"
 3438      67717565 
 3438      756500
 3439              	.LASF170:
 3440 07da 53445F52 		.ascii	"SD_READY\000"
 3440      45414459 
 3440      00
 3441              	.LASF185:
 3442 07e3 5350495F 		.ascii	"SPI_READY\000"
 3442      52454144 
 3442      5900
 3443              	.LASF183:
 3444 07ed 5350495F 		.ascii	"SPI_UNINIT\000"
 3444      554E494E 
 3444      495400
 3445              	.LASF54:
 3446 07f8 76745F70 		.ascii	"vt_par\000"
 3446      617200
 3447              	.LASF21:
 3448 07ff 666C6167 		.ascii	"flagsmask_t\000"
 3448      736D6173 
 3448      6B5F7400 
 3449              	.LASF166:
 3450 080b 49324343 		.ascii	"I2CConfig\000"
 3450      6F6E6669 
 3450      6700
 3451              	.LASF171:
 3452 0815 73647374 		.ascii	"sdstate_t\000"
 3452      6174655F 
 3452      7400
 3453              	.LASF159:
 3454 081f 74786964 		.ascii	"txidx\000"
 3454      7800
 3455              	.LASF90:
 3456 0825 63665F6F 		.ascii	"cf_off_ctx\000"
 3456      66665F63 
 3456      747800
 3457              	.LASF33:
 3458 0830 705F7265 		.ascii	"p_refs\000"
 3458      667300
 3459              	.LASF117:
 3460 0837 73746174 		.ascii	"status\000"
 3460      757300
ARM GAS  /tmp/ccesbR0I.s 			page 68


 3461              	.LASF63:
 3462 083e 52656164 		.ascii	"ReadyList\000"
 3462      794C6973 
 3462      7400
 3463              	.LASF109:
 3464 0848 715F6E6F 		.ascii	"q_notify\000"
 3464      74696679 
 3464      00
 3465              	.LASF65:
 3466 0851 726C6973 		.ascii	"rlist\000"
 3466      7400
 3467              	.LASF7:
 3468 0857 75696E74 		.ascii	"uint8_t\000"
 3468      385F7400 
 3469              	.LASF182:
 3470 085f 72656164 		.ascii	"readt\000"
 3470      7400
 3471              	.LASF131:
 3472 0865 6C617463 		.ascii	"latch\000"
 3472      6800
 3473              	.LASF70:
 3474 086b 4576656E 		.ascii	"EventListener\000"
 3474      744C6973 
 3474      74656E65 
 3474      7200
 3475              	.LASF79:
 3476 0879 77746F62 		.ascii	"wtobjp\000"
 3476      6A7000
 3477              	.LASF30:
 3478 0880 705F6E61 		.ascii	"p_name\000"
 3478      6D6500
 3479              	.LASF55:
 3480 0887 76745F73 		.ascii	"vt_systime\000"
 3480      79737469 
 3480      6D6500
 3481              	.LASF76:
 3482 0892 65735F6E 		.ascii	"es_next\000"
 3482      65787400 
 3483              	.LASF201:
 3484 089a 53504943 		.ascii	"SPIConfig\000"
 3484      6F6E6669 
 3484      6700
 3485              	.LASF85:
 3486 08a4 63685F76 		.ascii	"ch_version\000"
 3486      65727369 
 3486      6F6E00
 3487              	.LASF126:
 3488 08af 73746172 		.ascii	"start\000"
 3488      7400
 3489              	.LASF118:
 3490 08b5 64617461 		.ascii	"dataLength\000"
 3490      4C656E67 
 3490      746800
 3491              	.LASF56:
 3492 08c0 56544C69 		.ascii	"VTList\000"
 3492      737400
 3493              	.LASF110:
ARM GAS  /tmp/ccesbR0I.s 			page 69


 3494 08c7 715F6C69 		.ascii	"q_link\000"
 3494      6E6B00
 3495              	.LASF127:
 3496 08ce 73746F70 		.ascii	"stop\000"
 3496      00
 3497              	.LASF138:
 3498 08d3 50414C43 		.ascii	"PALConfig\000"
 3498      6F6E6669 
 3498      6700
 3499              	.LASF68:
 3500 08dd 6D5F6F77 		.ascii	"m_owner\000"
 3500      6E657200 
 3501              	.LASF210:
 3502 08e5 746D5F73 		.ascii	"tm_start\000"
 3502      74617274 
 3502      00
 3503              	.LASF141:
 3504 08ee 70616C5F 		.ascii	"pal_default_config\000"
 3504      64656661 
 3504      756C745F 
 3504      636F6E66 
 3504      696700
 3505              	.LASF27:
 3506 0901 705F6374 		.ascii	"p_ctx\000"
 3506      7800
 3507              	.LASF36:
 3508 0907 705F7761 		.ascii	"p_waiting\000"
 3508      6974696E 
 3508      6700
 3509              	.LASF158:
 3510 0911 74786279 		.ascii	"txbytes\000"
 3510      74657300 
 3511              	.LASF123:
 3512 0919 636C6F63 		.ascii	"clockStretchTimeout\000"
 3512      6B537472 
 3512      65746368 
 3512      54696D65 
 3512      6F757400 
 3513              		.ident	"GCC: (15:9-2019-q4-0ubuntu1) 9.2.1 20191025 (release) [ARM/arm-9-branch revision 277599]"
ARM GAS  /tmp/ccesbR0I.s 			page 70


DEFINED SYMBOLS
                            *ABS*:0000000000000000 tm.c
     /tmp/ccesbR0I.s:16     .text.tm_start:0000000000000000 $a
     /tmp/ccesbR0I.s:22     .text.tm_start:0000000000000000 tm_start
     /tmp/ccesbR0I.s:42     .text.tm_start:0000000000000010 $d
     /tmp/ccesbR0I.s:47     .text.tm_stop:0000000000000000 $a
     /tmp/ccesbR0I.s:52     .text.tm_stop:0000000000000000 tm_stop
     /tmp/ccesbR0I.s:102    .text.tm_stop:0000000000000044 $d
     /tmp/ccesbR0I.s:108    .text.tmInit:0000000000000000 $a
     /tmp/ccesbR0I.s:114    .text.tmInit:0000000000000000 tmInit
     /tmp/ccesbR0I.s:226    .text.tmInit:0000000000000054 $d
     /tmp/ccesbR0I.s:234    .text.tmObjectInit:0000000000000000 $a
     /tmp/ccesbR0I.s:240    .text.tmObjectInit:0000000000000000 tmObjectInit
     /tmp/ccesbR0I.s:276    .text.tmObjectInit:0000000000000028 $d
     /tmp/ccesbR0I.s:282    .bss.measurement_offset:0000000000000000 $d
     /tmp/ccesbR0I.s:286    .bss.measurement_offset:0000000000000000 measurement_offset

NO UNDEFINED SYMBOLS
