
build/ch.elf:     file format elf32-littlearm
build/ch.elf
architecture: armv6kz, flags 0x00000112:
EXEC_P, HAS_SYMS, D_PAGED
start address 0x00008000

Program Header:
    LOAD off    0x00000000 vaddr 0x00000000 paddr 0x00000000 align 2**16
         filesz 0x0000b156 memsz 0x0000b4f0 flags rwx
private flags = 5000200: [Version5 EABI] [soft-float ABI]

Sections:
Idx Name          Size      VMA       LMA       File off  Algn
  0 .text         00003156  00008000  00008000  00008000  2**4
                  CONTENTS, ALLOC, LOAD, READONLY, CODE
  1 .data         00000002  0000b156  0000b156  0000b156  2**0
                  ALLOC
  2 .bss          00000398  0000b158  0000b158  0000b156  2**2
                  ALLOC
  3 .ARM.attributes 0000002b  00000000  00000000  0000b156  2**0
                  CONTENTS, READONLY
  4 .comment      00000059  00000000  00000000  0000b181  2**0
                  CONTENTS, READONLY
  5 .debug_info   00014ffb  00000000  00000000  0000b1da  2**0
                  CONTENTS, READONLY, DEBUGGING, OCTETS
  6 .debug_abbrev 00003d43  00000000  00000000  000201d5  2**0
                  CONTENTS, READONLY, DEBUGGING, OCTETS
  7 .debug_loc    00005029  00000000  00000000  00023f18  2**0
                  CONTENTS, READONLY, DEBUGGING, OCTETS
  8 .debug_aranges 000008a8  00000000  00000000  00028f48  2**3
                  CONTENTS, READONLY, DEBUGGING, OCTETS
  9 .debug_ranges 00000ce8  00000000  00000000  000297f0  2**0
                  CONTENTS, READONLY, DEBUGGING, OCTETS
 10 .debug_line   00007040  00000000  00000000  0002a4d8  2**0
                  CONTENTS, READONLY, DEBUGGING, OCTETS
 11 .debug_str    00001882  00000000  00000000  00031518  2**0
                  CONTENTS, READONLY, DEBUGGING, OCTETS
 12 .debug_frame  0000135c  00000000  00000000  00032d9c  2**2
                  CONTENTS, READONLY, DEBUGGING, OCTETS
SYMBOL TABLE:
00008000 l    d  .text	00000000 .text
0000b156 l    d  .data	00000000 .data
0000b158 l    d  .bss	00000000 .bss
00000000 l    d  .ARM.attributes	00000000 .ARM.attributes
00000000 l    d  .comment	00000000 .comment
00000000 l    d  .debug_info	00000000 .debug_info
00000000 l    d  .debug_abbrev	00000000 .debug_abbrev
00000000 l    d  .debug_loc	00000000 .debug_loc
00000000 l    d  .debug_aranges	00000000 .debug_aranges
00000000 l    d  .debug_ranges	00000000 .debug_ranges
00000000 l    d  .debug_line	00000000 .debug_line
00000000 l    d  .debug_str	00000000 .debug_str
00000000 l    d  .debug_frame	00000000 .debug_frame
00000000 l    df *ABS*	00000000 build/obj/vectors.o
00008000 l       .text	00000000 _start
00008020 l       .text	00000000 _reset
00008024 l       .text	00000000 _undefined
00008028 l       .text	00000000 _swi
0000802c l       .text	00000000 _prefetch
00008030 l       .text	00000000 _abort
00008038 l       .text	00000000 _irq
0000803c l       .text	00000000 _fiq
00000000 l    df *ABS*	00000000 build/obj/crt0.o
00000010 l       *ABS*	00000000 MODE_USR
00000011 l       *ABS*	00000000 MODE_FIQ
00000012 l       *ABS*	00000000 MODE_IRQ
00000013 l       *ABS*	00000000 MODE_SVC
00000017 l       *ABS*	00000000 MODE_ABT
0000001b l       *ABS*	00000000 MODE_UND
0000001f l       *ABS*	00000000 MODE_SYS
00000080 l       *ABS*	00000000 I_BIT
00000040 l       *ABS*	00000000 F_BIT
000080ac l       .text	00000000 bssloop
000080c0 l       .text	00000000 .loop
000080c4 l       .text	00000000 hwinit0
00000000 l    df *ABS*	00000000 build/obj/chcoreasm.o
00000010 l       *ABS*	00000000 MODE_USR
00000011 l       *ABS*	00000000 MODE_FIQ
00000012 l       *ABS*	00000000 MODE_IRQ
00000013 l       *ABS*	00000000 MODE_SVC
00000017 l       *ABS*	00000000 MODE_ABT
0000001b l       *ABS*	00000000 MODE_UND
0000001f l       *ABS*	00000000 MODE_SYS
00000080 l       *ABS*	00000000 I_BIT
00000040 l       *ABS*	00000000 F_BIT
00000000 l    df *ABS*	00000000 _arm_muldf3.o
00000000 l    df *ABS*	00000000 _udivsi3.o
00008450 l       .text	00000000 .udivsi3_skip_div0_test
00000000 l    df *ABS*	00000000 _dvmd_tls.o
00000000 l    df *ABS*	00000000 _arm_addsubdf3.o
00000000 l    df *ABS*	00000000 _arm_fixdfsi.o
00000000 l    df *ABS*	00000000 _arm_truncdfsf2.o
00000000 l    df *ABS*	00000000 _arm_cmpsf2.o
00000000 l    df *ABS*	00000000 _arm_fixsfsi.o
00000000 l    df *ABS*	00000000 chsys.c
0000b158 l     O .bss	00000044 mainthread.4744
00000000 l    df *ABS*	00000000 chvt.c
00000000 l    df *ABS*	00000000 chschd.c
00008e30 l     F .text	000000b0 wakeup
00000000 l    df *ABS*	00000000 chthreads.c
00000000 l    df *ABS*	00000000 chdynamic.c
00000000 l    df *ABS*	00000000 chmtx.c
00000000 l    df *ABS*	00000000 chevents.c
00000000 l    df *ABS*	00000000 chqueues.c
00009770 l     F .text	0000003c qwait
00000000 l    df *ABS*	00000000 chmemcore.c
0000b19c l     O .bss	00000004 endmem
0000b1a0 l     O .bss	00000004 nextmem
00000000 l    df *ABS*	00000000 chheap.c
0000b1a4 l     O .bss	0000001c default_heap
00000000 l    df *ABS*	00000000 hal.c
00000000 l    df *ABS*	00000000 i2c.c
00000000 l    df *ABS*	00000000 serial.c
00009d90 l     F .text	00000008 readt
00009da0 l     F .text	0000000c read
00009db0 l     F .text	00000008 writet
00009dc0 l     F .text	0000000c write
00009dd0 l     F .text	00000008 gett
00009de0 l     F .text	0000000c get
00009df0 l     F .text	00000008 putt
00009e00 l     F .text	0000000c put
0000b0d0 l     O .text	00000020 vmt
00000000 l    df *ABS*	00000000 spi.c
00000000 l    df *ABS*	00000000 tm.c
00009f60 l     F .text	00000014 tm_start
00009f80 l     F .text	0000004c tm_stop
0000b1c0 l     O .bss	00000004 measurement_offset
00000000 l    df *ABS*	00000000 hal_lld.c
00000000 l    df *ABS*	00000000 pal_lld.c
0000a0d0 l     F .text	00000040 set_gpio_in.isra.0
00000000 l    df *ABS*	00000000 serial_lld.c
0000a1b0 l     F .text	00000018 output_notify
0000b0f0 l     O .text	00000004 default_config
00000000 l    df *ABS*	00000000 i2c_lld.c
00000000 l    df *ABS*	00000000 spi_lld.c
00000000 l    df *ABS*	00000000 bcm2835.c
00000000 l    df *ABS*	00000000 board.c
00000000 l    df *ABS*	00000000 chprintf.c
00000000 l    df *ABS*	00000000 main.c
0000aec0 l     F .text	000000c8 Thread_LCD
0000b1c4 l     O .bss	00000118 waThread_LCD
00000000 l    df *ABS*	00000000 chregistry.c
0000b100 g     O .text	00000000 pal_default_config
00008cd0 g     F .text	00000090 chSysTimerHandlerI
000093d0 g     F .text	00000008 chThdExit
00009730 g     F .text	00000040 chEvtBroadcastFlagsI
00008fa0 g     F .text	00000074 chSchGoSleepTimeoutS
00009d60 g     F .text	00000004 i2cInit
000094a0 g     F .text	0000017c chMtxLockS
00008944 g     F .text	00000060 .hidden __floatdidf
00009c70 g     F .text	000000b8 chHeapFree
0000a4d0 g     F .text	00000174 spi_lld_serve_interrupt
000081b0 g       .text	00000000 get_cpsr
0000b156 g       .text	00000000 __exidx_end
00008bd0 g     F .text	0000005c .hidden __fixsfsi
00008f50 g     F .text	00000044 chSchGoSleepS
00008180  w      .text	00000000 UndHandler
0000b4f0 g       *ABS*	00000000 __heap_base__
0000b448 g     O .bss	00000040 I2C1
0000b488 g     O .bss	00000040 I2C0
0000b158 g       .data	00000000 _etext
0000b3a4 g     O .bss	00000018 IOPORT1
0000049c g       *ABS*	00000000 __stacks_total_size__
00009020 g     F .text	000000a0 chSchWakeupS
00009ea0 g     F .text	0000004c sdIncomingDataI
00009a80 g     F .text	0000007c chOQGetI
00008ee0 g     F .text	00000024 _scheduler_init
00009290 g     F .text	000000a8 chThdCreateStatic
00008bac g     F .text	00000018 .hidden __aeabi_fcmpgt
000088c0 g     F .text	00000028 .hidden __floatsidf
00008f10 g     F .text	00000040 chSchReadyI
00008d60 g     F .text	00000024 _vt_init
00008450 g     F .text	000000f4 .hidden __udivsi3
00009c40 g     F .text	00000028 _heap_init
00009d30 g     F .text	0000002c halInit
00008ab8 g     F .text	0000006c .hidden __lesf2
0000b158 g       .bss	00000000 _bss_start
00009110 g     F .text	00000078 chSchDoRescheduleBehind
06007b44 g       *ABS*	00000000 __heap_end__
0000889c g     F .text	00000024 .hidden __aeabi_ui2d
0000b3bc g     O .bss	00000018 IOPORT0
00008580 g     F .text	00000000 .hidden __aeabi_drsub
00000004 g       *ABS*	00000000 __abt_stack_size__
00008040 g       .text	00000000 ResetHandler
00009900 g     F .text	000000a8 chIQReadTimeout
0000a080 g     F .text	00000050 hal_lld_init
000088e8 g     F .text	00000048 .hidden __extendsfdf2
0000858c g     F .text	00000310 .hidden __adddf3
00008ac0 g     F .text	00000064 .hidden __nesf2
0000a650 g     F .text	0000000c spi_lld_init
0000b156 g       .text	00000000 __exidx_start
000081c0  w    F .text	00000290 .hidden __aeabi_dmul
0000a660 g     F .text	0000004c bcm2835_gpio_fnsel
00009360 g     F .text	00000064 chThdExitS
0000889c g     F .text	00000024 .hidden __floatunsidf
0000b4c8 g     O .bss	00000028 SPI0
00008a10 g     F .text	000000a0 .hidden __aeabi_d2f
00008d90 g     F .text	00000060 chVTSetI
0000b4f0 g       .bss	00000000 _bss_end
00008b94 g     F .text	00000018 .hidden __aeabi_fcmpge
000089b0 g     F .text	0000005c .hidden __fixdfsi
0000a280 g     F .text	00000018 sd_lld_init
00008ab0 g     F .text	00000074 .hidden __gtsf2
0000858c g     F .text	00000310 .hidden __aeabi_dadd
00009620 g     F .text	00000014 chMtxLock
00008b7c g     F .text	00000018 .hidden __aeabi_fcmple
00008930 g     F .text	00000074 .hidden __aeabi_ul2d
00009200 g     F .text	00000020 chSchDoReschedule
00008c50 g     F .text	00000078 chSysInit
00009340 g     F .text	0000001c chThdSleep
000097b0 g     F .text	00000038 chIQInit
00009ef0 g     F .text	00000034 sdRequestDataI
00009f40 g     F .text	0000001c spiObjectInit
0000a110 g     F .text	00000098 _pal_lld_init
00009e10 g     F .text	00000004 sdInit
00008588 g     F .text	00000314 .hidden __aeabi_dsub
00009bb0 g     F .text	00000034 _core_init
00008930 g     F .text	00000074 .hidden __floatundidf
00009e80 g     F .text	00000020 sdStart
00000080 g       *ABS*	00000000 __irq_stack_size__
000080f0 g       .text	00000000 _port_switch_arm
00000400 g       *ABS*	00000000 __sys_stack_size__
05ffffe0 g       *ABS*	00000000 __ram_size__
00008bd0 g     F .text	0000005c .hidden __aeabi_f2iz
00008ac0 g     F .text	00000064 .hidden __eqsf2
000081a0 g       .text	00000000 arm_enable_irq
0000b378 g     O .bss	00000010 vtlist
00009bf0 g     F .text	00000044 chCoreAlloc
000088c0 g     F .text	00000028 .hidden __aeabi_i2d
0000a370 g     F .text	00000140 i2c_lld_serve_interrupt
00008570  w    F .text	00000004 .hidden __aeabi_ldiv0
000081c0  w    F .text	00000290 .hidden __muldf3
0000b158 g       *ABS*	00000000 _textdata
00008000 g       .text	00000000 _text
00008180  w      .text	00000000 PrefetchHandler
00008ac0 g     F .text	00000064 .hidden __cmpsf2
0000af90 g     F .text	00000110 main
0000b388 g     O .bss	0000001c rlist
00008ab8 g     F .text	0000006c .hidden __ltsf2
00009f30 g     F .text	00000004 spiInit
00008450 g     F .text	00000000 .hidden __aeabi_uidiv
00008a10 g     F .text	000000a0 .hidden __truncdfsf2
00008944 g     F .text	00000060 .hidden __aeabi_l2d
00009480 g     F .text	00000014 chMtxInit
00008c30 g     F .text	00000020 _idle_thread
00009b00 g     F .text	000000b0 chOQWriteTimeout
00008b34 g     F .text	00000018 .hidden __aeabi_cfcmple
0000b0b0 g     O .text	00000016 ch_debug
0000a700 g     F .text	000007c0 chprintf
000096e0 g     F .text	00000050 chEvtSignalI
00008000 g       .text	00000000 __ram_start__
00008160 g       .text	00000000 _port_thread_start
0000a6b0 g     F .text	0000003c bcm2835_delay
00009190 g     F .text	00000070 chSchDoRescheduleAhead
0000a4b0 g     F .text	00000018 i2c_lld_init
00008ab0 g     F .text	00000074 .hidden __gesf2
00008b4c g     F .text	00000018 .hidden __aeabi_fcmpeq
00009d70 g     F .text	00000018 i2cObjectInit
00009430 g     F .text	00000050 chThdRelease
00008b24 g     F .text	00000028 .hidden __aeabi_cfrcmple
0000b2dc g     O .bss	0000009c _idle_thread_wa
000099b0 g     F .text	00000034 chOQInit
00009880 g     F .text	00000074 chIQGetTimeout
0000b156 g       .data	00000000 _data
00008100 g       .text	00000000 _port_irq_common
00008180  w      .text	00000000 AbortHandler
000097f0 g     F .text	0000008c chIQPutI
00009fd0 g     F .text	00000064 tmInit
00008b64 g     F .text	00000018 .hidden __aeabi_fcmplt
00009640 g     F .text	0000009c chMtxUnlock
00008544 g     F .text	00000020 .hidden __aeabi_uidivmod
0000b158 g       .data	00000000 _edata
06007fe0 g       *ABS*	00000000 __ram_end__
0000b4f0 g       .bss	00000000 _end
00008df0 g     F .text	0000003c chVTResetI
00008180 g       .text	00000000 _unhandled_exception
00009e20 g     F .text	00000060 sdObjectInit
06007b44 g       *ABS*	00000000 __main_thread_stack_base__
0000a1d0 g     F .text	000000a8 sd_lld_serve_interrupt
0000a040 g     F .text	00000040 IrqHandler
000089b0 g     F .text	0000005c .hidden __aeabi_d2iz
00008b34 g     F .text	00000018 .hidden __aeabi_cfcmpeq
00008180  w      .text	00000000 SwiHandler
00008570  w    F .text	00000004 .hidden __aeabi_idiv0
000093e0 g     F .text	00000050 chThdWait
000090c0 g     F .text	00000044 chSchIsPreemptionRequired
0000b3d4 g     O .bss	00000074 SD1
00000010 g       *ABS*	00000000 __fiq_stack_size__
00009220 g     F .text	0000006c _thread_init
00000004 g       *ABS*	00000000 __svc_stack_size__
00000004 g       *ABS*	00000000 __und_stack_size__
000099f0 g     F .text	0000008c chOQPutTimeout
000088e8 g     F .text	00000048 .hidden __aeabi_f2d
0000a6f0 g     F .text	00000004 boardInit
0000a2a0 g     F .text	000000c4 sd_lld_start
000080c0  w      .text	00000000 _main_exit_handler
00008588 g     F .text	00000314 .hidden __subdf3
00008184 g       .text	00000000 __early_init
00008180  w      .text	00000000 FiqHandler



Disassembly of section .text:

00008000 <__ram_start__>:
    8000:	e59ff018 	ldr	pc, [pc, #24]	; 8020 <_reset>
    8004:	e59ff018 	ldr	pc, [pc, #24]	; 8024 <_undefined>
    8008:	e59ff018 	ldr	pc, [pc, #24]	; 8028 <_swi>
    800c:	e59ff018 	ldr	pc, [pc, #24]	; 802c <_prefetch>
    8010:	e59ff018 	ldr	pc, [pc, #24]	; 8030 <_abort>
    8014:	e320f000 	nop	{0}
    8018:	e59ff018 	ldr	pc, [pc, #24]	; 8038 <_irq>
    801c:	e59ff018 	ldr	pc, [pc, #24]	; 803c <_fiq>

00008020 <_reset>:
    8020:	00008040 	andeq	r8, r0, r0, asr #32

00008024 <_undefined>:
    8024:	00008180 	andeq	r8, r0, r0, lsl #3

00008028 <_swi>:
    8028:	00008180 	andeq	r8, r0, r0, lsl #3

0000802c <_prefetch>:
    802c:	00008180 	andeq	r8, r0, r0, lsl #3

00008030 <_abort>:
    8030:	00008180 	andeq	r8, r0, r0, lsl #3
    8034:	00000000 	andeq	r0, r0, r0

00008038 <_irq>:
    8038:	0000a040 	andeq	sl, r0, r0, asr #32

0000803c <_fiq>:
    803c:	00008180 	andeq	r8, r0, r0, lsl #3

00008040 <ResetHandler>:
    8040:	e59f0080 	ldr	r0, [pc, #128]	; 80c8 <hwinit0+0x4>
    8044:	e321f0db 	msr	CPSR_c, #219	; 0xdb
    8048:	e1a0d000 	mov	sp, r0
    804c:	e59f1078 	ldr	r1, [pc, #120]	; 80cc <hwinit0+0x8>
    8050:	e0400001 	sub	r0, r0, r1
    8054:	e321f0d7 	msr	CPSR_c, #215	; 0xd7
    8058:	e1a0d000 	mov	sp, r0
    805c:	e59f106c 	ldr	r1, [pc, #108]	; 80d0 <hwinit0+0xc>
    8060:	e0400001 	sub	r0, r0, r1
    8064:	e321f0d1 	msr	CPSR_c, #209	; 0xd1
    8068:	e1a0d000 	mov	sp, r0
    806c:	e59f1060 	ldr	r1, [pc, #96]	; 80d4 <hwinit0+0x10>
    8070:	e0400001 	sub	r0, r0, r1
    8074:	e321f0d2 	msr	CPSR_c, #210	; 0xd2
    8078:	e1a0d000 	mov	sp, r0
    807c:	e59f1054 	ldr	r1, [pc, #84]	; 80d8 <hwinit0+0x14>
    8080:	e0400001 	sub	r0, r0, r1
    8084:	e321f0d3 	msr	CPSR_c, #211	; 0xd3
    8088:	e1a0d000 	mov	sp, r0
    808c:	e59f1048 	ldr	r1, [pc, #72]	; 80dc <hwinit0+0x18>
    8090:	e0400001 	sub	r0, r0, r1
    8094:	e321f0df 	msr	CPSR_c, #223	; 0xdf
    8098:	e1a0d000 	mov	sp, r0
    809c:	eb000038 	bl	8184 <__early_init>
    80a0:	e3a00000 	mov	r0, #0
    80a4:	e59f1034 	ldr	r1, [pc, #52]	; 80e0 <hwinit0+0x1c>
    80a8:	e59f2034 	ldr	r2, [pc, #52]	; 80e4 <hwinit0+0x20>

000080ac <bssloop>:
    80ac:	e1510002 	cmp	r1, r2
    80b0:	34810004 	strcc	r0, [r1], #4
    80b4:	3afffffc 	bcc	80ac <bssloop>
    80b8:	eb000bb4 	bl	af90 <main>
    80bc:	eaffffff 	b	80c0 <_main_exit_handler>

000080c0 <_main_exit_handler>:
    80c0:	eafffffe 	b	80c0 <_main_exit_handler>

000080c4 <hwinit0>:
    80c4:	e12fff1e 	bx	lr
    80c8:	06007fe0 	streq	r7, [r0], -r0, ror #31
    80cc:	00000004 	andeq	r0, r0, r4
    80d0:	00000004 	andeq	r0, r0, r4
    80d4:	00000010 	andeq	r0, r0, r0, lsl r0
    80d8:	00000080 	andeq	r0, r0, r0, lsl #1
    80dc:	00000004 	andeq	r0, r0, r4
    80e0:	0000b158 	andeq	fp, r0, r8, asr r1
    80e4:	0000b4f0 	strdeq	fp, [r0], -r0
	...

000080f0 <_port_switch_arm>:
    80f0:	e92d4ff0 	push	{r4, r5, r6, r7, r8, r9, sl, fp, lr}
    80f4:	e581d00c 	str	sp, [r1, #12]
    80f8:	e590d00c 	ldr	sp, [r0, #12]
    80fc:	e8bd8ff0 	pop	{r4, r5, r6, r7, r8, r9, sl, fp, pc}

00008100 <_port_irq_common>:
    8100:	eb0003ee 	bl	90c0 <chSchIsPreemptionRequired>
    8104:	e3500000 	cmp	r0, #0
    8108:	08bd500f 	popeq	{r0, r1, r2, r3, ip, lr}
    810c:	025ef004 	subseq	pc, lr, #4
    8110:	e8bd500f 	pop	{r0, r1, r2, r3, ip, lr}
    8114:	e321f09f 	msr	CPSR_c, #159	; 0x9f
    8118:	e92d500f 	push	{r0, r1, r2, r3, ip, lr}
    811c:	e321f092 	msr	CPSR_c, #146	; 0x92
    8120:	e14f0000 	mrs	r0, SPSR
    8124:	e1a0100e 	mov	r1, lr
    8128:	e321f09f 	msr	CPSR_c, #159	; 0x9f
    812c:	e92d0003 	push	{r0, r1}
    8130:	eb000432 	bl	9200 <chSchDoReschedule>
    8134:	e8bd0003 	pop	{r0, r1}
    8138:	e321f092 	msr	CPSR_c, #146	; 0x92
    813c:	e16ff000 	msr	SPSR_fsxc, r0
    8140:	e1a0e001 	mov	lr, r1
    8144:	e321f09f 	msr	CPSR_c, #159	; 0x9f
    8148:	e8bd500f 	pop	{r0, r1, r2, r3, ip, lr}
    814c:	e321f092 	msr	CPSR_c, #146	; 0x92
    8150:	e25ef004 	subs	pc, lr, #4
    8154:	e320f000 	nop	{0}
    8158:	e320f000 	nop	{0}
    815c:	e320f000 	nop	{0}

00008160 <_port_thread_start>:
    8160:	e321f01f 	msr	CPSR_c, #31
    8164:	e1a00005 	mov	r0, r5
    8168:	e1a0e00f 	mov	lr, pc
    816c:	e12fff14 	bx	r4
    8170:	eb000496 	bl	93d0 <chThdExit>
	...

00008180 <_unhandled_exception>:
    8180:	eafffffe 	b	8180 <_unhandled_exception>

00008184 <__early_init>:
    8184:	e3a00902 	mov	r0, #32768	; 0x8000
    8188:	e3a01000 	mov	r1, #0
    818c:	e8b003fc 	ldm	r0!, {r2, r3, r4, r5, r6, r7, r8, r9}
    8190:	e8a103fc 	stmia	r1!, {r2, r3, r4, r5, r6, r7, r8, r9}
    8194:	e8b003fc 	ldm	r0!, {r2, r3, r4, r5, r6, r7, r8, r9}
    8198:	e8a103fc 	stmia	r1!, {r2, r3, r4, r5, r6, r7, r8, r9}
    819c:	e12fff1e 	bx	lr

000081a0 <arm_enable_irq>:
    81a0:	e10f0000 	mrs	r0, CPSR
    81a4:	e3c00080 	bic	r0, r0, #128	; 0x80
    81a8:	e121f000 	msr	CPSR_c, r0
    81ac:	e12fff1e 	bx	lr

000081b0 <get_cpsr>:
    81b0:	e10f0000 	mrs	r0, CPSR
    81b4:	e12fff1e 	bx	lr
	...

000081c0 <__aeabi_dmul>:
    81c0:	e92d4070 	push	{r4, r5, r6, lr}
    81c4:	e3a0c0ff 	mov	ip, #255	; 0xff
    81c8:	e38ccc07 	orr	ip, ip, #1792	; 0x700
    81cc:	e01c4a21 	ands	r4, ip, r1, lsr #20
    81d0:	101c5a23 	andsne	r5, ip, r3, lsr #20
    81d4:	1134000c 	teqne	r4, ip
    81d8:	1135000c 	teqne	r5, ip
    81dc:	0b000075 	bleq	83b8 <__aeabi_dmul+0x1f8>
    81e0:	e0844005 	add	r4, r4, r5
    81e4:	e0216003 	eor	r6, r1, r3
    81e8:	e1c11a8c 	bic	r1, r1, ip, lsl #21
    81ec:	e1c33a8c 	bic	r3, r3, ip, lsl #21
    81f0:	e1905601 	orrs	r5, r0, r1, lsl #12
    81f4:	11925603 	orrsne	r5, r2, r3, lsl #12
    81f8:	e3811601 	orr	r1, r1, #1048576	; 0x100000
    81fc:	e3833601 	orr	r3, r3, #1048576	; 0x100000
    8200:	0a00001d 	beq	827c <__aeabi_dmul+0xbc>
    8204:	e08ec290 	umull	ip, lr, r0, r2
    8208:	e3a05000 	mov	r5, #0
    820c:	e0a5e291 	umlal	lr, r5, r1, r2
    8210:	e2062102 	and	r2, r6, #-2147483648	; 0x80000000
    8214:	e0a5e390 	umlal	lr, r5, r0, r3
    8218:	e3a06000 	mov	r6, #0
    821c:	e0a65391 	umlal	r5, r6, r1, r3
    8220:	e33c0000 	teq	ip, #0
    8224:	138ee001 	orrne	lr, lr, #1
    8228:	e24440ff 	sub	r4, r4, #255	; 0xff
    822c:	e3560c02 	cmp	r6, #512	; 0x200
    8230:	e2c44c03 	sbc	r4, r4, #768	; 0x300
    8234:	2a000002 	bcs	8244 <__aeabi_dmul+0x84>
    8238:	e1b0e08e 	lsls	lr, lr, #1
    823c:	e0b55005 	adcs	r5, r5, r5
    8240:	e0a66006 	adc	r6, r6, r6
    8244:	e1821586 	orr	r1, r2, r6, lsl #11
    8248:	e1811aa5 	orr	r1, r1, r5, lsr #21
    824c:	e1a00585 	lsl	r0, r5, #11
    8250:	e1800aae 	orr	r0, r0, lr, lsr #21
    8254:	e1a0e58e 	lsl	lr, lr, #11
    8258:	e254c0fd 	subs	ip, r4, #253	; 0xfd
    825c:	835c0c07 	cmphi	ip, #1792	; 0x700
    8260:	8a000011 	bhi	82ac <__aeabi_dmul+0xec>
    8264:	e35e0102 	cmp	lr, #-2147483648	; 0x80000000
    8268:	01b0e0a0 	lsrseq	lr, r0, #1
    826c:	e2b00000 	adcs	r0, r0, #0
    8270:	e0a11a04 	adc	r1, r1, r4, lsl #20
    8274:	e8bd4070 	pop	{r4, r5, r6, lr}
    8278:	e12fff1e 	bx	lr
    827c:	e2066102 	and	r6, r6, #-2147483648	; 0x80000000
    8280:	e1861001 	orr	r1, r6, r1
    8284:	e1800002 	orr	r0, r0, r2
    8288:	e0211003 	eor	r1, r1, r3
    828c:	e05440ac 	subs	r4, r4, ip, lsr #1
    8290:	c074500c 	rsbsgt	r5, r4, ip
    8294:	c1811a04 	orrgt	r1, r1, r4, lsl #20
    8298:	c8bd4070 	popgt	{r4, r5, r6, lr}
    829c:	c12fff1e 	bxgt	lr
    82a0:	e3811601 	orr	r1, r1, #1048576	; 0x100000
    82a4:	e3a0e000 	mov	lr, #0
    82a8:	e2544001 	subs	r4, r4, #1
    82ac:	ca00005d 	bgt	8428 <__aeabi_dmul+0x268>
    82b0:	e3740036 	cmn	r4, #54	; 0x36
    82b4:	d3a00000 	movle	r0, #0
    82b8:	d2011102 	andle	r1, r1, #-2147483648	; 0x80000000
    82bc:	d8bd4070 	pople	{r4, r5, r6, lr}
    82c0:	d12fff1e 	bxle	lr
    82c4:	e2644000 	rsb	r4, r4, #0
    82c8:	e2544020 	subs	r4, r4, #32
    82cc:	aa00001a 	bge	833c <__aeabi_dmul+0x17c>
    82d0:	e294400c 	adds	r4, r4, #12
    82d4:	ca00000c 	bgt	830c <__aeabi_dmul+0x14c>
    82d8:	e2844014 	add	r4, r4, #20
    82dc:	e2645020 	rsb	r5, r4, #32
    82e0:	e1a03510 	lsl	r3, r0, r5
    82e4:	e1a00430 	lsr	r0, r0, r4
    82e8:	e1800511 	orr	r0, r0, r1, lsl r5
    82ec:	e2012102 	and	r2, r1, #-2147483648	; 0x80000000
    82f0:	e3c11102 	bic	r1, r1, #-2147483648	; 0x80000000
    82f4:	e0900fa3 	adds	r0, r0, r3, lsr #31
    82f8:	e0a21431 	adc	r1, r2, r1, lsr r4
    82fc:	e19ee083 	orrs	lr, lr, r3, lsl #1
    8300:	01c00fa3 	biceq	r0, r0, r3, lsr #31
    8304:	e8bd4070 	pop	{r4, r5, r6, lr}
    8308:	e12fff1e 	bx	lr
    830c:	e264400c 	rsb	r4, r4, #12
    8310:	e2645020 	rsb	r5, r4, #32
    8314:	e1a03410 	lsl	r3, r0, r4
    8318:	e1a00530 	lsr	r0, r0, r5
    831c:	e1800411 	orr	r0, r0, r1, lsl r4
    8320:	e2011102 	and	r1, r1, #-2147483648	; 0x80000000
    8324:	e0900fa3 	adds	r0, r0, r3, lsr #31
    8328:	e2a11000 	adc	r1, r1, #0
    832c:	e19ee083 	orrs	lr, lr, r3, lsl #1
    8330:	01c00fa3 	biceq	r0, r0, r3, lsr #31
    8334:	e8bd4070 	pop	{r4, r5, r6, lr}
    8338:	e12fff1e 	bx	lr
    833c:	e2645020 	rsb	r5, r4, #32
    8340:	e18ee510 	orr	lr, lr, r0, lsl r5
    8344:	e1a03430 	lsr	r3, r0, r4
    8348:	e1833511 	orr	r3, r3, r1, lsl r5
    834c:	e1a00431 	lsr	r0, r1, r4
    8350:	e2011102 	and	r1, r1, #-2147483648	; 0x80000000
    8354:	e1c00431 	bic	r0, r0, r1, lsr r4
    8358:	e0800fa3 	add	r0, r0, r3, lsr #31
    835c:	e19ee083 	orrs	lr, lr, r3, lsl #1
    8360:	01c00fa3 	biceq	r0, r0, r3, lsr #31
    8364:	e8bd4070 	pop	{r4, r5, r6, lr}
    8368:	e12fff1e 	bx	lr
    836c:	e3340000 	teq	r4, #0
    8370:	1a000008 	bne	8398 <__aeabi_dmul+0x1d8>
    8374:	e2016102 	and	r6, r1, #-2147483648	; 0x80000000
    8378:	e1b00080 	lsls	r0, r0, #1
    837c:	e0a11001 	adc	r1, r1, r1
    8380:	e3110601 	tst	r1, #1048576	; 0x100000
    8384:	02444001 	subeq	r4, r4, #1
    8388:	0afffffa 	beq	8378 <__aeabi_dmul+0x1b8>
    838c:	e1811006 	orr	r1, r1, r6
    8390:	e3350000 	teq	r5, #0
    8394:	112fff1e 	bxne	lr
    8398:	e2036102 	and	r6, r3, #-2147483648	; 0x80000000
    839c:	e1b02082 	lsls	r2, r2, #1
    83a0:	e0a33003 	adc	r3, r3, r3
    83a4:	e3130601 	tst	r3, #1048576	; 0x100000
    83a8:	02455001 	subeq	r5, r5, #1
    83ac:	0afffffa 	beq	839c <__aeabi_dmul+0x1dc>
    83b0:	e1833006 	orr	r3, r3, r6
    83b4:	e12fff1e 	bx	lr
    83b8:	e134000c 	teq	r4, ip
    83bc:	e00c5a23 	and	r5, ip, r3, lsr #20
    83c0:	1135000c 	teqne	r5, ip
    83c4:	0a000007 	beq	83e8 <__aeabi_dmul+0x228>
    83c8:	e1906081 	orrs	r6, r0, r1, lsl #1
    83cc:	11926083 	orrsne	r6, r2, r3, lsl #1
    83d0:	1affffe5 	bne	836c <__aeabi_dmul+0x1ac>
    83d4:	e0211003 	eor	r1, r1, r3
    83d8:	e2011102 	and	r1, r1, #-2147483648	; 0x80000000
    83dc:	e3a00000 	mov	r0, #0
    83e0:	e8bd4070 	pop	{r4, r5, r6, lr}
    83e4:	e12fff1e 	bx	lr
    83e8:	e1906081 	orrs	r6, r0, r1, lsl #1
    83ec:	01a00002 	moveq	r0, r2
    83f0:	01a01003 	moveq	r1, r3
    83f4:	11926083 	orrsne	r6, r2, r3, lsl #1
    83f8:	0a000010 	beq	8440 <__aeabi_dmul+0x280>
    83fc:	e134000c 	teq	r4, ip
    8400:	1a000001 	bne	840c <__aeabi_dmul+0x24c>
    8404:	e1906601 	orrs	r6, r0, r1, lsl #12
    8408:	1a00000c 	bne	8440 <__aeabi_dmul+0x280>
    840c:	e135000c 	teq	r5, ip
    8410:	1a000003 	bne	8424 <__aeabi_dmul+0x264>
    8414:	e1926603 	orrs	r6, r2, r3, lsl #12
    8418:	11a00002 	movne	r0, r2
    841c:	11a01003 	movne	r1, r3
    8420:	1a000006 	bne	8440 <__aeabi_dmul+0x280>
    8424:	e0211003 	eor	r1, r1, r3
    8428:	e2011102 	and	r1, r1, #-2147483648	; 0x80000000
    842c:	e381147f 	orr	r1, r1, #2130706432	; 0x7f000000
    8430:	e381160f 	orr	r1, r1, #15728640	; 0xf00000
    8434:	e3a00000 	mov	r0, #0
    8438:	e8bd4070 	pop	{r4, r5, r6, lr}
    843c:	e12fff1e 	bx	lr
    8440:	e381147f 	orr	r1, r1, #2130706432	; 0x7f000000
    8444:	e381173e 	orr	r1, r1, #16252928	; 0xf80000
    8448:	e8bd4070 	pop	{r4, r5, r6, lr}
    844c:	e12fff1e 	bx	lr

00008450 <__udivsi3>:
    8450:	e2512001 	subs	r2, r1, #1
    8454:	012fff1e 	bxeq	lr
    8458:	3a000036 	bcc	8538 <__udivsi3+0xe8>
    845c:	e1500001 	cmp	r0, r1
    8460:	9a000022 	bls	84f0 <__udivsi3+0xa0>
    8464:	e1110002 	tst	r1, r2
    8468:	0a000023 	beq	84fc <__udivsi3+0xac>
    846c:	e311020e 	tst	r1, #-536870912	; 0xe0000000
    8470:	01a01181 	lsleq	r1, r1, #3
    8474:	03a03008 	moveq	r3, #8
    8478:	13a03001 	movne	r3, #1
    847c:	e3510201 	cmp	r1, #268435456	; 0x10000000
    8480:	31510000 	cmpcc	r1, r0
    8484:	31a01201 	lslcc	r1, r1, #4
    8488:	31a03203 	lslcc	r3, r3, #4
    848c:	3afffffa 	bcc	847c <__udivsi3+0x2c>
    8490:	e3510102 	cmp	r1, #-2147483648	; 0x80000000
    8494:	31510000 	cmpcc	r1, r0
    8498:	31a01081 	lslcc	r1, r1, #1
    849c:	31a03083 	lslcc	r3, r3, #1
    84a0:	3afffffa 	bcc	8490 <__udivsi3+0x40>
    84a4:	e3a02000 	mov	r2, #0
    84a8:	e1500001 	cmp	r0, r1
    84ac:	20400001 	subcs	r0, r0, r1
    84b0:	21822003 	orrcs	r2, r2, r3
    84b4:	e15000a1 	cmp	r0, r1, lsr #1
    84b8:	204000a1 	subcs	r0, r0, r1, lsr #1
    84bc:	218220a3 	orrcs	r2, r2, r3, lsr #1
    84c0:	e1500121 	cmp	r0, r1, lsr #2
    84c4:	20400121 	subcs	r0, r0, r1, lsr #2
    84c8:	21822123 	orrcs	r2, r2, r3, lsr #2
    84cc:	e15001a1 	cmp	r0, r1, lsr #3
    84d0:	204001a1 	subcs	r0, r0, r1, lsr #3
    84d4:	218221a3 	orrcs	r2, r2, r3, lsr #3
    84d8:	e3500000 	cmp	r0, #0
    84dc:	11b03223 	lsrsne	r3, r3, #4
    84e0:	11a01221 	lsrne	r1, r1, #4
    84e4:	1affffef 	bne	84a8 <__udivsi3+0x58>
    84e8:	e1a00002 	mov	r0, r2
    84ec:	e12fff1e 	bx	lr
    84f0:	03a00001 	moveq	r0, #1
    84f4:	13a00000 	movne	r0, #0
    84f8:	e12fff1e 	bx	lr
    84fc:	e3510801 	cmp	r1, #65536	; 0x10000
    8500:	21a01821 	lsrcs	r1, r1, #16
    8504:	23a02010 	movcs	r2, #16
    8508:	33a02000 	movcc	r2, #0
    850c:	e3510c01 	cmp	r1, #256	; 0x100
    8510:	21a01421 	lsrcs	r1, r1, #8
    8514:	22822008 	addcs	r2, r2, #8
    8518:	e3510010 	cmp	r1, #16
    851c:	21a01221 	lsrcs	r1, r1, #4
    8520:	22822004 	addcs	r2, r2, #4
    8524:	e3510004 	cmp	r1, #4
    8528:	82822003 	addhi	r2, r2, #3
    852c:	908220a1 	addls	r2, r2, r1, lsr #1
    8530:	e1a00230 	lsr	r0, r0, r2
    8534:	e12fff1e 	bx	lr
    8538:	e3500000 	cmp	r0, #0
    853c:	13e00000 	mvnne	r0, #0
    8540:	ea00000a 	b	8570 <__aeabi_idiv0>

00008544 <__aeabi_uidivmod>:
    8544:	e3510000 	cmp	r1, #0
    8548:	0afffffa 	beq	8538 <__udivsi3+0xe8>
    854c:	e92d4003 	push	{r0, r1, lr}
    8550:	ebffffbe 	bl	8450 <__udivsi3>
    8554:	e8bd4006 	pop	{r1, r2, lr}
    8558:	e0030092 	mul	r3, r2, r0
    855c:	e0411003 	sub	r1, r1, r3
    8560:	e12fff1e 	bx	lr
	...

00008570 <__aeabi_idiv0>:
    8570:	e12fff1e 	bx	lr
	...

00008580 <__aeabi_drsub>:
    8580:	e2211102 	eor	r1, r1, #-2147483648	; 0x80000000
    8584:	ea000000 	b	858c <__adddf3>

00008588 <__aeabi_dsub>:
    8588:	e2233102 	eor	r3, r3, #-2147483648	; 0x80000000

0000858c <__adddf3>:
    858c:	e92d4030 	push	{r4, r5, lr}
    8590:	e1a04081 	lsl	r4, r1, #1
    8594:	e1a05083 	lsl	r5, r3, #1
    8598:	e1340005 	teq	r4, r5
    859c:	01300002 	teqeq	r0, r2
    85a0:	1194c000 	orrsne	ip, r4, r0
    85a4:	1195c002 	orrsne	ip, r5, r2
    85a8:	11f0cac4 	mvnsne	ip, r4, asr #21
    85ac:	11f0cac5 	mvnsne	ip, r5, asr #21
    85b0:	0a00008c 	beq	87e8 <__adddf3+0x25c>
    85b4:	e1a04aa4 	lsr	r4, r4, #21
    85b8:	e0745aa5 	rsbs	r5, r4, r5, lsr #21
    85bc:	b2655000 	rsblt	r5, r5, #0
    85c0:	da000006 	ble	85e0 <__adddf3+0x54>
    85c4:	e0844005 	add	r4, r4, r5
    85c8:	e0202002 	eor	r2, r0, r2
    85cc:	e0213003 	eor	r3, r1, r3
    85d0:	e0220000 	eor	r0, r2, r0
    85d4:	e0231001 	eor	r1, r3, r1
    85d8:	e0202002 	eor	r2, r0, r2
    85dc:	e0213003 	eor	r3, r1, r3
    85e0:	e3550036 	cmp	r5, #54	; 0x36
    85e4:	88bd4030 	pophi	{r4, r5, lr}
    85e8:	812fff1e 	bxhi	lr
    85ec:	e3110102 	tst	r1, #-2147483648	; 0x80000000
    85f0:	e1a01601 	lsl	r1, r1, #12
    85f4:	e3a0c601 	mov	ip, #1048576	; 0x100000
    85f8:	e18c1621 	orr	r1, ip, r1, lsr #12
    85fc:	0a000001 	beq	8608 <__adddf3+0x7c>
    8600:	e2700000 	rsbs	r0, r0, #0
    8604:	e2e11000 	rsc	r1, r1, #0
    8608:	e3130102 	tst	r3, #-2147483648	; 0x80000000
    860c:	e1a03603 	lsl	r3, r3, #12
    8610:	e18c3623 	orr	r3, ip, r3, lsr #12
    8614:	0a000001 	beq	8620 <__adddf3+0x94>
    8618:	e2722000 	rsbs	r2, r2, #0
    861c:	e2e33000 	rsc	r3, r3, #0
    8620:	e1340005 	teq	r4, r5
    8624:	0a000069 	beq	87d0 <__adddf3+0x244>
    8628:	e2444001 	sub	r4, r4, #1
    862c:	e275e020 	rsbs	lr, r5, #32
    8630:	ba000005 	blt	864c <__adddf3+0xc0>
    8634:	e1a0ce12 	lsl	ip, r2, lr
    8638:	e0900532 	adds	r0, r0, r2, lsr r5
    863c:	e2a11000 	adc	r1, r1, #0
    8640:	e0900e13 	adds	r0, r0, r3, lsl lr
    8644:	e0b11553 	adcs	r1, r1, r3, asr r5
    8648:	ea000006 	b	8668 <__adddf3+0xdc>
    864c:	e2455020 	sub	r5, r5, #32
    8650:	e28ee020 	add	lr, lr, #32
    8654:	e3520001 	cmp	r2, #1
    8658:	e1a0ce13 	lsl	ip, r3, lr
    865c:	238cc002 	orrcs	ip, ip, #2
    8660:	e0900553 	adds	r0, r0, r3, asr r5
    8664:	e0b11fc3 	adcs	r1, r1, r3, asr #31
    8668:	e2015102 	and	r5, r1, #-2147483648	; 0x80000000
    866c:	5a000002 	bpl	867c <__adddf3+0xf0>
    8670:	e27cc000 	rsbs	ip, ip, #0
    8674:	e2f00000 	rscs	r0, r0, #0
    8678:	e2e11000 	rsc	r1, r1, #0
    867c:	e3510601 	cmp	r1, #1048576	; 0x100000
    8680:	3a00000f 	bcc	86c4 <__adddf3+0x138>
    8684:	e3510602 	cmp	r1, #2097152	; 0x200000
    8688:	3a000006 	bcc	86a8 <__adddf3+0x11c>
    868c:	e1b010a1 	lsrs	r1, r1, #1
    8690:	e1b00060 	rrxs	r0, r0
    8694:	e1a0c06c 	rrx	ip, ip
    8698:	e2844001 	add	r4, r4, #1
    869c:	e1a02a84 	lsl	r2, r4, #21
    86a0:	e3720501 	cmn	r2, #4194304	; 0x400000
    86a4:	2a00006b 	bcs	8858 <__adddf3+0x2cc>
    86a8:	e35c0102 	cmp	ip, #-2147483648	; 0x80000000
    86ac:	01b0c0a0 	lsrseq	ip, r0, #1
    86b0:	e2b00000 	adcs	r0, r0, #0
    86b4:	e0a11a04 	adc	r1, r1, r4, lsl #20
    86b8:	e1811005 	orr	r1, r1, r5
    86bc:	e8bd4030 	pop	{r4, r5, lr}
    86c0:	e12fff1e 	bx	lr
    86c4:	e1b0c08c 	lsls	ip, ip, #1
    86c8:	e0b00000 	adcs	r0, r0, r0
    86cc:	e0a11001 	adc	r1, r1, r1
    86d0:	e2544001 	subs	r4, r4, #1
    86d4:	23510601 	cmpcs	r1, #1048576	; 0x100000
    86d8:	2afffff2 	bcs	86a8 <__adddf3+0x11c>
    86dc:	e3310000 	teq	r1, #0
    86e0:	13a03014 	movne	r3, #20
    86e4:	03a03034 	moveq	r3, #52	; 0x34
    86e8:	01a01000 	moveq	r1, r0
    86ec:	03a00000 	moveq	r0, #0
    86f0:	e1a02001 	mov	r2, r1
    86f4:	e3520801 	cmp	r2, #65536	; 0x10000
    86f8:	21a02822 	lsrcs	r2, r2, #16
    86fc:	22433010 	subcs	r3, r3, #16
    8700:	e3520c01 	cmp	r2, #256	; 0x100
    8704:	21a02422 	lsrcs	r2, r2, #8
    8708:	22433008 	subcs	r3, r3, #8
    870c:	e3520010 	cmp	r2, #16
    8710:	21a02222 	lsrcs	r2, r2, #4
    8714:	22433004 	subcs	r3, r3, #4
    8718:	e3520004 	cmp	r2, #4
    871c:	22433002 	subcs	r3, r3, #2
    8720:	304330a2 	subcc	r3, r3, r2, lsr #1
    8724:	e04331a2 	sub	r3, r3, r2, lsr #3
    8728:	e2532020 	subs	r2, r3, #32
    872c:	aa000007 	bge	8750 <__adddf3+0x1c4>
    8730:	e292200c 	adds	r2, r2, #12
    8734:	da000004 	ble	874c <__adddf3+0x1c0>
    8738:	e282c014 	add	ip, r2, #20
    873c:	e262200c 	rsb	r2, r2, #12
    8740:	e1a00c11 	lsl	r0, r1, ip
    8744:	e1a01231 	lsr	r1, r1, r2
    8748:	ea000004 	b	8760 <__adddf3+0x1d4>
    874c:	e2822014 	add	r2, r2, #20
    8750:	d262c020 	rsble	ip, r2, #32
    8754:	e1a01211 	lsl	r1, r1, r2
    8758:	d1811c30 	orrle	r1, r1, r0, lsr ip
    875c:	d1a00210 	lslle	r0, r0, r2
    8760:	e0544003 	subs	r4, r4, r3
    8764:	a0811a04 	addge	r1, r1, r4, lsl #20
    8768:	a1811005 	orrge	r1, r1, r5
    876c:	a8bd4030 	popge	{r4, r5, lr}
    8770:	a12fff1e 	bxge	lr
    8774:	e1e04004 	mvn	r4, r4
    8778:	e254401f 	subs	r4, r4, #31
    877c:	aa00000f 	bge	87c0 <__adddf3+0x234>
    8780:	e294400c 	adds	r4, r4, #12
    8784:	ca000006 	bgt	87a4 <__adddf3+0x218>
    8788:	e2844014 	add	r4, r4, #20
    878c:	e2642020 	rsb	r2, r4, #32
    8790:	e1a00430 	lsr	r0, r0, r4
    8794:	e1800211 	orr	r0, r0, r1, lsl r2
    8798:	e1851431 	orr	r1, r5, r1, lsr r4
    879c:	e8bd4030 	pop	{r4, r5, lr}
    87a0:	e12fff1e 	bx	lr
    87a4:	e264400c 	rsb	r4, r4, #12
    87a8:	e2642020 	rsb	r2, r4, #32
    87ac:	e1a00230 	lsr	r0, r0, r2
    87b0:	e1800411 	orr	r0, r0, r1, lsl r4
    87b4:	e1a01005 	mov	r1, r5
    87b8:	e8bd4030 	pop	{r4, r5, lr}
    87bc:	e12fff1e 	bx	lr
    87c0:	e1a00431 	lsr	r0, r1, r4
    87c4:	e1a01005 	mov	r1, r5
    87c8:	e8bd4030 	pop	{r4, r5, lr}
    87cc:	e12fff1e 	bx	lr
    87d0:	e3340000 	teq	r4, #0
    87d4:	e2233601 	eor	r3, r3, #1048576	; 0x100000
    87d8:	02211601 	eoreq	r1, r1, #1048576	; 0x100000
    87dc:	02844001 	addeq	r4, r4, #1
    87e0:	12455001 	subne	r5, r5, #1
    87e4:	eaffff8f 	b	8628 <__adddf3+0x9c>
    87e8:	e1f0cac4 	mvns	ip, r4, asr #21
    87ec:	11f0cac5 	mvnsne	ip, r5, asr #21
    87f0:	0a00001d 	beq	886c <__adddf3+0x2e0>
    87f4:	e1340005 	teq	r4, r5
    87f8:	01300002 	teqeq	r0, r2
    87fc:	0a000004 	beq	8814 <__adddf3+0x288>
    8800:	e194c000 	orrs	ip, r4, r0
    8804:	01a01003 	moveq	r1, r3
    8808:	01a00002 	moveq	r0, r2
    880c:	e8bd4030 	pop	{r4, r5, lr}
    8810:	e12fff1e 	bx	lr
    8814:	e1310003 	teq	r1, r3
    8818:	13a01000 	movne	r1, #0
    881c:	13a00000 	movne	r0, #0
    8820:	18bd4030 	popne	{r4, r5, lr}
    8824:	112fff1e 	bxne	lr
    8828:	e1b0caa4 	lsrs	ip, r4, #21
    882c:	1a000004 	bne	8844 <__adddf3+0x2b8>
    8830:	e1b00080 	lsls	r0, r0, #1
    8834:	e0b11001 	adcs	r1, r1, r1
    8838:	23811102 	orrcs	r1, r1, #-2147483648	; 0x80000000
    883c:	e8bd4030 	pop	{r4, r5, lr}
    8840:	e12fff1e 	bx	lr
    8844:	e2944501 	adds	r4, r4, #4194304	; 0x400000
    8848:	32811601 	addcc	r1, r1, #1048576	; 0x100000
    884c:	38bd4030 	popcc	{r4, r5, lr}
    8850:	312fff1e 	bxcc	lr
    8854:	e2015102 	and	r5, r1, #-2147483648	; 0x80000000
    8858:	e385147f 	orr	r1, r5, #2130706432	; 0x7f000000
    885c:	e381160f 	orr	r1, r1, #15728640	; 0xf00000
    8860:	e3a00000 	mov	r0, #0
    8864:	e8bd4030 	pop	{r4, r5, lr}
    8868:	e12fff1e 	bx	lr
    886c:	e1f0cac4 	mvns	ip, r4, asr #21
    8870:	11a01003 	movne	r1, r3
    8874:	11a00002 	movne	r0, r2
    8878:	01f0cac5 	mvnseq	ip, r5, asr #21
    887c:	11a03001 	movne	r3, r1
    8880:	11a02000 	movne	r2, r0
    8884:	e1904601 	orrs	r4, r0, r1, lsl #12
    8888:	01925603 	orrseq	r5, r2, r3, lsl #12
    888c:	01310003 	teqeq	r1, r3
    8890:	13811702 	orrne	r1, r1, #524288	; 0x80000
    8894:	e8bd4030 	pop	{r4, r5, lr}
    8898:	e12fff1e 	bx	lr

0000889c <__aeabi_ui2d>:
    889c:	e3300000 	teq	r0, #0
    88a0:	03a01000 	moveq	r1, #0
    88a4:	012fff1e 	bxeq	lr
    88a8:	e92d4030 	push	{r4, r5, lr}
    88ac:	e3a04b01 	mov	r4, #1024	; 0x400
    88b0:	e2844032 	add	r4, r4, #50	; 0x32
    88b4:	e3a05000 	mov	r5, #0
    88b8:	e3a01000 	mov	r1, #0
    88bc:	eaffff86 	b	86dc <__adddf3+0x150>

000088c0 <__aeabi_i2d>:
    88c0:	e3300000 	teq	r0, #0
    88c4:	03a01000 	moveq	r1, #0
    88c8:	012fff1e 	bxeq	lr
    88cc:	e92d4030 	push	{r4, r5, lr}
    88d0:	e3a04b01 	mov	r4, #1024	; 0x400
    88d4:	e2844032 	add	r4, r4, #50	; 0x32
    88d8:	e2105102 	ands	r5, r0, #-2147483648	; 0x80000000
    88dc:	42600000 	rsbmi	r0, r0, #0
    88e0:	e3a01000 	mov	r1, #0
    88e4:	eaffff7c 	b	86dc <__adddf3+0x150>

000088e8 <__aeabi_f2d>:
    88e8:	e1b02080 	lsls	r2, r0, #1
    88ec:	e1a011c2 	asr	r1, r2, #3
    88f0:	e1a01061 	rrx	r1, r1
    88f4:	e1a00e02 	lsl	r0, r2, #28
    88f8:	121234ff 	andsne	r3, r2, #-16777216	; 0xff000000
    88fc:	133304ff 	teqne	r3, #-16777216	; 0xff000000
    8900:	1221130e 	eorne	r1, r1, #939524096	; 0x38000000
    8904:	112fff1e 	bxne	lr
    8908:	e3d224ff 	bics	r2, r2, #-16777216	; 0xff000000
    890c:	012fff1e 	bxeq	lr
    8910:	e33304ff 	teq	r3, #-16777216	; 0xff000000
    8914:	03811702 	orreq	r1, r1, #524288	; 0x80000
    8918:	012fff1e 	bxeq	lr
    891c:	e92d4030 	push	{r4, r5, lr}
    8920:	e3a04d0e 	mov	r4, #896	; 0x380
    8924:	e2015102 	and	r5, r1, #-2147483648	; 0x80000000
    8928:	e3c11102 	bic	r1, r1, #-2147483648	; 0x80000000
    892c:	eaffff6a 	b	86dc <__adddf3+0x150>

00008930 <__aeabi_ul2d>:
    8930:	e1902001 	orrs	r2, r0, r1
    8934:	012fff1e 	bxeq	lr
    8938:	e92d4030 	push	{r4, r5, lr}
    893c:	e3a05000 	mov	r5, #0
    8940:	ea000006 	b	8960 <__aeabi_l2d+0x1c>

00008944 <__aeabi_l2d>:
    8944:	e1902001 	orrs	r2, r0, r1
    8948:	012fff1e 	bxeq	lr
    894c:	e92d4030 	push	{r4, r5, lr}
    8950:	e2115102 	ands	r5, r1, #-2147483648	; 0x80000000
    8954:	5a000001 	bpl	8960 <__aeabi_l2d+0x1c>
    8958:	e2700000 	rsbs	r0, r0, #0
    895c:	e2e11000 	rsc	r1, r1, #0
    8960:	e3a04b01 	mov	r4, #1024	; 0x400
    8964:	e2844032 	add	r4, r4, #50	; 0x32
    8968:	e1b0cb21 	lsrs	ip, r1, #22
    896c:	0affff42 	beq	867c <__adddf3+0xf0>
    8970:	e3a02003 	mov	r2, #3
    8974:	e1b0c1ac 	lsrs	ip, ip, #3
    8978:	12822003 	addne	r2, r2, #3
    897c:	e1b0c1ac 	lsrs	ip, ip, #3
    8980:	12822003 	addne	r2, r2, #3
    8984:	e08221ac 	add	r2, r2, ip, lsr #3
    8988:	e2623020 	rsb	r3, r2, #32
    898c:	e1a0c310 	lsl	ip, r0, r3
    8990:	e1a00230 	lsr	r0, r0, r2
    8994:	e1800311 	orr	r0, r0, r1, lsl r3
    8998:	e1a01231 	lsr	r1, r1, r2
    899c:	e0844002 	add	r4, r4, r2
    89a0:	eaffff35 	b	867c <__adddf3+0xf0>
	...

000089b0 <__aeabi_d2iz>:
    89b0:	e1a02081 	lsl	r2, r1, #1
    89b4:	e2922602 	adds	r2, r2, #2097152	; 0x200000
    89b8:	2a00000c 	bcs	89f0 <__aeabi_d2iz+0x40>
    89bc:	5a000009 	bpl	89e8 <__aeabi_d2iz+0x38>
    89c0:	e3e03e3e 	mvn	r3, #992	; 0x3e0
    89c4:	e0532ac2 	subs	r2, r3, r2, asr #21
    89c8:	9a00000a 	bls	89f8 <__aeabi_d2iz+0x48>
    89cc:	e1a03581 	lsl	r3, r1, #11
    89d0:	e3833102 	orr	r3, r3, #-2147483648	; 0x80000000
    89d4:	e1833aa0 	orr	r3, r3, r0, lsr #21
    89d8:	e3110102 	tst	r1, #-2147483648	; 0x80000000
    89dc:	e1a00233 	lsr	r0, r3, r2
    89e0:	12600000 	rsbne	r0, r0, #0
    89e4:	e12fff1e 	bx	lr
    89e8:	e3a00000 	mov	r0, #0
    89ec:	e12fff1e 	bx	lr
    89f0:	e1900601 	orrs	r0, r0, r1, lsl #12
    89f4:	1a000002 	bne	8a04 <__aeabi_d2iz+0x54>
    89f8:	e2110102 	ands	r0, r1, #-2147483648	; 0x80000000
    89fc:	03e00102 	mvneq	r0, #-2147483648	; 0x80000000
    8a00:	e12fff1e 	bx	lr
    8a04:	e3a00000 	mov	r0, #0
    8a08:	e12fff1e 	bx	lr
    8a0c:	00000000 	andeq	r0, r0, r0

00008a10 <__aeabi_d2f>:
    8a10:	e1a02081 	lsl	r2, r1, #1
    8a14:	e2523207 	subs	r3, r2, #1879048192	; 0x70000000
    8a18:	2253c602 	subscs	ip, r3, #2097152	; 0x200000
    8a1c:	227cc57f 	rsbscs	ip, ip, #532676608	; 0x1fc00000
    8a20:	9a000006 	bls	8a40 <__aeabi_d2f+0x30>
    8a24:	e201c102 	and	ip, r1, #-2147483648	; 0x80000000
    8a28:	e1a02180 	lsl	r2, r0, #3
    8a2c:	e18c0ea0 	orr	r0, ip, r0, lsr #29
    8a30:	e3520102 	cmp	r2, #-2147483648	; 0x80000000
    8a34:	e0a00103 	adc	r0, r0, r3, lsl #2
    8a38:	03c00001 	biceq	r0, r0, #1
    8a3c:	e12fff1e 	bx	lr
    8a40:	e3110101 	tst	r1, #1073741824	; 0x40000000
    8a44:	1a00000f 	bne	8a88 <__aeabi_d2f+0x78>
    8a48:	e293262e 	adds	r2, r3, #48234496	; 0x2e00000
    8a4c:	b2010102 	andlt	r0, r1, #-2147483648	; 0x80000000
    8a50:	b12fff1e 	bxlt	lr
    8a54:	e3811601 	orr	r1, r1, #1048576	; 0x100000
    8a58:	e1a02aa2 	lsr	r2, r2, #21
    8a5c:	e2622018 	rsb	r2, r2, #24
    8a60:	e262c020 	rsb	ip, r2, #32
    8a64:	e1b03c10 	lsls	r3, r0, ip
    8a68:	e1a00230 	lsr	r0, r0, r2
    8a6c:	13800001 	orrne	r0, r0, #1
    8a70:	e1a03581 	lsl	r3, r1, #11
    8a74:	e1a035a3 	lsr	r3, r3, #11
    8a78:	e1800c13 	orr	r0, r0, r3, lsl ip
    8a7c:	e1a03233 	lsr	r3, r3, r2
    8a80:	e1a03083 	lsl	r3, r3, #1
    8a84:	eaffffe6 	b	8a24 <__aeabi_d2f+0x14>
    8a88:	e1f03ac2 	mvns	r3, r2, asr #21
    8a8c:	1a000003 	bne	8aa0 <__aeabi_d2f+0x90>
    8a90:	e1903601 	orrs	r3, r0, r1, lsl #12
    8a94:	13a0047f 	movne	r0, #2130706432	; 0x7f000000
    8a98:	13800503 	orrne	r0, r0, #12582912	; 0xc00000
    8a9c:	112fff1e 	bxne	lr
    8aa0:	e2010102 	and	r0, r1, #-2147483648	; 0x80000000
    8aa4:	e380047f 	orr	r0, r0, #2130706432	; 0x7f000000
    8aa8:	e3800502 	orr	r0, r0, #8388608	; 0x800000
    8aac:	e12fff1e 	bx	lr

00008ab0 <__gesf2>:
    8ab0:	e3e0c000 	mvn	ip, #0
    8ab4:	ea000002 	b	8ac4 <__cmpsf2+0x4>

00008ab8 <__lesf2>:
    8ab8:	e3a0c001 	mov	ip, #1
    8abc:	ea000000 	b	8ac4 <__cmpsf2+0x4>

00008ac0 <__cmpsf2>:
    8ac0:	e3a0c001 	mov	ip, #1
    8ac4:	e52dc004 	push	{ip}		; (str ip, [sp, #-4]!)
    8ac8:	e1a02080 	lsl	r2, r0, #1
    8acc:	e1a03081 	lsl	r3, r1, #1
    8ad0:	e1f0cc42 	mvns	ip, r2, asr #24
    8ad4:	11f0cc43 	mvnsne	ip, r3, asr #24
    8ad8:	0a000007 	beq	8afc <__cmpsf2+0x3c>
    8adc:	e28dd004 	add	sp, sp, #4
    8ae0:	e192c0a3 	orrs	ip, r2, r3, lsr #1
    8ae4:	11300001 	teqne	r0, r1
    8ae8:	50520003 	subspl	r0, r2, r3
    8aec:	81a00fc1 	asrhi	r0, r1, #31
    8af0:	31e00fc1 	mvncc	r0, r1, asr #31
    8af4:	13800001 	orrne	r0, r0, #1
    8af8:	e12fff1e 	bx	lr
    8afc:	e1f0cc42 	mvns	ip, r2, asr #24
    8b00:	1a000001 	bne	8b0c <__cmpsf2+0x4c>
    8b04:	e1b0c480 	lsls	ip, r0, #9
    8b08:	1a000003 	bne	8b1c <__cmpsf2+0x5c>
    8b0c:	e1f0cc43 	mvns	ip, r3, asr #24
    8b10:	1afffff1 	bne	8adc <__cmpsf2+0x1c>
    8b14:	e1b0c481 	lsls	ip, r1, #9
    8b18:	0affffef 	beq	8adc <__cmpsf2+0x1c>
    8b1c:	e49d0004 	pop	{r0}		; (ldr r0, [sp], #4)
    8b20:	e12fff1e 	bx	lr

00008b24 <__aeabi_cfrcmple>:
    8b24:	e1a0c000 	mov	ip, r0
    8b28:	e1a00001 	mov	r0, r1
    8b2c:	e1a0100c 	mov	r1, ip
    8b30:	eaffffff 	b	8b34 <__aeabi_cfcmpeq>

00008b34 <__aeabi_cfcmpeq>:
    8b34:	e92d400f 	push	{r0, r1, r2, r3, lr}
    8b38:	ebffffe0 	bl	8ac0 <__cmpsf2>
    8b3c:	e3500000 	cmp	r0, #0
    8b40:	43700000 	cmnmi	r0, #0
    8b44:	e8bd400f 	pop	{r0, r1, r2, r3, lr}
    8b48:	e12fff1e 	bx	lr

00008b4c <__aeabi_fcmpeq>:
    8b4c:	e52de008 	str	lr, [sp, #-8]!
    8b50:	ebfffff7 	bl	8b34 <__aeabi_cfcmpeq>
    8b54:	03a00001 	moveq	r0, #1
    8b58:	13a00000 	movne	r0, #0
    8b5c:	e49de008 	ldr	lr, [sp], #8
    8b60:	e12fff1e 	bx	lr

00008b64 <__aeabi_fcmplt>:
    8b64:	e52de008 	str	lr, [sp, #-8]!
    8b68:	ebfffff1 	bl	8b34 <__aeabi_cfcmpeq>
    8b6c:	33a00001 	movcc	r0, #1
    8b70:	23a00000 	movcs	r0, #0
    8b74:	e49de008 	ldr	lr, [sp], #8
    8b78:	e12fff1e 	bx	lr

00008b7c <__aeabi_fcmple>:
    8b7c:	e52de008 	str	lr, [sp, #-8]!
    8b80:	ebffffeb 	bl	8b34 <__aeabi_cfcmpeq>
    8b84:	93a00001 	movls	r0, #1
    8b88:	83a00000 	movhi	r0, #0
    8b8c:	e49de008 	ldr	lr, [sp], #8
    8b90:	e12fff1e 	bx	lr

00008b94 <__aeabi_fcmpge>:
    8b94:	e52de008 	str	lr, [sp, #-8]!
    8b98:	ebffffe1 	bl	8b24 <__aeabi_cfrcmple>
    8b9c:	93a00001 	movls	r0, #1
    8ba0:	83a00000 	movhi	r0, #0
    8ba4:	e49de008 	ldr	lr, [sp], #8
    8ba8:	e12fff1e 	bx	lr

00008bac <__aeabi_fcmpgt>:
    8bac:	e52de008 	str	lr, [sp, #-8]!
    8bb0:	ebffffdb 	bl	8b24 <__aeabi_cfrcmple>
    8bb4:	33a00001 	movcc	r0, #1
    8bb8:	23a00000 	movcs	r0, #0
    8bbc:	e49de008 	ldr	lr, [sp], #8
    8bc0:	e12fff1e 	bx	lr
	...

00008bd0 <__aeabi_f2iz>:
    8bd0:	e1a02080 	lsl	r2, r0, #1
    8bd4:	e352047f 	cmp	r2, #2130706432	; 0x7f000000
    8bd8:	3a000008 	bcc	8c00 <__aeabi_f2iz+0x30>
    8bdc:	e3a0309e 	mov	r3, #158	; 0x9e
    8be0:	e0532c22 	subs	r2, r3, r2, lsr #24
    8be4:	9a000007 	bls	8c08 <__aeabi_f2iz+0x38>
    8be8:	e1a03400 	lsl	r3, r0, #8
    8bec:	e3833102 	orr	r3, r3, #-2147483648	; 0x80000000
    8bf0:	e3100102 	tst	r0, #-2147483648	; 0x80000000
    8bf4:	e1a00233 	lsr	r0, r3, r2
    8bf8:	12600000 	rsbne	r0, r0, #0
    8bfc:	e12fff1e 	bx	lr
    8c00:	e3a00000 	mov	r0, #0
    8c04:	e12fff1e 	bx	lr
    8c08:	e3720061 	cmn	r2, #97	; 0x61
    8c0c:	1a000001 	bne	8c18 <__aeabi_f2iz+0x48>
    8c10:	e1b02480 	lsls	r2, r0, #9
    8c14:	1a000002 	bne	8c24 <__aeabi_f2iz+0x54>
    8c18:	e2100102 	ands	r0, r0, #-2147483648	; 0x80000000
    8c1c:	03e00102 	mvneq	r0, #-2147483648	; 0x80000000
    8c20:	e12fff1e 	bx	lr
    8c24:	e3a00000 	mov	r0, #0
    8c28:	e12fff1e 	bx	lr
    8c2c:	00000000 	andeq	r0, r0, r0

00008c30 <_idle_thread>:
    8c30:	e59f3010 	ldr	r3, [pc, #16]	; 8c48 <_idle_thread+0x18>
    8c34:	e59f2010 	ldr	r2, [pc, #16]	; 8c4c <_idle_thread+0x1c>
    8c38:	e5933018 	ldr	r3, [r3, #24]
    8c3c:	e5832018 	str	r2, [r3, #24]
    8c40:	ee070f90 	mcr	15, 0, r0, cr7, cr0, {4}
    8c44:	eafffffd 	b	8c40 <_idle_thread+0x10>
    8c48:	0000b388 	andeq	fp, r0, r8, lsl #7
    8c4c:	0000b0a0 	andeq	fp, r0, r0, lsr #1

00008c50 <chSysInit>:
    8c50:	e52de004 	push	{lr}		; (str lr, [sp, #-4]!)
    8c54:	e24dd00c 	sub	sp, sp, #12
    8c58:	eb0000a0 	bl	8ee0 <_scheduler_init>
    8c5c:	eb00003f 	bl	8d60 <_vt_init>
    8c60:	eb0003d2 	bl	9bb0 <_core_init>
    8c64:	eb0003f5 	bl	9c40 <_heap_init>
    8c68:	e3a01040 	mov	r1, #64	; 0x40
    8c6c:	e59f0040 	ldr	r0, [pc, #64]	; 8cb4 <chSysInit+0x64>
    8c70:	eb00016a 	bl	9220 <_thread_init>
    8c74:	e3a02001 	mov	r2, #1
    8c78:	e59f3038 	ldr	r3, [pc, #56]	; 8cb8 <chSysInit+0x68>
    8c7c:	e5c0201c 	strb	r2, [r0, #28]
    8c80:	e5830018 	str	r0, [r3, #24]
    8c84:	e321f01f 	msr	CPSR_c, #31
    8c88:	e3a01000 	mov	r1, #0
    8c8c:	e5933018 	ldr	r3, [r3, #24]
    8c90:	e59f0024 	ldr	r0, [pc, #36]	; 8cbc <chSysInit+0x6c>
    8c94:	e5830018 	str	r0, [r3, #24]
    8c98:	e58d1000 	str	r1, [sp]
    8c9c:	e59f301c 	ldr	r3, [pc, #28]	; 8cc0 <chSysInit+0x70>
    8ca0:	e3a0109c 	mov	r1, #156	; 0x9c
    8ca4:	e59f0018 	ldr	r0, [pc, #24]	; 8cc4 <chSysInit+0x74>
    8ca8:	eb000178 	bl	9290 <chThdCreateStatic>
    8cac:	e28dd00c 	add	sp, sp, #12
    8cb0:	e49df004 	pop	{pc}		; (ldr pc, [sp], #4)
    8cb4:	0000b158 	andeq	fp, r0, r8, asr r1
    8cb8:	0000b388 	andeq	fp, r0, r8, lsl #7
    8cbc:	0000b0b0 	strheq	fp, [r0], -r0
    8cc0:	00008c30 	andeq	r8, r0, r0, lsr ip
    8cc4:	0000b2dc 	ldrdeq	fp, [r0], -ip
	...

00008cd0 <chSysTimerHandlerI>:
    8cd0:	e92d4070 	push	{r4, r5, r6, lr}
    8cd4:	e59f307c 	ldr	r3, [pc, #124]	; 8d58 <chSysTimerHandlerI+0x88>
    8cd8:	e59f407c 	ldr	r4, [pc, #124]	; 8d5c <chSysTimerHandlerI+0x8c>
    8cdc:	e5933018 	ldr	r3, [r3, #24]
    8ce0:	e5d3201f 	ldrb	r2, [r3, #31]
    8ce4:	e3520000 	cmp	r2, #0
    8ce8:	12422001 	subne	r2, r2, #1
    8cec:	15c3201f 	strbne	r2, [r3, #31]
    8cf0:	e5932020 	ldr	r2, [r3, #32]
    8cf4:	e2822001 	add	r2, r2, #1
    8cf8:	e5832020 	str	r2, [r3, #32]
    8cfc:	e594200c 	ldr	r2, [r4, #12]
    8d00:	e5943000 	ldr	r3, [r4]
    8d04:	e2822001 	add	r2, r2, #1
    8d08:	e1530004 	cmp	r3, r4
    8d0c:	e584200c 	str	r2, [r4, #12]
    8d10:	08bd8070 	popeq	{r4, r5, r6, pc}
    8d14:	e5935008 	ldr	r5, [r3, #8]
    8d18:	e2455001 	sub	r5, r5, #1
    8d1c:	e3550000 	cmp	r5, #0
    8d20:	e5835008 	str	r5, [r3, #8]
    8d24:	18bd8070 	popne	{r4, r5, r6, pc}
    8d28:	e5932000 	ldr	r2, [r3]
    8d2c:	e593100c 	ldr	r1, [r3, #12]
    8d30:	e5930010 	ldr	r0, [r3, #16]
    8d34:	e583500c 	str	r5, [r3, #12]
    8d38:	e5842000 	str	r2, [r4]
    8d3c:	e5824004 	str	r4, [r2, #4]
    8d40:	e12fff31 	blx	r1
    8d44:	e5943000 	ldr	r3, [r4]
    8d48:	e5932008 	ldr	r2, [r3, #8]
    8d4c:	e3520000 	cmp	r2, #0
    8d50:	0afffff4 	beq	8d28 <chSysTimerHandlerI+0x58>
    8d54:	e8bd8070 	pop	{r4, r5, r6, pc}
    8d58:	0000b388 	andeq	fp, r0, r8, lsl #7
    8d5c:	0000b378 	andeq	fp, r0, r8, ror r3

00008d60 <_vt_init>:
    8d60:	e3e01000 	mvn	r1, #0
    8d64:	e3a02000 	mov	r2, #0
    8d68:	e59f3010 	ldr	r3, [pc, #16]	; 8d80 <_vt_init+0x20>
    8d6c:	e5831008 	str	r1, [r3, #8]
    8d70:	e5833004 	str	r3, [r3, #4]
    8d74:	e5833000 	str	r3, [r3]
    8d78:	e583200c 	str	r2, [r3, #12]
    8d7c:	e12fff1e 	bx	lr
    8d80:	0000b378 	andeq	fp, r0, r8, ror r3
	...

00008d90 <chVTSetI>:
    8d90:	e59fc054 	ldr	ip, [pc, #84]	; 8dec <chVTSetI+0x5c>
    8d94:	e580200c 	str	r2, [r0, #12]
    8d98:	e59c2000 	ldr	r2, [ip]
    8d9c:	e5803010 	str	r3, [r0, #16]
    8da0:	e5923008 	ldr	r3, [r2, #8]
    8da4:	e1510003 	cmp	r1, r3
    8da8:	9a000004 	bls	8dc0 <chVTSetI+0x30>
    8dac:	e5922000 	ldr	r2, [r2]
    8db0:	e0411003 	sub	r1, r1, r3
    8db4:	e5923008 	ldr	r3, [r2, #8]
    8db8:	e1530001 	cmp	r3, r1
    8dbc:	3afffffa 	bcc	8dac <chVTSetI+0x1c>
    8dc0:	e5923004 	ldr	r3, [r2, #4]
    8dc4:	e152000c 	cmp	r2, ip
    8dc8:	e1c020f0 	strd	r2, [r0]
    8dcc:	e5820004 	str	r0, [r2, #4]
    8dd0:	e5903004 	ldr	r3, [r0, #4]
    8dd4:	e5830000 	str	r0, [r3]
    8dd8:	e5801008 	str	r1, [r0, #8]
    8ddc:	15923008 	ldrne	r3, [r2, #8]
    8de0:	10431001 	subne	r1, r3, r1
    8de4:	15821008 	strne	r1, [r2, #8]
    8de8:	e12fff1e 	bx	lr
    8dec:	0000b378 	andeq	fp, r0, r8, ror r3

00008df0 <chVTResetI>:
    8df0:	e5903000 	ldr	r3, [r0]
    8df4:	e59f202c 	ldr	r2, [pc, #44]	; 8e28 <chVTResetI+0x38>
    8df8:	e1530002 	cmp	r3, r2
    8dfc:	15932008 	ldrne	r2, [r3, #8]
    8e00:	15901008 	ldrne	r1, [r0, #8]
    8e04:	10822001 	addne	r2, r2, r1
    8e08:	e3a01000 	mov	r1, #0
    8e0c:	15832008 	strne	r2, [r3, #8]
    8e10:	e5902004 	ldr	r2, [r0, #4]
    8e14:	e5823000 	str	r3, [r2]
    8e18:	e5903000 	ldr	r3, [r0]
    8e1c:	e5832004 	str	r2, [r3, #4]
    8e20:	e580100c 	str	r1, [r0, #12]
    8e24:	e12fff1e 	bx	lr
    8e28:	0000b378 	andeq	fp, r0, r8, ror r3
    8e2c:	00000000 	andeq	r0, r0, r0

00008e30 <wakeup>:
    8e30:	e5d0301c 	ldrb	r3, [r0, #28]
    8e34:	e353000d 	cmp	r3, #13
    8e38:	979ff103 	ldrls	pc, [pc, r3, lsl #2]
    8e3c:	ea000015 	b	8e98 <wakeup+0x68>
    8e40:	00008ed8 	ldrdeq	r8, [r0], -r8	; <UNPREDICTABLE>
    8e44:	00008e98 	muleq	r0, r8, lr
    8e48:	00008e98 	muleq	r0, r8, lr
    8e4c:	00008e78 	andeq	r8, r0, r8, ror lr
    8e50:	00008e98 	muleq	r0, r8, lr
    8e54:	00008e88 	andeq	r8, r0, r8, lsl #29
    8e58:	00008e98 	muleq	r0, r8, lr
    8e5c:	00008e98 	muleq	r0, r8, lr
    8e60:	00008e98 	muleq	r0, r8, lr
    8e64:	00008e98 	muleq	r0, r8, lr
    8e68:	00008e98 	muleq	r0, r8, lr
    8e6c:	00008e98 	muleq	r0, r8, lr
    8e70:	00008e98 	muleq	r0, r8, lr
    8e74:	00008e88 	andeq	r8, r0, r8, lsl #29
    8e78:	e5902024 	ldr	r2, [r0, #36]	; 0x24
    8e7c:	e5923008 	ldr	r3, [r2, #8]
    8e80:	e2833001 	add	r3, r3, #1
    8e84:	e5823008 	str	r3, [r2, #8]
    8e88:	e5902004 	ldr	r2, [r0, #4]
    8e8c:	e5903000 	ldr	r3, [r0]
    8e90:	e5823000 	str	r3, [r2]
    8e94:	e5832004 	str	r2, [r3, #4]
    8e98:	e3e0c000 	mvn	ip, #0
    8e9c:	e3a02000 	mov	r2, #0
    8ea0:	e5901008 	ldr	r1, [r0, #8]
    8ea4:	e59f3030 	ldr	r3, [pc, #48]	; 8edc <wakeup+0xac>
    8ea8:	e580c024 	str	ip, [r0, #36]	; 0x24
    8eac:	e5c0201c 	strb	r2, [r0, #28]
    8eb0:	e5933000 	ldr	r3, [r3]
    8eb4:	e5932008 	ldr	r2, [r3, #8]
    8eb8:	e1520001 	cmp	r2, r1
    8ebc:	2afffffb 	bcs	8eb0 <wakeup+0x80>
    8ec0:	e5932004 	ldr	r2, [r3, #4]
    8ec4:	e5803000 	str	r3, [r0]
    8ec8:	e5802004 	str	r2, [r0, #4]
    8ecc:	e5830004 	str	r0, [r3, #4]
    8ed0:	e5903004 	ldr	r3, [r0, #4]
    8ed4:	e5830000 	str	r0, [r3]
    8ed8:	e12fff1e 	bx	lr
    8edc:	0000b388 	andeq	fp, r0, r8, lsl #7

00008ee0 <_scheduler_init>:
    8ee0:	e3a02000 	mov	r2, #0
    8ee4:	e59f3014 	ldr	r3, [pc, #20]	; 8f00 <_scheduler_init+0x20>
    8ee8:	e5832008 	str	r2, [r3, #8]
    8eec:	e5833004 	str	r3, [r3, #4]
    8ef0:	e5833000 	str	r3, [r3]
    8ef4:	e5833014 	str	r3, [r3, #20]
    8ef8:	e5833010 	str	r3, [r3, #16]
    8efc:	e12fff1e 	bx	lr
    8f00:	0000b388 	andeq	fp, r0, r8, lsl #7
	...

00008f10 <chSchReadyI>:
    8f10:	e3a02000 	mov	r2, #0
    8f14:	e5901008 	ldr	r1, [r0, #8]
    8f18:	e59f302c 	ldr	r3, [pc, #44]	; 8f4c <chSchReadyI+0x3c>
    8f1c:	e5c0201c 	strb	r2, [r0, #28]
    8f20:	e5933000 	ldr	r3, [r3]
    8f24:	e5932008 	ldr	r2, [r3, #8]
    8f28:	e1520001 	cmp	r2, r1
    8f2c:	2afffffb 	bcs	8f20 <chSchReadyI+0x10>
    8f30:	e5932004 	ldr	r2, [r3, #4]
    8f34:	e5803000 	str	r3, [r0]
    8f38:	e5802004 	str	r2, [r0, #4]
    8f3c:	e5830004 	str	r0, [r3, #4]
    8f40:	e5903004 	ldr	r3, [r0, #4]
    8f44:	e5830000 	str	r0, [r3]
    8f48:	e12fff1e 	bx	lr
    8f4c:	0000b388 	andeq	fp, r0, r8, lsl #7

00008f50 <chSchGoSleepS>:
    8f50:	e3a0c014 	mov	ip, #20
    8f54:	e52de004 	push	{lr}		; (str lr, [sp, #-4]!)
    8f58:	e3a0e001 	mov	lr, #1
    8f5c:	e59f302c 	ldr	r3, [pc, #44]	; 8f90 <chSchGoSleepS+0x40>
    8f60:	e5931018 	ldr	r1, [r3, #24]
    8f64:	e5932000 	ldr	r2, [r3]
    8f68:	e5c1001c 	strb	r0, [r1, #28]
    8f6c:	e5c1c01f 	strb	ip, [r1, #31]
    8f70:	e592c000 	ldr	ip, [r2]
    8f74:	e1a00002 	mov	r0, r2
    8f78:	e58c3004 	str	r3, [ip, #4]
    8f7c:	e5c2e01c 	strb	lr, [r2, #28]
    8f80:	e49de004 	pop	{lr}		; (ldr lr, [sp], #4)
    8f84:	e583c000 	str	ip, [r3]
    8f88:	e5832018 	str	r2, [r3, #24]
    8f8c:	eafffc57 	b	80f0 <_port_switch_arm>
    8f90:	0000b388 	andeq	fp, r0, r8, lsl #7
	...

00008fa0 <chSchGoSleepTimeoutS>:
    8fa0:	e92d4030 	push	{r4, r5, lr}
    8fa4:	e3710001 	cmn	r1, #1
    8fa8:	e24dd01c 	sub	sp, sp, #28
    8fac:	0a000010 	beq	8ff4 <chSchGoSleepTimeoutS+0x54>
    8fb0:	e1a04000 	mov	r4, r0
    8fb4:	e59f5050 	ldr	r5, [pc, #80]	; 900c <chSchGoSleepTimeoutS+0x6c>
    8fb8:	e59f2050 	ldr	r2, [pc, #80]	; 9010 <chSchGoSleepTimeoutS+0x70>
    8fbc:	e5953018 	ldr	r3, [r5, #24]
    8fc0:	e28d0004 	add	r0, sp, #4
    8fc4:	ebffff71 	bl	8d90 <chVTSetI>
    8fc8:	e1a00004 	mov	r0, r4
    8fcc:	ebffffdf 	bl	8f50 <chSchGoSleepS>
    8fd0:	e59d3010 	ldr	r3, [sp, #16]
    8fd4:	e3530000 	cmp	r3, #0
    8fd8:	0a000001 	beq	8fe4 <chSchGoSleepTimeoutS+0x44>
    8fdc:	e28d0004 	add	r0, sp, #4
    8fe0:	ebffff82 	bl	8df0 <chVTResetI>
    8fe4:	e5953018 	ldr	r3, [r5, #24]
    8fe8:	e5930024 	ldr	r0, [r3, #36]	; 0x24
    8fec:	e28dd01c 	add	sp, sp, #28
    8ff0:	e8bd8030 	pop	{r4, r5, pc}
    8ff4:	ebffffd5 	bl	8f50 <chSchGoSleepS>
    8ff8:	e59f500c 	ldr	r5, [pc, #12]	; 900c <chSchGoSleepTimeoutS+0x6c>
    8ffc:	e5953018 	ldr	r3, [r5, #24]
    9000:	e5930024 	ldr	r0, [r3, #36]	; 0x24
    9004:	e28dd01c 	add	sp, sp, #28
    9008:	e8bd8030 	pop	{r4, r5, pc}
    900c:	0000b388 	andeq	fp, r0, r8, lsl #7
    9010:	00008e30 	andeq	r8, r0, r0, lsr lr
	...

00009020 <chSchWakeupS>:
    9020:	e59f2094 	ldr	r2, [pc, #148]	; 90bc <chSchWakeupS+0x9c>
    9024:	e92d4010 	push	{r4, lr}
    9028:	e5924018 	ldr	r4, [r2, #24]
    902c:	e590c008 	ldr	ip, [r0, #8]
    9030:	e594e008 	ldr	lr, [r4, #8]
    9034:	e5801024 	str	r1, [r0, #36]	; 0x24
    9038:	e15c000e 	cmp	ip, lr
    903c:	e3a01000 	mov	r1, #0
    9040:	e1a03002 	mov	r3, r2
    9044:	8a00000b 	bhi	9078 <chSchWakeupS+0x58>
    9048:	e5c0101c 	strb	r1, [r0, #28]
    904c:	e5933000 	ldr	r3, [r3]
    9050:	e5932008 	ldr	r2, [r3, #8]
    9054:	e15c0002 	cmp	ip, r2
    9058:	9afffffb 	bls	904c <chSchWakeupS+0x2c>
    905c:	e5932004 	ldr	r2, [r3, #4]
    9060:	e5803000 	str	r3, [r0]
    9064:	e5802004 	str	r2, [r0, #4]
    9068:	e5830004 	str	r0, [r3, #4]
    906c:	e5903004 	ldr	r3, [r0, #4]
    9070:	e5830000 	str	r0, [r3]
    9074:	e8bd8010 	pop	{r4, pc}
    9078:	e5c4101c 	strb	r1, [r4, #28]
    907c:	e5933000 	ldr	r3, [r3]
    9080:	e593c008 	ldr	ip, [r3, #8]
    9084:	e15e000c 	cmp	lr, ip
    9088:	9afffffb 	bls	907c <chSchWakeupS+0x5c>
    908c:	e3a0c001 	mov	ip, #1
    9090:	e5931004 	ldr	r1, [r3, #4]
    9094:	e5843000 	str	r3, [r4]
    9098:	e5841004 	str	r1, [r4, #4]
    909c:	e5834004 	str	r4, [r3, #4]
    90a0:	e5943004 	ldr	r3, [r4, #4]
    90a4:	e1a01004 	mov	r1, r4
    90a8:	e5834000 	str	r4, [r3]
    90ac:	e5c0c01c 	strb	ip, [r0, #28]
    90b0:	e8bd4010 	pop	{r4, lr}
    90b4:	e5820018 	str	r0, [r2, #24]
    90b8:	eafffc0c 	b	80f0 <_port_switch_arm>
    90bc:	0000b388 	andeq	fp, r0, r8, lsl #7

000090c0 <chSchIsPreemptionRequired>:
    90c0:	e59f2038 	ldr	r2, [pc, #56]	; 9100 <chSchIsPreemptionRequired+0x40>
    90c4:	e5923018 	ldr	r3, [r2, #24]
    90c8:	e5921000 	ldr	r1, [r2]
    90cc:	e5d3201f 	ldrb	r2, [r3, #31]
    90d0:	e5910008 	ldr	r0, [r1, #8]
    90d4:	e3520000 	cmp	r2, #0
    90d8:	e5933008 	ldr	r3, [r3, #8]
    90dc:	0a000003 	beq	90f0 <chSchIsPreemptionRequired+0x30>
    90e0:	e1500003 	cmp	r0, r3
    90e4:	93a00000 	movls	r0, #0
    90e8:	83a00001 	movhi	r0, #1
    90ec:	e12fff1e 	bx	lr
    90f0:	e1500003 	cmp	r0, r3
    90f4:	33a00000 	movcc	r0, #0
    90f8:	23a00001 	movcs	r0, #1
    90fc:	e12fff1e 	bx	lr
    9100:	0000b388 	andeq	fp, r0, r8, lsl #7
	...

00009110 <chSchDoRescheduleBehind>:
    9110:	e92d4030 	push	{r4, r5, lr}
    9114:	e3a05001 	mov	r5, #1
    9118:	e3a04014 	mov	r4, #20
    911c:	e3a0e000 	mov	lr, #0
    9120:	e59f205c 	ldr	r2, [pc, #92]	; 9184 <chSchDoRescheduleBehind+0x74>
    9124:	e5920000 	ldr	r0, [r2]
    9128:	e5921018 	ldr	r1, [r2, #24]
    912c:	e590c000 	ldr	ip, [r0]
    9130:	e1a03000 	mov	r3, r0
    9134:	e58c2004 	str	r2, [ip, #4]
    9138:	e5c0501c 	strb	r5, [r0, #28]
    913c:	e582c000 	str	ip, [r2]
    9140:	e5820018 	str	r0, [r2, #24]
    9144:	e591c008 	ldr	ip, [r1, #8]
    9148:	e5c1401f 	strb	r4, [r1, #31]
    914c:	e5c1e01c 	strb	lr, [r1, #28]
    9150:	ea000000 	b	9158 <chSchDoRescheduleBehind+0x48>
    9154:	e5933000 	ldr	r3, [r3]
    9158:	e5932008 	ldr	r2, [r3, #8]
    915c:	e152000c 	cmp	r2, ip
    9160:	2afffffb 	bcs	9154 <chSchDoRescheduleBehind+0x44>
    9164:	e8bd4030 	pop	{r4, r5, lr}
    9168:	e5932004 	ldr	r2, [r3, #4]
    916c:	e5813000 	str	r3, [r1]
    9170:	e5812004 	str	r2, [r1, #4]
    9174:	e5831004 	str	r1, [r3, #4]
    9178:	e5913004 	ldr	r3, [r1, #4]
    917c:	e5831000 	str	r1, [r3]
    9180:	eafffbda 	b	80f0 <_port_switch_arm>
    9184:	0000b388 	andeq	fp, r0, r8, lsl #7
	...

00009190 <chSchDoRescheduleAhead>:
    9190:	e92d4010 	push	{r4, lr}
    9194:	e3a04001 	mov	r4, #1
    9198:	e3a0e000 	mov	lr, #0
    919c:	e59f2058 	ldr	r2, [pc, #88]	; 91fc <chSchDoRescheduleAhead+0x6c>
    91a0:	e5920000 	ldr	r0, [r2]
    91a4:	e5921018 	ldr	r1, [r2, #24]
    91a8:	e590c000 	ldr	ip, [r0]
    91ac:	e1a03000 	mov	r3, r0
    91b0:	e58c2004 	str	r2, [ip, #4]
    91b4:	e5c0401c 	strb	r4, [r0, #28]
    91b8:	e582c000 	str	ip, [r2]
    91bc:	e5c1e01c 	strb	lr, [r1, #28]
    91c0:	e591c008 	ldr	ip, [r1, #8]
    91c4:	e5820018 	str	r0, [r2, #24]
    91c8:	ea000000 	b	91d0 <chSchDoRescheduleAhead+0x40>
    91cc:	e5933000 	ldr	r3, [r3]
    91d0:	e5932008 	ldr	r2, [r3, #8]
    91d4:	e152000c 	cmp	r2, ip
    91d8:	8afffffb 	bhi	91cc <chSchDoRescheduleAhead+0x3c>
    91dc:	e8bd4010 	pop	{r4, lr}
    91e0:	e5932004 	ldr	r2, [r3, #4]
    91e4:	e5813000 	str	r3, [r1]
    91e8:	e5812004 	str	r2, [r1, #4]
    91ec:	e5831004 	str	r1, [r3, #4]
    91f0:	e5913004 	ldr	r3, [r1, #4]
    91f4:	e5831000 	str	r1, [r3]
    91f8:	eafffbbc 	b	80f0 <_port_switch_arm>
    91fc:	0000b388 	andeq	fp, r0, r8, lsl #7

00009200 <chSchDoReschedule>:
    9200:	e59f3014 	ldr	r3, [pc, #20]	; 921c <chSchDoReschedule+0x1c>
    9204:	e5933018 	ldr	r3, [r3, #24]
    9208:	e5d3301f 	ldrb	r3, [r3, #31]
    920c:	e3530000 	cmp	r3, #0
    9210:	1a000000 	bne	9218 <chSchDoReschedule+0x18>
    9214:	eaffffbd 	b	9110 <chSchDoRescheduleBehind>
    9218:	eaffffdc 	b	9190 <chSchDoRescheduleAhead>
    921c:	0000b388 	andeq	fp, r0, r8, lsl #7

00009220 <_thread_init>:
    9220:	e92d4030 	push	{r4, r5, lr}
    9224:	e3a0e014 	mov	lr, #20
    9228:	e3a04001 	mov	r4, #1
    922c:	e3a02000 	mov	r2, #0
    9230:	e3a05002 	mov	r5, #2
    9234:	e59fc04c 	ldr	ip, [pc, #76]	; 9288 <_thread_init+0x68>
    9238:	e5c0e01f 	strb	lr, [r0, #31]
    923c:	e59ce014 	ldr	lr, [ip, #20]
    9240:	e5801008 	str	r1, [r0, #8]
    9244:	e5801040 	str	r1, [r0, #64]	; 0x40
    9248:	e5c0401e 	strb	r4, [r0, #30]
    924c:	e280102c 	add	r1, r0, #44	; 0x2c
    9250:	e2804028 	add	r4, r0, #40	; 0x28
    9254:	e580c010 	str	ip, [r0, #16]
    9258:	e580e014 	str	lr, [r0, #20]
    925c:	e1c051bc 	strh	r5, [r0, #28]
    9260:	e580203c 	str	r2, [r0, #60]	; 0x3c
    9264:	e58c0014 	str	r0, [ip, #20]
    9268:	e5802038 	str	r2, [r0, #56]	; 0x38
    926c:	e5802020 	str	r2, [r0, #32]
    9270:	e5802018 	str	r2, [r0, #24]
    9274:	e58e0010 	str	r0, [lr, #16]
    9278:	e5804028 	str	r4, [r0, #40]	; 0x28
    927c:	e5801030 	str	r1, [r0, #48]	; 0x30
    9280:	e580102c 	str	r1, [r0, #44]	; 0x2c
    9284:	e8bd8030 	pop	{r4, r5, pc}
    9288:	0000b388 	andeq	fp, r0, r8, lsl #7
    928c:	00000000 	andeq	r0, r0, r0

00009290 <chThdCreateStatic>:
    9290:	e92d41f0 	push	{r4, r5, r6, r7, r8, lr}
    9294:	e1a0c001 	mov	ip, r1
    9298:	e1a04000 	mov	r4, r0
    929c:	e59d8018 	ldr	r8, [sp, #24]
    92a0:	e321f09f 	msr	CPSR_c, #159	; 0x9f
    92a4:	e3a01000 	mov	r1, #0
    92a8:	e3a07002 	mov	r7, #2
    92ac:	e3a06014 	mov	r6, #20
    92b0:	e3a05001 	mov	r5, #1
    92b4:	e24cc024 	sub	ip, ip, #36	; 0x24
    92b8:	e080e00c 	add	lr, r0, ip
    92bc:	e580e00c 	str	lr, [r0, #12]
    92c0:	e780300c 	str	r3, [r0, ip]
    92c4:	e59f3064 	ldr	r3, [pc, #100]	; 9330 <chThdCreateStatic+0xa0>
    92c8:	e59fc064 	ldr	ip, [pc, #100]	; 9334 <chThdCreateStatic+0xa4>
    92cc:	e58e8004 	str	r8, [lr, #4]
    92d0:	e58ec020 	str	ip, [lr, #32]
    92d4:	e593c014 	ldr	ip, [r3, #20]
    92d8:	e5802008 	str	r2, [r0, #8]
    92dc:	e5802040 	str	r2, [r0, #64]	; 0x40
    92e0:	e280e028 	add	lr, r0, #40	; 0x28
    92e4:	e280202c 	add	r2, r0, #44	; 0x2c
    92e8:	e5803010 	str	r3, [r0, #16]
    92ec:	e580c014 	str	ip, [r0, #20]
    92f0:	e1c071bc 	strh	r7, [r0, #28]
    92f4:	e5c0601f 	strb	r6, [r0, #31]
    92f8:	e5c0501e 	strb	r5, [r0, #30]
    92fc:	e580103c 	str	r1, [r0, #60]	; 0x3c
    9300:	e5830014 	str	r0, [r3, #20]
    9304:	e5801038 	str	r1, [r0, #56]	; 0x38
    9308:	e5801020 	str	r1, [r0, #32]
    930c:	e5801018 	str	r1, [r0, #24]
    9310:	e58c0010 	str	r0, [ip, #16]
    9314:	e580e028 	str	lr, [r0, #40]	; 0x28
    9318:	e5802030 	str	r2, [r0, #48]	; 0x30
    931c:	e580202c 	str	r2, [r0, #44]	; 0x2c
    9320:	ebffff3e 	bl	9020 <chSchWakeupS>
    9324:	e321f01f 	msr	CPSR_c, #31
    9328:	e1a00004 	mov	r0, r4
    932c:	e8bd81f0 	pop	{r4, r5, r6, r7, r8, pc}
    9330:	0000b388 	andeq	fp, r0, r8, lsl #7
    9334:	00008160 	andeq	r8, r0, r0, ror #2
	...

00009340 <chThdSleep>:
    9340:	e1a01000 	mov	r1, r0
    9344:	e92d4010 	push	{r4, lr}
    9348:	e321f09f 	msr	CPSR_c, #159	; 0x9f
    934c:	e3a00006 	mov	r0, #6
    9350:	ebffff12 	bl	8fa0 <chSchGoSleepTimeoutS>
    9354:	e321f01f 	msr	CPSR_c, #31
    9358:	e8bd8010 	pop	{r4, pc}
    935c:	00000000 	andeq	r0, r0, r0

00009360 <chThdExitS>:
    9360:	e59f2058 	ldr	r2, [pc, #88]	; 93c0 <chThdExitS+0x60>
    9364:	e92d4070 	push	{r4, r5, r6, lr}
    9368:	e5924018 	ldr	r4, [r2, #24]
    936c:	e1a03000 	mov	r3, r0
    9370:	e1a05004 	mov	r5, r4
    9374:	e5b50028 	ldr	r0, [r5, #40]!	; 0x28
    9378:	e5843024 	str	r3, [r4, #36]	; 0x24
    937c:	e1550000 	cmp	r5, r0
    9380:	0a000005 	beq	939c <chThdExitS+0x3c>
    9384:	e5903000 	ldr	r3, [r0]
    9388:	e5843028 	str	r3, [r4, #40]	; 0x28
    938c:	ebfffedf 	bl	8f10 <chSchReadyI>
    9390:	e5940028 	ldr	r0, [r4, #40]	; 0x28
    9394:	e1500005 	cmp	r0, r5
    9398:	1afffff9 	bne	9384 <chThdExitS+0x24>
    939c:	e5d4301d 	ldrb	r3, [r4, #29]
    93a0:	e3a0000e 	mov	r0, #14
    93a4:	e3130003 	tst	r3, #3
    93a8:	05942014 	ldreq	r2, [r4, #20]
    93ac:	05943010 	ldreq	r3, [r4, #16]
    93b0:	e8bd4070 	pop	{r4, r5, r6, lr}
    93b4:	05823010 	streq	r3, [r2, #16]
    93b8:	05832014 	streq	r2, [r3, #20]
    93bc:	eafffee3 	b	8f50 <chSchGoSleepS>
    93c0:	0000b388 	andeq	fp, r0, r8, lsl #7
	...

000093d0 <chThdExit>:
    93d0:	e321f09f 	msr	CPSR_c, #159	; 0x9f
    93d4:	eaffffe1 	b	9360 <chThdExitS>
	...

000093e0 <chThdWait>:
    93e0:	e92d4070 	push	{r4, r5, r6, lr}
    93e4:	e1a04000 	mov	r4, r0
    93e8:	e321f09f 	msr	CPSR_c, #159	; 0x9f
    93ec:	e5d0301c 	ldrb	r3, [r0, #28]
    93f0:	e353000e 	cmp	r3, #14
    93f4:	0a000006 	beq	9414 <chThdWait+0x34>
    93f8:	e59f302c 	ldr	r3, [pc, #44]	; 942c <chThdWait+0x4c>
    93fc:	e5902028 	ldr	r2, [r0, #40]	; 0x28
    9400:	e5933018 	ldr	r3, [r3, #24]
    9404:	e3a00007 	mov	r0, #7
    9408:	e5832000 	str	r2, [r3]
    940c:	e5843028 	str	r3, [r4, #40]	; 0x28
    9410:	ebfffece 	bl	8f50 <chSchGoSleepS>
    9414:	e5945024 	ldr	r5, [r4, #36]	; 0x24
    9418:	e321f01f 	msr	CPSR_c, #31
    941c:	e1a00004 	mov	r0, r4
    9420:	eb000002 	bl	9430 <chThdRelease>
    9424:	e1a00005 	mov	r0, r5
    9428:	e8bd8070 	pop	{r4, r5, r6, pc}
    942c:	0000b388 	andeq	fp, r0, r8, lsl #7

00009430 <chThdRelease>:
    9430:	e321f09f 	msr	CPSR_c, #159	; 0x9f
    9434:	e5d0301e 	ldrb	r3, [r0, #30]
    9438:	e2433001 	sub	r3, r3, #1
    943c:	e6ef3073 	uxtb	r3, r3
    9440:	e5c0301e 	strb	r3, [r0, #30]
    9444:	e321f01f 	msr	CPSR_c, #31
    9448:	e3530000 	cmp	r3, #0
    944c:	112fff1e 	bxne	lr
    9450:	e5d0301c 	ldrb	r3, [r0, #28]
    9454:	e353000e 	cmp	r3, #14
    9458:	112fff1e 	bxne	lr
    945c:	e5d0301d 	ldrb	r3, [r0, #29]
    9460:	e2033003 	and	r3, r3, #3
    9464:	e3530001 	cmp	r3, #1
    9468:	112fff1e 	bxne	lr
    946c:	e5901014 	ldr	r1, [r0, #20]
    9470:	e5903010 	ldr	r3, [r0, #16]
    9474:	e5813010 	str	r3, [r1, #16]
    9478:	e5831014 	str	r1, [r3, #20]
    947c:	ea0001fb 	b	9c70 <chHeapFree>

00009480 <chMtxInit>:
    9480:	e3a03000 	mov	r3, #0
    9484:	e5800004 	str	r0, [r0, #4]
    9488:	e5800000 	str	r0, [r0]
    948c:	e5803008 	str	r3, [r0, #8]
    9490:	e12fff1e 	bx	lr
	...

000094a0 <chMtxLockS>:
    94a0:	e92d4070 	push	{r4, r5, r6, lr}
    94a4:	e1a05000 	mov	r5, r0
    94a8:	e5900008 	ldr	r0, [r0, #8]
    94ac:	e59f3164 	ldr	r3, [pc, #356]	; 9618 <chMtxLockS+0x178>
    94b0:	e3500000 	cmp	r0, #0
    94b4:	e5934018 	ldr	r4, [r3, #24]
    94b8:	0a00001e 	beq	9538 <chMtxLockS+0x98>
    94bc:	e5942008 	ldr	r2, [r4, #8]
    94c0:	e5903008 	ldr	r3, [r0, #8]
    94c4:	e1530002 	cmp	r3, r2
    94c8:	2a000007 	bcs	94ec <chMtxLockS+0x4c>
    94cc:	e5d0301c 	ldrb	r3, [r0, #28]
    94d0:	e5802008 	str	r2, [r0, #8]
    94d4:	e3530004 	cmp	r3, #4
    94d8:	0a000035 	beq	95b4 <chMtxLockS+0x114>
    94dc:	e3530005 	cmp	r3, #5
    94e0:	0a00001f 	beq	9564 <chMtxLockS+0xc4>
    94e4:	e3530000 	cmp	r3, #0
    94e8:	0a000017 	beq	954c <chMtxLockS+0xac>
    94ec:	e1a03005 	mov	r3, r5
    94f0:	ea000003 	b	9504 <chMtxLockS+0x64>
    94f4:	e5931008 	ldr	r1, [r3, #8]
    94f8:	e5942008 	ldr	r2, [r4, #8]
    94fc:	e1510002 	cmp	r1, r2
    9500:	3a000002 	bcc	9510 <chMtxLockS+0x70>
    9504:	e5933000 	ldr	r3, [r3]
    9508:	e1550003 	cmp	r5, r3
    950c:	1afffff8 	bne	94f4 <chMtxLockS+0x54>
    9510:	e5932004 	ldr	r2, [r3, #4]
    9514:	e5843000 	str	r3, [r4]
    9518:	e5842004 	str	r2, [r4, #4]
    951c:	e5834004 	str	r4, [r3, #4]
    9520:	e5943004 	ldr	r3, [r4, #4]
    9524:	e3a00004 	mov	r0, #4
    9528:	e5834000 	str	r4, [r3]
    952c:	e5845024 	str	r5, [r4, #36]	; 0x24
    9530:	e8bd4070 	pop	{r4, r5, r6, lr}
    9534:	eafffe85 	b	8f50 <chSchGoSleepS>
    9538:	e594303c 	ldr	r3, [r4, #60]	; 0x3c
    953c:	e5854008 	str	r4, [r5, #8]
    9540:	e585300c 	str	r3, [r5, #12]
    9544:	e584503c 	str	r5, [r4, #60]	; 0x3c
    9548:	e8bd8070 	pop	{r4, r5, r6, pc}
    954c:	e5902004 	ldr	r2, [r0, #4]
    9550:	e5903000 	ldr	r3, [r0]
    9554:	e5823000 	str	r3, [r2]
    9558:	e5832004 	str	r2, [r3, #4]
    955c:	ebfffe6b 	bl	8f10 <chSchReadyI>
    9560:	eaffffe1 	b	94ec <chMtxLockS+0x4c>
    9564:	e590c024 	ldr	ip, [r0, #36]	; 0x24
    9568:	e590e004 	ldr	lr, [r0, #4]
    956c:	e5901000 	ldr	r1, [r0]
    9570:	e1a0300c 	mov	r3, ip
    9574:	e58e1000 	str	r1, [lr]
    9578:	e581e004 	str	lr, [r1, #4]
    957c:	ea000002 	b	958c <chMtxLockS+0xec>
    9580:	e5931008 	ldr	r1, [r3, #8]
    9584:	e1520001 	cmp	r2, r1
    9588:	8a000002 	bhi	9598 <chMtxLockS+0xf8>
    958c:	e5933000 	ldr	r3, [r3]
    9590:	e15c0003 	cmp	ip, r3
    9594:	1afffff9 	bne	9580 <chMtxLockS+0xe0>
    9598:	e5932004 	ldr	r2, [r3, #4]
    959c:	e5803000 	str	r3, [r0]
    95a0:	e5802004 	str	r2, [r0, #4]
    95a4:	e5830004 	str	r0, [r3, #4]
    95a8:	e5903004 	ldr	r3, [r0, #4]
    95ac:	e5830000 	str	r0, [r3]
    95b0:	eaffffcd 	b	94ec <chMtxLockS+0x4c>
    95b4:	e590c024 	ldr	ip, [r0, #36]	; 0x24
    95b8:	e590e004 	ldr	lr, [r0, #4]
    95bc:	e5901000 	ldr	r1, [r0]
    95c0:	e1a0300c 	mov	r3, ip
    95c4:	e58e1000 	str	r1, [lr]
    95c8:	e581e004 	str	lr, [r1, #4]
    95cc:	ea000002 	b	95dc <chMtxLockS+0x13c>
    95d0:	e5931008 	ldr	r1, [r3, #8]
    95d4:	e1520001 	cmp	r2, r1
    95d8:	8a000002 	bhi	95e8 <chMtxLockS+0x148>
    95dc:	e5933000 	ldr	r3, [r3]
    95e0:	e15c0003 	cmp	ip, r3
    95e4:	1afffff9 	bne	95d0 <chMtxLockS+0x130>
    95e8:	e5932004 	ldr	r2, [r3, #4]
    95ec:	e5803000 	str	r3, [r0]
    95f0:	e5802004 	str	r2, [r0, #4]
    95f4:	e5830004 	str	r0, [r3, #4]
    95f8:	e5903004 	ldr	r3, [r0, #4]
    95fc:	e5942008 	ldr	r2, [r4, #8]
    9600:	e5830000 	str	r0, [r3]
    9604:	e59c0008 	ldr	r0, [ip, #8]
    9608:	e5903008 	ldr	r3, [r0, #8]
    960c:	e1530002 	cmp	r3, r2
    9610:	3affffad 	bcc	94cc <chMtxLockS+0x2c>
    9614:	eaffffb4 	b	94ec <chMtxLockS+0x4c>
    9618:	0000b388 	andeq	fp, r0, r8, lsl #7
    961c:	00000000 	andeq	r0, r0, r0

00009620 <chMtxLock>:
    9620:	e92d4010 	push	{r4, lr}
    9624:	e321f09f 	msr	CPSR_c, #159	; 0x9f
    9628:	ebffff9c 	bl	94a0 <chMtxLockS>
    962c:	e321f01f 	msr	CPSR_c, #31
    9630:	e8bd8010 	pop	{r4, pc}
	...

00009640 <chMtxUnlock>:
    9640:	e59f3090 	ldr	r3, [pc, #144]	; 96d8 <chMtxUnlock+0x98>
    9644:	e92d4010 	push	{r4, lr}
    9648:	e593c018 	ldr	ip, [r3, #24]
    964c:	e321f09f 	msr	CPSR_c, #159	; 0x9f
    9650:	e59c403c 	ldr	r4, [ip, #60]	; 0x3c
    9654:	e5940000 	ldr	r0, [r4]
    9658:	e594300c 	ldr	r3, [r4, #12]
    965c:	e1500004 	cmp	r0, r4
    9660:	e58c303c 	str	r3, [ip, #60]	; 0x3c
    9664:	0a000018 	beq	96cc <chMtxUnlock+0x8c>
    9668:	e3530000 	cmp	r3, #0
    966c:	e59c1040 	ldr	r1, [ip, #64]	; 0x40
    9670:	0a000008 	beq	9698 <chMtxUnlock+0x58>
    9674:	e5932000 	ldr	r2, [r3]
    9678:	e1520003 	cmp	r2, r3
    967c:	0a000002 	beq	968c <chMtxUnlock+0x4c>
    9680:	e5922008 	ldr	r2, [r2, #8]
    9684:	e1510002 	cmp	r1, r2
    9688:	31a01002 	movcc	r1, r2
    968c:	e593300c 	ldr	r3, [r3, #12]
    9690:	e3530000 	cmp	r3, #0
    9694:	1afffff6 	bne	9674 <chMtxUnlock+0x34>
    9698:	e590203c 	ldr	r2, [r0, #60]	; 0x3c
    969c:	e5903000 	ldr	r3, [r0]
    96a0:	e58c1008 	str	r1, [ip, #8]
    96a4:	e5843000 	str	r3, [r4]
    96a8:	e3a01000 	mov	r1, #0
    96ac:	e5834004 	str	r4, [r3, #4]
    96b0:	e5840008 	str	r0, [r4, #8]
    96b4:	e584200c 	str	r2, [r4, #12]
    96b8:	e580403c 	str	r4, [r0, #60]	; 0x3c
    96bc:	ebfffe57 	bl	9020 <chSchWakeupS>
    96c0:	e321f01f 	msr	CPSR_c, #31
    96c4:	e1a00004 	mov	r0, r4
    96c8:	e8bd8010 	pop	{r4, pc}
    96cc:	e3a03000 	mov	r3, #0
    96d0:	e5843008 	str	r3, [r4, #8]
    96d4:	eafffff9 	b	96c0 <chMtxUnlock+0x80>
    96d8:	0000b388 	andeq	fp, r0, r8, lsl #7
    96dc:	00000000 	andeq	r0, r0, r0

000096e0 <chEvtSignalI>:
    96e0:	e5902038 	ldr	r2, [r0, #56]	; 0x38
    96e4:	e5d0301c 	ldrb	r3, [r0, #28]
    96e8:	e1811002 	orr	r1, r1, r2
    96ec:	e3530008 	cmp	r3, #8
    96f0:	e5801038 	str	r1, [r0, #56]	; 0x38
    96f4:	0a000009 	beq	9720 <chEvtSignalI+0x40>
    96f8:	e3530009 	cmp	r3, #9
    96fc:	112fff1e 	bxne	lr
    9700:	e5903024 	ldr	r3, [r0, #36]	; 0x24
    9704:	e1d33001 	bics	r3, r3, r1
    9708:	112fff1e 	bxne	lr
    970c:	e92d4010 	push	{r4, lr}
    9710:	ebfffdfe 	bl	8f10 <chSchReadyI>
    9714:	e3a03000 	mov	r3, #0
    9718:	e5803024 	str	r3, [r0, #36]	; 0x24
    971c:	e8bd8010 	pop	{r4, pc}
    9720:	e5903024 	ldr	r3, [r0, #36]	; 0x24
    9724:	e1110003 	tst	r1, r3
    9728:	012fff1e 	bxeq	lr
    972c:	eafffff6 	b	970c <chEvtSignalI+0x2c>

00009730 <chEvtBroadcastFlagsI>:
    9730:	e92d4070 	push	{r4, r5, r6, lr}
    9734:	e5904000 	ldr	r4, [r0]
    9738:	e1500004 	cmp	r0, r4
    973c:	08bd8070 	popeq	{r4, r5, r6, pc}
    9740:	e1a05000 	mov	r5, r0
    9744:	e1a06001 	mov	r6, r1
    9748:	e594300c 	ldr	r3, [r4, #12]
    974c:	e5941008 	ldr	r1, [r4, #8]
    9750:	e1833006 	orr	r3, r3, r6
    9754:	e5940004 	ldr	r0, [r4, #4]
    9758:	e584300c 	str	r3, [r4, #12]
    975c:	ebffffdf 	bl	96e0 <chEvtSignalI>
    9760:	e5944000 	ldr	r4, [r4]
    9764:	e1550004 	cmp	r5, r4
    9768:	1afffff6 	bne	9748 <chEvtBroadcastFlagsI+0x18>
    976c:	e8bd8070 	pop	{r4, r5, r6, pc}

00009770 <qwait>:
    9770:	e3510000 	cmp	r1, #0
    9774:	e1a03000 	mov	r3, r0
    9778:	0a000008 	beq	97a0 <qwait+0x30>
    977c:	e59f2024 	ldr	r2, [pc, #36]	; 97a8 <qwait+0x38>
    9780:	e590c004 	ldr	ip, [r0, #4]
    9784:	e5922018 	ldr	r2, [r2, #24]
    9788:	e3a0000d 	mov	r0, #13
    978c:	e8821008 	stm	r2, {r3, ip}
    9790:	e5823024 	str	r3, [r2, #36]	; 0x24
    9794:	e5832004 	str	r2, [r3, #4]
    9798:	e58c2000 	str	r2, [ip]
    979c:	eafffdff 	b	8fa0 <chSchGoSleepTimeoutS>
    97a0:	e3e00000 	mvn	r0, #0
    97a4:	e12fff1e 	bx	lr
    97a8:	0000b388 	andeq	fp, r0, r8, lsl #7
    97ac:	00000000 	andeq	r0, r0, r0

000097b0 <chIQInit>:
    97b0:	e52de004 	push	{lr}		; (str lr, [sp, #-4]!)
    97b4:	e3a0e000 	mov	lr, #0
    97b8:	e59dc004 	ldr	ip, [sp, #4]
    97bc:	e0812002 	add	r2, r1, r2
    97c0:	e5800004 	str	r0, [r0, #4]
    97c4:	e5800000 	str	r0, [r0]
    97c8:	e5801014 	str	r1, [r0, #20]
    97cc:	e5801018 	str	r1, [r0, #24]
    97d0:	e580100c 	str	r1, [r0, #12]
    97d4:	e5802010 	str	r2, [r0, #16]
    97d8:	e580301c 	str	r3, [r0, #28]
    97dc:	e580e008 	str	lr, [r0, #8]
    97e0:	e580c020 	str	ip, [r0, #32]
    97e4:	e49df004 	pop	{pc}		; (ldr pc, [sp], #4)
	...

000097f0 <chIQPutI>:
    97f0:	e1a03000 	mov	r3, r0
    97f4:	e5900014 	ldr	r0, [r0, #20]
    97f8:	e5932018 	ldr	r2, [r3, #24]
    97fc:	e1500002 	cmp	r0, r2
    9800:	e5932008 	ldr	r2, [r3, #8]
    9804:	0a000018 	beq	986c <chIQPutI+0x7c>
    9808:	e2822001 	add	r2, r2, #1
    980c:	e280c001 	add	ip, r0, #1
    9810:	e583c014 	str	ip, [r3, #20]
    9814:	e5832008 	str	r2, [r3, #8]
    9818:	e5c01000 	strb	r1, [r0]
    981c:	e5932010 	ldr	r2, [r3, #16]
    9820:	e5931014 	ldr	r1, [r3, #20]
    9824:	e5930000 	ldr	r0, [r3]
    9828:	e1510002 	cmp	r1, r2
    982c:	2593200c 	ldrcs	r2, [r3, #12]
    9830:	25832014 	strcs	r2, [r3, #20]
    9834:	e1500003 	cmp	r0, r3
    9838:	0a000009 	beq	9864 <chIQPutI+0x74>
    983c:	e5902000 	ldr	r2, [r0]
    9840:	e92d4010 	push	{r4, lr}
    9844:	e5832000 	str	r2, [r3]
    9848:	e5823004 	str	r3, [r2, #4]
    984c:	ebfffdaf 	bl	8f10 <chSchReadyI>
    9850:	e3a02000 	mov	r2, #0
    9854:	e1a03000 	mov	r3, r0
    9858:	e1a00002 	mov	r0, r2
    985c:	e5832024 	str	r2, [r3, #36]	; 0x24
    9860:	e8bd8010 	pop	{r4, pc}
    9864:	e3a00000 	mov	r0, #0
    9868:	e12fff1e 	bx	lr
    986c:	e3520000 	cmp	r2, #0
    9870:	0affffe4 	beq	9808 <chIQPutI+0x18>
    9874:	e3e00003 	mvn	r0, #3
    9878:	e12fff1e 	bx	lr
    987c:	00000000 	andeq	r0, r0, r0

00009880 <chIQGetTimeout>:
    9880:	e92d4070 	push	{r4, r5, r6, lr}
    9884:	e1a05001 	mov	r5, r1
    9888:	e1a04000 	mov	r4, r0
    988c:	e321f09f 	msr	CPSR_c, #159	; 0x9f
    9890:	e590301c 	ldr	r3, [r0, #28]
    9894:	e3530000 	cmp	r3, #0
    9898:	0a000006 	beq	98b8 <chIQGetTimeout+0x38>
    989c:	e12fff33 	blx	r3
    98a0:	ea000004 	b	98b8 <chIQGetTimeout+0x38>
    98a4:	e1a01005 	mov	r1, r5
    98a8:	e1a00004 	mov	r0, r4
    98ac:	ebffffaf 	bl	9770 <qwait>
    98b0:	e3500000 	cmp	r0, #0
    98b4:	ba00000c 	blt	98ec <chIQGetTimeout+0x6c>
    98b8:	e5943008 	ldr	r3, [r4, #8]
    98bc:	e3530000 	cmp	r3, #0
    98c0:	0afffff7 	beq	98a4 <chIQGetTimeout+0x24>
    98c4:	e5942018 	ldr	r2, [r4, #24]
    98c8:	e5940010 	ldr	r0, [r4, #16]
    98cc:	e2821001 	add	r1, r2, #1
    98d0:	e2433001 	sub	r3, r3, #1
    98d4:	e1510000 	cmp	r1, r0
    98d8:	e5843008 	str	r3, [r4, #8]
    98dc:	2594300c 	ldrcs	r3, [r4, #12]
    98e0:	e5841018 	str	r1, [r4, #24]
    98e4:	e5d20000 	ldrb	r0, [r2]
    98e8:	25843018 	strcs	r3, [r4, #24]
    98ec:	e321f01f 	msr	CPSR_c, #31
    98f0:	e8bd8070 	pop	{r4, r5, r6, pc}
	...

00009900 <chIQReadTimeout>:
    9900:	e92d47f0 	push	{r4, r5, r6, r7, r8, r9, sl, lr}
    9904:	e1a04000 	mov	r4, r0
    9908:	e1a07001 	mov	r7, r1
    990c:	e1a09002 	mov	r9, r2
    9910:	e1a05003 	mov	r5, r3
    9914:	e590801c 	ldr	r8, [r0, #28]
    9918:	e321f09f 	msr	CPSR_c, #159	; 0x9f
    991c:	e3a06000 	mov	r6, #0
    9920:	e3580000 	cmp	r8, #0
    9924:	0a000007 	beq	9948 <chIQReadTimeout+0x48>
    9928:	e1a00004 	mov	r0, r4
    992c:	e12fff38 	blx	r8
    9930:	ea000004 	b	9948 <chIQReadTimeout+0x48>
    9934:	e1a01005 	mov	r1, r5
    9938:	e1a00004 	mov	r0, r4
    993c:	ebffff8b 	bl	9770 <qwait>
    9940:	e3500000 	cmp	r0, #0
    9944:	1a000014 	bne	999c <chIQReadTimeout+0x9c>
    9948:	e5940008 	ldr	r0, [r4, #8]
    994c:	e3500000 	cmp	r0, #0
    9950:	0afffff7 	beq	9934 <chIQReadTimeout+0x34>
    9954:	e5943018 	ldr	r3, [r4, #24]
    9958:	e2400001 	sub	r0, r0, #1
    995c:	e2832001 	add	r2, r3, #1
    9960:	e5842018 	str	r2, [r4, #24]
    9964:	e5840008 	str	r0, [r4, #8]
    9968:	e5d33000 	ldrb	r3, [r3]
    996c:	e4c73001 	strb	r3, [r7], #1
    9970:	e5943010 	ldr	r3, [r4, #16]
    9974:	e5942018 	ldr	r2, [r4, #24]
    9978:	e1520003 	cmp	r2, r3
    997c:	2594300c 	ldrcs	r3, [r4, #12]
    9980:	25843018 	strcs	r3, [r4, #24]
    9984:	e321f01f 	msr	CPSR_c, #31
    9988:	e2866001 	add	r6, r6, #1
    998c:	e1590006 	cmp	r9, r6
    9990:	0a000002 	beq	99a0 <chIQReadTimeout+0xa0>
    9994:	e321f09f 	msr	CPSR_c, #159	; 0x9f
    9998:	eaffffe0 	b	9920 <chIQReadTimeout+0x20>
    999c:	e321f01f 	msr	CPSR_c, #31
    99a0:	e1a00006 	mov	r0, r6
    99a4:	e8bd87f0 	pop	{r4, r5, r6, r7, r8, r9, sl, pc}
	...

000099b0 <chOQInit>:
    99b0:	e52de004 	push	{lr}		; (str lr, [sp, #-4]!)
    99b4:	e59dc004 	ldr	ip, [sp, #4]
    99b8:	e081e002 	add	lr, r1, r2
    99bc:	e5800004 	str	r0, [r0, #4]
    99c0:	e5800000 	str	r0, [r0]
    99c4:	e5802008 	str	r2, [r0, #8]
    99c8:	e580e010 	str	lr, [r0, #16]
    99cc:	e5801014 	str	r1, [r0, #20]
    99d0:	e5801018 	str	r1, [r0, #24]
    99d4:	e580100c 	str	r1, [r0, #12]
    99d8:	e580301c 	str	r3, [r0, #28]
    99dc:	e580c020 	str	ip, [r0, #32]
    99e0:	e49df004 	pop	{pc}		; (ldr pc, [sp], #4)
	...

000099f0 <chOQPutTimeout>:
    99f0:	e92d4070 	push	{r4, r5, r6, lr}
    99f4:	e1a04000 	mov	r4, r0
    99f8:	e1a06001 	mov	r6, r1
    99fc:	e1a05002 	mov	r5, r2
    9a00:	e321f09f 	msr	CPSR_c, #159	; 0x9f
    9a04:	ea000004 	b	9a1c <chOQPutTimeout+0x2c>
    9a08:	e1a01005 	mov	r1, r5
    9a0c:	e1a00004 	mov	r0, r4
    9a10:	ebffff56 	bl	9770 <qwait>
    9a14:	e3500000 	cmp	r0, #0
    9a18:	ba000015 	blt	9a74 <chOQPutTimeout+0x84>
    9a1c:	e5943008 	ldr	r3, [r4, #8]
    9a20:	e3530000 	cmp	r3, #0
    9a24:	0afffff7 	beq	9a08 <chOQPutTimeout+0x18>
    9a28:	e5942014 	ldr	r2, [r4, #20]
    9a2c:	e2433001 	sub	r3, r3, #1
    9a30:	e2821001 	add	r1, r2, #1
    9a34:	e5841014 	str	r1, [r4, #20]
    9a38:	e5843008 	str	r3, [r4, #8]
    9a3c:	e5c26000 	strb	r6, [r2]
    9a40:	e5943010 	ldr	r3, [r4, #16]
    9a44:	e5942014 	ldr	r2, [r4, #20]
    9a48:	e1520003 	cmp	r2, r3
    9a4c:	2594300c 	ldrcs	r3, [r4, #12]
    9a50:	25843014 	strcs	r3, [r4, #20]
    9a54:	e594301c 	ldr	r3, [r4, #28]
    9a58:	e3530000 	cmp	r3, #0
    9a5c:	0a000001 	beq	9a68 <chOQPutTimeout+0x78>
    9a60:	e1a00004 	mov	r0, r4
    9a64:	e12fff33 	blx	r3
    9a68:	e321f01f 	msr	CPSR_c, #31
    9a6c:	e3a00000 	mov	r0, #0
    9a70:	e8bd8070 	pop	{r4, r5, r6, pc}
    9a74:	e321f01f 	msr	CPSR_c, #31
    9a78:	e8bd8070 	pop	{r4, r5, r6, pc}
    9a7c:	00000000 	andeq	r0, r0, r0

00009a80 <chOQGetI>:
    9a80:	e5902014 	ldr	r2, [r0, #20]
    9a84:	e5901018 	ldr	r1, [r0, #24]
    9a88:	e1a03000 	mov	r3, r0
    9a8c:	e1520001 	cmp	r2, r1
    9a90:	e5902008 	ldr	r2, [r0, #8]
    9a94:	0a000014 	beq	9aec <chOQGetI+0x6c>
    9a98:	e92d4010 	push	{r4, lr}
    9a9c:	e593c010 	ldr	ip, [r3, #16]
    9aa0:	e2810001 	add	r0, r1, #1
    9aa4:	e150000c 	cmp	r0, ip
    9aa8:	e2822001 	add	r2, r2, #1
    9aac:	e5830018 	str	r0, [r3, #24]
    9ab0:	e5832008 	str	r2, [r3, #8]
    9ab4:	e5930000 	ldr	r0, [r3]
    9ab8:	2593200c 	ldrcs	r2, [r3, #12]
    9abc:	e5d14000 	ldrb	r4, [r1]
    9ac0:	25832018 	strcs	r2, [r3, #24]
    9ac4:	e1500003 	cmp	r0, r3
    9ac8:	0a000005 	beq	9ae4 <chOQGetI+0x64>
    9acc:	e5902000 	ldr	r2, [r0]
    9ad0:	e5832000 	str	r2, [r3]
    9ad4:	e5823004 	str	r3, [r2, #4]
    9ad8:	ebfffd0c 	bl	8f10 <chSchReadyI>
    9adc:	e3a03000 	mov	r3, #0
    9ae0:	e5803024 	str	r3, [r0, #36]	; 0x24
    9ae4:	e1a00004 	mov	r0, r4
    9ae8:	e8bd8010 	pop	{r4, pc}
    9aec:	e3520000 	cmp	r2, #0
    9af0:	0affffe8 	beq	9a98 <chOQGetI+0x18>
    9af4:	e3e00002 	mvn	r0, #2
    9af8:	e12fff1e 	bx	lr
    9afc:	00000000 	andeq	r0, r0, r0

00009b00 <chOQWriteTimeout>:
    9b00:	e92d47f0 	push	{r4, r5, r6, r7, r8, r9, sl, lr}
    9b04:	e1a04000 	mov	r4, r0
    9b08:	e1a05001 	mov	r5, r1
    9b0c:	e1a06002 	mov	r6, r2
    9b10:	e1a09003 	mov	r9, r3
    9b14:	e590801c 	ldr	r8, [r0, #28]
    9b18:	e321f09f 	msr	CPSR_c, #159	; 0x9f
    9b1c:	e3a07000 	mov	r7, #0
    9b20:	e5940008 	ldr	r0, [r4, #8]
    9b24:	e3500000 	cmp	r0, #0
    9b28:	e2403001 	sub	r3, r0, #1
    9b2c:	0a000017 	beq	9b90 <chOQWriteTimeout+0x90>
    9b30:	e5942014 	ldr	r2, [r4, #20]
    9b34:	e5843008 	str	r3, [r4, #8]
    9b38:	e2823001 	add	r3, r2, #1
    9b3c:	e5843014 	str	r3, [r4, #20]
    9b40:	e4d53001 	ldrb	r3, [r5], #1
    9b44:	e5c23000 	strb	r3, [r2]
    9b48:	e5943010 	ldr	r3, [r4, #16]
    9b4c:	e5942014 	ldr	r2, [r4, #20]
    9b50:	e1520003 	cmp	r2, r3
    9b54:	2594300c 	ldrcs	r3, [r4, #12]
    9b58:	25843014 	strcs	r3, [r4, #20]
    9b5c:	e3580000 	cmp	r8, #0
    9b60:	0a000001 	beq	9b6c <chOQWriteTimeout+0x6c>
    9b64:	e1a00004 	mov	r0, r4
    9b68:	e12fff38 	blx	r8
    9b6c:	e321f01f 	msr	CPSR_c, #31
    9b70:	e2566001 	subs	r6, r6, #1
    9b74:	e2877001 	add	r7, r7, #1
    9b78:	0a00000a 	beq	9ba8 <chOQWriteTimeout+0xa8>
    9b7c:	e321f09f 	msr	CPSR_c, #159	; 0x9f
    9b80:	e5940008 	ldr	r0, [r4, #8]
    9b84:	e3500000 	cmp	r0, #0
    9b88:	e2403001 	sub	r3, r0, #1
    9b8c:	1affffe7 	bne	9b30 <chOQWriteTimeout+0x30>
    9b90:	e1a01009 	mov	r1, r9
    9b94:	e1a00004 	mov	r0, r4
    9b98:	ebfffef4 	bl	9770 <qwait>
    9b9c:	e3500000 	cmp	r0, #0
    9ba0:	0affffde 	beq	9b20 <chOQWriteTimeout+0x20>
    9ba4:	e321f01f 	msr	CPSR_c, #31
    9ba8:	e1a00007 	mov	r0, r7
    9bac:	e8bd87f0 	pop	{r4, r5, r6, r7, r8, r9, sl, pc}

00009bb0 <_core_init>:
    9bb0:	e59f201c 	ldr	r2, [pc, #28]	; 9bd4 <_core_init+0x24>
    9bb4:	e59f301c 	ldr	r3, [pc, #28]	; 9bd8 <_core_init+0x28>
    9bb8:	e59f001c 	ldr	r0, [pc, #28]	; 9bdc <_core_init+0x2c>
    9bbc:	e59f101c 	ldr	r1, [pc, #28]	; 9be0 <_core_init+0x30>
    9bc0:	e3c22003 	bic	r2, r2, #3
    9bc4:	e3c33003 	bic	r3, r3, #3
    9bc8:	e5802000 	str	r2, [r0]
    9bcc:	e5813000 	str	r3, [r1]
    9bd0:	e12fff1e 	bx	lr
    9bd4:	0000b4f3 	strdeq	fp, [r0], -r3
    9bd8:	06007b44 	streq	r7, [r0], -r4, asr #22
    9bdc:	0000b1a0 	andeq	fp, r0, r0, lsr #3
    9be0:	0000b19c 	muleq	r0, ip, r1
	...

00009bf0 <chCoreAlloc>:
    9bf0:	e1a03000 	mov	r3, r0
    9bf4:	e321f09f 	msr	CPSR_c, #159	; 0x9f
    9bf8:	e59f102c 	ldr	r1, [pc, #44]	; 9c2c <chCoreAlloc+0x3c>
    9bfc:	e59f202c 	ldr	r2, [pc, #44]	; 9c30 <chCoreAlloc+0x40>
    9c00:	e5910000 	ldr	r0, [r1]
    9c04:	e5922000 	ldr	r2, [r2]
    9c08:	e2833003 	add	r3, r3, #3
    9c0c:	e3c33003 	bic	r3, r3, #3
    9c10:	e0422000 	sub	r2, r2, r0
    9c14:	e1530002 	cmp	r3, r2
    9c18:	90803003 	addls	r3, r0, r3
    9c1c:	83a00000 	movhi	r0, #0
    9c20:	95813000 	strls	r3, [r1]
    9c24:	e321f01f 	msr	CPSR_c, #31
    9c28:	e12fff1e 	bx	lr
    9c2c:	0000b1a0 	andeq	fp, r0, r0, lsr #3
    9c30:	0000b19c 	muleq	r0, ip, r1
	...

00009c40 <_heap_init>:
    9c40:	e3a02000 	mov	r2, #0
    9c44:	e59f3014 	ldr	r3, [pc, #20]	; 9c60 <_heap_init+0x20>
    9c48:	e59f1014 	ldr	r1, [pc, #20]	; 9c64 <_heap_init+0x24>
    9c4c:	e283000c 	add	r0, r3, #12
    9c50:	e5832004 	str	r2, [r3, #4]
    9c54:	e5832008 	str	r2, [r3, #8]
    9c58:	e5831000 	str	r1, [r3]
    9c5c:	eafffe07 	b	9480 <chMtxInit>
    9c60:	0000b1a4 	andeq	fp, r0, r4, lsr #3
    9c64:	00009bf0 	strdeq	r9, [r0], -r0
	...

00009c70 <chHeapFree>:
    9c70:	e92d4070 	push	{r4, r5, r6, lr}
    9c74:	e1a06000 	mov	r6, r0
    9c78:	e5100008 	ldr	r0, [r0, #-8]
    9c7c:	e2464008 	sub	r4, r6, #8
    9c80:	e2805004 	add	r5, r0, #4
    9c84:	e280000c 	add	r0, r0, #12
    9c88:	ebfffe64 	bl	9620 <chMtxLock>
    9c8c:	e1a03005 	mov	r3, r5
    9c90:	ea000002 	b	9ca0 <chHeapFree+0x30>
    9c94:	e1520004 	cmp	r2, r4
    9c98:	8a00000a 	bhi	9cc8 <chHeapFree+0x58>
    9c9c:	e1a03002 	mov	r3, r2
    9ca0:	e0432005 	sub	r2, r3, r5
    9ca4:	e16f2f12 	clz	r2, r2
    9ca8:	e1a022a2 	lsr	r2, r2, #5
    9cac:	e1530004 	cmp	r3, r4
    9cb0:	33822001 	orrcc	r2, r2, #1
    9cb4:	e3520000 	cmp	r2, #0
    9cb8:	e5932000 	ldr	r2, [r3]
    9cbc:	0afffff6 	beq	9c9c <chHeapFree+0x2c>
    9cc0:	e3520000 	cmp	r2, #0
    9cc4:	1afffff2 	bne	9c94 <chHeapFree+0x24>
    9cc8:	e5062008 	str	r2, [r6, #-8]
    9ccc:	e5162004 	ldr	r2, [r6, #-4]
    9cd0:	e5834000 	str	r4, [r3]
    9cd4:	e5161008 	ldr	r1, [r6, #-8]
    9cd8:	e0860002 	add	r0, r6, r2
    9cdc:	e1510000 	cmp	r1, r0
    9ce0:	05910004 	ldreq	r0, [r1, #4]
    9ce4:	02822008 	addeq	r2, r2, #8
    9ce8:	05911000 	ldreq	r1, [r1]
    9cec:	00802002 	addeq	r2, r0, r2
    9cf0:	09060006 	stmdbeq	r6, {r1, r2}
    9cf4:	e5931004 	ldr	r1, [r3, #4]
    9cf8:	e2812008 	add	r2, r1, #8
    9cfc:	e0832002 	add	r2, r3, r2
    9d00:	e1540002 	cmp	r4, r2
    9d04:	0a000001 	beq	9d10 <chHeapFree+0xa0>
    9d08:	e8bd4070 	pop	{r4, r5, r6, lr}
    9d0c:	eafffe4b 	b	9640 <chMtxUnlock>
    9d10:	e9160005 	ldmdb	r6, {r0, r2}
    9d14:	e2822008 	add	r2, r2, #8
    9d18:	e0821001 	add	r1, r2, r1
    9d1c:	e1c300f0 	strd	r0, [r3]
    9d20:	e8bd4070 	pop	{r4, r5, r6, lr}
    9d24:	eafffe45 	b	9640 <chMtxUnlock>
	...

00009d30 <halInit>:
    9d30:	e92d4010 	push	{r4, lr}
    9d34:	eb0000d1 	bl	a080 <hal_lld_init>
    9d38:	eb0000a4 	bl	9fd0 <tmInit>
    9d3c:	e59f0014 	ldr	r0, [pc, #20]	; 9d58 <halInit+0x28>
    9d40:	eb0000f2 	bl	a110 <_pal_lld_init>
    9d44:	eb000005 	bl	9d60 <i2cInit>
    9d48:	eb000030 	bl	9e10 <sdInit>
    9d4c:	eb000077 	bl	9f30 <spiInit>
    9d50:	e8bd4010 	pop	{r4, lr}
    9d54:	ea000265 	b	a6f0 <boardInit>
    9d58:	0000b100 	andeq	fp, r0, r0, lsl #2
    9d5c:	00000000 	andeq	r0, r0, r0

00009d60 <i2cInit>:
    9d60:	ea0001d2 	b	a4b0 <i2c_lld_init>
	...

00009d70 <i2cObjectInit>:
    9d70:	e3a02001 	mov	r2, #1
    9d74:	e3a03000 	mov	r3, #0
    9d78:	e5c02000 	strb	r2, [r0]
    9d7c:	e5803004 	str	r3, [r0, #4]
    9d80:	e2800010 	add	r0, r0, #16
    9d84:	eafffdbd 	b	9480 <chMtxInit>
	...

00009d90 <readt>:
    9d90:	e280000c 	add	r0, r0, #12
    9d94:	eafffed9 	b	9900 <chIQReadTimeout>
	...

00009da0 <read>:
    9da0:	e3e03000 	mvn	r3, #0
    9da4:	e280000c 	add	r0, r0, #12
    9da8:	eafffed4 	b	9900 <chIQReadTimeout>
    9dac:	00000000 	andeq	r0, r0, r0

00009db0 <writet>:
    9db0:	e2800030 	add	r0, r0, #48	; 0x30
    9db4:	eaffff51 	b	9b00 <chOQWriteTimeout>
	...

00009dc0 <write>:
    9dc0:	e3e03000 	mvn	r3, #0
    9dc4:	e2800030 	add	r0, r0, #48	; 0x30
    9dc8:	eaffff4c 	b	9b00 <chOQWriteTimeout>
    9dcc:	00000000 	andeq	r0, r0, r0

00009dd0 <gett>:
    9dd0:	e280000c 	add	r0, r0, #12
    9dd4:	eafffea9 	b	9880 <chIQGetTimeout>
	...

00009de0 <get>:
    9de0:	e3e01000 	mvn	r1, #0
    9de4:	e280000c 	add	r0, r0, #12
    9de8:	eafffea4 	b	9880 <chIQGetTimeout>
    9dec:	00000000 	andeq	r0, r0, r0

00009df0 <putt>:
    9df0:	e2800030 	add	r0, r0, #48	; 0x30
    9df4:	eafffefd 	b	99f0 <chOQPutTimeout>
	...

00009e00 <put>:
    9e00:	e3e02000 	mvn	r2, #0
    9e04:	e2800030 	add	r0, r0, #48	; 0x30
    9e08:	eafffef8 	b	99f0 <chOQPutTimeout>
    9e0c:	00000000 	andeq	r0, r0, r0

00009e10 <sdInit>:
    9e10:	ea00011a 	b	a280 <sd_lld_init>
	...

00009e20 <sdObjectInit>:
    9e20:	e92d4030 	push	{r4, r5, lr}
    9e24:	e3a0c001 	mov	ip, #1
    9e28:	e1a04000 	mov	r4, r0
    9e2c:	e1a05002 	mov	r5, r2
    9e30:	e59f2044 	ldr	r2, [pc, #68]	; 9e7c <sdObjectInit+0x5c>
    9e34:	e24dd00c 	sub	sp, sp, #12
    9e38:	e58d0000 	str	r0, [sp]
    9e3c:	e4802004 	str	r2, [r0], #4
    9e40:	e1a03001 	mov	r3, r1
    9e44:	e5840004 	str	r0, [r4, #4]
    9e48:	e5c4c008 	strb	ip, [r4, #8]
    9e4c:	e2841054 	add	r1, r4, #84	; 0x54
    9e50:	e284000c 	add	r0, r4, #12
    9e54:	e3a02010 	mov	r2, #16
    9e58:	ebfffe54 	bl	97b0 <chIQInit>
    9e5c:	e1a03005 	mov	r3, r5
    9e60:	e3a02010 	mov	r2, #16
    9e64:	e58d4000 	str	r4, [sp]
    9e68:	e2841064 	add	r1, r4, #100	; 0x64
    9e6c:	e2840030 	add	r0, r4, #48	; 0x30
    9e70:	ebfffece 	bl	99b0 <chOQInit>
    9e74:	e28dd00c 	add	sp, sp, #12
    9e78:	e8bd8030 	pop	{r4, r5, pc}
    9e7c:	0000b0d0 	ldrdeq	fp, [r0], -r0

00009e80 <sdStart>:
    9e80:	e92d4010 	push	{r4, lr}
    9e84:	e1a04000 	mov	r4, r0
    9e88:	e321f09f 	msr	CPSR_c, #159	; 0x9f
    9e8c:	eb000103 	bl	a2a0 <sd_lld_start>
    9e90:	e3a03002 	mov	r3, #2
    9e94:	e5c43008 	strb	r3, [r4, #8]
    9e98:	e321f01f 	msr	CPSR_c, #31
    9e9c:	e8bd8010 	pop	{r4, pc}

00009ea0 <sdIncomingDataI>:
    9ea0:	e5903014 	ldr	r3, [r0, #20]
    9ea4:	e92d4070 	push	{r4, r5, r6, lr}
    9ea8:	e3530000 	cmp	r3, #0
    9eac:	e1a04000 	mov	r4, r0
    9eb0:	e1a05001 	mov	r5, r1
    9eb4:	0a000008 	beq	9edc <sdIncomingDataI+0x3c>
    9eb8:	e1a01005 	mov	r1, r5
    9ebc:	e284000c 	add	r0, r4, #12
    9ec0:	ebfffe4a 	bl	97f0 <chIQPutI>
    9ec4:	e3500000 	cmp	r0, #0
    9ec8:	a8bd8070 	popge	{r4, r5, r6, pc}
    9ecc:	e2840004 	add	r0, r4, #4
    9ed0:	e3a01080 	mov	r1, #128	; 0x80
    9ed4:	e8bd4070 	pop	{r4, r5, r6, lr}
    9ed8:	eafffe14 	b	9730 <chEvtBroadcastFlagsI>
    9edc:	e3a01004 	mov	r1, #4
    9ee0:	e0800001 	add	r0, r0, r1
    9ee4:	ebfffe11 	bl	9730 <chEvtBroadcastFlagsI>
    9ee8:	eafffff2 	b	9eb8 <sdIncomingDataI+0x18>
    9eec:	00000000 	andeq	r0, r0, r0

00009ef0 <sdRequestDataI>:
    9ef0:	e92d4070 	push	{r4, r5, r6, lr}
    9ef4:	e1a05000 	mov	r5, r0
    9ef8:	e2800030 	add	r0, r0, #48	; 0x30
    9efc:	ebfffedf 	bl	9a80 <chOQGetI>
    9f00:	e2504000 	subs	r4, r0, #0
    9f04:	ba000001 	blt	9f10 <sdRequestDataI+0x20>
    9f08:	e1a00004 	mov	r0, r4
    9f0c:	e8bd8070 	pop	{r4, r5, r6, pc}
    9f10:	e2850004 	add	r0, r5, #4
    9f14:	e3a01008 	mov	r1, #8
    9f18:	ebfffe04 	bl	9730 <chEvtBroadcastFlagsI>
    9f1c:	e1a00004 	mov	r0, r4
    9f20:	e8bd8070 	pop	{r4, r5, r6, pc}
	...

00009f30 <spiInit>:
    9f30:	ea0001c6 	b	a650 <spi_lld_init>
	...

00009f40 <spiObjectInit>:
    9f40:	e3a03000 	mov	r3, #0
    9f44:	e3a02001 	mov	r2, #1
    9f48:	e5803004 	str	r3, [r0, #4]
    9f4c:	e5c02000 	strb	r2, [r0]
    9f50:	e5803008 	str	r3, [r0, #8]
    9f54:	e280000c 	add	r0, r0, #12
    9f58:	eafffd48 	b	9480 <chMtxInit>
    9f5c:	00000000 	andeq	r0, r0, r0

00009f60 <tm_start>:
    9f60:	e59f3008 	ldr	r3, [pc, #8]	; 9f70 <tm_start+0x10>
    9f64:	e5933004 	ldr	r3, [r3, #4]
    9f68:	e5803008 	str	r3, [r0, #8]
    9f6c:	e12fff1e 	bx	lr
    9f70:	20003000 	andcs	r3, r0, r0
	...

00009f80 <tm_stop>:
    9f80:	e59f303c 	ldr	r3, [pc, #60]	; 9fc4 <tm_stop+0x44>
    9f84:	e59f203c 	ldr	r2, [pc, #60]	; 9fc8 <tm_stop+0x48>
    9f88:	e5933004 	ldr	r3, [r3, #4]
    9f8c:	e5922000 	ldr	r2, [r2]
    9f90:	e5901008 	ldr	r1, [r0, #8]
    9f94:	e0433002 	sub	r3, r3, r2
    9f98:	e590200c 	ldr	r2, [r0, #12]
    9f9c:	e0433001 	sub	r3, r3, r1
    9fa0:	e1530002 	cmp	r3, r2
    9fa4:	e5803008 	str	r3, [r0, #8]
    9fa8:	9a000001 	bls	9fb4 <tm_stop+0x34>
    9fac:	e580300c 	str	r3, [r0, #12]
    9fb0:	e12fff1e 	bx	lr
    9fb4:	e5902010 	ldr	r2, [r0, #16]
    9fb8:	e1530002 	cmp	r3, r2
    9fbc:	35803010 	strcc	r3, [r0, #16]
    9fc0:	e12fff1e 	bx	lr
    9fc4:	20003000 	andcs	r3, r0, r0
    9fc8:	0000b1c0 	andeq	fp, r0, r0, asr #3
    9fcc:	00000000 	andeq	r0, r0, r0

00009fd0 <tmInit>:
    9fd0:	e3a03000 	mov	r3, #0
    9fd4:	e3e01000 	mvn	r1, #0
    9fd8:	e92d4010 	push	{r4, lr}
    9fdc:	e59f4040 	ldr	r4, [pc, #64]	; a024 <tmInit+0x54>
    9fe0:	e24dd018 	sub	sp, sp, #24
    9fe4:	e59f203c 	ldr	r2, [pc, #60]	; a028 <tmInit+0x58>
    9fe8:	e58d300c 	str	r3, [sp, #12]
    9fec:	e58d3010 	str	r3, [sp, #16]
    9ff0:	e5843000 	str	r3, [r4]
    9ff4:	e58d1014 	str	r1, [sp, #20]
    9ff8:	e5921004 	ldr	r1, [r2, #4]
    9ffc:	e59f3028 	ldr	r3, [pc, #40]	; a02c <tmInit+0x5c>
    a000:	e59f2028 	ldr	r2, [pc, #40]	; a030 <tmInit+0x60>
    a004:	e28d0004 	add	r0, sp, #4
    a008:	e1cd20f4 	strd	r2, [sp, #4]
    a00c:	e58d100c 	str	r1, [sp, #12]
    a010:	ebffffda 	bl	9f80 <tm_stop>
    a014:	e59d300c 	ldr	r3, [sp, #12]
    a018:	e5843000 	str	r3, [r4]
    a01c:	e28dd018 	add	sp, sp, #24
    a020:	e8bd8010 	pop	{r4, pc}
    a024:	0000b1c0 	andeq	fp, r0, r0, asr #3
    a028:	20003000 	andcs	r3, r0, r0
    a02c:	00009f80 	andeq	r9, r0, r0, lsl #31
    a030:	00009f60 	andeq	r9, r0, r0, ror #30
	...

0000a040 <IrqHandler>:
    a040:	e92d500f 	push	{r0, r1, r2, r3, ip, lr}
    a044:	ebfffb21 	bl	8cd0 <chSysTimerHandlerI>
    a048:	e3a02000 	mov	r2, #0
    a04c:	e59f301c 	ldr	r3, [pc, #28]	; a070 <IrqHandler+0x30>
    a050:	e59f001c 	ldr	r0, [pc, #28]	; a074 <IrqHandler+0x34>
    a054:	e583240c 	str	r2, [r3, #1036]	; 0x40c
    a058:	eb00005c 	bl	a1d0 <sd_lld_serve_interrupt>
    a05c:	e59f0014 	ldr	r0, [pc, #20]	; a078 <IrqHandler+0x38>
    a060:	eb0000c2 	bl	a370 <i2c_lld_serve_interrupt>
    a064:	e59f0010 	ldr	r0, [pc, #16]	; a07c <IrqHandler+0x3c>
    a068:	eb000118 	bl	a4d0 <spi_lld_serve_interrupt>
    a06c:	eafff823 	b	8100 <_port_irq_common>
    a070:	2000b000 	andcs	fp, r0, r0
    a074:	0000b3d4 	ldrdeq	fp, [r0], -r4
    a078:	0000b488 	andeq	fp, r0, r8, lsl #9
    a07c:	0000b4c8 	andeq	fp, r0, r8, asr #9

0000a080 <hal_lld_init>:
    a080:	e52de004 	push	{lr}		; (str lr, [sp, #-4]!)
    a084:	e3a0c0f9 	mov	ip, #249	; 0xf9
    a088:	e3a0e83e 	mov	lr, #4063232	; 0x3e0000
    a08c:	e3a00000 	mov	r0, #0
    a090:	e59f302c 	ldr	r3, [pc, #44]	; a0c4 <hal_lld_init+0x44>
    a094:	e59f202c 	ldr	r2, [pc, #44]	; a0c8 <hal_lld_init+0x48>
    a098:	e59f102c 	ldr	r1, [pc, #44]	; a0cc <hal_lld_init+0x4c>
    a09c:	e583e408 	str	lr, [r3, #1032]	; 0x408
    a0a0:	e5832400 	str	r2, [r3, #1024]	; 0x400
    a0a4:	e5832418 	str	r2, [r3, #1048]	; 0x418
    a0a8:	e583c41c 	str	ip, [r3, #1052]	; 0x41c
    a0ac:	e583040c 	str	r0, [r3, #1036]	; 0x40c
    a0b0:	e5831408 	str	r1, [r3, #1032]	; 0x408
    a0b4:	e5932218 	ldr	r2, [r3, #536]	; 0x218
    a0b8:	e3822001 	orr	r2, r2, #1
    a0bc:	e5832218 	str	r2, [r3, #536]	; 0x218
    a0c0:	e49df004 	pop	{pc}		; (ldr pc, [sp], #4)
    a0c4:	2000b000 	andcs	fp, r0, r0
    a0c8:	000003e7 	andeq	r0, r0, r7, ror #7
    a0cc:	003e00a2 	eorseq	r0, lr, r2, lsr #1

0000a0d0 <set_gpio_in.isra.0>:
    a0d0:	e92d4070 	push	{r4, r5, r6, lr}
    a0d4:	e1a06000 	mov	r6, r0
    a0d8:	e1a05001 	mov	r5, r1
    a0dc:	e3a04000 	mov	r4, #0
    a0e0:	ea000003 	b	a0f4 <set_gpio_in.isra.0+0x24>
    a0e4:	e2844001 	add	r4, r4, #1
    a0e8:	e3540020 	cmp	r4, #32
    a0ec:	e1a050a5 	lsr	r5, r5, #1
    a0f0:	08bd8070 	popeq	{r4, r5, r6, pc}
    a0f4:	e3150001 	tst	r5, #1
    a0f8:	0afffff9 	beq	a0e4 <set_gpio_in.isra.0+0x14>
    a0fc:	e5960000 	ldr	r0, [r6]
    a100:	e3a01000 	mov	r1, #0
    a104:	e0840000 	add	r0, r4, r0
    a108:	eb000154 	bl	a660 <bcm2835_gpio_fnsel>
    a10c:	eafffff4 	b	a0e4 <set_gpio_in.isra.0+0x14>

0000a110 <_pal_lld_init>:
    a110:	e59f3068 	ldr	r3, [pc, #104]	; a180 <_pal_lld_init+0x70>
    a114:	e59f1068 	ldr	r1, [pc, #104]	; a184 <_pal_lld_init+0x74>
    a118:	e92d4010 	push	{r4, lr}
    a11c:	e59fc064 	ldr	ip, [pc, #100]	; a188 <_pal_lld_init+0x78>
    a120:	e59fe064 	ldr	lr, [pc, #100]	; a18c <_pal_lld_init+0x7c>
    a124:	e59f2064 	ldr	r2, [pc, #100]	; a190 <_pal_lld_init+0x80>
    a128:	e2830014 	add	r0, r3, #20
    a12c:	e5831004 	str	r1, [r3, #4]
    a130:	e3e01000 	mvn	r1, #0
    a134:	e583e008 	str	lr, [r3, #8]
    a138:	e583c00c 	str	ip, [r3, #12]
    a13c:	e5832010 	str	r2, [r3, #16]
    a140:	ebffffe2 	bl	a0d0 <set_gpio_in.isra.0>
    a144:	e59f3048 	ldr	r3, [pc, #72]	; a194 <_pal_lld_init+0x84>
    a148:	e3a02020 	mov	r2, #32
    a14c:	e1a00003 	mov	r0, r3
    a150:	e59f1040 	ldr	r1, [pc, #64]	; a198 <_pal_lld_init+0x88>
    a154:	e59fe040 	ldr	lr, [pc, #64]	; a19c <_pal_lld_init+0x8c>
    a158:	e59fc040 	ldr	ip, [pc, #64]	; a1a0 <_pal_lld_init+0x90>
    a15c:	e5a02014 	str	r2, [r0, #20]!
    a160:	e59f203c 	ldr	r2, [pc, #60]	; a1a4 <_pal_lld_init+0x94>
    a164:	e5831004 	str	r1, [r3, #4]
    a168:	e583e008 	str	lr, [r3, #8]
    a16c:	e3e01000 	mvn	r1, #0
    a170:	e8bd4010 	pop	{r4, lr}
    a174:	e583c00c 	str	ip, [r3, #12]
    a178:	e5832010 	str	r2, [r3, #16]
    a17c:	eaffffd3 	b	a0d0 <set_gpio_in.isra.0>
    a180:	0000b3bc 			; <UNDEFINED> instruction: 0x0000b3bc
    a184:	2020001c 	eorcs	r0, r0, ip, lsl r0
    a188:	20200034 	eorcs	r0, r0, r4, lsr r0
    a18c:	20200028 	eorcs	r0, r0, r8, lsr #32
    a190:	20200098 	mlacs	r0, r8, r0, r0
    a194:	0000b3a4 	andeq	fp, r0, r4, lsr #7
    a198:	20200020 	eorcs	r0, r0, r0, lsr #32
    a19c:	2020002c 	eorcs	r0, r0, ip, lsr #32
    a1a0:	20200038 	eorcs	r0, r0, r8, lsr r0
    a1a4:	2020009c 	mlacs	r0, ip, r0, r0
	...

0000a1b0 <output_notify>:
    a1b0:	e59f200c 	ldr	r2, [pc, #12]	; a1c4 <output_notify+0x14>
    a1b4:	e5923044 	ldr	r3, [r2, #68]	; 0x44
    a1b8:	e3833002 	orr	r3, r3, #2
    a1bc:	e5823044 	str	r3, [r2, #68]	; 0x44
    a1c0:	e12fff1e 	bx	lr
    a1c4:	20215000 	eorcs	r5, r1, r0
	...

0000a1d0 <sd_lld_serve_interrupt>:
    a1d0:	e59f209c 	ldr	r2, [pc, #156]	; a274 <sd_lld_serve_interrupt+0xa4>
    a1d4:	e92d4070 	push	{r4, r5, r6, lr}
    a1d8:	e5923048 	ldr	r3, [r2, #72]	; 0x48
    a1dc:	e1a05000 	mov	r5, r0
    a1e0:	e2033007 	and	r3, r3, #7
    a1e4:	e3530004 	cmp	r3, #4
    a1e8:	0a000011 	beq	a234 <sd_lld_serve_interrupt+0x64>
    a1ec:	e59f4080 	ldr	r4, [pc, #128]	; a274 <sd_lld_serve_interrupt+0xa4>
    a1f0:	e5943048 	ldr	r3, [r4, #72]	; 0x48
    a1f4:	e2033007 	and	r3, r3, #7
    a1f8:	e3530002 	cmp	r3, #2
    a1fc:	18bd8070 	popne	{r4, r5, r6, pc}
    a200:	e5943054 	ldr	r3, [r4, #84]	; 0x54
    a204:	e3130020 	tst	r3, #32
    a208:	0afffffc 	beq	a200 <sd_lld_serve_interrupt+0x30>
    a20c:	e1a00005 	mov	r0, r5
    a210:	ebffff36 	bl	9ef0 <sdRequestDataI>
    a214:	e3500000 	cmp	r0, #0
    a218:	ba000011 	blt	a264 <sd_lld_serve_interrupt+0x94>
    a21c:	e59f2050 	ldr	r2, [pc, #80]	; a274 <sd_lld_serve_interrupt+0xa4>
    a220:	e5923054 	ldr	r3, [r2, #84]	; 0x54
    a224:	e3130020 	tst	r3, #32
    a228:	0afffffc 	beq	a220 <sd_lld_serve_interrupt+0x50>
    a22c:	e5820040 	str	r0, [r2, #64]	; 0x40
    a230:	e8bd8070 	pop	{r4, r5, r6, pc}
    a234:	e5923054 	ldr	r3, [r2, #84]	; 0x54
    a238:	e3130001 	tst	r3, #1
    a23c:	0afffffc 	beq	a234 <sd_lld_serve_interrupt+0x64>
    a240:	e59f402c 	ldr	r4, [pc, #44]	; a274 <sd_lld_serve_interrupt+0xa4>
    a244:	e5941040 	ldr	r1, [r4, #64]	; 0x40
    a248:	e1a00005 	mov	r0, r5
    a24c:	e6ef1071 	uxtb	r1, r1
    a250:	ebffff12 	bl	9ea0 <sdIncomingDataI>
    a254:	e5943054 	ldr	r3, [r4, #84]	; 0x54
    a258:	e3130001 	tst	r3, #1
    a25c:	1afffff8 	bne	a244 <sd_lld_serve_interrupt+0x74>
    a260:	eaffffe1 	b	a1ec <sd_lld_serve_interrupt+0x1c>
    a264:	e5943044 	ldr	r3, [r4, #68]	; 0x44
    a268:	e3c33002 	bic	r3, r3, #2
    a26c:	e5843044 	str	r3, [r4, #68]	; 0x44
    a270:	e8bd8070 	pop	{r4, r5, r6, pc}
    a274:	20215000 	eorcs	r5, r1, r0
	...

0000a280 <sd_lld_init>:
    a280:	e3a01000 	mov	r1, #0
    a284:	e59f2004 	ldr	r2, [pc, #4]	; a290 <sd_lld_init+0x10>
    a288:	e59f0004 	ldr	r0, [pc, #4]	; a294 <sd_lld_init+0x14>
    a28c:	eafffee3 	b	9e20 <sdObjectInit>
    a290:	0000a1b0 			; <UNDEFINED> instruction: 0x0000a1b0
    a294:	0000b3d4 	ldrdeq	fp, [r0], -r4
	...

0000a2a0 <sd_lld_start>:
    a2a0:	e92d47f0 	push	{r4, r5, r6, r7, r8, r9, sl, lr}
    a2a4:	e3a05000 	mov	r5, #0
    a2a8:	e59f30a0 	ldr	r3, [pc, #160]	; a350 <sd_lld_start+0xb0>
    a2ac:	e1510005 	cmp	r1, r5
    a2b0:	01a01003 	moveq	r1, r3
    a2b4:	e3a02005 	mov	r2, #5
    a2b8:	e3a030c6 	mov	r3, #198	; 0xc6
    a2bc:	e3a09003 	mov	r9, #3
    a2c0:	e3a08202 	mov	r8, #536870912	; 0x20000000
    a2c4:	e3a00001 	mov	r0, #1
    a2c8:	e59f4084 	ldr	r4, [pc, #132]	; a354 <sd_lld_start+0xb4>
    a2cc:	e59f7084 	ldr	r7, [pc, #132]	; a358 <sd_lld_start+0xb8>
    a2d0:	e59f6084 	ldr	r6, [pc, #132]	; a35c <sd_lld_start+0xbc>
    a2d4:	e587821c 	str	r8, [r7, #540]	; 0x21c
    a2d8:	e5840004 	str	r0, [r4, #4]
    a2dc:	e5845044 	str	r5, [r4, #68]	; 0x44
    a2e0:	e5845060 	str	r5, [r4, #96]	; 0x60
    a2e4:	e584904c 	str	r9, [r4, #76]	; 0x4c
    a2e8:	e5845050 	str	r5, [r4, #80]	; 0x50
    a2ec:	e5842044 	str	r2, [r4, #68]	; 0x44
    a2f0:	e5843048 	str	r3, [r4, #72]	; 0x48
    a2f4:	e5911000 	ldr	r1, [r1]
    a2f8:	e59f0060 	ldr	r0, [pc, #96]	; a360 <sd_lld_start+0xc0>
    a2fc:	e1a01911 	lsl	r1, r1, r9
    a300:	ebfff852 	bl	8450 <__udivsi3>
    a304:	e2400001 	sub	r0, r0, #1
    a308:	e3a01002 	mov	r1, #2
    a30c:	e5840068 	str	r0, [r4, #104]	; 0x68
    a310:	e3a0000e 	mov	r0, #14
    a314:	eb0000d1 	bl	a660 <bcm2835_gpio_fnsel>
    a318:	e3a01002 	mov	r1, #2
    a31c:	e3a0000f 	mov	r0, #15
    a320:	eb0000ce 	bl	a660 <bcm2835_gpio_fnsel>
    a324:	e3a00096 	mov	r0, #150	; 0x96
    a328:	e5865094 	str	r5, [r6, #148]	; 0x94
    a32c:	eb0000df 	bl	a6b0 <bcm2835_delay>
    a330:	e3a03903 	mov	r3, #49152	; 0xc000
    a334:	e3a00096 	mov	r0, #150	; 0x96
    a338:	e5863098 	str	r3, [r6, #152]	; 0x98
    a33c:	eb0000db 	bl	a6b0 <bcm2835_delay>
    a340:	e5865098 	str	r5, [r6, #152]	; 0x98
    a344:	e5849060 	str	r9, [r4, #96]	; 0x60
    a348:	e5878210 	str	r8, [r7, #528]	; 0x210
    a34c:	e8bd87f0 	pop	{r4, r5, r6, r7, r8, r9, sl, pc}
    a350:	0000b0f0 	strdeq	fp, [r0], -r0
    a354:	20215000 	eorcs	r5, r1, r0
    a358:	2000b000 	andcs	fp, r0, r0
    a35c:	20200000 	eorcs	r0, r0, r0
    a360:	0ee6b280 	cdpeq	2, 14, cr11, cr6, cr0, {4}
	...

0000a370 <i2c_lld_serve_interrupt>:
    a370:	e590200c 	ldr	r2, [r0, #12]
    a374:	e5921004 	ldr	r1, [r2, #4]
    a378:	e3110c03 	tst	r1, #768	; 0x300
    a37c:	0a000008 	beq	a3a4 <i2c_lld_serve_interrupt+0x34>
    a380:	e5903020 	ldr	r3, [r0, #32]
    a384:	e3530000 	cmp	r3, #0
    a388:	012fff1e 	bxeq	lr
    a38c:	e3a01000 	mov	r1, #0
    a390:	e3e02001 	mvn	r2, #1
    a394:	e5801020 	str	r1, [r0, #32]
    a398:	e1a00003 	mov	r0, r3
    a39c:	e5832024 	str	r2, [r3, #36]	; 0x24
    a3a0:	eafffada 	b	8f10 <chSchReadyI>
    a3a4:	e3110002 	tst	r1, #2
    a3a8:	e52de004 	push	{lr}		; (str lr, [sp, #-4]!)
    a3ac:	0a000017 	beq	a410 <i2c_lld_serve_interrupt+0xa0>
    a3b0:	e3110020 	tst	r1, #32
    a3b4:	1a000004 	bne	a3cc <i2c_lld_serve_interrupt+0x5c>
    a3b8:	ea000008 	b	a3e0 <i2c_lld_serve_interrupt+0x70>
    a3bc:	e592e010 	ldr	lr, [r2, #16]
    a3c0:	e5901034 	ldr	r1, [r0, #52]	; 0x34
    a3c4:	e580c03c 	str	ip, [r0, #60]	; 0x3c
    a3c8:	e7c1e003 	strb	lr, [r1, r3]
    a3cc:	e590303c 	ldr	r3, [r0, #60]	; 0x3c
    a3d0:	e5901038 	ldr	r1, [r0, #56]	; 0x38
    a3d4:	e283c001 	add	ip, r3, #1
    a3d8:	e1530001 	cmp	r3, r1
    a3dc:	3afffff6 	bcc	a3bc <i2c_lld_serve_interrupt+0x4c>
    a3e0:	e3a01000 	mov	r1, #0
    a3e4:	e5903020 	ldr	r3, [r0, #32]
    a3e8:	e59fc0bc 	ldr	ip, [pc, #188]	; a4ac <i2c_lld_serve_interrupt+0x13c>
    a3ec:	e1530001 	cmp	r3, r1
    a3f0:	e5821000 	str	r1, [r2]
    a3f4:	e582c004 	str	ip, [r2, #4]
    a3f8:	049df004 	popeq	{pc}		; (ldreq pc, [sp], #4)
    a3fc:	e5801020 	str	r1, [r0, #32]
    a400:	e49de004 	pop	{lr}		; (ldr lr, [sp], #4)
    a404:	e1a00003 	mov	r0, r3
    a408:	e5831024 	str	r1, [r3, #36]	; 0x24
    a40c:	eafffabf 	b	8f10 <chSchReadyI>
    a410:	e3110004 	tst	r1, #4
    a414:	0a000012 	beq	a464 <i2c_lld_serve_interrupt+0xf4>
    a418:	e5903030 	ldr	r3, [r0, #48]	; 0x30
    a41c:	e590c02c 	ldr	ip, [r0, #44]	; 0x2c
    a420:	e15c0003 	cmp	ip, r3
    a424:	949df004 	popls	{pc}		; (ldrls pc, [sp], #4)
    a428:	e3110010 	tst	r1, #16
    a42c:	049df004 	popeq	{pc}		; (ldreq pc, [sp], #4)
    a430:	e590e028 	ldr	lr, [r0, #40]	; 0x28
    a434:	e2433001 	sub	r3, r3, #1
    a438:	e24cc001 	sub	ip, ip, #1
    a43c:	e08e3003 	add	r3, lr, r3
    a440:	e08ec00c 	add	ip, lr, ip
    a444:	e26ee002 	rsb	lr, lr, #2
    a448:	e08e1003 	add	r1, lr, r3
    a44c:	e5801030 	str	r1, [r0, #48]	; 0x30
    a450:	e5f31001 	ldrb	r1, [r3, #1]!
    a454:	e153000c 	cmp	r3, ip
    a458:	e5821010 	str	r1, [r2, #16]
    a45c:	1afffff9 	bne	a448 <i2c_lld_serve_interrupt+0xd8>
    a460:	e49df004 	pop	{pc}		; (ldr pc, [sp], #4)
    a464:	e3110008 	tst	r1, #8
    a468:	049df004 	popeq	{pc}		; (ldreq pc, [sp], #4)
    a46c:	e590303c 	ldr	r3, [r0, #60]	; 0x3c
    a470:	e590c038 	ldr	ip, [r0, #56]	; 0x38
    a474:	e15c0003 	cmp	ip, r3
    a478:	949df004 	popls	{pc}		; (ldrls pc, [sp], #4)
    a47c:	e3110020 	tst	r1, #32
    a480:	049df004 	popeq	{pc}		; (ldreq pc, [sp], #4)
    a484:	e592c010 	ldr	ip, [r2, #16]
    a488:	e5901034 	ldr	r1, [r0, #52]	; 0x34
    a48c:	e283e001 	add	lr, r3, #1
    a490:	e580e03c 	str	lr, [r0, #60]	; 0x3c
    a494:	e7c1c003 	strb	ip, [r1, r3]
    a498:	e590303c 	ldr	r3, [r0, #60]	; 0x3c
    a49c:	e5901038 	ldr	r1, [r0, #56]	; 0x38
    a4a0:	e1530001 	cmp	r3, r1
    a4a4:	3afffff6 	bcc	a484 <i2c_lld_serve_interrupt+0x114>
    a4a8:	e49df004 	pop	{pc}		; (ldr pc, [sp], #4)
    a4ac:	00000302 	andeq	r0, r0, r2, lsl #6

0000a4b0 <i2c_lld_init>:
    a4b0:	e59f0008 	ldr	r0, [pc, #8]	; a4c0 <i2c_lld_init+0x10>
    a4b4:	e59f3008 	ldr	r3, [pc, #8]	; a4c4 <i2c_lld_init+0x14>
    a4b8:	e580300c 	str	r3, [r0, #12]
    a4bc:	eafffe2b 	b	9d70 <i2cObjectInit>
    a4c0:	0000b488 	andeq	fp, r0, r8, lsl #9
    a4c4:	20804000 	addcs	r4, r0, r0
	...

0000a4d0 <spi_lld_serve_interrupt>:
    a4d0:	e59f3164 	ldr	r3, [pc, #356]	; a63c <spi_lld_serve_interrupt+0x16c>
    a4d4:	e5933208 	ldr	r3, [r3, #520]	; 0x208
    a4d8:	e3130501 	tst	r3, #4194304	; 0x400000
    a4dc:	012fff1e 	bxeq	lr
    a4e0:	e59f3158 	ldr	r3, [pc, #344]	; a640 <spi_lld_serve_interrupt+0x170>
    a4e4:	e92d4010 	push	{r4, lr}
    a4e8:	e5932000 	ldr	r2, [r3]
    a4ec:	e1a04000 	mov	r4, r0
    a4f0:	e3120801 	tst	r2, #65536	; 0x10000
    a4f4:	0a000016 	beq	a554 <spi_lld_serve_interrupt+0x84>
    a4f8:	e5902024 	ldr	r2, [r0, #36]	; 0x24
    a4fc:	e3520000 	cmp	r2, #0
    a500:	0a000023 	beq	a594 <spi_lld_serve_interrupt+0xc4>
    a504:	e5901004 	ldr	r1, [r0, #4]
    a508:	e590c020 	ldr	ip, [r0, #32]
    a50c:	e5d11004 	ldrb	r1, [r1, #4]
    a510:	e3510000 	cmp	r1, #0
    a514:	e5931000 	ldr	r1, [r3]
    a518:	0a000038 	beq	a600 <spi_lld_serve_interrupt+0x130>
    a51c:	e3110701 	tst	r1, #262144	; 0x40000
    a520:	0a00000b 	beq	a554 <spi_lld_serve_interrupt+0x84>
    a524:	e1a0100c 	mov	r1, ip
    a528:	e35c0000 	cmp	ip, #0
    a52c:	01a0000c 	moveq	r0, ip
    a530:	10d100b2 	ldrhne	r0, [r1], #2
    a534:	e2422002 	sub	r2, r2, #2
    a538:	e5830004 	str	r0, [r3, #4]
    a53c:	e5930000 	ldr	r0, [r3]
    a540:	e3100701 	tst	r0, #262144	; 0x40000
    a544:	0a000001 	beq	a550 <spi_lld_serve_interrupt+0x80>
    a548:	e3520000 	cmp	r2, #0
    a54c:	1afffff5 	bne	a528 <spi_lld_serve_interrupt+0x58>
    a550:	e5842024 	str	r2, [r4, #36]	; 0x24
    a554:	e59f30e4 	ldr	r3, [pc, #228]	; a640 <spi_lld_serve_interrupt+0x170>
    a558:	e5932000 	ldr	r2, [r3]
    a55c:	e3120702 	tst	r2, #524288	; 0x80000
    a560:	08bd8010 	popeq	{r4, pc}
    a564:	e5932000 	ldr	r2, [r3]
    a568:	e3120802 	tst	r2, #131072	; 0x20000
    a56c:	08bd8010 	popeq	{r4, pc}
    a570:	e594201c 	ldr	r2, [r4, #28]
    a574:	e5931004 	ldr	r1, [r3, #4]
    a578:	e3520000 	cmp	r2, #0
    a57c:	15c21000 	strbne	r1, [r2]
    a580:	eafffff7 	b	a564 <spi_lld_serve_interrupt+0x94>
    a584:	e594201c 	ldr	r2, [r4, #28]
    a588:	e5931004 	ldr	r1, [r3, #4]
    a58c:	e3520000 	cmp	r2, #0
    a590:	15c21000 	strbne	r1, [r2]
    a594:	e5932000 	ldr	r2, [r3]
    a598:	e3120802 	tst	r2, #131072	; 0x20000
    a59c:	1afffff8 	bne	a584 <spi_lld_serve_interrupt+0xb4>
    a5a0:	e5941004 	ldr	r1, [r4, #4]
    a5a4:	e5932000 	ldr	r2, [r3]
    a5a8:	e5911000 	ldr	r1, [r1]
    a5ac:	e3c22d1a 	bic	r2, r2, #1664	; 0x680
    a5b0:	e3510000 	cmp	r1, #0
    a5b4:	e5832000 	str	r2, [r3]
    a5b8:	0a00000d 	beq	a5f4 <spi_lld_serve_interrupt+0x124>
    a5bc:	e3a03004 	mov	r3, #4
    a5c0:	e1a00004 	mov	r0, r4
    a5c4:	e5c43000 	strb	r3, [r4]
    a5c8:	e12fff31 	blx	r1
    a5cc:	e5d43000 	ldrb	r3, [r4]
    a5d0:	e3530004 	cmp	r3, #4
    a5d4:	0a000006 	beq	a5f4 <spi_lld_serve_interrupt+0x124>
    a5d8:	e5940008 	ldr	r0, [r4, #8]
    a5dc:	e3500000 	cmp	r0, #0
    a5e0:	0affffdb 	beq	a554 <spi_lld_serve_interrupt+0x84>
    a5e4:	e3a03000 	mov	r3, #0
    a5e8:	e5843008 	str	r3, [r4, #8]
    a5ec:	ebfffa47 	bl	8f10 <chSchReadyI>
    a5f0:	eaffffd7 	b	a554 <spi_lld_serve_interrupt+0x84>
    a5f4:	e3a03002 	mov	r3, #2
    a5f8:	e5c43000 	strb	r3, [r4]
    a5fc:	eafffff5 	b	a5d8 <spi_lld_serve_interrupt+0x108>
    a600:	e3110701 	tst	r1, #262144	; 0x40000
    a604:	0affffd2 	beq	a554 <spi_lld_serve_interrupt+0x84>
    a608:	e1a0100c 	mov	r1, ip
    a60c:	e35c0000 	cmp	ip, #0
    a610:	01a0000c 	moveq	r0, ip
    a614:	14d10001 	ldrbne	r0, [r1], #1
    a618:	e2422001 	sub	r2, r2, #1
    a61c:	e5830004 	str	r0, [r3, #4]
    a620:	e5930000 	ldr	r0, [r3]
    a624:	e5842024 	str	r2, [r4, #36]	; 0x24
    a628:	e3100701 	tst	r0, #262144	; 0x40000
    a62c:	0affffc8 	beq	a554 <spi_lld_serve_interrupt+0x84>
    a630:	e3520000 	cmp	r2, #0
    a634:	1afffff4 	bne	a60c <spi_lld_serve_interrupt+0x13c>
    a638:	eaffffc5 	b	a554 <spi_lld_serve_interrupt+0x84>
    a63c:	2000b000 	andcs	fp, r0, r0
    a640:	20204000 	eorcs	r4, r0, r0
	...

0000a650 <spi_lld_init>:
    a650:	e59f0000 	ldr	r0, [pc]	; a658 <spi_lld_init+0x8>
    a654:	eafffe39 	b	9f40 <spiObjectInit>
    a658:	0000b4c8 	andeq	fp, r0, r8, asr #9
    a65c:	00000000 	andeq	r0, r0, r0

0000a660 <bcm2835_gpio_fnsel>:
    a660:	e52de004 	push	{lr}		; (str lr, [sp, #-4]!)
    a664:	e3a0e007 	mov	lr, #7
    a668:	e59f3038 	ldr	r3, [pc, #56]	; a6a8 <bcm2835_gpio_fnsel+0x48>
    a66c:	e0832093 	umull	r2, r3, r3, r0
    a670:	e1a031a3 	lsr	r3, r3, #3
    a674:	e1a02103 	lsl	r2, r3, #2
    a678:	e2822202 	add	r2, r2, #536870912	; 0x20000000
    a67c:	e2822602 	add	r2, r2, #2097152	; 0x200000
    a680:	e0833103 	add	r3, r3, r3, lsl #2
    a684:	e592c000 	ldr	ip, [r2]
    a688:	e0400083 	sub	r0, r0, r3, lsl #1
    a68c:	e0800080 	add	r0, r0, r0, lsl #1
    a690:	e1ccc01e 	bic	ip, ip, lr, lsl r0
    a694:	e582c000 	str	ip, [r2]
    a698:	e5923000 	ldr	r3, [r2]
    a69c:	e1830011 	orr	r0, r3, r1, lsl r0
    a6a0:	e5820000 	str	r0, [r2]
    a6a4:	e49df004 	pop	{pc}		; (ldr pc, [sp], #4)
    a6a8:	cccccccd 	stclgt	12, cr12, [ip], {205}	; 0xcd
    a6ac:	00000000 	andeq	r0, r0, r0

0000a6b0 <bcm2835_delay>:
    a6b0:	e3a03000 	mov	r3, #0
    a6b4:	e24dd008 	sub	sp, sp, #8
    a6b8:	e58d3004 	str	r3, [sp, #4]
    a6bc:	e58d3004 	str	r3, [sp, #4]
    a6c0:	e59d3004 	ldr	r3, [sp, #4]
    a6c4:	e1500003 	cmp	r0, r3
    a6c8:	9a000005 	bls	a6e4 <bcm2835_delay+0x34>
    a6cc:	e59d3004 	ldr	r3, [sp, #4]
    a6d0:	e2833001 	add	r3, r3, #1
    a6d4:	e58d3004 	str	r3, [sp, #4]
    a6d8:	e59d3004 	ldr	r3, [sp, #4]
    a6dc:	e1530000 	cmp	r3, r0
    a6e0:	3afffff9 	bcc	a6cc <bcm2835_delay+0x1c>
    a6e4:	e28dd008 	add	sp, sp, #8
    a6e8:	e12fff1e 	bx	lr
    a6ec:	00000000 	andeq	r0, r0, r0

0000a6f0 <boardInit>:
    a6f0:	e12fff1e 	bx	lr
	...

0000a700 <chprintf>:
    a700:	e92d000e 	push	{r1, r2, r3}
    a704:	e92d4ff0 	push	{r4, r5, r6, r7, r8, r9, sl, fp, lr}
    a708:	e24dd028 	sub	sp, sp, #40	; 0x28
    a70c:	e59d804c 	ldr	r8, [sp, #76]	; 0x4c
    a710:	e28d3050 	add	r3, sp, #80	; 0x50
    a714:	e1a02008 	mov	r2, r8
    a718:	e4d21001 	ldrb	r1, [r2], #1
    a71c:	e58d300c 	str	r3, [sp, #12]
    a720:	e3510000 	cmp	r1, #0
    a724:	0a0000a9 	beq	a9d0 <chprintf+0x2d0>
    a728:	e1a05000 	mov	r5, r0
    a72c:	ea000008 	b	a754 <chprintf+0x54>
    a730:	e5953000 	ldr	r3, [r5]
    a734:	e1a00005 	mov	r0, r5
    a738:	e5933008 	ldr	r3, [r3, #8]
    a73c:	e1a08002 	mov	r8, r2
    a740:	e12fff33 	blx	r3
    a744:	e1a02008 	mov	r2, r8
    a748:	e4d21001 	ldrb	r1, [r2], #1
    a74c:	e3510000 	cmp	r1, #0
    a750:	0a00009e 	beq	a9d0 <chprintf+0x2d0>
    a754:	e3510025 	cmp	r1, #37	; 0x25
    a758:	1afffff4 	bne	a730 <chprintf+0x30>
    a75c:	e3a0c000 	mov	ip, #0
    a760:	e5d83001 	ldrb	r3, [r8, #1]
    a764:	e1a0400c 	mov	r4, ip
    a768:	e353002d 	cmp	r3, #45	; 0x2d
    a76c:	02882002 	addeq	r2, r8, #2
    a770:	e5d21000 	ldrb	r1, [r2]
    a774:	03a07001 	moveq	r7, #1
    a778:	13a07000 	movne	r7, #0
    a77c:	e351002e 	cmp	r1, #46	; 0x2e
    a780:	05d21001 	ldrbeq	r1, [r2, #1]
    a784:	02822001 	addeq	r2, r2, #1
    a788:	03a09030 	moveq	r9, #48	; 0x30
    a78c:	13a09020 	movne	r9, #32
    a790:	e59d000c 	ldr	r0, [sp, #12]
    a794:	e2822001 	add	r2, r2, #1
    a798:	ea000004 	b	a7b0 <chprintf+0xb0>
    a79c:	e3a0c001 	mov	ip, #1
    a7a0:	e4903004 	ldr	r3, [r0], #4
    a7a4:	e6ef3073 	uxtb	r3, r3
    a7a8:	e4d21001 	ldrb	r1, [r2], #1
    a7ac:	e083408e 	add	r4, r3, lr, lsl #1
    a7b0:	e2413030 	sub	r3, r1, #48	; 0x30
    a7b4:	e6ef3073 	uxtb	r3, r3
    a7b8:	e3530009 	cmp	r3, #9
    a7bc:	e1a08002 	mov	r8, r2
    a7c0:	e084e104 	add	lr, r4, r4, lsl #2
    a7c4:	9afffff7 	bls	a7a8 <chprintf+0xa8>
    a7c8:	e351002a 	cmp	r1, #42	; 0x2a
    a7cc:	0afffff2 	beq	a79c <chprintf+0x9c>
    a7d0:	e35c0000 	cmp	ip, #0
    a7d4:	158d000c 	strne	r0, [sp, #12]
    a7d8:	e351002e 	cmp	r1, #46	; 0x2e
    a7dc:	13a02000 	movne	r2, #0
    a7e0:	0a00012f 	beq	aca4 <chprintf+0x5a4>
    a7e4:	e20130df 	and	r3, r1, #223	; 0xdf
    a7e8:	e353004c 	cmp	r3, #76	; 0x4c
    a7ec:	1a00003c 	bne	a8e4 <chprintf+0x1e4>
    a7f0:	e5d83000 	ldrb	r3, [r8]
    a7f4:	e3530000 	cmp	r3, #0
    a7f8:	11a01003 	movne	r1, r3
    a7fc:	e2413044 	sub	r3, r1, #68	; 0x44
    a800:	12888001 	addne	r8, r8, #1
    a804:	e3530034 	cmp	r3, #52	; 0x34
    a808:	979ff103 	ldrls	pc, [pc, r3, lsl #2]
    a80c:	ea000073 	b	a9e0 <chprintf+0x2e0>
    a810:	0000ae14 	andeq	sl, r0, r4, lsl lr
    a814:	0000a9e0 	andeq	sl, r0, r0, ror #19
    a818:	0000a9e0 	andeq	sl, r0, r0, ror #19
    a81c:	0000a9e0 	andeq	sl, r0, r0, ror #19
    a820:	0000a9e0 	andeq	sl, r0, r0, ror #19
    a824:	0000a9e0 	andeq	sl, r0, r0, ror #19
    a828:	0000a9e0 	andeq	sl, r0, r0, ror #19
    a82c:	0000a9e0 	andeq	sl, r0, r0, ror #19
    a830:	0000a9e0 	andeq	sl, r0, r0, ror #19
    a834:	0000a9e0 	andeq	sl, r0, r0, ror #19
    a838:	0000a9e0 	andeq	sl, r0, r0, ror #19
    a83c:	0000ae28 	andeq	sl, r0, r8, lsr #28
    a840:	0000a9e0 	andeq	sl, r0, r0, ror #19
    a844:	0000a9e0 	andeq	sl, r0, r0, ror #19
    a848:	0000a9e0 	andeq	sl, r0, r0, ror #19
    a84c:	0000a9e0 	andeq	sl, r0, r0, ror #19
    a850:	0000a9e0 	andeq	sl, r0, r0, ror #19
    a854:	0000ae70 	andeq	sl, r0, r0, ror lr
    a858:	0000a9e0 	andeq	sl, r0, r0, ror #19
    a85c:	0000a9e0 	andeq	sl, r0, r0, ror #19
    a860:	0000ae48 	andeq	sl, r0, r8, asr #28
    a864:	0000a9e0 	andeq	sl, r0, r0, ror #19
    a868:	0000a9e0 	andeq	sl, r0, r0, ror #19
    a86c:	0000a9e0 	andeq	sl, r0, r0, ror #19
    a870:	0000a9e0 	andeq	sl, r0, r0, ror #19
    a874:	0000a9e0 	andeq	sl, r0, r0, ror #19
    a878:	0000a9e0 	andeq	sl, r0, r0, ror #19
    a87c:	0000a9e0 	andeq	sl, r0, r0, ror #19
    a880:	0000a9e0 	andeq	sl, r0, r0, ror #19
    a884:	0000a9e0 	andeq	sl, r0, r0, ror #19
    a888:	0000a9e0 	andeq	sl, r0, r0, ror #19
    a88c:	0000ac4c 	andeq	sl, r0, ip, asr #24
    a890:	0000ae14 	andeq	sl, r0, r4, lsl lr
    a894:	0000a9e0 	andeq	sl, r0, r0, ror #19
    a898:	0000aab8 			; <UNDEFINED> instruction: 0x0000aab8
    a89c:	0000a9e0 	andeq	sl, r0, r0, ror #19
    a8a0:	0000a9e0 	andeq	sl, r0, r0, ror #19
    a8a4:	0000a9e0 	andeq	sl, r0, r0, ror #19
    a8a8:	0000a9e0 	andeq	sl, r0, r0, ror #19
    a8ac:	0000a9e0 	andeq	sl, r0, r0, ror #19
    a8b0:	0000a9e0 	andeq	sl, r0, r0, ror #19
    a8b4:	0000a9e0 	andeq	sl, r0, r0, ror #19
    a8b8:	0000a9e0 	andeq	sl, r0, r0, ror #19
    a8bc:	0000ae28 	andeq	sl, r0, r8, lsr #28
    a8c0:	0000a9e0 	andeq	sl, r0, r0, ror #19
    a8c4:	0000a9e0 	andeq	sl, r0, r0, ror #19
    a8c8:	0000a9e0 	andeq	sl, r0, r0, ror #19
    a8cc:	0000aa5c 	andeq	sl, r0, ip, asr sl
    a8d0:	0000a9e0 	andeq	sl, r0, r0, ror #19
    a8d4:	0000ae70 	andeq	sl, r0, r0, ror lr
    a8d8:	0000a9e0 	andeq	sl, r0, r0, ror #19
    a8dc:	0000a9e0 	andeq	sl, r0, r0, ror #19
    a8e0:	0000ae48 	andeq	sl, r0, r8, asr #28
    a8e4:	e2413041 	sub	r3, r1, #65	; 0x41
    a8e8:	e2410044 	sub	r0, r1, #68	; 0x44
    a8ec:	e6ef3073 	uxtb	r3, r3
    a8f0:	e3500034 	cmp	r0, #52	; 0x34
    a8f4:	979ff100 	ldrls	pc, [pc, r0, lsl #2]
    a8f8:	ea000038 	b	a9e0 <chprintf+0x2e0>
    a8fc:	0000ad04 	andeq	sl, r0, r4, lsl #26
    a900:	0000a9e0 	andeq	sl, r0, r0, ror #19
    a904:	0000a9e0 	andeq	sl, r0, r0, ror #19
    a908:	0000a9e0 	andeq	sl, r0, r0, ror #19
    a90c:	0000a9e0 	andeq	sl, r0, r0, ror #19
    a910:	0000a9e0 	andeq	sl, r0, r0, ror #19
    a914:	0000a9e0 	andeq	sl, r0, r0, ror #19
    a918:	0000a9e0 	andeq	sl, r0, r0, ror #19
    a91c:	0000a9e0 	andeq	sl, r0, r0, ror #19
    a920:	0000a9e0 	andeq	sl, r0, r0, ror #19
    a924:	0000a9e0 	andeq	sl, r0, r0, ror #19
    a928:	0000ad94 	muleq	r0, r4, sp
    a92c:	0000a9e0 	andeq	sl, r0, r0, ror #19
    a930:	0000a9e0 	andeq	sl, r0, r0, ror #19
    a934:	0000a9e0 	andeq	sl, r0, r0, ror #19
    a938:	0000a9e0 	andeq	sl, r0, r0, ror #19
    a93c:	0000a9e0 	andeq	sl, r0, r0, ror #19
    a940:	0000ae40 	andeq	sl, r0, r0, asr #28
    a944:	0000a9e0 	andeq	sl, r0, r0, ror #19
    a948:	0000a9e0 	andeq	sl, r0, r0, ror #19
    a94c:	0000ae78 	andeq	sl, r0, r8, ror lr
    a950:	0000a9e0 	andeq	sl, r0, r0, ror #19
    a954:	0000a9e0 	andeq	sl, r0, r0, ror #19
    a958:	0000a9e0 	andeq	sl, r0, r0, ror #19
    a95c:	0000a9e0 	andeq	sl, r0, r0, ror #19
    a960:	0000a9e0 	andeq	sl, r0, r0, ror #19
    a964:	0000a9e0 	andeq	sl, r0, r0, ror #19
    a968:	0000a9e0 	andeq	sl, r0, r0, ror #19
    a96c:	0000a9e0 	andeq	sl, r0, r0, ror #19
    a970:	0000a9e0 	andeq	sl, r0, r0, ror #19
    a974:	0000a9e0 	andeq	sl, r0, r0, ror #19
    a978:	0000ac4c 	andeq	sl, r0, ip, asr #24
    a97c:	0000ad04 	andeq	sl, r0, r4, lsl #26
    a980:	0000a9e0 	andeq	sl, r0, r0, ror #19
    a984:	0000aab8 			; <UNDEFINED> instruction: 0x0000aab8
    a988:	0000a9e0 	andeq	sl, r0, r0, ror #19
    a98c:	0000a9e0 	andeq	sl, r0, r0, ror #19
    a990:	0000a9e0 	andeq	sl, r0, r0, ror #19
    a994:	0000a9e0 	andeq	sl, r0, r0, ror #19
    a998:	0000a9e0 	andeq	sl, r0, r0, ror #19
    a99c:	0000a9e0 	andeq	sl, r0, r0, ror #19
    a9a0:	0000a9e0 	andeq	sl, r0, r0, ror #19
    a9a4:	0000a9e0 	andeq	sl, r0, r0, ror #19
    a9a8:	0000ad94 	muleq	r0, r4, sp
    a9ac:	0000a9e0 	andeq	sl, r0, r0, ror #19
    a9b0:	0000a9e0 	andeq	sl, r0, r0, ror #19
    a9b4:	0000a9e0 	andeq	sl, r0, r0, ror #19
    a9b8:	0000aa5c 	andeq	sl, r0, ip, asr sl
    a9bc:	0000a9e0 	andeq	sl, r0, r0, ror #19
    a9c0:	0000ae40 	andeq	sl, r0, r0, asr #28
    a9c4:	0000a9e0 	andeq	sl, r0, r0, ror #19
    a9c8:	0000a9e0 	andeq	sl, r0, r0, ror #19
    a9cc:	0000ae78 	andeq	sl, r0, r8, ror lr
    a9d0:	e28dd028 	add	sp, sp, #40	; 0x28
    a9d4:	e8bd4ff0 	pop	{r4, r5, r6, r7, r8, r9, sl, fp, lr}
    a9d8:	e28dd00c 	add	sp, sp, #12
    a9dc:	e12fff1e 	bx	lr
    a9e0:	e5cd1010 	strb	r1, [sp, #16]
    a9e4:	e3570000 	cmp	r7, #0
    a9e8:	e244a001 	sub	sl, r4, #1
    a9ec:	13a07000 	movne	r7, #0
    a9f0:	e1caafca 	bic	sl, sl, sl, asr #31
    a9f4:	128d6010 	addne	r6, sp, #16
    a9f8:	1a000004 	bne	aa10 <chprintf+0x310>
    a9fc:	e3540001 	cmp	r4, #1
    aa00:	e26aa000 	rsb	sl, sl, #0
    aa04:	d28d6010 	addle	r6, sp, #16
    aa08:	d1a0a007 	movle	sl, r7
    aa0c:	ca000095 	bgt	ac68 <chprintf+0x568>
    aa10:	e0867007 	add	r7, r6, r7
    aa14:	e5953000 	ldr	r3, [r5]
    aa18:	e4d61001 	ldrb	r1, [r6], #1
    aa1c:	e5933008 	ldr	r3, [r3, #8]
    aa20:	e1a00005 	mov	r0, r5
    aa24:	e12fff33 	blx	r3
    aa28:	e0473006 	sub	r3, r7, r6
    aa2c:	e3530000 	cmp	r3, #0
    aa30:	aafffff7 	bge	aa14 <chprintf+0x314>
    aa34:	e35a0000 	cmp	sl, #0
    aa38:	0affff41 	beq	a744 <chprintf+0x44>
    aa3c:	e5953000 	ldr	r3, [r5]
    aa40:	e1a01009 	mov	r1, r9
    aa44:	e1a00005 	mov	r0, r5
    aa48:	e5933008 	ldr	r3, [r3, #8]
    aa4c:	e12fff33 	blx	r3
    aa50:	e25aa001 	subs	sl, sl, #1
    aa54:	1afffff8 	bne	aa3c <chprintf+0x33c>
    aa58:	eaffff39 	b	a744 <chprintf+0x44>
    aa5c:	e59d300c 	ldr	r3, [sp, #12]
    aa60:	e5936000 	ldr	r6, [r3]
    aa64:	e2833004 	add	r3, r3, #4
    aa68:	e3560000 	cmp	r6, #0
    aa6c:	e58d300c 	str	r3, [sp, #12]
    aa70:	0a00009e 	beq	acf0 <chprintf+0x5f0>
    aa74:	e59f1434 	ldr	r1, [pc, #1076]	; aeb0 <chprintf+0x7b0>
    aa78:	e5d63000 	ldrb	r3, [r6]
    aa7c:	e3520000 	cmp	r2, #0
    aa80:	01a02001 	moveq	r2, r1
    aa84:	e3530000 	cmp	r3, #0
    aa88:	0a0000fe 	beq	ae88 <chprintf+0x788>
    aa8c:	e1a0b006 	mov	fp, r6
    aa90:	ea000003 	b	aaa4 <chprintf+0x3a4>
    aa94:	e1e0300b 	mvn	r3, fp
    aa98:	e0863003 	add	r3, r6, r3
    aa9c:	e1730002 	cmn	r3, r2
    aaa0:	4a000002 	bmi	aab0 <chprintf+0x3b0>
    aaa4:	e5fb3001 	ldrb	r3, [fp, #1]!
    aaa8:	e3530000 	cmp	r3, #0
    aaac:	1afffff8 	bne	aa94 <chprintf+0x394>
    aab0:	e3a09020 	mov	r9, #32
    aab4:	ea000057 	b	ac18 <chprintf+0x518>
    aab8:	e59d300c 	ldr	r3, [sp, #12]
    aabc:	e2833007 	add	r3, r3, #7
    aac0:	e3c33007 	bic	r3, r3, #7
    aac4:	e2832008 	add	r2, r3, #8
    aac8:	e1c300d0 	ldrd	r0, [r3]
    aacc:	e58d200c 	str	r2, [sp, #12]
    aad0:	ebfff7ce 	bl	8a10 <__aeabi_d2f>
    aad4:	e3a01000 	mov	r1, #0
    aad8:	e1a0b000 	mov	fp, r0
    aadc:	ebfff820 	bl	8b64 <__aeabi_fcmplt>
    aae0:	e3500000 	cmp	r0, #0
    aae4:	13a0302d 	movne	r3, #45	; 0x2d
    aae8:	128bb102 	addne	fp, fp, #-2147483648	; 0x80000000
    aaec:	028d6010 	addeq	r6, sp, #16
    aaf0:	e1a0000b 	mov	r0, fp
    aaf4:	01a0a006 	moveq	sl, r6
    aaf8:	15cd3010 	strbne	r3, [sp, #16]
    aafc:	128da011 	addne	sl, sp, #17
    ab00:	128d6010 	addne	r6, sp, #16
    ab04:	ebfff777 	bl	88e8 <__aeabi_f2d>
    ab08:	e1a02000 	mov	r2, r0
    ab0c:	e1a03001 	mov	r3, r1
    ab10:	e1a0000b 	mov	r0, fp
    ab14:	e1cd20f0 	strd	r2, [sp]
    ab18:	ebfff82c 	bl	8bd0 <__aeabi_f2iz>
    ab1c:	e28ac00b 	add	ip, sl, #11
    ab20:	e1a02000 	mov	r2, r0
    ab24:	e1a0e00c 	mov	lr, ip
    ab28:	e59f3384 	ldr	r3, [pc, #900]	; aeb4 <chprintf+0x7b4>
    ab2c:	e3520009 	cmp	r2, #9
    ab30:	e0831293 	umull	r1, r3, r3, r2
    ab34:	e1a031a3 	lsr	r3, r3, #3
    ab38:	e1a01003 	mov	r1, r3
    ab3c:	e0833103 	add	r3, r3, r3, lsl #2
    ab40:	e0423083 	sub	r3, r2, r3, lsl #1
    ab44:	e2833030 	add	r3, r3, #48	; 0x30
    ab48:	e6ef3073 	uxtb	r3, r3
    ab4c:	e1a02001 	mov	r2, r1
    ab50:	e56e3001 	strb	r3, [lr, #-1]!
    ab54:	8afffff3 	bhi	ab28 <chprintf+0x428>
    ab58:	e04cc00e 	sub	ip, ip, lr
    ab5c:	e1a0100e 	mov	r1, lr
    ab60:	e1a0200a 	mov	r2, sl
    ab64:	e08ae00c 	add	lr, sl, ip
    ab68:	ea000000 	b	ab70 <chprintf+0x470>
    ab6c:	e5f13001 	ldrb	r3, [r1, #1]!
    ab70:	e4c23001 	strb	r3, [r2], #1
    ab74:	e152000e 	cmp	r2, lr
    ab78:	1afffffb 	bne	ab6c <chprintf+0x46c>
    ab7c:	e3a0302e 	mov	r3, #46	; 0x2e
    ab80:	e24cc001 	sub	ip, ip, #1
    ab84:	e5c23000 	strb	r3, [r2]
    ab88:	e08aa00c 	add	sl, sl, ip
    ab8c:	ebfff74b 	bl	88c0 <__aeabi_i2d>
    ab90:	e1a02000 	mov	r2, r0
    ab94:	e1a03001 	mov	r3, r1
    ab98:	e1cd00d0 	ldrd	r0, [sp]
    ab9c:	ebfff679 	bl	8588 <__aeabi_dsub>
    aba0:	e3a02000 	mov	r2, #0
    aba4:	e59f330c 	ldr	r3, [pc, #780]	; aeb8 <chprintf+0x7b8>
    aba8:	ebfff584 	bl	81c0 <__aeabi_dmul>
    abac:	ebfff77f 	bl	89b0 <__aeabi_d2iz>
    abb0:	e28a200d 	add	r2, sl, #13
    abb4:	e1a01002 	mov	r1, r2
    abb8:	e28ab002 	add	fp, sl, #2
    abbc:	e28ae008 	add	lr, sl, #8
    abc0:	e59f32ec 	ldr	r3, [pc, #748]	; aeb4 <chprintf+0x7b4>
    abc4:	e083c093 	umull	ip, r3, r3, r0
    abc8:	e1a031a3 	lsr	r3, r3, #3
    abcc:	e1a0c003 	mov	ip, r3
    abd0:	e0833103 	add	r3, r3, r3, lsl #2
    abd4:	e0403083 	sub	r3, r0, r3, lsl #1
    abd8:	e2833030 	add	r3, r3, #48	; 0x30
    abdc:	e6ef3073 	uxtb	r3, r3
    abe0:	e5613001 	strb	r3, [r1, #-1]!
    abe4:	e151000e 	cmp	r1, lr
    abe8:	e1a0000c 	mov	r0, ip
    abec:	1afffff3 	bne	abc0 <chprintf+0x4c0>
    abf0:	e0422001 	sub	r2, r2, r1
    abf4:	e282c002 	add	ip, r2, #2
    abf8:	e1a0000b 	mov	r0, fp
    abfc:	e08aa00c 	add	sl, sl, ip
    ac00:	ea000000 	b	ac08 <chprintf+0x508>
    ac04:	e5f13001 	ldrb	r3, [r1, #1]!
    ac08:	e4c03001 	strb	r3, [r0], #1
    ac0c:	e150000a 	cmp	r0, sl
    ac10:	1afffffb 	bne	ac04 <chprintf+0x504>
    ac14:	e08bb002 	add	fp, fp, r2
    ac18:	e04bb006 	sub	fp, fp, r6
    ac1c:	e044400b 	sub	r4, r4, fp
    ac20:	e3570000 	cmp	r7, #0
    ac24:	e1c4afc4 	bic	sl, r4, r4, asr #31
    ac28:	124b7001 	subne	r7, fp, #1
    ac2c:	1a000003 	bne	ac40 <chprintf+0x540>
    ac30:	e3540000 	cmp	r4, #0
    ac34:	e24b7001 	sub	r7, fp, #1
    ac38:	e26aa000 	rsb	sl, sl, #0
    ac3c:	ca00000a 	bgt	ac6c <chprintf+0x56c>
    ac40:	e3570000 	cmp	r7, #0
    ac44:	aaffff71 	bge	aa10 <chprintf+0x310>
    ac48:	eaffff79 	b	aa34 <chprintf+0x334>
    ac4c:	e59d300c 	ldr	r3, [sp, #12]
    ac50:	e3a09020 	mov	r9, #32
    ac54:	e5932000 	ldr	r2, [r3]
    ac58:	e2833004 	add	r3, r3, #4
    ac5c:	e5cd2010 	strb	r2, [sp, #16]
    ac60:	e58d300c 	str	r3, [sp, #12]
    ac64:	eaffff5e 	b	a9e4 <chprintf+0x2e4>
    ac68:	e28d6010 	add	r6, sp, #16
    ac6c:	e5d63000 	ldrb	r3, [r6]
    ac70:	e353002d 	cmp	r3, #45	; 0x2d
    ac74:	03590030 	cmpeq	r9, #48	; 0x30
    ac78:	0a000074 	beq	ae50 <chprintf+0x750>
    ac7c:	e5953000 	ldr	r3, [r5]
    ac80:	e1a01009 	mov	r1, r9
    ac84:	e1a00005 	mov	r0, r5
    ac88:	e5933008 	ldr	r3, [r3, #8]
    ac8c:	e12fff33 	blx	r3
    ac90:	e29aa001 	adds	sl, sl, #1
    ac94:	1afffff8 	bne	ac7c <chprintf+0x57c>
    ac98:	e3570000 	cmp	r7, #0
    ac9c:	aaffff5b 	bge	aa10 <chprintf+0x310>
    aca0:	eafffea7 	b	a744 <chprintf+0x44>
    aca4:	e3a0e000 	mov	lr, #0
    aca8:	e59d000c 	ldr	r0, [sp, #12]
    acac:	e1a0200e 	mov	r2, lr
    acb0:	ea000003 	b	acc4 <chprintf+0x5c4>
    acb4:	e3a0e001 	mov	lr, #1
    acb8:	e4903004 	ldr	r3, [r0], #4
    acbc:	e6ef3073 	uxtb	r3, r3
    acc0:	e083208c 	add	r2, r3, ip, lsl #1
    acc4:	e4d81001 	ldrb	r1, [r8], #1
    acc8:	e082c102 	add	ip, r2, r2, lsl #2
    accc:	e2413030 	sub	r3, r1, #48	; 0x30
    acd0:	e6ef3073 	uxtb	r3, r3
    acd4:	e3530009 	cmp	r3, #9
    acd8:	9afffff8 	bls	acc0 <chprintf+0x5c0>
    acdc:	e351002a 	cmp	r1, #42	; 0x2a
    ace0:	0afffff3 	beq	acb4 <chprintf+0x5b4>
    ace4:	e35e0000 	cmp	lr, #0
    ace8:	158d000c 	strne	r0, [sp, #12]
    acec:	eafffebc 	b	a7e4 <chprintf+0xe4>
    acf0:	e3520000 	cmp	r2, #0
    acf4:	1a000061 	bne	ae80 <chprintf+0x780>
    acf8:	e59f21b0 	ldr	r2, [pc, #432]	; aeb0 <chprintf+0x7b0>
    acfc:	e59f61b8 	ldr	r6, [pc, #440]	; aebc <chprintf+0x7bc>
    ad00:	eaffff61 	b	aa8c <chprintf+0x38c>
    ad04:	e3530019 	cmp	r3, #25
    ad08:	9a000041 	bls	ae14 <chprintf+0x714>
    ad0c:	e59d300c 	ldr	r3, [sp, #12]
    ad10:	e2832004 	add	r2, r3, #4
    ad14:	e5931000 	ldr	r1, [r3]
    ad18:	e58d200c 	str	r2, [sp, #12]
    ad1c:	e3510000 	cmp	r1, #0
    ad20:	a28d6010 	addge	r6, sp, #16
    ad24:	a1a0c006 	movge	ip, r6
    ad28:	b28dc011 	addlt	ip, sp, #17
    ad2c:	b3a0302d 	movlt	r3, #45	; 0x2d
    ad30:	e28c200b 	add	r2, ip, #11
    ad34:	e1a00002 	mov	r0, r2
    ad38:	b2611000 	rsblt	r1, r1, #0
    ad3c:	b5cd3010 	strblt	r3, [sp, #16]
    ad40:	b28d6010 	addlt	r6, sp, #16
    ad44:	e59f3168 	ldr	r3, [pc, #360]	; aeb4 <chprintf+0x7b4>
    ad48:	e3510009 	cmp	r1, #9
    ad4c:	e083e193 	umull	lr, r3, r3, r1
    ad50:	e1a031a3 	lsr	r3, r3, #3
    ad54:	e1a0e003 	mov	lr, r3
    ad58:	e0833103 	add	r3, r3, r3, lsl #2
    ad5c:	e0413083 	sub	r3, r1, r3, lsl #1
    ad60:	e2833030 	add	r3, r3, #48	; 0x30
    ad64:	e6ef3073 	uxtb	r3, r3
    ad68:	e1a0100e 	mov	r1, lr
    ad6c:	e5603001 	strb	r3, [r0, #-1]!
    ad70:	cafffff3 	bgt	ad44 <chprintf+0x644>
    ad74:	e042b000 	sub	fp, r2, r0
    ad78:	e08cb00b 	add	fp, ip, fp
    ad7c:	ea000000 	b	ad84 <chprintf+0x684>
    ad80:	e5f03001 	ldrb	r3, [r0, #1]!
    ad84:	e4cc3001 	strb	r3, [ip], #1
    ad88:	e15c000b 	cmp	ip, fp
    ad8c:	1afffffb 	bne	ad80 <chprintf+0x680>
    ad90:	eaffffa0 	b	ac18 <chprintf+0x518>
    ad94:	e3a06008 	mov	r6, #8
    ad98:	e3530019 	cmp	r3, #25
    ad9c:	9a000022 	bls	ae2c <chprintf+0x72c>
    ada0:	e59d300c 	ldr	r3, [sp, #12]
    ada4:	e2832004 	add	r2, r3, #4
    ada8:	e5930000 	ldr	r0, [r3]
    adac:	e58d200c 	str	r2, [sp, #12]
    adb0:	e28db01b 	add	fp, sp, #27
    adb4:	ea000000 	b	adbc <chprintf+0x6bc>
    adb8:	e1a0b001 	mov	fp, r1
    adbc:	e1a01006 	mov	r1, r6
    adc0:	e1a0a000 	mov	sl, r0
    adc4:	ebfff5de 	bl	8544 <__aeabi_uidivmod>
    adc8:	e2813030 	add	r3, r1, #48	; 0x30
    adcc:	e3530039 	cmp	r3, #57	; 0x39
    add0:	c2813037 	addgt	r3, r1, #55	; 0x37
    add4:	e6ef3073 	uxtb	r3, r3
    add8:	e15a0006 	cmp	sl, r6
    addc:	e54b3001 	strb	r3, [fp, #-1]
    ade0:	e24b1001 	sub	r1, fp, #1
    ade4:	2afffff3 	bcs	adb8 <chprintf+0x6b8>
    ade8:	e28d6010 	add	r6, sp, #16
    adec:	e28d001b 	add	r0, sp, #27
    adf0:	e1a02006 	mov	r2, r6
    adf4:	e040a001 	sub	sl, r0, r1
    adf8:	ea000000 	b	ae00 <chprintf+0x700>
    adfc:	e4db3001 	ldrb	r3, [fp], #1
    ae00:	e150000b 	cmp	r0, fp
    ae04:	e4c23001 	strb	r3, [r2], #1
    ae08:	1afffffb 	bne	adfc <chprintf+0x6fc>
    ae0c:	e086b00a 	add	fp, r6, sl
    ae10:	eaffff80 	b	ac18 <chprintf+0x518>
    ae14:	e59d300c 	ldr	r3, [sp, #12]
    ae18:	e2832004 	add	r2, r3, #4
    ae1c:	e5931000 	ldr	r1, [r3]
    ae20:	e58d200c 	str	r2, [sp, #12]
    ae24:	eaffffbc 	b	ad1c <chprintf+0x61c>
    ae28:	e3a06008 	mov	r6, #8
    ae2c:	e59d300c 	ldr	r3, [sp, #12]
    ae30:	e2832004 	add	r2, r3, #4
    ae34:	e5930000 	ldr	r0, [r3]
    ae38:	e58d200c 	str	r2, [sp, #12]
    ae3c:	eaffffdb 	b	adb0 <chprintf+0x6b0>
    ae40:	e3a0600a 	mov	r6, #10
    ae44:	eaffffd3 	b	ad98 <chprintf+0x698>
    ae48:	e3a06010 	mov	r6, #16
    ae4c:	eafffff6 	b	ae2c <chprintf+0x72c>
    ae50:	e5953000 	ldr	r3, [r5]
    ae54:	e3a0102d 	mov	r1, #45	; 0x2d
    ae58:	e1a00005 	mov	r0, r5
    ae5c:	e5933008 	ldr	r3, [r3, #8]
    ae60:	e2866001 	add	r6, r6, #1
    ae64:	e2477001 	sub	r7, r7, #1
    ae68:	e12fff33 	blx	r3
    ae6c:	eaffff82 	b	ac7c <chprintf+0x57c>
    ae70:	e3a0600a 	mov	r6, #10
    ae74:	eaffffec 	b	ae2c <chprintf+0x72c>
    ae78:	e3a06010 	mov	r6, #16
    ae7c:	eaffffc5 	b	ad98 <chprintf+0x698>
    ae80:	e59f6034 	ldr	r6, [pc, #52]	; aebc <chprintf+0x7bc>
    ae84:	eaffff00 	b	aa8c <chprintf+0x38c>
    ae88:	e3570000 	cmp	r7, #0
    ae8c:	11a0a004 	movne	sl, r4
    ae90:	13a09020 	movne	r9, #32
    ae94:	1afffee6 	bne	aa34 <chprintf+0x334>
    ae98:	e3540000 	cmp	r4, #0
    ae9c:	e264a000 	rsb	sl, r4, #0
    aea0:	0afffe27 	beq	a744 <chprintf+0x44>
    aea4:	e3a09020 	mov	r9, #32
    aea8:	e3e07000 	mvn	r7, #0
    aeac:	eaffff72 	b	ac7c <chprintf+0x57c>
    aeb0:	00007fff 	strdeq	r7, [r0], -pc	; <UNPREDICTABLE>
    aeb4:	cccccccd 	stclgt	12, cr12, [ip], {205}	; 0xcd
    aeb8:	40f86a00 	rscsmi	r6, r8, r0, lsl #20
    aebc:	0000b100 	andeq	fp, r0, r0, lsl #2

0000aec0 <Thread_LCD>:
    aec0:	e92d41f0 	push	{r4, r5, r6, r7, r8, lr}
    aec4:	e3a05000 	mov	r5, #0
    aec8:	e59f30a8 	ldr	r3, [pc, #168]	; af78 <Thread_LCD+0xb8>
    aecc:	e59f20a8 	ldr	r2, [pc, #168]	; af7c <Thread_LCD+0xbc>
    aed0:	e5933018 	ldr	r3, [r3, #24]
    aed4:	e59f40a4 	ldr	r4, [pc, #164]	; af80 <Thread_LCD+0xc0>
    aed8:	e59f70a4 	ldr	r7, [pc, #164]	; af84 <Thread_LCD+0xc4>
    aedc:	e5832018 	str	r2, [r3, #24]
    aee0:	e2446030 	sub	r6, r4, #48	; 0x30
    aee4:	e3e02000 	mvn	r2, #0
    aee8:	e3a0107c 	mov	r1, #124	; 0x7c
    aeec:	e1a00004 	mov	r0, r4
    aef0:	ebfffabe 	bl	99f0 <chOQPutTimeout>
    aef4:	e3e02000 	mvn	r2, #0
    aef8:	e3a01018 	mov	r1, #24
    aefc:	e1a00004 	mov	r0, r4
    af00:	ebfffaba 	bl	99f0 <chOQPutTimeout>
    af04:	e3e02000 	mvn	r2, #0
    af08:	e3a01020 	mov	r1, #32
    af0c:	e1a00004 	mov	r0, r4
    af10:	ebfffab6 	bl	99f0 <chOQPutTimeout>
    af14:	e3a0000a 	mov	r0, #10
    af18:	ebfff908 	bl	9340 <chThdSleep>
    af1c:	e3e02000 	mvn	r2, #0
    af20:	e3a0107c 	mov	r1, #124	; 0x7c
    af24:	e1a00004 	mov	r0, r4
    af28:	ebfffab0 	bl	99f0 <chOQPutTimeout>
    af2c:	e3e02000 	mvn	r2, #0
    af30:	e3a01019 	mov	r1, #25
    af34:	e1a00004 	mov	r0, r4
    af38:	ebfffaac 	bl	99f0 <chOQPutTimeout>
    af3c:	e3e02000 	mvn	r2, #0
    af40:	e3a01020 	mov	r1, #32
    af44:	e1a00004 	mov	r0, r4
    af48:	ebfffaa8 	bl	99f0 <chOQPutTimeout>
    af4c:	e3a0000a 	mov	r0, #10
    af50:	ebfff8fa 	bl	9340 <chThdSleep>
    af54:	e1a02005 	mov	r2, r5
    af58:	e1a00006 	mov	r0, r6
    af5c:	e1a01007 	mov	r1, r7
    af60:	ebfffde6 	bl	a700 <chprintf>
    af64:	e2855001 	add	r5, r5, #1
    af68:	e3a00e7d 	mov	r0, #2000	; 0x7d0
    af6c:	e6ff5075 	uxth	r5, r5
    af70:	ebfff8f2 	bl	9340 <chThdSleep>
    af74:	eaffffda 	b	aee4 <Thread_LCD+0x24>
    af78:	0000b388 	andeq	fp, r0, r8, lsl #7
    af7c:	0000b110 	andeq	fp, r0, r0, lsl r1
    af80:	0000b404 	andeq	fp, r0, r4, lsl #8
    af84:	0000b11c 	andeq	fp, r0, ip, lsl r1
	...

0000af90 <main>:
    af90:	e92d4070 	push	{r4, r5, r6, lr}
    af94:	e3a06000 	mov	r6, #0
    af98:	e24dd020 	sub	sp, sp, #32
    af9c:	ebfffb63 	bl	9d30 <halInit>
    afa0:	ebfff72a 	bl	8c50 <chSysInit>
    afa4:	e59fe0dc 	ldr	lr, [pc, #220]	; b088 <main+0xf8>
    afa8:	e28dc00c 	add	ip, sp, #12
    afac:	e8be000f 	ldm	lr!, {r0, r1, r2, r3}
    afb0:	e8ac000f 	stmia	ip!, {r0, r1, r2, r3}
    afb4:	e59f50d0 	ldr	r5, [pc, #208]	; b08c <main+0xfc>
    afb8:	e59e3000 	ldr	r3, [lr]
    afbc:	e1a00005 	mov	r0, r5
    afc0:	e1a01006 	mov	r1, r6
    afc4:	e1cc30b0 	strh	r3, [ip]
    afc8:	e2854030 	add	r4, r5, #48	; 0x30
    afcc:	ebfffbab 	bl	9e80 <sdStart>
    afd0:	e1a00005 	mov	r0, r5
    afd4:	e59f10b4 	ldr	r1, [pc, #180]	; b090 <main+0x100>
    afd8:	ebfffdc8 	bl	a700 <chprintf>
    afdc:	e1a00004 	mov	r0, r4
    afe0:	e3e02000 	mvn	r2, #0
    afe4:	e3a0107c 	mov	r1, #124	; 0x7c
    afe8:	ebfffa80 	bl	99f0 <chOQPutTimeout>
    afec:	e1a00004 	mov	r0, r4
    aff0:	e3e02000 	mvn	r2, #0
    aff4:	e3a01018 	mov	r1, #24
    aff8:	ebfffa7c 	bl	99f0 <chOQPutTimeout>
    affc:	e1a01006 	mov	r1, r6
    b000:	e3e02000 	mvn	r2, #0
    b004:	e1a00004 	mov	r0, r4
    b008:	ebfffa78 	bl	99f0 <chOQPutTimeout>
    b00c:	e3a0000a 	mov	r0, #10
    b010:	ebfff8ca 	bl	9340 <chThdSleep>
    b014:	e1a00004 	mov	r0, r4
    b018:	e3e02000 	mvn	r2, #0
    b01c:	e3a0107c 	mov	r1, #124	; 0x7c
    b020:	ebfffa72 	bl	99f0 <chOQPutTimeout>
    b024:	e1a00004 	mov	r0, r4
    b028:	e3e02000 	mvn	r2, #0
    b02c:	e3a01019 	mov	r1, #25
    b030:	ebfffa6e 	bl	99f0 <chOQPutTimeout>
    b034:	e3e02000 	mvn	r2, #0
    b038:	e3a0100a 	mov	r1, #10
    b03c:	e1a00004 	mov	r0, r4
    b040:	ebfffa6a 	bl	99f0 <chOQPutTimeout>
    b044:	e3a0000a 	mov	r0, #10
    b048:	ebfff8bc 	bl	9340 <chThdSleep>
    b04c:	e1a00005 	mov	r0, r5
    b050:	e28d100c 	add	r1, sp, #12
    b054:	ebfffda9 	bl	a700 <chprintf>
    b058:	e3a0207f 	mov	r2, #127	; 0x7f
    b05c:	e3a01f46 	mov	r1, #280	; 0x118
    b060:	e59f302c 	ldr	r3, [pc, #44]	; b094 <main+0x104>
    b064:	e58d6000 	str	r6, [sp]
    b068:	e59f0028 	ldr	r0, [pc, #40]	; b098 <main+0x108>
    b06c:	ebfff887 	bl	9290 <chThdCreateStatic>
    b070:	e59f3024 	ldr	r3, [pc, #36]	; b09c <main+0x10c>
    b074:	e5930018 	ldr	r0, [r3, #24]
    b078:	ebfff8d8 	bl	93e0 <chThdWait>
    b07c:	e1a00006 	mov	r0, r6
    b080:	e28dd020 	add	sp, sp, #32
    b084:	e8bd8070 	pop	{r4, r5, r6, pc}
    b088:	0000b144 	andeq	fp, r0, r4, asr #2
    b08c:	0000b3d4 	ldrdeq	fp, [r0], -r4
    b090:	0000b130 	andeq	fp, r0, r0, lsr r1
    b094:	0000aec0 	andeq	sl, r0, r0, asr #29
    b098:	0000b1c4 	andeq	fp, r0, r4, asr #3
    b09c:	0000b388 	andeq	fp, r0, r8, lsl #7
    b0a0:	656c6469 	strbvs	r6, [ip, #-1129]!	; 0xfffffb97
	...

0000b0b0 <ch_debug>:
    b0b0:	6e69616d 	powvsez	f6, f1, #5.0
    b0b4:	11411600 	cmpne	r1, r0, lsl #12
    b0b8:	08440404 	stmdaeq	r4, {r2, sl}^
    b0bc:	1814100c 	ldmdane	r4, {r2, r3, ip}
    b0c0:	1e1d1c00 	cdpne	12, 1, cr1, cr13, cr0, {0}
    b0c4:	0000201f 	andeq	r2, r0, pc, lsl r0
	...

0000b0d0 <vmt>:
    b0d0:	00009dc0 	andeq	r9, r0, r0, asr #27
    b0d4:	00009da0 	andeq	r9, r0, r0, lsr #27
    b0d8:	00009e00 	andeq	r9, r0, r0, lsl #28
    b0dc:	00009de0 	andeq	r9, r0, r0, ror #27
    b0e0:	00009df0 	strdeq	r9, [r0], -r0
    b0e4:	00009dd0 	ldrdeq	r9, [r0], -r0
    b0e8:	00009db0 			; <UNDEFINED> instruction: 0x00009db0
    b0ec:	00009d90 	muleq	r0, r0, sp

0000b0f0 <default_config>:
    b0f0:	0001c200 	andeq	ip, r1, r0, lsl #4
	...

0000b100 <pal_default_config>:
    b100:	6c756e28 	ldclvs	14, cr6, [r5], #-160	; 0xffffff60
    b104:	0000296c 	andeq	r2, r0, ip, ror #18
	...
    b110:	69726553 	ldmdbvs	r2!, {r0, r1, r4, r6, r8, sl, sp, lr}^
    b114:	72506c61 	subsvc	r6, r0, #24832	; 0x6100
    b118:	00746e69 	rsbseq	r6, r4, r9, ror #28
    b11c:	72657449 	rsbvc	r7, r5, #1224736768	; 0x49000000
    b120:	25203a2e 	strcs	r3, [r0, #-2606]!	; 0xfffff5d2
    b124:	00000075 	andeq	r0, r0, r5, ror r0
	...
    b130:	6e69614d 	powvsem	f6, f1, #5.0
    b134:	44532820 	ldrbmi	r2, [r3], #-2080	; 0xfffff7e0
    b138:	74732031 	ldrbtvc	r2, [r3], #-49	; 0xffffffcf
    b13c:	65747261 	ldrbvs	r7, [r4, #-609]!	; 0xfffffd9f
    b140:	00002964 	andeq	r2, r0, r4, ror #18
    b144:	6c6c6548 	cfstr64vs	mvdx6, [ip], #-288	; 0xfffffee0
    b148:	6843206f 	stmdavs	r3, {r0, r1, r2, r3, r5, r6, sp}^
    b14c:	2d696269 	sfmcs	f6, 2, [r9, #-420]!	; 0xfffffe5c
    b150:	6c726f57 	ldclvs	15, cr6, [r2], #-348	; 0xfffffea4
    b154:	Address 0x000000000000b154 is out of bounds.

